ARM GAS  /tmp/ccNHUwTA.s 			page 1


   1              		.cpu cortex-m4
   2              		.eabi_attribute 27, 1
   3              		.eabi_attribute 20, 1
   4              		.eabi_attribute 21, 1
   5              		.eabi_attribute 23, 3
   6              		.eabi_attribute 24, 1
   7              		.eabi_attribute 25, 1
   8              		.eabi_attribute 26, 1
   9              		.eabi_attribute 30, 2
  10              		.eabi_attribute 34, 1
  11              		.eabi_attribute 18, 4
  12              		.file	"chevents.c"
  13              		.text
  14              		.section	.text.chEvtObjectInit,"ax",%progbits
  15              		.align	1
  16              		.p2align 4,,15
  17              		.global	chEvtObjectInit
  18              		.arch armv7e-m
  19              		.syntax unified
  20              		.thumb
  21              		.thumb_func
  22              		.fpu fpv4-sp-d16
  23              		.type	chEvtObjectInit, %function
  24              	chEvtObjectInit:
  25              		@ args = 0, pretend = 0, frame = 0
  26              		@ frame_needed = 0, uses_anonymous_args = 0
  27              		@ link register save eliminated.
  28 0000 0060     		str	r0, [r0]
  29 0002 7047     		bx	lr
  30              		.size	chEvtObjectInit, .-chEvtObjectInit
  31              		.section	.text.chEvtObjectDispose,"ax",%progbits
  32              		.align	1
  33              		.p2align 4,,15
  34              		.global	chEvtObjectDispose
  35              		.syntax unified
  36              		.thumb
  37              		.thumb_func
  38              		.fpu fpv4-sp-d16
  39              		.type	chEvtObjectDispose, %function
  40              	chEvtObjectDispose:
  41              		@ args = 0, pretend = 0, frame = 0
  42              		@ frame_needed = 0, uses_anonymous_args = 0
  43              		@ link register save eliminated.
  44 0000 7047     		bx	lr
  45              		.size	chEvtObjectDispose, .-chEvtObjectDispose
  46 0002 00BF     		.section	.text.chEvtRegisterMaskWithFlagsI,"ax",%progbits
  47              		.align	1
  48              		.p2align 4,,15
  49              		.global	chEvtRegisterMaskWithFlagsI
  50              		.syntax unified
  51              		.thumb
  52              		.thumb_func
  53              		.fpu fpv4-sp-d16
  54              		.type	chEvtRegisterMaskWithFlagsI, %function
  55              	chEvtRegisterMaskWithFlagsI:
  56              		@ args = 0, pretend = 0, frame = 0
  57              		@ frame_needed = 0, uses_anonymous_args = 0
ARM GAS  /tmp/ccNHUwTA.s 			page 2


  58              		@ link register save eliminated.
  59 0000 30B4     		push	{r4, r5}
  60 0002 064C     		ldr	r4, .L6
  61 0004 0568     		ldr	r5, [r0]
  62 0006 E468     		ldr	r4, [r4, #12]
  63 0008 0D60     		str	r5, [r1]
  64 000a 0160     		str	r1, [r0]
  65 000c 0020     		movs	r0, #0
  66 000e C1E90142 		strd	r4, r2, [r1, #4]
  67 0012 C1E90303 		strd	r0, r3, [r1, #12]
  68 0016 30BC     		pop	{r4, r5}
  69 0018 7047     		bx	lr
  70              	.L7:
  71 001a 00BF     		.align	2
  72              	.L6:
  73 001c 00000000 		.word	ch0
  74              		.size	chEvtRegisterMaskWithFlagsI, .-chEvtRegisterMaskWithFlagsI
  75              		.section	.text.chEvtRegisterMaskWithFlags,"ax",%progbits
  76              		.align	1
  77              		.p2align 4,,15
  78              		.global	chEvtRegisterMaskWithFlags
  79              		.syntax unified
  80              		.thumb
  81              		.thumb_func
  82              		.fpu fpv4-sp-d16
  83              		.type	chEvtRegisterMaskWithFlags, %function
  84              	chEvtRegisterMaskWithFlags:
  85              		@ args = 0, pretend = 0, frame = 0
  86              		@ frame_needed = 0, uses_anonymous_args = 0
  87 0000 F8B5     		push	{r3, r4, r5, r6, r7, lr}
  88 0002 1E46     		mov	r6, r3
  89 0004 0546     		mov	r5, r0
  90 0006 0C46     		mov	r4, r1
  91 0008 1746     		mov	r7, r2
  92 000a 3023     		movs	r3, #48
  93              		.syntax unified
  94              	@ 493 "/home/argroos/paparazzi/sw/ext/chibios/os/common/ext/ARM/CMSIS/Core/Include/cmsis_gcc.h" 1
  95 000c 83F31188 		MSR basepri, r3
  96              	@ 0 "" 2
  97              		.thumb
  98              		.syntax unified
  99 0010 FFF7FEFF 		bl	__stats_start_measure_crit_thd
 100 0014 074B     		ldr	r3, .L10
 101 0016 2A68     		ldr	r2, [r5]
 102 0018 DB68     		ldr	r3, [r3, #12]
 103 001a 2260     		str	r2, [r4]
 104 001c 2C60     		str	r4, [r5]
 105 001e 0025     		movs	r5, #0
 106 0020 C4E90137 		strd	r3, r7, [r4, #4]
 107 0024 C4E90356 		strd	r5, r6, [r4, #12]
 108 0028 FFF7FEFF 		bl	__stats_stop_measure_crit_thd
 109              		.syntax unified
 110              	@ 493 "/home/argroos/paparazzi/sw/ext/chibios/os/common/ext/ARM/CMSIS/Core/Include/cmsis_gcc.h" 1
 111 002c 85F31188 		MSR basepri, r5
 112              	@ 0 "" 2
 113              		.thumb
 114              		.syntax unified
ARM GAS  /tmp/ccNHUwTA.s 			page 3


 115 0030 F8BD     		pop	{r3, r4, r5, r6, r7, pc}
 116              	.L11:
 117 0032 00BF     		.align	2
 118              	.L10:
 119 0034 00000000 		.word	ch0
 120              		.size	chEvtRegisterMaskWithFlags, .-chEvtRegisterMaskWithFlags
 121              		.section	.text.chEvtUnregister,"ax",%progbits
 122              		.align	1
 123              		.p2align 4,,15
 124              		.global	chEvtUnregister
 125              		.syntax unified
 126              		.thumb
 127              		.thumb_func
 128              		.fpu fpv4-sp-d16
 129              		.type	chEvtUnregister, %function
 130              	chEvtUnregister:
 131              		@ args = 0, pretend = 0, frame = 0
 132              		@ frame_needed = 0, uses_anonymous_args = 0
 133 0000 38B5     		push	{r3, r4, r5, lr}
 134 0002 0446     		mov	r4, r0
 135 0004 0D46     		mov	r5, r1
 136 0006 3023     		movs	r3, #48
 137              		.syntax unified
 138              	@ 493 "/home/argroos/paparazzi/sw/ext/chibios/os/common/ext/ARM/CMSIS/Core/Include/cmsis_gcc.h" 1
 139 0008 83F31188 		MSR basepri, r3
 140              	@ 0 "" 2
 141              		.thumb
 142              		.syntax unified
 143 000c FFF7FEFF 		bl	__stats_start_measure_crit_thd
 144 0010 2346     		mov	r3, r4
 145 0012 01E0     		b	.L13
 146              	.L15:
 147 0014 AB42     		cmp	r3, r5
 148 0016 09D0     		beq	.L18
 149              	.L13:
 150 0018 1A46     		mov	r2, r3
 151 001a 1B68     		ldr	r3, [r3]
 152 001c 9C42     		cmp	r4, r3
 153 001e F9D1     		bne	.L15
 154 0020 FFF7FEFF 		bl	__stats_stop_measure_crit_thd
 155 0024 0023     		movs	r3, #0
 156              		.syntax unified
 157              	@ 493 "/home/argroos/paparazzi/sw/ext/chibios/os/common/ext/ARM/CMSIS/Core/Include/cmsis_gcc.h" 1
 158 0026 83F31188 		MSR basepri, r3
 159              	@ 0 "" 2
 160              		.thumb
 161              		.syntax unified
 162 002a 38BD     		pop	{r3, r4, r5, pc}
 163              	.L18:
 164 002c 1B68     		ldr	r3, [r3]
 165 002e 1360     		str	r3, [r2]
 166 0030 FFF7FEFF 		bl	__stats_stop_measure_crit_thd
 167 0034 0023     		movs	r3, #0
 168              		.syntax unified
 169              	@ 493 "/home/argroos/paparazzi/sw/ext/chibios/os/common/ext/ARM/CMSIS/Core/Include/cmsis_gcc.h" 1
 170 0036 83F31188 		MSR basepri, r3
 171              	@ 0 "" 2
ARM GAS  /tmp/ccNHUwTA.s 			page 4


 172              		.thumb
 173              		.syntax unified
 174 003a 38BD     		pop	{r3, r4, r5, pc}
 175              		.size	chEvtUnregister, .-chEvtUnregister
 176              		.section	.text.chEvtGetAndClearEventsI,"ax",%progbits
 177              		.align	1
 178              		.p2align 4,,15
 179              		.global	chEvtGetAndClearEventsI
 180              		.syntax unified
 181              		.thumb
 182              		.thumb_func
 183              		.fpu fpv4-sp-d16
 184              		.type	chEvtGetAndClearEventsI, %function
 185              	chEvtGetAndClearEventsI:
 186              		@ args = 0, pretend = 0, frame = 0
 187              		@ frame_needed = 0, uses_anonymous_args = 0
 188              		@ link register save eliminated.
 189 0000 034B     		ldr	r3, .L20
 190 0002 DA68     		ldr	r2, [r3, #12]
 191 0004 936B     		ldr	r3, [r2, #56]
 192 0006 23EA0001 		bic	r1, r3, r0
 193 000a 9163     		str	r1, [r2, #56]
 194 000c 1840     		ands	r0, r0, r3
 195 000e 7047     		bx	lr
 196              	.L21:
 197              		.align	2
 198              	.L20:
 199 0010 00000000 		.word	ch0
 200              		.size	chEvtGetAndClearEventsI, .-chEvtGetAndClearEventsI
 201              		.section	.text.chEvtGetAndClearEvents,"ax",%progbits
 202              		.align	1
 203              		.p2align 4,,15
 204              		.global	chEvtGetAndClearEvents
 205              		.syntax unified
 206              		.thumb
 207              		.thumb_func
 208              		.fpu fpv4-sp-d16
 209              		.type	chEvtGetAndClearEvents, %function
 210              	chEvtGetAndClearEvents:
 211              		@ args = 0, pretend = 0, frame = 8
 212              		@ frame_needed = 0, uses_anonymous_args = 0
 213 0000 10B5     		push	{r4, lr}
 214 0002 3023     		movs	r3, #48
 215 0004 82B0     		sub	sp, sp, #8
 216 0006 0446     		mov	r4, r0
 217              		.syntax unified
 218              	@ 493 "/home/argroos/paparazzi/sw/ext/chibios/os/common/ext/ARM/CMSIS/Core/Include/cmsis_gcc.h" 1
 219 0008 83F31188 		MSR basepri, r3
 220              	@ 0 "" 2
 221              		.thumb
 222              		.syntax unified
 223 000c FFF7FEFF 		bl	__stats_start_measure_crit_thd
 224 0010 074B     		ldr	r3, .L24
 225 0012 DB68     		ldr	r3, [r3, #12]
 226 0014 986B     		ldr	r0, [r3, #56]
 227 0016 20EA0402 		bic	r2, r0, r4
 228 001a 9A63     		str	r2, [r3, #56]
ARM GAS  /tmp/ccNHUwTA.s 			page 5


 229 001c 2040     		ands	r0, r0, r4
 230 001e 0190     		str	r0, [sp, #4]
 231 0020 FFF7FEFF 		bl	__stats_stop_measure_crit_thd
 232 0024 0023     		movs	r3, #0
 233              		.syntax unified
 234              	@ 493 "/home/argroos/paparazzi/sw/ext/chibios/os/common/ext/ARM/CMSIS/Core/Include/cmsis_gcc.h" 1
 235 0026 83F31188 		MSR basepri, r3
 236              	@ 0 "" 2
 237              		.thumb
 238              		.syntax unified
 239 002a 0198     		ldr	r0, [sp, #4]
 240 002c 02B0     		add	sp, sp, #8
 241              		@ sp needed
 242 002e 10BD     		pop	{r4, pc}
 243              	.L25:
 244              		.align	2
 245              	.L24:
 246 0030 00000000 		.word	ch0
 247              		.size	chEvtGetAndClearEvents, .-chEvtGetAndClearEvents
 248              		.section	.text.chEvtAddEvents,"ax",%progbits
 249              		.align	1
 250              		.p2align 4,,15
 251              		.global	chEvtAddEvents
 252              		.syntax unified
 253              		.thumb
 254              		.thumb_func
 255              		.fpu fpv4-sp-d16
 256              		.type	chEvtAddEvents, %function
 257              	chEvtAddEvents:
 258              		@ args = 0, pretend = 0, frame = 0
 259              		@ frame_needed = 0, uses_anonymous_args = 0
 260 0000 10B5     		push	{r4, lr}
 261 0002 3023     		movs	r3, #48
 262 0004 0446     		mov	r4, r0
 263              		.syntax unified
 264              	@ 493 "/home/argroos/paparazzi/sw/ext/chibios/os/common/ext/ARM/CMSIS/Core/Include/cmsis_gcc.h" 1
 265 0006 83F31188 		MSR basepri, r3
 266              	@ 0 "" 2
 267              		.thumb
 268              		.syntax unified
 269 000a FFF7FEFF 		bl	__stats_start_measure_crit_thd
 270 000e 064B     		ldr	r3, .L28
 271 0010 DB68     		ldr	r3, [r3, #12]
 272 0012 986B     		ldr	r0, [r3, #56]
 273 0014 0443     		orrs	r4, r4, r0
 274 0016 9C63     		str	r4, [r3, #56]
 275 0018 FFF7FEFF 		bl	__stats_stop_measure_crit_thd
 276 001c 0023     		movs	r3, #0
 277              		.syntax unified
 278              	@ 493 "/home/argroos/paparazzi/sw/ext/chibios/os/common/ext/ARM/CMSIS/Core/Include/cmsis_gcc.h" 1
 279 001e 83F31188 		MSR basepri, r3
 280              	@ 0 "" 2
 281              		.thumb
 282              		.syntax unified
 283 0022 2046     		mov	r0, r4
 284 0024 10BD     		pop	{r4, pc}
 285              	.L29:
ARM GAS  /tmp/ccNHUwTA.s 			page 6


 286 0026 00BF     		.align	2
 287              	.L28:
 288 0028 00000000 		.word	ch0
 289              		.size	chEvtAddEvents, .-chEvtAddEvents
 290              		.section	.text.chEvtGetAndClearFlagsI,"ax",%progbits
 291              		.align	1
 292              		.p2align 4,,15
 293              		.global	chEvtGetAndClearFlagsI
 294              		.syntax unified
 295              		.thumb
 296              		.thumb_func
 297              		.fpu fpv4-sp-d16
 298              		.type	chEvtGetAndClearFlagsI, %function
 299              	chEvtGetAndClearFlagsI:
 300              		@ args = 0, pretend = 0, frame = 0
 301              		@ frame_needed = 0, uses_anonymous_args = 0
 302              		@ link register save eliminated.
 303 0000 D0E90323 		ldrd	r2, r3, [r0, #12]
 304 0004 0021     		movs	r1, #0
 305 0006 C160     		str	r1, [r0, #12]
 306 0008 02EA0300 		and	r0, r2, r3
 307 000c 7047     		bx	lr
 308              		.size	chEvtGetAndClearFlagsI, .-chEvtGetAndClearFlagsI
 309 000e 00BF     		.section	.text.chEvtGetAndClearFlags,"ax",%progbits
 310              		.align	1
 311              		.p2align 4,,15
 312              		.global	chEvtGetAndClearFlags
 313              		.syntax unified
 314              		.thumb
 315              		.thumb_func
 316              		.fpu fpv4-sp-d16
 317              		.type	chEvtGetAndClearFlags, %function
 318              	chEvtGetAndClearFlags:
 319              		@ args = 0, pretend = 0, frame = 0
 320              		@ frame_needed = 0, uses_anonymous_args = 0
 321 0000 70B5     		push	{r4, r5, r6, lr}
 322 0002 3023     		movs	r3, #48
 323 0004 0446     		mov	r4, r0
 324              		.syntax unified
 325              	@ 493 "/home/argroos/paparazzi/sw/ext/chibios/os/common/ext/ARM/CMSIS/Core/Include/cmsis_gcc.h" 1
 326 0006 83F31188 		MSR basepri, r3
 327              	@ 0 "" 2
 328              		.thumb
 329              		.syntax unified
 330 000a 0025     		movs	r5, #0
 331 000c FFF7FEFF 		bl	__stats_start_measure_crit_thd
 332 0010 E668     		ldr	r6, [r4, #12]
 333 0012 E560     		str	r5, [r4, #12]
 334 0014 FFF7FEFF 		bl	__stats_stop_measure_crit_thd
 335              		.syntax unified
 336              	@ 493 "/home/argroos/paparazzi/sw/ext/chibios/os/common/ext/ARM/CMSIS/Core/Include/cmsis_gcc.h" 1
 337 0018 85F31188 		MSR basepri, r5
 338              	@ 0 "" 2
 339              		.thumb
 340              		.syntax unified
 341 001c 2069     		ldr	r0, [r4, #16]
 342 001e 3040     		ands	r0, r0, r6
ARM GAS  /tmp/ccNHUwTA.s 			page 7


 343 0020 70BD     		pop	{r4, r5, r6, pc}
 344              		.size	chEvtGetAndClearFlags, .-chEvtGetAndClearFlags
 345 0022 00BF     		.section	.text.chEvtSignalI,"ax",%progbits
 346              		.align	1
 347              		.p2align 4,,15
 348              		.global	chEvtSignalI
 349              		.syntax unified
 350              		.thumb
 351              		.thumb_func
 352              		.fpu fpv4-sp-d16
 353              		.type	chEvtSignalI, %function
 354              	chEvtSignalI:
 355              		@ args = 0, pretend = 0, frame = 0
 356              		@ frame_needed = 0, uses_anonymous_args = 0
 357              		@ link register save eliminated.
 358 0000 826B     		ldr	r2, [r0, #56]
 359 0002 90F82430 		ldrb	r3, [r0, #36]	@ zero_extendqisi2
 360 0006 1143     		orrs	r1, r1, r2
 361 0008 0A2B     		cmp	r3, #10
 362 000a 8163     		str	r1, [r0, #56]
 363 000c 09D0     		beq	.L37
 364 000e 0B2B     		cmp	r3, #11
 365 0010 00D0     		beq	.L38
 366              	.L33:
 367 0012 7047     		bx	lr
 368              	.L38:
 369 0014 836A     		ldr	r3, [r0, #40]
 370 0016 8B43     		bics	r3, r3, r1
 371 0018 FBD1     		bne	.L33
 372              	.L35:
 373 001a 0023     		movs	r3, #0
 374 001c 8362     		str	r3, [r0, #40]
 375 001e FFF7FEBF 		b	chSchReadyI
 376              	.L37:
 377 0022 836A     		ldr	r3, [r0, #40]
 378 0024 1942     		tst	r1, r3
 379 0026 F8D1     		bne	.L35
 380 0028 7047     		bx	lr
 381              		.size	chEvtSignalI, .-chEvtSignalI
 382 002a 00BF     		.section	.text.chEvtSignal,"ax",%progbits
 383              		.align	1
 384              		.p2align 4,,15
 385              		.global	chEvtSignal
 386              		.syntax unified
 387              		.thumb
 388              		.thumb_func
 389              		.fpu fpv4-sp-d16
 390              		.type	chEvtSignal, %function
 391              	chEvtSignal:
 392              		@ args = 0, pretend = 0, frame = 0
 393              		@ frame_needed = 0, uses_anonymous_args = 0
 394 0000 38B5     		push	{r3, r4, r5, lr}
 395 0002 0446     		mov	r4, r0
 396 0004 0D46     		mov	r5, r1
 397 0006 3023     		movs	r3, #48
 398              		.syntax unified
 399              	@ 493 "/home/argroos/paparazzi/sw/ext/chibios/os/common/ext/ARM/CMSIS/Core/Include/cmsis_gcc.h" 1
ARM GAS  /tmp/ccNHUwTA.s 			page 8


 400 0008 83F31188 		MSR basepri, r3
 401              	@ 0 "" 2
 402              		.thumb
 403              		.syntax unified
 404 000c FFF7FEFF 		bl	__stats_start_measure_crit_thd
 405 0010 A16B     		ldr	r1, [r4, #56]
 406 0012 94F82430 		ldrb	r3, [r4, #36]	@ zero_extendqisi2
 407 0016 2943     		orrs	r1, r1, r5
 408 0018 0A2B     		cmp	r3, #10
 409 001a A163     		str	r1, [r4, #56]
 410 001c 12D0     		beq	.L45
 411 001e 0B2B     		cmp	r3, #11
 412 0020 07D0     		beq	.L46
 413              	.L42:
 414 0022 FFF7FEFF 		bl	chSchRescheduleS
 415 0026 FFF7FEFF 		bl	__stats_stop_measure_crit_thd
 416 002a 0023     		movs	r3, #0
 417              		.syntax unified
 418              	@ 493 "/home/argroos/paparazzi/sw/ext/chibios/os/common/ext/ARM/CMSIS/Core/Include/cmsis_gcc.h" 1
 419 002c 83F31188 		MSR basepri, r3
 420              	@ 0 "" 2
 421              		.thumb
 422              		.syntax unified
 423 0030 38BD     		pop	{r3, r4, r5, pc}
 424              	.L46:
 425 0032 A36A     		ldr	r3, [r4, #40]
 426 0034 8B43     		bics	r3, r3, r1
 427 0036 F4D1     		bne	.L42
 428 0038 0023     		movs	r3, #0
 429 003a A362     		str	r3, [r4, #40]
 430 003c 2046     		mov	r0, r4
 431 003e FFF7FEFF 		bl	chSchReadyI
 432 0042 EEE7     		b	.L42
 433              	.L45:
 434 0044 A36A     		ldr	r3, [r4, #40]
 435 0046 1942     		tst	r1, r3
 436 0048 EBD0     		beq	.L42
 437 004a 0023     		movs	r3, #0
 438 004c A362     		str	r3, [r4, #40]
 439 004e 2046     		mov	r0, r4
 440 0050 FFF7FEFF 		bl	chSchReadyI
 441 0054 E5E7     		b	.L42
 442              		.size	chEvtSignal, .-chEvtSignal
 443 0056 00BF     		.section	.text.chEvtBroadcastFlagsI,"ax",%progbits
 444              		.align	1
 445              		.p2align 4,,15
 446              		.global	chEvtBroadcastFlagsI
 447              		.syntax unified
 448              		.thumb
 449              		.thumb_func
 450              		.fpu fpv4-sp-d16
 451              		.type	chEvtBroadcastFlagsI, %function
 452              	chEvtBroadcastFlagsI:
 453              		@ args = 0, pretend = 0, frame = 0
 454              		@ frame_needed = 0, uses_anonymous_args = 0
 455 0000 F8B5     		push	{r3, r4, r5, r6, r7, lr}
 456 0002 0468     		ldr	r4, [r0]
ARM GAS  /tmp/ccNHUwTA.s 			page 9


 457 0004 A042     		cmp	r0, r4
 458 0006 21D0     		beq	.L47
 459 0008 0746     		mov	r7, r0
 460 000a 0D46     		mov	r5, r1
 461 000c 0026     		movs	r6, #0
 462 000e 04E0     		b	.L54
 463              	.L51:
 464 0010 0B2A     		cmp	r2, #11
 465 0012 1CD0     		beq	.L60
 466              	.L50:
 467 0014 2468     		ldr	r4, [r4]
 468 0016 A742     		cmp	r7, r4
 469 0018 18D0     		beq	.L47
 470              	.L54:
 471 001a E368     		ldr	r3, [r4, #12]
 472 001c 2B43     		orrs	r3, r3, r5
 473 001e E360     		str	r3, [r4, #12]
 474 0020 15B1     		cbz	r5, .L49
 475 0022 2369     		ldr	r3, [r4, #16]
 476 0024 1D42     		tst	r5, r3
 477 0026 F5D0     		beq	.L50
 478              	.L49:
 479 0028 D4E90103 		ldrd	r0, r3, [r4, #4]
 480 002c 816B     		ldr	r1, [r0, #56]
 481 002e 90F82420 		ldrb	r2, [r0, #36]	@ zero_extendqisi2
 482 0032 0B43     		orrs	r3, r3, r1
 483 0034 0A2A     		cmp	r2, #10
 484 0036 8363     		str	r3, [r0, #56]
 485 0038 EAD1     		bne	.L51
 486 003a 826A     		ldr	r2, [r0, #40]
 487 003c 1342     		tst	r3, r2
 488 003e E9D0     		beq	.L50
 489              	.L52:
 490 0040 8662     		str	r6, [r0, #40]
 491 0042 FFF7FEFF 		bl	chSchReadyI
 492 0046 2468     		ldr	r4, [r4]
 493 0048 A742     		cmp	r7, r4
 494 004a E6D1     		bne	.L54
 495              	.L47:
 496 004c F8BD     		pop	{r3, r4, r5, r6, r7, pc}
 497              	.L60:
 498 004e 826A     		ldr	r2, [r0, #40]
 499 0050 32EA0303 		bics	r3, r2, r3
 500 0054 DED1     		bne	.L50
 501 0056 F3E7     		b	.L52
 502              		.size	chEvtBroadcastFlagsI, .-chEvtBroadcastFlagsI
 503              		.section	.text.chEvtBroadcastFlags,"ax",%progbits
 504              		.align	1
 505              		.p2align 4,,15
 506              		.global	chEvtBroadcastFlags
 507              		.syntax unified
 508              		.thumb
 509              		.thumb_func
 510              		.fpu fpv4-sp-d16
 511              		.type	chEvtBroadcastFlags, %function
 512              	chEvtBroadcastFlags:
 513              		@ args = 0, pretend = 0, frame = 8
ARM GAS  /tmp/ccNHUwTA.s 			page 10


 514              		@ frame_needed = 0, uses_anonymous_args = 0
 515 0000 00B5     		push	{lr}
 516 0002 83B0     		sub	sp, sp, #12
 517 0004 CDE90010 		strd	r1, r0, [sp]
 518 0008 3023     		movs	r3, #48
 519              		.syntax unified
 520              	@ 493 "/home/argroos/paparazzi/sw/ext/chibios/os/common/ext/ARM/CMSIS/Core/Include/cmsis_gcc.h" 1
 521 000a 83F31188 		MSR basepri, r3
 522              	@ 0 "" 2
 523              		.thumb
 524              		.syntax unified
 525 000e FFF7FEFF 		bl	__stats_start_measure_crit_thd
 526 0012 DDE90010 		ldrd	r1, r0, [sp]
 527 0016 FFF7FEFF 		bl	chEvtBroadcastFlagsI
 528 001a FFF7FEFF 		bl	chSchRescheduleS
 529 001e FFF7FEFF 		bl	__stats_stop_measure_crit_thd
 530 0022 0023     		movs	r3, #0
 531              		.syntax unified
 532              	@ 493 "/home/argroos/paparazzi/sw/ext/chibios/os/common/ext/ARM/CMSIS/Core/Include/cmsis_gcc.h" 1
 533 0024 83F31188 		MSR basepri, r3
 534              	@ 0 "" 2
 535              		.thumb
 536              		.syntax unified
 537 0028 03B0     		add	sp, sp, #12
 538              		@ sp needed
 539 002a 5DF804FB 		ldr	pc, [sp], #4
 540              		.size	chEvtBroadcastFlags, .-chEvtBroadcastFlags
 541 002e 00BF     		.section	.text.chEvtDispatch,"ax",%progbits
 542              		.align	1
 543              		.p2align 4,,15
 544              		.global	chEvtDispatch
 545              		.syntax unified
 546              		.thumb
 547              		.thumb_func
 548              		.fpu fpv4-sp-d16
 549              		.type	chEvtDispatch, %function
 550              	chEvtDispatch:
 551              		@ args = 0, pretend = 0, frame = 0
 552              		@ frame_needed = 0, uses_anonymous_args = 0
 553 0000 B9B1     		cbz	r1, .L75
 554 0002 F8B5     		push	{r3, r4, r5, r6, r7, lr}
 555 0004 0746     		mov	r7, r0
 556 0006 0D46     		mov	r5, r1
 557 0008 0024     		movs	r4, #0
 558 000a 0126     		movs	r6, #1
 559              	.L66:
 560 000c 25FA04F3 		lsr	r3, r5, r4
 561 0010 13F0010F 		tst	r3, #1
 562 0014 06FA04F2 		lsl	r2, r6, r4
 563 0018 2046     		mov	r0, r4
 564 001a 08D0     		beq	.L65
 565 001c 57F82430 		ldr	r3, [r7, r4, lsl #2]
 566 0020 25EA0205 		bic	r5, r5, r2
 567 0024 0134     		adds	r4, r4, #1
 568 0026 9847     		blx	r3
 569 0028 002D     		cmp	r5, #0
 570 002a EFD1     		bne	.L66
ARM GAS  /tmp/ccNHUwTA.s 			page 11


 571 002c F8BD     		pop	{r3, r4, r5, r6, r7, pc}
 572              	.L65:
 573 002e 0134     		adds	r4, r4, #1
 574 0030 ECE7     		b	.L66
 575              	.L75:
 576 0032 7047     		bx	lr
 577              		.size	chEvtDispatch, .-chEvtDispatch
 578              		.section	.text.chEvtWaitOne,"ax",%progbits
 579              		.align	1
 580              		.p2align 4,,15
 581              		.global	chEvtWaitOne
 582              		.syntax unified
 583              		.thumb
 584              		.thumb_func
 585              		.fpu fpv4-sp-d16
 586              		.type	chEvtWaitOne, %function
 587              	chEvtWaitOne:
 588              		@ args = 0, pretend = 0, frame = 0
 589              		@ frame_needed = 0, uses_anonymous_args = 0
 590 0000 38B5     		push	{r3, r4, r5, lr}
 591 0002 104B     		ldr	r3, .L82
 592 0004 0446     		mov	r4, r0
 593 0006 DD68     		ldr	r5, [r3, #12]
 594 0008 3023     		movs	r3, #48
 595              		.syntax unified
 596              	@ 493 "/home/argroos/paparazzi/sw/ext/chibios/os/common/ext/ARM/CMSIS/Core/Include/cmsis_gcc.h" 1
 597 000a 83F31188 		MSR basepri, r3
 598              	@ 0 "" 2
 599              		.thumb
 600              		.syntax unified
 601 000e FFF7FEFF 		bl	__stats_start_measure_crit_thd
 602 0012 AB6B     		ldr	r3, [r5, #56]
 603 0014 13EA0400 		ands	r0, r3, r4
 604 0018 0BD0     		beq	.L81
 605              	.L79:
 606 001a 4442     		rsbs	r4, r0, #0
 607 001c 0440     		ands	r4, r4, r0
 608 001e 23EA0403 		bic	r3, r3, r4
 609 0022 AB63     		str	r3, [r5, #56]
 610 0024 FFF7FEFF 		bl	__stats_stop_measure_crit_thd
 611 0028 0023     		movs	r3, #0
 612              		.syntax unified
 613              	@ 493 "/home/argroos/paparazzi/sw/ext/chibios/os/common/ext/ARM/CMSIS/Core/Include/cmsis_gcc.h" 1
 614 002a 83F31188 		MSR basepri, r3
 615              	@ 0 "" 2
 616              		.thumb
 617              		.syntax unified
 618 002e 2046     		mov	r0, r4
 619 0030 38BD     		pop	{r3, r4, r5, pc}
 620              	.L81:
 621 0032 0A20     		movs	r0, #10
 622 0034 AC62     		str	r4, [r5, #40]
 623 0036 FFF7FEFF 		bl	chSchGoSleepS
 624 003a AB6B     		ldr	r3, [r5, #56]
 625 003c 03EA0400 		and	r0, r3, r4
 626 0040 EBE7     		b	.L79
 627              	.L83:
ARM GAS  /tmp/ccNHUwTA.s 			page 12


 628 0042 00BF     		.align	2
 629              	.L82:
 630 0044 00000000 		.word	ch0
 631              		.size	chEvtWaitOne, .-chEvtWaitOne
 632              		.section	.text.chEvtWaitAny,"ax",%progbits
 633              		.align	1
 634              		.p2align 4,,15
 635              		.global	chEvtWaitAny
 636              		.syntax unified
 637              		.thumb
 638              		.thumb_func
 639              		.fpu fpv4-sp-d16
 640              		.type	chEvtWaitAny, %function
 641              	chEvtWaitAny:
 642              		@ args = 0, pretend = 0, frame = 0
 643              		@ frame_needed = 0, uses_anonymous_args = 0
 644 0000 0F4B     		ldr	r3, .L88
 645 0002 70B5     		push	{r4, r5, r6, lr}
 646 0004 DD68     		ldr	r5, [r3, #12]
 647 0006 0446     		mov	r4, r0
 648 0008 3023     		movs	r3, #48
 649              		.syntax unified
 650              	@ 493 "/home/argroos/paparazzi/sw/ext/chibios/os/common/ext/ARM/CMSIS/Core/Include/cmsis_gcc.h" 1
 651 000a 83F31188 		MSR basepri, r3
 652              	@ 0 "" 2
 653              		.thumb
 654              		.syntax unified
 655 000e FFF7FEFF 		bl	__stats_start_measure_crit_thd
 656 0012 AB6B     		ldr	r3, [r5, #56]
 657 0014 13EA0406 		ands	r6, r3, r4
 658 0018 09D0     		beq	.L87
 659              	.L85:
 660 001a 23EA0603 		bic	r3, r3, r6
 661 001e AB63     		str	r3, [r5, #56]
 662 0020 FFF7FEFF 		bl	__stats_stop_measure_crit_thd
 663 0024 0023     		movs	r3, #0
 664              		.syntax unified
 665              	@ 493 "/home/argroos/paparazzi/sw/ext/chibios/os/common/ext/ARM/CMSIS/Core/Include/cmsis_gcc.h" 1
 666 0026 83F31188 		MSR basepri, r3
 667              	@ 0 "" 2
 668              		.thumb
 669              		.syntax unified
 670 002a 3046     		mov	r0, r6
 671 002c 70BD     		pop	{r4, r5, r6, pc}
 672              	.L87:
 673 002e AC62     		str	r4, [r5, #40]
 674 0030 0A20     		movs	r0, #10
 675 0032 FFF7FEFF 		bl	chSchGoSleepS
 676 0036 AB6B     		ldr	r3, [r5, #56]
 677 0038 03EA0406 		and	r6, r3, r4
 678 003c EDE7     		b	.L85
 679              	.L89:
 680 003e 00BF     		.align	2
 681              	.L88:
 682 0040 00000000 		.word	ch0
 683              		.size	chEvtWaitAny, .-chEvtWaitAny
 684              		.section	.text.chEvtWaitAll,"ax",%progbits
ARM GAS  /tmp/ccNHUwTA.s 			page 13


 685              		.align	1
 686              		.p2align 4,,15
 687              		.global	chEvtWaitAll
 688              		.syntax unified
 689              		.thumb
 690              		.thumb_func
 691              		.fpu fpv4-sp-d16
 692              		.type	chEvtWaitAll, %function
 693              	chEvtWaitAll:
 694              		@ args = 0, pretend = 0, frame = 0
 695              		@ frame_needed = 0, uses_anonymous_args = 0
 696 0000 38B5     		push	{r3, r4, r5, lr}
 697 0002 0D4B     		ldr	r3, .L93
 698 0004 0446     		mov	r4, r0
 699 0006 DD68     		ldr	r5, [r3, #12]
 700 0008 3023     		movs	r3, #48
 701              		.syntax unified
 702              	@ 493 "/home/argroos/paparazzi/sw/ext/chibios/os/common/ext/ARM/CMSIS/Core/Include/cmsis_gcc.h" 1
 703 000a 83F31188 		MSR basepri, r3
 704              	@ 0 "" 2
 705              		.thumb
 706              		.syntax unified
 707 000e FFF7FEFF 		bl	__stats_start_measure_crit_thd
 708 0012 AB6B     		ldr	r3, [r5, #56]
 709 0014 34EA0302 		bics	r2, r4, r3
 710 0018 04D0     		beq	.L91
 711 001a AC62     		str	r4, [r5, #40]
 712 001c 0B20     		movs	r0, #11
 713 001e FFF7FEFF 		bl	chSchGoSleepS
 714 0022 AB6B     		ldr	r3, [r5, #56]
 715              	.L91:
 716 0024 23EA0403 		bic	r3, r3, r4
 717 0028 AB63     		str	r3, [r5, #56]
 718 002a FFF7FEFF 		bl	__stats_stop_measure_crit_thd
 719 002e 0023     		movs	r3, #0
 720              		.syntax unified
 721              	@ 493 "/home/argroos/paparazzi/sw/ext/chibios/os/common/ext/ARM/CMSIS/Core/Include/cmsis_gcc.h" 1
 722 0030 83F31188 		MSR basepri, r3
 723              	@ 0 "" 2
 724              		.thumb
 725              		.syntax unified
 726 0034 2046     		mov	r0, r4
 727 0036 38BD     		pop	{r3, r4, r5, pc}
 728              	.L94:
 729              		.align	2
 730              	.L93:
 731 0038 00000000 		.word	ch0
 732              		.size	chEvtWaitAll, .-chEvtWaitAll
 733              		.section	.text.chEvtWaitOneTimeout,"ax",%progbits
 734              		.align	1
 735              		.p2align 4,,15
 736              		.global	chEvtWaitOneTimeout
 737              		.syntax unified
 738              		.thumb
 739              		.thumb_func
 740              		.fpu fpv4-sp-d16
 741              		.type	chEvtWaitOneTimeout, %function
ARM GAS  /tmp/ccNHUwTA.s 			page 14


 742              	chEvtWaitOneTimeout:
 743              		@ args = 0, pretend = 0, frame = 0
 744              		@ frame_needed = 0, uses_anonymous_args = 0
 745 0000 F8B5     		push	{r3, r4, r5, r6, r7, lr}
 746 0002 154B     		ldr	r3, .L102
 747 0004 0446     		mov	r4, r0
 748 0006 DF68     		ldr	r7, [r3, #12]
 749 0008 0E46     		mov	r6, r1
 750 000a 3023     		movs	r3, #48
 751              		.syntax unified
 752              	@ 493 "/home/argroos/paparazzi/sw/ext/chibios/os/common/ext/ARM/CMSIS/Core/Include/cmsis_gcc.h" 1
 753 000c 83F31188 		MSR basepri, r3
 754              	@ 0 "" 2
 755              		.thumb
 756              		.syntax unified
 757 0010 FFF7FEFF 		bl	__stats_start_measure_crit_thd
 758 0014 BB6B     		ldr	r3, [r7, #56]
 759 0016 13EA0405 		ands	r5, r3, r4
 760 001a 0AD1     		bne	.L96
 761 001c AEB1     		cbz	r6, .L101
 762 001e BC62     		str	r4, [r7, #40]
 763 0020 3146     		mov	r1, r6
 764 0022 0A20     		movs	r0, #10
 765 0024 FFF7FEFF 		bl	chSchGoSleepTimeoutS
 766 0028 0028     		cmp	r0, #0
 767 002a 0EDB     		blt	.L101
 768 002c BB6B     		ldr	r3, [r7, #56]
 769 002e 03EA0405 		and	r5, r3, r4
 770              	.L96:
 771 0032 6A42     		rsbs	r2, r5, #0
 772 0034 1540     		ands	r5, r5, r2
 773 0036 23EA0503 		bic	r3, r3, r5
 774 003a BB63     		str	r3, [r7, #56]
 775 003c FFF7FEFF 		bl	__stats_stop_measure_crit_thd
 776 0040 0023     		movs	r3, #0
 777              		.syntax unified
 778              	@ 493 "/home/argroos/paparazzi/sw/ext/chibios/os/common/ext/ARM/CMSIS/Core/Include/cmsis_gcc.h" 1
 779 0042 83F31188 		MSR basepri, r3
 780              	@ 0 "" 2
 781              		.thumb
 782              		.syntax unified
 783 0046 2846     		mov	r0, r5
 784 0048 F8BD     		pop	{r3, r4, r5, r6, r7, pc}
 785              	.L101:
 786 004a FFF7FEFF 		bl	__stats_stop_measure_crit_thd
 787              		.syntax unified
 788              	@ 493 "/home/argroos/paparazzi/sw/ext/chibios/os/common/ext/ARM/CMSIS/Core/Include/cmsis_gcc.h" 1
 789 004e 85F31188 		MSR basepri, r5
 790              	@ 0 "" 2
 791              		.thumb
 792              		.syntax unified
 793 0052 2846     		mov	r0, r5
 794 0054 F8BD     		pop	{r3, r4, r5, r6, r7, pc}
 795              	.L103:
 796 0056 00BF     		.align	2
 797              	.L102:
 798 0058 00000000 		.word	ch0
ARM GAS  /tmp/ccNHUwTA.s 			page 15


 799              		.size	chEvtWaitOneTimeout, .-chEvtWaitOneTimeout
 800              		.section	.text.chEvtWaitAnyTimeout,"ax",%progbits
 801              		.align	1
 802              		.p2align 4,,15
 803              		.global	chEvtWaitAnyTimeout
 804              		.syntax unified
 805              		.thumb
 806              		.thumb_func
 807              		.fpu fpv4-sp-d16
 808              		.type	chEvtWaitAnyTimeout, %function
 809              	chEvtWaitAnyTimeout:
 810              		@ args = 0, pretend = 0, frame = 0
 811              		@ frame_needed = 0, uses_anonymous_args = 0
 812 0000 F8B5     		push	{r3, r4, r5, r6, r7, lr}
 813 0002 144B     		ldr	r3, .L111
 814 0004 0446     		mov	r4, r0
 815 0006 DE68     		ldr	r6, [r3, #12]
 816 0008 0D46     		mov	r5, r1
 817 000a 3023     		movs	r3, #48
 818              		.syntax unified
 819              	@ 493 "/home/argroos/paparazzi/sw/ext/chibios/os/common/ext/ARM/CMSIS/Core/Include/cmsis_gcc.h" 1
 820 000c 83F31188 		MSR basepri, r3
 821              	@ 0 "" 2
 822              		.thumb
 823              		.syntax unified
 824 0010 FFF7FEFF 		bl	__stats_start_measure_crit_thd
 825 0014 B36B     		ldr	r3, [r6, #56]
 826 0016 13EA0407 		ands	r7, r3, r4
 827 001a 0AD1     		bne	.L105
 828 001c 9DB1     		cbz	r5, .L110
 829 001e B462     		str	r4, [r6, #40]
 830 0020 2946     		mov	r1, r5
 831 0022 0A20     		movs	r0, #10
 832 0024 FFF7FEFF 		bl	chSchGoSleepTimeoutS
 833 0028 0028     		cmp	r0, #0
 834 002a 0CDB     		blt	.L110
 835 002c B36B     		ldr	r3, [r6, #56]
 836 002e 03EA0407 		and	r7, r3, r4
 837              	.L105:
 838 0032 23EA0703 		bic	r3, r3, r7
 839 0036 B363     		str	r3, [r6, #56]
 840 0038 FFF7FEFF 		bl	__stats_stop_measure_crit_thd
 841 003c 0023     		movs	r3, #0
 842              		.syntax unified
 843              	@ 493 "/home/argroos/paparazzi/sw/ext/chibios/os/common/ext/ARM/CMSIS/Core/Include/cmsis_gcc.h" 1
 844 003e 83F31188 		MSR basepri, r3
 845              	@ 0 "" 2
 846              		.thumb
 847              		.syntax unified
 848 0042 3846     		mov	r0, r7
 849 0044 F8BD     		pop	{r3, r4, r5, r6, r7, pc}
 850              	.L110:
 851 0046 FFF7FEFF 		bl	__stats_stop_measure_crit_thd
 852              		.syntax unified
 853              	@ 493 "/home/argroos/paparazzi/sw/ext/chibios/os/common/ext/ARM/CMSIS/Core/Include/cmsis_gcc.h" 1
 854 004a 87F31188 		MSR basepri, r7
 855              	@ 0 "" 2
ARM GAS  /tmp/ccNHUwTA.s 			page 16


 856              		.thumb
 857              		.syntax unified
 858 004e 3846     		mov	r0, r7
 859 0050 F8BD     		pop	{r3, r4, r5, r6, r7, pc}
 860              	.L112:
 861 0052 00BF     		.align	2
 862              	.L111:
 863 0054 00000000 		.word	ch0
 864              		.size	chEvtWaitAnyTimeout, .-chEvtWaitAnyTimeout
 865              		.section	.text.chEvtWaitAllTimeout,"ax",%progbits
 866              		.align	1
 867              		.p2align 4,,15
 868              		.global	chEvtWaitAllTimeout
 869              		.syntax unified
 870              		.thumb
 871              		.thumb_func
 872              		.fpu fpv4-sp-d16
 873              		.type	chEvtWaitAllTimeout, %function
 874              	chEvtWaitAllTimeout:
 875              		@ args = 0, pretend = 0, frame = 0
 876              		@ frame_needed = 0, uses_anonymous_args = 0
 877 0000 164B     		ldr	r3, .L120
 878 0002 70B5     		push	{r4, r5, r6, lr}
 879 0004 DE68     		ldr	r6, [r3, #12]
 880 0006 0446     		mov	r4, r0
 881 0008 0D46     		mov	r5, r1
 882 000a 3023     		movs	r3, #48
 883              		.syntax unified
 884              	@ 493 "/home/argroos/paparazzi/sw/ext/chibios/os/common/ext/ARM/CMSIS/Core/Include/cmsis_gcc.h" 1
 885 000c 83F31188 		MSR basepri, r3
 886              	@ 0 "" 2
 887              		.thumb
 888              		.syntax unified
 889 0010 FFF7FEFF 		bl	__stats_start_measure_crit_thd
 890 0014 B36B     		ldr	r3, [r6, #56]
 891 0016 34EA0302 		bics	r2, r4, r3
 892 001a 08D0     		beq	.L114
 893 001c 8DB1     		cbz	r5, .L119
 894 001e B462     		str	r4, [r6, #40]
 895 0020 2946     		mov	r1, r5
 896 0022 0B20     		movs	r0, #11
 897 0024 FFF7FEFF 		bl	chSchGoSleepTimeoutS
 898 0028 0028     		cmp	r0, #0
 899 002a 10DB     		blt	.L117
 900 002c B36B     		ldr	r3, [r6, #56]
 901              	.L114:
 902 002e 23EA0403 		bic	r3, r3, r4
 903 0032 B363     		str	r3, [r6, #56]
 904 0034 FFF7FEFF 		bl	__stats_stop_measure_crit_thd
 905 0038 0023     		movs	r3, #0
 906              		.syntax unified
 907              	@ 493 "/home/argroos/paparazzi/sw/ext/chibios/os/common/ext/ARM/CMSIS/Core/Include/cmsis_gcc.h" 1
 908 003a 83F31188 		MSR basepri, r3
 909              	@ 0 "" 2
 910              		.thumb
 911              		.syntax unified
 912 003e 2046     		mov	r0, r4
ARM GAS  /tmp/ccNHUwTA.s 			page 17


 913 0040 70BD     		pop	{r4, r5, r6, pc}
 914              	.L119:
 915 0042 FFF7FEFF 		bl	__stats_stop_measure_crit_thd
 916              		.syntax unified
 917              	@ 493 "/home/argroos/paparazzi/sw/ext/chibios/os/common/ext/ARM/CMSIS/Core/Include/cmsis_gcc.h" 1
 918 0046 85F31188 		MSR basepri, r5
 919              	@ 0 "" 2
 920              		.thumb
 921              		.syntax unified
 922 004a 2846     		mov	r0, r5
 923 004c 70BD     		pop	{r4, r5, r6, pc}
 924              	.L117:
 925 004e FFF7FEFF 		bl	__stats_stop_measure_crit_thd
 926 0052 0020     		movs	r0, #0
 927              		.syntax unified
 928              	@ 493 "/home/argroos/paparazzi/sw/ext/chibios/os/common/ext/ARM/CMSIS/Core/Include/cmsis_gcc.h" 1
 929 0054 80F31188 		MSR basepri, r0
 930              	@ 0 "" 2
 931              		.thumb
 932              		.syntax unified
 933 0058 70BD     		pop	{r4, r5, r6, pc}
 934              	.L121:
 935 005a 00BF     		.align	2
 936              	.L120:
 937 005c 00000000 		.word	ch0
 938              		.size	chEvtWaitAllTimeout, .-chEvtWaitAllTimeout
 939              		.ident	"GCC: (15:10.3-2021.07-4) 10.3.1 20210621 (release)"
ARM GAS  /tmp/ccNHUwTA.s 			page 18

