ARM GAS  /tmp/ccnkGdMS.s 			page 1


   1              		.cpu cortex-m4
   2              		.eabi_attribute 27, 1
   3              		.eabi_attribute 20, 1
   4              		.eabi_attribute 21, 1
   5              		.eabi_attribute 23, 3
   6              		.eabi_attribute 24, 1
   7              		.eabi_attribute 25, 1
   8              		.eabi_attribute 26, 1
   9              		.eabi_attribute 30, 2
  10              		.eabi_attribute 34, 1
  11              		.eabi_attribute 18, 4
  12              		.file	"chmemchecks.c"
  13              		.text
  14              		.section	.text.chMemIsStringWithinX,"ax",%progbits
  15              		.align	1
  16              		.p2align 4,,15
  17              		.global	chMemIsStringWithinX
  18              		.arch armv7e-m
  19              		.syntax unified
  20              		.thumb
  21              		.thumb_func
  22              		.fpu fpv4-sp-d16
  23              		.type	chMemIsStringWithinX, %function
  24              	chMemIsStringWithinX:
  25              		@ args = 0, pretend = 0, frame = 0
  26              		@ frame_needed = 0, uses_anonymous_args = 0
  27              		@ link register save eliminated.
  28 0000 10B4     		push	{r4}
  29 0002 0468     		ldr	r4, [r0]
  30 0004 8C42     		cmp	r4, r1
  31 0006 11D8     		bhi	.L6
  32 0008 4068     		ldr	r0, [r0, #4]
  33 000a 00F1FF3C 		add	ip, r0, #-1
  34 000e A444     		add	ip, ip, r4
  35 0010 0B46     		mov	r3, r1
  36 0012 0A44     		add	r2, r2, r1
  37 0014 C1F10104 		rsb	r4, r1, #1
  38 0018 04E0     		b	.L3
  39              	.L12:
  40 001a 9342     		cmp	r3, r2
  41 001c 06D0     		beq	.L6
  42 001e 13F8011B 		ldrb	r1, [r3], #1	@ zero_extendqisi2
  43 0022 21B1     		cbz	r1, .L1
  44              	.L3:
  45 0024 6345     		cmp	r3, ip
  46 0026 03EB0400 		add	r0, r3, r4
  47 002a F6D9     		bls	.L12
  48              	.L6:
  49 002c 0020     		movs	r0, #0
  50              	.L1:
  51 002e 5DF8044B 		ldr	r4, [sp], #4
  52 0032 7047     		bx	lr
  53              		.size	chMemIsStringWithinX, .-chMemIsStringWithinX
  54              		.section	.text.chMemIsPointersArrayWithinX,"ax",%progbits
  55              		.align	1
  56              		.p2align 4,,15
  57              		.global	chMemIsPointersArrayWithinX
ARM GAS  /tmp/ccnkGdMS.s 			page 2


  58              		.syntax unified
  59              		.thumb
  60              		.thumb_func
  61              		.fpu fpv4-sp-d16
  62              		.type	chMemIsPointersArrayWithinX, %function
  63              	chMemIsPointersArrayWithinX:
  64              		@ args = 0, pretend = 0, frame = 0
  65              		@ frame_needed = 0, uses_anonymous_args = 0
  66              		@ link register save eliminated.
  67 0000 0368     		ldr	r3, [r0]
  68 0002 8B42     		cmp	r3, r1
  69 0004 12D8     		bhi	.L17
  70 0006 10B4     		push	{r4}
  71 0008 4468     		ldr	r4, [r0, #4]
  72 000a A4F1040C 		sub	ip, r4, #4
  73 000e 0020     		movs	r0, #0
  74 0010 9C44     		add	ip, ip, r3
  75 0012 05E0     		b	.L15
  76              	.L26:
  77 0014 9042     		cmp	r0, r2
  78 0016 05D2     		bcs	.L18
  79 0018 51F8043B 		ldr	r3, [r1], #4
  80 001c 0430     		adds	r0, r0, #4
  81 001e 13B1     		cbz	r3, .L13
  82              	.L15:
  83 0020 6145     		cmp	r1, ip
  84 0022 F7D9     		bls	.L26
  85              	.L18:
  86 0024 0020     		movs	r0, #0
  87              	.L13:
  88 0026 5DF8044B 		ldr	r4, [sp], #4
  89 002a 7047     		bx	lr
  90              	.L17:
  91 002c 0020     		movs	r0, #0
  92 002e 7047     		bx	lr
  93              		.size	chMemIsPointersArrayWithinX, .-chMemIsPointersArrayWithinX
  94              		.section	.text.chMemIsSpaceContainedX,"ax",%progbits
  95              		.align	1
  96              		.p2align 4,,15
  97              		.global	chMemIsSpaceContainedX
  98              		.syntax unified
  99              		.thumb
 100              		.thumb_func
 101              		.fpu fpv4-sp-d16
 102              		.type	chMemIsSpaceContainedX, %function
 103              	chMemIsSpaceContainedX:
 104              		@ args = 0, pretend = 0, frame = 0
 105              		@ frame_needed = 0, uses_anonymous_args = 0
 106              		@ link register save eliminated.
 107 0000 10B4     		push	{r4}
 108 0002 0468     		ldr	r4, [r0]
 109 0004 631C     		adds	r3, r4, #1
 110 0006 12D0     		beq	.L35
 111 0008 013A     		subs	r2, r2, #1
 112 000a 0A44     		add	r2, r2, r1
 113              	.L30:
 114 000c 9142     		cmp	r1, r2
ARM GAS  /tmp/ccnkGdMS.s 			page 3


 115 000e 4368     		ldr	r3, [r0, #4]
 116 0010 09D8     		bhi	.L29
 117 0012 013B     		subs	r3, r3, #1
 118 0014 A142     		cmp	r1, r4
 119 0016 2344     		add	r3, r3, r4
 120 0018 05D3     		bcc	.L29
 121 001a 9A42     		cmp	r2, r3
 122 001c 03D8     		bhi	.L29
 123 001e 0120     		movs	r0, #1
 124 0020 5DF8044B 		ldr	r4, [sp], #4
 125 0024 7047     		bx	lr
 126              	.L29:
 127 0026 50F8084F 		ldr	r4, [r0, #8]!
 128 002a 631C     		adds	r3, r4, #1
 129 002c EED1     		bne	.L30
 130              	.L35:
 131 002e 0020     		movs	r0, #0
 132 0030 5DF8044B 		ldr	r4, [sp], #4
 133 0034 7047     		bx	lr
 134              		.size	chMemIsSpaceContainedX, .-chMemIsSpaceContainedX
 135 0036 00BF     		.section	.text.chMemIsSpaceWritableX,"ax",%progbits
 136              		.align	1
 137              		.p2align 4,,15
 138              		.global	chMemIsSpaceWritableX
 139              		.syntax unified
 140              		.thumb
 141              		.thumb_func
 142              		.fpu fpv4-sp-d16
 143              		.type	chMemIsSpaceWritableX, %function
 144              	chMemIsSpaceWritableX:
 145              		@ args = 0, pretend = 0, frame = 0
 146              		@ frame_needed = 0, uses_anonymous_args = 0
 147              		@ link register save eliminated.
 148 0000 013A     		subs	r2, r2, #1
 149 0002 0240     		ands	r2, r0, r2
 150 0004 01D0     		beq	.L52
 151 0006 0020     		movs	r0, #0
 152 0008 7047     		bx	lr
 153              	.L52:
 154 000a 0E4B     		ldr	r3, .L53
 155 000c 10B4     		push	{r4}
 156 000e 1C68     		ldr	r4, [r3]
 157 0010 621C     		adds	r2, r4, #1
 158 0012 12D0     		beq	.L51
 159 0014 0139     		subs	r1, r1, #1
 160 0016 0144     		add	r1, r1, r0
 161              	.L41:
 162 0018 8842     		cmp	r0, r1
 163 001a 5A68     		ldr	r2, [r3, #4]
 164 001c 09D8     		bhi	.L39
 165 001e 013A     		subs	r2, r2, #1
 166 0020 A042     		cmp	r0, r4
 167 0022 2244     		add	r2, r2, r4
 168 0024 05D3     		bcc	.L39
 169 0026 9142     		cmp	r1, r2
 170 0028 03D8     		bhi	.L39
 171 002a 0120     		movs	r0, #1
ARM GAS  /tmp/ccnkGdMS.s 			page 4


 172 002c 5DF8044B 		ldr	r4, [sp], #4
 173 0030 7047     		bx	lr
 174              	.L39:
 175 0032 53F8084F 		ldr	r4, [r3, #8]!
 176 0036 621C     		adds	r2, r4, #1
 177 0038 EED1     		bne	.L41
 178              	.L51:
 179 003a 0020     		movs	r0, #0
 180 003c 5DF8044B 		ldr	r4, [sp], #4
 181 0040 7047     		bx	lr
 182              	.L54:
 183 0042 00BF     		.align	2
 184              	.L53:
 185 0044 00000000 		.word	__ch_mem_writable_areas
 186              		.size	chMemIsSpaceWritableX, .-chMemIsSpaceWritableX
 187              		.section	.text.chMemIsSpaceReadableX,"ax",%progbits
 188              		.align	1
 189              		.p2align 4,,15
 190              		.global	chMemIsSpaceReadableX
 191              		.syntax unified
 192              		.thumb
 193              		.thumb_func
 194              		.fpu fpv4-sp-d16
 195              		.type	chMemIsSpaceReadableX, %function
 196              	chMemIsSpaceReadableX:
 197              		@ args = 0, pretend = 0, frame = 0
 198              		@ frame_needed = 0, uses_anonymous_args = 0
 199              		@ link register save eliminated.
 200 0000 013A     		subs	r2, r2, #1
 201 0002 0240     		ands	r2, r0, r2
 202 0004 01D0     		beq	.L71
 203 0006 0020     		movs	r0, #0
 204 0008 7047     		bx	lr
 205              	.L71:
 206 000a 0E4B     		ldr	r3, .L72
 207 000c 10B4     		push	{r4}
 208 000e 1C68     		ldr	r4, [r3]
 209 0010 621C     		adds	r2, r4, #1
 210 0012 12D0     		beq	.L70
 211 0014 0139     		subs	r1, r1, #1
 212 0016 0144     		add	r1, r1, r0
 213              	.L60:
 214 0018 8842     		cmp	r0, r1
 215 001a 5A68     		ldr	r2, [r3, #4]
 216 001c 09D8     		bhi	.L58
 217 001e 013A     		subs	r2, r2, #1
 218 0020 A042     		cmp	r0, r4
 219 0022 2244     		add	r2, r2, r4
 220 0024 05D3     		bcc	.L58
 221 0026 9142     		cmp	r1, r2
 222 0028 03D8     		bhi	.L58
 223 002a 0120     		movs	r0, #1
 224 002c 5DF8044B 		ldr	r4, [sp], #4
 225 0030 7047     		bx	lr
 226              	.L58:
 227 0032 53F8084F 		ldr	r4, [r3, #8]!
 228 0036 621C     		adds	r2, r4, #1
ARM GAS  /tmp/ccnkGdMS.s 			page 5


 229 0038 EED1     		bne	.L60
 230              	.L70:
 231 003a 0020     		movs	r0, #0
 232 003c 5DF8044B 		ldr	r4, [sp], #4
 233 0040 7047     		bx	lr
 234              	.L73:
 235 0042 00BF     		.align	2
 236              	.L72:
 237 0044 00000000 		.word	__ch_mem_readable_areas
 238              		.size	chMemIsSpaceReadableX, .-chMemIsSpaceReadableX
 239              		.section	.text.chMemIsAddressExecutableX,"ax",%progbits
 240              		.align	1
 241              		.p2align 4,,15
 242              		.global	chMemIsAddressExecutableX
 243              		.syntax unified
 244              		.thumb
 245              		.thumb_func
 246              		.fpu fpv4-sp-d16
 247              		.type	chMemIsAddressExecutableX, %function
 248              	chMemIsAddressExecutableX:
 249              		@ args = 0, pretend = 0, frame = 0
 250              		@ frame_needed = 0, uses_anonymous_args = 0
 251              		@ link register save eliminated.
 252 0000 0949     		ldr	r1, .L82
 253 0002 0B68     		ldr	r3, [r1]
 254 0004 5A1C     		adds	r2, r3, #1
 255 0006 0DD0     		beq	.L81
 256              	.L77:
 257 0008 4A68     		ldr	r2, [r1, #4]
 258 000a 9842     		cmp	r0, r3
 259 000c 02F1FF32 		add	r2, r2, #-1
 260 0010 1344     		add	r3, r3, r2
 261 0012 03D3     		bcc	.L76
 262 0014 9842     		cmp	r0, r3
 263 0016 01D8     		bhi	.L76
 264 0018 0120     		movs	r0, #1
 265 001a 7047     		bx	lr
 266              	.L76:
 267 001c 51F8083F 		ldr	r3, [r1, #8]!
 268 0020 5A1C     		adds	r2, r3, #1
 269 0022 F1D1     		bne	.L77
 270              	.L81:
 271 0024 0020     		movs	r0, #0
 272 0026 7047     		bx	lr
 273              	.L83:
 274              		.align	2
 275              	.L82:
 276 0028 00000000 		.word	__ch_mem_executable_areas
 277              		.size	chMemIsAddressExecutableX, .-chMemIsAddressExecutableX
 278              		.weak	__ch_mem_executable_areas
 279              		.weak	__ch_mem_readable_areas
 280              		.weak	__ch_mem_writable_areas
 281              		.section	.rodata.__ch_mem_executable_areas,"a"
 282              		.align	2
 283              		.type	__ch_mem_executable_areas, %object
 284              		.size	__ch_mem_executable_areas, 16
 285              	__ch_mem_executable_areas:
ARM GAS  /tmp/ccnkGdMS.s 			page 6


 286 0000 00000000 		.word	0
 287 0004 00000000 		.word	0
 288 0008 FFFFFFFF 		.word	-1
 289 000c 00000000 		.word	0
 290              		.section	.rodata.__ch_mem_readable_areas,"a"
 291              		.align	2
 292              		.type	__ch_mem_readable_areas, %object
 293              		.size	__ch_mem_readable_areas, 16
 294              	__ch_mem_readable_areas:
 295 0000 00000000 		.word	0
 296 0004 00000000 		.word	0
 297 0008 FFFFFFFF 		.word	-1
 298 000c 00000000 		.word	0
 299              		.section	.rodata.__ch_mem_writable_areas,"a"
 300              		.align	2
 301              		.type	__ch_mem_writable_areas, %object
 302              		.size	__ch_mem_writable_areas, 16
 303              	__ch_mem_writable_areas:
 304 0000 00000000 		.word	0
 305 0004 00000000 		.word	0
 306 0008 FFFFFFFF 		.word	-1
 307 000c 00000000 		.word	0
 308              		.ident	"GCC: (15:10.3-2021.07-4) 10.3.1 20210621 (release)"
ARM GAS  /tmp/ccnkGdMS.s 			page 7

