ARM GAS  /tmp/ccZM7QIi.s 			page 1


   1              		.cpu cortex-m4
   2              		.eabi_attribute 27, 1
   3              		.eabi_attribute 20, 1
   4              		.eabi_attribute 21, 1
   5              		.eabi_attribute 23, 3
   6              		.eabi_attribute 24, 1
   7              		.eabi_attribute 25, 1
   8              		.eabi_attribute 26, 1
   9              		.eabi_attribute 30, 2
  10              		.eabi_attribute 34, 1
  11              		.eabi_attribute 18, 4
  12              		.file	"chregistry.c"
  13              		.text
  14              		.section	.text.chRegFirstThread,"ax",%progbits
  15              		.align	1
  16              		.p2align 4,,15
  17              		.global	chRegFirstThread
  18              		.arch armv7e-m
  19              		.syntax unified
  20              		.thumb
  21              		.thumb_func
  22              		.fpu fpv4-sp-d16
  23              		.type	chRegFirstThread, %function
  24              	chRegFirstThread:
  25              		@ args = 0, pretend = 0, frame = 0
  26              		@ frame_needed = 0, uses_anonymous_args = 0
  27 0000 10B5     		push	{r4, lr}
  28 0002 3023     		movs	r3, #48
  29              		.syntax unified
  30              	@ 493 "/home/argroos/paparazzi/sw/ext/chibios/os/common/ext/ARM/CMSIS/Core/Include/cmsis_gcc.h" 1
  31 0004 83F31188 		MSR basepri, r3
  32              	@ 0 "" 2
  33              		.thumb
  34              		.syntax unified
  35 0008 FFF7FEFF 		bl	__stats_start_measure_crit_thd
  36 000c 064B     		ldr	r3, .L4
  37 000e 9C6A     		ldr	r4, [r3, #40]
  38 0010 A37D     		ldrb	r3, [r4, #22]	@ zero_extendqisi2
  39 0012 0133     		adds	r3, r3, #1
  40 0014 A375     		strb	r3, [r4, #22]
  41 0016 FFF7FEFF 		bl	__stats_stop_measure_crit_thd
  42 001a 0023     		movs	r3, #0
  43              		.syntax unified
  44              	@ 493 "/home/argroos/paparazzi/sw/ext/chibios/os/common/ext/ARM/CMSIS/Core/Include/cmsis_gcc.h" 1
  45 001c 83F31188 		MSR basepri, r3
  46              	@ 0 "" 2
  47              		.thumb
  48              		.syntax unified
  49 0020 A4F11000 		sub	r0, r4, #16
  50 0024 10BD     		pop	{r4, pc}
  51              	.L5:
  52 0026 00BF     		.align	2
  53              	.L4:
  54 0028 00000000 		.word	ch0
  55              		.size	chRegFirstThread, .-chRegFirstThread
  56              		.section	.text.chRegNextThread,"ax",%progbits
  57              		.align	1
ARM GAS  /tmp/ccZM7QIi.s 			page 2


  58              		.p2align 4,,15
  59              		.global	chRegNextThread
  60              		.syntax unified
  61              		.thumb
  62              		.thumb_func
  63              		.fpu fpv4-sp-d16
  64              		.type	chRegNextThread, %function
  65              	chRegNextThread:
  66              		@ args = 0, pretend = 0, frame = 0
  67              		@ frame_needed = 0, uses_anonymous_args = 0
  68 0000 38B5     		push	{r3, r4, r5, lr}
  69 0002 0446     		mov	r4, r0
  70 0004 3023     		movs	r3, #48
  71              		.syntax unified
  72              	@ 493 "/home/argroos/paparazzi/sw/ext/chibios/os/common/ext/ARM/CMSIS/Core/Include/cmsis_gcc.h" 1
  73 0006 83F31188 		MSR basepri, r3
  74              	@ 0 "" 2
  75              		.thumb
  76              		.syntax unified
  77 000a FFF7FEFF 		bl	__stats_start_measure_crit_thd
  78 000e 2369     		ldr	r3, [r4, #16]
  79 0010 094A     		ldr	r2, .L10
  80 0012 9342     		cmp	r3, r2
  81 0014 0ED0     		beq	.L8
  82 0016 9A7D     		ldrb	r2, [r3, #22]	@ zero_extendqisi2
  83 0018 0132     		adds	r2, r2, #1
  84 001a A3F11005 		sub	r5, r3, #16
  85 001e 9A75     		strb	r2, [r3, #22]
  86              	.L7:
  87 0020 FFF7FEFF 		bl	__stats_stop_measure_crit_thd
  88 0024 0023     		movs	r3, #0
  89              		.syntax unified
  90              	@ 493 "/home/argroos/paparazzi/sw/ext/chibios/os/common/ext/ARM/CMSIS/Core/Include/cmsis_gcc.h" 1
  91 0026 83F31188 		MSR basepri, r3
  92              	@ 0 "" 2
  93              		.thumb
  94              		.syntax unified
  95 002a 2046     		mov	r0, r4
  96 002c FFF7FEFF 		bl	chThdRelease
  97 0030 2846     		mov	r0, r5
  98 0032 38BD     		pop	{r3, r4, r5, pc}
  99              	.L8:
 100 0034 0025     		movs	r5, #0
 101 0036 F3E7     		b	.L7
 102              	.L11:
 103              		.align	2
 104              	.L10:
 105 0038 28000000 		.word	ch0+40
 106              		.size	chRegNextThread, .-chRegNextThread
 107              		.section	.text.chRegFindThreadByName,"ax",%progbits
 108              		.align	1
 109              		.p2align 4,,15
 110              		.global	chRegFindThreadByName
 111              		.syntax unified
 112              		.thumb
 113              		.thumb_func
 114              		.fpu fpv4-sp-d16
ARM GAS  /tmp/ccZM7QIi.s 			page 3


 115              		.type	chRegFindThreadByName, %function
 116              	chRegFindThreadByName:
 117              		@ args = 0, pretend = 0, frame = 0
 118              		@ frame_needed = 0, uses_anonymous_args = 0
 119 0000 2DE9F843 		push	{r3, r4, r5, r6, r7, r8, r9, lr}
 120 0004 0546     		mov	r5, r0
 121 0006 3027     		movs	r7, #48
 122              		.syntax unified
 123              	@ 493 "/home/argroos/paparazzi/sw/ext/chibios/os/common/ext/ARM/CMSIS/Core/Include/cmsis_gcc.h" 1
 124 0008 87F31188 		MSR basepri, r7
 125              	@ 0 "" 2
 126              		.thumb
 127              		.syntax unified
 128 000c 1A4E     		ldr	r6, .L20
 129 000e FFF7FEFF 		bl	__stats_start_measure_crit_thd
 130 0012 56F8283F 		ldr	r3, [r6, #40]!
 131 0016 9A7D     		ldrb	r2, [r3, #22]	@ zero_extendqisi2
 132 0018 0132     		adds	r2, r2, #1
 133 001a 9A75     		strb	r2, [r3, #22]
 134 001c A3F11004 		sub	r4, r3, #16
 135 0020 4FF00008 		mov	r8, #0
 136 0024 FFF7FEFF 		bl	__stats_stop_measure_crit_thd
 137              		.syntax unified
 138              	@ 493 "/home/argroos/paparazzi/sw/ext/chibios/os/common/ext/ARM/CMSIS/Core/Include/cmsis_gcc.h" 1
 139 0028 88F31188 		MSR basepri, r8
 140              	@ 0 "" 2
 141              		.thumb
 142              		.syntax unified
 143 002c 0AE0     		b	.L15
 144              	.L14:
 145 002e 9A7D     		ldrb	r2, [r3, #22]	@ zero_extendqisi2
 146 0030 0132     		adds	r2, r2, #1
 147 0032 9A75     		strb	r2, [r3, #22]
 148 0034 FFF7FEFF 		bl	__stats_stop_measure_crit_thd
 149              		.syntax unified
 150              	@ 493 "/home/argroos/paparazzi/sw/ext/chibios/os/common/ext/ARM/CMSIS/Core/Include/cmsis_gcc.h" 1
 151 0038 88F31188 		MSR basepri, r8
 152              	@ 0 "" 2
 153              		.thumb
 154              		.syntax unified
 155 003c 2046     		mov	r0, r4
 156 003e FFF7FEFF 		bl	chThdRelease
 157 0042 4C46     		mov	r4, r9
 158              	.L15:
 159 0044 E069     		ldr	r0, [r4, #28]
 160 0046 2946     		mov	r1, r5
 161 0048 FFF7FEFF 		bl	strcmp
 162 004c 88B1     		cbz	r0, .L12
 163              		.syntax unified
 164              	@ 493 "/home/argroos/paparazzi/sw/ext/chibios/os/common/ext/ARM/CMSIS/Core/Include/cmsis_gcc.h" 1
 165 004e 87F31188 		MSR basepri, r7
 166              	@ 0 "" 2
 167              		.thumb
 168              		.syntax unified
 169 0052 FFF7FEFF 		bl	__stats_start_measure_crit_thd
 170 0056 2369     		ldr	r3, [r4, #16]
 171 0058 B342     		cmp	r3, r6
ARM GAS  /tmp/ccZM7QIi.s 			page 4


 172 005a A3F11009 		sub	r9, r3, #16
 173 005e E6D1     		bne	.L14
 174 0060 FFF7FEFF 		bl	__stats_stop_measure_crit_thd
 175 0064 0025     		movs	r5, #0
 176              		.syntax unified
 177              	@ 493 "/home/argroos/paparazzi/sw/ext/chibios/os/common/ext/ARM/CMSIS/Core/Include/cmsis_gcc.h" 1
 178 0066 85F31188 		MSR basepri, r5
 179              	@ 0 "" 2
 180              		.thumb
 181              		.syntax unified
 182 006a 2046     		mov	r0, r4
 183 006c FFF7FEFF 		bl	chThdRelease
 184 0070 2C46     		mov	r4, r5
 185              	.L12:
 186 0072 2046     		mov	r0, r4
 187 0074 BDE8F883 		pop	{r3, r4, r5, r6, r7, r8, r9, pc}
 188              	.L21:
 189              		.align	2
 190              	.L20:
 191 0078 00000000 		.word	ch0
 192              		.size	chRegFindThreadByName, .-chRegFindThreadByName
 193              		.section	.text.chRegFindThreadByPointer,"ax",%progbits
 194              		.align	1
 195              		.p2align 4,,15
 196              		.global	chRegFindThreadByPointer
 197              		.syntax unified
 198              		.thumb
 199              		.thumb_func
 200              		.fpu fpv4-sp-d16
 201              		.type	chRegFindThreadByPointer, %function
 202              	chRegFindThreadByPointer:
 203              		@ args = 0, pretend = 0, frame = 0
 204              		@ frame_needed = 0, uses_anonymous_args = 0
 205 0000 2DE9F843 		push	{r3, r4, r5, r6, r7, r8, r9, lr}
 206 0004 0646     		mov	r6, r0
 207 0006 3027     		movs	r7, #48
 208              		.syntax unified
 209              	@ 493 "/home/argroos/paparazzi/sw/ext/chibios/os/common/ext/ARM/CMSIS/Core/Include/cmsis_gcc.h" 1
 210 0008 87F31188 		MSR basepri, r7
 211              	@ 0 "" 2
 212              		.thumb
 213              		.syntax unified
 214 000c 1B4D     		ldr	r5, .L29
 215 000e FFF7FEFF 		bl	__stats_start_measure_crit_thd
 216 0012 AB6A     		ldr	r3, [r5, #40]
 217 0014 9A7D     		ldrb	r2, [r3, #22]	@ zero_extendqisi2
 218 0016 0132     		adds	r2, r2, #1
 219 0018 9A75     		strb	r2, [r3, #22]
 220 001a A3F11009 		sub	r9, r3, #16
 221 001e 4FF00008 		mov	r8, #0
 222 0022 FFF7FEFF 		bl	__stats_stop_measure_crit_thd
 223              		.syntax unified
 224              	@ 493 "/home/argroos/paparazzi/sw/ext/chibios/os/common/ext/ARM/CMSIS/Core/Include/cmsis_gcc.h" 1
 225 0026 88F31188 		MSR basepri, r8
 226              	@ 0 "" 2
 227              		.thumb
 228              		.syntax unified
ARM GAS  /tmp/ccZM7QIi.s 			page 5


 229 002a 4E45     		cmp	r6, r9
 230 002c 23D0     		beq	.L26
 231 002e 2835     		adds	r5, r5, #40
 232 0030 0CE0     		b	.L25
 233              	.L24:
 234 0032 9A7D     		ldrb	r2, [r3, #22]	@ zero_extendqisi2
 235 0034 0132     		adds	r2, r2, #1
 236 0036 9A75     		strb	r2, [r3, #22]
 237 0038 FFF7FEFF 		bl	__stats_stop_measure_crit_thd
 238              		.syntax unified
 239              	@ 493 "/home/argroos/paparazzi/sw/ext/chibios/os/common/ext/ARM/CMSIS/Core/Include/cmsis_gcc.h" 1
 240 003c 88F31188 		MSR basepri, r8
 241              	@ 0 "" 2
 242              		.thumb
 243              		.syntax unified
 244 0040 4846     		mov	r0, r9
 245 0042 FFF7FEFF 		bl	chThdRelease
 246 0046 A642     		cmp	r6, r4
 247 0048 12D0     		beq	.L22
 248 004a A146     		mov	r9, r4
 249              	.L25:
 250              		.syntax unified
 251              	@ 493 "/home/argroos/paparazzi/sw/ext/chibios/os/common/ext/ARM/CMSIS/Core/Include/cmsis_gcc.h" 1
 252 004c 87F31188 		MSR basepri, r7
 253              	@ 0 "" 2
 254              		.thumb
 255              		.syntax unified
 256 0050 FFF7FEFF 		bl	__stats_start_measure_crit_thd
 257 0054 D9F81030 		ldr	r3, [r9, #16]
 258 0058 AB42     		cmp	r3, r5
 259 005a A3F11004 		sub	r4, r3, #16
 260 005e E8D1     		bne	.L24
 261 0060 FFF7FEFF 		bl	__stats_stop_measure_crit_thd
 262 0064 0024     		movs	r4, #0
 263              		.syntax unified
 264              	@ 493 "/home/argroos/paparazzi/sw/ext/chibios/os/common/ext/ARM/CMSIS/Core/Include/cmsis_gcc.h" 1
 265 0066 84F31188 		MSR basepri, r4
 266              	@ 0 "" 2
 267              		.thumb
 268              		.syntax unified
 269 006a 4846     		mov	r0, r9
 270 006c FFF7FEFF 		bl	chThdRelease
 271              	.L22:
 272 0070 2046     		mov	r0, r4
 273 0072 BDE8F883 		pop	{r3, r4, r5, r6, r7, r8, r9, pc}
 274              	.L26:
 275 0076 3446     		mov	r4, r6
 276 0078 FAE7     		b	.L22
 277              	.L30:
 278 007a 00BF     		.align	2
 279              	.L29:
 280 007c 00000000 		.word	ch0
 281              		.size	chRegFindThreadByPointer, .-chRegFindThreadByPointer
 282              		.section	.text.chRegFindThreadByWorkingArea,"ax",%progbits
 283              		.align	1
 284              		.p2align 4,,15
 285              		.global	chRegFindThreadByWorkingArea
ARM GAS  /tmp/ccZM7QIi.s 			page 6


 286              		.syntax unified
 287              		.thumb
 288              		.thumb_func
 289              		.fpu fpv4-sp-d16
 290              		.type	chRegFindThreadByWorkingArea, %function
 291              	chRegFindThreadByWorkingArea:
 292              		@ args = 0, pretend = 0, frame = 0
 293              		@ frame_needed = 0, uses_anonymous_args = 0
 294 0000 2DE9F047 		push	{r4, r5, r6, r7, r8, r9, r10, lr}
 295 0004 0746     		mov	r7, r0
 296 0006 4FF03008 		mov	r8, #48
 297              		.syntax unified
 298              	@ 493 "/home/argroos/paparazzi/sw/ext/chibios/os/common/ext/ARM/CMSIS/Core/Include/cmsis_gcc.h" 1
 299 000a 88F31188 		MSR basepri, r8
 300              	@ 0 "" 2
 301              		.thumb
 302              		.syntax unified
 303 000e 1C4E     		ldr	r6, .L38
 304 0010 FFF7FEFF 		bl	__stats_start_measure_crit_thd
 305 0014 B46A     		ldr	r4, [r6, #40]
 306 0016 A37D     		ldrb	r3, [r4, #22]	@ zero_extendqisi2
 307 0018 0133     		adds	r3, r3, #1
 308 001a A375     		strb	r3, [r4, #22]
 309 001c FFF7FEFF 		bl	__stats_stop_measure_crit_thd
 310 0020 A4F11005 		sub	r5, r4, #16
 311 0024 4FF00009 		mov	r9, #0
 312              		.syntax unified
 313              	@ 493 "/home/argroos/paparazzi/sw/ext/chibios/os/common/ext/ARM/CMSIS/Core/Include/cmsis_gcc.h" 1
 314 0028 89F31188 		MSR basepri, r9
 315              	@ 0 "" 2
 316              		.thumb
 317              		.syntax unified
 318 002c 2369     		ldr	r3, [r4, #16]
 319 002e 9F42     		cmp	r7, r3
 320 0030 24D0     		beq	.L35
 321 0032 2836     		adds	r6, r6, #40
 322 0034 0DE0     		b	.L34
 323              	.L33:
 324 0036 A37D     		ldrb	r3, [r4, #22]	@ zero_extendqisi2
 325 0038 0133     		adds	r3, r3, #1
 326 003a A375     		strb	r3, [r4, #22]
 327 003c FFF7FEFF 		bl	__stats_stop_measure_crit_thd
 328              		.syntax unified
 329              	@ 493 "/home/argroos/paparazzi/sw/ext/chibios/os/common/ext/ARM/CMSIS/Core/Include/cmsis_gcc.h" 1
 330 0040 89F31188 		MSR basepri, r9
 331              	@ 0 "" 2
 332              		.thumb
 333              		.syntax unified
 334 0044 2846     		mov	r0, r5
 335 0046 FFF7FEFF 		bl	chThdRelease
 336 004a 2369     		ldr	r3, [r4, #16]
 337 004c BB42     		cmp	r3, r7
 338 004e 5546     		mov	r5, r10
 339 0050 11D0     		beq	.L31
 340              	.L34:
 341              		.syntax unified
 342              	@ 493 "/home/argroos/paparazzi/sw/ext/chibios/os/common/ext/ARM/CMSIS/Core/Include/cmsis_gcc.h" 1
ARM GAS  /tmp/ccZM7QIi.s 			page 7


 343 0052 88F31188 		MSR basepri, r8
 344              	@ 0 "" 2
 345              		.thumb
 346              		.syntax unified
 347 0056 FFF7FEFF 		bl	__stats_start_measure_crit_thd
 348 005a 2C69     		ldr	r4, [r5, #16]
 349 005c B442     		cmp	r4, r6
 350 005e A4F1100A 		sub	r10, r4, #16
 351 0062 E8D1     		bne	.L33
 352 0064 FFF7FEFF 		bl	__stats_stop_measure_crit_thd
 353 0068 4FF0000A 		mov	r10, #0
 354              		.syntax unified
 355              	@ 493 "/home/argroos/paparazzi/sw/ext/chibios/os/common/ext/ARM/CMSIS/Core/Include/cmsis_gcc.h" 1
 356 006c 8AF31188 		MSR basepri, r10
 357              	@ 0 "" 2
 358              		.thumb
 359              		.syntax unified
 360 0070 2846     		mov	r0, r5
 361 0072 FFF7FEFF 		bl	chThdRelease
 362              	.L31:
 363 0076 5046     		mov	r0, r10
 364 0078 BDE8F087 		pop	{r4, r5, r6, r7, r8, r9, r10, pc}
 365              	.L35:
 366 007c AA46     		mov	r10, r5
 367 007e FAE7     		b	.L31
 368              	.L39:
 369              		.align	2
 370              	.L38:
 371 0080 00000000 		.word	ch0
 372              		.size	chRegFindThreadByWorkingArea, .-chRegFindThreadByWorkingArea
 373              		.global	ch_debug
 374              		.section	.rodata.ch_debug,"a"
 375              		.align	2
 376              		.type	ch_debug, %object
 377              		.size	ch_debug, 44
 378              	ch_debug:
 379 0000 6D61696E 		.ascii	"main"
 380 0004 00       		.byte	0
 381 0005 2C       		.byte	44
 382 0006 4038     		.short	14400
 383 0008 04       		.byte	4
 384 0009 04       		.byte	4
 385 000a 60       		.byte	96
 386 000b 08       		.byte	8
 387 000c 0C       		.byte	12
 388 000d 10       		.byte	16
 389 000e 14       		.byte	20
 390 000f 1C       		.byte	28
 391 0010 20       		.byte	32
 392 0011 24       		.byte	36
 393 0012 25       		.byte	37
 394 0013 26       		.byte	38
 395 0014 27       		.byte	39
 396 0015 00       		.byte	0
 397 0016 00000000 		.ascii	"\000\000\000\000"
 398 001a 64       		.byte	100
 399 001b 04       		.byte	4
ARM GAS  /tmp/ccZM7QIi.s 			page 8


 400 001c 01       		.byte	1
 401 001d 00       		.byte	0
 402 001e 04       		.byte	4
 403 001f 00       		.byte	0
 404 0020 00       		.byte	0
 405 0021 00000000 		.ascii	"\000\000\000\000"
 406 0025 0C       		.byte	12
 407 0026 00       		.byte	0
 408 0027 10       		.byte	16
 409 0028 28       		.byte	40
 410 0029 30       		.byte	48
 411 002a 34       		.byte	52
 412 002b 00       		.space	1
 413              		.ident	"GCC: (15:10.3-2021.07-4) 10.3.1 20210621 (release)"
ARM GAS  /tmp/ccZM7QIi.s 			page 9

