ARM GAS  /tmp/ccsIcgny.s 			page 1


   1              		.cpu cortex-m4
   2              		.eabi_attribute 27, 1
   3              		.eabi_attribute 20, 1
   4              		.eabi_attribute 21, 1
   5              		.eabi_attribute 23, 3
   6              		.eabi_attribute 24, 1
   7              		.eabi_attribute 25, 1
   8              		.eabi_attribute 26, 1
   9              		.eabi_attribute 30, 2
  10              		.eabi_attribute 34, 1
  11              		.eabi_attribute 18, 4
  12              		.file	"chsem.c"
  13              		.text
  14              		.section	.text.chSemObjectInit,"ax",%progbits
  15              		.align	1
  16              		.p2align 4,,15
  17              		.global	chSemObjectInit
  18              		.arch armv7e-m
  19              		.syntax unified
  20              		.thumb
  21              		.thumb_func
  22              		.fpu fpv4-sp-d16
  23              		.type	chSemObjectInit, %function
  24              	chSemObjectInit:
  25              		@ args = 0, pretend = 0, frame = 0
  26              		@ frame_needed = 0, uses_anonymous_args = 0
  27              		@ link register save eliminated.
  28 0000 C0E90000 		strd	r0, r0, [r0]
  29 0004 8160     		str	r1, [r0, #8]
  30 0006 7047     		bx	lr
  31              		.size	chSemObjectInit, .-chSemObjectInit
  32              		.section	.text.chSemObjectDispose,"ax",%progbits
  33              		.align	1
  34              		.p2align 4,,15
  35              		.global	chSemObjectDispose
  36              		.syntax unified
  37              		.thumb
  38              		.thumb_func
  39              		.fpu fpv4-sp-d16
  40              		.type	chSemObjectDispose, %function
  41              	chSemObjectDispose:
  42              		@ args = 0, pretend = 0, frame = 0
  43              		@ frame_needed = 0, uses_anonymous_args = 0
  44              		@ link register save eliminated.
  45 0000 7047     		bx	lr
  46              		.size	chSemObjectDispose, .-chSemObjectDispose
  47 0002 00BF     		.section	.text.chSemResetWithMessage,"ax",%progbits
  48              		.align	1
  49              		.p2align 4,,15
  50              		.global	chSemResetWithMessage
  51              		.syntax unified
  52              		.thumb
  53              		.thumb_func
  54              		.fpu fpv4-sp-d16
  55              		.type	chSemResetWithMessage, %function
  56              	chSemResetWithMessage:
  57              		@ args = 0, pretend = 0, frame = 0
ARM GAS  /tmp/ccsIcgny.s 			page 2


  58              		@ frame_needed = 0, uses_anonymous_args = 0
  59 0000 70B5     		push	{r4, r5, r6, lr}
  60 0002 3023     		movs	r3, #48
  61 0004 0446     		mov	r4, r0
  62 0006 0E46     		mov	r6, r1
  63 0008 1546     		mov	r5, r2
  64              		.syntax unified
  65              	@ 493 "/home/argroos/paparazzi/sw/ext/chibios/os/common/ext/ARM/CMSIS/Core/Include/cmsis_gcc.h" 1
  66 000a 83F31188 		MSR basepri, r3
  67              	@ 0 "" 2
  68              		.thumb
  69              		.syntax unified
  70 000e FFF7FEFF 		bl	__stats_start_measure_crit_thd
  71 0012 2368     		ldr	r3, [r4]
  72 0014 A660     		str	r6, [r4, #8]
  73 0016 A342     		cmp	r3, r4
  74 0018 09D0     		beq	.L5
  75              	.L6:
  76 001a 6068     		ldr	r0, [r4, #4]
  77 001c 4368     		ldr	r3, [r0, #4]
  78 001e 6360     		str	r3, [r4, #4]
  79 0020 1C60     		str	r4, [r3]
  80 0022 FFF7FEFF 		bl	chSchReadyI
  81 0026 2368     		ldr	r3, [r4]
  82 0028 8562     		str	r5, [r0, #40]
  83 002a A342     		cmp	r3, r4
  84 002c F5D1     		bne	.L6
  85              	.L5:
  86 002e FFF7FEFF 		bl	chSchRescheduleS
  87 0032 FFF7FEFF 		bl	__stats_stop_measure_crit_thd
  88 0036 0023     		movs	r3, #0
  89              		.syntax unified
  90              	@ 493 "/home/argroos/paparazzi/sw/ext/chibios/os/common/ext/ARM/CMSIS/Core/Include/cmsis_gcc.h" 1
  91 0038 83F31188 		MSR basepri, r3
  92              	@ 0 "" 2
  93              		.thumb
  94              		.syntax unified
  95 003c 70BD     		pop	{r4, r5, r6, pc}
  96              		.size	chSemResetWithMessage, .-chSemResetWithMessage
  97 003e 00BF     		.section	.text.chSemResetWithMessageI,"ax",%progbits
  98              		.align	1
  99              		.p2align 4,,15
 100              		.global	chSemResetWithMessageI
 101              		.syntax unified
 102              		.thumb
 103              		.thumb_func
 104              		.fpu fpv4-sp-d16
 105              		.type	chSemResetWithMessageI, %function
 106              	chSemResetWithMessageI:
 107              		@ args = 0, pretend = 0, frame = 0
 108              		@ frame_needed = 0, uses_anonymous_args = 0
 109 0000 38B5     		push	{r3, r4, r5, lr}
 110 0002 0368     		ldr	r3, [r0]
 111 0004 8160     		str	r1, [r0, #8]
 112 0006 8342     		cmp	r3, r0
 113 0008 0BD0     		beq	.L9
 114 000a 0446     		mov	r4, r0
ARM GAS  /tmp/ccsIcgny.s 			page 3


 115 000c 1546     		mov	r5, r2
 116              	.L11:
 117 000e 6068     		ldr	r0, [r4, #4]
 118 0010 4368     		ldr	r3, [r0, #4]
 119 0012 6360     		str	r3, [r4, #4]
 120 0014 1C60     		str	r4, [r3]
 121 0016 FFF7FEFF 		bl	chSchReadyI
 122 001a 2368     		ldr	r3, [r4]
 123 001c 8562     		str	r5, [r0, #40]
 124 001e A342     		cmp	r3, r4
 125 0020 F5D1     		bne	.L11
 126              	.L9:
 127 0022 38BD     		pop	{r3, r4, r5, pc}
 128              		.size	chSemResetWithMessageI, .-chSemResetWithMessageI
 129              		.section	.text.chSemWait,"ax",%progbits
 130              		.align	1
 131              		.p2align 4,,15
 132              		.global	chSemWait
 133              		.syntax unified
 134              		.thumb
 135              		.thumb_func
 136              		.fpu fpv4-sp-d16
 137              		.type	chSemWait, %function
 138              	chSemWait:
 139              		@ args = 0, pretend = 0, frame = 8
 140              		@ frame_needed = 0, uses_anonymous_args = 0
 141 0000 30B5     		push	{r4, r5, lr}
 142 0002 3023     		movs	r3, #48
 143 0004 83B0     		sub	sp, sp, #12
 144 0006 0446     		mov	r4, r0
 145              		.syntax unified
 146              	@ 493 "/home/argroos/paparazzi/sw/ext/chibios/os/common/ext/ARM/CMSIS/Core/Include/cmsis_gcc.h" 1
 147 0008 83F31188 		MSR basepri, r3
 148              	@ 0 "" 2
 149              		.thumb
 150              		.syntax unified
 151 000c FFF7FEFF 		bl	__stats_start_measure_crit_thd
 152 0010 A368     		ldr	r3, [r4, #8]
 153 0012 013B     		subs	r3, r3, #1
 154 0014 002B     		cmp	r3, #0
 155 0016 A360     		str	r3, [r4, #8]
 156 0018 09DB     		blt	.L18
 157 001a 0020     		movs	r0, #0
 158              	.L15:
 159 001c 0190     		str	r0, [sp, #4]
 160 001e FFF7FEFF 		bl	__stats_stop_measure_crit_thd
 161 0022 0023     		movs	r3, #0
 162              		.syntax unified
 163              	@ 493 "/home/argroos/paparazzi/sw/ext/chibios/os/common/ext/ARM/CMSIS/Core/Include/cmsis_gcc.h" 1
 164 0024 83F31188 		MSR basepri, r3
 165              	@ 0 "" 2
 166              		.thumb
 167              		.syntax unified
 168 0028 0198     		ldr	r0, [sp, #4]
 169 002a 03B0     		add	sp, sp, #12
 170              		@ sp needed
 171 002c 30BD     		pop	{r4, r5, pc}
ARM GAS  /tmp/ccsIcgny.s 			page 4


 172              	.L18:
 173 002e 064A     		ldr	r2, .L19
 174 0030 6368     		ldr	r3, [r4, #4]
 175 0032 D568     		ldr	r5, [r2, #12]
 176 0034 0520     		movs	r0, #5
 177 0036 C5E90043 		strd	r4, r3, [r5]
 178 003a AC62     		str	r4, [r5, #40]
 179 003c 1D60     		str	r5, [r3]
 180 003e 6560     		str	r5, [r4, #4]
 181 0040 FFF7FEFF 		bl	chSchGoSleepS
 182 0044 A86A     		ldr	r0, [r5, #40]
 183 0046 E9E7     		b	.L15
 184              	.L20:
 185              		.align	2
 186              	.L19:
 187 0048 00000000 		.word	ch0
 188              		.size	chSemWait, .-chSemWait
 189              		.section	.text.chSemWaitS,"ax",%progbits
 190              		.align	1
 191              		.p2align 4,,15
 192              		.global	chSemWaitS
 193              		.syntax unified
 194              		.thumb
 195              		.thumb_func
 196              		.fpu fpv4-sp-d16
 197              		.type	chSemWaitS, %function
 198              	chSemWaitS:
 199              		@ args = 0, pretend = 0, frame = 0
 200              		@ frame_needed = 0, uses_anonymous_args = 0
 201 0000 8268     		ldr	r2, [r0, #8]
 202 0002 013A     		subs	r2, r2, #1
 203 0004 002A     		cmp	r2, #0
 204 0006 8260     		str	r2, [r0, #8]
 205 0008 01DB     		blt	.L28
 206 000a 0020     		movs	r0, #0
 207 000c 7047     		bx	lr
 208              	.L28:
 209 000e 10B5     		push	{r4, lr}
 210 0010 0649     		ldr	r1, .L29
 211 0012 4268     		ldr	r2, [r0, #4]
 212 0014 CC68     		ldr	r4, [r1, #12]
 213 0016 0346     		mov	r3, r0
 214 0018 C4E90032 		strd	r3, r2, [r4]
 215 001c A362     		str	r3, [r4, #40]
 216 001e 0520     		movs	r0, #5
 217 0020 1460     		str	r4, [r2]
 218 0022 5C60     		str	r4, [r3, #4]
 219 0024 FFF7FEFF 		bl	chSchGoSleepS
 220 0028 A06A     		ldr	r0, [r4, #40]
 221 002a 10BD     		pop	{r4, pc}
 222              	.L30:
 223              		.align	2
 224              	.L29:
 225 002c 00000000 		.word	ch0
 226              		.size	chSemWaitS, .-chSemWaitS
 227              		.section	.text.chSemWaitTimeout,"ax",%progbits
 228              		.align	1
ARM GAS  /tmp/ccsIcgny.s 			page 5


 229              		.p2align 4,,15
 230              		.global	chSemWaitTimeout
 231              		.syntax unified
 232              		.thumb
 233              		.thumb_func
 234              		.fpu fpv4-sp-d16
 235              		.type	chSemWaitTimeout, %function
 236              	chSemWaitTimeout:
 237              		@ args = 0, pretend = 0, frame = 8
 238              		@ frame_needed = 0, uses_anonymous_args = 0
 239 0000 30B5     		push	{r4, r5, lr}
 240 0002 3023     		movs	r3, #48
 241 0004 83B0     		sub	sp, sp, #12
 242 0006 0446     		mov	r4, r0
 243 0008 0D46     		mov	r5, r1
 244              		.syntax unified
 245              	@ 493 "/home/argroos/paparazzi/sw/ext/chibios/os/common/ext/ARM/CMSIS/Core/Include/cmsis_gcc.h" 1
 246 000a 83F31188 		MSR basepri, r3
 247              	@ 0 "" 2
 248              		.thumb
 249              		.syntax unified
 250 000e FFF7FEFF 		bl	__stats_start_measure_crit_thd
 251 0012 A268     		ldr	r2, [r4, #8]
 252 0014 531E     		subs	r3, r2, #1
 253 0016 002B     		cmp	r3, #0
 254 0018 A360     		str	r3, [r4, #8]
 255 001a 09DB     		blt	.L36
 256 001c 0020     		movs	r0, #0
 257              	.L32:
 258 001e 0190     		str	r0, [sp, #4]
 259 0020 FFF7FEFF 		bl	__stats_stop_measure_crit_thd
 260 0024 0023     		movs	r3, #0
 261              		.syntax unified
 262              	@ 493 "/home/argroos/paparazzi/sw/ext/chibios/os/common/ext/ARM/CMSIS/Core/Include/cmsis_gcc.h" 1
 263 0026 83F31188 		MSR basepri, r3
 264              	@ 0 "" 2
 265              		.thumb
 266              		.syntax unified
 267 002a 0198     		ldr	r0, [sp, #4]
 268 002c 03B0     		add	sp, sp, #12
 269              		@ sp needed
 270 002e 30BD     		pop	{r4, r5, pc}
 271              	.L36:
 272 0030 65B1     		cbz	r5, .L37
 273 0032 084B     		ldr	r3, .L38
 274 0034 6268     		ldr	r2, [r4, #4]
 275 0036 DB68     		ldr	r3, [r3, #12]
 276 0038 2946     		mov	r1, r5
 277 003a C3E90042 		strd	r4, r2, [r3]
 278 003e 9C62     		str	r4, [r3, #40]
 279 0040 0520     		movs	r0, #5
 280 0042 1360     		str	r3, [r2]
 281 0044 6360     		str	r3, [r4, #4]
 282 0046 FFF7FEFF 		bl	chSchGoSleepTimeoutS
 283 004a E8E7     		b	.L32
 284              	.L37:
 285 004c A260     		str	r2, [r4, #8]
ARM GAS  /tmp/ccsIcgny.s 			page 6


 286 004e 4FF0FF30 		mov	r0, #-1
 287 0052 E4E7     		b	.L32
 288              	.L39:
 289              		.align	2
 290              	.L38:
 291 0054 00000000 		.word	ch0
 292              		.size	chSemWaitTimeout, .-chSemWaitTimeout
 293              		.section	.text.chSemWaitTimeoutS,"ax",%progbits
 294              		.align	1
 295              		.p2align 4,,15
 296              		.global	chSemWaitTimeoutS
 297              		.syntax unified
 298              		.thumb
 299              		.thumb_func
 300              		.fpu fpv4-sp-d16
 301              		.type	chSemWaitTimeoutS, %function
 302              	chSemWaitTimeoutS:
 303              		@ args = 0, pretend = 0, frame = 0
 304              		@ frame_needed = 0, uses_anonymous_args = 0
 305              		@ link register save eliminated.
 306 0000 10B4     		push	{r4}
 307 0002 8468     		ldr	r4, [r0, #8]
 308 0004 0346     		mov	r3, r0
 309 0006 601E     		subs	r0, r4, #1
 310 0008 0028     		cmp	r0, #0
 311 000a 9860     		str	r0, [r3, #8]
 312 000c 03DB     		blt	.L45
 313 000e 0020     		movs	r0, #0
 314              	.L40:
 315 0010 5DF8044B 		ldr	r4, [sp], #4
 316 0014 7047     		bx	lr
 317              	.L45:
 318 0016 61B1     		cbz	r1, .L46
 319 0018 084A     		ldr	r2, .L47
 320 001a 5C68     		ldr	r4, [r3, #4]
 321 001c D268     		ldr	r2, [r2, #12]
 322 001e 0520     		movs	r0, #5
 323 0020 C2E90034 		strd	r3, r4, [r2]
 324 0024 9362     		str	r3, [r2, #40]
 325 0026 2260     		str	r2, [r4]
 326 0028 5DF8044B 		ldr	r4, [sp], #4
 327 002c 5A60     		str	r2, [r3, #4]
 328 002e FFF7FEBF 		b	chSchGoSleepTimeoutS
 329              	.L46:
 330 0032 9C60     		str	r4, [r3, #8]
 331 0034 4FF0FF30 		mov	r0, #-1
 332 0038 EAE7     		b	.L40
 333              	.L48:
 334 003a 00BF     		.align	2
 335              	.L47:
 336 003c 00000000 		.word	ch0
 337              		.size	chSemWaitTimeoutS, .-chSemWaitTimeoutS
 338              		.section	.text.chSemSignal,"ax",%progbits
 339              		.align	1
 340              		.p2align 4,,15
 341              		.global	chSemSignal
 342              		.syntax unified
ARM GAS  /tmp/ccsIcgny.s 			page 7


 343              		.thumb
 344              		.thumb_func
 345              		.fpu fpv4-sp-d16
 346              		.type	chSemSignal, %function
 347              	chSemSignal:
 348              		@ args = 0, pretend = 0, frame = 0
 349              		@ frame_needed = 0, uses_anonymous_args = 0
 350 0000 10B5     		push	{r4, lr}
 351 0002 3023     		movs	r3, #48
 352 0004 0446     		mov	r4, r0
 353              		.syntax unified
 354              	@ 493 "/home/argroos/paparazzi/sw/ext/chibios/os/common/ext/ARM/CMSIS/Core/Include/cmsis_gcc.h" 1
 355 0006 83F31188 		MSR basepri, r3
 356              	@ 0 "" 2
 357              		.thumb
 358              		.syntax unified
 359 000a FFF7FEFF 		bl	__stats_start_measure_crit_thd
 360 000e A368     		ldr	r3, [r4, #8]
 361 0010 0133     		adds	r3, r3, #1
 362 0012 002B     		cmp	r3, #0
 363 0014 A360     		str	r3, [r4, #8]
 364 0016 05DD     		ble	.L52
 365 0018 FFF7FEFF 		bl	__stats_stop_measure_crit_thd
 366 001c 0023     		movs	r3, #0
 367              		.syntax unified
 368              	@ 493 "/home/argroos/paparazzi/sw/ext/chibios/os/common/ext/ARM/CMSIS/Core/Include/cmsis_gcc.h" 1
 369 001e 83F31188 		MSR basepri, r3
 370              	@ 0 "" 2
 371              		.thumb
 372              		.syntax unified
 373 0022 10BD     		pop	{r4, pc}
 374              	.L52:
 375 0024 2068     		ldr	r0, [r4]
 376 0026 0368     		ldr	r3, [r0]
 377 0028 2360     		str	r3, [r4]
 378 002a 0021     		movs	r1, #0
 379 002c 5C60     		str	r4, [r3, #4]
 380 002e FFF7FEFF 		bl	chSchWakeupS
 381 0032 FFF7FEFF 		bl	__stats_stop_measure_crit_thd
 382 0036 0023     		movs	r3, #0
 383              		.syntax unified
 384              	@ 493 "/home/argroos/paparazzi/sw/ext/chibios/os/common/ext/ARM/CMSIS/Core/Include/cmsis_gcc.h" 1
 385 0038 83F31188 		MSR basepri, r3
 386              	@ 0 "" 2
 387              		.thumb
 388              		.syntax unified
 389 003c 10BD     		pop	{r4, pc}
 390              		.size	chSemSignal, .-chSemSignal
 391 003e 00BF     		.section	.text.chSemSignalI,"ax",%progbits
 392              		.align	1
 393              		.p2align 4,,15
 394              		.global	chSemSignalI
 395              		.syntax unified
 396              		.thumb
 397              		.thumb_func
 398              		.fpu fpv4-sp-d16
 399              		.type	chSemSignalI, %function
ARM GAS  /tmp/ccsIcgny.s 			page 8


 400              	chSemSignalI:
 401              		@ args = 0, pretend = 0, frame = 0
 402              		@ frame_needed = 0, uses_anonymous_args = 0
 403              		@ link register save eliminated.
 404 0000 8268     		ldr	r2, [r0, #8]
 405 0002 0132     		adds	r2, r2, #1
 406 0004 002A     		cmp	r2, #0
 407 0006 0346     		mov	r3, r0
 408 0008 8260     		str	r2, [r0, #8]
 409 000a 00DD     		ble	.L55
 410 000c 7047     		bx	lr
 411              	.L55:
 412 000e 0068     		ldr	r0, [r0]
 413 0010 0268     		ldr	r2, [r0]
 414 0012 1A60     		str	r2, [r3]
 415 0014 0021     		movs	r1, #0
 416 0016 5360     		str	r3, [r2, #4]
 417 0018 8162     		str	r1, [r0, #40]
 418 001a FFF7FEBF 		b	chSchReadyI
 419              		.size	chSemSignalI, .-chSemSignalI
 420 001e 00BF     		.section	.text.chSemAddCounterI,"ax",%progbits
 421              		.align	1
 422              		.p2align 4,,15
 423              		.global	chSemAddCounterI
 424              		.syntax unified
 425              		.thumb
 426              		.thumb_func
 427              		.fpu fpv4-sp-d16
 428              		.type	chSemAddCounterI, %function
 429              	chSemAddCounterI:
 430              		@ args = 0, pretend = 0, frame = 0
 431              		@ frame_needed = 0, uses_anonymous_args = 0
 432 0000 70B5     		push	{r4, r5, r6, lr}
 433 0002 0C1E     		subs	r4, r1, #0
 434 0004 12DD     		ble	.L56
 435 0006 0546     		mov	r5, r0
 436 0008 0026     		movs	r6, #0
 437 000a 01E0     		b	.L59
 438              	.L58:
 439 000c 013C     		subs	r4, r4, #1
 440 000e 0DD0     		beq	.L56
 441              	.L59:
 442 0010 AB68     		ldr	r3, [r5, #8]
 443 0012 0133     		adds	r3, r3, #1
 444 0014 002B     		cmp	r3, #0
 445 0016 AB60     		str	r3, [r5, #8]
 446 0018 F8DC     		bgt	.L58
 447 001a 2868     		ldr	r0, [r5]
 448 001c 0368     		ldr	r3, [r0]
 449 001e 2B60     		str	r3, [r5]
 450 0020 5D60     		str	r5, [r3, #4]
 451 0022 FFF7FEFF 		bl	chSchReadyI
 452 0026 013C     		subs	r4, r4, #1
 453 0028 8662     		str	r6, [r0, #40]
 454 002a F1D1     		bne	.L59
 455              	.L56:
 456 002c 70BD     		pop	{r4, r5, r6, pc}
ARM GAS  /tmp/ccsIcgny.s 			page 9


 457              		.size	chSemAddCounterI, .-chSemAddCounterI
 458 002e 00BF     		.section	.text.chSemSignalWait,"ax",%progbits
 459              		.align	1
 460              		.p2align 4,,15
 461              		.global	chSemSignalWait
 462              		.syntax unified
 463              		.thumb
 464              		.thumb_func
 465              		.fpu fpv4-sp-d16
 466              		.type	chSemSignalWait, %function
 467              	chSemSignalWait:
 468              		@ args = 0, pretend = 0, frame = 8
 469              		@ frame_needed = 0, uses_anonymous_args = 0
 470 0000 30B5     		push	{r4, r5, lr}
 471 0002 3023     		movs	r3, #48
 472 0004 83B0     		sub	sp, sp, #12
 473 0006 0546     		mov	r5, r0
 474 0008 0C46     		mov	r4, r1
 475              		.syntax unified
 476              	@ 493 "/home/argroos/paparazzi/sw/ext/chibios/os/common/ext/ARM/CMSIS/Core/Include/cmsis_gcc.h" 1
 477 000a 83F31188 		MSR basepri, r3
 478              	@ 0 "" 2
 479              		.thumb
 480              		.syntax unified
 481 000e FFF7FEFF 		bl	__stats_start_measure_crit_thd
 482 0012 AB68     		ldr	r3, [r5, #8]
 483 0014 0133     		adds	r3, r3, #1
 484 0016 002B     		cmp	r3, #0
 485 0018 AB60     		str	r3, [r5, #8]
 486 001a 1DDD     		ble	.L67
 487              	.L63:
 488 001c A368     		ldr	r3, [r4, #8]
 489 001e 013B     		subs	r3, r3, #1
 490 0020 002B     		cmp	r3, #0
 491 0022 A360     		str	r3, [r4, #8]
 492 0024 0BDB     		blt	.L68
 493 0026 FFF7FEFF 		bl	chSchRescheduleS
 494 002a 0020     		movs	r0, #0
 495              	.L65:
 496 002c 0190     		str	r0, [sp, #4]
 497 002e FFF7FEFF 		bl	__stats_stop_measure_crit_thd
 498 0032 0023     		movs	r3, #0
 499              		.syntax unified
 500              	@ 493 "/home/argroos/paparazzi/sw/ext/chibios/os/common/ext/ARM/CMSIS/Core/Include/cmsis_gcc.h" 1
 501 0034 83F31188 		MSR basepri, r3
 502              	@ 0 "" 2
 503              		.thumb
 504              		.syntax unified
 505 0038 0198     		ldr	r0, [sp, #4]
 506 003a 03B0     		add	sp, sp, #12
 507              		@ sp needed
 508 003c 30BD     		pop	{r4, r5, pc}
 509              	.L68:
 510 003e 0B4A     		ldr	r2, .L69
 511 0040 6368     		ldr	r3, [r4, #4]
 512 0042 D568     		ldr	r5, [r2, #12]
 513 0044 0520     		movs	r0, #5
ARM GAS  /tmp/ccsIcgny.s 			page 10


 514 0046 C5E90043 		strd	r4, r3, [r5]
 515 004a 1D60     		str	r5, [r3]
 516 004c 6560     		str	r5, [r4, #4]
 517 004e AC62     		str	r4, [r5, #40]
 518 0050 FFF7FEFF 		bl	chSchGoSleepS
 519 0054 A86A     		ldr	r0, [r5, #40]
 520 0056 E9E7     		b	.L65
 521              	.L67:
 522 0058 2868     		ldr	r0, [r5]
 523 005a 0368     		ldr	r3, [r0]
 524 005c 2B60     		str	r3, [r5]
 525 005e 5D60     		str	r5, [r3, #4]
 526 0060 FFF7FEFF 		bl	chSchReadyI
 527 0064 0023     		movs	r3, #0
 528 0066 8362     		str	r3, [r0, #40]
 529 0068 D8E7     		b	.L63
 530              	.L70:
 531 006a 00BF     		.align	2
 532              	.L69:
 533 006c 00000000 		.word	ch0
 534              		.size	chSemSignalWait, .-chSemSignalWait
 535              		.ident	"GCC: (15:10.3-2021.07-4) 10.3.1 20210621 (release)"
ARM GAS  /tmp/ccsIcgny.s 			page 11

