ARM GAS  /tmp/ccF5Omyb.s 			page 1


   1              		.cpu cortex-m4
   2              		.eabi_attribute 27, 1
   3              		.eabi_attribute 20, 1
   4              		.eabi_attribute 21, 1
   5              		.eabi_attribute 23, 3
   6              		.eabi_attribute 24, 1
   7              		.eabi_attribute 25, 1
   8              		.eabi_attribute 26, 1
   9              		.eabi_attribute 30, 2
  10              		.eabi_attribute 34, 1
  11              		.eabi_attribute 18, 4
  12              		.file	"chthreads.c"
  13              		.text
  14              		.section	.text.__thd_object_init,"ax",%progbits
  15              		.align	1
  16              		.p2align 4,,15
  17              		.global	__thd_object_init
  18              		.arch armv7e-m
  19              		.syntax unified
  20              		.thumb
  21              		.thumb_func
  22              		.fpu fpv4-sp-d16
  23              		.type	__thd_object_init, %function
  24              	__thd_object_init:
  25              		@ args = 0, pretend = 0, frame = 0
  26              		@ frame_needed = 0, uses_anonymous_args = 0
  27 0000 38B5     		push	{r3, r4, r5, lr}
  28 0002 0C46     		mov	r4, r1
  29 0004 CA61     		str	r2, [r1, #28]
  30 0006 0F4A     		ldr	r2, .L4
  31 0008 8B60     		str	r3, [r1, #8]
  32 000a 6262     		str	r2, [r4, #36]
  33 000c 0021     		movs	r1, #0
  34 000e C4E90F13 		strd	r1, r3, [r4, #60]
  35 0012 C36A     		ldr	r3, [r0, #44]
  36 0014 A061     		str	r0, [r4, #24]
  37 0016 04F11002 		add	r2, r4, #16
  38 001a 00F12805 		add	r5, r0, #40
  39 001e A163     		str	r1, [r4, #56]
  40 0020 6361     		str	r3, [r4, #20]
  41 0022 2561     		str	r5, [r4, #16]
  42 0024 04F12C01 		add	r1, r4, #44
  43 0028 1A60     		str	r2, [r3]
  44 002a 04F13003 		add	r3, r4, #48
  45 002e C262     		str	r2, [r0, #44]
  46 0030 04F14800 		add	r0, r4, #72
  47 0034 C4E90B13 		strd	r1, r3, [r4, #44]
  48 0038 6363     		str	r3, [r4, #52]
  49 003a FFF7FEFF 		bl	chTMObjectInit
  50 003e 2046     		mov	r0, r4
  51 0040 38BD     		pop	{r3, r4, r5, pc}
  52              	.L5:
  53 0042 00BF     		.align	2
  54              	.L4:
  55 0044 0200010A 		.word	167837698
  56              		.size	__thd_object_init, .-__thd_object_init
  57              		.section	.text.__thd_stackfill,"ax",%progbits
ARM GAS  /tmp/ccF5Omyb.s 			page 2


  58              		.align	1
  59              		.p2align 4,,15
  60              		.global	__thd_stackfill
  61              		.syntax unified
  62              		.thumb
  63              		.thumb_func
  64              		.fpu fpv4-sp-d16
  65              		.type	__thd_stackfill, %function
  66              	__thd_stackfill:
  67              		@ args = 0, pretend = 0, frame = 0
  68              		@ frame_needed = 0, uses_anonymous_args = 0
  69              		@ link register save eliminated.
  70 0000 0346     		mov	r3, r0
  71 0002 0A1A     		subs	r2, r1, r0
  72 0004 0133     		adds	r3, r3, #1
  73 0006 8B42     		cmp	r3, r1
  74 0008 88BF     		it	hi
  75 000a 0122     		movhi	r2, #1
  76 000c 5521     		movs	r1, #85
  77 000e FFF7FEBF 		b	memset
  78              		.size	__thd_stackfill, .-__thd_stackfill
  79 0012 00BF     		.section	.text.chThdCreateSuspendedI,"ax",%progbits
  80              		.align	1
  81              		.p2align 4,,15
  82              		.global	chThdCreateSuspendedI
  83              		.syntax unified
  84              		.thumb
  85              		.thumb_func
  86              		.fpu fpv4-sp-d16
  87              		.type	chThdCreateSuspendedI, %function
  88              	chThdCreateSuspendedI:
  89              		@ args = 0, pretend = 0, frame = 0
  90              		@ frame_needed = 0, uses_anonymous_args = 0
  91 0000 F8B5     		push	{r3, r4, r5, r6, r7, lr}
  92 0002 D0E90234 		ldrd	r3, r4, [r0, #8]
  93 0006 4568     		ldr	r5, [r0, #4]
  94 0008 43F8405C 		str	r5, [r3, #-64]
  95 000c 0569     		ldr	r5, [r0, #16]
  96 000e 204A     		ldr	r2, .L9
  97 0010 43F8845C 		str	r5, [r3, #-132]
  98 0014 4FF0020C 		mov	ip, #2
  99 0018 4569     		ldr	r5, [r0, #20]
 100 001a 43F8805C 		str	r5, [r3, #-128]
 101 001e 0021     		movs	r1, #0
 102 0020 0A27     		movs	r7, #10
 103 0022 0126     		movs	r6, #1
 104 0024 0568     		ldr	r5, [r0]
 105 0026 03F8397C 		strb	r7, [r3, #-57]
 106 002a 03F83A6C 		strb	r6, [r3, #-58]
 107 002e 03F83B1C 		strb	r1, [r3, #-59]
 108 0032 03F83CCC 		strb	ip, [r3, #-60]
 109 0036 43F8584C 		str	r4, [r3, #-88]
 110 003a 43E90A11 		strd	r1, r1, [r3, #-40]
 111 003e 43F8204C 		str	r4, [r3, #-32]
 112 0042 02F12801 		add	r1, r2, #40
 113 0046 D46A     		ldr	r4, [r2, #44]
 114 0048 43F8501C 		str	r1, [r3, #-80]
ARM GAS  /tmp/ccF5Omyb.s 			page 3


 115 004c A3F1C407 		sub	r7, r3, #196
 116 0050 A3F15000 		sub	r0, r3, #80
 117 0054 43F8547C 		str	r7, [r3, #-84]
 118 0058 A3F13001 		sub	r1, r3, #48
 119 005c A3F13406 		sub	r6, r3, #52
 120 0060 0C4F     		ldr	r7, .L9+4
 121 0062 43F8445C 		str	r5, [r3, #-68]
 122 0066 43F8482C 		str	r2, [r3, #-72]
 123 006a 43F84C4C 		str	r4, [r3, #-76]
 124 006e 43F8647C 		str	r7, [r3, #-100]
 125 0072 A3F16005 		sub	r5, r3, #96
 126 0076 2060     		str	r0, [r4]
 127 0078 D062     		str	r0, [r2, #44]
 128 007a A3F11800 		sub	r0, r3, #24
 129 007e 43E90D61 		strd	r6, r1, [r3, #-52]
 130 0082 43F82C1C 		str	r1, [r3, #-44]
 131 0086 FFF7FEFF 		bl	chTMObjectInit
 132 008a 2846     		mov	r0, r5
 133 008c F8BD     		pop	{r3, r4, r5, r6, r7, pc}
 134              	.L10:
 135 008e 00BF     		.align	2
 136              	.L9:
 137 0090 00000000 		.word	ch0
 138 0094 00000000 		.word	__port_thread_start
 139              		.size	chThdCreateSuspendedI, .-chThdCreateSuspendedI
 140              		.section	.text.chThdCreateSuspended,"ax",%progbits
 141              		.align	1
 142              		.p2align 4,,15
 143              		.global	chThdCreateSuspended
 144              		.syntax unified
 145              		.thumb
 146              		.thumb_func
 147              		.fpu fpv4-sp-d16
 148              		.type	chThdCreateSuspended, %function
 149              	chThdCreateSuspended:
 150              		@ args = 0, pretend = 0, frame = 8
 151              		@ frame_needed = 0, uses_anonymous_args = 0
 152 0000 10B5     		push	{r4, lr}
 153 0002 0446     		mov	r4, r0
 154 0004 D0E90103 		ldrd	r0, r3, [r0, #4]
 155 0008 411C     		adds	r1, r0, #1
 156 000a 1A1A     		subs	r2, r3, r0
 157 000c 82B0     		sub	sp, sp, #8
 158 000e 8B42     		cmp	r3, r1
 159 0010 38BF     		it	cc
 160 0012 0122     		movcc	r2, #1
 161 0014 5521     		movs	r1, #85
 162 0016 FFF7FEFF 		bl	memset
 163 001a 3023     		movs	r3, #48
 164              		.syntax unified
 165              	@ 493 "/home/argroos/paparazzi/sw/ext/chibios/os/common/ext/ARM/CMSIS/Core/Include/cmsis_gcc.h" 1
 166 001c 83F31188 		MSR basepri, r3
 167              	@ 0 "" 2
 168              		.thumb
 169              		.syntax unified
 170 0020 FFF7FEFF 		bl	__stats_start_measure_crit_thd
 171 0024 2046     		mov	r0, r4
ARM GAS  /tmp/ccF5Omyb.s 			page 4


 172 0026 FFF7FEFF 		bl	chThdCreateSuspendedI
 173 002a 0190     		str	r0, [sp, #4]
 174 002c FFF7FEFF 		bl	__stats_stop_measure_crit_thd
 175 0030 0023     		movs	r3, #0
 176              		.syntax unified
 177              	@ 493 "/home/argroos/paparazzi/sw/ext/chibios/os/common/ext/ARM/CMSIS/Core/Include/cmsis_gcc.h" 1
 178 0032 83F31188 		MSR basepri, r3
 179              	@ 0 "" 2
 180              		.thumb
 181              		.syntax unified
 182 0036 0198     		ldr	r0, [sp, #4]
 183 0038 02B0     		add	sp, sp, #8
 184              		@ sp needed
 185 003a 10BD     		pop	{r4, pc}
 186              		.size	chThdCreateSuspended, .-chThdCreateSuspended
 187              		.section	.text.chThdCreateI,"ax",%progbits
 188              		.align	1
 189              		.p2align 4,,15
 190              		.global	chThdCreateI
 191              		.syntax unified
 192              		.thumb
 193              		.thumb_func
 194              		.fpu fpv4-sp-d16
 195              		.type	chThdCreateI, %function
 196              	chThdCreateI:
 197              		@ args = 0, pretend = 0, frame = 0
 198              		@ frame_needed = 0, uses_anonymous_args = 0
 199 0000 08B5     		push	{r3, lr}
 200 0002 FFF7FEFF 		bl	chThdCreateSuspendedI
 201 0006 BDE80840 		pop	{r3, lr}
 202 000a FFF7FEBF 		b	chSchReadyI
 203              		.size	chThdCreateI, .-chThdCreateI
 204 000e 00BF     		.section	.text.chThdCreate,"ax",%progbits
 205              		.align	1
 206              		.p2align 4,,15
 207              		.global	chThdCreate
 208              		.syntax unified
 209              		.thumb
 210              		.thumb_func
 211              		.fpu fpv4-sp-d16
 212              		.type	chThdCreate, %function
 213              	chThdCreate:
 214              		@ args = 0, pretend = 0, frame = 0
 215              		@ frame_needed = 0, uses_anonymous_args = 0
 216 0000 10B5     		push	{r4, lr}
 217 0002 0446     		mov	r4, r0
 218 0004 D0E90103 		ldrd	r0, r3, [r0, #4]
 219 0008 411C     		adds	r1, r0, #1
 220 000a 1A1A     		subs	r2, r3, r0
 221 000c 8B42     		cmp	r3, r1
 222 000e 38BF     		it	cc
 223 0010 0122     		movcc	r2, #1
 224 0012 5521     		movs	r1, #85
 225 0014 FFF7FEFF 		bl	memset
 226 0018 3023     		movs	r3, #48
 227              		.syntax unified
 228              	@ 493 "/home/argroos/paparazzi/sw/ext/chibios/os/common/ext/ARM/CMSIS/Core/Include/cmsis_gcc.h" 1
ARM GAS  /tmp/ccF5Omyb.s 			page 5


 229 001a 83F31188 		MSR basepri, r3
 230              	@ 0 "" 2
 231              		.thumb
 232              		.syntax unified
 233 001e FFF7FEFF 		bl	__stats_start_measure_crit_thd
 234 0022 2046     		mov	r0, r4
 235 0024 FFF7FEFF 		bl	chThdCreateSuspendedI
 236 0028 0021     		movs	r1, #0
 237 002a 0446     		mov	r4, r0
 238 002c FFF7FEFF 		bl	chSchWakeupS
 239 0030 FFF7FEFF 		bl	__stats_stop_measure_crit_thd
 240 0034 0023     		movs	r3, #0
 241              		.syntax unified
 242              	@ 493 "/home/argroos/paparazzi/sw/ext/chibios/os/common/ext/ARM/CMSIS/Core/Include/cmsis_gcc.h" 1
 243 0036 83F31188 		MSR basepri, r3
 244              	@ 0 "" 2
 245              		.thumb
 246              		.syntax unified
 247 003a 2046     		mov	r0, r4
 248 003c 10BD     		pop	{r4, pc}
 249              		.size	chThdCreate, .-chThdCreate
 250 003e 00BF     		.section	.rodata.chThdCreateStatic.str1.4,"aMS",%progbits,1
 251              		.align	2
 252              	.LC0:
 253 0000 6E6F6E61 		.ascii	"noname\000"
 253      6D6500
 254              		.section	.text.chThdCreateStatic,"ax",%progbits
 255              		.align	1
 256              		.p2align 4,,15
 257              		.global	chThdCreateStatic
 258              		.syntax unified
 259              		.thumb
 260              		.thumb_func
 261              		.fpu fpv4-sp-d16
 262              		.type	chThdCreateStatic, %function
 263              	chThdCreateStatic:
 264              		@ args = 4, pretend = 0, frame = 0
 265              		@ frame_needed = 0, uses_anonymous_args = 0
 266 0000 F8B5     		push	{r3, r4, r5, r6, r7, lr}
 267 0002 1646     		mov	r6, r2
 268 0004 1F46     		mov	r7, r3
 269 0006 421C     		adds	r2, r0, #1
 270 0008 4318     		adds	r3, r0, r1
 271 000a 9A42     		cmp	r2, r3
 272 000c 94BF     		ite	ls
 273 000e 0A46     		movls	r2, r1
 274 0010 0122     		movhi	r2, #1
 275 0012 0C46     		mov	r4, r1
 276 0014 5521     		movs	r1, #85
 277 0016 0546     		mov	r5, r0
 278 0018 FFF7FEFF 		bl	memset
 279 001c 3023     		movs	r3, #48
 280              		.syntax unified
 281              	@ 493 "/home/argroos/paparazzi/sw/ext/chibios/os/common/ext/ARM/CMSIS/Core/Include/cmsis_gcc.h" 1
 282 001e 83F31188 		MSR basepri, r3
 283              	@ 0 "" 2
 284              		.thumb
ARM GAS  /tmp/ccF5Omyb.s 			page 6


 285              		.syntax unified
 286 0022 603C     		subs	r4, r4, #96
 287 0024 2C44     		add	r4, r4, r5
 288 0026 FFF7FEFF 		bl	__stats_start_measure_crit_thd
 289 002a 1A4A     		ldr	r2, .L19
 290 002c 44F8042C 		str	r2, [r4, #-4]
 291 0030 A4F16402 		sub	r2, r4, #100
 292 0034 184B     		ldr	r3, .L19+4
 293 0036 E260     		str	r2, [r4, #12]
 294 0038 184A     		ldr	r2, .L19+8
 295 003a 6262     		str	r2, [r4, #36]
 296 003c 069A     		ldr	r2, [sp, #24]
 297 003e A660     		str	r6, [r4, #8]
 298 0040 44F8202C 		str	r2, [r4, #-32]
 299 0044 03F12802 		add	r2, r3, #40
 300 0048 2261     		str	r2, [r4, #16]
 301 004a DA6A     		ldr	r2, [r3, #44]
 302 004c 2562     		str	r5, [r4, #32]
 303 004e 04F11001 		add	r1, r4, #16
 304 0052 0025     		movs	r5, #0
 305 0054 1248     		ldr	r0, .L19+12
 306 0056 A361     		str	r3, [r4, #24]
 307 0058 E061     		str	r0, [r4, #28]
 308 005a 6261     		str	r2, [r4, #20]
 309 005c 44F8247C 		str	r7, [r4, #-36]
 310 0060 C4E90E55 		strd	r5, r5, [r4, #56]
 311 0064 2664     		str	r6, [r4, #64]
 312 0066 04F12C00 		add	r0, r4, #44
 313 006a 1160     		str	r1, [r2]
 314 006c 04F13002 		add	r2, r4, #48
 315 0070 D962     		str	r1, [r3, #44]
 316 0072 6263     		str	r2, [r4, #52]
 317 0074 C4E90B02 		strd	r0, r2, [r4, #44]
 318 0078 04F14800 		add	r0, r4, #72
 319 007c FFF7FEFF 		bl	chTMObjectInit
 320 0080 2946     		mov	r1, r5
 321 0082 2046     		mov	r0, r4
 322 0084 FFF7FEFF 		bl	chSchWakeupS
 323 0088 FFF7FEFF 		bl	__stats_stop_measure_crit_thd
 324              		.syntax unified
 325              	@ 493 "/home/argroos/paparazzi/sw/ext/chibios/os/common/ext/ARM/CMSIS/Core/Include/cmsis_gcc.h" 1
 326 008c 85F31188 		MSR basepri, r5
 327              	@ 0 "" 2
 328              		.thumb
 329              		.syntax unified
 330 0090 2046     		mov	r0, r4
 331 0092 F8BD     		pop	{r3, r4, r5, r6, r7, pc}
 332              	.L20:
 333              		.align	2
 334              	.L19:
 335 0094 00000000 		.word	__port_thread_start
 336 0098 00000000 		.word	ch0
 337 009c 0200010A 		.word	167837698
 338 00a0 00000000 		.word	.LC0
 339              		.size	chThdCreateStatic, .-chThdCreateStatic
 340              		.section	.text.chThdStart,"ax",%progbits
 341              		.align	1
ARM GAS  /tmp/ccF5Omyb.s 			page 7


 342              		.p2align 4,,15
 343              		.global	chThdStart
 344              		.syntax unified
 345              		.thumb
 346              		.thumb_func
 347              		.fpu fpv4-sp-d16
 348              		.type	chThdStart, %function
 349              	chThdStart:
 350              		@ args = 0, pretend = 0, frame = 8
 351              		@ frame_needed = 0, uses_anonymous_args = 0
 352 0000 00B5     		push	{lr}
 353 0002 83B0     		sub	sp, sp, #12
 354 0004 3023     		movs	r3, #48
 355 0006 0190     		str	r0, [sp, #4]
 356              		.syntax unified
 357              	@ 493 "/home/argroos/paparazzi/sw/ext/chibios/os/common/ext/ARM/CMSIS/Core/Include/cmsis_gcc.h" 1
 358 0008 83F31188 		MSR basepri, r3
 359              	@ 0 "" 2
 360              		.thumb
 361              		.syntax unified
 362 000c FFF7FEFF 		bl	__stats_start_measure_crit_thd
 363 0010 0198     		ldr	r0, [sp, #4]
 364 0012 0021     		movs	r1, #0
 365 0014 FFF7FEFF 		bl	chSchWakeupS
 366 0018 FFF7FEFF 		bl	__stats_stop_measure_crit_thd
 367 001c 0023     		movs	r3, #0
 368              		.syntax unified
 369              	@ 493 "/home/argroos/paparazzi/sw/ext/chibios/os/common/ext/ARM/CMSIS/Core/Include/cmsis_gcc.h" 1
 370 001e 83F31188 		MSR basepri, r3
 371              	@ 0 "" 2
 372              		.thumb
 373              		.syntax unified
 374 0022 0198     		ldr	r0, [sp, #4]
 375 0024 03B0     		add	sp, sp, #12
 376              		@ sp needed
 377 0026 5DF804FB 		ldr	pc, [sp], #4
 378              		.size	chThdStart, .-chThdStart
 379 002a 00BF     		.section	.text.chThdAddRef,"ax",%progbits
 380              		.align	1
 381              		.p2align 4,,15
 382              		.global	chThdAddRef
 383              		.syntax unified
 384              		.thumb
 385              		.thumb_func
 386              		.fpu fpv4-sp-d16
 387              		.type	chThdAddRef, %function
 388              	chThdAddRef:
 389              		@ args = 0, pretend = 0, frame = 0
 390              		@ frame_needed = 0, uses_anonymous_args = 0
 391 0000 10B5     		push	{r4, lr}
 392 0002 3023     		movs	r3, #48
 393 0004 0446     		mov	r4, r0
 394              		.syntax unified
 395              	@ 493 "/home/argroos/paparazzi/sw/ext/chibios/os/common/ext/ARM/CMSIS/Core/Include/cmsis_gcc.h" 1
 396 0006 83F31188 		MSR basepri, r3
 397              	@ 0 "" 2
 398              		.thumb
ARM GAS  /tmp/ccF5Omyb.s 			page 8


 399              		.syntax unified
 400 000a FFF7FEFF 		bl	__stats_start_measure_crit_thd
 401 000e 94F82630 		ldrb	r3, [r4, #38]	@ zero_extendqisi2
 402 0012 0133     		adds	r3, r3, #1
 403 0014 84F82630 		strb	r3, [r4, #38]
 404 0018 FFF7FEFF 		bl	__stats_stop_measure_crit_thd
 405 001c 0023     		movs	r3, #0
 406              		.syntax unified
 407              	@ 493 "/home/argroos/paparazzi/sw/ext/chibios/os/common/ext/ARM/CMSIS/Core/Include/cmsis_gcc.h" 1
 408 001e 83F31188 		MSR basepri, r3
 409              	@ 0 "" 2
 410              		.thumb
 411              		.syntax unified
 412 0022 2046     		mov	r0, r4
 413 0024 10BD     		pop	{r4, pc}
 414              		.size	chThdAddRef, .-chThdAddRef
 415 0026 00BF     		.section	.text.chThdRelease,"ax",%progbits
 416              		.align	1
 417              		.p2align 4,,15
 418              		.global	chThdRelease
 419              		.syntax unified
 420              		.thumb
 421              		.thumb_func
 422              		.fpu fpv4-sp-d16
 423              		.type	chThdRelease, %function
 424              	chThdRelease:
 425              		@ args = 0, pretend = 0, frame = 0
 426              		@ frame_needed = 0, uses_anonymous_args = 0
 427 0000 10B5     		push	{r4, lr}
 428 0002 3023     		movs	r3, #48
 429 0004 0446     		mov	r4, r0
 430              		.syntax unified
 431              	@ 493 "/home/argroos/paparazzi/sw/ext/chibios/os/common/ext/ARM/CMSIS/Core/Include/cmsis_gcc.h" 1
 432 0006 83F31188 		MSR basepri, r3
 433              	@ 0 "" 2
 434              		.thumb
 435              		.syntax unified
 436 000a FFF7FEFF 		bl	__stats_start_measure_crit_thd
 437 000e 94F82630 		ldrb	r3, [r4, #38]	@ zero_extendqisi2
 438 0012 013B     		subs	r3, r3, #1
 439 0014 84F82630 		strb	r3, [r4, #38]
 440 0018 636A     		ldr	r3, [r4, #36]
 441 001a 03F0FF13 		and	r3, r3, #16711935
 442 001e 0F2B     		cmp	r3, #15
 443 0020 05D0     		beq	.L31
 444 0022 FFF7FEFF 		bl	__stats_stop_measure_crit_thd
 445 0026 0023     		movs	r3, #0
 446              		.syntax unified
 447              	@ 493 "/home/argroos/paparazzi/sw/ext/chibios/os/common/ext/ARM/CMSIS/Core/Include/cmsis_gcc.h" 1
 448 0028 83F31188 		MSR basepri, r3
 449              	@ 0 "" 2
 450              		.thumb
 451              		.syntax unified
 452              	.L25:
 453 002c 10BD     		pop	{r4, pc}
 454              	.L31:
 455 002e D4E90432 		ldrd	r3, r2, [r4, #16]
ARM GAS  /tmp/ccF5Omyb.s 			page 9


 456 0032 1360     		str	r3, [r2]
 457 0034 5A60     		str	r2, [r3, #4]
 458 0036 FFF7FEFF 		bl	__stats_stop_measure_crit_thd
 459 003a 0023     		movs	r3, #0
 460              		.syntax unified
 461              	@ 493 "/home/argroos/paparazzi/sw/ext/chibios/os/common/ext/ARM/CMSIS/Core/Include/cmsis_gcc.h" 1
 462 003c 83F31188 		MSR basepri, r3
 463              	@ 0 "" 2
 464              		.thumb
 465              		.syntax unified
 466 0040 94F82530 		ldrb	r3, [r4, #37]	@ zero_extendqisi2
 467 0044 03F00303 		and	r3, r3, #3
 468 0048 012B     		cmp	r3, #1
 469 004a 07D0     		beq	.L27
 470 004c 022B     		cmp	r3, #2
 471 004e EDD1     		bne	.L25
 472 0050 216A     		ldr	r1, [r4, #32]
 473 0052 606C     		ldr	r0, [r4, #68]
 474 0054 BDE81040 		pop	{r4, lr}
 475 0058 FFF7FEBF 		b	chPoolFree
 476              	.L27:
 477 005c 206A     		ldr	r0, [r4, #32]
 478 005e BDE81040 		pop	{r4, lr}
 479 0062 FFF7FEBF 		b	chHeapFree
 480              		.size	chThdRelease, .-chThdRelease
 481 0066 00BF     		.section	.text.chThdExitS,"ax",%progbits
 482              		.align	1
 483              		.p2align 4,,15
 484              		.global	chThdExitS
 485              		.syntax unified
 486              		.thumb
 487              		.thumb_func
 488              		.fpu fpv4-sp-d16
 489              		.type	chThdExitS, %function
 490              	chThdExitS:
 491              		@ args = 0, pretend = 0, frame = 0
 492              		@ frame_needed = 0, uses_anonymous_args = 0
 493 0000 38B5     		push	{r3, r4, r5, lr}
 494 0002 124B     		ldr	r3, .L39
 495 0004 DC68     		ldr	r4, [r3, #12]
 496 0006 E36A     		ldr	r3, [r4, #44]
 497 0008 A062     		str	r0, [r4, #40]
 498 000a 04F12C05 		add	r5, r4, #44
 499 000e 9D42     		cmp	r5, r3
 500 0010 07D1     		bne	.L34
 501 0012 94F82630 		ldrb	r3, [r4, #38]	@ zero_extendqisi2
 502 0016 83B1     		cbz	r3, .L38
 503              	.L35:
 504 0018 BDE83840 		pop	{r3, r4, r5, lr}
 505 001c 0F20     		movs	r0, #15
 506 001e FFF7FEBF 		b	chSchGoSleepS
 507              	.L34:
 508 0022 1A68     		ldr	r2, [r3]
 509 0024 E262     		str	r2, [r4, #44]
 510 0026 1846     		mov	r0, r3
 511 0028 FFF7FEFF 		bl	chSchReadyI
 512 002c E36A     		ldr	r3, [r4, #44]
ARM GAS  /tmp/ccF5Omyb.s 			page 10


 513 002e 9D42     		cmp	r5, r3
 514 0030 F7D1     		bne	.L34
 515 0032 94F82630 		ldrb	r3, [r4, #38]	@ zero_extendqisi2
 516 0036 002B     		cmp	r3, #0
 517 0038 EED1     		bne	.L35
 518              	.L38:
 519 003a 94F82530 		ldrb	r3, [r4, #37]	@ zero_extendqisi2
 520 003e 9B07     		lsls	r3, r3, #30
 521 0040 EAD1     		bne	.L35
 522 0042 D4E90432 		ldrd	r3, r2, [r4, #16]
 523 0046 1360     		str	r3, [r2]
 524 0048 5A60     		str	r2, [r3, #4]
 525 004a E5E7     		b	.L35
 526              	.L40:
 527              		.align	2
 528              	.L39:
 529 004c 00000000 		.word	ch0
 530              		.size	chThdExitS, .-chThdExitS
 531              		.section	.text.chThdExit,"ax",%progbits
 532              		.align	1
 533              		.p2align 4,,15
 534              		.global	chThdExit
 535              		.syntax unified
 536              		.thumb
 537              		.thumb_func
 538              		.fpu fpv4-sp-d16
 539              		.type	chThdExit, %function
 540              	chThdExit:
 541              		@ args = 0, pretend = 0, frame = 8
 542              		@ frame_needed = 0, uses_anonymous_args = 0
 543 0000 00B5     		push	{lr}
 544 0002 83B0     		sub	sp, sp, #12
 545 0004 3023     		movs	r3, #48
 546 0006 0190     		str	r0, [sp, #4]
 547              		.syntax unified
 548              	@ 493 "/home/argroos/paparazzi/sw/ext/chibios/os/common/ext/ARM/CMSIS/Core/Include/cmsis_gcc.h" 1
 549 0008 83F31188 		MSR basepri, r3
 550              	@ 0 "" 2
 551              		.thumb
 552              		.syntax unified
 553 000c FFF7FEFF 		bl	__stats_start_measure_crit_thd
 554 0010 0198     		ldr	r0, [sp, #4]
 555 0012 03B0     		add	sp, sp, #12
 556              		@ sp needed
 557 0014 5DF804EB 		ldr	lr, [sp], #4
 558 0018 FFF7FEBF 		b	chThdExitS
 559              		.size	chThdExit, .-chThdExit
 560              		.section	.text.chThdWait,"ax",%progbits
 561              		.align	1
 562              		.p2align 4,,15
 563              		.global	chThdWait
 564              		.syntax unified
 565              		.thumb
 566              		.thumb_func
 567              		.fpu fpv4-sp-d16
 568              		.type	chThdWait, %function
 569              	chThdWait:
ARM GAS  /tmp/ccF5Omyb.s 			page 11


 570              		@ args = 0, pretend = 0, frame = 0
 571              		@ frame_needed = 0, uses_anonymous_args = 0
 572 0000 38B5     		push	{r3, r4, r5, lr}
 573 0002 0E4B     		ldr	r3, .L49
 574 0004 0446     		mov	r4, r0
 575 0006 DD68     		ldr	r5, [r3, #12]
 576 0008 3023     		movs	r3, #48
 577              		.syntax unified
 578              	@ 493 "/home/argroos/paparazzi/sw/ext/chibios/os/common/ext/ARM/CMSIS/Core/Include/cmsis_gcc.h" 1
 579 000a 83F31188 		MSR basepri, r3
 580              	@ 0 "" 2
 581              		.thumb
 582              		.syntax unified
 583 000e FFF7FEFF 		bl	__stats_start_measure_crit_thd
 584 0012 94F82430 		ldrb	r3, [r4, #36]	@ zero_extendqisi2
 585 0016 0F2B     		cmp	r3, #15
 586 0018 05D0     		beq	.L44
 587 001a E36A     		ldr	r3, [r4, #44]
 588 001c 2B60     		str	r3, [r5]
 589 001e 0920     		movs	r0, #9
 590 0020 E562     		str	r5, [r4, #44]
 591 0022 FFF7FEFF 		bl	chSchGoSleepS
 592              	.L44:
 593 0026 A56A     		ldr	r5, [r4, #40]
 594 0028 FFF7FEFF 		bl	__stats_stop_measure_crit_thd
 595 002c 0023     		movs	r3, #0
 596              		.syntax unified
 597              	@ 493 "/home/argroos/paparazzi/sw/ext/chibios/os/common/ext/ARM/CMSIS/Core/Include/cmsis_gcc.h" 1
 598 002e 83F31188 		MSR basepri, r3
 599              	@ 0 "" 2
 600              		.thumb
 601              		.syntax unified
 602 0032 2046     		mov	r0, r4
 603 0034 FFF7FEFF 		bl	chThdRelease
 604 0038 2846     		mov	r0, r5
 605 003a 38BD     		pop	{r3, r4, r5, pc}
 606              	.L50:
 607              		.align	2
 608              	.L49:
 609 003c 00000000 		.word	ch0
 610              		.size	chThdWait, .-chThdWait
 611              		.section	.text.chThdSetPriority,"ax",%progbits
 612              		.align	1
 613              		.p2align 4,,15
 614              		.global	chThdSetPriority
 615              		.syntax unified
 616              		.thumb
 617              		.thumb_func
 618              		.fpu fpv4-sp-d16
 619              		.type	chThdSetPriority, %function
 620              	chThdSetPriority:
 621              		@ args = 0, pretend = 0, frame = 0
 622              		@ frame_needed = 0, uses_anonymous_args = 0
 623 0000 0C4B     		ldr	r3, .L55
 624 0002 70B5     		push	{r4, r5, r6, lr}
 625 0004 DD68     		ldr	r5, [r3, #12]
 626 0006 0446     		mov	r4, r0
ARM GAS  /tmp/ccF5Omyb.s 			page 12


 627 0008 3023     		movs	r3, #48
 628              		.syntax unified
 629              	@ 493 "/home/argroos/paparazzi/sw/ext/chibios/os/common/ext/ARM/CMSIS/Core/Include/cmsis_gcc.h" 1
 630 000a 83F31188 		MSR basepri, r3
 631              	@ 0 "" 2
 632              		.thumb
 633              		.syntax unified
 634 000e FFF7FEFF 		bl	__stats_start_measure_crit_thd
 635 0012 2E6C     		ldr	r6, [r5, #64]
 636 0014 AB68     		ldr	r3, [r5, #8]
 637 0016 B342     		cmp	r3, r6
 638 0018 01D0     		beq	.L52
 639 001a A342     		cmp	r3, r4
 640 001c 00D2     		bcs	.L53
 641              	.L52:
 642 001e AC60     		str	r4, [r5, #8]
 643              	.L53:
 644 0020 2C64     		str	r4, [r5, #64]
 645 0022 FFF7FEFF 		bl	chSchRescheduleS
 646 0026 FFF7FEFF 		bl	__stats_stop_measure_crit_thd
 647 002a 0023     		movs	r3, #0
 648              		.syntax unified
 649              	@ 493 "/home/argroos/paparazzi/sw/ext/chibios/os/common/ext/ARM/CMSIS/Core/Include/cmsis_gcc.h" 1
 650 002c 83F31188 		MSR basepri, r3
 651              	@ 0 "" 2
 652              		.thumb
 653              		.syntax unified
 654 0030 3046     		mov	r0, r6
 655 0032 70BD     		pop	{r4, r5, r6, pc}
 656              	.L56:
 657              		.align	2
 658              	.L55:
 659 0034 00000000 		.word	ch0
 660              		.size	chThdSetPriority, .-chThdSetPriority
 661              		.section	.text.chThdTerminate,"ax",%progbits
 662              		.align	1
 663              		.p2align 4,,15
 664              		.global	chThdTerminate
 665              		.syntax unified
 666              		.thumb
 667              		.thumb_func
 668              		.fpu fpv4-sp-d16
 669              		.type	chThdTerminate, %function
 670              	chThdTerminate:
 671              		@ args = 0, pretend = 0, frame = 0
 672              		@ frame_needed = 0, uses_anonymous_args = 0
 673 0000 10B5     		push	{r4, lr}
 674 0002 3023     		movs	r3, #48
 675 0004 0446     		mov	r4, r0
 676              		.syntax unified
 677              	@ 493 "/home/argroos/paparazzi/sw/ext/chibios/os/common/ext/ARM/CMSIS/Core/Include/cmsis_gcc.h" 1
 678 0006 83F31188 		MSR basepri, r3
 679              	@ 0 "" 2
 680              		.thumb
 681              		.syntax unified
 682 000a FFF7FEFF 		bl	__stats_start_measure_crit_thd
 683 000e 94F82530 		ldrb	r3, [r4, #37]	@ zero_extendqisi2
ARM GAS  /tmp/ccF5Omyb.s 			page 13


 684 0012 43F00403 		orr	r3, r3, #4
 685 0016 84F82530 		strb	r3, [r4, #37]
 686 001a FFF7FEFF 		bl	__stats_stop_measure_crit_thd
 687 001e 0023     		movs	r3, #0
 688              		.syntax unified
 689              	@ 493 "/home/argroos/paparazzi/sw/ext/chibios/os/common/ext/ARM/CMSIS/Core/Include/cmsis_gcc.h" 1
 690 0020 83F31188 		MSR basepri, r3
 691              	@ 0 "" 2
 692              		.thumb
 693              		.syntax unified
 694 0024 10BD     		pop	{r4, pc}
 695              		.size	chThdTerminate, .-chThdTerminate
 696 0026 00BF     		.section	.text.chThdSleep,"ax",%progbits
 697              		.align	1
 698              		.p2align 4,,15
 699              		.global	chThdSleep
 700              		.syntax unified
 701              		.thumb
 702              		.thumb_func
 703              		.fpu fpv4-sp-d16
 704              		.type	chThdSleep, %function
 705              	chThdSleep:
 706              		@ args = 0, pretend = 0, frame = 8
 707              		@ frame_needed = 0, uses_anonymous_args = 0
 708 0000 00B5     		push	{lr}
 709 0002 83B0     		sub	sp, sp, #12
 710 0004 3023     		movs	r3, #48
 711 0006 0190     		str	r0, [sp, #4]
 712              		.syntax unified
 713              	@ 493 "/home/argroos/paparazzi/sw/ext/chibios/os/common/ext/ARM/CMSIS/Core/Include/cmsis_gcc.h" 1
 714 0008 83F31188 		MSR basepri, r3
 715              	@ 0 "" 2
 716              		.thumb
 717              		.syntax unified
 718 000c FFF7FEFF 		bl	__stats_start_measure_crit_thd
 719 0010 0199     		ldr	r1, [sp, #4]
 720 0012 0820     		movs	r0, #8
 721 0014 FFF7FEFF 		bl	chSchGoSleepTimeoutS
 722 0018 FFF7FEFF 		bl	__stats_stop_measure_crit_thd
 723 001c 0023     		movs	r3, #0
 724              		.syntax unified
 725              	@ 493 "/home/argroos/paparazzi/sw/ext/chibios/os/common/ext/ARM/CMSIS/Core/Include/cmsis_gcc.h" 1
 726 001e 83F31188 		MSR basepri, r3
 727              	@ 0 "" 2
 728              		.thumb
 729              		.syntax unified
 730 0022 03B0     		add	sp, sp, #12
 731              		@ sp needed
 732 0024 5DF804FB 		ldr	pc, [sp], #4
 733              		.size	chThdSleep, .-chThdSleep
 734              		.section	.text.chThdSleepUntil,"ax",%progbits
 735              		.align	1
 736              		.p2align 4,,15
 737              		.global	chThdSleepUntil
 738              		.syntax unified
 739              		.thumb
 740              		.thumb_func
ARM GAS  /tmp/ccF5Omyb.s 			page 14


 741              		.fpu fpv4-sp-d16
 742              		.type	chThdSleepUntil, %function
 743              	chThdSleepUntil:
 744              		@ args = 0, pretend = 0, frame = 0
 745              		@ frame_needed = 0, uses_anonymous_args = 0
 746 0000 10B5     		push	{r4, lr}
 747 0002 3023     		movs	r3, #48
 748 0004 0446     		mov	r4, r0
 749              		.syntax unified
 750              	@ 493 "/home/argroos/paparazzi/sw/ext/chibios/os/common/ext/ARM/CMSIS/Core/Include/cmsis_gcc.h" 1
 751 0006 83F31188 		MSR basepri, r3
 752              	@ 0 "" 2
 753              		.thumb
 754              		.syntax unified
 755 000a FFF7FEFF 		bl	__stats_start_measure_crit_thd
 756 000e 064B     		ldr	r3, .L67
 757 0010 D969     		ldr	r1, [r3, #28]
 758 0012 611A     		subs	r1, r4, r1
 759 0014 02D0     		beq	.L62
 760 0016 0820     		movs	r0, #8
 761 0018 FFF7FEFF 		bl	chSchGoSleepTimeoutS
 762              	.L62:
 763 001c FFF7FEFF 		bl	__stats_stop_measure_crit_thd
 764 0020 0023     		movs	r3, #0
 765              		.syntax unified
 766              	@ 493 "/home/argroos/paparazzi/sw/ext/chibios/os/common/ext/ARM/CMSIS/Core/Include/cmsis_gcc.h" 1
 767 0022 83F31188 		MSR basepri, r3
 768              	@ 0 "" 2
 769              		.thumb
 770              		.syntax unified
 771 0026 10BD     		pop	{r4, pc}
 772              	.L68:
 773              		.align	2
 774              	.L67:
 775 0028 00000000 		.word	ch0
 776              		.size	chThdSleepUntil, .-chThdSleepUntil
 777              		.section	.text.chThdSleepUntilWindowed,"ax",%progbits
 778              		.align	1
 779              		.p2align 4,,15
 780              		.global	chThdSleepUntilWindowed
 781              		.syntax unified
 782              		.thumb
 783              		.thumb_func
 784              		.fpu fpv4-sp-d16
 785              		.type	chThdSleepUntilWindowed, %function
 786              	chThdSleepUntilWindowed:
 787              		@ args = 0, pretend = 0, frame = 0
 788              		@ frame_needed = 0, uses_anonymous_args = 0
 789 0000 38B5     		push	{r3, r4, r5, lr}
 790 0002 0446     		mov	r4, r0
 791 0004 0D46     		mov	r5, r1
 792 0006 3023     		movs	r3, #48
 793              		.syntax unified
 794              	@ 493 "/home/argroos/paparazzi/sw/ext/chibios/os/common/ext/ARM/CMSIS/Core/Include/cmsis_gcc.h" 1
 795 0008 83F31188 		MSR basepri, r3
 796              	@ 0 "" 2
 797              		.thumb
ARM GAS  /tmp/ccF5Omyb.s 			page 15


 798              		.syntax unified
 799 000c FFF7FEFF 		bl	__stats_start_measure_crit_thd
 800 0010 084A     		ldr	r2, .L72
 801 0012 D169     		ldr	r1, [r2, #28]
 802 0014 2B1B     		subs	r3, r5, r4
 803 0016 0C1B     		subs	r4, r1, r4
 804 0018 A342     		cmp	r3, r4
 805 001a 03D9     		bls	.L70
 806 001c 691A     		subs	r1, r5, r1
 807 001e 0820     		movs	r0, #8
 808 0020 FFF7FEFF 		bl	chSchGoSleepTimeoutS
 809              	.L70:
 810 0024 FFF7FEFF 		bl	__stats_stop_measure_crit_thd
 811 0028 0023     		movs	r3, #0
 812              		.syntax unified
 813              	@ 493 "/home/argroos/paparazzi/sw/ext/chibios/os/common/ext/ARM/CMSIS/Core/Include/cmsis_gcc.h" 1
 814 002a 83F31188 		MSR basepri, r3
 815              	@ 0 "" 2
 816              		.thumb
 817              		.syntax unified
 818 002e 2846     		mov	r0, r5
 819 0030 38BD     		pop	{r3, r4, r5, pc}
 820              	.L73:
 821 0032 00BF     		.align	2
 822              	.L72:
 823 0034 00000000 		.word	ch0
 824              		.size	chThdSleepUntilWindowed, .-chThdSleepUntilWindowed
 825              		.section	.text.chThdYield,"ax",%progbits
 826              		.align	1
 827              		.p2align 4,,15
 828              		.global	chThdYield
 829              		.syntax unified
 830              		.thumb
 831              		.thumb_func
 832              		.fpu fpv4-sp-d16
 833              		.type	chThdYield, %function
 834              	chThdYield:
 835              		@ args = 0, pretend = 0, frame = 0
 836              		@ frame_needed = 0, uses_anonymous_args = 0
 837 0000 08B5     		push	{r3, lr}
 838 0002 3023     		movs	r3, #48
 839              		.syntax unified
 840              	@ 493 "/home/argroos/paparazzi/sw/ext/chibios/os/common/ext/ARM/CMSIS/Core/Include/cmsis_gcc.h" 1
 841 0004 83F31188 		MSR basepri, r3
 842              	@ 0 "" 2
 843              		.thumb
 844              		.syntax unified
 845 0008 FFF7FEFF 		bl	__stats_start_measure_crit_thd
 846 000c FFF7FEFF 		bl	chSchDoYieldS
 847 0010 FFF7FEFF 		bl	__stats_stop_measure_crit_thd
 848 0014 0023     		movs	r3, #0
 849              		.syntax unified
 850              	@ 493 "/home/argroos/paparazzi/sw/ext/chibios/os/common/ext/ARM/CMSIS/Core/Include/cmsis_gcc.h" 1
 851 0016 83F31188 		MSR basepri, r3
 852              	@ 0 "" 2
 853              		.thumb
 854              		.syntax unified
ARM GAS  /tmp/ccF5Omyb.s 			page 16


 855 001a 08BD     		pop	{r3, pc}
 856              		.size	chThdYield, .-chThdYield
 857              		.section	.text.chThdSuspendS,"ax",%progbits
 858              		.align	1
 859              		.p2align 4,,15
 860              		.global	chThdSuspendS
 861              		.syntax unified
 862              		.thumb
 863              		.thumb_func
 864              		.fpu fpv4-sp-d16
 865              		.type	chThdSuspendS, %function
 866              	chThdSuspendS:
 867              		@ args = 0, pretend = 0, frame = 0
 868              		@ frame_needed = 0, uses_anonymous_args = 0
 869 0000 10B5     		push	{r4, lr}
 870 0002 054C     		ldr	r4, .L78
 871 0004 0346     		mov	r3, r0
 872 0006 E268     		ldr	r2, [r4, #12]
 873 0008 1A60     		str	r2, [r3]
 874 000a 0320     		movs	r0, #3
 875 000c 9362     		str	r3, [r2, #40]
 876 000e FFF7FEFF 		bl	chSchGoSleepS
 877 0012 E368     		ldr	r3, [r4, #12]
 878 0014 986A     		ldr	r0, [r3, #40]
 879 0016 10BD     		pop	{r4, pc}
 880              	.L79:
 881              		.align	2
 882              	.L78:
 883 0018 00000000 		.word	ch0
 884              		.size	chThdSuspendS, .-chThdSuspendS
 885              		.section	.text.chThdSuspendTimeoutS,"ax",%progbits
 886              		.align	1
 887              		.p2align 4,,15
 888              		.global	chThdSuspendTimeoutS
 889              		.syntax unified
 890              		.thumb
 891              		.thumb_func
 892              		.fpu fpv4-sp-d16
 893              		.type	chThdSuspendTimeoutS, %function
 894              	chThdSuspendTimeoutS:
 895              		@ args = 0, pretend = 0, frame = 0
 896              		@ frame_needed = 0, uses_anonymous_args = 0
 897              		@ link register save eliminated.
 898 0000 054B     		ldr	r3, .L82
 899 0002 DA68     		ldr	r2, [r3, #12]
 900 0004 0346     		mov	r3, r0
 901 0006 21B1     		cbz	r1, .L81
 902 0008 0260     		str	r2, [r0]
 903 000a 0320     		movs	r0, #3
 904 000c 9362     		str	r3, [r2, #40]
 905 000e FFF7FEBF 		b	chSchGoSleepTimeoutS
 906              	.L81:
 907 0012 4FF0FF30 		mov	r0, #-1
 908 0016 7047     		bx	lr
 909              	.L83:
 910              		.align	2
 911              	.L82:
ARM GAS  /tmp/ccF5Omyb.s 			page 17


 912 0018 00000000 		.word	ch0
 913              		.size	chThdSuspendTimeoutS, .-chThdSuspendTimeoutS
 914              		.section	.text.chThdResumeI,"ax",%progbits
 915              		.align	1
 916              		.p2align 4,,15
 917              		.global	chThdResumeI
 918              		.syntax unified
 919              		.thumb
 920              		.thumb_func
 921              		.fpu fpv4-sp-d16
 922              		.type	chThdResumeI, %function
 923              	chThdResumeI:
 924              		@ args = 0, pretend = 0, frame = 0
 925              		@ frame_needed = 0, uses_anonymous_args = 0
 926              		@ link register save eliminated.
 927 0000 0368     		ldr	r3, [r0]
 928 0002 2BB1     		cbz	r3, .L84
 929 0004 0022     		movs	r2, #0
 930 0006 0260     		str	r2, [r0]
 931 0008 1846     		mov	r0, r3
 932 000a 9962     		str	r1, [r3, #40]
 933 000c FFF7FEBF 		b	chSchReadyI
 934              	.L84:
 935 0010 7047     		bx	lr
 936              		.size	chThdResumeI, .-chThdResumeI
 937 0012 00BF     		.section	.text.chThdResumeS,"ax",%progbits
 938              		.align	1
 939              		.p2align 4,,15
 940              		.global	chThdResumeS
 941              		.syntax unified
 942              		.thumb
 943              		.thumb_func
 944              		.fpu fpv4-sp-d16
 945              		.type	chThdResumeS, %function
 946              	chThdResumeS:
 947              		@ args = 0, pretend = 0, frame = 0
 948              		@ frame_needed = 0, uses_anonymous_args = 0
 949              		@ link register save eliminated.
 950 0000 0368     		ldr	r3, [r0]
 951 0002 23B1     		cbz	r3, .L86
 952 0004 0022     		movs	r2, #0
 953 0006 0260     		str	r2, [r0]
 954 0008 1846     		mov	r0, r3
 955 000a FFF7FEBF 		b	chSchWakeupS
 956              	.L86:
 957 000e 7047     		bx	lr
 958              		.size	chThdResumeS, .-chThdResumeS
 959              		.section	.text.chThdResume,"ax",%progbits
 960              		.align	1
 961              		.p2align 4,,15
 962              		.global	chThdResume
 963              		.syntax unified
 964              		.thumb
 965              		.thumb_func
 966              		.fpu fpv4-sp-d16
 967              		.type	chThdResume, %function
 968              	chThdResume:
ARM GAS  /tmp/ccF5Omyb.s 			page 18


 969              		@ args = 0, pretend = 0, frame = 0
 970              		@ frame_needed = 0, uses_anonymous_args = 0
 971 0000 38B5     		push	{r3, r4, r5, lr}
 972 0002 0446     		mov	r4, r0
 973 0004 0D46     		mov	r5, r1
 974 0006 3023     		movs	r3, #48
 975              		.syntax unified
 976              	@ 493 "/home/argroos/paparazzi/sw/ext/chibios/os/common/ext/ARM/CMSIS/Core/Include/cmsis_gcc.h" 1
 977 0008 83F31188 		MSR basepri, r3
 978              	@ 0 "" 2
 979              		.thumb
 980              		.syntax unified
 981 000c FFF7FEFF 		bl	__stats_start_measure_crit_thd
 982 0010 2068     		ldr	r0, [r4]
 983 0012 20B1     		cbz	r0, .L89
 984 0014 0023     		movs	r3, #0
 985 0016 2360     		str	r3, [r4]
 986 0018 2946     		mov	r1, r5
 987 001a FFF7FEFF 		bl	chSchWakeupS
 988              	.L89:
 989 001e FFF7FEFF 		bl	__stats_stop_measure_crit_thd
 990 0022 0023     		movs	r3, #0
 991              		.syntax unified
 992              	@ 493 "/home/argroos/paparazzi/sw/ext/chibios/os/common/ext/ARM/CMSIS/Core/Include/cmsis_gcc.h" 1
 993 0024 83F31188 		MSR basepri, r3
 994              	@ 0 "" 2
 995              		.thumb
 996              		.syntax unified
 997 0028 38BD     		pop	{r3, r4, r5, pc}
 998              		.size	chThdResume, .-chThdResume
 999 002a 00BF     		.section	.text.chThdQueueObjectInit,"ax",%progbits
 1000              		.align	1
 1001              		.p2align 4,,15
 1002              		.global	chThdQueueObjectInit
 1003              		.syntax unified
 1004              		.thumb
 1005              		.thumb_func
 1006              		.fpu fpv4-sp-d16
 1007              		.type	chThdQueueObjectInit, %function
 1008              	chThdQueueObjectInit:
 1009              		@ args = 0, pretend = 0, frame = 0
 1010              		@ frame_needed = 0, uses_anonymous_args = 0
 1011              		@ link register save eliminated.
 1012 0000 C0E90000 		strd	r0, r0, [r0]
 1013 0004 7047     		bx	lr
 1014              		.size	chThdQueueObjectInit, .-chThdQueueObjectInit
 1015 0006 00BF     		.section	.text.chThdObjectDispose,"ax",%progbits
 1016              		.align	1
 1017              		.p2align 4,,15
 1018              		.global	chThdObjectDispose
 1019              		.syntax unified
 1020              		.thumb
 1021              		.thumb_func
 1022              		.fpu fpv4-sp-d16
 1023              		.type	chThdObjectDispose, %function
 1024              	chThdObjectDispose:
 1025              		@ args = 0, pretend = 0, frame = 0
ARM GAS  /tmp/ccF5Omyb.s 			page 19


 1026              		@ frame_needed = 0, uses_anonymous_args = 0
 1027              		@ link register save eliminated.
 1028 0000 7047     		bx	lr
 1029              		.size	chThdObjectDispose, .-chThdObjectDispose
 1030 0002 00BF     		.section	.text.chThdEnqueueTimeoutS,"ax",%progbits
 1031              		.align	1
 1032              		.p2align 4,,15
 1033              		.global	chThdEnqueueTimeoutS
 1034              		.syntax unified
 1035              		.thumb
 1036              		.thumb_func
 1037              		.fpu fpv4-sp-d16
 1038              		.type	chThdEnqueueTimeoutS, %function
 1039              	chThdEnqueueTimeoutS:
 1040              		@ args = 0, pretend = 0, frame = 0
 1041              		@ frame_needed = 0, uses_anonymous_args = 0
 1042              		@ link register save eliminated.
 1043 0000 084B     		ldr	r3, .L101
 1044 0002 DA68     		ldr	r2, [r3, #12]
 1045 0004 59B1     		cbz	r1, .L97
 1046 0006 10B4     		push	{r4}
 1047 0008 0346     		mov	r3, r0
 1048 000a 4468     		ldr	r4, [r0, #4]
 1049 000c C2E90004 		strd	r0, r4, [r2]
 1050 0010 2260     		str	r2, [r4]
 1051 0012 0420     		movs	r0, #4
 1052 0014 5DF8044B 		ldr	r4, [sp], #4
 1053 0018 5A60     		str	r2, [r3, #4]
 1054 001a FFF7FEBF 		b	chSchGoSleepTimeoutS
 1055              	.L97:
 1056 001e 4FF0FF30 		mov	r0, #-1
 1057 0022 7047     		bx	lr
 1058              	.L102:
 1059              		.align	2
 1060              	.L101:
 1061 0024 00000000 		.word	ch0
 1062              		.size	chThdEnqueueTimeoutS, .-chThdEnqueueTimeoutS
 1063              		.section	.text.chThdDequeueNextI,"ax",%progbits
 1064              		.align	1
 1065              		.p2align 4,,15
 1066              		.global	chThdDequeueNextI
 1067              		.syntax unified
 1068              		.thumb
 1069              		.thumb_func
 1070              		.fpu fpv4-sp-d16
 1071              		.type	chThdDequeueNextI, %function
 1072              	chThdDequeueNextI:
 1073              		@ args = 0, pretend = 0, frame = 0
 1074              		@ frame_needed = 0, uses_anonymous_args = 0
 1075              		@ link register save eliminated.
 1076 0000 0346     		mov	r3, r0
 1077 0002 0068     		ldr	r0, [r0]
 1078 0004 8342     		cmp	r3, r0
 1079 0006 05D0     		beq	.L103
 1080 0008 0268     		ldr	r2, [r0]
 1081 000a 1A60     		str	r2, [r3]
 1082 000c 5360     		str	r3, [r2, #4]
ARM GAS  /tmp/ccF5Omyb.s 			page 20


 1083 000e 8162     		str	r1, [r0, #40]
 1084 0010 FFF7FEBF 		b	chSchReadyI
 1085              	.L103:
 1086 0014 7047     		bx	lr
 1087              		.size	chThdDequeueNextI, .-chThdDequeueNextI
 1088 0016 00BF     		.section	.text.chThdDequeueAllI,"ax",%progbits
 1089              		.align	1
 1090              		.p2align 4,,15
 1091              		.global	chThdDequeueAllI
 1092              		.syntax unified
 1093              		.thumb
 1094              		.thumb_func
 1095              		.fpu fpv4-sp-d16
 1096              		.type	chThdDequeueAllI, %function
 1097              	chThdDequeueAllI:
 1098              		@ args = 0, pretend = 0, frame = 0
 1099              		@ frame_needed = 0, uses_anonymous_args = 0
 1100 0000 38B5     		push	{r3, r4, r5, lr}
 1101 0002 0446     		mov	r4, r0
 1102 0004 0068     		ldr	r0, [r0]
 1103 0006 A042     		cmp	r0, r4
 1104 0008 09D0     		beq	.L105
 1105 000a 0D46     		mov	r5, r1
 1106              	.L107:
 1107 000c 0368     		ldr	r3, [r0]
 1108 000e 2360     		str	r3, [r4]
 1109 0010 5C60     		str	r4, [r3, #4]
 1110 0012 8562     		str	r5, [r0, #40]
 1111 0014 FFF7FEFF 		bl	chSchReadyI
 1112 0018 2068     		ldr	r0, [r4]
 1113 001a A042     		cmp	r0, r4
 1114 001c F6D1     		bne	.L107
 1115              	.L105:
 1116 001e 38BD     		pop	{r3, r4, r5, pc}
 1117              		.size	chThdDequeueAllI, .-chThdDequeueAllI
 1118              		.ident	"GCC: (15:10.3-2021.07-4) 10.3.1 20210621 (release)"
ARM GAS  /tmp/ccF5Omyb.s 			page 21

