ARM GAS  /tmp/ccOeBWTj.s 			page 1


   1              		.cpu cortex-m4
   2              		.eabi_attribute 27, 1
   3              		.eabi_attribute 20, 1
   4              		.eabi_attribute 21, 1
   5              		.eabi_attribute 23, 3
   6              		.eabi_attribute 24, 1
   7              		.eabi_attribute 25, 1
   8              		.eabi_attribute 26, 1
   9              		.eabi_attribute 30, 2
  10              		.eabi_attribute 34, 1
  11              		.eabi_attribute 18, 4
  12              		.file	"chtm.c"
  13              		.text
  14              		.section	.text.chTMObjectInit,"ax",%progbits
  15              		.align	1
  16              		.p2align 4,,15
  17              		.global	chTMObjectInit
  18              		.arch armv7e-m
  19              		.syntax unified
  20              		.thumb
  21              		.thumb_func
  22              		.fpu fpv4-sp-d16
  23              		.type	chTMObjectInit, %function
  24              	chTMObjectInit:
  25              		@ args = 0, pretend = 0, frame = 0
  26              		@ frame_needed = 0, uses_anonymous_args = 0
  27              		@ link register save eliminated.
  28 0000 0022     		movs	r2, #0
  29 0002 0023     		movs	r3, #0
  30 0004 C0E90423 		strd	r2, [r0, #16]
  31 0008 0023     		movs	r3, #0
  32 000a 4FF0FF32 		mov	r2, #-1
  33 000e C0E90023 		strd	r2, r3, [r0]
  34 0012 C0E90233 		strd	r3, r3, [r0, #8]
  35 0016 7047     		bx	lr
  36              		.size	chTMObjectInit, .-chTMObjectInit
  37              		.section	.text.chTMObjectDispose,"ax",%progbits
  38              		.align	1
  39              		.p2align 4,,15
  40              		.global	chTMObjectDispose
  41              		.syntax unified
  42              		.thumb
  43              		.thumb_func
  44              		.fpu fpv4-sp-d16
  45              		.type	chTMObjectDispose, %function
  46              	chTMObjectDispose:
  47              		@ args = 0, pretend = 0, frame = 0
  48              		@ frame_needed = 0, uses_anonymous_args = 0
  49              		@ link register save eliminated.
  50 0000 7047     		bx	lr
  51              		.size	chTMObjectDispose, .-chTMObjectDispose
  52 0002 00BF     		.section	.text.chTMStartMeasurementX,"ax",%progbits
  53              		.align	1
  54              		.p2align 4,,15
  55              		.global	chTMStartMeasurementX
  56              		.syntax unified
  57              		.thumb
ARM GAS  /tmp/ccOeBWTj.s 			page 2


  58              		.thumb_func
  59              		.fpu fpv4-sp-d16
  60              		.type	chTMStartMeasurementX, %function
  61              	chTMStartMeasurementX:
  62              		@ args = 0, pretend = 0, frame = 0
  63              		@ frame_needed = 0, uses_anonymous_args = 0
  64              		@ link register save eliminated.
  65 0000 014B     		ldr	r3, .L5
  66 0002 5B68     		ldr	r3, [r3, #4]
  67 0004 8360     		str	r3, [r0, #8]
  68 0006 7047     		bx	lr
  69              	.L6:
  70              		.align	2
  71              	.L5:
  72 0008 001000E0 		.word	-536866816
  73              		.size	chTMStartMeasurementX, .-chTMStartMeasurementX
  74              		.section	.text.chTMStopMeasurementX,"ax",%progbits
  75              		.align	1
  76              		.p2align 4,,15
  77              		.global	chTMStopMeasurementX
  78              		.syntax unified
  79              		.thumb
  80              		.thumb_func
  81              		.fpu fpv4-sp-d16
  82              		.type	chTMStopMeasurementX, %function
  83              	chTMStopMeasurementX:
  84              		@ args = 0, pretend = 0, frame = 0
  85              		@ frame_needed = 0, uses_anonymous_args = 0
  86              		@ link register save eliminated.
  87 0000 0E4A     		ldr	r2, .L11
  88 0002 0F4B     		ldr	r3, .L11+4
  89 0004 8168     		ldr	r1, [r0, #8]
  90 0006 5B68     		ldr	r3, [r3, #4]
  91 0008 10B4     		push	{r4}
  92 000a 9468     		ldr	r4, [r2, #8]
  93 000c 0269     		ldr	r2, [r0, #16]
  94 000e 1B1B     		subs	r3, r3, r4
  95 0010 5B1A     		subs	r3, r3, r1
  96 0012 D218     		adds	r2, r2, r3
  97 0014 4169     		ldr	r1, [r0, #20]
  98 0016 0261     		str	r2, [r0, #16]
  99 0018 4268     		ldr	r2, [r0, #4]
 100 001a C468     		ldr	r4, [r0, #12]
 101 001c 41F10001 		adc	r1, r1, #0
 102 0020 9342     		cmp	r3, r2
 103 0022 0268     		ldr	r2, [r0]
 104 0024 88BF     		it	hi
 105 0026 4360     		strhi	r3, [r0, #4]
 106 0028 0134     		adds	r4, r4, #1
 107 002a 9342     		cmp	r3, r2
 108 002c C0E90234 		strd	r3, r4, [r0, #8]
 109 0030 4161     		str	r1, [r0, #20]
 110 0032 5DF8044B 		ldr	r4, [sp], #4
 111 0036 38BF     		it	cc
 112 0038 0360     		strcc	r3, [r0]
 113 003a 7047     		bx	lr
 114              	.L12:
ARM GAS  /tmp/ccOeBWTj.s 			page 3


 115              		.align	2
 116              	.L11:
 117 003c 00000000 		.word	ch_system
 118 0040 001000E0 		.word	-536866816
 119              		.size	chTMStopMeasurementX, .-chTMStopMeasurementX
 120              		.section	.text.chTMChainMeasurementToX,"ax",%progbits
 121              		.align	1
 122              		.p2align 4,,15
 123              		.global	chTMChainMeasurementToX
 124              		.syntax unified
 125              		.thumb
 126              		.thumb_func
 127              		.fpu fpv4-sp-d16
 128              		.type	chTMChainMeasurementToX, %function
 129              	chTMChainMeasurementToX:
 130              		@ args = 0, pretend = 0, frame = 0
 131              		@ frame_needed = 0, uses_anonymous_args = 0
 132              		@ link register save eliminated.
 133 0000 0D4B     		ldr	r3, .L17
 134 0002 5B68     		ldr	r3, [r3, #4]
 135 0004 10B4     		push	{r4}
 136 0006 8B60     		str	r3, [r1, #8]
 137 0008 D0E90342 		ldrd	r4, r2, [r0, #12]
 138 000c 8168     		ldr	r1, [r0, #8]
 139 000e 5B1A     		subs	r3, r3, r1
 140 0010 D218     		adds	r2, r2, r3
 141 0012 4169     		ldr	r1, [r0, #20]
 142 0014 0261     		str	r2, [r0, #16]
 143 0016 4268     		ldr	r2, [r0, #4]
 144 0018 41F10001 		adc	r1, r1, #0
 145 001c 9342     		cmp	r3, r2
 146 001e 0268     		ldr	r2, [r0]
 147 0020 88BF     		it	hi
 148 0022 4360     		strhi	r3, [r0, #4]
 149 0024 0134     		adds	r4, r4, #1
 150 0026 9342     		cmp	r3, r2
 151 0028 C0E90234 		strd	r3, r4, [r0, #8]
 152 002c 4161     		str	r1, [r0, #20]
 153 002e 5DF8044B 		ldr	r4, [sp], #4
 154 0032 38BF     		it	cc
 155 0034 0360     		strcc	r3, [r0]
 156 0036 7047     		bx	lr
 157              	.L18:
 158              		.align	2
 159              	.L17:
 160 0038 001000E0 		.word	-536866816
 161              		.size	chTMChainMeasurementToX, .-chTMChainMeasurementToX
 162              		.ident	"GCC: (15:10.3-2021.07-4) 10.3.1 20210621 (release)"
ARM GAS  /tmp/ccOeBWTj.s 			page 4

