ARM GAS  /tmp/ccbYyTBy.s 			page 1


   1              		.cpu cortex-m4
   2              		.eabi_attribute 27, 1
   3              		.eabi_attribute 20, 1
   4              		.eabi_attribute 21, 1
   5              		.eabi_attribute 23, 3
   6              		.eabi_attribute 24, 1
   7              		.eabi_attribute 25, 1
   8              		.eabi_attribute 26, 1
   9              		.eabi_attribute 30, 2
  10              		.eabi_attribute 34, 1
  11              		.eabi_attribute 18, 4
  12              		.file	"chvt.c"
  13              		.text
  14              		.section	.text.chVTObjectInit,"ax",%progbits
  15              		.align	1
  16              		.p2align 4,,15
  17              		.global	chVTObjectInit
  18              		.arch armv7e-m
  19              		.syntax unified
  20              		.thumb
  21              		.thumb_func
  22              		.fpu fpv4-sp-d16
  23              		.type	chVTObjectInit, %function
  24              	chVTObjectInit:
  25              		@ args = 0, pretend = 0, frame = 0
  26              		@ frame_needed = 0, uses_anonymous_args = 0
  27              		@ link register save eliminated.
  28 0000 0023     		movs	r3, #0
  29 0002 0360     		str	r3, [r0]
  30 0004 7047     		bx	lr
  31              		.size	chVTObjectInit, .-chVTObjectInit
  32 0006 00BF     		.section	.text.chVTObjectDispose,"ax",%progbits
  33              		.align	1
  34              		.p2align 4,,15
  35              		.global	chVTObjectDispose
  36              		.syntax unified
  37              		.thumb
  38              		.thumb_func
  39              		.fpu fpv4-sp-d16
  40              		.type	chVTObjectDispose, %function
  41              	chVTObjectDispose:
  42              		@ args = 0, pretend = 0, frame = 0
  43              		@ frame_needed = 0, uses_anonymous_args = 0
  44              		@ link register save eliminated.
  45 0000 7047     		bx	lr
  46              		.size	chVTObjectDispose, .-chVTObjectDispose
  47 0002 00BF     		.section	.text.chVTDoSetI,"ax",%progbits
  48              		.align	1
  49              		.p2align 4,,15
  50              		.global	chVTDoSetI
  51              		.syntax unified
  52              		.thumb
  53              		.thumb_func
  54              		.fpu fpv4-sp-d16
  55              		.type	chVTDoSetI, %function
  56              	chVTDoSetI:
  57              		@ args = 0, pretend = 0, frame = 0
ARM GAS  /tmp/ccbYyTBy.s 			page 2


  58              		@ frame_needed = 0, uses_anonymous_args = 0
  59              		@ link register save eliminated.
  60 0000 30B4     		push	{r4, r5}
  61 0002 0E4C     		ldr	r4, .L9
  62 0004 C260     		str	r2, [r0, #12]
  63 0006 0025     		movs	r5, #0
  64 0008 C0E90435 		strd	r3, r5, [r0, #16]
  65 000c 2369     		ldr	r3, [r4, #16]
  66 000e 9A68     		ldr	r2, [r3, #8]
  67 0010 9142     		cmp	r1, r2
  68 0012 04D9     		bls	.L5
  69              	.L6:
  70 0014 1B68     		ldr	r3, [r3]
  71 0016 891A     		subs	r1, r1, r2
  72 0018 9A68     		ldr	r2, [r3, #8]
  73 001a 8A42     		cmp	r2, r1
  74 001c FAD3     		bcc	.L6
  75              	.L5:
  76 001e 5A68     		ldr	r2, [r3, #4]
  77 0020 8160     		str	r1, [r0, #8]
  78 0022 C0E90032 		strd	r3, r2, [r0]
  79 0026 1060     		str	r0, [r2]
  80 0028 9A68     		ldr	r2, [r3, #8]
  81 002a 5860     		str	r0, [r3, #4]
  82 002c 511A     		subs	r1, r2, r1
  83 002e 4FF0FF32 		mov	r2, #-1
  84 0032 9960     		str	r1, [r3, #8]
  85 0034 A261     		str	r2, [r4, #24]
  86 0036 30BC     		pop	{r4, r5}
  87 0038 7047     		bx	lr
  88              	.L10:
  89 003a 00BF     		.align	2
  90              	.L9:
  91 003c 00000000 		.word	ch0
  92              		.size	chVTDoSetI, .-chVTDoSetI
  93              		.section	.text.chVTDoSetContinuousI,"ax",%progbits
  94              		.align	1
  95              		.p2align 4,,15
  96              		.global	chVTDoSetContinuousI
  97              		.syntax unified
  98              		.thumb
  99              		.thumb_func
 100              		.fpu fpv4-sp-d16
 101              		.type	chVTDoSetContinuousI, %function
 102              	chVTDoSetContinuousI:
 103              		@ args = 0, pretend = 0, frame = 0
 104              		@ frame_needed = 0, uses_anonymous_args = 0
 105              		@ link register save eliminated.
 106 0000 10B4     		push	{r4}
 107 0002 0E4C     		ldr	r4, .L16
 108 0004 4161     		str	r1, [r0, #20]
 109 0006 C0E90323 		strd	r2, r3, [r0, #12]
 110 000a 2369     		ldr	r3, [r4, #16]
 111 000c 9A68     		ldr	r2, [r3, #8]
 112 000e 9142     		cmp	r1, r2
 113 0010 04D9     		bls	.L12
 114              	.L13:
ARM GAS  /tmp/ccbYyTBy.s 			page 3


 115 0012 1B68     		ldr	r3, [r3]
 116 0014 891A     		subs	r1, r1, r2
 117 0016 9A68     		ldr	r2, [r3, #8]
 118 0018 8A42     		cmp	r2, r1
 119 001a FAD3     		bcc	.L13
 120              	.L12:
 121 001c 5A68     		ldr	r2, [r3, #4]
 122 001e 8160     		str	r1, [r0, #8]
 123 0020 C0E90032 		strd	r3, r2, [r0]
 124 0024 1060     		str	r0, [r2]
 125 0026 9A68     		ldr	r2, [r3, #8]
 126 0028 5860     		str	r0, [r3, #4]
 127 002a 511A     		subs	r1, r2, r1
 128 002c 4FF0FF32 		mov	r2, #-1
 129 0030 9960     		str	r1, [r3, #8]
 130 0032 A261     		str	r2, [r4, #24]
 131 0034 5DF8044B 		ldr	r4, [sp], #4
 132 0038 7047     		bx	lr
 133              	.L17:
 134 003a 00BF     		.align	2
 135              	.L16:
 136 003c 00000000 		.word	ch0
 137              		.size	chVTDoSetContinuousI, .-chVTDoSetContinuousI
 138              		.section	.text.chVTDoResetI,"ax",%progbits
 139              		.align	1
 140              		.p2align 4,,15
 141              		.global	chVTDoResetI
 142              		.syntax unified
 143              		.thumb
 144              		.thumb_func
 145              		.fpu fpv4-sp-d16
 146              		.type	chVTDoResetI, %function
 147              	chVTDoResetI:
 148              		@ args = 0, pretend = 0, frame = 0
 149              		@ frame_needed = 0, uses_anonymous_args = 0
 150              		@ link register save eliminated.
 151 0000 0368     		ldr	r3, [r0]
 152 0002 8168     		ldr	r1, [r0, #8]
 153 0004 9A68     		ldr	r2, [r3, #8]
 154 0006 0A44     		add	r2, r2, r1
 155 0008 4168     		ldr	r1, [r0, #4]
 156 000a 10B4     		push	{r4}
 157 000c 054C     		ldr	r4, .L20
 158 000e 9A60     		str	r2, [r3, #8]
 159 0010 0B60     		str	r3, [r1]
 160 0012 0022     		movs	r2, #0
 161 0014 5960     		str	r1, [r3, #4]
 162 0016 4FF0FF33 		mov	r3, #-1
 163 001a 0260     		str	r2, [r0]
 164 001c A361     		str	r3, [r4, #24]
 165 001e 5DF8044B 		ldr	r4, [sp], #4
 166 0022 7047     		bx	lr
 167              	.L21:
 168              		.align	2
 169              	.L20:
 170 0024 00000000 		.word	ch0
 171              		.size	chVTDoResetI, .-chVTDoResetI
ARM GAS  /tmp/ccbYyTBy.s 			page 4


 172              		.section	.text.chVTGetRemainingIntervalI,"ax",%progbits
 173              		.align	1
 174              		.p2align 4,,15
 175              		.global	chVTGetRemainingIntervalI
 176              		.syntax unified
 177              		.thumb
 178              		.thumb_func
 179              		.fpu fpv4-sp-d16
 180              		.type	chVTGetRemainingIntervalI, %function
 181              	chVTGetRemainingIntervalI:
 182              		@ args = 0, pretend = 0, frame = 0
 183              		@ frame_needed = 0, uses_anonymous_args = 0
 184              		@ link register save eliminated.
 185 0000 10B4     		push	{r4}
 186 0002 0A4C     		ldr	r4, .L29
 187 0004 0146     		mov	r1, r0
 188 0006 54F8103F 		ldr	r3, [r4, #16]!
 189 000a 0020     		movs	r0, #0
 190 000c 02E0     		b	.L24
 191              	.L28:
 192 000e 1B68     		ldr	r3, [r3]
 193 0010 A342     		cmp	r3, r4
 194 0012 06D0     		beq	.L27
 195              	.L24:
 196 0014 9A68     		ldr	r2, [r3, #8]
 197 0016 8B42     		cmp	r3, r1
 198 0018 1044     		add	r0, r0, r2
 199 001a F8D1     		bne	.L28
 200 001c 5DF8044B 		ldr	r4, [sp], #4
 201 0020 7047     		bx	lr
 202              	.L27:
 203 0022 4FF0FF30 		mov	r0, #-1
 204 0026 5DF8044B 		ldr	r4, [sp], #4
 205 002a 7047     		bx	lr
 206              	.L30:
 207              		.align	2
 208              	.L29:
 209 002c 00000000 		.word	ch0
 210              		.size	chVTGetRemainingIntervalI, .-chVTGetRemainingIntervalI
 211              		.section	.text.chVTDoTickI,"ax",%progbits
 212              		.align	1
 213              		.p2align 4,,15
 214              		.global	chVTDoTickI
 215              		.syntax unified
 216              		.thumb
 217              		.thumb_func
 218              		.fpu fpv4-sp-d16
 219              		.type	chVTDoTickI, %function
 220              	chVTDoTickI:
 221              		@ args = 0, pretend = 0, frame = 0
 222              		@ frame_needed = 0, uses_anonymous_args = 0
 223 0000 2DE9F041 		push	{r4, r5, r6, r7, r8, lr}
 224 0004 1F4E     		ldr	r6, .L42
 225 0006 3346     		mov	r3, r6
 226 0008 F269     		ldr	r2, [r6, #28]
 227 000a 53F8104F 		ldr	r4, [r3, #16]!
 228 000e 0132     		adds	r2, r2, #1
ARM GAS  /tmp/ccbYyTBy.s 			page 5


 229 0010 9C42     		cmp	r4, r3
 230 0012 F261     		str	r2, [r6, #28]
 231 0014 1DD0     		beq	.L31
 232 0016 A568     		ldr	r5, [r4, #8]
 233 0018 013D     		subs	r5, r5, #1
 234 001a 3027     		movs	r7, #48
 235 001c A560     		str	r5, [r4, #8]
 236 001e 4FF0FF38 		mov	r8, #-1
 237              	.L35:
 238 0022 B5B9     		cbnz	r5, .L31
 239              	.L38:
 240 0024 D4E90032 		ldrd	r3, r2, [r4]
 241 0028 1360     		str	r3, [r2]
 242 002a 5A60     		str	r2, [r3, #4]
 243 002c 2560     		str	r5, [r4]
 244 002e FFF7FEFF 		bl	__stats_stop_measure_crit_isr
 245              		.syntax unified
 246              	@ 493 "/home/argroos/paparazzi/sw/ext/chibios/os/common/ext/ARM/CMSIS/Core/Include/cmsis_gcc.h" 1
 247 0032 85F31188 		MSR basepri, r5
 248              	@ 0 "" 2
 249              		.thumb
 250              		.syntax unified
 251 0036 D4E90331 		ldrd	r3, r1, [r4, #12]
 252 003a 2046     		mov	r0, r4
 253 003c 9847     		blx	r3
 254              		.syntax unified
 255              	@ 493 "/home/argroos/paparazzi/sw/ext/chibios/os/common/ext/ARM/CMSIS/Core/Include/cmsis_gcc.h" 1
 256 003e 87F31188 		MSR basepri, r7
 257              	@ 0 "" 2
 258              		.thumb
 259              		.syntax unified
 260 0042 FFF7FEFF 		bl	__stats_start_measure_crit_isr
 261 0046 6369     		ldr	r3, [r4, #20]
 262 0048 2BB9     		cbnz	r3, .L34
 263 004a 3469     		ldr	r4, [r6, #16]
 264 004c A568     		ldr	r5, [r4, #8]
 265 004e 002D     		cmp	r5, #0
 266 0050 E8D0     		beq	.L38
 267              	.L31:
 268 0052 BDE8F081 		pop	{r4, r5, r6, r7, r8, pc}
 269              	.L34:
 270 0056 3269     		ldr	r2, [r6, #16]
 271 0058 9168     		ldr	r1, [r2, #8]
 272 005a 8B42     		cmp	r3, r1
 273 005c 04D9     		bls	.L36
 274              	.L37:
 275 005e 1268     		ldr	r2, [r2]
 276 0060 5B1A     		subs	r3, r3, r1
 277 0062 9168     		ldr	r1, [r2, #8]
 278 0064 9942     		cmp	r1, r3
 279 0066 FAD3     		bcc	.L37
 280              	.L36:
 281 0068 5168     		ldr	r1, [r2, #4]
 282 006a A360     		str	r3, [r4, #8]
 283 006c 6160     		str	r1, [r4, #4]
 284 006e 2260     		str	r2, [r4]
 285 0070 0C60     		str	r4, [r1]
ARM GAS  /tmp/ccbYyTBy.s 			page 6


 286 0072 9168     		ldr	r1, [r2, #8]
 287 0074 5460     		str	r4, [r2, #4]
 288 0076 CB1A     		subs	r3, r1, r3
 289 0078 3469     		ldr	r4, [r6, #16]
 290 007a 9360     		str	r3, [r2, #8]
 291 007c C6F81880 		str	r8, [r6, #24]
 292 0080 A568     		ldr	r5, [r4, #8]
 293 0082 CEE7     		b	.L35
 294              	.L43:
 295              		.align	2
 296              	.L42:
 297 0084 00000000 		.word	ch0
 298              		.size	chVTDoTickI, .-chVTDoTickI
 299              		.section	.text.chVTGetTimeStampI,"ax",%progbits
 300              		.align	1
 301              		.p2align 4,,15
 302              		.global	chVTGetTimeStampI
 303              		.syntax unified
 304              		.thumb
 305              		.thumb_func
 306              		.fpu fpv4-sp-d16
 307              		.type	chVTGetTimeStampI, %function
 308              	chVTGetTimeStampI:
 309              		@ args = 0, pretend = 0, frame = 0
 310              		@ frame_needed = 0, uses_anonymous_args = 0
 311              		@ link register save eliminated.
 312 0000 064A     		ldr	r2, .L46
 313 0002 30B4     		push	{r4, r5}
 314 0004 D369     		ldr	r3, [r2, #28]
 315 0006 D2E90845 		ldrd	r4, [r2, #32]
 316 000a 1B1B     		subs	r3, r3, r4
 317 000c 1819     		adds	r0, r3, r4
 318 000e 45F10001 		adc	r1, r5, #0
 319 0012 C2E90801 		strd	r0, [r2, #32]
 320 0016 30BC     		pop	{r4, r5}
 321 0018 7047     		bx	lr
 322              	.L47:
 323 001a 00BF     		.align	2
 324              	.L46:
 325 001c 00000000 		.word	ch0
 326              		.size	chVTGetTimeStampI, .-chVTGetTimeStampI
 327              		.section	.text.chVTResetTimeStampI,"ax",%progbits
 328              		.align	1
 329              		.p2align 4,,15
 330              		.global	chVTResetTimeStampI
 331              		.syntax unified
 332              		.thumb
 333              		.thumb_func
 334              		.fpu fpv4-sp-d16
 335              		.type	chVTResetTimeStampI, %function
 336              	chVTResetTimeStampI:
 337              		@ args = 0, pretend = 0, frame = 0
 338              		@ frame_needed = 0, uses_anonymous_args = 0
 339              		@ link register save eliminated.
 340 0000 0349     		ldr	r1, .L49
 341 0002 C869     		ldr	r0, [r1, #28]
 342 0004 0023     		movs	r3, #0
ARM GAS  /tmp/ccbYyTBy.s 			page 7


 343 0006 0246     		mov	r2, r0
 344 0008 C1E90823 		strd	r2, [r1, #32]
 345 000c 7047     		bx	lr
 346              	.L50:
 347 000e 00BF     		.align	2
 348              	.L49:
 349 0010 00000000 		.word	ch0
 350              		.size	chVTResetTimeStampI, .-chVTResetTimeStampI
 351              		.ident	"GCC: (15:10.3-2021.07-4) 10.3.1 20210621 (release)"
ARM GAS  /tmp/ccbYyTBy.s 			page 8

