ARM GAS  /tmp/cceOGjd5.s 			page 1


   1              		.cpu cortex-m4
   2              		.eabi_attribute 27, 1
   3              		.eabi_attribute 20, 1
   4              		.eabi_attribute 21, 1
   5              		.eabi_attribute 23, 3
   6              		.eabi_attribute 24, 1
   7              		.eabi_attribute 25, 1
   8              		.eabi_attribute 26, 1
   9              		.eabi_attribute 30, 2
  10              		.eabi_attribute 34, 1
  11              		.eabi_attribute 18, 4
  12              		.file	"common_flight_plan.c"
  13              		.text
  14              		.section	.text.nav_init_block,"ax",%progbits
  15              		.align	1
  16              		.p2align 4,,15
  17              		.global	nav_init_block
  18              		.arch armv7e-m
  19              		.syntax unified
  20              		.thumb
  21              		.thumb_func
  22              		.fpu fpv4-sp-d16
  23              		.type	nav_init_block, %function
  24              	nav_init_block:
  25              		@ args = 0, pretend = 0, frame = 0
  26              		@ frame_needed = 0, uses_anonymous_args = 0
  27              		@ link register save eliminated.
  28 0000 064B     		ldr	r3, .L4
  29 0002 0749     		ldr	r1, .L4+4
  30 0004 1A78     		ldrb	r2, [r3]	@ zero_extendqisi2
  31 0006 0B2A     		cmp	r2, #11
  32 0008 84BF     		itt	hi
  33 000a 0B22     		movhi	r2, #11
  34 000c 1A70     		strbhi	r2, [r3]
  35 000e 054A     		ldr	r2, .L4+8
  36 0010 0023     		movs	r3, #0
  37 0012 0B70     		strb	r3, [r1]
  38 0014 1380     		strh	r3, [r2]	@ movhi
  39 0016 FFF7FEBF 		b	nav_init_stage
  40              	.L5:
  41 001a 00BF     		.align	2
  42              	.L4:
  43 001c 00000000 		.word	.LANCHOR0
  44 0020 00000000 		.word	.LANCHOR1
  45 0024 00000000 		.word	.LANCHOR2
  46              		.size	nav_init_block, .-nav_init_block
  47              		.section	.text.nav_goto_block,"ax",%progbits
  48              		.align	1
  49              		.p2align 4,,15
  50              		.global	nav_goto_block
  51              		.syntax unified
  52              		.thumb
  53              		.thumb_func
  54              		.fpu fpv4-sp-d16
  55              		.type	nav_goto_block, %function
  56              	nav_goto_block:
  57              		@ args = 0, pretend = 0, frame = 0
ARM GAS  /tmp/cceOGjd5.s 			page 2


  58              		@ frame_needed = 0, uses_anonymous_args = 0
  59              		@ link register save eliminated.
  60 0000 10B4     		push	{r4}
  61 0002 0C4B     		ldr	r3, .L13
  62 0004 0C4A     		ldr	r2, .L13+4
  63 0006 1978     		ldrb	r1, [r3]	@ zero_extendqisi2
  64 0008 8142     		cmp	r1, r0
  65 000a 06D0     		beq	.L7
  66 000c 0B4C     		ldr	r4, .L13+8
  67 000e 92F800C0 		ldrb	ip, [r2]	@ zero_extendqisi2
  68 0012 2170     		strb	r1, [r4]
  69 0014 0A49     		ldr	r1, .L13+12
  70 0016 81F800C0 		strb	ip, [r1]
  71              	.L7:
  72 001a 0B28     		cmp	r0, #11
  73 001c 86BF     		itte	hi
  74 001e 0B21     		movhi	r1, #11
  75 0020 1970     		strbhi	r1, [r3]
  76 0022 1870     		strbls	r0, [r3]
  77 0024 0023     		movs	r3, #0
  78 0026 0749     		ldr	r1, .L13+16
  79 0028 1370     		strb	r3, [r2]
  80 002a 5DF8044B 		ldr	r4, [sp], #4
  81 002e 0B80     		strh	r3, [r1]	@ movhi
  82 0030 FFF7FEBF 		b	nav_init_stage
  83              	.L14:
  84              		.align	2
  85              	.L13:
  86 0034 00000000 		.word	.LANCHOR0
  87 0038 00000000 		.word	.LANCHOR1
  88 003c 00000000 		.word	.LANCHOR3
  89 0040 00000000 		.word	.LANCHOR4
  90 0044 00000000 		.word	.LANCHOR2
  91              		.size	nav_goto_block, .-nav_goto_block
  92              		.global	last_wp
  93              		.global	last_stage
  94              		.global	last_block
  95              		.global	nav_block
  96              		.global	nav_stage
  97              		.global	block_time
  98              		.global	stage_time
  99              		.section	.bss.block_time,"aw",%nobits
 100              		.align	1
 101              		.set	.LANCHOR2,. + 0
 102              		.type	block_time, %object
 103              		.size	block_time, 2
 104              	block_time:
 105 0000 0000     		.space	2
 106              		.section	.bss.last_block,"aw",%nobits
 107              		.set	.LANCHOR3,. + 0
 108              		.type	last_block, %object
 109              		.size	last_block, 1
 110              	last_block:
 111 0000 00       		.space	1
 112              		.section	.bss.last_stage,"aw",%nobits
 113              		.set	.LANCHOR4,. + 0
 114              		.type	last_stage, %object
ARM GAS  /tmp/cceOGjd5.s 			page 3


 115              		.size	last_stage, 1
 116              	last_stage:
 117 0000 00       		.space	1
 118              		.section	.bss.last_wp,"aw",%nobits
 119              		.type	last_wp, %object
 120              		.size	last_wp, 1
 121              	last_wp:
 122 0000 00       		.space	1
 123              		.section	.bss.nav_block,"aw",%nobits
 124              		.set	.LANCHOR0,. + 0
 125              		.type	nav_block, %object
 126              		.size	nav_block, 1
 127              	nav_block:
 128 0000 00       		.space	1
 129              		.section	.bss.nav_stage,"aw",%nobits
 130              		.set	.LANCHOR1,. + 0
 131              		.type	nav_stage, %object
 132              		.size	nav_stage, 1
 133              	nav_stage:
 134 0000 00       		.space	1
 135              		.section	.bss.stage_time,"aw",%nobits
 136              		.align	1
 137              		.type	stage_time, %object
 138              		.size	stage_time, 2
 139              	stage_time:
 140 0000 0000     		.space	2
 141              		.ident	"GCC: (15:10.3-2021.07-4) 10.3.1 20210621 (release)"
ARM GAS  /tmp/cceOGjd5.s 			page 4


DEFINED SYMBOLS
                            *ABS*:0000000000000000 common_flight_plan.c
     /tmp/cceOGjd5.s:15     .text.nav_init_block:0000000000000000 $t
     /tmp/cceOGjd5.s:24     .text.nav_init_block:0000000000000000 nav_init_block
     /tmp/cceOGjd5.s:43     .text.nav_init_block:000000000000001c $d
     /tmp/cceOGjd5.s:48     .text.nav_goto_block:0000000000000000 $t
     /tmp/cceOGjd5.s:56     .text.nav_goto_block:0000000000000000 nav_goto_block
     /tmp/cceOGjd5.s:86     .text.nav_goto_block:0000000000000034 $d
     /tmp/cceOGjd5.s:121    .bss.last_wp:0000000000000000 last_wp
     /tmp/cceOGjd5.s:116    .bss.last_stage:0000000000000000 last_stage
     /tmp/cceOGjd5.s:110    .bss.last_block:0000000000000000 last_block
     /tmp/cceOGjd5.s:127    .bss.nav_block:0000000000000000 nav_block
     /tmp/cceOGjd5.s:133    .bss.nav_stage:0000000000000000 nav_stage
     /tmp/cceOGjd5.s:104    .bss.block_time:0000000000000000 block_time
     /tmp/cceOGjd5.s:139    .bss.stage_time:0000000000000000 stage_time
     /tmp/cceOGjd5.s:100    .bss.block_time:0000000000000000 $d
     /tmp/cceOGjd5.s:111    .bss.last_block:0000000000000000 $d
     /tmp/cceOGjd5.s:117    .bss.last_stage:0000000000000000 $d
     /tmp/cceOGjd5.s:122    .bss.last_wp:0000000000000000 $d
     /tmp/cceOGjd5.s:128    .bss.nav_block:0000000000000000 $d
     /tmp/cceOGjd5.s:134    .bss.nav_stage:0000000000000000 $d
     /tmp/cceOGjd5.s:136    .bss.stage_time:0000000000000000 $d

UNDEFINED SYMBOLS
nav_init_stage
