ARM GAS  /tmp/ccSsNdrj.s 			page 1


   1              		.cpu cortex-m4
   2              		.eabi_attribute 27, 1
   3              		.eabi_attribute 20, 1
   4              		.eabi_attribute 21, 1
   5              		.eabi_attribute 23, 3
   6              		.eabi_attribute 24, 1
   7              		.eabi_attribute 25, 1
   8              		.eabi_attribute 26, 1
   9              		.eabi_attribute 30, 2
  10              		.eabi_attribute 34, 1
  11              		.eabi_attribute 18, 4
  12              		.file	"datalink.c"
  13              		.text
  14              		.section	.rodata.pprzlink_msg_v2_send_PONG.constprop.0.str1.4,"aMS",%progbits,1
  15              		.align	2
  16              	.LC0:
  17 0000 504F4E47 		.ascii	"PONG\000"
  17      00
  18              		.section	.text.pprzlink_msg_v2_send_PONG.constprop.0,"ax",%progbits
  19              		.align	1
  20              		.p2align 4,,15
  21              		.arch armv7e-m
  22              		.syntax unified
  23              		.thumb
  24              		.thumb_func
  25              		.fpu fpv4-sp-d16
  26              		.type	pprzlink_msg_v2_send_PONG.constprop.0, %function
  27              	pprzlink_msg_v2_send_PONG.constprop.0:
  28              		@ args = 0, pretend = 0, frame = 8
  29              		@ frame_needed = 0, uses_anonymous_args = 0
  30 0000 70B5     		push	{r4, r5, r6, lr}
  31 0002 4368     		ldr	r3, [r0, #4]
  32 0004 84B0     		sub	sp, sp, #16
  33 0006 0025     		movs	r5, #0
  34 0008 0446     		mov	r4, r0
  35 000a 1B68     		ldr	r3, [r3]
  36 000c 0395     		str	r5, [sp, #12]
  37 000e 0421     		movs	r1, #4
  38 0010 9847     		blx	r3
  39 0012 6368     		ldr	r3, [r4, #4]
  40 0014 82B2     		uxth	r2, r0
  41 0016 5B68     		ldr	r3, [r3, #4]
  42 0018 0646     		mov	r6, r0
  43 001a 03A9     		add	r1, sp, #12
  44 001c 2046     		mov	r0, r4
  45 001e 9847     		blx	r3
  46 0020 6368     		ldr	r3, [r4, #4]
  47 0022 0028     		cmp	r0, #0
  48 0024 3DD0     		beq	.L2
  49 0026 3146     		mov	r1, r6
  50 0028 2046     		mov	r0, r4
  51 002a DB69     		ldr	r3, [r3, #28]
  52 002c 9847     		blx	r3
  53 002e 6368     		ldr	r3, [r4, #4]
  54 0030 0399     		ldr	r1, [sp, #12]
  55 0032 1B69     		ldr	r3, [r3, #16]
  56 0034 2046     		mov	r0, r4
ARM GAS  /tmp/ccSsNdrj.s 			page 2


  57 0036 0422     		movs	r2, #4
  58 0038 9847     		blx	r3
  59 003a 0123     		movs	r3, #1
  60 003c 6268     		ldr	r2, [r4, #4]
  61 003e 0399     		ldr	r1, [sp, #12]
  62 0040 CDE90043 		strd	r4, r3, [sp]
  63 0044 2046     		mov	r0, r4
  64 0046 9668     		ldr	r6, [r2, #8]
  65 0048 2B46     		mov	r3, r5
  66 004a 0222     		movs	r2, #2
  67 004c B047     		blx	r6
  68 004e 6378     		ldrb	r3, [r4, #1]	@ zero_extendqisi2
  69 0050 6268     		ldr	r2, [r4, #4]
  70 0052 0399     		ldr	r1, [sp, #12]
  71 0054 CDE90035 		strd	r3, r5, [sp]
  72 0058 2046     		mov	r0, r4
  73 005a D668     		ldr	r6, [r2, #12]
  74 005c 2B46     		mov	r3, r5
  75 005e 0222     		movs	r2, #2
  76 0060 B047     		blx	r6
  77 0062 A378     		ldrb	r3, [r4, #2]	@ zero_extendqisi2
  78 0064 6268     		ldr	r2, [r4, #4]
  79 0066 0399     		ldr	r1, [sp, #12]
  80 0068 1B01     		lsls	r3, r3, #4
  81 006a 43F00103 		orr	r3, r3, #1
  82 006e DBB2     		uxtb	r3, r3
  83 0070 CDE90035 		strd	r3, r5, [sp]
  84 0074 2046     		mov	r0, r4
  85 0076 D668     		ldr	r6, [r2, #12]
  86 0078 2B46     		mov	r3, r5
  87 007a 0222     		movs	r2, #2
  88 007c B047     		blx	r6
  89 007e 0B49     		ldr	r1, .L6
  90 0080 6368     		ldr	r3, [r4, #4]
  91 0082 0322     		movs	r2, #3
  92 0084 CDE90021 		strd	r2, r1, [sp]
  93 0088 2046     		mov	r0, r4
  94 008a 0399     		ldr	r1, [sp, #12]
  95 008c DE68     		ldr	r6, [r3, #12]
  96 008e 0222     		movs	r2, #2
  97 0090 2B46     		mov	r3, r5
  98 0092 B047     		blx	r6
  99 0094 6368     		ldr	r3, [r4, #4]
 100 0096 0399     		ldr	r1, [sp, #12]
 101 0098 5B69     		ldr	r3, [r3, #20]
 102 009a 2046     		mov	r0, r4
 103 009c 9847     		blx	r3
 104 009e 04B0     		add	sp, sp, #16
 105              		@ sp needed
 106 00a0 70BD     		pop	{r4, r5, r6, pc}
 107              	.L2:
 108 00a2 9B69     		ldr	r3, [r3, #24]
 109 00a4 2046     		mov	r0, r4
 110 00a6 9847     		blx	r3
 111 00a8 04B0     		add	sp, sp, #16
 112              		@ sp needed
 113 00aa 70BD     		pop	{r4, r5, r6, pc}
ARM GAS  /tmp/ccSsNdrj.s 			page 3


 114              	.L7:
 115              		.align	2
 116              	.L6:
 117 00ac 00000000 		.word	.LC0
 118              		.size	pprzlink_msg_v2_send_PONG.constprop.0, .-pprzlink_msg_v2_send_PONG.constprop.0
 119              		.section	.text.datalink_init,"ax",%progbits
 120              		.align	1
 121              		.p2align 4,,15
 122              		.global	datalink_init
 123              		.syntax unified
 124              		.thumb
 125              		.thumb_func
 126              		.fpu fpv4-sp-d16
 127              		.type	datalink_init, %function
 128              	datalink_init:
 129              		@ args = 0, pretend = 0, frame = 0
 130              		@ frame_needed = 0, uses_anonymous_args = 0
 131              		@ link register save eliminated.
 132 0000 0348     		ldr	r0, .L9
 133 0002 0449     		ldr	r1, .L9+4
 134 0004 044A     		ldr	r2, .L9+8
 135 0006 0023     		movs	r3, #0
 136 0008 0370     		strb	r3, [r0]
 137 000a 0B80     		strh	r3, [r1]	@ movhi
 138 000c 1380     		strh	r3, [r2]	@ movhi
 139 000e 7047     		bx	lr
 140              	.L10:
 141              		.align	2
 142              	.L9:
 143 0010 00000000 		.word	.LANCHOR0
 144 0014 00000000 		.word	.LANCHOR1
 145 0018 00000000 		.word	.LANCHOR2
 146              		.size	datalink_init, .-datalink_init
 147              		.section	.text.datalink_periodic,"ax",%progbits
 148              		.align	1
 149              		.p2align 4,,15
 150              		.global	datalink_periodic
 151              		.syntax unified
 152              		.thumb
 153              		.thumb_func
 154              		.fpu fpv4-sp-d16
 155              		.type	datalink_periodic, %function
 156              	datalink_periodic:
 157              		@ args = 0, pretend = 0, frame = 0
 158              		@ frame_needed = 0, uses_anonymous_args = 0
 159              		@ link register save eliminated.
 160 0000 024A     		ldr	r2, .L12
 161 0002 1388     		ldrh	r3, [r2]
 162 0004 0133     		adds	r3, r3, #1
 163 0006 1380     		strh	r3, [r2]	@ movhi
 164 0008 7047     		bx	lr
 165              	.L13:
 166 000a 00BF     		.align	2
 167              	.L12:
 168 000c 00000000 		.word	.LANCHOR1
 169              		.size	datalink_periodic, .-datalink_periodic
 170              		.section	.text.datalink_parse_PING,"ax",%progbits
ARM GAS  /tmp/ccSsNdrj.s 			page 4


 171              		.align	1
 172              		.p2align 4,,15
 173              		.global	datalink_parse_PING
 174              		.syntax unified
 175              		.thumb
 176              		.thumb_func
 177              		.fpu fpv4-sp-d16
 178              		.type	datalink_parse_PING, %function
 179              	datalink_parse_PING:
 180              		@ args = 0, pretend = 0, frame = 16
 181              		@ frame_needed = 0, uses_anonymous_args = 0
 182 0000 00B5     		push	{lr}
 183 0002 85B0     		sub	sp, sp, #20
 184 0004 CDE90210 		strd	r1, r0, [sp, #8]
 185 0008 1278     		ldrb	r2, [r2]	@ zero_extendqisi2
 186 000a 8DF80520 		strb	r2, [sp, #5]
 187 000e 4FF0030C 		mov	ip, #3
 188 0012 0023     		movs	r3, #0
 189 0014 01A8     		add	r0, sp, #4
 190 0016 8DF804C0 		strb	ip, [sp, #4]
 191 001a 8DF80630 		strb	r3, [sp, #6]
 192 001e FFF7FEFF 		bl	pprzlink_msg_v2_send_PONG.constprop.0
 193 0022 05B0     		add	sp, sp, #20
 194              		@ sp needed
 195 0024 5DF804FB 		ldr	pc, [sp], #4
 196              		.size	datalink_parse_PING, .-datalink_parse_PING
 197              		.section	.text.dl_parse_msg,"ax",%progbits
 198              		.align	1
 199              		.p2align 4,,15
 200              		.weak	dl_parse_msg
 201              		.syntax unified
 202              		.thumb
 203              		.thumb_func
 204              		.fpu fpv4-sp-d16
 205              		.type	dl_parse_msg, %function
 206              	dl_parse_msg:
 207              		@ args = 0, pretend = 0, frame = 24
 208              		@ frame_needed = 0, uses_anonymous_args = 0
 209 0000 9378     		ldrb	r3, [r2, #2]	@ zero_extendqisi2
 210 0002 03F00F03 		and	r3, r3, #15
 211 0006 022B     		cmp	r3, #2
 212 0008 00D0     		beq	.L34
 213 000a 7047     		bx	lr
 214              	.L34:
 215 000c 00B5     		push	{lr}
 216 000e D378     		ldrb	r3, [r2, #3]	@ zero_extendqisi2
 217 0010 102B     		cmp	r3, #16
 218 0012 87B0     		sub	sp, sp, #28
 219 0014 20D8     		bhi	.L18
 220 0016 012B     		cmp	r3, #1
 221 0018 1BD9     		bls	.L16
 222 001a 023B     		subs	r3, r3, #2
 223 001c 0E2B     		cmp	r3, #14
 224 001e 18D8     		bhi	.L16
 225 0020 DFE803F0 		tbb	[pc, r3]
 226              	.L20:
 227 0024 3A       		.byte	(.L24-.L20)/2
ARM GAS  /tmp/ccSsNdrj.s 			page 5


 228 0025 17       		.byte	(.L16-.L20)/2
 229 0026 3F       		.byte	(.L23-.L20)/2
 230 0027 44       		.byte	(.L22-.L20)/2
 231 0028 17       		.byte	(.L16-.L20)/2
 232 0029 17       		.byte	(.L16-.L20)/2
 233 002a 08       		.byte	(.L21-.L20)/2
 234 002b 17       		.byte	(.L16-.L20)/2
 235 002c 17       		.byte	(.L16-.L20)/2
 236 002d 17       		.byte	(.L16-.L20)/2
 237 002e 17       		.byte	(.L16-.L20)/2
 238 002f 17       		.byte	(.L16-.L20)/2
 239 0030 17       		.byte	(.L16-.L20)/2
 240 0031 17       		.byte	(.L16-.L20)/2
 241 0032 49       		.byte	(.L19-.L20)/2
 242 0033 00       		.p2align 1
 243              	.L21:
 244 0034 CDE90410 		strd	r1, r0, [sp, #16]
 245 0038 1278     		ldrb	r2, [r2]	@ zero_extendqisi2
 246 003a 8DF80D20 		strb	r2, [sp, #13]
 247 003e 4FF0030C 		mov	ip, #3
 248 0042 0023     		movs	r3, #0
 249 0044 03A8     		add	r0, sp, #12
 250 0046 8DF80CC0 		strb	ip, [sp, #12]
 251 004a 8DF80E30 		strb	r3, [sp, #14]
 252 004e FFF7FEFF 		bl	pprzlink_msg_v2_send_PONG.constprop.0
 253              	.L16:
 254 0052 07B0     		add	sp, sp, #28
 255              		@ sp needed
 256 0054 5DF804FB 		ldr	pc, [sp], #4
 257              	.L18:
 258 0058 9D2B     		cmp	r3, #157
 259 005a 31D0     		beq	.L25
 260 005c 0CD9     		bls	.L35
 261 005e A02B     		cmp	r3, #160
 262 0060 F7D1     		bne	.L16
 263 0062 1046     		mov	r0, r2
 264 0064 0192     		str	r2, [sp, #4]
 265 0066 FFF7FEFF 		bl	flight_recorder_log_msg_up
 266 006a 019A     		ldr	r2, [sp, #4]
 267 006c 1046     		mov	r0, r2
 268 006e 07B0     		add	sp, sp, #28
 269              		@ sp needed
 270 0070 5DF804EB 		ldr	lr, [sp], #4
 271 0074 FFF7FEBF 		b	logger_log_msg_up
 272              	.L35:
 273 0078 482B     		cmp	r3, #72
 274 007a 07D0     		beq	.L27
 275 007c 992B     		cmp	r3, #153
 276 007e E8D1     		bne	.L16
 277 0080 1046     		mov	r0, r2
 278 0082 07B0     		add	sp, sp, #28
 279              		@ sp needed
 280 0084 5DF804EB 		ldr	lr, [sp], #4
 281 0088 FFF7FEBF 		b	gps_parse_GPS_INJECT
 282              	.L27:
 283 008c 1046     		mov	r0, r2
 284 008e 07B0     		add	sp, sp, #28
ARM GAS  /tmp/ccSsNdrj.s 			page 6


 285              		@ sp needed
 286 0090 5DF804EB 		ldr	lr, [sp], #4
 287 0094 FFF7FEBF 		b	gps_ubx_parse_HITL_UBX
 288              	.L24:
 289 0098 07B0     		add	sp, sp, #28
 290              		@ sp needed
 291 009a 5DF804EB 		ldr	lr, [sp], #4
 292 009e FFF7FEBF 		b	nav_parse_MOVE_WP
 293              	.L23:
 294 00a2 07B0     		add	sp, sp, #28
 295              		@ sp needed
 296 00a4 5DF804EB 		ldr	lr, [sp], #4
 297 00a8 FFF7FEBF 		b	settings_parse_msg_SETTING
 298              	.L22:
 299 00ac 07B0     		add	sp, sp, #28
 300              		@ sp needed
 301 00ae 5DF804EB 		ldr	lr, [sp], #4
 302 00b2 FFF7FEBF 		b	nav_parse_BLOCK
 303              	.L19:
 304 00b6 07B0     		add	sp, sp, #28
 305              		@ sp needed
 306 00b8 5DF804EB 		ldr	lr, [sp], #4
 307 00bc FFF7FEBF 		b	settings_parse_msg_GET_SETTING
 308              	.L25:
 309 00c0 1046     		mov	r0, r2
 310 00c2 07B0     		add	sp, sp, #28
 311              		@ sp needed
 312 00c4 5DF804EB 		ldr	lr, [sp], #4
 313 00c8 FFF7FEBF 		b	gps_parse_RTCM_INJECT
 314              		.size	dl_parse_msg, .-dl_parse_msg
 315              		.global	dl_buffer
 316              		.global	datalink_nb_msgs
 317              		.global	datalink_time
 318              		.global	dl_msg_available
 319              		.section	.bss.datalink_nb_msgs,"aw",%nobits
 320              		.align	1
 321              		.set	.LANCHOR2,. + 0
 322              		.type	datalink_nb_msgs, %object
 323              		.size	datalink_nb_msgs, 2
 324              	datalink_nb_msgs:
 325 0000 0000     		.space	2
 326              		.section	.bss.datalink_time,"aw",%nobits
 327              		.align	1
 328              		.set	.LANCHOR1,. + 0
 329              		.type	datalink_time, %object
 330              		.size	datalink_time, 2
 331              	datalink_time:
 332 0000 0000     		.space	2
 333              		.section	.bss.dl_buffer,"aw",%nobits
 334              		.align	3
 335              		.type	dl_buffer, %object
 336              		.size	dl_buffer, 256
 337              	dl_buffer:
 338 0000 00000000 		.space	256
 338      00000000 
 338      00000000 
 338      00000000 
ARM GAS  /tmp/ccSsNdrj.s 			page 7


 338      00000000 
 339              		.section	.bss.dl_msg_available,"aw",%nobits
 340              		.set	.LANCHOR0,. + 0
 341              		.type	dl_msg_available, %object
 342              		.size	dl_msg_available, 1
 343              	dl_msg_available:
 344 0000 00       		.space	1
 345              		.ident	"GCC: (15:10.3-2021.07-4) 10.3.1 20210621 (release)"
ARM GAS  /tmp/ccSsNdrj.s 			page 8

