ARM GAS  /tmp/ccQ6jSnj.s 			page 1


   1              		.cpu cortex-m4
   2              		.eabi_attribute 27, 1
   3              		.eabi_attribute 20, 1
   4              		.eabi_attribute 21, 1
   5              		.eabi_attribute 23, 3
   6              		.eabi_attribute 24, 1
   7              		.eabi_attribute 25, 1
   8              		.eabi_attribute 26, 1
   9              		.eabi_attribute 30, 2
  10              		.eabi_attribute 34, 1
  11              		.eabi_attribute 18, 4
  12              		.file	"fatfs_diskio.c"
  13              		.text
  14              		.section	.text.disk_initialize,"ax",%progbits
  15              		.align	1
  16              		.p2align 4,,15
  17              		.global	disk_initialize
  18              		.arch armv7e-m
  19              		.syntax unified
  20              		.thumb
  21              		.thumb_func
  22              		.fpu fpv4-sp-d16
  23              		.type	disk_initialize, %function
  24              	disk_initialize:
  25              		@ args = 0, pretend = 0, frame = 0
  26              		@ frame_needed = 0, uses_anonymous_args = 0
  27 0000 10B5     		push	{r4, lr}
  28 0002 58B9     		cbnz	r0, .L3
  29 0004 0748     		ldr	r0, .L9
  30 0006 0479     		ldrb	r4, [r0, #4]	@ zero_extendqisi2
  31 0008 053C     		subs	r4, r4, #5
  32 000a 18BF     		it	ne
  33 000c 0124     		movne	r4, #1
  34 000e FFF7FEFF 		bl	sdc_lld_is_write_protected
  35 0012 08B1     		cbz	r0, .L2
  36 0014 44F00404 		orr	r4, r4, #4
  37              	.L2:
  38 0018 2046     		mov	r0, r4
  39 001a 10BD     		pop	{r4, pc}
  40              	.L3:
  41 001c 0124     		movs	r4, #1
  42 001e 2046     		mov	r0, r4
  43 0020 10BD     		pop	{r4, pc}
  44              	.L10:
  45 0022 00BF     		.align	2
  46              	.L9:
  47 0024 00000000 		.word	SDCD1
  48              		.size	disk_initialize, .-disk_initialize
  49              		.section	.text.disk_status,"ax",%progbits
  50              		.align	1
  51              		.p2align 4,,15
  52              		.global	disk_status
  53              		.syntax unified
  54              		.thumb
  55              		.thumb_func
  56              		.fpu fpv4-sp-d16
  57              		.type	disk_status, %function
ARM GAS  /tmp/ccQ6jSnj.s 			page 2


  58              	disk_status:
  59              		@ args = 0, pretend = 0, frame = 0
  60              		@ frame_needed = 0, uses_anonymous_args = 0
  61 0000 10B5     		push	{r4, lr}
  62 0002 58B9     		cbnz	r0, .L13
  63 0004 0748     		ldr	r0, .L18
  64 0006 0479     		ldrb	r4, [r0, #4]	@ zero_extendqisi2
  65 0008 053C     		subs	r4, r4, #5
  66 000a 18BF     		it	ne
  67 000c 0124     		movne	r4, #1
  68 000e FFF7FEFF 		bl	sdc_lld_is_write_protected
  69 0012 08B1     		cbz	r0, .L12
  70 0014 44F00404 		orr	r4, r4, #4
  71              	.L12:
  72 0018 2046     		mov	r0, r4
  73 001a 10BD     		pop	{r4, pc}
  74              	.L13:
  75 001c 0124     		movs	r4, #1
  76 001e 2046     		mov	r0, r4
  77 0020 10BD     		pop	{r4, pc}
  78              	.L19:
  79 0022 00BF     		.align	2
  80              	.L18:
  81 0024 00000000 		.word	SDCD1
  82              		.size	disk_status, .-disk_status
  83              		.section	.text.disk_read,"ax",%progbits
  84              		.align	1
  85              		.p2align 4,,15
  86              		.global	disk_read
  87              		.syntax unified
  88              		.thumb
  89              		.thumb_func
  90              		.fpu fpv4-sp-d16
  91              		.type	disk_read, %function
  92              	disk_read:
  93              		@ args = 0, pretend = 0, frame = 0
  94              		@ frame_needed = 0, uses_anonymous_args = 0
  95              		@ link register save eliminated.
  96 0000 9446     		mov	ip, r2
  97 0002 48B9     		cbnz	r0, .L22
  98 0004 0548     		ldr	r0, .L25
  99 0006 0279     		ldrb	r2, [r0, #4]	@ zero_extendqisi2
 100 0008 052A     		cmp	r2, #5
 101 000a 01D0     		beq	.L24
 102 000c 0320     		movs	r0, #3
 103 000e 7047     		bx	lr
 104              	.L24:
 105 0010 0A46     		mov	r2, r1
 106 0012 6146     		mov	r1, ip
 107 0014 FFF7FEBF 		b	sdcRead
 108              	.L22:
 109 0018 0420     		movs	r0, #4
 110 001a 7047     		bx	lr
 111              	.L26:
 112              		.align	2
 113              	.L25:
 114 001c 00000000 		.word	SDCD1
ARM GAS  /tmp/ccQ6jSnj.s 			page 3


 115              		.size	disk_read, .-disk_read
 116              		.section	.text.disk_write,"ax",%progbits
 117              		.align	1
 118              		.p2align 4,,15
 119              		.global	disk_write
 120              		.syntax unified
 121              		.thumb
 122              		.thumb_func
 123              		.fpu fpv4-sp-d16
 124              		.type	disk_write, %function
 125              	disk_write:
 126              		@ args = 0, pretend = 0, frame = 0
 127              		@ frame_needed = 0, uses_anonymous_args = 0
 128              		@ link register save eliminated.
 129 0000 9446     		mov	ip, r2
 130 0002 48B9     		cbnz	r0, .L29
 131 0004 0548     		ldr	r0, .L32
 132 0006 0279     		ldrb	r2, [r0, #4]	@ zero_extendqisi2
 133 0008 052A     		cmp	r2, #5
 134 000a 01D0     		beq	.L31
 135 000c 0320     		movs	r0, #3
 136 000e 7047     		bx	lr
 137              	.L31:
 138 0010 0A46     		mov	r2, r1
 139 0012 6146     		mov	r1, ip
 140 0014 FFF7FEBF 		b	sdcWrite
 141              	.L29:
 142 0018 0420     		movs	r0, #4
 143 001a 7047     		bx	lr
 144              	.L33:
 145              		.align	2
 146              	.L32:
 147 001c 00000000 		.word	SDCD1
 148              		.size	disk_write, .-disk_write
 149              		.section	.text.disk_ioctl,"ax",%progbits
 150              		.align	1
 151              		.p2align 4,,15
 152              		.global	disk_ioctl
 153              		.syntax unified
 154              		.thumb
 155              		.thumb_func
 156              		.fpu fpv4-sp-d16
 157              		.type	disk_ioctl, %function
 158              	disk_ioctl:
 159              		@ args = 0, pretend = 0, frame = 0
 160              		@ frame_needed = 0, uses_anonymous_args = 0
 161              		@ link register save eliminated.
 162 0000 40B9     		cbnz	r0, .L38
 163 0002 0129     		cmp	r1, #1
 164 0004 0CD0     		beq	.L36
 165 0006 0329     		cmp	r1, #3
 166 0008 06D0     		beq	.L37
 167 000a 0029     		cmp	r1, #0
 168 000c 14BF     		ite	ne
 169 000e 0420     		movne	r0, #4
 170 0010 0020     		moveq	r0, #0
 171 0012 7047     		bx	lr
ARM GAS  /tmp/ccQ6jSnj.s 			page 4


 172              	.L38:
 173 0014 0420     		movs	r0, #4
 174 0016 7047     		bx	lr
 175              	.L37:
 176 0018 4FF48073 		mov	r3, #256
 177 001c 1360     		str	r3, [r2]
 178 001e 7047     		bx	lr
 179              	.L36:
 180 0020 014B     		ldr	r3, .L40
 181 0022 9B6A     		ldr	r3, [r3, #40]
 182 0024 1360     		str	r3, [r2]
 183 0026 7047     		bx	lr
 184              	.L41:
 185              		.align	2
 186              	.L40:
 187 0028 00000000 		.word	SDCD1
 188              		.size	disk_ioctl, .-disk_ioctl
 189              		.section	.text.get_fattime,"ax",%progbits
 190              		.align	1
 191              		.p2align 4,,15
 192              		.global	get_fattime
 193              		.syntax unified
 194              		.thumb
 195              		.thumb_func
 196              		.fpu fpv4-sp-d16
 197              		.type	get_fattime, %function
 198              	get_fattime:
 199              		@ args = 0, pretend = 0, frame = 8
 200              		@ frame_needed = 0, uses_anonymous_args = 0
 201 0000 00B5     		push	{lr}
 202 0002 83B0     		sub	sp, sp, #12
 203 0004 6946     		mov	r1, sp
 204 0006 0448     		ldr	r0, .L44
 205 0008 FFF7FEFF 		bl	rtcGetTime
 206 000c 6846     		mov	r0, sp
 207 000e FFF7FEFF 		bl	rtcConvertDateTimeToFAT
 208 0012 03B0     		add	sp, sp, #12
 209              		@ sp needed
 210 0014 5DF804FB 		ldr	pc, [sp], #4
 211              	.L45:
 212              		.align	2
 213              	.L44:
 214 0018 00000000 		.word	RTCD1
 215              		.size	get_fattime, .-get_fattime
 216              		.ident	"GCC: (15:10.3-2021.07-4) 10.3.1 20210621 (release)"
ARM GAS  /tmp/ccQ6jSnj.s 			page 5

