ARM GAS  /tmp/cc2a13AN.s 			page 1


   1              		.cpu cortex-m4
   2              		.eabi_attribute 27, 1
   3              		.eabi_attribute 20, 1
   4              		.eabi_attribute 21, 1
   5              		.eabi_attribute 23, 3
   6              		.eabi_attribute 24, 1
   7              		.eabi_attribute 25, 1
   8              		.eabi_attribute 26, 1
   9              		.eabi_attribute 30, 2
  10              		.eabi_attribute 34, 1
  11              		.eabi_attribute 18, 4
  12              		.file	"ff.c"
  13              		.text
  14              		.section	.text.chk_lock,"ax",%progbits
  15              		.align	1
  16              		.p2align 4,,15
  17              		.arch armv7e-m
  18              		.syntax unified
  19              		.thumb
  20              		.thumb_func
  21              		.fpu fpv4-sp-d16
  22              		.type	chk_lock, %function
  23              	chk_lock:
  24              		@ args = 0, pretend = 0, frame = 0
  25              		@ frame_needed = 0, uses_anonymous_args = 0
  26              		@ link register save eliminated.
  27 0000 F0B4     		push	{r4, r5, r6, r7}
  28 0002 1B4E     		ldr	r6, .L24
  29 0004 0025     		movs	r5, #0
  30 0006 3346     		mov	r3, r6
  31 0008 2A46     		mov	r2, r5
  32 000a 07E0     		b	.L4
  33              	.L21:
  34 000c 0768     		ldr	r7, [r0]
  35 000e BC42     		cmp	r4, r7
  36 0010 15D0     		beq	.L19
  37              	.L2:
  38 0012 0132     		adds	r2, r2, #1
  39 0014 0A2A     		cmp	r2, #10
  40 0016 03F11003 		add	r3, r3, #16
  41 001a 09D0     		beq	.L20
  42              	.L4:
  43 001c 1C68     		ldr	r4, [r3]
  44 001e 002C     		cmp	r4, #0
  45 0020 F4D1     		bne	.L21
  46 0022 0132     		adds	r2, r2, #1
  47 0024 0A2A     		cmp	r2, #10
  48 0026 4FF00105 		mov	r5, #1
  49 002a 03F11003 		add	r3, r3, #16
  50 002e F5D1     		bne	.L4
  51              	.L20:
  52 0030 DDB9     		cbnz	r5, .L22
  53 0032 0229     		cmp	r1, #2
  54 0034 0CBF     		ite	eq
  55 0036 0020     		moveq	r0, #0
  56 0038 1220     		movne	r0, #18
  57 003a F0BC     		pop	{r4, r5, r6, r7}
ARM GAS  /tmp/cc2a13AN.s 			page 2


  58 003c 7047     		bx	lr
  59              	.L19:
  60 003e 8468     		ldr	r4, [r0, #8]
  61 0040 5F68     		ldr	r7, [r3, #4]
  62 0042 A742     		cmp	r7, r4
  63 0044 E5D1     		bne	.L2
  64 0046 046B     		ldr	r4, [r0, #48]
  65 0048 9F68     		ldr	r7, [r3, #8]
  66 004a A742     		cmp	r7, r4
  67 004c E1D1     		bne	.L2
  68 004e 49B9     		cbnz	r1, .L23
  69 0050 06EB0212 		add	r2, r6, r2, lsl #4
  70 0054 F0BC     		pop	{r4, r5, r6, r7}
  71 0056 9389     		ldrh	r3, [r2, #12]
  72 0058 B3F5807F 		cmp	r3, #256
  73 005c 14BF     		ite	ne
  74 005e 0020     		movne	r0, #0
  75 0060 1020     		moveq	r0, #16
  76 0062 7047     		bx	lr
  77              	.L23:
  78 0064 1020     		movs	r0, #16
  79 0066 F0BC     		pop	{r4, r5, r6, r7}
  80 0068 7047     		bx	lr
  81              	.L22:
  82 006a 0020     		movs	r0, #0
  83 006c F0BC     		pop	{r4, r5, r6, r7}
  84 006e 7047     		bx	lr
  85              	.L25:
  86              		.align	2
  87              	.L24:
  88 0070 00000000 		.word	.LANCHOR0
  89              		.size	chk_lock, .-chk_lock
  90              		.section	.text.inc_lock,"ax",%progbits
  91              		.align	1
  92              		.p2align 4,,15
  93              		.syntax unified
  94              		.thumb
  95              		.thumb_func
  96              		.fpu fpv4-sp-d16
  97              		.type	inc_lock, %function
  98              	inc_lock:
  99              		@ args = 0, pretend = 0, frame = 0
 100              		@ frame_needed = 0, uses_anonymous_args = 0
 101              		@ link register save eliminated.
 102 0000 F0B4     		push	{r4, r5, r6, r7}
 103 0002 1F4D     		ldr	r5, .L46
 104 0004 0468     		ldr	r4, [r0]
 105 0006 2A46     		mov	r2, r5
 106 0008 0023     		movs	r3, #0
 107 000a 04E0     		b	.L29
 108              	.L27:
 109 000c 0133     		adds	r3, r3, #1
 110 000e 0A2B     		cmp	r3, #10
 111 0010 02F11002 		add	r2, r2, #16
 112 0014 19D0     		beq	.L44
 113              	.L29:
 114 0016 1668     		ldr	r6, [r2]
ARM GAS  /tmp/cc2a13AN.s 			page 3


 115 0018 A642     		cmp	r6, r4
 116 001a F7D1     		bne	.L27
 117 001c 5668     		ldr	r6, [r2, #4]
 118 001e 8768     		ldr	r7, [r0, #8]
 119 0020 BE42     		cmp	r6, r7
 120 0022 F3D1     		bne	.L27
 121 0024 066B     		ldr	r6, [r0, #48]
 122 0026 9768     		ldr	r7, [r2, #8]
 123 0028 B742     		cmp	r7, r6
 124 002a EFD1     		bne	.L27
 125 002c 0129     		cmp	r1, #1
 126 002e 05EB0311 		add	r1, r5, r3, lsl #4
 127 0032 4FEA0312 		lsl	r2, r3, #4
 128 0036 8989     		ldrh	r1, [r1, #12]
 129 0038 11D1     		bne	.L34
 130 003a 69B9     		cbnz	r1, .L38
 131 003c 4FF48071 		mov	r1, #256
 132              	.L35:
 133 0040 2A44     		add	r2, r2, r5
 134 0042 581C     		adds	r0, r3, #1
 135 0044 F0BC     		pop	{r4, r5, r6, r7}
 136 0046 9181     		strh	r1, [r2, #12]	@ movhi
 137 0048 7047     		bx	lr
 138              	.L44:
 139 004a 0023     		movs	r3, #0
 140              	.L30:
 141 004c 1A01     		lsls	r2, r3, #4
 142 004e AE58     		ldr	r6, [r5, r2]
 143 0050 46B1     		cbz	r6, .L45
 144 0052 0133     		adds	r3, r3, #1
 145 0054 0A2B     		cmp	r3, #10
 146 0056 F9D1     		bne	.L30
 147              	.L38:
 148 0058 0020     		movs	r0, #0
 149 005a F0BC     		pop	{r4, r5, r6, r7}
 150 005c 7047     		bx	lr
 151              	.L34:
 152 005e 0131     		adds	r1, r1, #1
 153 0060 89B2     		uxth	r1, r1
 154 0062 EDE7     		b	.L35
 155              	.L45:
 156 0064 0129     		cmp	r1, #1
 157 0066 05EB0201 		add	r1, r5, r2
 158 006a AC50     		str	r4, [r5, r2]
 159 006c 8468     		ldr	r4, [r0, #8]
 160 006e 006B     		ldr	r0, [r0, #48]
 161 0070 4C60     		str	r4, [r1, #4]
 162 0072 8860     		str	r0, [r1, #8]
 163 0074 8E81     		strh	r6, [r1, #12]	@ movhi
 164 0076 0CBF     		ite	eq
 165 0078 4FF48071 		moveq	r1, #256
 166 007c 0121     		movne	r1, #1
 167 007e DFE7     		b	.L35
 168              	.L47:
 169              		.align	2
 170              	.L46:
 171 0080 00000000 		.word	.LANCHOR0
ARM GAS  /tmp/cc2a13AN.s 			page 4


 172              		.size	inc_lock, .-inc_lock
 173              		.section	.text.get_ldnumber,"ax",%progbits
 174              		.align	1
 175              		.p2align 4,,15
 176              		.syntax unified
 177              		.thumb
 178              		.thumb_func
 179              		.fpu fpv4-sp-d16
 180              		.type	get_ldnumber, %function
 181              	get_ldnumber:
 182              		@ args = 0, pretend = 0, frame = 0
 183              		@ frame_needed = 0, uses_anonymous_args = 0
 184              		@ link register save eliminated.
 185 0000 0168     		ldr	r1, [r0]
 186 0002 69B1     		cbz	r1, .L58
 187 0004 0A46     		mov	r2, r1
 188 0006 01E0     		b	.L51
 189              	.L60:
 190 0008 3A2B     		cmp	r3, #58
 191 000a 06D0     		beq	.L59
 192              	.L51:
 193 000c 12F8013B 		ldrb	r3, [r2], #1	@ zero_extendqisi2
 194 0010 1F2B     		cmp	r3, #31
 195 0012 F9D8     		bhi	.L60
 196 0014 074B     		ldr	r3, .L61
 197 0016 1878     		ldrb	r0, [r3]	@ zero_extendqisi2
 198 0018 7047     		bx	lr
 199              	.L59:
 200 001a 8B1C     		adds	r3, r1, #2
 201 001c 9A42     		cmp	r2, r3
 202 001e 02D0     		beq	.L53
 203              	.L58:
 204 0020 4FF0FF30 		mov	r0, #-1
 205 0024 7047     		bx	lr
 206              	.L53:
 207 0026 0B78     		ldrb	r3, [r1]	@ zero_extendqisi2
 208 0028 302B     		cmp	r3, #48
 209 002a F9D1     		bne	.L58
 210 002c 0260     		str	r2, [r0]
 211 002e 0020     		movs	r0, #0
 212 0030 7047     		bx	lr
 213              	.L62:
 214 0032 00BF     		.align	2
 215              	.L61:
 216 0034 00000000 		.word	.LANCHOR1
 217              		.size	get_ldnumber, .-get_ldnumber
 218              		.section	.text.sync_window.part.0,"ax",%progbits
 219              		.align	1
 220              		.p2align 4,,15
 221              		.syntax unified
 222              		.thumb
 223              		.thumb_func
 224              		.fpu fpv4-sp-d16
 225              		.type	sync_window.part.0, %function
 226              	sync_window.part.0:
 227              		@ args = 0, pretend = 0, frame = 0
 228              		@ frame_needed = 0, uses_anonymous_args = 0
ARM GAS  /tmp/cc2a13AN.s 			page 5


 229 0000 70B5     		push	{r4, r5, r6, lr}
 230 0002 00F15006 		add	r6, r0, #80
 231 0006 C26C     		ldr	r2, [r0, #76]
 232 0008 0446     		mov	r4, r0
 233 000a 0123     		movs	r3, #1
 234 000c 4078     		ldrb	r0, [r0, #1]	@ zero_extendqisi2
 235 000e 3146     		mov	r1, r6
 236 0010 FFF7FEFF 		bl	disk_write
 237 0014 60B9     		cbnz	r0, .L65
 238 0016 E16C     		ldr	r1, [r4, #76]
 239 0018 E36B     		ldr	r3, [r4, #60]
 240 001a 626B     		ldr	r2, [r4, #52]
 241 001c E070     		strb	r0, [r4, #3]
 242 001e CB1A     		subs	r3, r1, r3
 243 0020 9342     		cmp	r3, r2
 244 0022 0546     		mov	r5, r0
 245 0024 02D2     		bcs	.L64
 246 0026 A378     		ldrb	r3, [r4, #2]	@ zero_extendqisi2
 247 0028 022B     		cmp	r3, #2
 248 002a 04D0     		beq	.L67
 249              	.L64:
 250 002c 2846     		mov	r0, r5
 251 002e 70BD     		pop	{r4, r5, r6, pc}
 252              	.L65:
 253 0030 0125     		movs	r5, #1
 254 0032 2846     		mov	r0, r5
 255 0034 70BD     		pop	{r4, r5, r6, pc}
 256              	.L67:
 257 0036 0A44     		add	r2, r2, r1
 258 0038 6078     		ldrb	r0, [r4, #1]	@ zero_extendqisi2
 259 003a 3146     		mov	r1, r6
 260 003c 0123     		movs	r3, #1
 261 003e FFF7FEFF 		bl	disk_write
 262 0042 F3E7     		b	.L64
 263              		.size	sync_window.part.0, .-sync_window.part.0
 264              		.section	.text.dir_clear,"ax",%progbits
 265              		.align	1
 266              		.p2align 4,,15
 267              		.syntax unified
 268              		.thumb
 269              		.thumb_func
 270              		.fpu fpv4-sp-d16
 271              		.type	dir_clear, %function
 272              	dir_clear:
 273              		@ args = 0, pretend = 0, frame = 0
 274              		@ frame_needed = 0, uses_anonymous_args = 0
 275 0000 F8B5     		push	{r3, r4, r5, r6, r7, lr}
 276 0002 C378     		ldrb	r3, [r0, #3]	@ zero_extendqisi2
 277 0004 0546     		mov	r5, r0
 278 0006 0E46     		mov	r6, r1
 279 0008 3BBB     		cbnz	r3, .L69
 280              	.L73:
 281 000a 2B6B     		ldr	r3, [r5, #48]
 282 000c B11E     		subs	r1, r6, #2
 283 000e 023B     		subs	r3, r3, #2
 284 0010 9942     		cmp	r1, r3
 285 0012 28D2     		bcs	.L82
ARM GAS  /tmp/cc2a13AN.s 			page 6


 286 0014 6B89     		ldrh	r3, [r5, #10]
 287 0016 6E6C     		ldr	r6, [r5, #68]
 288 0018 01FB0366 		mla	r6, r1, r3, r6
 289              	.L70:
 290 001c 05F15007 		add	r7, r5, #80
 291 0020 EE64     		str	r6, [r5, #76]
 292 0022 4FF40072 		mov	r2, #512
 293 0026 0021     		movs	r1, #0
 294 0028 3846     		mov	r0, r7
 295 002a FFF7FEFF 		bl	memset
 296 002e 6889     		ldrh	r0, [r5, #10]
 297 0030 0446     		mov	r4, r0
 298 0032 70B1     		cbz	r0, .L75
 299 0034 0024     		movs	r4, #0
 300 0036 03E0     		b	.L74
 301              	.L76:
 302 0038 6889     		ldrh	r0, [r5, #10]
 303 003a 0134     		adds	r4, r4, #1
 304 003c A042     		cmp	r0, r4
 305 003e 08D9     		bls	.L75
 306              	.L74:
 307 0040 6878     		ldrb	r0, [r5, #1]	@ zero_extendqisi2
 308 0042 3219     		adds	r2, r6, r4
 309 0044 0123     		movs	r3, #1
 310 0046 3946     		mov	r1, r7
 311 0048 FFF7FEFF 		bl	disk_write
 312 004c 0028     		cmp	r0, #0
 313 004e F3D0     		beq	.L76
 314 0050 6889     		ldrh	r0, [r5, #10]
 315              	.L75:
 316 0052 201A     		subs	r0, r4, r0
 317 0054 18BF     		it	ne
 318 0056 0120     		movne	r0, #1
 319 0058 F8BD     		pop	{r3, r4, r5, r6, r7, pc}
 320              	.L69:
 321 005a FFF7FEFF 		bl	sync_window.part.0
 322 005e 0028     		cmp	r0, #0
 323 0060 D3D0     		beq	.L73
 324 0062 0120     		movs	r0, #1
 325 0064 F8BD     		pop	{r3, r4, r5, r6, r7, pc}
 326              	.L82:
 327 0066 0026     		movs	r6, #0
 328 0068 D8E7     		b	.L70
 329              		.size	dir_clear, .-dir_clear
 330 006a 00BF     		.section	.text.sync_fs,"ax",%progbits
 331              		.align	1
 332              		.p2align 4,,15
 333              		.syntax unified
 334              		.thumb
 335              		.thumb_func
 336              		.fpu fpv4-sp-d16
 337              		.type	sync_fs, %function
 338              	sync_fs:
 339              		@ args = 0, pretend = 0, frame = 0
 340              		@ frame_needed = 0, uses_anonymous_args = 0
 341 0000 F8B5     		push	{r3, r4, r5, r6, r7, lr}
 342 0002 C378     		ldrb	r3, [r0, #3]	@ zero_extendqisi2
ARM GAS  /tmp/cc2a13AN.s 			page 7


 343 0004 0446     		mov	r4, r0
 344 0006 5BB9     		cbnz	r3, .L84
 345 0008 2378     		ldrb	r3, [r4]	@ zero_extendqisi2
 346 000a 032B     		cmp	r3, #3
 347 000c 0FD0     		beq	.L94
 348              	.L86:
 349 000e 0022     		movs	r2, #0
 350 0010 6078     		ldrb	r0, [r4, #1]	@ zero_extendqisi2
 351 0012 1146     		mov	r1, r2
 352 0014 FFF7FEFF 		bl	disk_ioctl
 353 0018 0038     		subs	r0, r0, #0
 354 001a 18BF     		it	ne
 355 001c 0120     		movne	r0, #1
 356              	.L88:
 357 001e F8BD     		pop	{r3, r4, r5, r6, r7, pc}
 358              	.L84:
 359 0020 FFF7FEFF 		bl	sync_window.part.0
 360 0024 0028     		cmp	r0, #0
 361 0026 FAD1     		bne	.L88
 362 0028 2378     		ldrb	r3, [r4]	@ zero_extendqisi2
 363 002a 032B     		cmp	r3, #3
 364 002c EFD1     		bne	.L86
 365              	.L94:
 366 002e 2579     		ldrb	r5, [r4, #4]	@ zero_extendqisi2
 367 0030 012D     		cmp	r5, #1
 368 0032 ECD1     		bne	.L86
 369 0034 04F15007 		add	r7, r4, #80
 370 0038 4FF40072 		mov	r2, #512
 371 003c 0021     		movs	r1, #0
 372 003e 3846     		mov	r0, r7
 373 0040 FFF7FEFF 		bl	memset
 374 0044 5223     		movs	r3, #82
 375 0046 E669     		ldr	r6, [r4, #28]
 376 0048 84F85030 		strb	r3, [r4, #80]
 377 004c 84F85130 		strb	r3, [r4, #81]
 378 0050 4123     		movs	r3, #65
 379 0052 84F85330 		strb	r3, [r4, #83]
 380 0056 84F83632 		strb	r3, [r4, #566]
 381 005a 2B46     		mov	r3, r5
 382 005c 7225     		movs	r5, #114
 383 005e A069     		ldr	r0, [r4, #24]
 384 0060 84F83452 		strb	r5, [r4, #564]
 385 0064 84F83552 		strb	r5, [r4, #565]
 386 0068 350A     		lsrs	r5, r6, #8
 387 006a 6122     		movs	r2, #97
 388 006c 84F83952 		strb	r5, [r4, #569]
 389 0070 350C     		lsrs	r5, r6, #16
 390 0072 84F85220 		strb	r2, [r4, #82]
 391 0076 84F83722 		strb	r2, [r4, #567]
 392 007a 84F83A52 		strb	r5, [r4, #570]
 393 007e A26B     		ldr	r2, [r4, #56]
 394 0080 84F83C02 		strb	r0, [r4, #572]
 395 0084 050A     		lsrs	r5, r0, #8
 396 0086 84F83D52 		strb	r5, [r4, #573]
 397 008a 050C     		lsrs	r5, r0, #16
 398 008c 000E     		lsrs	r0, r0, #24
 399 008e 5521     		movs	r1, #85
ARM GAS  /tmp/cc2a13AN.s 			page 8


 400 0090 84F83862 		strb	r6, [r4, #568]
 401 0094 0132     		adds	r2, r2, #1
 402 0096 84F83F02 		strb	r0, [r4, #575]
 403 009a 360E     		lsrs	r6, r6, #24
 404 009c AA20     		movs	r0, #170
 405 009e 84F84E12 		strb	r1, [r4, #590]
 406 00a2 84F84F02 		strb	r0, [r4, #591]
 407 00a6 3946     		mov	r1, r7
 408 00a8 6078     		ldrb	r0, [r4, #1]	@ zero_extendqisi2
 409 00aa E264     		str	r2, [r4, #76]
 410 00ac 84F83B62 		strb	r6, [r4, #571]
 411 00b0 84F83E52 		strb	r5, [r4, #574]
 412 00b4 FFF7FEFF 		bl	disk_write
 413 00b8 0023     		movs	r3, #0
 414 00ba 2371     		strb	r3, [r4, #4]
 415 00bc A7E7     		b	.L86
 416              		.size	sync_fs, .-sync_fs
 417 00be 00BF     		.section	.text.move_window.part.0,"ax",%progbits
 418              		.align	1
 419              		.p2align 4,,15
 420              		.syntax unified
 421              		.thumb
 422              		.thumb_func
 423              		.fpu fpv4-sp-d16
 424              		.type	move_window.part.0, %function
 425              	move_window.part.0:
 426              		@ args = 0, pretend = 0, frame = 0
 427              		@ frame_needed = 0, uses_anonymous_args = 0
 428 0000 38B5     		push	{r3, r4, r5, lr}
 429 0002 C378     		ldrb	r3, [r0, #3]	@ zero_extendqisi2
 430 0004 0446     		mov	r4, r0
 431 0006 0D46     		mov	r5, r1
 432 0008 6BB9     		cbnz	r3, .L96
 433              	.L98:
 434 000a 2A46     		mov	r2, r5
 435 000c 6078     		ldrb	r0, [r4, #1]	@ zero_extendqisi2
 436 000e 0123     		movs	r3, #1
 437 0010 04F15001 		add	r1, r4, #80
 438 0014 FFF7FEFF 		bl	disk_read
 439 0018 0028     		cmp	r0, #0
 440 001a 1CBF     		itt	ne
 441 001c 4FF0FF35 		movne	r5, #-1
 442 0020 0120     		movne	r0, #1
 443 0022 E564     		str	r5, [r4, #76]
 444 0024 38BD     		pop	{r3, r4, r5, pc}
 445              	.L96:
 446 0026 FFF7FEFF 		bl	sync_window.part.0
 447 002a 0028     		cmp	r0, #0
 448 002c EDD0     		beq	.L98
 449 002e 38BD     		pop	{r3, r4, r5, pc}
 450              		.size	move_window.part.0, .-move_window.part.0
 451              		.section	.text.validate,"ax",%progbits
 452              		.align	1
 453              		.p2align 4,,15
 454              		.syntax unified
 455              		.thumb
 456              		.thumb_func
ARM GAS  /tmp/cc2a13AN.s 			page 9


 457              		.fpu fpv4-sp-d16
 458              		.type	validate, %function
 459              	validate:
 460              		@ args = 0, pretend = 0, frame = 0
 461              		@ frame_needed = 0, uses_anonymous_args = 0
 462 0000 38B5     		push	{r3, r4, r5, lr}
 463 0002 0D46     		mov	r5, r1
 464 0004 40B1     		cbz	r0, .L123
 465 0006 0368     		ldr	r3, [r0]
 466 0008 0446     		mov	r4, r0
 467 000a 2BB1     		cbz	r3, .L123
 468 000c 1A78     		ldrb	r2, [r3]	@ zero_extendqisi2
 469 000e 1AB1     		cbz	r2, .L123
 470 0010 8188     		ldrh	r1, [r0, #4]
 471 0012 DA88     		ldrh	r2, [r3, #6]
 472 0014 9142     		cmp	r1, r2
 473 0016 03D0     		beq	.L124
 474              	.L123:
 475 0018 0920     		movs	r0, #9
 476 001a 0023     		movs	r3, #0
 477              	.L109:
 478 001c 2B60     		str	r3, [r5]
 479 001e 38BD     		pop	{r3, r4, r5, pc}
 480              	.L124:
 481 0020 5869     		ldr	r0, [r3, #20]
 482 0022 FFF7FEFF 		bl	ff_req_grant
 483 0026 0346     		mov	r3, r0
 484 0028 68B1     		cbz	r0, .L112
 485 002a 2368     		ldr	r3, [r4]
 486 002c 5878     		ldrb	r0, [r3, #1]	@ zero_extendqisi2
 487 002e FFF7FEFF 		bl	disk_status
 488 0032 10F00100 		ands	r0, r0, #1
 489 0036 2368     		ldr	r3, [r4]
 490 0038 F0D0     		beq	.L109
 491 003a 002B     		cmp	r3, #0
 492 003c ECD0     		beq	.L123
 493 003e 5869     		ldr	r0, [r3, #20]
 494 0040 FFF7FEFF 		bl	ff_rel_grant
 495 0044 E8E7     		b	.L123
 496              	.L112:
 497 0046 0F20     		movs	r0, #15
 498 0048 E8E7     		b	.L109
 499              		.size	validate, .-validate
 500 004a 00BF     		.section	.text.pattern_match,"ax",%progbits
 501              		.align	1
 502              		.p2align 4,,15
 503              		.syntax unified
 504              		.thumb
 505              		.thumb_func
 506              		.fpu fpv4-sp-d16
 507              		.type	pattern_match, %function
 508              	pattern_match:
 509              		@ args = 0, pretend = 0, frame = 0
 510              		@ frame_needed = 0, uses_anonymous_args = 0
 511 0000 2DE9F047 		push	{r4, r5, r6, r7, r8, r9, r10, lr}
 512 0004 D4B2     		uxtb	r4, r2
 513 0006 8046     		mov	r8, r0
ARM GAS  /tmp/cc2a13AN.s 			page 10


 514 0008 9946     		mov	r9, r3
 515 000a 0D46     		mov	r5, r1
 516 000c 002C     		cmp	r4, #0
 517 000e 7BD0     		beq	.L151
 518 0010 3E4F     		ldr	r7, .L182
 519              	.L130:
 520 0012 15F8013B 		ldrb	r3, [r5], #1	@ zero_extendqisi2
 521 0016 A3F16100 		sub	r0, r3, #97
 522 001a 4C1B     		subs	r4, r1, r5
 523 001c 1444     		add	r4, r4, r2
 524 001e 1928     		cmp	r0, #25
 525 0020 07EB0306 		add	r6, r7, r3
 526 0024 E0B2     		uxtb	r0, r4
 527 0026 04D9     		bls	.L127
 528 0028 7F2B     		cmp	r3, #127
 529 002a 88BF     		it	hi
 530 002c 16F8803C 		ldrbhi	r3, [r6, #-128]	@ zero_extendqisi2
 531 0030 CBB3     		cbz	r3, .L129
 532              	.L127:
 533 0032 0028     		cmp	r0, #0
 534 0034 EDD1     		bne	.L130
 535              	.L126:
 536 0036 98F80020 		ldrb	r2, [r8]	@ zero_extendqisi2
 537 003a BAB3     		cbz	r2, .L175
 538              	.L131:
 539 003c 334F     		ldr	r7, .L182
 540 003e 09F1FF3A 		add	r10, r9, #-1
 541              	.L133:
 542 0042 4046     		mov	r0, r8
 543 0044 2E46     		mov	r6, r5
 544 0046 0DE0     		b	.L148
 545              	.L177:
 546 0048 16F8013B 		ldrb	r3, [r6], #1	@ zero_extendqisi2
 547 004c A3F16101 		sub	r1, r3, #97
 548 0050 1929     		cmp	r1, #25
 549 0052 A2F12002 		sub	r2, r2, #32
 550 0056 19D8     		bhi	.L146
 551              	.L178:
 552 0058 203B     		subs	r3, r3, #32
 553 005a 9342     		cmp	r3, r2
 554 005c 1DD1     		bne	.L143
 555              	.L179:
 556 005e 3BB3     		cbz	r3, .L132
 557 0060 10F8012F 		ldrb	r2, [r0, #1]!	@ zero_extendqisi2
 558              	.L148:
 559 0064 3F2A     		cmp	r2, #63
 560 0066 26D0     		beq	.L135
 561 0068 2A2A     		cmp	r2, #42
 562 006a 46D0     		beq	.L176
 563 006c A2F16103 		sub	r3, r2, #97
 564 0070 192B     		cmp	r3, #25
 565 0072 E9D9     		bls	.L177
 566 0074 7F2A     		cmp	r2, #127
 567 0076 16F8013B 		ldrb	r3, [r6], #1	@ zero_extendqisi2
 568 007a 88BF     		it	hi
 569 007c D219     		addhi	r2, r2, r7
 570 007e A3F16101 		sub	r1, r3, #97
ARM GAS  /tmp/cc2a13AN.s 			page 11


 571 0082 88BF     		it	hi
 572 0084 12F8802C 		ldrbhi	r2, [r2, #-128]	@ zero_extendqisi2
 573 0088 1929     		cmp	r1, #25
 574 008a E5D9     		bls	.L178
 575              	.L146:
 576 008c 7F2B     		cmp	r3, #127
 577 008e 84BF     		itt	hi
 578 0090 DB19     		addhi	r3, r3, r7
 579 0092 13F8803C 		ldrbhi	r3, [r3, #-128]	@ zero_extendqisi2
 580 0096 9342     		cmp	r3, r2
 581 0098 E1D0     		beq	.L179
 582              	.L143:
 583 009a 0135     		adds	r5, r5, #1
 584 009c 1CB1     		cbz	r4, .L129
 585 009e 13B1     		cbz	r3, .L129
 586 00a0 98F80020 		ldrb	r2, [r8]	@ zero_extendqisi2
 587 00a4 CDE7     		b	.L133
 588              	.L129:
 589 00a6 0020     		movs	r0, #0
 590 00a8 BDE8F087 		pop	{r4, r5, r6, r7, r8, r9, r10, pc}
 591              	.L175:
 592 00ac 002C     		cmp	r4, #0
 593 00ae C5D0     		beq	.L131
 594              	.L132:
 595 00b0 0120     		movs	r0, #1
 596 00b2 BDE8F087 		pop	{r4, r5, r6, r7, r8, r9, r10, pc}
 597              	.L135:
 598 00b6 B9F1000F 		cmp	r9, #0
 599 00ba F4D0     		beq	.L129
 600 00bc 0130     		adds	r0, r0, #1
 601 00be 0346     		mov	r3, r0
 602 00c0 0022     		movs	r2, #0
 603              	.L138:
 604 00c2 0178     		ldrb	r1, [r0]	@ zero_extendqisi2
 605 00c4 3F29     		cmp	r1, #63
 606 00c6 02F10102 		add	r2, r2, #1
 607 00ca 03F10103 		add	r3, r3, #1
 608 00ce 0AD0     		beq	.L141
 609              	.L181:
 610 00d0 2A29     		cmp	r1, #42
 611 00d2 08BF     		it	eq
 612 00d4 1846     		moveq	r0, r3
 613 00d6 08D1     		bne	.L180
 614              	.L139:
 615 00d8 0178     		ldrb	r1, [r0]	@ zero_extendqisi2
 616 00da 3F29     		cmp	r1, #63
 617 00dc 42F48072 		orr	r2, r2, #256
 618 00e0 03F10103 		add	r3, r3, #1
 619 00e4 F4D1     		bne	.L181
 620              	.L141:
 621 00e6 1846     		mov	r0, r3
 622 00e8 EBE7     		b	.L138
 623              	.L180:
 624 00ea 5346     		mov	r3, r10
 625 00ec 3146     		mov	r1, r6
 626 00ee FFF787FF 		bl	pattern_match
 627 00f2 0028     		cmp	r0, #0
ARM GAS  /tmp/cc2a13AN.s 			page 12


 628 00f4 DCD1     		bne	.L132
 629 00f6 3378     		ldrb	r3, [r6]	@ zero_extendqisi2
 630 00f8 CFE7     		b	.L143
 631              	.L176:
 632 00fa B9F1000F 		cmp	r9, #0
 633 00fe D2D0     		beq	.L129
 634 0100 0130     		adds	r0, r0, #1
 635 0102 0346     		mov	r3, r0
 636 0104 0022     		movs	r2, #0
 637 0106 E7E7     		b	.L139
 638              	.L151:
 639 0108 1446     		mov	r4, r2
 640 010a 94E7     		b	.L126
 641              	.L183:
 642              		.align	2
 643              	.L182:
 644 010c 00000000 		.word	.LANCHOR2
 645              		.size	pattern_match, .-pattern_match
 646              		.section	.text.init_alloc_info.isra.0,"ax",%progbits
 647              		.align	1
 648              		.p2align 4,,15
 649              		.syntax unified
 650              		.thumb
 651              		.thumb_func
 652              		.fpu fpv4-sp-d16
 653              		.type	init_alloc_info.isra.0, %function
 654              	init_alloc_info.isra.0:
 655              		@ args = 0, pretend = 0, frame = 0
 656              		@ frame_needed = 0, uses_anonymous_args = 0
 657              		@ link register save eliminated.
 658 0000 436B     		ldr	r3, [r0, #52]	@ unaligned
 659 0002 8B60     		str	r3, [r1, #8]
 660 0004 836B     		ldr	r3, [r0, #56]	@ unaligned
 661 0006 C26B     		ldr	r2, [r0, #60]	@ unaligned
 662 0008 C1E90432 		strd	r3, r2, [r1, #16]
 663 000c 90F82130 		ldrb	r3, [r0, #33]	@ zero_extendqisi2
 664 0010 0022     		movs	r2, #0
 665 0012 03F00203 		and	r3, r3, #2
 666 0016 CB71     		strb	r3, [r1, #7]
 667 0018 CA61     		str	r2, [r1, #28]
 668 001a 7047     		bx	lr
 669              		.size	init_alloc_info.isra.0, .-init_alloc_info.isra.0
 670              		.section	.text.get_fileinfo,"ax",%progbits
 671              		.align	1
 672              		.p2align 4,,15
 673              		.syntax unified
 674              		.thumb
 675              		.thumb_func
 676              		.fpu fpv4-sp-d16
 677              		.type	get_fileinfo, %function
 678              	get_fileinfo:
 679              		@ args = 0, pretend = 0, frame = 0
 680              		@ frame_needed = 0, uses_anonymous_args = 0
 681 0000 2DE9F843 		push	{r3, r4, r5, r6, r7, r8, r9, lr}
 682 0004 0024     		movs	r4, #0
 683 0006 0568     		ldr	r5, [r0]
 684 0008 8C76     		strb	r4, [r1, #26]
ARM GAS  /tmp/cc2a13AN.s 			page 13


 685 000a 836B     		ldr	r3, [r0, #56]
 686 000c 002B     		cmp	r3, #0
 687 000e 59D0     		beq	.L185
 688 0010 2B78     		ldrb	r3, [r5]	@ zero_extendqisi2
 689 0012 042B     		cmp	r3, #4
 690 0014 0E46     		mov	r6, r1
 691 0016 00F0A180 		beq	.L249
 692 001a C36C     		ldr	r3, [r0, #76]
 693 001c 0133     		adds	r3, r3, #1
 694 001e 8046     		mov	r8, r0
 695 0020 1ED0     		beq	.L202
 696 0022 E968     		ldr	r1, [r5, #12]
 697 0024 0888     		ldrh	r0, [r1]
 698 0026 B0B1     		cbz	r0, .L210
 699 0028 0227     		movs	r7, #2
 700 002a A146     		mov	r9, r4
 701              	.L203:
 702 002c 2CB9     		cbnz	r4, .L205
 703 002e 00F52052 		add	r2, r0, #10240
 704 0032 92B2     		uxth	r2, r2
 705 0034 B2F5006F 		cmp	r2, #2048
 706 0038 78D3     		bcc	.L228
 707              	.L205:
 708 003a 40F25231 		movw	r1, #850
 709 003e 40EA0440 		orr	r0, r0, r4, lsl #16
 710 0042 FFF7FEFF 		bl	ff_uni2oem
 711 0046 FF28     		cmp	r0, #255
 712 0048 C9F1FF03 		rsb	r3, r9, #255
 713 004c 5CD9     		bls	.L207
 714 004e 012B     		cmp	r3, #1
 715 0050 6ED8     		bhi	.L250
 716 0052 0023     		movs	r3, #0
 717              	.L208:
 718 0054 04B1     		cbz	r4, .L204
 719              	.L210:
 720 0056 0023     		movs	r3, #0
 721              	.L204:
 722 0058 3344     		add	r3, r3, r6
 723 005a 0022     		movs	r2, #0
 724 005c 9A76     		strb	r2, [r3, #26]
 725 005e B47E     		ldrb	r4, [r6, #26]	@ zero_extendqisi2
 726              	.L202:
 727 0060 D8F83C70 		ldr	r7, [r8, #60]
 728 0064 0025     		movs	r5, #0
 729 0066 7A1E     		subs	r2, r7, #1
 730 0068 07F10A0C 		add	ip, r7, #10
 731 006c 4FF02E0E 		mov	lr, #46
 732 0070 04E0     		b	.L214
 733              	.L213:
 734 0072 7019     		adds	r0, r6, r5
 735 0074 0135     		adds	r5, r5, #1
 736 0076 4373     		strb	r3, [r0, #13]
 737              	.L211:
 738 0078 6245     		cmp	r2, ip
 739 007a 13D0     		beq	.L251
 740              	.L214:
 741 007c 1046     		mov	r0, r2
ARM GAS  /tmp/cc2a13AN.s 			page 14


 742 007e 12F8013F 		ldrb	r3, [r2, #1]!	@ zero_extendqisi2
 743 0082 202B     		cmp	r3, #32
 744 0084 A0F10700 		sub	r0, r0, #7
 745 0088 99B2     		uxth	r1, r3
 746 008a F5D0     		beq	.L211
 747 008c 0529     		cmp	r1, #5
 748 008e 08BF     		it	eq
 749 0090 E523     		moveq	r3, #229
 750 0092 B842     		cmp	r0, r7
 751 0094 EDD1     		bne	.L213
 752 0096 0B2D     		cmp	r5, #11
 753 0098 EBD8     		bhi	.L213
 754 009a 7119     		adds	r1, r6, r5
 755 009c 0135     		adds	r5, r5, #1
 756 009e 81F80DE0 		strb	lr, [r1, #13]
 757 00a2 E6E7     		b	.L213
 758              	.L251:
 759 00a4 7319     		adds	r3, r6, r5
 760 00a6 0022     		movs	r2, #0
 761 00a8 5A73     		strb	r2, [r3, #13]
 762 00aa 6CB1     		cbz	r4, .L252
 763              	.L216:
 764 00ac FB7A     		ldrb	r3, [r7, #11]	@ zero_extendqisi2
 765 00ae 03F03F03 		and	r3, r3, #63
 766 00b2 3373     		strb	r3, [r6, #12]
 767 00b4 FB69     		ldr	r3, [r7, #28]	@ unaligned
 768 00b6 0022     		movs	r2, #0
 769 00b8 C6E90032 		strd	r3, r2, [r6]
 770 00bc FB8A     		ldrh	r3, [r7, #22]	@ unaligned
 771 00be 7381     		strh	r3, [r6, #10]	@ movhi
 772 00c0 3B8B     		ldrh	r3, [r7, #24]	@ unaligned
 773 00c2 3381     		strh	r3, [r6, #8]	@ movhi
 774              	.L185:
 775 00c4 BDE8F883 		pop	{r3, r4, r5, r6, r7, r8, r9, pc}
 776              	.L252:
 777 00c8 002D     		cmp	r5, #0
 778 00ca 3CD0     		beq	.L217
 779 00cc 737B     		ldrb	r3, [r6, #13]	@ zero_extendqisi2
 780 00ce 002B     		cmp	r3, #0
 781 00d0 3CD0     		beq	.L219
 782 00d2 6FF00B00 		mvn	r0, #11
 783 00d6 06F10D02 		add	r2, r6, #13
 784 00da 0825     		movs	r5, #8
 785 00dc 801B     		subs	r0, r0, r6
 786 00de 0CE0     		b	.L221
 787              	.L253:
 788 00e0 1929     		cmp	r1, #25
 789 00e2 05D8     		bhi	.L220
 790 00e4 397B     		ldrb	r1, [r7, #12]	@ zero_extendqisi2
 791 00e6 0D42     		tst	r5, r1
 792 00e8 03F12004 		add	r4, r3, #32
 793 00ec 00D0     		beq	.L220
 794 00ee E3B2     		uxtb	r3, r4
 795              	.L220:
 796 00f0 5373     		strb	r3, [r2, #13]
 797 00f2 8418     		adds	r4, r0, r2
 798 00f4 12F8013F 		ldrb	r3, [r2, #1]!	@ zero_extendqisi2
ARM GAS  /tmp/cc2a13AN.s 			page 15


 799 00f8 43B3     		cbz	r3, .L219
 800              	.L221:
 801 00fa 99B2     		uxth	r1, r3
 802 00fc 2E2B     		cmp	r3, #46
 803 00fe A1F14101 		sub	r1, r1, #65
 804 0102 EDD1     		bne	.L253
 805 0104 1025     		movs	r5, #16
 806 0106 F3E7     		b	.L220
 807              	.L207:
 808 0108 C8B1     		cbz	r0, .L230
 809 010a 002B     		cmp	r3, #0
 810 010c A2D0     		beq	.L208
 811 010e 06EB0903 		add	r3, r6, r9
 812 0112 9876     		strb	r0, [r3, #26]
 813 0114 0123     		movs	r3, #1
 814              	.L209:
 815 0116 E968     		ldr	r1, [r5, #12]
 816 0118 9944     		add	r9, r9, r3
 817 011a 0024     		movs	r4, #0
 818              	.L206:
 819 011c C85B     		ldrh	r0, [r1, r7]
 820 011e 0237     		adds	r7, r7, #2
 821 0120 0028     		cmp	r0, #0
 822 0122 83D1     		bne	.L203
 823 0124 4B46     		mov	r3, r9
 824 0126 002C     		cmp	r4, #0
 825 0128 95D1     		bne	.L210
 826 012a 95E7     		b	.L204
 827              	.L228:
 828 012c 0446     		mov	r4, r0
 829 012e F5E7     		b	.L206
 830              	.L250:
 831 0130 06EB0902 		add	r2, r6, r9
 832 0134 030A     		lsrs	r3, r0, #8
 833 0136 9376     		strb	r3, [r2, #26]
 834 0138 D076     		strb	r0, [r2, #27]
 835 013a 0223     		movs	r3, #2
 836 013c EBE7     		b	.L209
 837              	.L230:
 838 013e 0346     		mov	r3, r0
 839 0140 002C     		cmp	r4, #0
 840 0142 88D1     		bne	.L210
 841 0144 88E7     		b	.L204
 842              	.L217:
 843 0146 3F23     		movs	r3, #63
 844 0148 B376     		strb	r3, [r6, #26]
 845 014a 0124     		movs	r4, #1
 846              	.L219:
 847 014c 3444     		add	r4, r4, r6
 848 014e 0023     		movs	r3, #0
 849 0150 A376     		strb	r3, [r4, #26]
 850 0152 3B7B     		ldrb	r3, [r7, #12]	@ zero_extendqisi2
 851 0154 002B     		cmp	r3, #0
 852 0156 A9D1     		bne	.L216
 853 0158 7373     		strb	r3, [r6, #13]
 854 015a A7E7     		b	.L216
 855              	.L249:
ARM GAS  /tmp/cc2a13AN.s 			page 16


 856 015c 2B69     		ldr	r3, [r5, #16]
 857 015e 93F82320 		ldrb	r2, [r3, #35]	@ zero_extendqisi2
 858 0162 1846     		mov	r0, r3
 859 0164 E2B1     		cbz	r2, .L189
 860 0166 2246     		mov	r2, r4
 861 0168 A046     		mov	r8, r4
 862 016a 4027     		movs	r7, #64
 863              	.L188:
 864 016c F906     		lsls	r1, r7, #27
 865 016e 08BF     		it	eq
 866 0170 0237     		addeq	r7, r7, #2
 867 0172 0134     		adds	r4, r4, #1
 868 0174 D85B     		ldrh	r0, [r3, r7]	@ unaligned
 869 0176 0237     		adds	r7, r7, #2
 870 0178 2AB9     		cbnz	r2, .L192
 871 017a 00F52051 		add	r1, r0, #10240
 872 017e 89B2     		uxth	r1, r1
 873 0180 B1F5006F 		cmp	r1, #2048
 874 0184 3AD3     		bcc	.L224
 875              	.L192:
 876 0186 40EA0240 		orr	r0, r0, r2, lsl #16
 877 018a 40F25231 		movw	r1, #850
 878 018e FFF7FEFF 		bl	ff_uni2oem
 879 0192 FF28     		cmp	r0, #255
 880 0194 C8F1FF03 		rsb	r3, r8, #255
 881 0198 1CD9     		bls	.L194
 882 019a 012B     		cmp	r3, #1
 883 019c 30D8     		bhi	.L195
 884              	.L248:
 885 019e 2869     		ldr	r0, [r5, #16]
 886              	.L189:
 887 01a0 3F23     		movs	r3, #63
 888 01a2 B376     		strb	r3, [r6, #26]
 889 01a4 4FF00108 		mov	r8, #1
 890              	.L200:
 891 01a8 B044     		add	r8, r8, r6
 892 01aa 0023     		movs	r3, #0
 893 01ac 88F81A30 		strb	r3, [r8, #26]
 894 01b0 7373     		strb	r3, [r6, #13]
 895 01b2 0279     		ldrb	r2, [r0, #4]	@ zero_extendqisi2
 896 01b4 02F03701 		and	r1, r2, #55
 897 01b8 3173     		strb	r1, [r6, #12]
 898 01ba D206     		lsls	r2, r2, #27
 899 01bc 5ABF     		itte	pl
 900 01be 836B     		ldrpl	r3, [r0, #56]	@ unaligned
 901 01c0 C26B     		ldrpl	r2, [r0, #60]	@ unaligned
 902 01c2 1A46     		movmi	r2, r3
 903 01c4 C6E90032 		strd	r3, r2, [r6]
 904 01c8 8389     		ldrh	r3, [r0, #12]	@ unaligned
 905 01ca 7381     		strh	r3, [r6, #10]	@ movhi
 906 01cc C389     		ldrh	r3, [r0, #14]	@ unaligned
 907 01ce 3381     		strh	r3, [r6, #8]	@ movhi
 908 01d0 BDE8F883 		pop	{r3, r4, r5, r6, r7, r8, r9, pc}
 909              	.L194:
 910 01d4 0028     		cmp	r0, #0
 911 01d6 E2D0     		beq	.L248
 912 01d8 002B     		cmp	r3, #0
ARM GAS  /tmp/cc2a13AN.s 			page 17


 913 01da E0D0     		beq	.L248
 914 01dc 06EB0803 		add	r3, r6, r8
 915 01e0 9876     		strb	r0, [r3, #26]
 916 01e2 0123     		movs	r3, #1
 917              	.L196:
 918 01e4 9844     		add	r8, r8, r3
 919 01e6 2B69     		ldr	r3, [r5, #16]
 920 01e8 0022     		movs	r2, #0
 921              	.L193:
 922 01ea 93F82310 		ldrb	r1, [r3, #35]	@ zero_extendqisi2
 923 01ee A142     		cmp	r1, r4
 924 01f0 1846     		mov	r0, r3
 925 01f2 0CD9     		bls	.L254
 926 01f4 B7F5187F 		cmp	r7, #608
 927 01f8 B8D3     		bcc	.L188
 928 01fa D1E7     		b	.L189
 929              	.L224:
 930 01fc 0246     		mov	r2, r0
 931 01fe F4E7     		b	.L193
 932              	.L195:
 933 0200 06EB0803 		add	r3, r6, r8
 934 0204 D876     		strb	r0, [r3, #27]
 935 0206 000A     		lsrs	r0, r0, #8
 936 0208 9876     		strb	r0, [r3, #26]
 937 020a 0223     		movs	r3, #2
 938 020c EAE7     		b	.L196
 939              	.L254:
 940 020e 002A     		cmp	r2, #0
 941 0210 C6D1     		bne	.L189
 942 0212 B8F1000F 		cmp	r8, #0
 943 0216 C7D1     		bne	.L200
 944 0218 C2E7     		b	.L189
 945              		.size	get_fileinfo, .-get_fileinfo
 946 021a 00BF     		.section	.rodata.check_fs.str1.4,"aMS",%progbits,1
 947              		.align	2
 948              	.LC0:
 949 0000 EB769045 		.ascii	"\353v\220EXFAT   \000"
 949      58464154 
 949      20202000 
 950              		.align	2
 951              	.LC1:
 952 000c 46415433 		.ascii	"FAT32   \000"
 952      32202020 
 952      00
 953              		.section	.text.check_fs,"ax",%progbits
 954              		.align	1
 955              		.p2align 4,,15
 956              		.syntax unified
 957              		.thumb
 958              		.thumb_func
 959              		.fpu fpv4-sp-d16
 960              		.type	check_fs, %function
 961              	check_fs:
 962              		@ args = 0, pretend = 0, frame = 0
 963              		@ frame_needed = 0, uses_anonymous_args = 0
 964 0000 70B5     		push	{r4, r5, r6, lr}
 965 0002 4FF0FF36 		mov	r6, #-1
ARM GAS  /tmp/cc2a13AN.s 			page 18


 966 0006 0023     		movs	r3, #0
 967 0008 B142     		cmp	r1, r6
 968 000a 0446     		mov	r4, r0
 969 000c C370     		strb	r3, [r0, #3]
 970 000e C664     		str	r6, [r0, #76]
 971 0010 0CD0     		beq	.L256
 972 0012 0D46     		mov	r5, r1
 973 0014 0A46     		mov	r2, r1
 974 0016 4078     		ldrb	r0, [r0, #1]	@ zero_extendqisi2
 975 0018 0123     		movs	r3, #1
 976 001a 04F15001 		add	r1, r4, #80
 977 001e FFF7FEFF 		bl	disk_read
 978 0022 10B1     		cbz	r0, .L307
 979 0024 E664     		str	r6, [r4, #76]
 980 0026 0420     		movs	r0, #4
 981              	.L255:
 982 0028 70BD     		pop	{r4, r5, r6, pc}
 983              	.L307:
 984 002a E564     		str	r5, [r4, #76]
 985              	.L256:
 986 002c B4F84E52 		ldrh	r5, [r4, #590]	@ unaligned
 987 0030 4AF65523 		movw	r3, #43605
 988 0034 9D42     		cmp	r5, r3
 989 0036 1AD0     		beq	.L308
 990 0038 94F85030 		ldrb	r3, [r4, #80]	@ zero_extendqisi2
 991 003c 03F0FD02 		and	r2, r3, #253
 992 0040 E92A     		cmp	r2, #233
 993 0042 03D0     		beq	.L266
 994 0044 E82B     		cmp	r3, #232
 995 0046 01D0     		beq	.L266
 996              	.L306:
 997 0048 0320     		movs	r0, #3
 998 004a 70BD     		pop	{r4, r5, r6, pc}
 999              	.L266:
 1000 004c B4F85B30 		ldrh	r3, [r4, #91]	@ unaligned
 1001 0050 94F85D10 		ldrb	r1, [r4, #93]	@ zero_extendqisi2
 1002 0054 5A1E     		subs	r2, r3, #1
 1003 0056 1A42     		tst	r2, r3
 1004 0058 F6D1     		bne	.L306
 1005 005a B3F5007F 		cmp	r3, #512
 1006 005e 2BD0     		beq	.L269
 1007              	.L262:
 1008 0060 4AF65520 		movw	r0, #43605
 1009 0064 8542     		cmp	r5, r0
 1010 0066 14BF     		ite	ne
 1011 0068 0320     		movne	r0, #3
 1012 006a 0220     		moveq	r0, #2
 1013 006c 70BD     		pop	{r4, r5, r6, pc}
 1014              	.L308:
 1015 006e 2249     		ldr	r1, .L310
 1016 0070 0B22     		movs	r2, #11
 1017 0072 04F15000 		add	r0, r4, #80
 1018 0076 FFF7FEFF 		bl	memcmp
 1019 007a D8B1     		cbz	r0, .L309
 1020 007c 94F85030 		ldrb	r3, [r4, #80]	@ zero_extendqisi2
 1021 0080 03F0FD02 		and	r2, r3, #253
 1022 0084 E92A     		cmp	r2, #233
ARM GAS  /tmp/cc2a13AN.s 			page 19


 1023 0086 01D0     		beq	.L268
 1024 0088 E82B     		cmp	r3, #232
 1025 008a 11D1     		bne	.L305
 1026              	.L268:
 1027 008c 1B49     		ldr	r1, .L310+4
 1028 008e 0822     		movs	r2, #8
 1029 0090 04F1A200 		add	r0, r4, #162
 1030 0094 FFF7FEFF 		bl	memcmp
 1031 0098 0028     		cmp	r0, #0
 1032 009a C5D0     		beq	.L255
 1033 009c B4F85B30 		ldrh	r3, [r4, #91]	@ unaligned
 1034 00a0 94F85D10 		ldrb	r1, [r4, #93]	@ zero_extendqisi2
 1035 00a4 5A1E     		subs	r2, r3, #1
 1036 00a6 1A42     		tst	r2, r3
 1037 00a8 02D1     		bne	.L305
 1038 00aa B3F5007F 		cmp	r3, #512
 1039 00ae 03D0     		beq	.L269
 1040              	.L305:
 1041 00b0 0220     		movs	r0, #2
 1042 00b2 70BD     		pop	{r4, r5, r6, pc}
 1043              	.L309:
 1044 00b4 0120     		movs	r0, #1
 1045 00b6 70BD     		pop	{r4, r5, r6, pc}
 1046              	.L269:
 1047 00b8 0029     		cmp	r1, #0
 1048 00ba D1D0     		beq	.L262
 1049 00bc 4B1E     		subs	r3, r1, #1
 1050 00be 0B42     		tst	r3, r1
 1051 00c0 CED1     		bne	.L262
 1052 00c2 B4F85E30 		ldrh	r3, [r4, #94]	@ unaligned
 1053 00c6 002B     		cmp	r3, #0
 1054 00c8 CAD0     		beq	.L262
 1055 00ca 94F86030 		ldrb	r3, [r4, #96]	@ zero_extendqisi2
 1056 00ce 013B     		subs	r3, r3, #1
 1057 00d0 012B     		cmp	r3, #1
 1058 00d2 C5D8     		bhi	.L262
 1059 00d4 B4F86130 		ldrh	r3, [r4, #97]	@ unaligned
 1060 00d8 002B     		cmp	r3, #0
 1061 00da C1D0     		beq	.L262
 1062 00dc B4F86330 		ldrh	r3, [r4, #99]	@ unaligned
 1063 00e0 7F2B     		cmp	r3, #127
 1064 00e2 03D8     		bhi	.L263
 1065 00e4 236F     		ldr	r3, [r4, #112]	@ unaligned
 1066 00e6 B3F5803F 		cmp	r3, #65536
 1067 00ea B9D3     		bcc	.L262
 1068              	.L263:
 1069 00ec B4F86630 		ldrh	r3, [r4, #102]	@ unaligned
 1070 00f0 002B     		cmp	r3, #0
 1071 00f2 B5D0     		beq	.L262
 1072 00f4 0020     		movs	r0, #0
 1073 00f6 70BD     		pop	{r4, r5, r6, pc}
 1074              	.L311:
 1075              		.align	2
 1076              	.L310:
 1077 00f8 00000000 		.word	.LC0
 1078 00fc 0C000000 		.word	.LC1
 1079              		.size	check_fs, .-check_fs
ARM GAS  /tmp/cc2a13AN.s 			page 20


 1080              		.section	.text.change_bitmap,"ax",%progbits
 1081              		.align	1
 1082              		.p2align 4,,15
 1083              		.syntax unified
 1084              		.thumb
 1085              		.thumb_func
 1086              		.fpu fpv4-sp-d16
 1087              		.type	change_bitmap, %function
 1088              	change_bitmap:
 1089              		@ args = 0, pretend = 0, frame = 0
 1090              		@ frame_needed = 0, uses_anonymous_args = 0
 1091 0000 0239     		subs	r1, r1, #2
 1092 0002 2DE9F84F 		push	{r3, r4, r5, r6, r7, r8, r9, r10, fp, lr}
 1093 0006 0746     		mov	r7, r0
 1094 0008 01F00704 		and	r4, r1, #7
 1095 000c 806C     		ldr	r0, [r0, #72]
 1096 000e 4FF00109 		mov	r9, #1
 1097 0012 09FA04F4 		lsl	r4, r9, r4
 1098 0016 1546     		mov	r5, r2
 1099 0018 9846     		mov	r8, r3
 1100 001a 00EB113A 		add	r10, r0, r1, lsr #12
 1101 001e C1F3C806 		ubfx	r6, r1, #3, #9
 1102 0022 E4B2     		uxtb	r4, r4
 1103 0024 07F1500B 		add	fp, r7, #80
 1104              	.L324:
 1105 0028 FB6C     		ldr	r3, [r7, #76]
 1106 002a 5345     		cmp	r3, r10
 1107 002c 11D0     		beq	.L313
 1108 002e FB78     		ldrb	r3, [r7, #3]	@ zero_extendqisi2
 1109 0030 002B     		cmp	r3, #0
 1110 0032 40D1     		bne	.L314
 1111              	.L317:
 1112 0034 7878     		ldrb	r0, [r7, #1]	@ zero_extendqisi2
 1113 0036 0123     		movs	r3, #1
 1114 0038 5246     		mov	r2, r10
 1115 003a 5946     		mov	r1, fp
 1116 003c FFF7FEFF 		bl	disk_read
 1117 0040 28B1     		cbz	r0, .L337
 1118 0042 4FF0FF33 		mov	r3, #-1
 1119 0046 FB64     		str	r3, [r7, #76]
 1120              	.L336:
 1121 0048 0120     		movs	r0, #1
 1122 004a BDE8F88F 		pop	{r3, r4, r5, r6, r7, r8, r9, r10, fp, pc}
 1123              	.L337:
 1124 004e C7F84CA0 		str	r10, [r7, #76]
 1125              	.L313:
 1126 0052 BB19     		adds	r3, r7, r6
 1127 0054 93F85020 		ldrb	r2, [r3, #80]	@ zero_extendqisi2
 1128 0058 1442     		tst	r4, r2
 1129 005a 14BF     		ite	ne
 1130 005c 0121     		movne	r1, #1
 1131 005e 0021     		moveq	r1, #0
 1132 0060 8845     		cmp	r8, r1
 1133 0062 22D0     		beq	.L321
 1134 0064 6240     		eors	r2, r2, r4
 1135 0066 013D     		subs	r5, r5, #1
 1136 0068 83F85020 		strb	r2, [r3, #80]
ARM GAS  /tmp/cc2a13AN.s 			page 21


 1137 006c 87F80390 		strb	r9, [r7, #3]
 1138 0070 06D1     		bne	.L320
 1139 0072 1DE0     		b	.L322
 1140              	.L339:
 1141 0074 013D     		subs	r5, r5, #1
 1142 0076 83F850C0 		strb	ip, [r3, #80]
 1143 007a 87F80390 		strb	r9, [r7, #3]
 1144 007e 17D0     		beq	.L322
 1145              	.L320:
 1146 0080 6400     		lsls	r4, r4, #1
 1147 0082 14F0FF04 		ands	r4, r4, #255
 1148 0086 05D1     		bne	.L323
 1149 0088 0136     		adds	r6, r6, #1
 1150 008a B6F5007F 		cmp	r6, #512
 1151 008e 18D0     		beq	.L338
 1152 0090 0124     		movs	r4, #1
 1153 0092 BB19     		adds	r3, r7, r6
 1154              	.L323:
 1155 0094 93F850C0 		ldrb	ip, [r3, #80]	@ zero_extendqisi2
 1156 0098 1CEA040F 		tst	ip, r4
 1157 009c 14BF     		ite	ne
 1158 009e 0122     		movne	r2, #1
 1159 00a0 0022     		moveq	r2, #0
 1160 00a2 4245     		cmp	r2, r8
 1161 00a4 8CEA040C 		eor	ip, ip, r4
 1162 00a8 E4D1     		bne	.L339
 1163              	.L321:
 1164 00aa 0220     		movs	r0, #2
 1165 00ac BDE8F88F 		pop	{r3, r4, r5, r6, r7, r8, r9, r10, fp, pc}
 1166              	.L322:
 1167 00b0 0020     		movs	r0, #0
 1168 00b2 BDE8F88F 		pop	{r3, r4, r5, r6, r7, r8, r9, r10, fp, pc}
 1169              	.L314:
 1170 00b6 3846     		mov	r0, r7
 1171 00b8 FFF7FEFF 		bl	sync_window.part.0
 1172 00bc 0028     		cmp	r0, #0
 1173 00be B9D0     		beq	.L317
 1174 00c0 C2E7     		b	.L336
 1175              	.L338:
 1176 00c2 2646     		mov	r6, r4
 1177 00c4 0AF1010A 		add	r10, r10, #1
 1178 00c8 0124     		movs	r4, #1
 1179 00ca ADE7     		b	.L324
 1180              		.size	change_bitmap, .-change_bitmap
 1181              		.section	.text.find_bitmap,"ax",%progbits
 1182              		.align	1
 1183              		.p2align 4,,15
 1184              		.syntax unified
 1185              		.thumb
 1186              		.thumb_func
 1187              		.fpu fpv4-sp-d16
 1188              		.type	find_bitmap, %function
 1189              	find_bitmap:
 1190              		@ args = 0, pretend = 0, frame = 8
 1191              		@ frame_needed = 0, uses_anonymous_args = 0
 1192 0000 2DE9F04F 		push	{r4, r5, r6, r7, r8, r9, r10, fp, lr}
 1193 0004 D0F830C0 		ldr	ip, [r0, #48]
ARM GAS  /tmp/cc2a13AN.s 			page 22


 1194 0008 8F1E     		subs	r7, r1, #2
 1195 000a ACF10203 		sub	r3, ip, #2
 1196 000e BB42     		cmp	r3, r7
 1197 0010 98BF     		it	ls
 1198 0012 0027     		movls	r7, #0
 1199 0014 83B0     		sub	sp, sp, #12
 1200 0016 0646     		mov	r6, r0
 1201 0018 9146     		mov	r9, r2
 1202 001a B846     		mov	r8, r7
 1203 001c 3C46     		mov	r4, r7
 1204 001e 0025     		movs	r5, #0
 1205 0020 00F1500B 		add	fp, r0, #80
 1206 0024 4FF0010A 		mov	r10, #1
 1207              	.L352:
 1208 0028 B26C     		ldr	r2, [r6, #72]
 1209 002a F36C     		ldr	r3, [r6, #76]
 1210 002c 02EB1432 		add	r2, r2, r4, lsr #12
 1211 0030 9A42     		cmp	r2, r3
 1212 0032 13D0     		beq	.L342
 1213 0034 F378     		ldrb	r3, [r6, #3]	@ zero_extendqisi2
 1214 0036 002B     		cmp	r3, #0
 1215 0038 44D1     		bne	.L343
 1216              	.L346:
 1217 003a 7078     		ldrb	r0, [r6, #1]	@ zero_extendqisi2
 1218 003c 0192     		str	r2, [sp, #4]
 1219 003e 0123     		movs	r3, #1
 1220 0040 5946     		mov	r1, fp
 1221 0042 FFF7FEFF 		bl	disk_read
 1222 0046 28B1     		cbz	r0, .L363
 1223 0048 4FF0FF30 		mov	r0, #-1
 1224 004c F064     		str	r0, [r6, #76]
 1225 004e 03B0     		add	sp, sp, #12
 1226              		@ sp needed
 1227 0050 BDE8F08F 		pop	{r4, r5, r6, r7, r8, r9, r10, fp, pc}
 1228              	.L363:
 1229 0054 019A     		ldr	r2, [sp, #4]
 1230 0056 D6F830C0 		ldr	ip, [r6, #48]
 1231 005a F264     		str	r2, [r6, #76]
 1232              	.L342:
 1233 005c 04F00703 		and	r3, r4, #7
 1234 0060 0AFA03F3 		lsl	r3, r10, r3
 1235 0064 DBB2     		uxtb	r3, r3
 1236 0066 C4F3C801 		ubfx	r1, r4, #3, #9
 1237 006a ACF1020E 		sub	lr, ip, #2
 1238              	.L348:
 1239 006e 7218     		adds	r2, r6, r1
 1240 0070 0134     		adds	r4, r4, #1
 1241 0072 92F85020 		ldrb	r2, [r2, #80]	@ zero_extendqisi2
 1242 0076 A645     		cmp	lr, r4
 1243 0078 4FEA4300 		lsl	r0, r3, #1
 1244 007c 02EA0302 		and	r2, r2, r3
 1245 0080 97BF     		itett	ls
 1246 0082 0024     		movls	r4, #0
 1247 0084 C3B2     		uxtbhi	r3, r0
 1248 0086 2346     		movls	r3, r4
 1249 0088 4FF40071 		movls	r1, #512
 1250 008c 0135     		adds	r5, r5, #1
ARM GAS  /tmp/cc2a13AN.s 			page 23


 1251 008e 5AB9     		cbnz	r2, .L354
 1252 0090 4D45     		cmp	r5, r9
 1253 0092 12D0     		beq	.L364
 1254 0094 A742     		cmp	r7, r4
 1255 0096 0CD0     		beq	.L355
 1256              	.L365:
 1257 0098 002B     		cmp	r3, #0
 1258 009a E8D1     		bne	.L348
 1259 009c 0123     		movs	r3, #1
 1260 009e 1944     		add	r1, r1, r3
 1261 00a0 B1F5007F 		cmp	r1, #512
 1262 00a4 E3D3     		bcc	.L348
 1263 00a6 BFE7     		b	.L352
 1264              	.L354:
 1265 00a8 A742     		cmp	r7, r4
 1266 00aa 4FF00005 		mov	r5, #0
 1267 00ae A046     		mov	r8, r4
 1268 00b0 F2D1     		bne	.L365
 1269              	.L355:
 1270 00b2 0020     		movs	r0, #0
 1271 00b4 03B0     		add	sp, sp, #12
 1272              		@ sp needed
 1273 00b6 BDE8F08F 		pop	{r4, r5, r6, r7, r8, r9, r10, fp, pc}
 1274              	.L364:
 1275 00ba 08F10200 		add	r0, r8, #2
 1276 00be 03B0     		add	sp, sp, #12
 1277              		@ sp needed
 1278 00c0 BDE8F08F 		pop	{r4, r5, r6, r7, r8, r9, r10, fp, pc}
 1279              	.L343:
 1280 00c4 3046     		mov	r0, r6
 1281 00c6 0192     		str	r2, [sp, #4]
 1282 00c8 FFF7FEFF 		bl	sync_window.part.0
 1283 00cc 019A     		ldr	r2, [sp, #4]
 1284 00ce 0028     		cmp	r0, #0
 1285 00d0 B3D0     		beq	.L346
 1286 00d2 4FF0FF30 		mov	r0, #-1
 1287 00d6 03B0     		add	sp, sp, #12
 1288              		@ sp needed
 1289 00d8 BDE8F08F 		pop	{r4, r5, r6, r7, r8, r9, r10, fp, pc}
 1290              		.size	find_bitmap, .-find_bitmap
 1291              		.section	.text.put_fat.part.0,"ax",%progbits
 1292              		.align	1
 1293              		.p2align 4,,15
 1294              		.syntax unified
 1295              		.thumb
 1296              		.thumb_func
 1297              		.fpu fpv4-sp-d16
 1298              		.type	put_fat.part.0, %function
 1299              	put_fat.part.0:
 1300              		@ args = 0, pretend = 0, frame = 0
 1301              		@ frame_needed = 0, uses_anonymous_args = 0
 1302 0000 2DE9F843 		push	{r3, r4, r5, r6, r7, r8, r9, lr}
 1303 0004 0378     		ldrb	r3, [r0]	@ zero_extendqisi2
 1304 0006 022B     		cmp	r3, #2
 1305 0008 0446     		mov	r4, r0
 1306 000a 0D46     		mov	r5, r1
 1307 000c 1646     		mov	r6, r2
ARM GAS  /tmp/cc2a13AN.s 			page 24


 1308 000e 7CD0     		beq	.L367
 1309 0010 45D8     		bhi	.L368
 1310 0012 012B     		cmp	r3, #1
 1311 0014 76D1     		bne	.L397
 1312 0016 C26B     		ldr	r2, [r0, #60]
 1313 0018 C36C     		ldr	r3, [r0, #76]
 1314 001a 01EB5107 		add	r7, r1, r1, lsr #1
 1315 001e 02EB5728 		add	r8, r2, r7, lsr #9
 1316 0022 9845     		cmp	r8, r3
 1317 0024 00F09780 		beq	.L417
 1318 0028 C378     		ldrb	r3, [r0, #3]	@ zero_extendqisi2
 1319 002a 002B     		cmp	r3, #0
 1320 002c 40F0CB80 		bne	.L374
 1321              	.L377:
 1322 0030 04F15009 		add	r9, r4, #80
 1323 0034 6078     		ldrb	r0, [r4, #1]	@ zero_extendqisi2
 1324 0036 0123     		movs	r3, #1
 1325 0038 4246     		mov	r2, r8
 1326 003a 4946     		mov	r1, r9
 1327 003c FFF7FEFF 		bl	disk_read
 1328 0040 38BB     		cbnz	r0, .L375
 1329 0042 C4F84C80 		str	r8, [r4, #76]
 1330              	.L373:
 1331 0046 15F00105 		ands	r5, r5, #1
 1332 004a 07F10108 		add	r8, r7, #1
 1333 004e C7F30807 		ubfx	r7, r7, #0, #9
 1334 0052 00F08E80 		beq	.L378
 1335 0056 19F80730 		ldrb	r3, [r9, r7]	@ zero_extendqisi2
 1336 005a 03F00F03 		and	r3, r3, #15
 1337 005e 43EA0613 		orr	r3, r3, r6, lsl #4
 1338 0062 09F80730 		strb	r3, [r9, r7]
 1339 0066 0123     		movs	r3, #1
 1340 0068 E76B     		ldr	r7, [r4, #60]
 1341 006a E370     		strb	r3, [r4, #3]
 1342 006c E36C     		ldr	r3, [r4, #76]
 1343 006e 07EB5827 		add	r7, r7, r8, lsr #9
 1344 0072 9F42     		cmp	r7, r3
 1345 0074 00F0AD80 		beq	.L418
 1346              	.L379:
 1347 0078 2046     		mov	r0, r4
 1348 007a FFF7FEFF 		bl	sync_window.part.0
 1349 007e 0028     		cmp	r0, #0
 1350 0080 41D1     		bne	.L398
 1351 0082 6078     		ldrb	r0, [r4, #1]	@ zero_extendqisi2
 1352 0084 0123     		movs	r3, #1
 1353 0086 3A46     		mov	r2, r7
 1354 0088 4946     		mov	r1, r9
 1355 008a FFF7FEFF 		bl	disk_read
 1356 008e 0028     		cmp	r0, #0
 1357 0090 67D0     		beq	.L419
 1358              	.L375:
 1359 0092 4FF0FF33 		mov	r3, #-1
 1360 0096 E364     		str	r3, [r4, #76]
 1361 0098 0120     		movs	r0, #1
 1362 009a BDE8F883 		pop	{r3, r4, r5, r6, r7, r8, r9, pc}
 1363              	.L368:
 1364 009e D91E     		subs	r1, r3, #3
ARM GAS  /tmp/cc2a13AN.s 			page 25


 1365 00a0 0129     		cmp	r1, #1
 1366 00a2 2FD8     		bhi	.L397
 1367 00a4 C76B     		ldr	r7, [r0, #60]
 1368 00a6 C26C     		ldr	r2, [r0, #76]
 1369 00a8 07EBD517 		add	r7, r7, r5, lsr #7
 1370 00ac 9742     		cmp	r7, r2
 1371 00ae 4FD0     		beq	.L420
 1372 00b0 C378     		ldrb	r3, [r0, #3]	@ zero_extendqisi2
 1373 00b2 002B     		cmp	r3, #0
 1374 00b4 7CD1     		bne	.L391
 1375              	.L393:
 1376 00b6 04F15008 		add	r8, r4, #80
 1377 00ba 6078     		ldrb	r0, [r4, #1]	@ zero_extendqisi2
 1378 00bc 0123     		movs	r3, #1
 1379 00be 3A46     		mov	r2, r7
 1380 00c0 4146     		mov	r1, r8
 1381 00c2 FFF7FEFF 		bl	disk_read
 1382 00c6 0028     		cmp	r0, #0
 1383 00c8 E3D1     		bne	.L375
 1384 00ca 2378     		ldrb	r3, [r4]	@ zero_extendqisi2
 1385 00cc E764     		str	r7, [r4, #76]
 1386              	.L390:
 1387 00ce 042B     		cmp	r3, #4
 1388 00d0 69D0     		beq	.L421
 1389 00d2 AD00     		lsls	r5, r5, #2
 1390 00d4 05F4FE75 		and	r5, r5, #508
 1391 00d8 26F07042 		bic	r2, r6, #-268435456
 1392 00dc 58F80510 		ldr	r1, [r8, r5]	@ unaligned
 1393 00e0 01F07041 		and	r1, r1, #-268435456
 1394 00e4 08EB0503 		add	r3, r8, r5
 1395 00e8 41EA0206 		orr	r6, r1, r2
 1396              	.L395:
 1397 00ec 310C     		lsrs	r1, r6, #16
 1398 00ee 300A     		lsrs	r0, r6, #8
 1399 00f0 9970     		strb	r1, [r3, #2]
 1400 00f2 320E     		lsrs	r2, r6, #24
 1401 00f4 0121     		movs	r1, #1
 1402 00f6 5870     		strb	r0, [r3, #1]
 1403 00f8 1E70     		strb	r6, [r3]
 1404 00fa DA70     		strb	r2, [r3, #3]
 1405 00fc E170     		strb	r1, [r4, #3]
 1406 00fe 0020     		movs	r0, #0
 1407 0100 BDE8F883 		pop	{r3, r4, r5, r6, r7, r8, r9, pc}
 1408              	.L397:
 1409 0104 0220     		movs	r0, #2
 1410              	.L398:
 1411 0106 BDE8F883 		pop	{r3, r4, r5, r6, r7, r8, r9, pc}
 1412              	.L367:
 1413 010a C76B     		ldr	r7, [r0, #60]
 1414 010c C36C     		ldr	r3, [r0, #76]
 1415 010e 07EB1127 		add	r7, r7, r1, lsr #8
 1416 0112 9F42     		cmp	r7, r3
 1417 0114 22D0     		beq	.L422
 1418 0116 C378     		ldrb	r3, [r0, #3]	@ zero_extendqisi2
 1419 0118 002B     		cmp	r3, #0
 1420 011a 4FD1     		bne	.L386
 1421              	.L388:
ARM GAS  /tmp/cc2a13AN.s 			page 26


 1422 011c 04F15008 		add	r8, r4, #80
 1423 0120 6078     		ldrb	r0, [r4, #1]	@ zero_extendqisi2
 1424 0122 0123     		movs	r3, #1
 1425 0124 3A46     		mov	r2, r7
 1426 0126 4146     		mov	r1, r8
 1427 0128 FFF7FEFF 		bl	disk_read
 1428 012c 0028     		cmp	r0, #0
 1429 012e B0D1     		bne	.L375
 1430 0130 E764     		str	r7, [r4, #76]
 1431              	.L385:
 1432 0132 6D00     		lsls	r5, r5, #1
 1433 0134 05F4FF75 		and	r5, r5, #510
 1434 0138 08EB0501 		add	r1, r8, r5
 1435 013c 08F80560 		strb	r6, [r8, r5]
 1436 0140 C6F30722 		ubfx	r2, r6, #8, #8
 1437 0144 0123     		movs	r3, #1
 1438 0146 4A70     		strb	r2, [r1, #1]
 1439 0148 E370     		strb	r3, [r4, #3]
 1440 014a 0020     		movs	r0, #0
 1441 014c BDE8F883 		pop	{r3, r4, r5, r6, r7, r8, r9, pc}
 1442              	.L420:
 1443 0150 00F15008 		add	r8, r0, #80
 1444 0154 BBE7     		b	.L390
 1445              	.L417:
 1446 0156 00F15009 		add	r9, r0, #80
 1447 015a 74E7     		b	.L373
 1448              	.L422:
 1449 015c 00F15008 		add	r8, r0, #80
 1450 0160 E7E7     		b	.L385
 1451              	.L419:
 1452 0162 C8F30801 		ubfx	r1, r8, #0, #9
 1453 0166 E764     		str	r7, [r4, #76]
 1454 0168 4944     		add	r1, r1, r9
 1455 016a 85B1     		cbz	r5, .L382
 1456              	.L396:
 1457 016c C6F30712 		ubfx	r2, r6, #4, #8
 1458 0170 13E0     		b	.L383
 1459              	.L378:
 1460 0172 09F80760 		strb	r6, [r9, r7]
 1461 0176 0123     		movs	r3, #1
 1462 0178 E76B     		ldr	r7, [r4, #60]
 1463 017a E370     		strb	r3, [r4, #3]
 1464 017c E36C     		ldr	r3, [r4, #76]
 1465 017e 07EB5827 		add	r7, r7, r8, lsr #9
 1466 0182 9F42     		cmp	r7, r3
 1467 0184 7FF478AF 		bne	.L379
 1468 0188 C8F30801 		ubfx	r1, r8, #0, #9
 1469 018c 4944     		add	r1, r1, r9
 1470              	.L382:
 1471 018e 0B78     		ldrb	r3, [r1]	@ zero_extendqisi2
 1472 0190 C6F30322 		ubfx	r2, r6, #8, #4
 1473 0194 23F00F06 		bic	r6, r3, #15
 1474 0198 3243     		orrs	r2, r2, r6
 1475              	.L383:
 1476 019a 0123     		movs	r3, #1
 1477 019c 0A70     		strb	r2, [r1]
 1478 019e E370     		strb	r3, [r4, #3]
ARM GAS  /tmp/cc2a13AN.s 			page 27


 1479 01a0 0020     		movs	r0, #0
 1480 01a2 BDE8F883 		pop	{r3, r4, r5, r6, r7, r8, r9, pc}
 1481              	.L421:
 1482 01a6 AB00     		lsls	r3, r5, #2
 1483 01a8 03F4FE73 		and	r3, r3, #508
 1484 01ac 4344     		add	r3, r3, r8
 1485 01ae 9DE7     		b	.L395
 1486              	.L391:
 1487 01b0 FFF7FEFF 		bl	sync_window.part.0
 1488 01b4 0028     		cmp	r0, #0
 1489 01b6 3FF47EAF 		beq	.L393
 1490 01ba A4E7     		b	.L398
 1491              	.L386:
 1492 01bc FFF7FEFF 		bl	sync_window.part.0
 1493 01c0 0028     		cmp	r0, #0
 1494 01c2 ABD0     		beq	.L388
 1495 01c4 9FE7     		b	.L398
 1496              	.L374:
 1497 01c6 FFF7FEFF 		bl	sync_window.part.0
 1498 01ca 0028     		cmp	r0, #0
 1499 01cc 3FF430AF 		beq	.L377
 1500 01d0 99E7     		b	.L398
 1501              	.L418:
 1502 01d2 C8F30803 		ubfx	r3, r8, #0, #9
 1503 01d6 09EB0301 		add	r1, r9, r3
 1504 01da C7E7     		b	.L396
 1505              		.size	put_fat.part.0, .-put_fat.part.0
 1506              		.section	.text.fill_first_frag.part.0,"ax",%progbits
 1507              		.align	1
 1508              		.p2align 4,,15
 1509              		.syntax unified
 1510              		.thumb
 1511              		.thumb_func
 1512              		.fpu fpv4-sp-d16
 1513              		.type	fill_first_frag.part.0, %function
 1514              	fill_first_frag.part.0:
 1515              		@ args = 0, pretend = 0, frame = 0
 1516              		@ frame_needed = 0, uses_anonymous_args = 0
 1517 0000 F8B5     		push	{r3, r4, r5, r6, r7, lr}
 1518 0002 8669     		ldr	r6, [r0, #24]
 1519 0004 8468     		ldr	r4, [r0, #8]
 1520 0006 0746     		mov	r7, r0
 1521 0008 B6B1     		cbz	r6, .L430
 1522 000a 012C     		cmp	r4, #1
 1523 000c 12D9     		bls	.L428
 1524 000e 2644     		add	r6, r6, r4
 1525 0010 0068     		ldr	r0, [r0]
 1526 0012 013E     		subs	r6, r6, #1
 1527 0014 08E0     		b	.L427
 1528              	.L432:
 1529 0016 FFF7FEFF 		bl	put_fat.part.0
 1530 001a 60B9     		cbnz	r0, .L425
 1531 001c A642     		cmp	r6, r4
 1532 001e 0BD0     		beq	.L430
 1533 0020 012D     		cmp	r5, #1
 1534 0022 07D9     		bls	.L428
 1535 0024 3868     		ldr	r0, [r7]
ARM GAS  /tmp/cc2a13AN.s 			page 28


 1536 0026 2C46     		mov	r4, r5
 1537              	.L427:
 1538 0028 036B     		ldr	r3, [r0, #48]
 1539 002a 651C     		adds	r5, r4, #1
 1540 002c A342     		cmp	r3, r4
 1541 002e 2146     		mov	r1, r4
 1542 0030 2A46     		mov	r2, r5
 1543 0032 F0D8     		bhi	.L432
 1544              	.L428:
 1545 0034 0220     		movs	r0, #2
 1546              	.L425:
 1547 0036 F8BD     		pop	{r3, r4, r5, r6, r7, pc}
 1548              	.L430:
 1549 0038 0023     		movs	r3, #0
 1550 003a FB71     		strb	r3, [r7, #7]
 1551 003c 1846     		mov	r0, r3
 1552 003e F8BD     		pop	{r3, r4, r5, r6, r7, pc}
 1553              		.size	fill_first_frag.part.0, .-fill_first_frag.part.0
 1554              		.section	.text.fill_last_frag,"ax",%progbits
 1555              		.align	1
 1556              		.p2align 4,,15
 1557              		.syntax unified
 1558              		.thumb
 1559              		.thumb_func
 1560              		.fpu fpv4-sp-d16
 1561              		.type	fill_last_frag, %function
 1562              	fill_last_frag:
 1563              		@ args = 0, pretend = 0, frame = 0
 1564              		@ frame_needed = 0, uses_anonymous_args = 0
 1565 0000 C369     		ldr	r3, [r0, #28]
 1566 0002 03B3     		cbz	r3, .L446
 1567 0004 70B5     		push	{r4, r5, r6, lr}
 1568 0006 0446     		mov	r4, r0
 1569 0008 0E46     		mov	r6, r1
 1570 000a 1546     		mov	r5, r2
 1571 000c 0AE0     		b	.L437
 1572              	.L450:
 1573 000e 2068     		ldr	r0, [r4]
 1574 0010 036B     		ldr	r3, [r0, #48]
 1575 0012 9E45     		cmp	lr, r3
 1576 0014 13D2     		bcs	.L440
 1577 0016 FFF7FEFF 		bl	put_fat.part.0
 1578 001a 88B9     		cbnz	r0, .L436
 1579 001c E369     		ldr	r3, [r4, #28]
 1580 001e 013B     		subs	r3, r3, #1
 1581 0020 E361     		str	r3, [r4, #28]
 1582 0022 73B1     		cbz	r3, .L449
 1583              	.L437:
 1584 0024 A6EB030C 		sub	ip, r6, r3
 1585 0028 012B     		cmp	r3, #1
 1586 002a 0CF1010E 		add	lr, ip, #1
 1587 002e 14BF     		ite	ne
 1588 0030 0CF10202 		addne	r2, ip, #2
 1589 0034 2A46     		moveq	r2, r5
 1590 0036 BEF1010F 		cmp	lr, #1
 1591 003a 7146     		mov	r1, lr
 1592 003c E7D8     		bhi	.L450
ARM GAS  /tmp/cc2a13AN.s 			page 29


 1593              	.L440:
 1594 003e 0220     		movs	r0, #2
 1595              	.L436:
 1596 0040 70BD     		pop	{r4, r5, r6, pc}
 1597              	.L449:
 1598 0042 0020     		movs	r0, #0
 1599 0044 70BD     		pop	{r4, r5, r6, pc}
 1600              	.L446:
 1601 0046 0020     		movs	r0, #0
 1602 0048 7047     		bx	lr
 1603              		.size	fill_last_frag, .-fill_last_frag
 1604 004a 00BF     		.section	.text.get_fat,"ax",%progbits
 1605              		.align	1
 1606              		.p2align 4,,15
 1607              		.syntax unified
 1608              		.thumb
 1609              		.thumb_func
 1610              		.fpu fpv4-sp-d16
 1611              		.type	get_fat, %function
 1612              	get_fat:
 1613              		@ args = 0, pretend = 0, frame = 0
 1614              		@ frame_needed = 0, uses_anonymous_args = 0
 1615 0000 0129     		cmp	r1, #1
 1616 0002 11D9     		bls	.L493
 1617 0004 2DE9F041 		push	{r4, r5, r6, r7, r8, lr}
 1618 0008 0568     		ldr	r5, [r0]
 1619 000a 2B6B     		ldr	r3, [r5, #48]
 1620 000c 8B42     		cmp	r3, r1
 1621 000e 0C46     		mov	r4, r1
 1622 0010 02D8     		bhi	.L526
 1623              	.L496:
 1624 0012 0120     		movs	r0, #1
 1625              	.L451:
 1626 0014 BDE8F081 		pop	{r4, r5, r6, r7, r8, pc}
 1627              	.L526:
 1628 0018 2B78     		ldrb	r3, [r5]	@ zero_extendqisi2
 1629 001a 013B     		subs	r3, r3, #1
 1630 001c 032B     		cmp	r3, #3
 1631 001e F8D8     		bhi	.L496
 1632 0020 DFE803F0 		tbb	[pc, r3]
 1633              	.L454:
 1634 0024 64       		.byte	(.L457-.L454)/2
 1635 0025 4B       		.byte	(.L456-.L454)/2
 1636 0026 2F       		.byte	(.L455-.L454)/2
 1637 0027 04       		.byte	(.L453-.L454)/2
 1638              		.p2align 1
 1639              	.L493:
 1640 0028 0120     		movs	r0, #1
 1641 002a 7047     		bx	lr
 1642              	.L453:
 1643 002c D0E90432 		ldrd	r3, r2, [r0, #16]
 1644 0030 53EA0201 		orrs	r1, r3, r2
 1645 0034 40F09580 		bne	.L527
 1646              	.L482:
 1647 0038 C379     		ldrb	r3, [r0, #7]	@ zero_extendqisi2
 1648 003a 002B     		cmp	r3, #0
 1649 003c E9D1     		bne	.L496
ARM GAS  /tmp/cc2a13AN.s 			page 30


 1650              	.L484:
 1651 003e C369     		ldr	r3, [r0, #28]
 1652 0040 002B     		cmp	r3, #0
 1653 0042 40F0CC80 		bne	.L498
 1654 0046 EE6B     		ldr	r6, [r5, #60]
 1655 0048 EB6C     		ldr	r3, [r5, #76]
 1656 004a 06EBD416 		add	r6, r6, r4, lsr #7
 1657 004e 9E42     		cmp	r6, r3
 1658 0050 00F0CE80 		beq	.L528
 1659 0054 EB78     		ldrb	r3, [r5, #3]	@ zero_extendqisi2
 1660 0056 002B     		cmp	r3, #0
 1661 0058 40F0CD80 		bne	.L489
 1662              	.L492:
 1663 005c 05F15007 		add	r7, r5, #80
 1664 0060 6878     		ldrb	r0, [r5, #1]	@ zero_extendqisi2
 1665 0062 0123     		movs	r3, #1
 1666 0064 3246     		mov	r2, r6
 1667 0066 3946     		mov	r1, r7
 1668 0068 FFF7FEFF 		bl	disk_read
 1669 006c 0028     		cmp	r0, #0
 1670 006e 40F09080 		bne	.L490
 1671 0072 EE64     		str	r6, [r5, #76]
 1672              	.L488:
 1673 0074 A300     		lsls	r3, r4, #2
 1674 0076 03F4FE73 		and	r3, r3, #508
 1675 007a F858     		ldr	r0, [r7, r3]	@ unaligned
 1676 007c 20F00040 		bic	r0, r0, #-2147483648
 1677 0080 C8E7     		b	.L451
 1678              	.L455:
 1679 0082 EE6B     		ldr	r6, [r5, #60]
 1680 0084 EB6C     		ldr	r3, [r5, #76]
 1681 0086 06EBD116 		add	r6, r6, r1, lsr #7
 1682 008a 9E42     		cmp	r6, r3
 1683 008c 7ED0     		beq	.L529
 1684 008e EB78     		ldrb	r3, [r5, #3]	@ zero_extendqisi2
 1685 0090 002B     		cmp	r3, #0
 1686 0092 40F09080 		bne	.L478
 1687              	.L481:
 1688 0096 05F15007 		add	r7, r5, #80
 1689 009a 6878     		ldrb	r0, [r5, #1]	@ zero_extendqisi2
 1690 009c 0123     		movs	r3, #1
 1691 009e 3246     		mov	r2, r6
 1692 00a0 3946     		mov	r1, r7
 1693 00a2 FFF7FEFF 		bl	disk_read
 1694 00a6 0028     		cmp	r0, #0
 1695 00a8 73D1     		bne	.L490
 1696 00aa EE64     		str	r6, [r5, #76]
 1697              	.L477:
 1698 00ac A400     		lsls	r4, r4, #2
 1699 00ae 04F4FE74 		and	r4, r4, #508
 1700 00b2 3859     		ldr	r0, [r7, r4]	@ unaligned
 1701 00b4 20F07040 		bic	r0, r0, #-268435456
 1702 00b8 ACE7     		b	.L451
 1703              	.L456:
 1704 00ba EE6B     		ldr	r6, [r5, #60]
 1705 00bc EB6C     		ldr	r3, [r5, #76]
 1706 00be 06EB1126 		add	r6, r6, r1, lsr #8
ARM GAS  /tmp/cc2a13AN.s 			page 31


 1707 00c2 9E42     		cmp	r6, r3
 1708 00c4 5FD0     		beq	.L530
 1709 00c6 EB78     		ldrb	r3, [r5, #3]	@ zero_extendqisi2
 1710 00c8 002B     		cmp	r3, #0
 1711 00ca 6ED1     		bne	.L472
 1712              	.L475:
 1713 00cc 05F15007 		add	r7, r5, #80
 1714 00d0 6878     		ldrb	r0, [r5, #1]	@ zero_extendqisi2
 1715 00d2 0123     		movs	r3, #1
 1716 00d4 3246     		mov	r2, r6
 1717 00d6 3946     		mov	r1, r7
 1718 00d8 FFF7FEFF 		bl	disk_read
 1719 00dc 0028     		cmp	r0, #0
 1720 00de 58D1     		bne	.L490
 1721 00e0 EE64     		str	r6, [r5, #76]
 1722              	.L471:
 1723 00e2 6400     		lsls	r4, r4, #1
 1724 00e4 04F4FF74 		and	r4, r4, #510
 1725 00e8 385B     		ldrh	r0, [r7, r4]	@ unaligned
 1726 00ea 93E7     		b	.L451
 1727              	.L457:
 1728 00ec EA6B     		ldr	r2, [r5, #60]
 1729 00ee 01EB5107 		add	r7, r1, r1, lsr #1
 1730 00f2 E96C     		ldr	r1, [r5, #76]
 1731 00f4 02EB5726 		add	r6, r2, r7, lsr #9
 1732 00f8 8E42     		cmp	r6, r1
 1733 00fa 0ED0     		beq	.L458
 1734 00fc EB78     		ldrb	r3, [r5, #3]	@ zero_extendqisi2
 1735 00fe 002B     		cmp	r3, #0
 1736 0100 4BD1     		bne	.L459
 1737              	.L462:
 1738 0102 6878     		ldrb	r0, [r5, #1]	@ zero_extendqisi2
 1739 0104 0123     		movs	r3, #1
 1740 0106 3246     		mov	r2, r6
 1741 0108 05F15001 		add	r1, r5, #80
 1742 010c FFF7FEFF 		bl	disk_read
 1743 0110 0028     		cmp	r0, #0
 1744 0112 3ED1     		bne	.L490
 1745 0114 EA6B     		ldr	r2, [r5, #60]
 1746 0116 EE64     		str	r6, [r5, #76]
 1747 0118 3146     		mov	r1, r6
 1748              	.L458:
 1749 011a C7F30803 		ubfx	r3, r7, #0, #9
 1750 011e 0137     		adds	r7, r7, #1
 1751 0120 2B44     		add	r3, r3, r5
 1752 0122 02EB5728 		add	r8, r2, r7, lsr #9
 1753 0126 8845     		cmp	r8, r1
 1754 0128 93F85060 		ldrb	r6, [r3, #80]	@ zero_extendqisi2
 1755 012c 0CD0     		beq	.L463
 1756 012e EB78     		ldrb	r3, [r5, #3]	@ zero_extendqisi2
 1757 0130 002B     		cmp	r3, #0
 1758 0132 57D1     		bne	.L464
 1759              	.L467:
 1760 0134 6878     		ldrb	r0, [r5, #1]	@ zero_extendqisi2
 1761 0136 0123     		movs	r3, #1
 1762 0138 4246     		mov	r2, r8
 1763 013a 05F15001 		add	r1, r5, #80
ARM GAS  /tmp/cc2a13AN.s 			page 32


 1764 013e FFF7FEFF 		bl	disk_read
 1765 0142 30BB     		cbnz	r0, .L490
 1766 0144 C5F84C80 		str	r8, [r5, #76]
 1767              	.L463:
 1768 0148 C7F30807 		ubfx	r7, r7, #0, #9
 1769 014c 3D44     		add	r5, r5, r7
 1770 014e E307     		lsls	r3, r4, #31
 1771 0150 95F85000 		ldrb	r0, [r5, #80]	@ zero_extendqisi2
 1772 0154 46EA0020 		orr	r0, r6, r0, lsl #8
 1773 0158 4CBF     		ite	mi
 1774 015a 0009     		lsrmi	r0, r0, #4
 1775 015c C0F30B00 		ubfxpl	r0, r0, #0, #12
 1776 0160 58E7     		b	.L451
 1777              	.L527:
 1778 0162 8168     		ldr	r1, [r0, #8]
 1779 0164 0029     		cmp	r1, #0
 1780 0166 3FF467AF 		beq	.L482
 1781 016a C679     		ldrb	r6, [r0, #7]	@ zero_extendqisi2
 1782 016c 022E     		cmp	r6, #2
 1783 016e A4EB0101 		sub	r1, r4, r1
 1784 0172 27D0     		beq	.L531
 1785 0174 032E     		cmp	r6, #3
 1786 0176 7FF462AF 		bne	.L484
 1787 017a 8369     		ldr	r3, [r0, #24]
 1788 017c 8B42     		cmp	r3, r1
 1789 017e 7FF65EAF 		bls	.L484
 1790              	.L486:
 1791 0182 601C     		adds	r0, r4, #1
 1792 0184 46E7     		b	.L451
 1793              	.L530:
 1794 0186 05F15007 		add	r7, r5, #80
 1795 018a AAE7     		b	.L471
 1796              	.L529:
 1797 018c 05F15007 		add	r7, r5, #80
 1798 0190 8CE7     		b	.L477
 1799              	.L490:
 1800 0192 4FF0FF30 		mov	r0, #-1
 1801 0196 E864     		str	r0, [r5, #76]
 1802 0198 3CE7     		b	.L451
 1803              	.L459:
 1804 019a 2846     		mov	r0, r5
 1805 019c FFF7FEFF 		bl	sync_window.part.0
 1806 01a0 0028     		cmp	r0, #0
 1807 01a2 AED0     		beq	.L462
 1808              	.L468:
 1809 01a4 4FF0FF30 		mov	r0, #-1
 1810 01a8 34E7     		b	.L451
 1811              	.L472:
 1812 01aa 2846     		mov	r0, r5
 1813 01ac FFF7FEFF 		bl	sync_window.part.0
 1814 01b0 0028     		cmp	r0, #0
 1815 01b2 8BD0     		beq	.L475
 1816 01b4 F6E7     		b	.L468
 1817              	.L478:
 1818 01b6 2846     		mov	r0, r5
 1819 01b8 FFF7FEFF 		bl	sync_window.part.0
 1820 01bc 0028     		cmp	r0, #0
ARM GAS  /tmp/cc2a13AN.s 			page 33


 1821 01be 3FF46AAF 		beq	.L481
 1822 01c2 EFE7     		b	.L468
 1823              	.L531:
 1824 01c4 013B     		subs	r3, r3, #1
 1825 01c6 42F1FF32 		adc	r2, r2, #-1
 1826 01ca 5B0A     		lsrs	r3, r3, #9
 1827 01cc 6889     		ldrh	r0, [r5, #10]
 1828 01ce 43EAC253 		orr	r3, r3, r2, lsl #23
 1829 01d2 B3FBF0F3 		udiv	r3, r3, r0
 1830 01d6 9942     		cmp	r1, r3
 1831 01d8 3FF61BAF 		bhi	.L496
 1832 01dc D1D1     		bne	.L486
 1833              	.L498:
 1834 01de 6FF00040 		mvn	r0, #-2147483648
 1835 01e2 17E7     		b	.L451
 1836              	.L464:
 1837 01e4 2846     		mov	r0, r5
 1838 01e6 FFF7FEFF 		bl	sync_window.part.0
 1839 01ea 0028     		cmp	r0, #0
 1840 01ec A2D0     		beq	.L467
 1841 01ee D9E7     		b	.L468
 1842              	.L528:
 1843 01f0 05F15007 		add	r7, r5, #80
 1844 01f4 3EE7     		b	.L488
 1845              	.L489:
 1846 01f6 2846     		mov	r0, r5
 1847 01f8 FFF7FEFF 		bl	sync_window.part.0
 1848 01fc 0028     		cmp	r0, #0
 1849 01fe 3FF42DAF 		beq	.L492
 1850 0202 CFE7     		b	.L468
 1851              		.size	get_fat, .-get_fat
 1852              		.section	.text.create_chain,"ax",%progbits
 1853              		.align	1
 1854              		.p2align 4,,15
 1855              		.syntax unified
 1856              		.thumb
 1857              		.thumb_func
 1858              		.fpu fpv4-sp-d16
 1859              		.type	create_chain, %function
 1860              	create_chain:
 1861              		@ args = 0, pretend = 0, frame = 0
 1862              		@ frame_needed = 0, uses_anonymous_args = 0
 1863 0000 2DE9F041 		push	{r4, r5, r6, r7, r8, lr}
 1864 0004 0668     		ldr	r6, [r0]
 1865 0006 0746     		mov	r7, r0
 1866 0008 8846     		mov	r8, r1
 1867 000a 0029     		cmp	r1, #0
 1868 000c 4BD1     		bne	.L533
 1869 000e B569     		ldr	r5, [r6, #24]
 1870 0010 002D     		cmp	r5, #0
 1871 0012 40D0     		beq	.L563
 1872 0014 336B     		ldr	r3, [r6, #48]
 1873 0016 AB42     		cmp	r3, r5
 1874 0018 98BF     		it	ls
 1875 001a 0125     		movls	r5, #1
 1876              	.L534:
 1877 001c F369     		ldr	r3, [r6, #28]
ARM GAS  /tmp/cc2a13AN.s 			page 34


 1878 001e 002B     		cmp	r3, #0
 1879 0020 3DD0     		beq	.L556
 1880              	.L538:
 1881 0022 3378     		ldrb	r3, [r6]	@ zero_extendqisi2
 1882 0024 042B     		cmp	r3, #4
 1883 0026 4AD0     		beq	.L601
 1884 0028 4545     		cmp	r5, r8
 1885 002a 7AD0     		beq	.L549
 1886              	.L600:
 1887 002c 336B     		ldr	r3, [r6, #48]
 1888              	.L550:
 1889 002e 2C46     		mov	r4, r5
 1890 0030 06E0     		b	.L557
 1891              	.L602:
 1892 0032 0128     		cmp	r0, #1
 1893 0034 5DD0     		beq	.L535
 1894 0036 0130     		adds	r0, r0, #1
 1895 0038 6ED0     		beq	.L540
 1896 003a AC42     		cmp	r4, r5
 1897 003c 2FD0     		beq	.L556
 1898 003e 336B     		ldr	r3, [r6, #48]
 1899              	.L557:
 1900 0040 0134     		adds	r4, r4, #1
 1901 0042 9C42     		cmp	r4, r3
 1902 0044 3846     		mov	r0, r7
 1903 0046 02D3     		bcc	.L555
 1904 0048 012D     		cmp	r5, #1
 1905 004a 28D9     		bls	.L556
 1906 004c 0224     		movs	r4, #2
 1907              	.L555:
 1908 004e 2146     		mov	r1, r4
 1909 0050 FFF7FEFF 		bl	get_fat
 1910 0054 0028     		cmp	r0, #0
 1911 0056 ECD1     		bne	.L602
 1912              	.L554:
 1913 0058 012C     		cmp	r4, #1
 1914 005a 4AD9     		bls	.L535
 1915 005c 336B     		ldr	r3, [r6, #48]
 1916 005e 9C42     		cmp	r4, r3
 1917 0060 47D2     		bcs	.L535
 1918 0062 4FF0FF32 		mov	r2, #-1
 1919 0066 2146     		mov	r1, r4
 1920 0068 3046     		mov	r0, r6
 1921 006a FFF7FEFF 		bl	put_fat.part.0
 1922 006e 0028     		cmp	r0, #0
 1923 0070 50D1     		bne	.L547
 1924 0072 B8F1000F 		cmp	r8, #0
 1925 0076 40D1     		bne	.L603
 1926              	.L548:
 1927 0078 336B     		ldr	r3, [r6, #48]
 1928 007a F269     		ldr	r2, [r6, #28]
 1929 007c B461     		str	r4, [r6, #24]
 1930 007e 023B     		subs	r3, r3, #2
 1931 0080 9A42     		cmp	r2, r3
 1932 0082 3379     		ldrb	r3, [r6, #4]	@ zero_extendqisi2
 1933 0084 98BF     		it	ls
 1934 0086 02F1FF32 		addls	r2, r2, #-1
ARM GAS  /tmp/cc2a13AN.s 			page 35


 1935 008a 43F00103 		orr	r3, r3, #1
 1936 008e 98BF     		it	ls
 1937 0090 F261     		strls	r2, [r6, #28]
 1938 0092 3371     		strb	r3, [r6, #4]
 1939 0094 04E0     		b	.L532
 1940              	.L563:
 1941 0096 F369     		ldr	r3, [r6, #28]
 1942 0098 0125     		movs	r5, #1
 1943 009a 002B     		cmp	r3, #0
 1944 009c C1D1     		bne	.L538
 1945              	.L556:
 1946 009e 0024     		movs	r4, #0
 1947              	.L532:
 1948 00a0 2046     		mov	r0, r4
 1949 00a2 BDE8F081 		pop	{r4, r5, r6, r7, r8, pc}
 1950              	.L533:
 1951 00a6 FFF7FEFF 		bl	get_fat
 1952 00aa 0128     		cmp	r0, #1
 1953 00ac 0446     		mov	r4, r0
 1954 00ae 20D9     		bls	.L535
 1955 00b0 421C     		adds	r2, r0, #1
 1956 00b2 31D0     		beq	.L540
 1957 00b4 336B     		ldr	r3, [r6, #48]
 1958 00b6 8342     		cmp	r3, r0
 1959 00b8 F2D8     		bhi	.L532
 1960 00ba 4546     		mov	r5, r8
 1961 00bc AEE7     		b	.L534
 1962              	.L601:
 1963 00be 0122     		movs	r2, #1
 1964 00c0 2946     		mov	r1, r5
 1965 00c2 3046     		mov	r0, r6
 1966 00c4 FFF7FEFF 		bl	find_bitmap
 1967 00c8 431E     		subs	r3, r0, #1
 1968 00ca 0333     		adds	r3, r3, #3
 1969 00cc 0446     		mov	r4, r0
 1970 00ce E7D8     		bhi	.L532
 1971 00d0 0123     		movs	r3, #1
 1972 00d2 0146     		mov	r1, r0
 1973 00d4 1A46     		mov	r2, r3
 1974 00d6 3046     		mov	r0, r6
 1975 00d8 FFF7FEFF 		bl	change_bitmap
 1976 00dc 0228     		cmp	r0, #2
 1977 00de 08D0     		beq	.L535
 1978 00e0 0128     		cmp	r0, #1
 1979 00e2 19D0     		beq	.L540
 1980 00e4 B8F1000F 		cmp	r8, #0
 1981 00e8 35D1     		bne	.L541
 1982 00ea 0223     		movs	r3, #2
 1983 00ec FB71     		strb	r3, [r7, #7]
 1984              	.L545:
 1985 00ee 0028     		cmp	r0, #0
 1986 00f0 C2D0     		beq	.L548
 1987              	.L535:
 1988 00f2 0124     		movs	r4, #1
 1989 00f4 2046     		mov	r0, r4
 1990 00f6 BDE8F081 		pop	{r4, r5, r6, r7, r8, pc}
 1991              	.L603:
ARM GAS  /tmp/cc2a13AN.s 			page 36


 1992 00fa B8F1010F 		cmp	r8, #1
 1993 00fe F8D0     		beq	.L535
 1994 0100 336B     		ldr	r3, [r6, #48]
 1995 0102 9845     		cmp	r8, r3
 1996 0104 F5D2     		bcs	.L535
 1997 0106 2246     		mov	r2, r4
 1998 0108 4146     		mov	r1, r8
 1999 010a 3046     		mov	r0, r6
 2000 010c FFF7FEFF 		bl	put_fat.part.0
 2001 0110 0028     		cmp	r0, #0
 2002 0112 B1D0     		beq	.L548
 2003              	.L547:
 2004 0114 0128     		cmp	r0, #1
 2005 0116 ECD1     		bne	.L535
 2006              	.L540:
 2007 0118 4FF0FF34 		mov	r4, #-1
 2008 011c 2046     		mov	r0, r4
 2009 011e BDE8F081 		pop	{r4, r5, r6, r7, r8, pc}
 2010              	.L549:
 2011 0122 336B     		ldr	r3, [r6, #48]
 2012 0124 6C1C     		adds	r4, r5, #1
 2013 0126 A342     		cmp	r3, r4
 2014 0128 98BF     		it	ls
 2015 012a 0224     		movls	r4, #2
 2016 012c 2146     		mov	r1, r4
 2017 012e 3846     		mov	r0, r7
 2018 0130 FFF7FEFF 		bl	get_fat
 2019 0134 0128     		cmp	r0, #1
 2020 0136 DCD0     		beq	.L535
 2021 0138 431C     		adds	r3, r0, #1
 2022 013a EDD0     		beq	.L540
 2023 013c 40B1     		cbz	r0, .L552
 2024 013e B269     		ldr	r2, [r6, #24]
 2025 0140 336B     		ldr	r3, [r6, #48]
 2026 0142 012A     		cmp	r2, #1
 2027 0144 7FF673AF 		bls	.L550
 2028 0148 9342     		cmp	r3, r2
 2029 014a 88BF     		it	hi
 2030 014c 1546     		movhi	r5, r2
 2031 014e 6EE7     		b	.L550
 2032              	.L552:
 2033 0150 002C     		cmp	r4, #0
 2034 0152 81D1     		bne	.L554
 2035 0154 6AE7     		b	.L600
 2036              	.L541:
 2037 0156 FB79     		ldrb	r3, [r7, #7]	@ zero_extendqisi2
 2038 0158 022B     		cmp	r3, #2
 2039 015a 18D0     		beq	.L604
 2040              	.L543:
 2041 015c 08F10103 		add	r3, r8, #1
 2042 0160 A342     		cmp	r3, r4
 2043 0162 0DD0     		beq	.L605
 2044 0164 FB69     		ldr	r3, [r7, #28]
 2045 0166 0BB9     		cbnz	r3, .L546
 2046 0168 0123     		movs	r3, #1
 2047 016a FB61     		str	r3, [r7, #28]
 2048              	.L546:
ARM GAS  /tmp/cc2a13AN.s 			page 37


 2049 016c 2246     		mov	r2, r4
 2050 016e 4146     		mov	r1, r8
 2051 0170 3846     		mov	r0, r7
 2052 0172 FFF7FEFF 		bl	fill_last_frag
 2053 0176 0028     		cmp	r0, #0
 2054 0178 CCD1     		bne	.L547
 2055 017a 0123     		movs	r3, #1
 2056 017c FB61     		str	r3, [r7, #28]
 2057 017e 7BE7     		b	.L548
 2058              	.L605:
 2059 0180 FB69     		ldr	r3, [r7, #28]
 2060 0182 6BB1     		cbz	r3, .L564
 2061 0184 0133     		adds	r3, r3, #1
 2062              	.L544:
 2063 0186 FB61     		str	r3, [r7, #28]
 2064 0188 0028     		cmp	r0, #0
 2065 018a B2D1     		bne	.L535
 2066 018c 74E7     		b	.L548
 2067              	.L604:
 2068 018e 6B1C     		adds	r3, r5, #1
 2069 0190 A342     		cmp	r3, r4
 2070 0192 ACD0     		beq	.L545
 2071 0194 BB68     		ldr	r3, [r7, #8]
 2072 0196 EB1A     		subs	r3, r5, r3
 2073 0198 BB61     		str	r3, [r7, #24]
 2074 019a 0323     		movs	r3, #3
 2075 019c FB71     		strb	r3, [r7, #7]
 2076 019e DDE7     		b	.L543
 2077              	.L564:
 2078 01a0 0223     		movs	r3, #2
 2079 01a2 F0E7     		b	.L544
 2080              		.size	create_chain, .-create_chain
 2081              		.section	.text.dir_sdi,"ax",%progbits
 2082              		.align	1
 2083              		.p2align 4,,15
 2084              		.syntax unified
 2085              		.thumb
 2086              		.thumb_func
 2087              		.fpu fpv4-sp-d16
 2088              		.type	dir_sdi, %function
 2089              	dir_sdi:
 2090              		@ args = 0, pretend = 0, frame = 0
 2091              		@ frame_needed = 0, uses_anonymous_args = 0
 2092 0000 F8B5     		push	{r3, r4, r5, r6, r7, lr}
 2093 0002 0768     		ldr	r7, [r0]
 2094 0004 3B78     		ldrb	r3, [r7]	@ zero_extendqisi2
 2095 0006 042B     		cmp	r3, #4
 2096 0008 0CBF     		ite	eq
 2097 000a 4FF08052 		moveq	r2, #268435456
 2098 000e 4FF40012 		movne	r2, #2097152
 2099 0012 8A42     		cmp	r2, r1
 2100 0014 21D9     		bls	.L610
 2101 0016 CA06     		lsls	r2, r1, #27
 2102 0018 0D46     		mov	r5, r1
 2103 001a 1ED1     		bne	.L610
 2104 001c 8168     		ldr	r1, [r0, #8]
 2105 001e 0563     		str	r5, [r0, #48]
ARM GAS  /tmp/cc2a13AN.s 			page 38


 2106 0020 0646     		mov	r6, r0
 2107 0022 E1B1     		cbz	r1, .L631
 2108              	.L611:
 2109 0024 7B89     		ldrh	r3, [r7, #10]
 2110 0026 B5EB432F 		cmp	r5, r3, lsl #9
 2111 002a 4FEA4324 		lsl	r4, r3, #9
 2112 002e 07D2     		bcs	.L617
 2113 0030 31E0     		b	.L616
 2114              	.L632:
 2115 0032 0128     		cmp	r0, #1
 2116 0034 11D9     		bls	.L610
 2117 0036 3B6B     		ldr	r3, [r7, #48]
 2118 0038 8342     		cmp	r3, r0
 2119 003a 0ED9     		bls	.L610
 2120 003c AC42     		cmp	r4, r5
 2121 003e 2BD8     		bhi	.L618
 2122              	.L617:
 2123 0040 3046     		mov	r0, r6
 2124 0042 FFF7FEFF 		bl	get_fat
 2125 0046 431C     		adds	r3, r0, #1
 2126 0048 0146     		mov	r1, r0
 2127 004a A5EB0405 		sub	r5, r5, r4
 2128 004e F0D1     		bne	.L632
 2129 0050 0120     		movs	r0, #1
 2130 0052 F8BD     		pop	{r3, r4, r5, r6, r7, pc}
 2131              	.L633:
 2132 0054 0023     		movs	r3, #0
 2133 0056 C6E90D13 		strd	r1, r3, [r6, #52]
 2134              	.L610:
 2135 005a 0220     		movs	r0, #2
 2136 005c F8BD     		pop	{r3, r4, r5, r6, r7, pc}
 2137              	.L631:
 2138 005e 022B     		cmp	r3, #2
 2139 0060 13D8     		bhi	.L612
 2140              	.L614:
 2141 0062 3B89     		ldrh	r3, [r7, #8]
 2142 0064 B3EB551F 		cmp	r3, r5, lsr #5
 2143 0068 F7D9     		bls	.L610
 2144 006a 3A6C     		ldr	r2, [r7, #64]
 2145 006c B263     		str	r2, [r6, #56]
 2146              	.L615:
 2147 006e 7163     		str	r1, [r6, #52]
 2148 0070 002A     		cmp	r2, #0
 2149 0072 F2D0     		beq	.L610
 2150 0074 07F15003 		add	r3, r7, #80
 2151 0078 C5F30801 		ubfx	r1, r5, #0, #9
 2152 007c 02EB5522 		add	r2, r2, r5, lsr #9
 2153 0080 0B44     		add	r3, r3, r1
 2154 0082 C6E90E23 		strd	r2, r3, [r6, #56]
 2155 0086 0020     		movs	r0, #0
 2156 0088 F8BD     		pop	{r3, r4, r5, r6, r7, pc}
 2157              	.L612:
 2158 008a 3B6C     		ldr	r3, [r7, #64]
 2159 008c C171     		strb	r1, [r0, #7]
 2160 008e 002B     		cmp	r3, #0
 2161 0090 E7D0     		beq	.L614
 2162 0092 1946     		mov	r1, r3
ARM GAS  /tmp/cc2a13AN.s 			page 39


 2163 0094 C6E7     		b	.L611
 2164              	.L616:
 2165 0096 3B6B     		ldr	r3, [r7, #48]
 2166              	.L618:
 2167 0098 023B     		subs	r3, r3, #2
 2168 009a 8A1E     		subs	r2, r1, #2
 2169 009c 9A42     		cmp	r2, r3
 2170 009e D9D2     		bcs	.L633
 2171 00a0 7B89     		ldrh	r3, [r7, #10]
 2172 00a2 786C     		ldr	r0, [r7, #68]
 2173 00a4 02FB0302 		mla	r2, r2, r3, r0
 2174 00a8 B263     		str	r2, [r6, #56]
 2175 00aa E0E7     		b	.L615
 2176              		.size	dir_sdi, .-dir_sdi
 2177              		.section	.text.remove_chain,"ax",%progbits
 2178              		.align	1
 2179              		.p2align 4,,15
 2180              		.syntax unified
 2181              		.thumb
 2182              		.thumb_func
 2183              		.fpu fpv4-sp-d16
 2184              		.type	remove_chain, %function
 2185              	remove_chain:
 2186              		@ args = 0, pretend = 0, frame = 0
 2187              		@ frame_needed = 0, uses_anonymous_args = 0
 2188 0000 0129     		cmp	r1, #1
 2189 0002 2DE9F843 		push	{r3, r4, r5, r6, r7, r8, r9, lr}
 2190 0006 0568     		ldr	r5, [r0]
 2191 0008 36D9     		bls	.L637
 2192 000a 2B6B     		ldr	r3, [r5, #48]
 2193 000c 8B42     		cmp	r3, r1
 2194 000e 0C46     		mov	r4, r1
 2195 0010 32D9     		bls	.L637
 2196 0012 0746     		mov	r7, r0
 2197 0014 9146     		mov	r9, r2
 2198 0016 002A     		cmp	r2, #0
 2199 0018 44D1     		bne	.L638
 2200              	.L641:
 2201 001a A046     		mov	r8, r4
 2202 001c 1CE0     		b	.L639
 2203              	.L675:
 2204 001e 2B6B     		ldr	r3, [r5, #48]
 2205 0020 9E42     		cmp	r6, r3
 2206 0022 29D2     		bcs	.L637
 2207 0024 0022     		movs	r2, #0
 2208 0026 3146     		mov	r1, r6
 2209 0028 2846     		mov	r0, r5
 2210 002a FFF7FEFF 		bl	put_fat.part.0
 2211 002e 20BB     		cbnz	r0, .L636
 2212              	.L649:
 2213 0030 2A6B     		ldr	r2, [r5, #48]
 2214 0032 EB69     		ldr	r3, [r5, #28]
 2215 0034 911E     		subs	r1, r2, #2
 2216 0036 8B42     		cmp	r3, r1
 2217 0038 05D2     		bcs	.L648
 2218 003a 2979     		ldrb	r1, [r5, #4]	@ zero_extendqisi2
 2219 003c 0133     		adds	r3, r3, #1
ARM GAS  /tmp/cc2a13AN.s 			page 40


 2220 003e 41F00101 		orr	r1, r1, #1
 2221 0042 EB61     		str	r3, [r5, #28]
 2222 0044 2971     		strb	r1, [r5, #4]
 2223              	.L648:
 2224 0046 0136     		adds	r6, r6, #1
 2225 0048 A642     		cmp	r6, r4
 2226 004a 03D0     		beq	.L650
 2227 004c 2B78     		ldrb	r3, [r5]	@ zero_extendqisi2
 2228 004e 042B     		cmp	r3, #4
 2229 0050 15D0     		beq	.L674
 2230 0052 A046     		mov	r8, r4
 2231              	.L650:
 2232 0054 A242     		cmp	r2, r4
 2233 0056 1FD9     		bls	.L651
 2234              	.L639:
 2235 0058 2146     		mov	r1, r4
 2236 005a 3846     		mov	r0, r7
 2237 005c FFF7FEFF 		bl	get_fat
 2238 0060 2646     		mov	r6, r4
 2239 0062 0446     		mov	r4, r0
 2240 0064 C0B1     		cbz	r0, .L651
 2241 0066 0128     		cmp	r0, #1
 2242 0068 06D0     		beq	.L637
 2243 006a 421C     		adds	r2, r0, #1
 2244 006c 46D0     		beq	.L655
 2245 006e 2B78     		ldrb	r3, [r5]	@ zero_extendqisi2
 2246 0070 042B     		cmp	r3, #4
 2247 0072 DDD0     		beq	.L649
 2248 0074 012E     		cmp	r6, #1
 2249 0076 D2D8     		bhi	.L675
 2250              	.L637:
 2251 0078 0220     		movs	r0, #2
 2252              	.L636:
 2253 007a BDE8F883 		pop	{r3, r4, r5, r6, r7, r8, r9, pc}
 2254              	.L674:
 2255 007e A6EB0802 		sub	r2, r6, r8
 2256 0082 4146     		mov	r1, r8
 2257 0084 0023     		movs	r3, #0
 2258 0086 2846     		mov	r0, r5
 2259 0088 FFF7FEFF 		bl	change_bitmap
 2260 008c 0028     		cmp	r0, #0
 2261 008e F4D1     		bne	.L636
 2262 0090 2A6B     		ldr	r2, [r5, #48]
 2263 0092 A242     		cmp	r2, r4
 2264 0094 A046     		mov	r8, r4
 2265 0096 DFD8     		bhi	.L639
 2266              	.L651:
 2267 0098 2B78     		ldrb	r3, [r5]	@ zero_extendqisi2
 2268 009a 042B     		cmp	r3, #4
 2269 009c 16D0     		beq	.L676
 2270              	.L673:
 2271 009e 0020     		movs	r0, #0
 2272 00a0 BDE8F883 		pop	{r3, r4, r5, r6, r7, r8, r9, pc}
 2273              	.L638:
 2274 00a4 2A78     		ldrb	r2, [r5]	@ zero_extendqisi2
 2275 00a6 042A     		cmp	r2, #4
 2276 00a8 02D1     		bne	.L640
ARM GAS  /tmp/cc2a13AN.s 			page 41


 2277 00aa C279     		ldrb	r2, [r0, #7]	@ zero_extendqisi2
 2278 00ac 022A     		cmp	r2, #2
 2279 00ae B4D0     		beq	.L641
 2280              	.L640:
 2281 00b0 B9F1010F 		cmp	r9, #1
 2282 00b4 E0D0     		beq	.L637
 2283 00b6 4B45     		cmp	r3, r9
 2284 00b8 DED9     		bls	.L637
 2285 00ba 4FF0FF32 		mov	r2, #-1
 2286 00be 4946     		mov	r1, r9
 2287 00c0 2846     		mov	r0, r5
 2288 00c2 FFF7FEFF 		bl	put_fat.part.0
 2289 00c6 0028     		cmp	r0, #0
 2290 00c8 A7D0     		beq	.L641
 2291 00ca D6E7     		b	.L636
 2292              	.L676:
 2293 00cc B9F1000F 		cmp	r9, #0
 2294 00d0 17D0     		beq	.L677
 2295 00d2 FB79     		ldrb	r3, [r7, #7]	@ zero_extendqisi2
 2296 00d4 CBB9     		cbnz	r3, .L653
 2297 00d6 BC68     		ldr	r4, [r7, #8]
 2298 00d8 09E0     		b	.L654
 2299              	.L656:
 2300 00da FFF7FEFF 		bl	get_fat
 2301 00de 0128     		cmp	r0, #1
 2302 00e0 04F10104 		add	r4, r4, #1
 2303 00e4 C8D9     		bls	.L637
 2304 00e6 431C     		adds	r3, r0, #1
 2305 00e8 08D0     		beq	.L655
 2306 00ea 8442     		cmp	r4, r0
 2307 00ec D7D1     		bne	.L673
 2308              	.L654:
 2309 00ee 4C45     		cmp	r4, r9
 2310 00f0 2146     		mov	r1, r4
 2311 00f2 3846     		mov	r0, r7
 2312 00f4 F1D1     		bne	.L656
 2313              	.L657:
 2314 00f6 0223     		movs	r3, #2
 2315 00f8 FB71     		strb	r3, [r7, #7]
 2316 00fa D0E7     		b	.L673
 2317              	.L655:
 2318 00fc 0120     		movs	r0, #1
 2319 00fe BDE8F883 		pop	{r3, r4, r5, r6, r7, r8, r9, pc}
 2320              	.L677:
 2321 0102 87F80790 		strb	r9, [r7, #7]
 2322 0106 4846     		mov	r0, r9
 2323 0108 B7E7     		b	.L636
 2324              	.L653:
 2325 010a 032B     		cmp	r3, #3
 2326 010c C7D1     		bne	.L673
 2327 010e BB68     		ldr	r3, [r7, #8]
 2328 0110 4B45     		cmp	r3, r9
 2329 0112 C4D8     		bhi	.L673
 2330 0114 BA69     		ldr	r2, [r7, #24]
 2331 0116 1344     		add	r3, r3, r2
 2332 0118 4B45     		cmp	r3, r9
 2333 011a C0D3     		bcc	.L673
ARM GAS  /tmp/cc2a13AN.s 			page 42


 2334 011c EBE7     		b	.L657
 2335              		.size	remove_chain, .-remove_chain
 2336 011e 00BF     		.section	.text.dir_next,"ax",%progbits
 2337              		.align	1
 2338              		.p2align 4,,15
 2339              		.syntax unified
 2340              		.thumb
 2341              		.thumb_func
 2342              		.fpu fpv4-sp-d16
 2343              		.type	dir_next, %function
 2344              	dir_next:
 2345              		@ args = 0, pretend = 0, frame = 0
 2346              		@ frame_needed = 0, uses_anonymous_args = 0
 2347 0000 2DE9F047 		push	{r4, r5, r6, r7, r8, r9, r10, lr}
 2348 0004 0768     		ldr	r7, [r0]
 2349 0006 056B     		ldr	r5, [r0, #48]
 2350 0008 3A78     		ldrb	r2, [r7]	@ zero_extendqisi2
 2351 000a 042A     		cmp	r2, #4
 2352 000c 05F12005 		add	r5, r5, #32
 2353 0010 0CBF     		ite	eq
 2354 0012 4FF08052 		moveq	r2, #268435456
 2355 0016 4FF40012 		movne	r2, #2097152
 2356 001a AA42     		cmp	r2, r5
 2357 001c 0446     		mov	r4, r0
 2358 001e 04D8     		bhi	.L680
 2359              	.L685:
 2360 0020 0023     		movs	r3, #0
 2361 0022 A363     		str	r3, [r4, #56]
 2362 0024 0420     		movs	r0, #4
 2363              	.L681:
 2364 0026 BDE8F087 		pop	{r4, r5, r6, r7, r8, r9, r10, pc}
 2365              	.L680:
 2366 002a 826B     		ldr	r2, [r0, #56]
 2367 002c 002A     		cmp	r2, #0
 2368 002e 52D0     		beq	.L694
 2369 0030 C5F30806 		ubfx	r6, r5, #0, #9
 2370 0034 002E     		cmp	r6, #0
 2371 0036 3BD1     		bne	.L683
 2372 0038 8846     		mov	r8, r1
 2373 003a 416B     		ldr	r1, [r0, #52]
 2374 003c 0132     		adds	r2, r2, #1
 2375 003e 8263     		str	r2, [r0, #56]
 2376 0040 0029     		cmp	r1, #0
 2377 0042 3DD0     		beq	.L706
 2378 0044 7B89     		ldrh	r3, [r7, #10]
 2379 0046 013B     		subs	r3, r3, #1
 2380 0048 13EA5529 		ands	r9, r3, r5, lsr #9
 2381 004c 30D1     		bne	.L683
 2382 004e FFF7FEFF 		bl	get_fat
 2383 0052 0128     		cmp	r0, #1
 2384 0054 8246     		mov	r10, r0
 2385 0056 3AD9     		bls	.L690
 2386 0058 B0F1FF3F 		cmp	r0, #-1
 2387 005c 35D0     		beq	.L691
 2388 005e 3B6B     		ldr	r3, [r7, #48]
 2389 0060 8342     		cmp	r3, r0
 2390 0062 17D8     		bhi	.L689
ARM GAS  /tmp/cc2a13AN.s 			page 43


 2391 0064 B8F1000F 		cmp	r8, #0
 2392 0068 DAD0     		beq	.L685
 2393 006a 616B     		ldr	r1, [r4, #52]
 2394 006c 2046     		mov	r0, r4
 2395 006e FFF7FEFF 		bl	create_chain
 2396 0072 8246     		mov	r10, r0
 2397 0074 68B3     		cbz	r0, .L695
 2398 0076 0128     		cmp	r0, #1
 2399 0078 29D0     		beq	.L690
 2400 007a B0F1FF3F 		cmp	r0, #-1
 2401 007e 24D0     		beq	.L691
 2402 0080 0146     		mov	r1, r0
 2403 0082 3846     		mov	r0, r7
 2404 0084 FFF7FEFF 		bl	dir_clear
 2405 0088 F8B9     		cbnz	r0, .L691
 2406 008a E379     		ldrb	r3, [r4, #7]	@ zero_extendqisi2
 2407 008c 43F00403 		orr	r3, r3, #4
 2408 0090 E371     		strb	r3, [r4, #7]
 2409 0092 3B6B     		ldr	r3, [r7, #48]
 2410              	.L689:
 2411 0094 C4F834A0 		str	r10, [r4, #52]
 2412 0098 023B     		subs	r3, r3, #2
 2413 009a AAF1020A 		sub	r10, r10, #2
 2414 009e 9A45     		cmp	r10, r3
 2415 00a0 04D2     		bcs	.L692
 2416 00a2 B7F80A90 		ldrh	r9, [r7, #10]
 2417 00a6 7B6C     		ldr	r3, [r7, #68]
 2418 00a8 0AFB0939 		mla	r9, r10, r9, r3
 2419              	.L692:
 2420 00ac C4F83890 		str	r9, [r4, #56]
 2421              	.L683:
 2422 00b0 07F15003 		add	r3, r7, #80
 2423 00b4 3344     		add	r3, r3, r6
 2424 00b6 2563     		str	r5, [r4, #48]
 2425 00b8 E363     		str	r3, [r4, #60]
 2426 00ba 0020     		movs	r0, #0
 2427 00bc BDE8F087 		pop	{r4, r5, r6, r7, r8, r9, r10, pc}
 2428              	.L706:
 2429 00c0 3B89     		ldrh	r3, [r7, #8]
 2430 00c2 B3EB551F 		cmp	r3, r5, lsr #5
 2431 00c6 F3D8     		bhi	.L683
 2432 00c8 AAE7     		b	.L685
 2433              	.L691:
 2434 00ca 0120     		movs	r0, #1
 2435 00cc ABE7     		b	.L681
 2436              	.L690:
 2437 00ce 0220     		movs	r0, #2
 2438 00d0 A9E7     		b	.L681
 2439              	.L695:
 2440 00d2 0720     		movs	r0, #7
 2441 00d4 A7E7     		b	.L681
 2442              	.L694:
 2443 00d6 0420     		movs	r0, #4
 2444 00d8 A5E7     		b	.L681
 2445              		.size	dir_next, .-dir_next
 2446 00da 00BF     		.section	.text.dir_alloc,"ax",%progbits
 2447              		.align	1
ARM GAS  /tmp/cc2a13AN.s 			page 44


 2448              		.p2align 4,,15
 2449              		.syntax unified
 2450              		.thumb
 2451              		.thumb_func
 2452              		.fpu fpv4-sp-d16
 2453              		.type	dir_alloc, %function
 2454              	dir_alloc:
 2455              		@ args = 0, pretend = 0, frame = 0
 2456              		@ frame_needed = 0, uses_anonymous_args = 0
 2457 0000 2DE9F047 		push	{r4, r5, r6, r7, r8, r9, r10, lr}
 2458 0004 8846     		mov	r8, r1
 2459 0006 0021     		movs	r1, #0
 2460 0008 0468     		ldr	r4, [r0]
 2461 000a 0546     		mov	r5, r0
 2462 000c FFF7FEFF 		bl	dir_sdi
 2463 0010 0746     		mov	r7, r0
 2464 0012 30B1     		cbz	r0, .L732
 2465              	.L708:
 2466 0014 0428     		cmp	r0, #4
 2467 0016 14BF     		ite	ne
 2468 0018 0746     		movne	r7, r0
 2469 001a 0727     		moveq	r7, #7
 2470              	.L714:
 2471 001c 3846     		mov	r0, r7
 2472 001e BDE8F087 		pop	{r4, r5, r6, r7, r8, r9, r10, pc}
 2473              	.L732:
 2474 0022 0646     		mov	r6, r0
 2475 0024 04F15009 		add	r9, r4, #80
 2476              	.L718:
 2477 0028 D5F838A0 		ldr	r10, [r5, #56]
 2478 002c E36C     		ldr	r3, [r4, #76]
 2479 002e 9A45     		cmp	r10, r3
 2480 0030 11D0     		beq	.L709
 2481 0032 E378     		ldrb	r3, [r4, #3]	@ zero_extendqisi2
 2482 0034 3BBB     		cbnz	r3, .L710
 2483              	.L713:
 2484 0036 6078     		ldrb	r0, [r4, #1]	@ zero_extendqisi2
 2485 0038 0123     		movs	r3, #1
 2486 003a 5246     		mov	r2, r10
 2487 003c 4946     		mov	r1, r9
 2488 003e FFF7FEFF 		bl	disk_read
 2489 0042 30B1     		cbz	r0, .L733
 2490 0044 4FF0FF33 		mov	r3, #-1
 2491 0048 0127     		movs	r7, #1
 2492 004a E364     		str	r3, [r4, #76]
 2493 004c 3846     		mov	r0, r7
 2494 004e BDE8F087 		pop	{r4, r5, r6, r7, r8, r9, r10, pc}
 2495              	.L733:
 2496 0052 C4F84CA0 		str	r10, [r4, #76]
 2497              	.L709:
 2498 0056 2378     		ldrb	r3, [r4]	@ zero_extendqisi2
 2499 0058 042B     		cmp	r3, #4
 2500 005a EB6B     		ldr	r3, [r5, #60]
 2501 005c 0BD0     		beq	.L734
 2502 005e 1B78     		ldrb	r3, [r3]	@ zero_extendqisi2
 2503 0060 E52B     		cmp	r3, #229
 2504 0062 0CD0     		beq	.L716
ARM GAS  /tmp/cc2a13AN.s 			page 45


 2505 0064 5BB1     		cbz	r3, .L716
 2506              	.L720:
 2507 0066 0026     		movs	r6, #0
 2508              	.L717:
 2509 0068 0121     		movs	r1, #1
 2510 006a 2846     		mov	r0, r5
 2511 006c FFF7FEFF 		bl	dir_next
 2512 0070 0028     		cmp	r0, #0
 2513 0072 D9D0     		beq	.L718
 2514 0074 CEE7     		b	.L708
 2515              	.L734:
 2516 0076 93F90030 		ldrsb	r3, [r3]
 2517 007a 002B     		cmp	r3, #0
 2518 007c F3DB     		blt	.L720
 2519              	.L716:
 2520 007e 0136     		adds	r6, r6, #1
 2521 0080 4645     		cmp	r6, r8
 2522 0082 F1D1     		bne	.L717
 2523 0084 CAE7     		b	.L714
 2524              	.L710:
 2525 0086 2046     		mov	r0, r4
 2526 0088 FFF7FEFF 		bl	sync_window.part.0
 2527 008c 0028     		cmp	r0, #0
 2528 008e D2D0     		beq	.L713
 2529 0090 C0E7     		b	.L708
 2530              		.size	dir_alloc, .-dir_alloc
 2531 0092 00BF     		.section	.text.dir_remove,"ax",%progbits
 2532              		.align	1
 2533              		.p2align 4,,15
 2534              		.syntax unified
 2535              		.thumb
 2536              		.thumb_func
 2537              		.fpu fpv4-sp-d16
 2538              		.type	dir_remove, %function
 2539              	dir_remove:
 2540              		@ args = 0, pretend = 0, frame = 0
 2541              		@ frame_needed = 0, uses_anonymous_args = 0
 2542 0000 C16C     		ldr	r1, [r0, #76]
 2543 0002 4B1C     		adds	r3, r1, #1
 2544 0004 2DE9F047 		push	{r4, r5, r6, r7, r8, r9, r10, lr}
 2545 0008 0468     		ldr	r4, [r0]
 2546 000a 066B     		ldr	r6, [r0, #48]
 2547 000c 0546     		mov	r5, r0
 2548 000e 41D1     		bne	.L736
 2549              	.L738:
 2550 0010 04F15009 		add	r9, r4, #80
 2551 0014 0127     		movs	r7, #1
 2552 0016 4FF0E508 		mov	r8, #229
 2553              	.L737:
 2554 001a D5F838A0 		ldr	r10, [r5, #56]
 2555 001e E36C     		ldr	r3, [r4, #76]
 2556 0020 9A45     		cmp	r10, r3
 2557 0022 10D0     		beq	.L740
 2558 0024 E378     		ldrb	r3, [r4, #3]	@ zero_extendqisi2
 2559 0026 5BBB     		cbnz	r3, .L741
 2560              	.L744:
 2561 0028 6078     		ldrb	r0, [r4, #1]	@ zero_extendqisi2
ARM GAS  /tmp/cc2a13AN.s 			page 46


 2562 002a 0123     		movs	r3, #1
 2563 002c 5246     		mov	r2, r10
 2564 002e 4946     		mov	r1, r9
 2565 0030 FFF7FEFF 		bl	disk_read
 2566 0034 28B1     		cbz	r0, .L759
 2567 0036 4FF0FF33 		mov	r3, #-1
 2568 003a E364     		str	r3, [r4, #76]
 2569 003c 0120     		movs	r0, #1
 2570 003e BDE8F087 		pop	{r4, r5, r6, r7, r8, r9, r10, pc}
 2571              	.L759:
 2572 0042 C4F84CA0 		str	r10, [r4, #76]
 2573              	.L740:
 2574 0046 2378     		ldrb	r3, [r4]	@ zero_extendqisi2
 2575 0048 042B     		cmp	r3, #4
 2576 004a 0DD0     		beq	.L760
 2577 004c EB6B     		ldr	r3, [r5, #60]
 2578 004e 83F80080 		strb	r8, [r3]
 2579 0052 E770     		strb	r7, [r4, #3]
 2580 0054 2B6B     		ldr	r3, [r5, #48]
 2581 0056 B342     		cmp	r3, r6
 2582 0058 0FD2     		bcs	.L748
 2583              	.L761:
 2584 005a 0021     		movs	r1, #0
 2585 005c 2846     		mov	r0, r5
 2586 005e FFF7FEFF 		bl	dir_next
 2587 0062 0028     		cmp	r0, #0
 2588 0064 D9D0     		beq	.L737
 2589 0066 10E0     		b	.L745
 2590              	.L760:
 2591 0068 EA6B     		ldr	r2, [r5, #60]
 2592 006a 1378     		ldrb	r3, [r2]	@ zero_extendqisi2
 2593 006c 03F07F03 		and	r3, r3, #127
 2594 0070 1370     		strb	r3, [r2]
 2595 0072 E770     		strb	r7, [r4, #3]
 2596 0074 2B6B     		ldr	r3, [r5, #48]
 2597 0076 B342     		cmp	r3, r6
 2598 0078 EFD3     		bcc	.L761
 2599              	.L748:
 2600 007a 0020     		movs	r0, #0
 2601 007c BDE8F087 		pop	{r4, r5, r6, r7, r8, r9, r10, pc}
 2602              	.L741:
 2603 0080 2046     		mov	r0, r4
 2604 0082 FFF7FEFF 		bl	sync_window.part.0
 2605 0086 0028     		cmp	r0, #0
 2606 0088 CED0     		beq	.L744
 2607              	.L745:
 2608 008a 0428     		cmp	r0, #4
 2609 008c 08BF     		it	eq
 2610 008e 0220     		moveq	r0, #2
 2611 0090 BDE8F087 		pop	{r4, r5, r6, r7, r8, r9, r10, pc}
 2612              	.L736:
 2613 0094 FFF7FEFF 		bl	dir_sdi
 2614 0098 0028     		cmp	r0, #0
 2615 009a B9D0     		beq	.L738
 2616 009c BDE8F087 		pop	{r4, r5, r6, r7, r8, r9, r10, pc}
 2617              		.size	dir_remove, .-dir_remove
 2618              		.section	.text.load_xdir,"ax",%progbits
ARM GAS  /tmp/cc2a13AN.s 			page 47


 2619              		.align	1
 2620              		.p2align 4,,15
 2621              		.syntax unified
 2622              		.thumb
 2623              		.thumb_func
 2624              		.fpu fpv4-sp-d16
 2625              		.type	load_xdir, %function
 2626              	load_xdir:
 2627              		@ args = 0, pretend = 0, frame = 0
 2628              		@ frame_needed = 0, uses_anonymous_args = 0
 2629 0000 2DE9F843 		push	{r3, r4, r5, r6, r7, r8, r9, lr}
 2630 0004 0668     		ldr	r6, [r0]
 2631 0006 876B     		ldr	r7, [r0, #56]
 2632 0008 F36C     		ldr	r3, [r6, #76]
 2633 000a 3569     		ldr	r5, [r6, #16]
 2634 000c 9F42     		cmp	r7, r3
 2635 000e 0446     		mov	r4, r0
 2636 0010 11D0     		beq	.L763
 2637 0012 F378     		ldrb	r3, [r6, #3]	@ zero_extendqisi2
 2638 0014 002B     		cmp	r3, #0
 2639 0016 4CD1     		bne	.L764
 2640              	.L767:
 2641 0018 7078     		ldrb	r0, [r6, #1]	@ zero_extendqisi2
 2642 001a 0123     		movs	r3, #1
 2643 001c 3A46     		mov	r2, r7
 2644 001e 06F15001 		add	r1, r6, #80
 2645 0022 FFF7FEFF 		bl	disk_read
 2646 0026 28B1     		cbz	r0, .L809
 2647 0028 4FF0FF33 		mov	r3, #-1
 2648 002c F364     		str	r3, [r6, #76]
 2649 002e 0120     		movs	r0, #1
 2650 0030 BDE8F883 		pop	{r3, r4, r5, r6, r7, r8, r9, pc}
 2651              	.L809:
 2652 0034 F764     		str	r7, [r6, #76]
 2653              	.L763:
 2654 0036 E36B     		ldr	r3, [r4, #60]
 2655 0038 1A78     		ldrb	r2, [r3]	@ zero_extendqisi2
 2656 003a 852A     		cmp	r2, #133
 2657 003c 02D0     		beq	.L769
 2658              	.L770:
 2659 003e 0220     		movs	r0, #2
 2660              	.L768:
 2661 0040 BDE8F883 		pop	{r3, r4, r5, r6, r7, r8, r9, pc}
 2662              	.L769:
 2663 0044 1868     		ldr	r0, [r3]	@ unaligned
 2664 0046 5968     		ldr	r1, [r3, #4]	@ unaligned
 2665 0048 9A68     		ldr	r2, [r3, #8]	@ unaligned
 2666 004a DF68     		ldr	r7, [r3, #12]	@ unaligned
 2667 004c 2860     		str	r0, [r5]	@ unaligned
 2668 004e 6E78     		ldrb	r6, [r5, #1]	@ zero_extendqisi2
 2669 0050 6960     		str	r1, [r5, #4]	@ unaligned
 2670 0052 0136     		adds	r6, r6, #1
 2671 0054 AA60     		str	r2, [r5, #8]	@ unaligned
 2672 0056 EF60     		str	r7, [r5, #12]	@ unaligned
 2673 0058 7601     		lsls	r6, r6, #5
 2674 005a 1869     		ldr	r0, [r3, #16]	@ unaligned
 2675 005c 5969     		ldr	r1, [r3, #20]	@ unaligned
ARM GAS  /tmp/cc2a13AN.s 			page 48


 2676 005e 9A69     		ldr	r2, [r3, #24]	@ unaligned
 2677 0060 DF69     		ldr	r7, [r3, #28]	@ unaligned
 2678 0062 EF61     		str	r7, [r5, #28]	@ unaligned
 2679 0064 A6F16003 		sub	r3, r6, #96
 2680 0068 B3F5007F 		cmp	r3, #512
 2681 006c 2861     		str	r0, [r5, #16]	@ unaligned
 2682 006e 6961     		str	r1, [r5, #20]	@ unaligned
 2683 0070 AA61     		str	r2, [r5, #24]	@ unaligned
 2684 0072 E4D8     		bhi	.L770
 2685 0074 0021     		movs	r1, #0
 2686 0076 2046     		mov	r0, r4
 2687 0078 FFF7FEFF 		bl	dir_next
 2688 007c 0428     		cmp	r0, #4
 2689 007e DED0     		beq	.L770
 2690 0080 0028     		cmp	r0, #0
 2691 0082 DDD1     		bne	.L768
 2692 0084 2768     		ldr	r7, [r4]
 2693 0086 D4F83880 		ldr	r8, [r4, #56]
 2694 008a FB6C     		ldr	r3, [r7, #76]
 2695 008c 9845     		cmp	r8, r3
 2696 008e 18D0     		beq	.L771
 2697 0090 FB78     		ldrb	r3, [r7, #3]	@ zero_extendqisi2
 2698 0092 002B     		cmp	r3, #0
 2699 0094 40F08C80 		bne	.L772
 2700              	.L775:
 2701 0098 7878     		ldrb	r0, [r7, #1]	@ zero_extendqisi2
 2702 009a 0123     		movs	r3, #1
 2703 009c 4246     		mov	r2, r8
 2704 009e 07F15001 		add	r1, r7, #80
 2705 00a2 FFF7FEFF 		bl	disk_read
 2706 00a6 50B1     		cbz	r0, .L810
 2707 00a8 4FF0FF33 		mov	r3, #-1
 2708 00ac FB64     		str	r3, [r7, #76]
 2709 00ae 0120     		movs	r0, #1
 2710 00b0 C6E7     		b	.L768
 2711              	.L764:
 2712 00b2 3046     		mov	r0, r6
 2713 00b4 FFF7FEFF 		bl	sync_window.part.0
 2714 00b8 0028     		cmp	r0, #0
 2715 00ba ADD0     		beq	.L767
 2716 00bc C0E7     		b	.L768
 2717              	.L810:
 2718 00be C7F84C80 		str	r8, [r7, #76]
 2719              	.L771:
 2720 00c2 E36B     		ldr	r3, [r4, #60]
 2721 00c4 1A78     		ldrb	r2, [r3]	@ zero_extendqisi2
 2722 00c6 C02A     		cmp	r2, #192
 2723 00c8 B9D1     		bne	.L770
 2724 00ca 1F68     		ldr	r7, [r3]	@ unaligned
 2725 00cc 5868     		ldr	r0, [r3, #4]	@ unaligned
 2726 00ce 9968     		ldr	r1, [r3, #8]	@ unaligned
 2727 00d0 D3F80CC0 		ldr	ip, [r3, #12]	@ unaligned
 2728 00d4 2F62     		str	r7, [r5, #32]	@ unaligned
 2729 00d6 95F82320 		ldrb	r2, [r5, #35]	@ zero_extendqisi2
 2730 00da A962     		str	r1, [r5, #40]	@ unaligned
 2731 00dc 4A49     		ldr	r1, .L814
 2732 00de 6862     		str	r0, [r5, #36]	@ unaligned
ARM GAS  /tmp/cc2a13AN.s 			page 49


 2733 00e0 2C32     		adds	r2, r2, #44
 2734 00e2 A1FB0212 		umull	r1, r2, r1, r2
 2735 00e6 C5F82CC0 		str	ip, [r5, #44]	@ unaligned
 2736 00ea D208     		lsrs	r2, r2, #3
 2737 00ec 1F69     		ldr	r7, [r3, #16]	@ unaligned
 2738 00ee 5869     		ldr	r0, [r3, #20]	@ unaligned
 2739 00f0 9969     		ldr	r1, [r3, #24]	@ unaligned
 2740 00f2 D3F81CC0 		ldr	ip, [r3, #28]	@ unaligned
 2741 00f6 C5F83CC0 		str	ip, [r5, #60]	@ unaligned
 2742 00fa B6EB421F 		cmp	r6, r2, lsl #5
 2743 00fe 2F63     		str	r7, [r5, #48]	@ unaligned
 2744 0100 6863     		str	r0, [r5, #52]	@ unaligned
 2745 0102 A963     		str	r1, [r5, #56]	@ unaligned
 2746 0104 9BD3     		bcc	.L770
 2747 0106 4027     		movs	r7, #64
 2748              	.L782:
 2749 0108 0021     		movs	r1, #0
 2750 010a 2046     		mov	r0, r4
 2751 010c FFF7FEFF 		bl	dir_next
 2752 0110 0428     		cmp	r0, #4
 2753 0112 94D0     		beq	.L770
 2754 0114 0028     		cmp	r0, #0
 2755 0116 93D1     		bne	.L768
 2756 0118 D4F80080 		ldr	r8, [r4]
 2757 011c D4F83890 		ldr	r9, [r4, #56]
 2758 0120 D8F84C30 		ldr	r3, [r8, #76]
 2759 0124 9945     		cmp	r9, r3
 2760 0126 13D0     		beq	.L776
 2761 0128 98F80330 		ldrb	r3, [r8, #3]	@ zero_extendqisi2
 2762 012c D3BB     		cbnz	r3, .L777
 2763              	.L780:
 2764 012e 98F80100 		ldrb	r0, [r8, #1]	@ zero_extendqisi2
 2765 0132 0123     		movs	r3, #1
 2766 0134 4A46     		mov	r2, r9
 2767 0136 08F15001 		add	r1, r8, #80
 2768 013a FFF7FEFF 		bl	disk_read
 2769 013e 28B1     		cbz	r0, .L811
 2770 0140 4FF0FF33 		mov	r3, #-1
 2771 0144 C8F84C30 		str	r3, [r8, #76]
 2772 0148 0120     		movs	r0, #1
 2773 014a 79E7     		b	.L768
 2774              	.L811:
 2775 014c C8F84C90 		str	r9, [r8, #76]
 2776              	.L776:
 2777 0150 E36B     		ldr	r3, [r4, #60]
 2778 0152 1A78     		ldrb	r2, [r3]	@ zero_extendqisi2
 2779 0154 C12A     		cmp	r2, #193
 2780 0156 7FF472AF 		bne	.L770
 2781 015a B7F5187F 		cmp	r7, #608
 2782 015e 07D3     		bcc	.L812
 2783              	.L781:
 2784 0160 2037     		adds	r7, r7, #32
 2785 0162 BE42     		cmp	r6, r7
 2786 0164 D0D8     		bhi	.L782
 2787 0166 B7F5187F 		cmp	r7, #608
 2788 016a 28D9     		bls	.L813
 2789              	.L788:
ARM GAS  /tmp/cc2a13AN.s 			page 50


 2790 016c 0020     		movs	r0, #0
 2791 016e 67E7     		b	.L768
 2792              	.L812:
 2793 0170 D3F800C0 		ldr	ip, [r3]	@ unaligned
 2794 0174 5868     		ldr	r0, [r3, #4]	@ unaligned
 2795 0176 9968     		ldr	r1, [r3, #8]	@ unaligned
 2796 0178 D3F80CE0 		ldr	lr, [r3, #12]	@ unaligned
 2797 017c 45F807C0 		str	ip, [r5, r7]	@ unaligned
 2798 0180 EA19     		adds	r2, r5, r7
 2799 0182 5060     		str	r0, [r2, #4]	@ unaligned
 2800 0184 9160     		str	r1, [r2, #8]	@ unaligned
 2801 0186 C2F80CE0 		str	lr, [r2, #12]	@ unaligned
 2802 018a D3F810C0 		ldr	ip, [r3, #16]	@ unaligned
 2803 018e 5869     		ldr	r0, [r3, #20]	@ unaligned
 2804 0190 9969     		ldr	r1, [r3, #24]	@ unaligned
 2805 0192 D3F81CE0 		ldr	lr, [r3, #28]	@ unaligned
 2806 0196 C2F81CE0 		str	lr, [r2, #28]	@ unaligned
 2807 019a C2F810C0 		str	ip, [r2, #16]	@ unaligned
 2808 019e 5061     		str	r0, [r2, #20]	@ unaligned
 2809 01a0 9161     		str	r1, [r2, #24]	@ unaligned
 2810 01a2 DDE7     		b	.L781
 2811              	.L777:
 2812 01a4 4046     		mov	r0, r8
 2813 01a6 FFF7FEFF 		bl	sync_window.part.0
 2814 01aa 0028     		cmp	r0, #0
 2815 01ac BFD0     		beq	.L780
 2816 01ae 47E7     		b	.L768
 2817              	.L772:
 2818 01b0 3846     		mov	r0, r7
 2819 01b2 FFF7FEFF 		bl	sync_window.part.0
 2820 01b6 0028     		cmp	r0, #0
 2821 01b8 3FF46EAF 		beq	.L775
 2822 01bc 40E7     		b	.L768
 2823              	.L813:
 2824 01be 6978     		ldrb	r1, [r5, #1]	@ zero_extendqisi2
 2825 01c0 0023     		movs	r3, #0
 2826 01c2 0131     		adds	r1, r1, #1
 2827 01c4 4901     		lsls	r1, r1, #5
 2828 01c6 1A46     		mov	r2, r3
 2829              	.L786:
 2830 01c8 022A     		cmp	r2, #2
 2831 01ca 0ED1     		bne	.L783
 2832 01cc 2A79     		ldrb	r2, [r5, #4]	@ zero_extendqisi2
 2833 01ce 02EBC332 		add	r2, r2, r3, lsl #15
 2834 01d2 92B2     		uxth	r2, r2
 2835 01d4 02EB5302 		add	r2, r2, r3, lsr #1
 2836 01d8 6B79     		ldrb	r3, [r5, #5]	@ zero_extendqisi2
 2837 01da C2F34E00 		ubfx	r0, r2, #1, #15
 2838 01de 03EBC233 		add	r3, r3, r2, lsl #15
 2839 01e2 10FA83F3 		uxtah	r3, r0, r3
 2840 01e6 9BB2     		uxth	r3, r3
 2841 01e8 0622     		movs	r2, #6
 2842              	.L783:
 2843 01ea A85C     		ldrb	r0, [r5, r2]	@ zero_extendqisi2
 2844 01ec 00EBC330 		add	r0, r0, r3, lsl #15
 2845 01f0 0132     		adds	r2, r2, #1
 2846 01f2 80B2     		uxth	r0, r0
ARM GAS  /tmp/cc2a13AN.s 			page 51


 2847 01f4 00EB5303 		add	r3, r0, r3, lsr #1
 2848 01f8 9142     		cmp	r1, r2
 2849 01fa 9BB2     		uxth	r3, r3
 2850 01fc E4D8     		bhi	.L786
 2851 01fe 6A88     		ldrh	r2, [r5, #2]	@ unaligned
 2852 0200 9A42     		cmp	r2, r3
 2853 0202 B3D0     		beq	.L788
 2854 0204 1BE7     		b	.L770
 2855              	.L815:
 2856 0206 00BF     		.align	2
 2857              	.L814:
 2858 0208 89888888 		.word	-2004318071
 2859              		.size	load_xdir, .-load_xdir
 2860              		.section	.text.dir_read,"ax",%progbits
 2861              		.align	1
 2862              		.p2align 4,,15
 2863              		.syntax unified
 2864              		.thumb
 2865              		.thumb_func
 2866              		.fpu fpv4-sp-d16
 2867              		.type	dir_read, %function
 2868              	dir_read:
 2869              		@ args = 0, pretend = 0, frame = 0
 2870              		@ frame_needed = 0, uses_anonymous_args = 0
 2871 0000 2DE9F84F 		push	{r3, r4, r5, r6, r7, r8, r9, r10, fp, lr}
 2872 0004 0546     		mov	r5, r0
 2873 0006 0468     		ldr	r4, [r0]
 2874 0008 D5F838A0 		ldr	r10, [r5, #56]
 2875 000c 4FF0FF09 		mov	r9, #255
 2876 0010 0E46     		mov	r6, r1
 2877 0012 4F46     		mov	r7, r9
 2878 0014 0420     		movs	r0, #4
 2879 0016 04F15008 		add	r8, r4, #80
 2880 001a BAF1000F 		cmp	r10, #0
 2881 001e 3AD0     		beq	.L867
 2882              	.L839:
 2883 0020 E36C     		ldr	r3, [r4, #76]
 2884 0022 9A45     		cmp	r10, r3
 2885 0024 13D0     		beq	.L818
 2886 0026 E378     		ldrb	r3, [r4, #3]	@ zero_extendqisi2
 2887 0028 002B     		cmp	r3, #0
 2888 002a 3DD1     		bne	.L819
 2889              	.L822:
 2890 002c 6078     		ldrb	r0, [r4, #1]	@ zero_extendqisi2
 2891 002e 0123     		movs	r3, #1
 2892 0030 5246     		mov	r2, r10
 2893 0032 4146     		mov	r1, r8
 2894 0034 FFF7FEFF 		bl	disk_read
 2895 0038 38B1     		cbz	r0, .L868
 2896 003a 4FF0FF33 		mov	r3, #-1
 2897 003e E364     		str	r3, [r4, #76]
 2898 0040 0120     		movs	r0, #1
 2899              	.L823:
 2900 0042 0023     		movs	r3, #0
 2901 0044 AB63     		str	r3, [r5, #56]
 2902              	.L827:
 2903 0046 BDE8F88F 		pop	{r3, r4, r5, r6, r7, r8, r9, r10, fp, pc}
ARM GAS  /tmp/cc2a13AN.s 			page 52


 2904              	.L868:
 2905 004a C4F84CA0 		str	r10, [r4, #76]
 2906              	.L818:
 2907 004e E96B     		ldr	r1, [r5, #60]
 2908 0050 0B78     		ldrb	r3, [r1]	@ zero_extendqisi2
 2909 0052 002B     		cmp	r3, #0
 2910 0054 73D0     		beq	.L840
 2911 0056 2278     		ldrb	r2, [r4]	@ zero_extendqisi2
 2912 0058 042A     		cmp	r2, #4
 2913 005a 21D0     		beq	.L869
 2914 005c CA7A     		ldrb	r2, [r1, #11]	@ zero_extendqisi2
 2915 005e E52B     		cmp	r3, #229
 2916 0060 02F03F02 		and	r2, r2, #63
 2917 0064 AA71     		strb	r2, [r5, #6]
 2918 0066 0AD0     		beq	.L849
 2919 0068 2E2B     		cmp	r3, #46
 2920 006a 08D0     		beq	.L849
 2921 006c 22F02000 		bic	r0, r2, #32
 2922 0070 A0F10800 		sub	r0, #8
 2923 0074 B0FA80F0 		clz	r0, r0
 2924 0078 4009     		lsrs	r0, r0, #5
 2925 007a B042     		cmp	r0, r6
 2926 007c 29D0     		beq	.L870
 2927              	.L849:
 2928 007e FF27     		movs	r7, #255
 2929              	.L826:
 2930 0080 0021     		movs	r1, #0
 2931 0082 2846     		mov	r0, r5
 2932 0084 FFF7FEFF 		bl	dir_next
 2933 0088 0028     		cmp	r0, #0
 2934 008a DAD1     		bne	.L823
 2935 008c D5F838A0 		ldr	r10, [r5, #56]
 2936 0090 BAF1000F 		cmp	r10, #0
 2937 0094 C4D1     		bne	.L839
 2938              	.L867:
 2939 0096 0028     		cmp	r0, #0
 2940 0098 D3D1     		bne	.L823
 2941              	.L866:
 2942 009a 0020     		movs	r0, #0
 2943 009c BDE8F88F 		pop	{r3, r4, r5, r6, r7, r8, r9, r10, fp, pc}
 2944              	.L869:
 2945 00a0 46B1     		cbz	r6, .L825
 2946 00a2 832B     		cmp	r3, #131
 2947 00a4 ECD1     		bne	.L826
 2948 00a6 F8E7     		b	.L866
 2949              	.L819:
 2950 00a8 2046     		mov	r0, r4
 2951 00aa FFF7FEFF 		bl	sync_window.part.0
 2952 00ae 0028     		cmp	r0, #0
 2953 00b0 BCD0     		beq	.L822
 2954 00b2 C6E7     		b	.L823
 2955              	.L825:
 2956 00b4 852B     		cmp	r3, #133
 2957 00b6 E3D1     		bne	.L826
 2958 00b8 2B6B     		ldr	r3, [r5, #48]
 2959 00ba EB64     		str	r3, [r5, #76]
 2960 00bc 2846     		mov	r0, r5
ARM GAS  /tmp/cc2a13AN.s 			page 53


 2961 00be FFF7FEFF 		bl	load_xdir
 2962 00c2 0028     		cmp	r0, #0
 2963 00c4 BDD1     		bne	.L823
 2964 00c6 2369     		ldr	r3, [r4, #16]
 2965 00c8 1B79     		ldrb	r3, [r3, #4]	@ zero_extendqisi2
 2966 00ca 03F03F03 		and	r3, r3, #63
 2967 00ce AB71     		strb	r3, [r5, #6]
 2968 00d0 B9E7     		b	.L827
 2969              	.L870:
 2970 00d2 0F2A     		cmp	r2, #15
 2971 00d4 43D1     		bne	.L828
 2972 00d6 5806     		lsls	r0, r3, #25
 2973 00d8 2ED5     		bpl	.L829
 2974 00da 2A6B     		ldr	r2, [r5, #48]
 2975 00dc 91F80D90 		ldrb	r9, [r1, #13]	@ zero_extendqisi2
 2976 00e0 EA64     		str	r2, [r5, #76]
 2977 00e2 03F0BF03 		and	r3, r3, #191
 2978              	.L830:
 2979 00e6 4A7B     		ldrb	r2, [r1, #13]	@ zero_extendqisi2
 2980 00e8 4A45     		cmp	r2, r9
 2981 00ea C8D1     		bne	.L849
 2982 00ec 4A8B     		ldrh	r2, [r1, #26]	@ unaligned
 2983 00ee 002A     		cmp	r2, #0
 2984 00f0 C5D1     		bne	.L849
 2985 00f2 0A78     		ldrb	r2, [r1]	@ zero_extendqisi2
 2986 00f4 2348     		ldr	r0, .L872
 2987 00f6 D4F80CA0 		ldr	r10, [r4, #12]
 2988 00fa 22F04002 		bic	r2, r2, #64
 2989 00fe 013A     		subs	r2, r2, #1
 2990 0100 02EB4207 		add	r7, r2, r2, lsl #1
 2991 0104 02EB8702 		add	r2, r2, r7, lsl #2
 2992 0108 0127     		movs	r7, #1
 2993 010a 00F10C0E 		add	lr, r0, #12
 2994 010e BC46     		mov	ip, r7
 2995 0110 4FF6FF7B 		movw	fp, #65535
 2996 0114 09E0     		b	.L834
 2997              	.L871:
 2998 0116 FF2A     		cmp	r2, #255
 2999 0118 B1D8     		bhi	.L849
 3000 011a 2AF81270 		strh	r7, [r10, r2, lsl #1]	@ movhi
 3001 011e BC46     		mov	ip, r7
 3002 0120 0132     		adds	r2, r2, #1
 3003              	.L832:
 3004 0122 8645     		cmp	lr, r0
 3005 0124 0DD0     		beq	.L833
 3006 0126 10F8017F 		ldrb	r7, [r0, #1]!	@ zero_extendqisi2
 3007              	.L834:
 3008 012a CF5B     		ldrh	r7, [r1, r7]	@ unaligned
 3009 012c BCF1000F 		cmp	ip, #0
 3010 0130 F1D1     		bne	.L871
 3011 0132 5F45     		cmp	r7, fp
 3012 0134 F5D0     		beq	.L832
 3013 0136 A2E7     		b	.L849
 3014              	.L829:
 3015 0138 9F42     		cmp	r7, r3
 3016 013a A0D1     		bne	.L849
 3017 013c D3E7     		b	.L830
ARM GAS  /tmp/cc2a13AN.s 			page 54


 3018              	.L840:
 3019 013e 0420     		movs	r0, #4
 3020 0140 7FE7     		b	.L823
 3021              	.L833:
 3022 0142 0978     		ldrb	r1, [r1]	@ zero_extendqisi2
 3023 0144 4906     		lsls	r1, r1, #25
 3024 0146 07D5     		bpl	.L835
 3025 0148 BCF1000F 		cmp	ip, #0
 3026 014c 04D0     		beq	.L835
 3027 014e FF2A     		cmp	r2, #255
 3028 0150 95D8     		bhi	.L849
 3029 0152 0021     		movs	r1, #0
 3030 0154 2AF81210 		strh	r1, [r10, r2, lsl #1]	@ movhi
 3031              	.L835:
 3032 0158 013B     		subs	r3, r3, #1
 3033 015a DFB2     		uxtb	r7, r3
 3034 015c 90E7     		b	.L826
 3035              	.L828:
 3036 015e 6FB9     		cbnz	r7, .L836
 3037 0160 01F10B02 		add	r2, r1, #11
 3038              	.L837:
 3039 0164 FB01     		lsls	r3, r7, #7
 3040 0166 43EA5707 		orr	r7, r3, r7, lsr #1
 3041 016a 11F8013B 		ldrb	r3, [r1], #1	@ zero_extendqisi2
 3042 016e 53FA87F7 		uxtab	r7, r3, r7
 3043 0172 9142     		cmp	r1, r2
 3044 0174 FFB2     		uxtb	r7, r7
 3045 0176 F5D1     		bne	.L837
 3046 0178 B945     		cmp	r9, r7
 3047 017a 8ED0     		beq	.L866
 3048              	.L836:
 3049 017c 4FF0FF33 		mov	r3, #-1
 3050 0180 EB64     		str	r3, [r5, #76]
 3051 0182 8AE7     		b	.L866
 3052              	.L873:
 3053              		.align	2
 3054              	.L872:
 3055 0184 00000000 		.word	.LANCHOR3
 3056              		.size	dir_read, .-dir_read
 3057              		.section	.text.store_xdir,"ax",%progbits
 3058              		.align	1
 3059              		.p2align 4,,15
 3060              		.syntax unified
 3061              		.thumb
 3062              		.thumb_func
 3063              		.fpu fpv4-sp-d16
 3064              		.type	store_xdir, %function
 3065              	store_xdir:
 3066              		@ args = 0, pretend = 0, frame = 0
 3067              		@ frame_needed = 0, uses_anonymous_args = 0
 3068 0000 2DE9F047 		push	{r4, r5, r6, r7, r8, r9, r10, lr}
 3069 0004 0368     		ldr	r3, [r0]
 3070 0006 1C69     		ldr	r4, [r3, #16]
 3071 0008 6778     		ldrb	r7, [r4, #1]	@ zero_extendqisi2
 3072 000a 0021     		movs	r1, #0
 3073 000c 0137     		adds	r7, r7, #1
 3074 000e 0546     		mov	r5, r0
ARM GAS  /tmp/cc2a13AN.s 			page 55


 3075 0010 0A46     		mov	r2, r1
 3076 0012 7801     		lsls	r0, r7, #5
 3077              	.L878:
 3078 0014 022A     		cmp	r2, #2
 3079 0016 0ED1     		bne	.L875
 3080 0018 2379     		ldrb	r3, [r4, #4]	@ zero_extendqisi2
 3081 001a 6279     		ldrb	r2, [r4, #5]	@ zero_extendqisi2
 3082 001c 03EBC133 		add	r3, r3, r1, lsl #15
 3083 0020 9BB2     		uxth	r3, r3
 3084 0022 03EB5103 		add	r3, r3, r1, lsr #1
 3085 0026 C3F34E01 		ubfx	r1, r3, #1, #15
 3086 002a 02EBC333 		add	r3, r2, r3, lsl #15
 3087 002e 11FA83F3 		uxtah	r3, r1, r3
 3088 0032 99B2     		uxth	r1, r3
 3089 0034 0622     		movs	r2, #6
 3090              	.L875:
 3091 0036 A35C     		ldrb	r3, [r4, r2]	@ zero_extendqisi2
 3092 0038 03EBC133 		add	r3, r3, r1, lsl #15
 3093 003c 0132     		adds	r2, r2, #1
 3094 003e 9BB2     		uxth	r3, r3
 3095 0040 03EB5103 		add	r3, r3, r1, lsr #1
 3096 0044 9042     		cmp	r0, r2
 3097 0046 99B2     		uxth	r1, r3
 3098 0048 E4D8     		bhi	.L878
 3099 004a 0B0A     		lsrs	r3, r1, #8
 3100 004c A170     		strb	r1, [r4, #2]
 3101 004e E370     		strb	r3, [r4, #3]
 3102 0050 E96C     		ldr	r1, [r5, #76]
 3103 0052 2846     		mov	r0, r5
 3104 0054 FFF7FEFF 		bl	dir_sdi
 3105 0058 8146     		mov	r9, r0
 3106 005a 0028     		cmp	r0, #0
 3107 005c 4CD1     		bne	.L879
 3108 005e 4FF00108 		mov	r8, #1
 3109              	.L884:
 3110 0062 2E68     		ldr	r6, [r5]
 3111 0064 D5F838A0 		ldr	r10, [r5, #56]
 3112 0068 F36C     		ldr	r3, [r6, #76]
 3113 006a 9A45     		cmp	r10, r3
 3114 006c 13D0     		beq	.L880
 3115 006e F378     		ldrb	r3, [r6, #3]	@ zero_extendqisi2
 3116 0070 BBBB     		cbnz	r3, .L898
 3117              	.L881:
 3118 0072 7078     		ldrb	r0, [r6, #1]	@ zero_extendqisi2
 3119 0074 0123     		movs	r3, #1
 3120 0076 5246     		mov	r2, r10
 3121 0078 06F15001 		add	r1, r6, #80
 3122 007c FFF7FEFF 		bl	disk_read
 3123 0080 38B1     		cbz	r0, .L883
 3124 0082 4FF0FF33 		mov	r3, #-1
 3125 0086 F364     		str	r3, [r6, #76]
 3126 0088 4FF00109 		mov	r9, #1
 3127              	.L882:
 3128 008c 4846     		mov	r0, r9
 3129 008e BDE8F087 		pop	{r4, r5, r6, r7, r8, r9, r10, pc}
 3130              	.L883:
 3131 0092 C6F84CA0 		str	r10, [r6, #76]
ARM GAS  /tmp/cc2a13AN.s 			page 56


 3132              	.L880:
 3133 0096 EB6B     		ldr	r3, [r5, #60]
 3134 0098 2068     		ldr	r0, [r4]	@ unaligned
 3135 009a 6168     		ldr	r1, [r4, #4]	@ unaligned
 3136 009c A268     		ldr	r2, [r4, #8]	@ unaligned
 3137 009e E668     		ldr	r6, [r4, #12]	@ unaligned
 3138 00a0 DE60     		str	r6, [r3, #12]	@ unaligned
 3139 00a2 1860     		str	r0, [r3]	@ unaligned
 3140 00a4 5960     		str	r1, [r3, #4]	@ unaligned
 3141 00a6 9A60     		str	r2, [r3, #8]	@ unaligned
 3142 00a8 2069     		ldr	r0, [r4, #16]	@ unaligned
 3143 00aa 6169     		ldr	r1, [r4, #20]	@ unaligned
 3144 00ac A269     		ldr	r2, [r4, #24]	@ unaligned
 3145 00ae E669     		ldr	r6, [r4, #28]	@ unaligned
 3146 00b0 DE61     		str	r6, [r3, #28]	@ unaligned
 3147 00b2 1861     		str	r0, [r3, #16]	@ unaligned
 3148 00b4 5961     		str	r1, [r3, #20]	@ unaligned
 3149 00b6 9A61     		str	r2, [r3, #24]	@ unaligned
 3150 00b8 2B68     		ldr	r3, [r5]
 3151 00ba 013F     		subs	r7, r7, #1
 3152 00bc 4FF00001 		mov	r1, #0
 3153 00c0 2846     		mov	r0, r5
 3154 00c2 83F80380 		strb	r8, [r3, #3]
 3155 00c6 E1D0     		beq	.L882
 3156 00c8 FFF7FEFF 		bl	dir_next
 3157 00cc 2034     		adds	r4, r4, #32
 3158 00ce 0028     		cmp	r0, #0
 3159 00d0 C7D0     		beq	.L884
 3160 00d2 0228     		cmp	r0, #2
 3161 00d4 28BF     		it	cs
 3162 00d6 0220     		movcs	r0, #2
 3163 00d8 5FFA80F9 		uxtb	r9, r0
 3164              	.L899:
 3165 00dc 4846     		mov	r0, r9
 3166 00de BDE8F087 		pop	{r4, r5, r6, r7, r8, r9, r10, pc}
 3167              	.L898:
 3168 00e2 3046     		mov	r0, r6
 3169 00e4 FFF7FEFF 		bl	sync_window.part.0
 3170 00e8 0028     		cmp	r0, #0
 3171 00ea C2D0     		beq	.L881
 3172 00ec 0228     		cmp	r0, #2
 3173 00ee 28BF     		it	cs
 3174 00f0 0220     		movcs	r0, #2
 3175 00f2 5FFA80F9 		uxtb	r9, r0
 3176 00f6 F1E7     		b	.L899
 3177              	.L879:
 3178 00f8 0228     		cmp	r0, #2
 3179 00fa 28BF     		it	cs
 3180 00fc 4FF00209 		movcs	r9, #2
 3181 0100 5FFA89F9 		uxtb	r9, r9
 3182 0104 C2E7     		b	.L882
 3183              		.size	store_xdir, .-store_xdir
 3184 0106 00BF     		.section	.text.dir_find,"ax",%progbits
 3185              		.align	1
 3186              		.p2align 4,,15
 3187              		.syntax unified
 3188              		.thumb
ARM GAS  /tmp/cc2a13AN.s 			page 57


 3189              		.thumb_func
 3190              		.fpu fpv4-sp-d16
 3191              		.type	dir_find, %function
 3192              	dir_find:
 3193              		@ args = 0, pretend = 0, frame = 16
 3194              		@ frame_needed = 0, uses_anonymous_args = 0
 3195 0000 2DE9F04F 		push	{r4, r5, r6, r7, r8, r9, r10, fp, lr}
 3196 0004 2DED028B 		vpush.64	{d8}
 3197 0008 0021     		movs	r1, #0
 3198 000a 85B0     		sub	sp, sp, #20
 3199 000c 0668     		ldr	r6, [r0]
 3200 000e 0546     		mov	r5, r0
 3201 0010 FFF7FEFF 		bl	dir_sdi
 3202 0014 E8B9     		cbnz	r0, .L972
 3203 0016 3378     		ldrb	r3, [r6]	@ zero_extendqisi2
 3204 0018 042B     		cmp	r3, #4
 3205 001a 00F0C480 		beq	.L975
 3206 001e 4FF0FF33 		mov	r3, #-1
 3207 0022 4FF0FF09 		mov	r9, #255
 3208 0026 EB64     		str	r3, [r5, #76]
 3209 0028 CA46     		mov	r10, r9
 3210 002a 06F15008 		add	r8, r6, #80
 3211              	.L934:
 3212 002e AC6B     		ldr	r4, [r5, #56]
 3213 0030 F36C     		ldr	r3, [r6, #76]
 3214 0032 9C42     		cmp	r4, r3
 3215 0034 13D0     		beq	.L913
 3216 0036 F378     		ldrb	r3, [r6, #3]	@ zero_extendqisi2
 3217 0038 002B     		cmp	r3, #0
 3218 003a 42D1     		bne	.L914
 3219              	.L917:
 3220 003c 7078     		ldrb	r0, [r6, #1]	@ zero_extendqisi2
 3221 003e 0123     		movs	r3, #1
 3222 0040 2246     		mov	r2, r4
 3223 0042 4146     		mov	r1, r8
 3224 0044 FFF7FEFF 		bl	disk_read
 3225 0048 40B1     		cbz	r0, .L976
 3226 004a 4FF0FF33 		mov	r3, #-1
 3227 004e F364     		str	r3, [r6, #76]
 3228 0050 0120     		movs	r0, #1
 3229              	.L972:
 3230 0052 05B0     		add	sp, sp, #20
 3231              		@ sp needed
 3232 0054 BDEC028B 		vldm	sp!, {d8}
 3233 0058 BDE8F08F 		pop	{r4, r5, r6, r7, r8, r9, r10, fp, pc}
 3234              	.L976:
 3235 005c F464     		str	r4, [r6, #76]
 3236              	.L913:
 3237 005e EC6B     		ldr	r4, [r5, #60]
 3238 0060 2778     		ldrb	r7, [r4]	@ zero_extendqisi2
 3239 0062 002F     		cmp	r7, #0
 3240 0064 00F09D80 		beq	.L938
 3241 0068 E27A     		ldrb	r2, [r4, #11]	@ zero_extendqisi2
 3242 006a E52F     		cmp	r7, #229
 3243 006c 02F03F03 		and	r3, r2, #63
 3244 0070 AB71     		strb	r3, [r5, #6]
 3245 0072 03D0     		beq	.L932
ARM GAS  /tmp/cc2a13AN.s 			page 58


 3246 0074 1207     		lsls	r2, r2, #28
 3247 0076 11D5     		bpl	.L919
 3248 0078 0F2B     		cmp	r3, #15
 3249 007a 2CD0     		beq	.L920
 3250              	.L932:
 3251 007c 4FF0FF33 		mov	r3, #-1
 3252 0080 EB64     		str	r3, [r5, #76]
 3253 0082 4FF0FF0A 		mov	r10, #255
 3254              	.L921:
 3255 0086 0021     		movs	r1, #0
 3256 0088 2846     		mov	r0, r5
 3257 008a FFF7FEFF 		bl	dir_next
 3258 008e 0028     		cmp	r0, #0
 3259 0090 CDD0     		beq	.L934
 3260 0092 05B0     		add	sp, sp, #20
 3261              		@ sp needed
 3262 0094 BDEC028B 		vldm	sp!, {d8}
 3263 0098 BDE8F08F 		pop	{r4, r5, r6, r7, r8, r9, r10, fp, pc}
 3264              	.L919:
 3265 009c 0F2B     		cmp	r3, #15
 3266 009e 1AD0     		beq	.L920
 3267 00a0 BAF1000F 		cmp	r10, #0
 3268 00a4 66D0     		beq	.L977
 3269              	.L930:
 3270 00a6 95F84B30 		ldrb	r3, [r5, #75]	@ zero_extendqisi2
 3271 00aa DB07     		lsls	r3, r3, #31
 3272 00ac E6D4     		bmi	.L932
 3273 00ae 0B22     		movs	r2, #11
 3274 00b0 05F14001 		add	r1, r5, #64
 3275 00b4 2046     		mov	r0, r4
 3276 00b6 FFF7FEFF 		bl	memcmp
 3277 00ba 0028     		cmp	r0, #0
 3278 00bc DED1     		bne	.L932
 3279              	.L933:
 3280 00be 0020     		movs	r0, #0
 3281 00c0 C7E7     		b	.L972
 3282              	.L914:
 3283 00c2 3046     		mov	r0, r6
 3284 00c4 FFF7FEFF 		bl	sync_window.part.0
 3285 00c8 0028     		cmp	r0, #0
 3286 00ca B7D0     		beq	.L917
 3287 00cc 05B0     		add	sp, sp, #20
 3288              		@ sp needed
 3289 00ce BDEC028B 		vldm	sp!, {d8}
 3290 00d2 BDE8F08F 		pop	{r4, r5, r6, r7, r8, r9, r10, fp, pc}
 3291              	.L920:
 3292 00d6 95F84B30 		ldrb	r3, [r5, #75]	@ zero_extendqisi2
 3293 00da 5806     		lsls	r0, r3, #25
 3294 00dc D3D4     		bmi	.L921
 3295 00de 7906     		lsls	r1, r7, #25
 3296 00e0 5AD5     		bpl	.L923
 3297 00e2 2B6B     		ldr	r3, [r5, #48]
 3298 00e4 94F80D90 		ldrb	r9, [r4, #13]	@ zero_extendqisi2
 3299 00e8 EB64     		str	r3, [r5, #76]
 3300 00ea 07F0BF07 		and	r7, r7, #191
 3301              	.L924:
 3302 00ee 637B     		ldrb	r3, [r4, #13]	@ zero_extendqisi2
ARM GAS  /tmp/cc2a13AN.s 			page 59


 3303 00f0 4B45     		cmp	r3, r9
 3304 00f2 53D1     		bne	.L945
 3305 00f4 638B     		ldrh	r3, [r4, #26]	@ unaligned
 3306 00f6 002B     		cmp	r3, #0
 3307 00f8 50D1     		bne	.L945
 3308 00fa 94F800A0 		ldrb	r10, [r4]	@ zero_extendqisi2
 3309 00fe F268     		ldr	r2, [r6, #12]
 3310 0100 DFF86CB1 		ldr	fp, .L981+4
 3311 0104 0297     		str	r7, [sp, #8]
 3312 0106 0AF03F0A 		and	r10, r10, #63
 3313 010a 0AF1FF3A 		add	r10, r10, #-1
 3314 010e 0AEB4A03 		add	r3, r10, r10, lsl #1
 3315 0112 0AEB830A 		add	r10, r10, r3, lsl #2
 3316 0116 0123     		movs	r3, #1
 3317 0118 0195     		str	r5, [sp, #4]
 3318 011a 08EE108A 		vmov	s16, r8	@ int
 3319 011e 0392     		str	r2, [sp, #12]
 3320 0120 0BF10C01 		add	r1, fp, #12
 3321 0124 1846     		mov	r0, r3
 3322 0126 1746     		mov	r7, r2
 3323 0128 2546     		mov	r5, r4
 3324 012a 14E0     		b	.L928
 3325              	.L978:
 3326 012c BAF1FF0F 		cmp	r10, #255
 3327 0130 2046     		mov	r0, r4
 3328 0132 19D8     		bhi	.L944
 3329 0134 FFF7FEFF 		bl	ff_wtoupper
 3330 0138 0346     		mov	r3, r0
 3331 013a 37F81A00 		ldrh	r0, [r7, r10, lsl #1]
 3332 013e 9A46     		mov	r10, r3
 3333 0140 FFF7FEFF 		bl	ff_wtoupper
 3334 0144 8245     		cmp	r10, r0
 3335 0146 0FD1     		bne	.L944
 3336 0148 4849     		ldr	r1, .L981
 3337 014a 2046     		mov	r0, r4
 3338 014c C246     		mov	r10, r8
 3339              	.L926:
 3340 014e 8B45     		cmp	fp, r1
 3341 0150 76D0     		beq	.L927
 3342 0152 1BF8013F 		ldrb	r3, [fp, #1]!	@ zero_extendqisi2
 3343              	.L928:
 3344 0156 EC5A     		ldrh	r4, [r5, r3]	@ unaligned
 3345 0158 0AF10108 		add	r8, r10, #1
 3346 015c 0028     		cmp	r0, #0
 3347 015e E5D1     		bne	.L978
 3348 0160 4FF6FF73 		movw	r3, #65535
 3349 0164 9C42     		cmp	r4, r3
 3350 0166 F2D0     		beq	.L926
 3351              	.L944:
 3352 0168 019D     		ldr	r5, [sp, #4]
 3353 016a 18EE108A 		vmov	r8, s16	@ int
 3354 016e 4FF0FF0A 		mov	r10, #255
 3355 0172 88E7     		b	.L921
 3356              	.L977:
 3357 0174 04F10B00 		add	r0, r4, #11
 3358 0178 2246     		mov	r2, r4
 3359              	.L931:
ARM GAS  /tmp/cc2a13AN.s 			page 60


 3360 017a 12F8011B 		ldrb	r1, [r2], #1	@ zero_extendqisi2
 3361 017e 4FEACA13 		lsl	r3, r10, #7
 3362 0182 43EA5A0A 		orr	r10, r3, r10, lsr #1
 3363 0186 51FA8AFA 		uxtab	r10, r1, r10
 3364 018a 8242     		cmp	r2, r0
 3365 018c 5FFA8AFA 		uxtb	r10, r10
 3366 0190 F3D1     		bne	.L931
 3367 0192 D145     		cmp	r9, r10
 3368 0194 87D1     		bne	.L930
 3369 0196 92E7     		b	.L933
 3370              	.L923:
 3371 0198 BA45     		cmp	r10, r7
 3372 019a A8D0     		beq	.L924
 3373              	.L945:
 3374 019c 4FF0FF0A 		mov	r10, #255
 3375 01a0 71E7     		b	.L921
 3376              	.L938:
 3377 01a2 0420     		movs	r0, #4
 3378 01a4 55E7     		b	.L972
 3379              	.L975:
 3380 01a6 F468     		ldr	r4, [r6, #12]
 3381 01a8 34F8023B 		ldrh	r3, [r4], #2
 3382 01ac 002B     		cmp	r3, #0
 3383 01ae 5BD0     		beq	.L936
 3384 01b0 0746     		mov	r7, r0
 3385 01b2 1846     		mov	r0, r3
 3386              	.L904:
 3387 01b4 FFF7FEFF 		bl	ff_wtoupper
 3388 01b8 C3B2     		uxtb	r3, r0
 3389 01ba 03EB5703 		add	r3, r3, r7, lsr #1
 3390 01be 03EBC732 		add	r2, r3, r7, lsl #15
 3391 01c2 93B2     		uxth	r3, r2
 3392 01c4 C0F30722 		ubfx	r2, r0, #8, #8
 3393 01c8 02EB5302 		add	r2, r2, r3, lsr #1
 3394 01cc 34F8020B 		ldrh	r0, [r4], #2
 3395 01d0 02EBC332 		add	r2, r2, r3, lsl #15
 3396 01d4 97B2     		uxth	r7, r2
 3397 01d6 0028     		cmp	r0, #0
 3398 01d8 ECD1     		bne	.L904
 3399              	.L906:
 3400 01da 0021     		movs	r1, #0
 3401 01dc 2846     		mov	r0, r5
 3402 01de FFF7FEFF 		bl	dir_read
 3403 01e2 0028     		cmp	r0, #0
 3404 01e4 7FF435AF 		bne	.L972
 3405 01e8 3369     		ldr	r3, [r6, #16]
 3406 01ea 9A8C     		ldrh	r2, [r3, #36]	@ unaligned
 3407 01ec BA42     		cmp	r2, r7
 3408 01ee F4D1     		bne	.L906
 3409 01f0 93F823A0 		ldrb	r10, [r3, #35]	@ zero_extendqisi2
 3410 01f4 BAF1000F 		cmp	r10, #0
 3411 01f8 34D0     		beq	.L937
 3412 01fa 0446     		mov	r4, r0
 3413 01fc 4FF04008 		mov	r8, #64
 3414 0200 02E0     		b	.L911
 3415              	.L980:
 3416 0202 5445     		cmp	r4, r10
ARM GAS  /tmp/cc2a13AN.s 			page 61


 3417 0204 16D0     		beq	.L979
 3418 0206 3369     		ldr	r3, [r6, #16]
 3419              	.L911:
 3420 0208 18F01F0F 		tst	r8, #31
 3421 020c 08BF     		it	eq
 3422 020e 08F10208 		addeq	r8, r8, #2
 3423 0212 33F80800 		ldrh	r0, [r3, r8]	@ unaligned
 3424 0216 FFF7FEFF 		bl	ff_wtoupper
 3425 021a F368     		ldr	r3, [r6, #12]
 3426 021c 8146     		mov	r9, r0
 3427 021e 33F81400 		ldrh	r0, [r3, r4, lsl #1]
 3428 0222 FFF7FEFF 		bl	ff_wtoupper
 3429 0226 8145     		cmp	r9, r0
 3430 0228 04F10104 		add	r4, r4, #1
 3431 022c 08F10208 		add	r8, r8, #2
 3432 0230 E7D0     		beq	.L980
 3433 0232 D2E7     		b	.L906
 3434              	.L979:
 3435 0234 6400     		lsls	r4, r4, #1
 3436              	.L907:
 3437 0236 F368     		ldr	r3, [r6, #12]
 3438 0238 1B5B     		ldrh	r3, [r3, r4]
 3439 023a 002B     		cmp	r3, #0
 3440 023c CDD1     		bne	.L906
 3441 023e 3EE7     		b	.L933
 3442              	.L927:
 3443 0240 2C46     		mov	r4, r5
 3444 0242 18EE108A 		vmov	r8, s16	@ int
 3445 0246 2378     		ldrb	r3, [r4]	@ zero_extendqisi2
 3446 0248 5A06     		lsls	r2, r3, #25
 3447 024a DDE90157 		ldrd	r5, r7, [sp, #4]
 3448 024e 05D5     		bpl	.L929
 3449 0250 20B1     		cbz	r0, .L929
 3450 0252 039B     		ldr	r3, [sp, #12]
 3451 0254 33F81A30 		ldrh	r3, [r3, r10, lsl #1]
 3452 0258 002B     		cmp	r3, #0
 3453 025a 9FD1     		bne	.L945
 3454              	.L929:
 3455 025c 013F     		subs	r7, r7, #1
 3456 025e 5FFA87FA 		uxtb	r10, r7
 3457 0262 10E7     		b	.L921
 3458              	.L937:
 3459 0264 5446     		mov	r4, r10
 3460 0266 E6E7     		b	.L907
 3461              	.L936:
 3462 0268 1F46     		mov	r7, r3
 3463 026a B6E7     		b	.L906
 3464              	.L982:
 3465              		.align	2
 3466              	.L981:
 3467 026c 0C000000 		.word	.LANCHOR3+12
 3468 0270 00000000 		.word	.LANCHOR3
 3469              		.size	dir_find, .-dir_find
 3470              		.section	.rodata.follow_path.str1.4,"aMS",%progbits,1
 3471              		.align	2
 3472              	.LC2:
 3473 0000 2A3A3C3E 		.ascii	"*:<>|\"?\177\000"
ARM GAS  /tmp/cc2a13AN.s 			page 62


 3473      7C223F7F 
 3473      00
 3474 0009 000000   		.align	2
 3475              	.LC3:
 3476 000c 2B2C3B3D 		.ascii	"+,;=[]\000"
 3476      5B5D00
 3477              		.section	.text.follow_path,"ax",%progbits
 3478              		.align	1
 3479              		.p2align 4,,15
 3480              		.syntax unified
 3481              		.thumb
 3482              		.thumb_func
 3483              		.fpu fpv4-sp-d16
 3484              		.type	follow_path, %function
 3485              	follow_path:
 3486              		@ args = 0, pretend = 0, frame = 104
 3487              		@ frame_needed = 0, uses_anonymous_args = 0
 3488 0000 2DE9F04F 		push	{r4, r5, r6, r7, r8, r9, r10, fp, lr}
 3489 0004 0B78     		ldrb	r3, [r1]	@ zero_extendqisi2
 3490 0006 0268     		ldr	r2, [r0]
 3491 0008 9BB0     		sub	sp, sp, #108
 3492 000a 2F2B     		cmp	r3, #47
 3493 000c 0D46     		mov	r5, r1
 3494 000e 8346     		mov	fp, r0
 3495 0010 0092     		str	r2, [sp]
 3496 0012 04D0     		beq	.L988
 3497 0014 5C2B     		cmp	r3, #92
 3498 0016 04D0     		beq	.L985
 3499 0018 136A     		ldr	r3, [r2, #32]
 3500 001a 8360     		str	r3, [r0, #8]
 3501 001c 08E0     		b	.L987
 3502              	.L988:
 3503 001e 15F8013F 		ldrb	r3, [r5, #1]!	@ zero_extendqisi2
 3504              	.L985:
 3505 0022 2F2B     		cmp	r3, #47
 3506 0024 FBD0     		beq	.L988
 3507 0026 5C2B     		cmp	r3, #92
 3508 0028 F9D0     		beq	.L988
 3509 002a 0023     		movs	r3, #0
 3510 002c CBF80830 		str	r3, [fp, #8]
 3511              	.L987:
 3512 0030 009A     		ldr	r2, [sp]
 3513 0032 0023     		movs	r3, #0
 3514 0034 CBF81C30 		str	r3, [fp, #28]
 3515 0038 1278     		ldrb	r2, [r2]	@ zero_extendqisi2
 3516 003a 042A     		cmp	r2, #4
 3517 003c 68D0     		beq	.L1164
 3518              	.L989:
 3519 003e 2B78     		ldrb	r3, [r5]	@ zero_extendqisi2
 3520 0040 1F2B     		cmp	r3, #31
 3521 0042 40F25D81 		bls	.L1146
 3522 0046 DFF89883 		ldr	r8, .L1176+12
 3523              	.L993:
 3524 004a DBF80020 		ldr	r2, [fp]
 3525 004e D2F80CA0 		ldr	r10, [r2, #12]
 3526 0052 6F1C     		adds	r7, r5, #1
 3527 0054 0024     		movs	r4, #0
ARM GAS  /tmp/cc2a13AN.s 			page 63


 3528 0056 AAF10209 		sub	r9, r10, #2
 3529              	.L998:
 3530 005a 98B2     		uxth	r0, r3
 3531 005c 3D46     		mov	r5, r7
 3532 005e EBB9     		cbnz	r3, .L1165
 3533              	.L1063:
 3534 0060 012C     		cmp	r4, #1
 3535 0062 4FF00406 		mov	r6, #4
 3536 0066 44D0     		beq	.L1166
 3537              	.L1000:
 3538 0068 022C     		cmp	r4, #2
 3539 006a 4AD0     		beq	.L1167
 3540 006c 7CB1     		cbz	r4, .L1004
 3541 006e 04F10042 		add	r2, r4, #-2147483648
 3542 0072 013A     		subs	r2, r2, #1
 3543 0074 3AF81230 		ldrh	r3, [r10, r2, lsl #1]
 3544              	.L1002:
 3545 0078 0AEB4202 		add	r2, r10, r2, lsl #1
 3546 007c 01E0     		b	.L1010
 3547              	.L1168:
 3548 007e 32F8023D 		ldrh	r3, [r2, #-2]!
 3549              	.L1010:
 3550 0082 202B     		cmp	r3, #32
 3551 0084 01D0     		beq	.L1008
 3552 0086 2E2B     		cmp	r3, #46
 3553 0088 70D1     		bne	.L1009
 3554              	.L1008:
 3555 008a 013C     		subs	r4, r4, #1
 3556 008c F7D1     		bne	.L1168
 3557              	.L1004:
 3558 008e 0023     		movs	r3, #0
 3559 0090 AAF80030 		strh	r3, [r10]	@ movhi
 3560              	.L1162:
 3561 0094 0620     		movs	r0, #6
 3562              	.L1064:
 3563 0096 1BB0     		add	sp, sp, #108
 3564              		@ sp needed
 3565 0098 BDE8F08F 		pop	{r4, r5, r6, r7, r8, r9, r10, fp, pc}
 3566              	.L1165:
 3567 009c 40F25231 		movw	r1, #850
 3568 00a0 FFF7FEFF 		bl	ff_oem2uni
 3569 00a4 0646     		mov	r6, r0
 3570 00a6 0028     		cmp	r0, #0
 3571 00a8 F4D0     		beq	.L1162
 3572 00aa 1F2E     		cmp	r6, #31
 3573 00ac 0146     		mov	r1, r0
 3574 00ae 4046     		mov	r0, r8
 3575 00b0 D6D9     		bls	.L1063
 3576 00b2 2F2E     		cmp	r6, #47
 3577 00b4 0FD0     		beq	.L1119
 3578 00b6 5C2E     		cmp	r6, #92
 3579 00b8 0DD0     		beq	.L1119
 3580 00ba 7F2E     		cmp	r6, #127
 3581 00bc 03D8     		bhi	.L997
 3582 00be FFF7FEFF 		bl	strchr
 3583 00c2 0028     		cmp	r0, #0
 3584 00c4 E6D1     		bne	.L1162
ARM GAS  /tmp/cc2a13AN.s 			page 64


 3585              	.L997:
 3586 00c6 FF2C     		cmp	r4, #255
 3587 00c8 E4D0     		beq	.L1162
 3588 00ca 29F8026F 		strh	r6, [r9, #2]!	@ movhi
 3589 00ce 0134     		adds	r4, r4, #1
 3590 00d0 17F8013B 		ldrb	r3, [r7], #1	@ zero_extendqisi2
 3591 00d4 C1E7     		b	.L998
 3592              	.L1119:
 3593 00d6 3B78     		ldrb	r3, [r7]	@ zero_extendqisi2
 3594 00d8 2F2B     		cmp	r3, #47
 3595 00da 3D46     		mov	r5, r7
 3596 00dc 07F10107 		add	r7, r7, #1
 3597 00e0 F9D0     		beq	.L1119
 3598 00e2 5C2B     		cmp	r3, #92
 3599 00e4 F7D0     		beq	.L1119
 3600 00e6 1F2B     		cmp	r3, #31
 3601 00e8 8CBF     		ite	hi
 3602 00ea 0026     		movhi	r6, #0
 3603 00ec 0426     		movls	r6, #4
 3604 00ee 012C     		cmp	r4, #1
 3605 00f0 BAD1     		bne	.L1000
 3606              	.L1166:
 3607 00f2 BAF80030 		ldrh	r3, [r10]
 3608 00f6 2E2B     		cmp	r3, #46
 3609 00f8 00F02781 		beq	.L1001
 3610 00fc 4FF00042 		mov	r2, #-2147483648
 3611 0100 BAE7     		b	.L1002
 3612              	.L1167:
 3613 0102 BAF80230 		ldrh	r3, [r10, #2]
 3614 0106 2E2B     		cmp	r3, #46
 3615 0108 00F01A81 		beq	.L1148
 3616              	.L1159:
 3617 010c B14A     		ldr	r2, .L1176
 3618 010e B3E7     		b	.L1002
 3619              	.L1164:
 3620 0110 DBF80820 		ldr	r2, [fp, #8]
 3621 0114 002A     		cmp	r2, #0
 3622 0116 92D0     		beq	.L989
 3623 0118 0099     		ldr	r1, [sp]
 3624 011a 0993     		str	r3, [sp, #36]
 3625 011c 0B93     		str	r3, [sp, #44]
 3626 011e 8B6A     		ldr	r3, [r1, #40]
 3627 0120 4A6A     		ldr	r2, [r1, #36]
 3628 0122 0491     		str	r1, [sp, #16]
 3629 0124 C96A     		ldr	r1, [r1, #44]
 3630 0126 CBF82430 		str	r3, [fp, #36]
 3631 012a 8DF81730 		strb	r3, [sp, #23]
 3632 012e CBF82020 		str	r2, [fp, #32]
 3633 0132 23F0FF03 		bic	r3, r3, #255
 3634 0136 CBF82810 		str	r1, [fp, #40]
 3635 013a 04A8     		add	r0, sp, #16
 3636 013c 0692     		str	r2, [sp, #24]
 3637 013e 0893     		str	r3, [sp, #32]
 3638 0140 1791     		str	r1, [sp, #92]
 3639 0142 FFF7FEFF 		bl	dir_sdi
 3640 0146 0028     		cmp	r0, #0
 3641 0148 A5D1     		bne	.L1064
ARM GAS  /tmp/cc2a13AN.s 			page 65


 3642 014a 04A8     		add	r0, sp, #16
 3643 014c FFF7FEFF 		bl	load_xdir
 3644 0150 0028     		cmp	r0, #0
 3645 0152 A0D1     		bne	.L1064
 3646 0154 009A     		ldr	r2, [sp]
 3647 0156 1269     		ldr	r2, [r2, #16]
 3648 0158 916B     		ldr	r1, [r2, #56]	@ unaligned
 3649 015a CBE90410 		strd	r1, r0, [fp, #16]
 3650 015e 92F82130 		ldrb	r3, [r2, #33]	@ zero_extendqisi2
 3651 0162 03F00203 		and	r3, r3, #2
 3652 0166 8BF80730 		strb	r3, [fp, #7]
 3653 016a 68E7     		b	.L989
 3654              	.L1009:
 3655 016c 0022     		movs	r2, #0
 3656 016e 2AF81420 		strh	r2, [r10, r4, lsl #1]	@ movhi
 3657 0172 BAF80030 		ldrh	r3, [r10]
 3658 0176 202B     		cmp	r3, #32
 3659 0178 08BF     		it	eq
 3660 017a 0AF10203 		addeq	r3, r10, #2
 3661 017e 40F0B880 		bne	.L1169
 3662              	.L1011:
 3663 0182 1946     		mov	r1, r3
 3664 0184 33F8020B 		ldrh	r0, [r3], #2
 3665 0188 2028     		cmp	r0, #32
 3666 018a 9146     		mov	r9, r2
 3667 018c 02F10102 		add	r2, r2, #1
 3668 0190 F7D0     		beq	.L1011
 3669 0192 09F10209 		add	r9, r9, #2
 3670              	.L1012:
 3671 0196 46F00306 		orr	r6, r6, #3
 3672 019a F6B2     		uxtb	r6, r6
 3673              	.L1013:
 3674 019c 0AEB4403 		add	r3, r10, r4, lsl #1
 3675              	.L1014:
 3676 01a0 33F8022D 		ldrh	r2, [r3, #-2]!
 3677 01a4 2E2A     		cmp	r2, #46
 3678 01a6 01D0     		beq	.L1015
 3679 01a8 013C     		subs	r4, r4, #1
 3680 01aa F9D1     		bne	.L1014
 3681              	.L1015:
 3682 01ac 4FF02033 		mov	r3, #538976288
 3683 01b0 CBF84430 		str	r3, [fp, #68]	@ unaligned
 3684 01b4 CBF84030 		str	r3, [fp, #64]	@ unaligned
 3685 01b8 CBF84730 		str	r3, [fp, #71]	@ unaligned
 3686 01bc 0988     		ldrh	r1, [r1]
 3687 01be 0029     		cmp	r1, #0
 3688 01c0 4CD0     		beq	.L1017
 3689 01c2 0822     		movs	r2, #8
 3690 01c4 2846     		mov	r0, r5
 3691 01c6 0027     		movs	r7, #0
 3692 01c8 2546     		mov	r5, r4
 3693 01ca 5B46     		mov	r3, fp
 3694 01cc 3C46     		mov	r4, r7
 3695 01ce D346     		mov	fp, r10
 3696 01d0 9246     		mov	r10, r2
 3697 01d2 0246     		mov	r2, r0
 3698              	.L1018:
ARM GAS  /tmp/cc2a13AN.s 			page 66


 3699 01d4 2029     		cmp	r1, #32
 3700 01d6 75D0     		beq	.L1020
 3701 01d8 2E29     		cmp	r1, #46
 3702 01da 7ED0     		beq	.L1170
 3703 01dc A245     		cmp	r10, r4
 3704 01de 1BD9     		bls	.L1024
 3705 01e0 A945     		cmp	r9, r5
 3706 01e2 7CD0     		beq	.L1051
 3707 01e4 7F29     		cmp	r1, #127
 3708 01e6 00F2DB80 		bhi	.L1171
 3709              	.L1030:
 3710 01ea 7B48     		ldr	r0, .L1176+4
 3711 01ec 0191     		str	r1, [sp, #4]
 3712 01ee CDE90232 		strd	r3, r2, [sp, #8]
 3713 01f2 FFF7FEFF 		bl	strchr
 3714 01f6 DDE90113 		ldrd	r1, r3, [sp, #4]
 3715 01fa 039A     		ldr	r2, [sp, #12]
 3716 01fc 0028     		cmp	r0, #0
 3717 01fe 00F01381 		beq	.L1036
 3718 0202 0196     		str	r6, [sp, #4]
 3719              	.L1035:
 3720 0204 0199     		ldr	r1, [sp, #4]
 3721 0206 41F00306 		orr	r6, r1, #3
 3722 020a F6B2     		uxtb	r6, r6
 3723 020c 5F21     		movs	r1, #95
 3724              	.L1034:
 3725 020e 1819     		adds	r0, r3, r4
 3726 0210 0134     		adds	r4, r4, #1
 3727 0212 80F84010 		strb	r1, [r0, #64]
 3728 0216 58E0     		b	.L1023
 3729              	.L1024:
 3730 0218 BAF10B0F 		cmp	r10, #11
 3731 021c 00F0E280 		beq	.L1160
 3732 0220 A945     		cmp	r9, r5
 3733 0222 5FD0     		beq	.L1029
 3734 0224 46F00306 		orr	r6, r6, #3
 3735 0228 F6B2     		uxtb	r6, r6
 3736 022a 5BD9     		bls	.L1029
 3737              	.L1019:
 3738 022c 9B46     		mov	fp, r3
 3739 022e 93F84030 		ldrb	r3, [r3, #64]	@ zero_extendqisi2
 3740 0232 E52B     		cmp	r3, #229
 3741 0234 08BF     		it	eq
 3742 0236 0523     		moveq	r3, #5
 3743 0238 1546     		mov	r5, r2
 3744 023a 5246     		mov	r2, r10
 3745 023c 08BF     		it	eq
 3746 023e 8BF84030 		strbeq	r3, [fp, #64]
 3747 0242 082A     		cmp	r2, #8
 3748 0244 66D0     		beq	.L1172
 3749              	.L1028:
 3750 0246 07F00C03 		and	r3, r7, #12
 3751 024a 0C2B     		cmp	r3, #12
 3752 024c 03D0     		beq	.L1040
 3753 024e 07F00303 		and	r3, r7, #3
 3754 0252 032B     		cmp	r3, #3
 3755 0254 67D1     		bne	.L1173
ARM GAS  /tmp/cc2a13AN.s 			page 67


 3756              	.L1040:
 3757 0256 46F00206 		orr	r6, r6, #2
 3758 025a F6B2     		uxtb	r6, r6
 3759              	.L1017:
 3760 025c 8BF84B60 		strb	r6, [fp, #75]
 3761              	.L1007:
 3762 0260 5846     		mov	r0, fp
 3763 0262 FFF7FEFF 		bl	dir_find
 3764 0266 9BF84B30 		ldrb	r3, [fp, #75]	@ zero_extendqisi2
 3765 026a 70B1     		cbz	r0, .L1045
 3766 026c 0428     		cmp	r0, #4
 3767 026e 7FF412AF 		bne	.L1064
 3768 0272 9C06     		lsls	r4, r3, #26
 3769 0274 40F1E180 		bpl	.L1046
 3770 0278 5907     		lsls	r1, r3, #29
 3771 027a 21D5     		bpl	.L1047
 3772 027c 8023     		movs	r3, #128
 3773 027e 0020     		movs	r0, #0
 3774 0280 8BF84B30 		strb	r3, [fp, #75]
 3775 0284 1BB0     		add	sp, sp, #108
 3776              		@ sp needed
 3777 0286 BDE8F08F 		pop	{r4, r5, r6, r7, r8, r9, r10, fp, pc}
 3778              	.L1045:
 3779 028a 5A07     		lsls	r2, r3, #29
 3780 028c 3FF503AF 		bmi	.L1064
 3781 0290 9BF80630 		ldrb	r3, [fp, #6]	@ zero_extendqisi2
 3782 0294 DB06     		lsls	r3, r3, #27
 3783 0296 40F1D580 		bpl	.L1062
 3784 029a 009B     		ldr	r3, [sp]
 3785 029c 1978     		ldrb	r1, [r3]	@ zero_extendqisi2
 3786 029e 0429     		cmp	r1, #4
 3787 02a0 66D0     		beq	.L1174
 3788 02a2 DBF83030 		ldr	r3, [fp, #48]
 3789 02a6 C3F30802 		ubfx	r2, r3, #0, #9
 3790 02aa 009B     		ldr	r3, [sp]
 3791 02ac 5033     		adds	r3, r3, #80
 3792 02ae 1344     		add	r3, r3, r2
 3793 02b0 0329     		cmp	r1, #3
 3794 02b2 5A8B     		ldrh	r2, [r3, #26]	@ unaligned
 3795 02b4 04BF     		itt	eq
 3796 02b6 9B8A     		ldrheq	r3, [r3, #20]	@ unaligned
 3797 02b8 42EA0342 		orreq	r2, r2, r3, lsl #16
 3798 02bc CBF80820 		str	r2, [fp, #8]
 3799              	.L1047:
 3800 02c0 2B78     		ldrb	r3, [r5]	@ zero_extendqisi2
 3801 02c2 C2E6     		b	.L993
 3802              	.L1020:
 3803 02c4 46F00306 		orr	r6, r6, #3
 3804 02c8 F6B2     		uxtb	r6, r6
 3805              	.L1023:
 3806 02ca 3BF81910 		ldrh	r1, [fp, r9, lsl #1]
 3807 02ce 09F10109 		add	r9, r9, #1
 3808 02d2 0029     		cmp	r1, #0
 3809 02d4 7FF47EAF 		bne	.L1018
 3810 02d8 A8E7     		b	.L1019
 3811              	.L1170:
 3812 02da A945     		cmp	r9, r5
ARM GAS  /tmp/cc2a13AN.s 			page 68


 3813 02dc F2D1     		bne	.L1020
 3814              	.L1051:
 3815 02de BAF10B0F 		cmp	r10, #11
 3816 02e2 7FD0     		beq	.L1160
 3817              	.L1029:
 3818 02e4 BF00     		lsls	r7, r7, #2
 3819 02e6 FFB2     		uxtb	r7, r7
 3820 02e8 A946     		mov	r9, r5
 3821 02ea 4FF00B0A 		mov	r10, #11
 3822 02ee 0824     		movs	r4, #8
 3823 02f0 EBE7     		b	.L1023
 3824              	.L1169:
 3825 02f2 2E2B     		cmp	r3, #46
 3826 02f4 5146     		mov	r1, r10
 3827 02f6 4FF00109 		mov	r9, #1
 3828 02fa 7FF44FAF 		bne	.L1013
 3829 02fe 4AE7     		b	.L1012
 3830              	.L1146:
 3831 0300 8023     		movs	r3, #128
 3832 0302 0021     		movs	r1, #0
 3833 0304 5846     		mov	r0, fp
 3834 0306 8BF84B30 		strb	r3, [fp, #75]
 3835 030a 1BB0     		add	sp, sp, #108
 3836              		@ sp needed
 3837 030c BDE8F04F 		pop	{r4, r5, r6, r7, r8, r9, r10, fp, lr}
 3838 0310 FFF7FEBF 		b	dir_sdi
 3839              	.L1172:
 3840 0314 BB00     		lsls	r3, r7, #2
 3841 0316 03F00C02 		and	r2, r3, #12
 3842 031a 0C2A     		cmp	r2, #12
 3843 031c DFB2     		uxtb	r7, r3
 3844 031e 9AD0     		beq	.L1040
 3845 0320 B107     		lsls	r1, r6, #30
 3846 0322 07D5     		bpl	.L1044
 3847 0324 9AE7     		b	.L1017
 3848              	.L1173:
 3849 0326 B207     		lsls	r2, r6, #30
 3850 0328 98D4     		bmi	.L1017
 3851 032a FB07     		lsls	r3, r7, #31
 3852 032c 44BF     		itt	mi
 3853 032e 46F01006 		orrmi	r6, r6, #16
 3854 0332 F6B2     		uxtbmi	r6, r6
 3855              	.L1044:
 3856 0334 7F07     		lsls	r7, r7, #29
 3857 0336 44BF     		itt	mi
 3858 0338 46F00806 		orrmi	r6, r6, #8
 3859 033c F6B2     		uxtbmi	r6, r6
 3860 033e 8DE7     		b	.L1017
 3861              	.L1148:
 3862 0340 BAF80020 		ldrh	r2, [r10]
 3863 0344 2E2A     		cmp	r2, #46
 3864 0346 7FF4E1AE 		bne	.L1159
 3865              	.L1001:
 3866 034a 0023     		movs	r3, #0
 3867 034c 2AF81430 		strh	r3, [r10, r4, lsl #1]	@ movhi
 3868 0350 0BF13F02 		add	r2, fp, #63
 3869              	.L1006:
ARM GAS  /tmp/cc2a13AN.s 			page 69


 3870 0354 9C42     		cmp	r4, r3
 3871 0356 8CBF     		ite	hi
 3872 0358 2E21     		movhi	r1, #46
 3873 035a 2021     		movls	r1, #32
 3874 035c 0133     		adds	r3, r3, #1
 3875 035e 0B2B     		cmp	r3, #11
 3876 0360 02F8011F 		strb	r1, [r2, #1]!
 3877 0364 F6D1     		bne	.L1006
 3878 0366 46F02006 		orr	r6, r6, #32
 3879 036a 8BF84B60 		strb	r6, [fp, #75]
 3880 036e 77E7     		b	.L1007
 3881              	.L1174:
 3882 0370 DBF81030 		ldr	r3, [fp, #16]
 3883 0374 9BF80720 		ldrb	r2, [fp, #7]	@ zero_extendqisi2
 3884 0378 23F0FF03 		bic	r3, r3, #255
 3885 037c 1343     		orrs	r3, r3, r2
 3886 037e CBF82430 		str	r3, [fp, #36]
 3887 0382 DBF80830 		ldr	r3, [fp, #8]
 3888 0386 CBF82030 		str	r3, [fp, #32]
 3889 038a DBF84C30 		ldr	r3, [fp, #76]
 3890 038e CBF82830 		str	r3, [fp, #40]
 3891 0392 009B     		ldr	r3, [sp]
 3892 0394 5946     		mov	r1, fp
 3893 0396 1869     		ldr	r0, [r3, #16]
 3894 0398 FFF7FEFF 		bl	init_alloc_info.isra.0
 3895 039c 2B78     		ldrb	r3, [r5]	@ zero_extendqisi2
 3896 039e 54E6     		b	.L993
 3897              	.L1171:
 3898 03a0 0846     		mov	r0, r1
 3899 03a2 46F00201 		orr	r1, r6, #2
 3900 03a6 CDE90232 		strd	r3, r2, [sp, #8]
 3901 03aa CBB2     		uxtb	r3, r1
 3902 03ac 40F25231 		movw	r1, #850
 3903 03b0 0193     		str	r3, [sp, #4]
 3904 03b2 FFF7FEFF 		bl	ff_uni2oem
 3905 03b6 10F0800F 		tst	r0, #128
 3906 03ba DDE90232 		ldrd	r3, r2, [sp, #8]
 3907 03be 0146     		mov	r1, r0
 3908 03c0 1ED0     		beq	.L1031
 3909 03c2 00F07F01 		and	r1, r0, #127
 3910 03c6 0548     		ldr	r0, .L1176+8
 3911 03c8 415C     		ldrb	r1, [r0, r1]	@ zero_extendqisi2
 3912              	.L1032:
 3913 03ca 0029     		cmp	r1, #0
 3914 03cc 3FF41AAF 		beq	.L1035
 3915 03d0 019E     		ldr	r6, [sp, #4]
 3916 03d2 0AE7     		b	.L1030
 3917              	.L1177:
 3918              		.align	2
 3919              	.L1176:
 3920 03d4 01000080 		.word	-2147483647
 3921 03d8 0C000000 		.word	.LC3
 3922 03dc 00000000 		.word	.LANCHOR2
 3923 03e0 00000000 		.word	.LC2
 3924              	.L1160:
 3925 03e4 9B46     		mov	fp, r3
 3926 03e6 93F84030 		ldrb	r3, [r3, #64]	@ zero_extendqisi2
ARM GAS  /tmp/cc2a13AN.s 			page 70


 3927 03ea 46F00306 		orr	r6, r6, #3
 3928 03ee E52B     		cmp	r3, #229
 3929 03f0 1546     		mov	r5, r2
 3930 03f2 F6B2     		uxtb	r6, r6
 3931 03f4 7FF427AF 		bne	.L1028
 3932 03f8 0523     		movs	r3, #5
 3933 03fa 8BF84030 		strb	r3, [fp, #64]
 3934 03fe 22E7     		b	.L1028
 3935              	.L1031:
 3936 0400 FF28     		cmp	r0, #255
 3937 0402 E2D9     		bls	.L1032
 3938 0404 0AF1FF30 		add	r0, r10, #-1
 3939 0408 A042     		cmp	r0, r4
 3940 040a 08D9     		bls	.L1175
 3941 040c 1819     		adds	r0, r3, r4
 3942 040e 4FEA112C 		lsr	ip, r1, #8
 3943 0412 019E     		ldr	r6, [sp, #4]
 3944 0414 80F840C0 		strb	ip, [r0, #64]
 3945 0418 0134     		adds	r4, r4, #1
 3946 041a C9B2     		uxtb	r1, r1
 3947 041c F7E6     		b	.L1034
 3948              	.L1175:
 3949 041e 46F00306 		orr	r6, r6, #3
 3950 0422 F6B2     		uxtb	r6, r6
 3951 0424 5446     		mov	r4, r10
 3952 0426 50E7     		b	.L1023
 3953              	.L1036:
 3954 0428 A1F14100 		sub	r0, r1, #65
 3955 042c 80B2     		uxth	r0, r0
 3956 042e 1928     		cmp	r0, #25
 3957 0430 0AD8     		bhi	.L1037
 3958 0432 47F00207 		orr	r7, r7, #2
 3959 0436 C9B2     		uxtb	r1, r1
 3960 0438 E9E6     		b	.L1034
 3961              	.L1046:
 3962 043a 13F0040F 		tst	r3, #4
 3963 043e 08BF     		it	eq
 3964 0440 0520     		moveq	r0, #5
 3965 0442 28E6     		b	.L1064
 3966              	.L1062:
 3967 0444 0520     		movs	r0, #5
 3968 0446 26E6     		b	.L1064
 3969              	.L1037:
 3970 0448 A1F16100 		sub	r0, r1, #97
 3971 044c 80B2     		uxth	r0, r0
 3972 044e 1928     		cmp	r0, #25
 3973 0450 9CBF     		itt	ls
 3974 0452 2039     		subls	r1, r1, #32
 3975 0454 47F00107 		orrls	r7, r7, #1
 3976 0458 C9B2     		uxtb	r1, r1
 3977 045a D8E6     		b	.L1034
 3978              		.size	follow_path, .-follow_path
 3979              		.section	.text.dir_register,"ax",%progbits
 3980              		.align	1
 3981              		.p2align 4,,15
 3982              		.syntax unified
 3983              		.thumb
ARM GAS  /tmp/cc2a13AN.s 			page 71


 3984              		.thumb_func
 3985              		.fpu fpv4-sp-d16
 3986              		.type	dir_register, %function
 3987              	dir_register:
 3988              		@ args = 0, pretend = 0, frame = 104
 3989              		@ frame_needed = 0, uses_anonymous_args = 0
 3990 0000 2DE9F04F 		push	{r4, r5, r6, r7, r8, r9, r10, fp, lr}
 3991 0004 2DED028B 		vpush.64	{d8}
 3992 0008 90F84B30 		ldrb	r3, [r0, #75]	@ zero_extendqisi2
 3993 000c 9BB0     		sub	sp, sp, #108
 3994 000e 0093     		str	r3, [sp]
 3995 0010 13F0A003 		ands	r3, r3, #160
 3996 0014 40F07A81 		bne	.L1236
 3997 0018 0568     		ldr	r5, [r0]
 3998 001a EA68     		ldr	r2, [r5, #12]
 3999 001c 1188     		ldrh	r1, [r2]
 4000 001e 0446     		mov	r4, r0
 4001 0020 0029     		cmp	r1, #0
 4002 0022 00F08182 		beq	.L1237
 4003 0026 9B46     		mov	fp, r3
 4004              	.L1181:
 4005 0028 32F8023F 		ldrh	r3, [r2, #2]!
 4006 002c 0BF1010B 		add	fp, fp, #1
 4007 0030 002B     		cmp	r3, #0
 4008 0032 F9D1     		bne	.L1181
 4009              	.L1180:
 4010 0034 2A78     		ldrb	r2, [r5]	@ zero_extendqisi2
 4011 0036 042A     		cmp	r2, #4
 4012 0038 00F08E81 		beq	.L1290
 4013 003c 04F14006 		add	r6, r4, #64
 4014 0040 96E80700 		ldm	r6, {r0, r1, r2}
 4015 0044 009B     		ldr	r3, [sp]
 4016 0046 0DF1100A 		add	r10, sp, #16
 4017 004a 8AE80700 		stm	r10, {r0, r1, r2}
 4018 004e DA07     		lsls	r2, r3, #31
 4019 0050 7AD5     		bpl	.L1195
 4020 0052 4022     		movs	r2, #64
 4021 0054 84F84B20 		strb	r2, [r4, #75]
 4022 0058 9AE80700 		ldm	r10, {r0, r1, r2}
 4023 005c B646     		mov	lr, r6
 4024 005e AEE80300 		stmia	lr!, {r0, r1}
 4025 0062 2EF8022B 		strh	r2, [lr], #2	@ movhi
 4026 0066 4FF00109 		mov	r9, #1
 4027 006a 120C     		lsrs	r2, r2, #16
 4028 006c B74F     		ldr	r7, .L1297
 4029 006e 8EF80020 		strb	r2, [lr]
 4030 0072 CC46     		mov	ip, r9
 4031              	.L1196:
 4032 0074 0DF10F00 		add	r0, sp, #15
 4033 0078 0722     		movs	r2, #7
 4034 007a 03E0     		b	.L1203
 4035              	.L1292:
 4036 007c BEF10F0F 		cmp	lr, #15
 4037 0080 40F23081 		bls	.L1291
 4038              	.L1203:
 4039 0084 0CF00F01 		and	r1, ip, #15
 4040 0088 01F13003 		add	r3, r1, #48
ARM GAS  /tmp/cc2a13AN.s 			page 72


 4041 008c 392B     		cmp	r3, #57
 4042 008e 88BF     		it	hi
 4043 0090 01F13703 		addhi	r3, r1, #55
 4044 0094 013A     		subs	r2, r2, #1
 4045 0096 E646     		mov	lr, ip
 4046 0098 00F80139 		strb	r3, [r0], #-1
 4047 009c 4FEA1C1C 		lsr	ip, ip, #4
 4048 00a0 ECD1     		bne	.L1292
 4049 00a2 7E23     		movs	r3, #126
 4050 00a4 8DF80830 		strb	r3, [sp, #8]
 4051 00a8 1346     		mov	r3, r2
 4052              	.L1205:
 4053 00aa 3F33     		adds	r3, r3, #63
 4054 00ac 2344     		add	r3, r3, r4
 4055              	.L1208:
 4056 00ae 02F16801 		add	r1, r2, #104
 4057 00b2 6944     		add	r1, sp, r1
 4058 00b4 072A     		cmp	r2, #7
 4059 00b6 98BF     		it	ls
 4060 00b8 11F8600C 		ldrbls	r0, [r1, #-96]	@ zero_extendqisi2
 4061 00bc A3F13E01 		sub	r1, r3, #62
 4062 00c0 A1EB0401 		sub	r1, r1, r4
 4063 00c4 8CBF     		ite	hi
 4064 00c6 2020     		movhi	r0, #32
 4065 00c8 0132     		addls	r2, r2, #1
 4066 00ca 0729     		cmp	r1, #7
 4067 00cc 5870     		strb	r0, [r3, #1]
 4068 00ce 03F10103 		add	r3, r3, #1
 4069 00d2 ECD9     		bls	.L1208
 4070 00d4 2046     		mov	r0, r4
 4071 00d6 FFF7FEFF 		bl	dir_find
 4072 00da 70BB     		cbnz	r0, .L1209
 4073 00dc 09F10109 		add	r9, r9, #1
 4074 00e0 B9F1640F 		cmp	r9, #100
 4075 00e4 00F04382 		beq	.L1293
 4076 00e8 9AE80700 		ldm	r10, {r0, r1, r2}
 4077 00ec 3346     		mov	r3, r6
 4078 00ee D5F80CC0 		ldr	ip, [r5, #12]
 4079 00f2 03C3     		stmia	r3!, {r0, r1}
 4080 00f4 23F8022B 		strh	r2, [r3], #2	@ movhi
 4081 00f8 B9F1050F 		cmp	r9, #5
 4082 00fc 4FEA1242 		lsr	r2, r2, #16
 4083 0100 1A70     		strb	r2, [r3]
 4084 0102 40F20181 		bls	.L1243
 4085 0106 BCF80030 		ldrh	r3, [ip]
 4086 010a 002B     		cmp	r3, #0
 4087 010c 00F0FC80 		beq	.L1243
 4088 0110 6046     		mov	r0, ip
 4089 0112 CC46     		mov	ip, r9
 4090              	.L1200:
 4091 0114 1022     		movs	r2, #16
 4092              	.L1199:
 4093 0116 03F00101 		and	r1, r3, #1
 4094 011a 01EB4C0C 		add	ip, r1, ip, lsl #1
 4095 011e 1CF4803F 		tst	ip, #65536
 4096 0122 18BF     		it	ne
 4097 0124 8CEA070C 		eorne	ip, ip, r7
ARM GAS  /tmp/cc2a13AN.s 			page 73


 4098 0128 013A     		subs	r2, r2, #1
 4099 012a 4FEA5303 		lsr	r3, r3, #1
 4100 012e F2D1     		bne	.L1199
 4101 0130 30F8023F 		ldrh	r3, [r0, #2]!
 4102 0134 002B     		cmp	r3, #0
 4103 0136 EDD1     		bne	.L1200
 4104 0138 9CE7     		b	.L1196
 4105              	.L1209:
 4106 013a 0428     		cmp	r0, #4
 4107 013c 8046     		mov	r8, r0
 4108 013e 40F0CB80 		bne	.L1246
 4109 0142 009B     		ldr	r3, [sp]
 4110 0144 84F84B30 		strb	r3, [r4, #75]
 4111              	.L1195:
 4112 0148 009B     		ldr	r3, [sp]
 4113 014a 9B07     		lsls	r3, r3, #30
 4114 014c 40F1E680 		bpl	.L1211
 4115 0150 7F4A     		ldr	r2, .L1297+4
 4116 0152 0BF10C0B 		add	fp, fp, #12
 4117 0156 A2FB0B32 		umull	r3, r2, r2, fp
 4118 015a 4FEA920A 		lsr	r10, r2, #2
 4119 015e 0AF10101 		add	r1, r10, #1
 4120 0162 2046     		mov	r0, r4
 4121 0164 FFF7FEFF 		bl	dir_alloc
 4122 0168 8046     		mov	r8, r0
 4123 016a 0028     		cmp	r0, #0
 4124 016c 40F0B480 		bne	.L1246
 4125 0170 BBF10C0F 		cmp	fp, #12
 4126 0174 00F08780 		beq	.L1229
 4127 0178 216B     		ldr	r1, [r4, #48]
 4128 017a 2046     		mov	r0, r4
 4129 017c A1EB4A11 		sub	r1, r1, r10, lsl #5
 4130 0180 FFF7FEFF 		bl	dir_sdi
 4131 0184 8046     		mov	r8, r0
 4132 0186 0028     		cmp	r0, #0
 4133 0188 40F0A680 		bne	.L1246
 4134 018c 3246     		mov	r2, r6
 4135 018e 04F14B01 		add	r1, r4, #75
 4136              	.L1215:
 4137 0192 C301     		lsls	r3, r0, #7
 4138 0194 43EA5003 		orr	r3, r3, r0, lsr #1
 4139 0198 12F8010B 		ldrb	r0, [r2], #1	@ zero_extendqisi2
 4140 019c 50FA83F3 		uxtab	r3, r0, r3
 4141 01a0 8A42     		cmp	r2, r1
 4142 01a2 D8B2     		uxtb	r0, r3
 4143 01a4 F5D1     		bne	.L1215
 4144 01a6 05F15003 		add	r3, r5, #80
 4145 01aa 6A4F     		ldr	r7, .L1297+8
 4146 01ac 0090     		str	r0, [sp]
 4147 01ae 08EE103A 		vmov	s16, r3	@ int
 4148 01b2 0196     		str	r6, [sp, #4]
 4149              	.L1228:
 4150 01b4 A66B     		ldr	r6, [r4, #56]
 4151 01b6 EB6C     		ldr	r3, [r5, #76]
 4152 01b8 9E42     		cmp	r6, r3
 4153 01ba 0ED0     		beq	.L1216
 4154 01bc EB78     		ldrb	r3, [r5, #3]	@ zero_extendqisi2
ARM GAS  /tmp/cc2a13AN.s 			page 74


 4155 01be 002B     		cmp	r3, #0
 4156 01c0 40F0A581 		bne	.L1217
 4157              	.L1220:
 4158 01c4 6878     		ldrb	r0, [r5, #1]	@ zero_extendqisi2
 4159 01c6 18EE101A 		vmov	r1, s16	@ int
 4160 01ca 0123     		movs	r3, #1
 4161 01cc 3246     		mov	r2, r6
 4162 01ce FFF7FEFF 		bl	disk_read
 4163 01d2 0028     		cmp	r0, #0
 4164 01d4 40F0AE80 		bne	.L1231
 4165 01d8 EE64     		str	r6, [r5, #76]
 4166              	.L1216:
 4167 01da E06B     		ldr	r0, [r4, #60]
 4168 01dc D5F80CE0 		ldr	lr, [r5, #12]
 4169 01e0 5FFA8AF9 		uxtb	r9, r10
 4170 01e4 09F1FF31 		add	r1, r9, #-1
 4171 01e8 0F26     		movs	r6, #15
 4172 01ea 0022     		movs	r2, #0
 4173 01ec 01EB4103 		add	r3, r1, r1, lsl #1
 4174 01f0 C672     		strb	r6, [r0, #11]
 4175 01f2 009E     		ldr	r6, [sp]
 4176 01f4 4673     		strb	r6, [r0, #13]
 4177 01f6 01EB8301 		add	r1, r1, r3, lsl #2
 4178 01fa 0273     		strb	r2, [r0, #12]
 4179 01fc 1346     		mov	r3, r2
 4180 01fe 8276     		strb	r2, [r0, #26]
 4181 0200 C276     		strb	r2, [r0, #27]
 4182 0202 0126     		movs	r6, #1
 4183 0204 4FF6FF78 		movw	r8, #65535
 4184 0208 4FF0FF0C 		mov	ip, #255
 4185 020c 17E0     		b	.L1226
 4186              	.L1294:
 4187 020e 3EF81130 		ldrh	r3, [lr, r1, lsl #1]
 4188 0212 8355     		strb	r3, [r0, r6]
 4189 0214 1E0A     		lsrs	r6, r3, #8
 4190 0216 8BF80160 		strb	r6, [fp, #1]
 4191 021a 0131     		adds	r1, r1, #1
 4192 021c 5BB9     		cbnz	r3, .L1222
 4193 021e 0132     		adds	r2, r2, #1
 4194 0220 0D2A     		cmp	r2, #13
 4195 0222 1FD0     		beq	.L1227
 4196 0224 BE5C     		ldrb	r6, [r7, r2]	@ zero_extendqisi2
 4197 0226 00EB060B 		add	fp, r0, r6
 4198 022a 00F806C0 		strb	ip, [r0, r6]
 4199 022e 4FF6FF73 		movw	r3, #65535
 4200 0232 8BF801C0 		strb	ip, [fp, #1]
 4201              	.L1222:
 4202 0236 0132     		adds	r2, r2, #1
 4203 0238 0D2A     		cmp	r2, #13
 4204 023a 0CD0     		beq	.L1225
 4205              	.L1295:
 4206 023c BE5C     		ldrb	r6, [r7, r2]	@ zero_extendqisi2
 4207              	.L1226:
 4208 023e 4345     		cmp	r3, r8
 4209 0240 00EB060B 		add	fp, r0, r6
 4210 0244 E3D1     		bne	.L1294
 4211 0246 00F806C0 		strb	ip, [r0, r6]
ARM GAS  /tmp/cc2a13AN.s 			page 75


 4212 024a 0132     		adds	r2, r2, #1
 4213 024c 0644     		add	r6, r6, r0
 4214 024e 0D2A     		cmp	r2, #13
 4215 0250 86F801C0 		strb	ip, [r6, #1]
 4216 0254 F2D1     		bne	.L1295
 4217              	.L1225:
 4218 0256 4FF6FF72 		movw	r2, #65535
 4219 025a 9342     		cmp	r3, r2
 4220 025c 02D0     		beq	.L1227
 4221 025e 3EF81130 		ldrh	r3, [lr, r1, lsl #1]
 4222 0262 0BB9     		cbnz	r3, .L1224
 4223              	.L1227:
 4224 0264 49F04009 		orr	r9, r9, #64
 4225              	.L1224:
 4226 0268 0123     		movs	r3, #1
 4227 026a 80F80090 		strb	r9, [r0]
 4228 026e 0021     		movs	r1, #0
 4229 0270 EB70     		strb	r3, [r5, #3]
 4230 0272 2046     		mov	r0, r4
 4231 0274 FFF7FEFF 		bl	dir_next
 4232 0278 0028     		cmp	r0, #0
 4233 027a 40F04E81 		bne	.L1287
 4234 027e BAF1010A 		subs	r10, r10, #1
 4235 0282 97D1     		bne	.L1228
 4236 0284 019E     		ldr	r6, [sp, #4]
 4237              	.L1229:
 4238 0286 A76B     		ldr	r7, [r4, #56]
 4239 0288 EB6C     		ldr	r3, [r5, #76]
 4240 028a 9F42     		cmp	r7, r3
 4241 028c 0DD0     		beq	.L1214
 4242              	.L1213:
 4243 028e EB78     		ldrb	r3, [r5, #3]	@ zero_extendqisi2
 4244 0290 002B     		cmp	r3, #0
 4245 0292 40F06481 		bne	.L1230
 4246              	.L1233:
 4247 0296 6878     		ldrb	r0, [r5, #1]	@ zero_extendqisi2
 4248 0298 0123     		movs	r3, #1
 4249 029a 3A46     		mov	r2, r7
 4250 029c 05F15001 		add	r1, r5, #80
 4251 02a0 FFF7FEFF 		bl	disk_read
 4252 02a4 0028     		cmp	r0, #0
 4253 02a6 45D1     		bne	.L1231
 4254 02a8 EF64     		str	r7, [r5, #76]
 4255              	.L1214:
 4256 02aa 0021     		movs	r1, #0
 4257 02ac 2022     		movs	r2, #32
 4258 02ae E06B     		ldr	r0, [r4, #60]
 4259 02b0 FFF7FEFF 		bl	memset
 4260 02b4 03CE     		ldmia	r6!, {r0, r1}
 4261 02b6 E36B     		ldr	r3, [r4, #60]
 4262 02b8 1860     		str	r0, [r3]	@ unaligned
 4263 02ba 5960     		str	r1, [r3, #4]	@ unaligned
 4264 02bc 3288     		ldrh	r2, [r6]	@ unaligned
 4265 02be B178     		ldrb	r1, [r6, #2]	@ zero_extendqisi2
 4266 02c0 9972     		strb	r1, [r3, #10]
 4267 02c2 1A81     		strh	r2, [r3, #8]	@ unaligned
 4268 02c4 94F84B30 		ldrb	r3, [r4, #75]	@ zero_extendqisi2
ARM GAS  /tmp/cc2a13AN.s 			page 76


 4269 02c8 E16B     		ldr	r1, [r4, #60]
 4270 02ca 03F01803 		and	r3, r3, #24
 4271 02ce 0122     		movs	r2, #1
 4272 02d0 0B73     		strb	r3, [r1, #12]
 4273 02d2 4FF00008 		mov	r8, #0
 4274 02d6 EA70     		strb	r2, [r5, #3]
 4275              	.L1246:
 4276 02d8 4046     		mov	r0, r8
 4277 02da 1BB0     		add	sp, sp, #108
 4278              		@ sp needed
 4279 02dc BDEC028B 		vldm	sp!, {d8}
 4280 02e0 BDE8F08F 		pop	{r4, r5, r6, r7, r8, r9, r10, fp, pc}
 4281              	.L1291:
 4282 02e4 02F16803 		add	r3, r2, #104
 4283 02e8 6B44     		add	r3, sp, r3
 4284 02ea 7E21     		movs	r1, #126
 4285 02ec 03F8601C 		strb	r1, [r3, #-96]
 4286 02f0 3146     		mov	r1, r6
 4287 02f2 0023     		movs	r3, #0
 4288 02f4 03E0     		b	.L1235
 4289              	.L1206:
 4290 02f6 0133     		adds	r3, r3, #1
 4291 02f8 9A42     		cmp	r2, r3
 4292 02fa 7FF6D6AE 		bls	.L1205
 4293              	.L1235:
 4294 02fe 11F8010B 		ldrb	r0, [r1], #1	@ zero_extendqisi2
 4295 0302 2028     		cmp	r0, #32
 4296 0304 F7D1     		bne	.L1206
 4297 0306 D0E6     		b	.L1205
 4298              	.L1243:
 4299 0308 CC46     		mov	ip, r9
 4300 030a B3E6     		b	.L1196
 4301              	.L1236:
 4302 030c 4FF00608 		mov	r8, #6
 4303 0310 4046     		mov	r0, r8
 4304 0312 1BB0     		add	sp, sp, #108
 4305              		@ sp needed
 4306 0314 BDEC028B 		vldm	sp!, {d8}
 4307 0318 BDE8F08F 		pop	{r4, r5, r6, r7, r8, r9, r10, fp, pc}
 4308              	.L1211:
 4309 031c 0121     		movs	r1, #1
 4310 031e 2046     		mov	r0, r4
 4311 0320 FFF7FEFF 		bl	dir_alloc
 4312 0324 8046     		mov	r8, r0
 4313 0326 0028     		cmp	r0, #0
 4314 0328 D6D1     		bne	.L1246
 4315 032a A76B     		ldr	r7, [r4, #56]
 4316 032c EB6C     		ldr	r3, [r5, #76]
 4317 032e 9F42     		cmp	r7, r3
 4318 0330 ADD1     		bne	.L1213
 4319 0332 BAE7     		b	.L1214
 4320              	.L1231:
 4321 0334 4FF00108 		mov	r8, #1
 4322 0338 4FF0FF33 		mov	r3, #-1
 4323 033c 4046     		mov	r0, r8
 4324 033e EB64     		str	r3, [r5, #76]
 4325 0340 1BB0     		add	sp, sp, #108
ARM GAS  /tmp/cc2a13AN.s 			page 77


 4326              		@ sp needed
 4327 0342 BDEC028B 		vldm	sp!, {d8}
 4328 0346 BDE8F08F 		pop	{r4, r5, r6, r7, r8, r9, r10, fp, pc}
 4329              	.L1298:
 4330 034a 00BF     		.align	2
 4331              	.L1297:
 4332 034c 21100100 		.word	69665
 4333 0350 4FECC44E 		.word	1321528399
 4334 0354 00000000 		.word	.LANCHOR3
 4335              	.L1290:
 4336 0358 874A     		ldr	r2, .L1299
 4337 035a 0BF10E06 		add	r6, fp, #14
 4338 035e A2FB0636 		umull	r3, r6, r2, r6
 4339 0362 F608     		lsrs	r6, r6, #3
 4340 0364 B11C     		adds	r1, r6, #2
 4341 0366 2046     		mov	r0, r4
 4342 0368 FFF7FEFF 		bl	dir_alloc
 4343 036c 8046     		mov	r8, r0
 4344 036e 0028     		cmp	r0, #0
 4345 0370 B2D1     		bne	.L1246
 4346 0372 236B     		ldr	r3, [r4, #48]
 4347 0374 0136     		adds	r6, r6, #1
 4348 0376 A3EB4616 		sub	r6, r3, r6, lsl #5
 4349 037a E379     		ldrb	r3, [r4, #7]	@ zero_extendqisi2
 4350 037c E664     		str	r6, [r4, #76]
 4351 037e 5E07     		lsls	r6, r3, #29
 4352 0380 6FD5     		bpl	.L1188
 4353 0382 03F0FB03 		and	r3, r3, #251
 4354 0386 032B     		cmp	r3, #3
 4355 0388 E371     		strb	r3, [r4, #7]
 4356 038a 00F0E080 		beq	.L1184
 4357              	.L1186:
 4358 038e 616B     		ldr	r1, [r4, #52]
 4359 0390 4FF0FF32 		mov	r2, #-1
 4360 0394 2046     		mov	r0, r4
 4361 0396 FFF7FEFF 		bl	fill_last_frag
 4362 039a 0028     		cmp	r0, #0
 4363 039c 40F0BD80 		bne	.L1287
 4364 03a0 A368     		ldr	r3, [r4, #8]
 4365 03a2 002B     		cmp	r3, #0
 4366 03a4 5DD0     		beq	.L1188
 4367 03a6 2368     		ldr	r3, [r4]
 4368 03a8 0493     		str	r3, [sp, #16]
 4369 03aa 236A     		ldr	r3, [r4, #32]
 4370 03ac 0693     		str	r3, [sp, #24]
 4371 03ae 636A     		ldr	r3, [r4, #36]
 4372 03b0 A16A     		ldr	r1, [r4, #40]
 4373 03b2 8DF81730 		strb	r3, [sp, #23]
 4374 03b6 0990     		str	r0, [sp, #36]
 4375 03b8 23F0FF03 		bic	r3, r3, #255
 4376 03bc 0B90     		str	r0, [sp, #44]
 4377 03be 04A8     		add	r0, sp, #16
 4378 03c0 0893     		str	r3, [sp, #32]
 4379 03c2 1791     		str	r1, [sp, #92]
 4380 03c4 FFF7FEFF 		bl	dir_sdi
 4381 03c8 0028     		cmp	r0, #0
 4382 03ca 40F0A680 		bne	.L1287
ARM GAS  /tmp/cc2a13AN.s 			page 78


 4383 03ce 04A8     		add	r0, sp, #16
 4384 03d0 FFF7FEFF 		bl	load_xdir
 4385 03d4 0028     		cmp	r0, #0
 4386 03d6 40F0A080 		bne	.L1287
 4387 03da D4E90432 		ldrd	r3, r2, [r4, #16]
 4388 03de 6E89     		ldrh	r6, [r5, #10]
 4389 03e0 4FF40071 		mov	r1, #512
 4390 03e4 E6FB0132 		umlal	r3, r2, r6, r1
 4391 03e8 2969     		ldr	r1, [r5, #16]
 4392 03ea 1E0A     		lsrs	r6, r3, #8
 4393 03ec C4E90432 		strd	r3, r2, [r4, #16]
 4394 03f0 81F83830 		strb	r3, [r1, #56]
 4395 03f4 81F83960 		strb	r6, [r1, #57]
 4396 03f8 1E0C     		lsrs	r6, r3, #16
 4397 03fa 1B0E     		lsrs	r3, r3, #24
 4398 03fc 81F83B30 		strb	r3, [r1, #59]
 4399 0400 130A     		lsrs	r3, r2, #8
 4400 0402 81F83C20 		strb	r2, [r1, #60]
 4401 0406 81F83D30 		strb	r3, [r1, #61]
 4402 040a 130C     		lsrs	r3, r2, #16
 4403 040c 120E     		lsrs	r2, r2, #24
 4404 040e 81F83A60 		strb	r6, [r1, #58]
 4405 0412 81F83E30 		strb	r3, [r1, #62]
 4406 0416 81F83F20 		strb	r2, [r1, #63]
 4407 041a D4E90412 		ldrd	r1, r2, [r4, #16]
 4408 041e 2B69     		ldr	r3, [r5, #16]
 4409 0420 0E0A     		lsrs	r6, r1, #8
 4410 0422 83F82810 		strb	r1, [r3, #40]
 4411 0426 83F82960 		strb	r6, [r3, #41]
 4412 042a 0E0C     		lsrs	r6, r1, #16
 4413 042c 090E     		lsrs	r1, r1, #24
 4414 042e 83F82B10 		strb	r1, [r3, #43]
 4415 0432 110A     		lsrs	r1, r2, #8
 4416 0434 83F82C20 		strb	r2, [r3, #44]
 4417 0438 83F82D10 		strb	r1, [r3, #45]
 4418 043c 110C     		lsrs	r1, r2, #16
 4419 043e 120E     		lsrs	r2, r2, #24
 4420 0440 83F82A60 		strb	r6, [r3, #42]
 4421 0444 83F82E10 		strb	r1, [r3, #46]
 4422 0448 83F82F20 		strb	r2, [r3, #47]
 4423 044c E379     		ldrb	r3, [r4, #7]	@ zero_extendqisi2
 4424 044e 2A69     		ldr	r2, [r5, #16]
 4425 0450 43F00103 		orr	r3, r3, #1
 4426 0454 04A8     		add	r0, sp, #16
 4427 0456 82F82130 		strb	r3, [r2, #33]
 4428 045a FFF7FEFF 		bl	store_xdir
 4429 045e 0028     		cmp	r0, #0
 4430 0460 5BD1     		bne	.L1287
 4431              	.L1188:
 4432 0462 2E69     		ldr	r6, [r5, #16]
 4433 0464 EC68     		ldr	r4, [r5, #12]
 4434 0466 4022     		movs	r2, #64
 4435 0468 0021     		movs	r1, #0
 4436 046a 3046     		mov	r0, r6
 4437 046c FFF7FEFF 		bl	memset
 4438 0470 8523     		movs	r3, #133
 4439 0472 4FF0000C 		mov	ip, #0
ARM GAS  /tmp/cc2a13AN.s 			page 79


 4440 0476 3370     		strb	r3, [r6]
 4441 0478 C023     		movs	r3, #192
 4442 047a 86F82030 		strb	r3, [r6, #32]
 4443 047e E146     		mov	r9, ip
 4444 0480 0121     		movs	r1, #1
 4445 0482 4022     		movs	r2, #64
 4446 0484 6046     		mov	r0, ip
 4447 0486 C6F1040E 		rsb	lr, r6, #4
 4448 048a 4FF0C10A 		mov	r10, #193
 4449              	.L1192:
 4450 048e B318     		adds	r3, r6, r2
 4451 0490 06F802A0 		strb	r10, [r6, r2]
 4452 0494 4FF00002 		mov	r2, #0
 4453 0498 5A70     		strb	r2, [r3, #1]
 4454 049a 5FFA89F2 		uxtb	r2, r9
 4455 049e 0092     		str	r2, [sp]
 4456              	.L1191:
 4457 04a0 0029     		cmp	r1, #0
 4458 04a2 43D1     		bne	.L1189
 4459 04a4 04EB400B 		add	fp, r4, r0, lsl #1
 4460 04a8 0D46     		mov	r5, r1
 4461 04aa 0F46     		mov	r7, r1
 4462              	.L1190:
 4463 04ac 0EEB0302 		add	r2, lr, r3
 4464 04b0 DD70     		strb	r5, [r3, #3]
 4465 04b2 D506     		lsls	r5, r2, #27
 4466 04b4 9F70     		strb	r7, [r3, #2]
 4467 04b6 03F10203 		add	r3, r3, #2
 4468 04ba F1D1     		bne	.L1191
 4469 04bc BBF80050 		ldrh	r5, [fp]
 4470 04c0 09F10109 		add	r9, r9, #1
 4471 04c4 002D     		cmp	r5, #0
 4472 04c6 E2D1     		bne	.L1192
 4473 04c8 009B     		ldr	r3, [sp]
 4474 04ca 86F823C0 		strb	ip, [r6, #35]
 4475 04ce 0233     		adds	r3, r3, #2
 4476 04d0 7370     		strb	r3, [r6, #1]
 4477 04d2 34F8020B 		ldrh	r0, [r4], #2
 4478 04d6 0028     		cmp	r0, #0
 4479 04d8 4CD0     		beq	.L1241
 4480              	.L1194:
 4481 04da FFF7FEFF 		bl	ff_wtoupper
 4482 04de C3B2     		uxtb	r3, r0
 4483 04e0 03EB5503 		add	r3, r3, r5, lsr #1
 4484 04e4 03EBC533 		add	r3, r3, r5, lsl #15
 4485 04e8 9AB2     		uxth	r2, r3
 4486 04ea C0F30723 		ubfx	r3, r0, #8, #8
 4487 04ee 03EB5203 		add	r3, r3, r2, lsr #1
 4488 04f2 34F8020B 		ldrh	r0, [r4], #2
 4489 04f6 03EBC233 		add	r3, r3, r2, lsl #15
 4490 04fa 9DB2     		uxth	r5, r3
 4491 04fc 0028     		cmp	r0, #0
 4492 04fe ECD1     		bne	.L1194
 4493 0500 EBB2     		uxtb	r3, r5
 4494 0502 280A     		lsrs	r0, r5, #8
 4495              	.L1193:
 4496 0504 86F82430 		strb	r3, [r6, #36]
ARM GAS  /tmp/cc2a13AN.s 			page 80


 4497 0508 86F82500 		strb	r0, [r6, #37]
 4498 050c E4E6     		b	.L1246
 4499              	.L1217:
 4500 050e 2846     		mov	r0, r5
 4501 0510 FFF7FEFF 		bl	sync_window.part.0
 4502 0514 0028     		cmp	r0, #0
 4503 0516 3FF455AE 		beq	.L1220
 4504              	.L1287:
 4505 051a 8046     		mov	r8, r0
 4506              	.L1296:
 4507 051c 4046     		mov	r0, r8
 4508 051e 1BB0     		add	sp, sp, #108
 4509              		@ sp needed
 4510 0520 BDEC028B 		vldm	sp!, {d8}
 4511 0524 BDE8F08F 		pop	{r4, r5, r6, r7, r8, r9, r10, fp, pc}
 4512              	.L1237:
 4513 0528 8B46     		mov	fp, r1
 4514 052a 83E5     		b	.L1180
 4515              	.L1189:
 4516 052c 34F81010 		ldrh	r1, [r4, r0, lsl #1]
 4517 0530 0CF10102 		add	r2, ip, #1
 4518 0534 04EB400B 		add	fp, r4, r0, lsl #1
 4519 0538 31B1     		cbz	r1, .L1240
 4520 053a D0B2     		uxtb	r0, r2
 4521 053c 8446     		mov	ip, r0
 4522 053e CFB2     		uxtb	r7, r1
 4523 0540 0D0A     		lsrs	r5, r1, #8
 4524 0542 04EB400B 		add	fp, r4, r0, lsl #1
 4525 0546 B1E7     		b	.L1190
 4526              	.L1240:
 4527 0548 0D46     		mov	r5, r1
 4528 054a 0F46     		mov	r7, r1
 4529 054c AEE7     		b	.L1190
 4530              	.L1184:
 4531 054e 2046     		mov	r0, r4
 4532 0550 FFF7FEFF 		bl	fill_first_frag.part.0
 4533 0554 0028     		cmp	r0, #0
 4534 0556 3FF41AAF 		beq	.L1186
 4535 055a 8046     		mov	r8, r0
 4536 055c DEE7     		b	.L1296
 4537              	.L1230:
 4538 055e 2846     		mov	r0, r5
 4539 0560 FFF7FEFF 		bl	sync_window.part.0
 4540 0564 8046     		mov	r8, r0
 4541 0566 0028     		cmp	r0, #0
 4542 0568 3FF495AE 		beq	.L1233
 4543 056c B4E6     		b	.L1246
 4544              	.L1293:
 4545 056e 4FF00708 		mov	r8, #7
 4546 0572 B1E6     		b	.L1246
 4547              	.L1241:
 4548 0574 0346     		mov	r3, r0
 4549 0576 C5E7     		b	.L1193
 4550              	.L1300:
 4551              		.align	2
 4552              	.L1299:
 4553 0578 89888888 		.word	-2004318071
ARM GAS  /tmp/cc2a13AN.s 			page 81


 4554              		.size	dir_register, .-dir_register
 4555              		.section	.text.mount_volume,"ax",%progbits
 4556              		.align	1
 4557              		.p2align 4,,15
 4558              		.syntax unified
 4559              		.thumb
 4560              		.thumb_func
 4561              		.fpu fpv4-sp-d16
 4562              		.type	mount_volume, %function
 4563              	mount_volume:
 4564              		@ args = 0, pretend = 0, frame = 16
 4565              		@ frame_needed = 0, uses_anonymous_args = 0
 4566 0000 2DE9F043 		push	{r4, r5, r6, r7, r8, r9, lr}
 4567 0004 0023     		movs	r3, #0
 4568 0006 85B0     		sub	sp, sp, #20
 4569 0008 0B60     		str	r3, [r1]
 4570 000a 0F46     		mov	r7, r1
 4571 000c 1546     		mov	r5, r2
 4572 000e FFF7FEFF 		bl	get_ldnumber
 4573 0012 061E     		subs	r6, r0, #0
 4574 0014 C0F2EE80 		blt	.L1352
 4575 0018 7E4B     		ldr	r3, .L1415
 4576 001a 53F82640 		ldr	r4, [r3, r6, lsl #2]
 4577 001e 002C     		cmp	r4, #0
 4578 0020 00F0E380 		beq	.L1353
 4579 0024 6069     		ldr	r0, [r4, #20]
 4580 0026 FFF7FEFF 		bl	ff_req_grant
 4581 002a 0028     		cmp	r0, #0
 4582 002c 00F0E780 		beq	.L1354
 4583 0030 3C60     		str	r4, [r7]
 4584 0032 2378     		ldrb	r3, [r4]	@ zero_extendqisi2
 4585 0034 05F0FE05 		and	r5, r5, #254
 4586 0038 002B     		cmp	r3, #0
 4587 003a 40F09A80 		bne	.L1409
 4588              	.L1303:
 4589 003e 0023     		movs	r3, #0
 4590 0040 F0B2     		uxtb	r0, r6
 4591 0042 2370     		strb	r3, [r4]
 4592 0044 6070     		strb	r0, [r4, #1]
 4593 0046 FFF7FEFF 		bl	disk_initialize
 4594 004a C307     		lsls	r3, r0, #31
 4595 004c 00F1DC80 		bmi	.L1355
 4596 0050 15B1     		cbz	r5, .L1304
 4597 0052 4707     		lsls	r7, r0, #29
 4598 0054 00F1B780 		bmi	.L1305
 4599              	.L1304:
 4600 0058 0021     		movs	r1, #0
 4601 005a 2046     		mov	r0, r4
 4602 005c FFF7FEFF 		bl	check_fs
 4603 0060 0228     		cmp	r0, #2
 4604 0062 00F09480 		beq	.L1410
 4605 0066 0428     		cmp	r0, #4
 4606 0068 00F0D280 		beq	.L1325
 4607 006c 0128     		cmp	r0, #1
 4608 006e 00F2B780 		bhi	.L1317
 4609              	.L1312:
 4610 0072 0128     		cmp	r0, #1
ARM GAS  /tmp/cc2a13AN.s 			page 82


 4611 0074 E16C     		ldr	r1, [r4, #76]
 4612 0076 00F0A880 		beq	.L1411
 4613 007a B4F85B30 		ldrh	r3, [r4, #91]	@ unaligned
 4614 007e B3F5007F 		cmp	r3, #512
 4615 0082 40F0AD80 		bne	.L1317
 4616 0086 B4F86630 		ldrh	r3, [r4, #102]	@ unaligned
 4617 008a 03B9     		cbnz	r3, .L1336
 4618 008c 636F     		ldr	r3, [r4, #116]	@ unaligned
 4619              	.L1336:
 4620 008e 94F86020 		ldrb	r2, [r4, #96]	@ zero_extendqisi2
 4621 0092 6363     		str	r3, [r4, #52]
 4622 0094 501E     		subs	r0, r2, #1
 4623 0096 0128     		cmp	r0, #1
 4624 0098 A270     		strb	r2, [r4, #2]
 4625 009a 00F2A180 		bhi	.L1317
 4626 009e 94F85D00 		ldrb	r0, [r4, #93]	@ zero_extendqisi2
 4627 00a2 85B2     		uxth	r5, r0
 4628 00a4 6581     		strh	r5, [r4, #10]	@ movhi
 4629 00a6 002D     		cmp	r5, #0
 4630 00a8 00F09A80 		beq	.L1317
 4631 00ac 451E     		subs	r5, r0, #1
 4632 00ae 0542     		tst	r5, r0
 4633 00b0 40F09680 		bne	.L1317
 4634 00b4 B4F86160 		ldrh	r6, [r4, #97]	@ unaligned
 4635 00b8 2681     		strh	r6, [r4, #8]	@ movhi
 4636 00ba 3507     		lsls	r5, r6, #28
 4637 00bc 40F09080 		bne	.L1317
 4638 00c0 B4F86350 		ldrh	r5, [r4, #99]	@ unaligned
 4639 00c4 05B9     		cbnz	r5, .L1337
 4640 00c6 256F     		ldr	r5, [r4, #112]	@ unaligned
 4641              	.L1337:
 4642 00c8 B4F85EC0 		ldrh	ip, [r4, #94]	@ unaligned
 4643 00cc BCF1000F 		cmp	ip, #0
 4644 00d0 00F08680 		beq	.L1317
 4645 00d4 03FB02F2 		mul	r2, r3, r2
 4646 00d8 0CEB1617 		add	r7, ip, r6, lsr #4
 4647 00dc 1744     		add	r7, r7, r2
 4648 00de BD42     		cmp	r5, r7
 4649 00e0 7ED3     		bcc	.L1317
 4650 00e2 ED1B     		subs	r5, r5, r7
 4651 00e4 8542     		cmp	r5, r0
 4652 00e6 B5FBF0FE 		udiv	lr, r5, r0
 4653 00ea 79D3     		bcc	.L1317
 4654 00ec 4A48     		ldr	r0, .L1415+4
 4655 00ee 8645     		cmp	lr, r0
 4656 00f0 76D8     		bhi	.L1317
 4657 00f2 4FF6F570 		movw	r0, #65525
 4658 00f6 8645     		cmp	lr, r0
 4659 00f8 00F23F81 		bhi	.L1338
 4660 00fc 40F6F570 		movw	r0, #4085
 4661 0100 8645     		cmp	lr, r0
 4662 0102 0CEB0105 		add	r5, ip, r1
 4663 0106 0EF10200 		add	r0, lr, #2
 4664 010a 0F44     		add	r7, r7, r1
 4665 010c A163     		str	r1, [r4, #56]
 4666 010e 6764     		str	r7, [r4, #68]
 4667 0110 2063     		str	r0, [r4, #48]
ARM GAS  /tmp/cc2a13AN.s 			page 83


 4668 0112 E563     		str	r5, [r4, #60]
 4669 0114 00F25A81 		bhi	.L1339
 4670 0118 002E     		cmp	r6, #0
 4671 011a 61D0     		beq	.L1317
 4672 011c 1544     		add	r5, r5, r2
 4673 011e 00EB4001 		add	r1, r0, r0, lsl #1
 4674 0122 00F00102 		and	r2, r0, #1
 4675 0126 02EB5102 		add	r2, r2, r1, lsr #1
 4676 012a 2564     		str	r5, [r4, #64]
 4677 012c 0121     		movs	r1, #1
 4678              	.L1349:
 4679 012e 02F2FF12 		addw	r2, r2, #511
 4680 0132 B3EB522F 		cmp	r3, r2, lsr #9
 4681 0136 53D3     		bcc	.L1317
 4682 0138 4FF0FF33 		mov	r3, #-1
 4683 013c 8022     		movs	r2, #128
 4684 013e C4E90633 		strd	r3, r3, [r4, #24]
 4685 0142 2271     		strb	r2, [r4, #4]
 4686 0144 CBB2     		uxtb	r3, r1
 4687              	.L1335:
 4688 0146 3549     		ldr	r1, .L1415+8
 4689 0148 2370     		strb	r3, [r4]
 4690 014a 0A88     		ldrh	r2, [r1]
 4691 014c 0132     		adds	r2, r2, #1
 4692 014e 92B2     		uxth	r2, r2
 4693 0150 0020     		movs	r0, #0
 4694 0152 0A80     		strh	r2, [r1]	@ movhi
 4695 0154 3249     		ldr	r1, .L1415+12
 4696 0156 E280     		strh	r2, [r4, #6]	@ movhi
 4697 0158 0346     		mov	r3, r0
 4698 015a 2062     		str	r0, [r4, #32]
 4699              	.L1345:
 4700 015c 51F82320 		ldr	r2, [r1, r3, lsl #2]
 4701 0160 9442     		cmp	r4, r2
 4702 0162 08BF     		it	eq
 4703 0164 41F82300 		streq	r0, [r1, r3, lsl #2]
 4704 0168 0433     		adds	r3, r3, #4
 4705 016a 282B     		cmp	r3, #40
 4706 016c F6D1     		bne	.L1345
 4707 016e 0025     		movs	r5, #0
 4708 0170 09E0     		b	.L1358
 4709              	.L1409:
 4710 0172 6078     		ldrb	r0, [r4, #1]	@ zero_extendqisi2
 4711 0174 FFF7FEFF 		bl	disk_status
 4712 0178 C207     		lsls	r2, r0, #31
 4713 017a 3FF560AF 		bmi	.L1303
 4714 017e 15B1     		cbz	r5, .L1358
 4715 0180 10F00405 		ands	r5, r0, #4
 4716 0184 1FD1     		bne	.L1305
 4717              	.L1358:
 4718 0186 2846     		mov	r0, r5
 4719 0188 05B0     		add	sp, sp, #20
 4720              		@ sp needed
 4721 018a BDE8F083 		pop	{r4, r5, r6, r7, r8, r9, pc}
 4722              	.L1410:
 4723 018e D4F81602 		ldr	r0, [r4, #534]	@ unaligned
 4724 0192 D4F82612 		ldr	r1, [r4, #550]	@ unaligned
ARM GAS  /tmp/cc2a13AN.s 			page 84


 4725 0196 D4F83622 		ldr	r2, [r4, #566]	@ unaligned
 4726 019a D4F84632 		ldr	r3, [r4, #582]	@ unaligned
 4727 019e CDE90001 		strd	r0, r1, [sp]
 4728 01a2 CDE90223 		strd	r2, r3, [sp, #8]
 4729 01a6 6D46     		mov	r5, sp
 4730 01a8 04AE     		add	r6, sp, #16
 4731 01aa 01E0     		b	.L1309
 4732              	.L1307:
 4733 01ac B542     		cmp	r5, r6
 4734 01ae 2DD0     		beq	.L1412
 4735              	.L1309:
 4736 01b0 55F8041B 		ldr	r1, [r5], #4
 4737 01b4 0320     		movs	r0, #3
 4738 01b6 0029     		cmp	r1, #0
 4739 01b8 F8D0     		beq	.L1307
 4740 01ba 2046     		mov	r0, r4
 4741 01bc FFF7FEFF 		bl	check_fs
 4742 01c0 0128     		cmp	r0, #1
 4743 01c2 F3D8     		bhi	.L1307
 4744 01c4 55E7     		b	.L1312
 4745              	.L1305:
 4746 01c6 0A25     		movs	r5, #10
 4747 01c8 DDE7     		b	.L1358
 4748              	.L1411:
 4749 01ca 04F15A03 		add	r3, r4, #90
 4750 01ce 04F18F00 		add	r0, r4, #143
 4751 01d2 01E0     		b	.L1314
 4752              	.L1316:
 4753 01d4 9842     		cmp	r0, r3
 4754 01d6 25D0     		beq	.L1315
 4755              	.L1314:
 4756 01d8 13F8012F 		ldrb	r2, [r3, #1]!	@ zero_extendqisi2
 4757 01dc 002A     		cmp	r2, #0
 4758 01de F9D0     		beq	.L1316
 4759              	.L1317:
 4760 01e0 0D25     		movs	r5, #13
 4761 01e2 2846     		mov	r0, r5
 4762 01e4 05B0     		add	sp, sp, #20
 4763              		@ sp needed
 4764 01e6 BDE8F083 		pop	{r4, r5, r6, r7, r8, r9, pc}
 4765              	.L1353:
 4766 01ea 0C25     		movs	r5, #12
 4767 01ec 2846     		mov	r0, r5
 4768 01ee 05B0     		add	sp, sp, #20
 4769              		@ sp needed
 4770 01f0 BDE8F083 		pop	{r4, r5, r6, r7, r8, r9, pc}
 4771              	.L1352:
 4772 01f4 0B25     		movs	r5, #11
 4773 01f6 2846     		mov	r0, r5
 4774 01f8 05B0     		add	sp, sp, #20
 4775              		@ sp needed
 4776 01fa BDE8F083 		pop	{r4, r5, r6, r7, r8, r9, pc}
 4777              	.L1354:
 4778 01fe 0F25     		movs	r5, #15
 4779 0200 2846     		mov	r0, r5
 4780 0202 05B0     		add	sp, sp, #20
 4781              		@ sp needed
ARM GAS  /tmp/cc2a13AN.s 			page 85


 4782 0204 BDE8F083 		pop	{r4, r5, r6, r7, r8, r9, pc}
 4783              	.L1355:
 4784 0208 0325     		movs	r5, #3
 4785 020a BCE7     		b	.L1358
 4786              	.L1412:
 4787 020c 0428     		cmp	r0, #4
 4788 020e E7D1     		bne	.L1317
 4789              	.L1325:
 4790 0210 0125     		movs	r5, #1
 4791 0212 B8E7     		b	.L1358
 4792              	.L1416:
 4793              		.align	2
 4794              	.L1415:
 4795 0214 00000000 		.word	.LANCHOR4
 4796 0218 F5FFFF0F 		.word	268435445
 4797 021c 00000000 		.word	.LANCHOR5
 4798 0220 00000000 		.word	.LANCHOR0
 4799              	.L1315:
 4800 0224 B4F8B830 		ldrh	r3, [r4, #184]	@ unaligned
 4801 0228 B3F5807F 		cmp	r3, #256
 4802 022c D8D1     		bne	.L1317
 4803 022e 94F8BC30 		ldrb	r3, [r4, #188]	@ zero_extendqisi2
 4804 0232 092B     		cmp	r3, #9
 4805 0234 D4D1     		bne	.L1317
 4806 0236 D4F89800 		ldr	r0, [r4, #152]	@ unaligned
 4807 023a D4F89C30 		ldr	r3, [r4, #156]	@ unaligned
 4808 023e 4618     		adds	r6, r0, r1
 4809 0240 4FF0FF30 		mov	r0, #-1
 4810 0244 43F10003 		adc	r3, r3, #0
 4811 0248 B042     		cmp	r0, r6
 4812 024a 72EB0300 		sbcs	r0, r2, r3
 4813 024e C7D3     		bcc	.L1317
 4814 0250 94F8BE50 		ldrb	r5, [r4, #190]	@ zero_extendqisi2
 4815 0254 D4F8A400 		ldr	r0, [r4, #164]	@ unaligned
 4816 0258 A570     		strb	r5, [r4, #2]
 4817 025a 012D     		cmp	r5, #1
 4818 025c 6063     		str	r0, [r4, #52]
 4819 025e BFD1     		bne	.L1317
 4820 0260 94F8BD00 		ldrb	r0, [r4, #189]	@ zero_extendqisi2
 4821 0264 05FA00F0 		lsl	r0, r5, r0
 4822 0268 87B2     		uxth	r7, r0
 4823 026a 6781     		strh	r7, [r4, #10]	@ movhi
 4824 026c 002F     		cmp	r7, #0
 4825 026e B7D0     		beq	.L1317
 4826 0270 D4F8AC70 		ldr	r7, [r4, #172]	@ unaligned
 4827 0274 DFF8B4C1 		ldr	ip, .L1417+4
 4828 0278 6745     		cmp	r7, ip
 4829 027a B1D8     		bhi	.L1317
 4830 027c 80B2     		uxth	r0, r0
 4831 027e 07FB00F0 		mul	r0, r7, r0
 4832 0282 0237     		adds	r7, r7, #2
 4833 0284 2763     		str	r7, [r4, #48]
 4834 0286 D4F8A870 		ldr	r7, [r4, #168]	@ unaligned
 4835 028a A163     		str	r1, [r4, #56]
 4836 028c 0F44     		add	r7, r7, r1
 4837 028e C019     		adds	r0, r0, r7
 4838 0290 6764     		str	r7, [r4, #68]
ARM GAS  /tmp/cc2a13AN.s 			page 86


 4839 0292 D4F8A070 		ldr	r7, [r4, #160]	@ unaligned
 4840 0296 3944     		add	r1, r1, r7
 4841 0298 E163     		str	r1, [r4, #60]
 4842 029a 42EB0201 		adc	r1, r2, r2
 4843 029e 8642     		cmp	r6, r0
 4844 02a0 8B41     		sbcs	r3, r3, r1
 4845 02a2 9DD3     		bcc	.L1317
 4846 02a4 D4F8B030 		ldr	r3, [r4, #176]	@ unaligned
 4847 02a8 2364     		str	r3, [r4, #64]
 4848 02aa 1646     		mov	r6, r2
 4849 02ac 9046     		mov	r8, r2
 4850 02ae 04F15009 		add	r9, r4, #80
 4851              	.L1327:
 4852 02b2 06BB     		cbnz	r6, .L1318
 4853 02b4 6189     		ldrh	r1, [r4, #10]
 4854 02b6 4145     		cmp	r1, r8
 4855 02b8 92D9     		bls	.L1317
 4856 02ba 236C     		ldr	r3, [r4, #64]
 4857 02bc 226B     		ldr	r2, [r4, #48]
 4858 02be 023B     		subs	r3, r3, #2
 4859 02c0 023A     		subs	r2, r2, #2
 4860 02c2 9342     		cmp	r3, r2
 4861 02c4 3EBF     		ittt	cc
 4862 02c6 626C     		ldrcc	r2, [r4, #68]
 4863 02c8 03FB0123 		mlacc	r3, r3, r1, r2
 4864 02cc 03EB0807 		addcc	r7, r3, r8
 4865 02d0 E36C     		ldr	r3, [r4, #76]
 4866 02d2 28BF     		it	cs
 4867 02d4 4746     		movcs	r7, r8
 4868 02d6 BB42     		cmp	r3, r7
 4869 02d8 0BD0     		beq	.L1320
 4870 02da E378     		ldrb	r3, [r4, #3]	@ zero_extendqisi2
 4871 02dc 002B     		cmp	r3, #0
 4872 02de 46D1     		bne	.L1321
 4873              	.L1324:
 4874 02e0 6078     		ldrb	r0, [r4, #1]	@ zero_extendqisi2
 4875 02e2 0123     		movs	r3, #1
 4876 02e4 3A46     		mov	r2, r7
 4877 02e6 4946     		mov	r1, r9
 4878 02e8 FFF7FEFF 		bl	disk_read
 4879 02ec 0028     		cmp	r0, #0
 4880 02ee 3AD1     		bne	.L1330
 4881 02f0 E764     		str	r7, [r4, #76]
 4882              	.L1320:
 4883 02f2 08F10108 		add	r8, r8, #1
 4884              	.L1318:
 4885 02f6 A319     		adds	r3, r4, r6
 4886 02f8 93F85030 		ldrb	r3, [r3, #80]	@ zero_extendqisi2
 4887 02fc 812B     		cmp	r3, #129
 4888 02fe 04D0     		beq	.L1326
 4889 0300 06F12002 		add	r2, r6, #32
 4890 0304 C2F30806 		ubfx	r6, r2, #0, #9
 4891 0308 D3E7     		b	.L1327
 4892              	.L1326:
 4893 030a 04F15008 		add	r8, r4, #80
 4894 030e 08EB0602 		add	r2, r8, r6
 4895 0312 5769     		ldr	r7, [r2, #20]	@ unaligned
ARM GAS  /tmp/cc2a13AN.s 			page 87


 4896 0314 012F     		cmp	r7, #1
 4897 0316 7FF663AF 		bls	.L1317
 4898 031a 236B     		ldr	r3, [r4, #48]
 4899 031c BB42     		cmp	r3, r7
 4900 031e 7FF65FAF 		bls	.L1317
 4901 0322 6289     		ldrh	r2, [r4, #10]
 4902 0324 636C     		ldr	r3, [r4, #68]
 4903 0326 B91E     		subs	r1, r7, #2
 4904 0328 01FB0233 		mla	r3, r1, r2, r3
 4905 032c A364     		str	r3, [r4, #72]
 4906 032e 0AE0     		b	.L1334
 4907              	.L1413:
 4908 0330 E664     		str	r6, [r4, #76]
 4909              	.L1328:
 4910 0332 07F07F03 		and	r3, r7, #127
 4911 0336 0137     		adds	r7, r7, #1
 4912 0338 58F82330 		ldr	r3, [r8, r3, lsl #2]	@ unaligned
 4913 033c 5E1C     		adds	r6, r3, #1
 4914 033e 4DD0     		beq	.L1333
 4915 0340 9F42     		cmp	r7, r3
 4916 0342 7FF44DAF 		bne	.L1317
 4917              	.L1334:
 4918 0346 E66B     		ldr	r6, [r4, #60]
 4919 0348 E36C     		ldr	r3, [r4, #76]
 4920 034a 06EBD716 		add	r6, r6, r7, lsr #7
 4921 034e 9E42     		cmp	r6, r3
 4922 0350 EFD0     		beq	.L1328
 4923 0352 E378     		ldrb	r3, [r4, #3]	@ zero_extendqisi2
 4924 0354 A3BB     		cbnz	r3, .L1329
 4925              	.L1332:
 4926 0356 6078     		ldrb	r0, [r4, #1]	@ zero_extendqisi2
 4927 0358 0123     		movs	r3, #1
 4928 035a 3246     		mov	r2, r6
 4929 035c 4146     		mov	r1, r8
 4930 035e FFF7FEFF 		bl	disk_read
 4931 0362 0028     		cmp	r0, #0
 4932 0364 E4D0     		beq	.L1413
 4933              	.L1330:
 4934 0366 4FF0FF33 		mov	r3, #-1
 4935 036a E364     		str	r3, [r4, #76]
 4936 036c 0BE7     		b	.L1358
 4937              	.L1321:
 4938 036e 2046     		mov	r0, r4
 4939 0370 FFF7FEFF 		bl	sync_window.part.0
 4940 0374 0028     		cmp	r0, #0
 4941 0376 B3D0     		beq	.L1324
 4942 0378 4AE7     		b	.L1325
 4943              	.L1338:
 4944 037a 0CEB0100 		add	r0, ip, r1
 4945 037e E063     		str	r0, [r4, #60]
 4946 0380 B4F87A00 		ldrh	r0, [r4, #122]	@ unaligned
 4947 0384 A163     		str	r1, [r4, #56]
 4948 0386 0EF10202 		add	r2, lr, #2
 4949 038a 0F44     		add	r7, r7, r1
 4950 038c 3043     		orrs	r0, r0, r6
 4951 038e 6764     		str	r7, [r4, #68]
 4952 0390 2263     		str	r2, [r4, #48]
ARM GAS  /tmp/cc2a13AN.s 			page 88


 4953 0392 7FF425AF 		bne	.L1317
 4954 0396 9200     		lsls	r2, r2, #2
 4955 0398 02F2FF12 		addw	r2, r2, #511
 4956 039c E06F     		ldr	r0, [r4, #124]	@ unaligned
 4957 039e 2064     		str	r0, [r4, #64]
 4958 03a0 B3EB522F 		cmp	r3, r2, lsr #9
 4959 03a4 FFF41CAF 		bcc	.L1317
 4960 03a8 B4F88020 		ldrh	r2, [r4, #128]	@ unaligned
 4961 03ac 4FF0FF33 		mov	r3, #-1
 4962 03b0 8020     		movs	r0, #128
 4963 03b2 012A     		cmp	r2, #1
 4964 03b4 C4E90633 		strd	r3, r3, [r4, #24]
 4965 03b8 2071     		strb	r0, [r4, #4]
 4966 03ba 13D0     		beq	.L1414
 4967              	.L1408:
 4968 03bc 0323     		movs	r3, #3
 4969 03be C2E6     		b	.L1335
 4970              	.L1329:
 4971 03c0 2046     		mov	r0, r4
 4972 03c2 FFF7FEFF 		bl	sync_window.part.0
 4973 03c6 0028     		cmp	r0, #0
 4974 03c8 C5D0     		beq	.L1332
 4975 03ca 21E7     		b	.L1325
 4976              	.L1339:
 4977 03cc 002E     		cmp	r6, #0
 4978 03ce 3FF407AF 		beq	.L1317
 4979 03d2 2A44     		add	r2, r2, r5
 4980 03d4 2264     		str	r2, [r4, #64]
 4981 03d6 0221     		movs	r1, #2
 4982 03d8 4200     		lsls	r2, r0, #1
 4983 03da A8E6     		b	.L1349
 4984              	.L1333:
 4985 03dc C4E90633 		strd	r3, r3, [r4, #24]
 4986 03e0 0423     		movs	r3, #4
 4987 03e2 B0E6     		b	.L1335
 4988              	.L1414:
 4989 03e4 0131     		adds	r1, r1, #1
 4990 03e6 2046     		mov	r0, r4
 4991 03e8 FFF7FEFF 		bl	move_window.part.0
 4992 03ec 0028     		cmp	r0, #0
 4993 03ee E5D1     		bne	.L1408
 4994 03f0 B4F84E22 		ldrh	r2, [r4, #590]	@ unaligned
 4995 03f4 2071     		strb	r0, [r4, #4]
 4996 03f6 4AF65523 		movw	r3, #43605
 4997 03fa 9A42     		cmp	r2, r3
 4998 03fc DED1     		bne	.L1408
 4999 03fe 226D     		ldr	r2, [r4, #80]	@ unaligned
 5000 0400 094B     		ldr	r3, .L1417
 5001 0402 9A42     		cmp	r2, r3
 5002 0404 DAD1     		bne	.L1408
 5003 0406 03F1FF53 		add	r3, r3, #534773760
 5004 040a D4F83422 		ldr	r2, [r4, #564]	@ unaligned
 5005 040e 03F50053 		add	r3, r3, #8192
 5006 0412 2033     		adds	r3, r3, #32
 5007 0414 9A42     		cmp	r2, r3
 5008 0416 D1D1     		bne	.L1408
 5009 0418 D4F83822 		ldr	r2, [r4, #568]	@ unaligned
ARM GAS  /tmp/cc2a13AN.s 			page 89


 5010 041c D4F83C32 		ldr	r3, [r4, #572]	@ unaligned
 5011 0420 C4E90632 		strd	r3, r2, [r4, #24]
 5012 0424 CAE7     		b	.L1408
 5013              	.L1418:
 5014 0426 00BF     		.align	2
 5015              	.L1417:
 5016 0428 52526141 		.word	1096897106
 5017 042c FDFFFF7F 		.word	2147483645
 5018              		.size	mount_volume, .-mount_volume
 5019              		.section	.text.f_mount,"ax",%progbits
 5020              		.align	1
 5021              		.p2align 4,,15
 5022              		.global	f_mount
 5023              		.syntax unified
 5024              		.thumb
 5025              		.thumb_func
 5026              		.fpu fpv4-sp-d16
 5027              		.type	f_mount, %function
 5028              	f_mount:
 5029              		@ args = 0, pretend = 0, frame = 16
 5030              		@ frame_needed = 0, uses_anonymous_args = 0
 5031 0000 2DE9F041 		push	{r4, r5, r6, r7, r8, lr}
 5032 0004 84B0     		sub	sp, sp, #16
 5033 0006 1646     		mov	r6, r2
 5034 0008 0190     		str	r0, [sp, #4]
 5035 000a 03A8     		add	r0, sp, #12
 5036 000c 0091     		str	r1, [sp]
 5037 000e 0391     		str	r1, [sp, #12]
 5038 0010 FFF7FEFF 		bl	get_ldnumber
 5039 0014 071E     		subs	r7, r0, #0
 5040 0016 3ADB     		blt	.L1428
 5041 0018 DFF88C80 		ldr	r8, .L1454+4
 5042 001c 58F82740 		ldr	r4, [r8, r7, lsl #2]
 5043 0020 8CB1     		cbz	r4, .L1422
 5044 0022 0023     		movs	r3, #0
 5045 0024 1F4D     		ldr	r5, .L1454
 5046 0026 1A46     		mov	r2, r3
 5047              	.L1424:
 5048 0028 55F82310 		ldr	r1, [r5, r3, lsl #2]
 5049 002c 8C42     		cmp	r4, r1
 5050 002e 08BF     		it	eq
 5051 0030 45F82320 		streq	r2, [r5, r3, lsl #2]
 5052 0034 0433     		adds	r3, r3, #4
 5053 0036 282B     		cmp	r3, #40
 5054 0038 F6D1     		bne	.L1424
 5055 003a 6069     		ldr	r0, [r4, #20]
 5056 003c FFF7FEFF 		bl	ff_del_syncobj
 5057 0040 50B3     		cbz	r0, .L1427
 5058 0042 0023     		movs	r3, #0
 5059 0044 2370     		strb	r3, [r4]
 5060              	.L1422:
 5061 0046 0199     		ldr	r1, [sp, #4]
 5062 0048 39B1     		cbz	r1, .L1426
 5063 004a 0023     		movs	r3, #0
 5064 004c 01F8143B 		strb	r3, [r1], #20
 5065 0050 F8B2     		uxtb	r0, r7
 5066 0052 FFF7FEFF 		bl	ff_cre_syncobj
ARM GAS  /tmp/cc2a13AN.s 			page 90


 5067 0056 F8B1     		cbz	r0, .L1427
 5068 0058 0199     		ldr	r1, [sp, #4]
 5069              	.L1426:
 5070 005a 48F82710 		str	r1, [r8, r7, lsl #2]
 5071 005e 1EB9     		cbnz	r6, .L1453
 5072              	.L1421:
 5073 0060 3046     		mov	r0, r6
 5074 0062 04B0     		add	sp, sp, #16
 5075              		@ sp needed
 5076 0064 BDE8F081 		pop	{r4, r5, r6, r7, r8, pc}
 5077              	.L1453:
 5078 0068 0022     		movs	r2, #0
 5079 006a 01A9     		add	r1, sp, #4
 5080 006c 6846     		mov	r0, sp
 5081 006e FFF7FEFF 		bl	mount_volume
 5082 0072 019B     		ldr	r3, [sp, #4]
 5083 0074 0646     		mov	r6, r0
 5084 0076 002B     		cmp	r3, #0
 5085 0078 F2D0     		beq	.L1421
 5086 007a 0C28     		cmp	r0, #12
 5087 007c F0D0     		beq	.L1421
 5088 007e 0B28     		cmp	r0, #11
 5089 0080 05D0     		beq	.L1428
 5090 0082 0F28     		cmp	r0, #15
 5091 0084 ECD0     		beq	.L1421
 5092 0086 5869     		ldr	r0, [r3, #20]
 5093 0088 FFF7FEFF 		bl	ff_rel_grant
 5094 008c E8E7     		b	.L1421
 5095              	.L1428:
 5096 008e 0B26     		movs	r6, #11
 5097 0090 3046     		mov	r0, r6
 5098 0092 04B0     		add	sp, sp, #16
 5099              		@ sp needed
 5100 0094 BDE8F081 		pop	{r4, r5, r6, r7, r8, pc}
 5101              	.L1427:
 5102 0098 0226     		movs	r6, #2
 5103 009a 3046     		mov	r0, r6
 5104 009c 04B0     		add	sp, sp, #16
 5105              		@ sp needed
 5106 009e BDE8F081 		pop	{r4, r5, r6, r7, r8, pc}
 5107              	.L1455:
 5108 00a2 00BF     		.align	2
 5109              	.L1454:
 5110 00a4 00000000 		.word	.LANCHOR0
 5111 00a8 00000000 		.word	.LANCHOR4
 5112              		.size	f_mount, .-f_mount
 5113              		.section	.text.f_getfs,"ax",%progbits
 5114              		.align	1
 5115              		.p2align 4,,15
 5116              		.global	f_getfs
 5117              		.syntax unified
 5118              		.thumb
 5119              		.thumb_func
 5120              		.fpu fpv4-sp-d16
 5121              		.type	f_getfs, %function
 5122              	f_getfs:
 5123              		@ args = 0, pretend = 0, frame = 8
ARM GAS  /tmp/cc2a13AN.s 			page 91


 5124              		@ frame_needed = 0, uses_anonymous_args = 0
 5125 0000 00B5     		push	{lr}
 5126 0002 83B0     		sub	sp, sp, #12
 5127 0004 0190     		str	r0, [sp, #4]
 5128 0006 01A8     		add	r0, sp, #4
 5129 0008 FFF7FEFF 		bl	get_ldnumber
 5130 000c 0028     		cmp	r0, #0
 5131 000e A6BF     		itte	ge
 5132 0010 034B     		ldrge	r3, .L1460
 5133 0012 53F82000 		ldrge	r0, [r3, r0, lsl #2]
 5134 0016 0020     		movlt	r0, #0
 5135 0018 03B0     		add	sp, sp, #12
 5136              		@ sp needed
 5137 001a 5DF804FB 		ldr	pc, [sp], #4
 5138              	.L1461:
 5139 001e 00BF     		.align	2
 5140              	.L1460:
 5141 0020 00000000 		.word	.LANCHOR4
 5142              		.size	f_getfs, .-f_getfs
 5143              		.section	.text.f_open,"ax",%progbits
 5144              		.align	1
 5145              		.p2align 4,,15
 5146              		.global	f_open
 5147              		.syntax unified
 5148              		.thumb
 5149              		.thumb_func
 5150              		.fpu fpv4-sp-d16
 5151              		.type	f_open, %function
 5152              	f_open:
 5153              		@ args = 0, pretend = 0, frame = 1224
 5154              		@ frame_needed = 0, uses_anonymous_args = 0
 5155 0000 2DE9F04F 		push	{r4, r5, r6, r7, r8, r9, r10, fp, lr}
 5156 0004 ADF2CC4D 		subw	sp, sp, #1228
 5157 0008 0191     		str	r1, [sp, #4]
 5158 000a 0028     		cmp	r0, #0
 5159 000c 43D0     		beq	.L1514
 5160 000e 02F03F07 		and	r7, r2, #63
 5161 0012 1646     		mov	r6, r2
 5162 0014 0446     		mov	r4, r0
 5163 0016 3A46     		mov	r2, r7
 5164 0018 03A9     		add	r1, sp, #12
 5165 001a 01A8     		add	r0, sp, #4
 5166 001c FFF7FEFF 		bl	mount_volume
 5167 0020 0546     		mov	r5, r0
 5168 0022 58B1     		cbz	r0, .L1568
 5169              	.L1464:
 5170 0024 039E     		ldr	r6, [sp, #12]
 5171 0026 0023     		movs	r3, #0
 5172 0028 2360     		str	r3, [r4]
 5173 002a 16B1     		cbz	r6, .L1530
 5174 002c 0C2D     		cmp	r5, #12
 5175 002e 40F00281 		bne	.L1569
 5176              	.L1530:
 5177 0032 2846     		mov	r0, r5
 5178 0034 0DF2CC4D 		addw	sp, sp, #1228
 5179              		@ sp needed
 5180 0038 BDE8F08F 		pop	{r4, r5, r6, r7, r8, r9, r10, fp, pc}
ARM GAS  /tmp/cc2a13AN.s 			page 92


 5181              	.L1568:
 5182 003c 039B     		ldr	r3, [sp, #12]
 5183 003e 0199     		ldr	r1, [sp, #4]
 5184 0040 0493     		str	r3, [sp, #16]
 5185 0042 1AAA     		add	r2, sp, #104
 5186 0044 DA60     		str	r2, [r3, #12]
 5187 0046 9AAA     		add	r2, sp, #616
 5188 0048 1A61     		str	r2, [r3, #16]
 5189 004a 04A8     		add	r0, sp, #16
 5190 004c FFF7FEFF 		bl	follow_path
 5191 0050 0346     		mov	r3, r0
 5192 0052 D8B9     		cbnz	r0, .L1465
 5193 0054 9DF95B30 		ldrsb	r3, [sp, #91]
 5194 0058 002B     		cmp	r3, #0
 5195 005a 3ADB     		blt	.L1570
 5196 005c 17F0FE0F 		tst	r7, #254
 5197 0060 14BF     		ite	ne
 5198 0062 0121     		movne	r1, #1
 5199 0064 0021     		moveq	r1, #0
 5200 0066 04A8     		add	r0, sp, #16
 5201 0068 FFF7FEFF 		bl	chk_lock
 5202 006c 16F01C0F 		tst	r6, #28
 5203 0070 0346     		mov	r3, r0
 5204 0072 16D0     		beq	.L1468
 5205 0074 0028     		cmp	r0, #0
 5206 0076 32D1     		bne	.L1511
 5207 0078 9DF81630 		ldrb	r3, [sp, #22]	@ zero_extendqisi2
 5208 007c 13F0110F 		tst	r3, #17
 5209 0080 47D0     		beq	.L1474
 5210 0082 039E     		ldr	r6, [sp, #12]
 5211 0084 2560     		str	r5, [r4]
 5212 0086 DEB9     		cbnz	r6, .L1524
 5213              	.L1493:
 5214 0088 0725     		movs	r5, #7
 5215 008a D2E7     		b	.L1530
 5216              	.L1465:
 5217 008c 16F01C0F 		tst	r6, #28
 5218 0090 25D1     		bne	.L1511
 5219              	.L1522:
 5220 0092 0546     		mov	r5, r0
 5221 0094 C6E7     		b	.L1464
 5222              	.L1514:
 5223 0096 0925     		movs	r5, #9
 5224 0098 2846     		mov	r0, r5
 5225 009a 0DF2CC4D 		addw	sp, sp, #1228
 5226              		@ sp needed
 5227 009e BDE8F08F 		pop	{r4, r5, r6, r7, r8, r9, r10, fp, pc}
 5228              	.L1468:
 5229 00a2 0028     		cmp	r0, #0
 5230 00a4 F5D1     		bne	.L1522
 5231 00a6 9DF81630 		ldrb	r3, [sp, #22]	@ zero_extendqisi2
 5232 00aa 13F01002 		ands	r2, r3, #16
 5233 00ae 2AD1     		bne	.L1571
 5234 00b0 B007     		lsls	r0, r6, #30
 5235 00b2 37D5     		bpl	.L1480
 5236 00b4 DE07     		lsls	r6, r3, #31
 5237 00b6 35D5     		bpl	.L1480
ARM GAS  /tmp/cc2a13AN.s 			page 93


 5238 00b8 039E     		ldr	r6, [sp, #12]
 5239 00ba 2260     		str	r2, [r4]
 5240 00bc 002E     		cmp	r6, #0
 5241 00be E3D0     		beq	.L1493
 5242              	.L1524:
 5243 00c0 0725     		movs	r5, #7
 5244              	.L1475:
 5245 00c2 7069     		ldr	r0, [r6, #20]
 5246 00c4 FFF7FEFF 		bl	ff_rel_grant
 5247              	.L1583:
 5248 00c8 2846     		mov	r0, r5
 5249 00ca 0DF2CC4D 		addw	sp, sp, #1228
 5250              		@ sp needed
 5251 00ce BDE8F08F 		pop	{r4, r5, r6, r7, r8, r9, r10, fp, pc}
 5252              	.L1570:
 5253 00d2 039E     		ldr	r6, [sp, #12]
 5254 00d4 2560     		str	r5, [r4]
 5255 00d6 0625     		movs	r5, #6
 5256 00d8 002E     		cmp	r6, #0
 5257 00da F2D1     		bne	.L1475
 5258 00dc A9E7     		b	.L1530
 5259              	.L1511:
 5260 00de 042B     		cmp	r3, #4
 5261 00e0 40F03681 		bne	.L1572
 5262 00e4 A849     		ldr	r1, .L1584
 5263 00e6 0023     		movs	r3, #0
 5264              	.L1470:
 5265 00e8 51F82320 		ldr	r2, [r1, r3, lsl #2]
 5266 00ec 0433     		adds	r3, r3, #4
 5267 00ee 002A     		cmp	r2, #0
 5268 00f0 00F0A880 		beq	.L1573
 5269 00f4 282B     		cmp	r3, #40
 5270 00f6 F7D1     		bne	.L1470
 5271 00f8 1225     		movs	r5, #18
 5272              	.L1471:
 5273 00fa 039E     		ldr	r6, [sp, #12]
 5274 00fc 0023     		movs	r3, #0
 5275 00fe 2360     		str	r3, [r4]
 5276 0100 002E     		cmp	r6, #0
 5277 0102 96D0     		beq	.L1530
 5278 0104 DDE7     		b	.L1475
 5279              	.L1571:
 5280 0106 039E     		ldr	r6, [sp, #12]
 5281 0108 2560     		str	r5, [r4]
 5282 010a 1425     		movs	r5, #20
 5283 010c 002E     		cmp	r6, #0
 5284 010e D8D1     		bne	.L1475
 5285 0110 8FE7     		b	.L1530
 5286              	.L1474:
 5287 0112 7307     		lsls	r3, r6, #29
 5288 0114 40F11781 		bpl	.L1476
 5289 0118 039E     		ldr	r6, [sp, #12]
 5290 011a 2560     		str	r5, [r4]
 5291 011c 0825     		movs	r5, #8
 5292 011e 002E     		cmp	r6, #0
 5293 0120 CFD1     		bne	.L1475
 5294 0122 86E7     		b	.L1530
ARM GAS  /tmp/cc2a13AN.s 			page 94


 5295              	.L1480:
 5296 0124 DDF80C80 		ldr	r8, [sp, #12]
 5297              	.L1481:
 5298 0128 3807     		lsls	r0, r7, #28
 5299 012a 7ED5     		bpl	.L1574
 5300 012c 47F04007 		orr	r7, r7, #64
 5301 0130 0121     		movs	r1, #1
 5302              	.L1478:
 5303 0132 D8F84C30 		ldr	r3, [r8, #76]
 5304 0136 A364     		str	r3, [r4, #72]
 5305 0138 139B     		ldr	r3, [sp, #76]
 5306 013a E364     		str	r3, [r4, #76]
 5307 013c 04A8     		add	r0, sp, #16
 5308 013e FFF7FEFF 		bl	inc_lock
 5309 0142 039E     		ldr	r6, [sp, #12]
 5310 0144 E062     		str	r0, [r4, #44]
 5311 0146 20B9     		cbnz	r0, .L1495
 5312 0148 2060     		str	r0, [r4]
 5313 014a 0225     		movs	r5, #2
 5314 014c 002E     		cmp	r6, #0
 5315 014e B8D1     		bne	.L1475
 5316 0150 6FE7     		b	.L1530
 5317              	.L1495:
 5318 0152 3378     		ldrb	r3, [r6]	@ zero_extendqisi2
 5319 0154 042B     		cmp	r3, #4
 5320 0156 00F0E580 		beq	.L1575
 5321 015a 139A     		ldr	r2, [sp, #76]
 5322 015c 032B     		cmp	r3, #3
 5323 015e 08BF     		it	eq
 5324 0160 938A     		ldrheq	r3, [r2, #20]	@ unaligned
 5325 0162 518B     		ldrh	r1, [r2, #26]	@ unaligned
 5326 0164 08BF     		it	eq
 5327 0166 41EA0341 		orreq	r1, r1, r3, lsl #16
 5328 016a A160     		str	r1, [r4, #8]
 5329 016c D369     		ldr	r3, [r2, #28]	@ unaligned
 5330 016e 2361     		str	r3, [r4, #16]
 5331 0170 0023     		movs	r3, #0
 5332 0172 6361     		str	r3, [r4, #20]
 5333              	.L1497:
 5334 0174 F388     		ldrh	r3, [r6, #6]
 5335 0176 2660     		str	r6, [r4]
 5336 0178 4FF00009 		mov	r9, #0
 5337 017c 04F15408 		add	r8, r4, #84
 5338 0180 4FF0000A 		mov	r10, #0
 5339 0184 4FF0000B 		mov	fp, #0
 5340 0188 4FF40072 		mov	r2, #512
 5341 018c C4E90EAB 		strd	r10, [r4, #56]
 5342 0190 A380     		strh	r3, [r4, #4]	@ movhi
 5343 0192 84F83070 		strb	r7, [r4, #48]
 5344 0196 C4F85090 		str	r9, [r4, #80]
 5345 019a 84F83190 		strb	r9, [r4, #49]
 5346 019e C4F84490 		str	r9, [r4, #68]
 5347 01a2 4946     		mov	r1, r9
 5348 01a4 4046     		mov	r0, r8
 5349 01a6 FFF7FEFF 		bl	memset
 5350 01aa BA06     		lsls	r2, r7, #26
 5351 01ac 89D5     		bpl	.L1475
ARM GAS  /tmp/cc2a13AN.s 			page 95


 5352 01ae D4E9047A 		ldrd	r7, r10, [r4, #16]
 5353 01b2 57EA0A03 		orrs	r3, r7, r10
 5354 01b6 84D0     		beq	.L1475
 5355 01b8 B6F80AB0 		ldrh	fp, [r6, #10]
 5356 01bc A168     		ldr	r1, [r4, #8]
 5357 01be 4FEA4B2B 		lsl	fp, fp, #9
 5358 01c2 BB45     		cmp	fp, r7
 5359 01c4 79EB0A03 		sbcs	r3, r9, r10
 5360 01c8 C4E90E7A 		strd	r7, r10, [r4, #56]
 5361 01cc 0BD3     		bcc	.L1502
 5362 01ce 27E1     		b	.L1500
 5363              	.L1577:
 5364 01d0 431C     		adds	r3, r0, #1
 5365 01d2 28D0     		beq	.L1527
 5366 01d4 B7EB0B07 		subs	r7, r7, fp
 5367 01d8 6AF1000A 		sbc	r10, r10, #0
 5368 01dc BB45     		cmp	fp, r7
 5369 01de 79EB0A03 		sbcs	r3, r9, r10
 5370 01e2 80F0B780 		bcs	.L1576
 5371              	.L1502:
 5372 01e6 2046     		mov	r0, r4
 5373 01e8 FFF7FEFF 		bl	get_fat
 5374 01ec 0128     		cmp	r0, #1
 5375 01ee 0146     		mov	r1, r0
 5376 01f0 EED8     		bhi	.L1577
 5377 01f2 0225     		movs	r5, #2
 5378              	.L1501:
 5379 01f4 2164     		str	r1, [r4, #64]
 5380              	.L1504:
 5381 01f6 E36A     		ldr	r3, [r4, #44]
 5382 01f8 013B     		subs	r3, r3, #1
 5383 01fa 092B     		cmp	r3, #9
 5384 01fc 3FF67DAF 		bhi	.L1471
 5385 0200 6149     		ldr	r1, .L1584
 5386 0202 1801     		lsls	r0, r3, #4
 5387 0204 01EB0313 		add	r3, r1, r3, lsl #4
 5388 0208 9A89     		ldrh	r2, [r3, #12]
 5389 020a B2F5807F 		cmp	r2, #256
 5390 020e 00F00281 		beq	.L1578
 5391 0212 2AB1     		cbz	r2, .L1507
 5392 0214 013A     		subs	r2, r2, #1
 5393 0216 92B2     		uxth	r2, r2
 5394 0218 9A81     		strh	r2, [r3, #12]	@ movhi
 5395 021a 002A     		cmp	r2, #0
 5396 021c 7FF46DAF 		bne	.L1471
 5397              	.L1507:
 5398 0220 0023     		movs	r3, #0
 5399 0222 0B50     		str	r3, [r1, r0]
 5400 0224 69E7     		b	.L1471
 5401              	.L1527:
 5402 0226 0125     		movs	r5, #1
 5403 0228 E4E7     		b	.L1501
 5404              	.L1574:
 5405 022a 17F0FE0F 		tst	r7, #254
 5406 022e 14BF     		ite	ne
 5407 0230 0121     		movne	r1, #1
 5408 0232 0021     		moveq	r1, #0
ARM GAS  /tmp/cc2a13AN.s 			page 96


 5409 0234 7DE7     		b	.L1478
 5410              	.L1569:
 5411 0236 0B2D     		cmp	r5, #11
 5412 0238 3FF4FBAE 		beq	.L1530
 5413 023c 0F2D     		cmp	r5, #15
 5414 023e 3FF4F8AE 		beq	.L1530
 5415 0242 3EE7     		b	.L1475
 5416              	.L1573:
 5417 0244 04A8     		add	r0, sp, #16
 5418 0246 47F00807 		orr	r7, r7, #8
 5419 024a FFF7FEFF 		bl	dir_register
 5420 024e 0028     		cmp	r0, #0
 5421 0250 7FF41FAF 		bne	.L1522
 5422              	.L1477:
 5423 0254 039B     		ldr	r3, [sp, #12]
 5424 0256 1A78     		ldrb	r2, [r3]	@ zero_extendqisi2
 5425 0258 042A     		cmp	r2, #4
 5426 025a 00F09780 		beq	.L1579
 5427 025e FFF7FEFF 		bl	get_fattime
 5428 0262 139B     		ldr	r3, [sp, #76]
 5429 0264 DDF80C80 		ldr	r8, [sp, #12]
 5430 0268 C0F30721 		ubfx	r1, r0, #8, #8
 5431 026c C0F30742 		ubfx	r2, r0, #16, #8
 5432 0270 C6B2     		uxtb	r6, r0
 5433 0272 000E     		lsrs	r0, r0, #24
 5434 0274 9E73     		strb	r6, [r3, #14]
 5435 0276 D973     		strb	r1, [r3, #15]
 5436 0278 1A74     		strb	r2, [r3, #16]
 5437 027a 5874     		strb	r0, [r3, #17]
 5438 027c 139B     		ldr	r3, [sp, #76]
 5439 027e 9E75     		strb	r6, [r3, #22]
 5440 0280 D975     		strb	r1, [r3, #23]
 5441 0282 1A76     		strb	r2, [r3, #24]
 5442 0284 5876     		strb	r0, [r3, #25]
 5443 0286 98F80020 		ldrb	r2, [r8]	@ zero_extendqisi2
 5444 028a 139B     		ldr	r3, [sp, #76]
 5445 028c 032A     		cmp	r2, #3
 5446 028e B3F81A90 		ldrh	r9, [r3, #26]	@ unaligned
 5447 0292 04BF     		itt	eq
 5448 0294 9A8A     		ldrheq	r2, [r3, #20]	@ unaligned
 5449 0296 49EA0249 		orreq	r9, r9, r2, lsl #16
 5450 029a 2022     		movs	r2, #32
 5451 029c DA72     		strb	r2, [r3, #11]
 5452 029e 139B     		ldr	r3, [sp, #76]
 5453 02a0 0022     		movs	r2, #0
 5454 02a2 9A76     		strb	r2, [r3, #26]
 5455 02a4 DA76     		strb	r2, [r3, #27]
 5456 02a6 98F80010 		ldrb	r1, [r8]	@ zero_extendqisi2
 5457 02aa 0329     		cmp	r1, #3
 5458 02ac 01D1     		bne	.L1483
 5459 02ae 1A75     		strb	r2, [r3, #20]
 5460 02b0 5A75     		strb	r2, [r3, #21]
 5461              	.L1483:
 5462 02b2 139B     		ldr	r3, [sp, #76]
 5463 02b4 0022     		movs	r2, #0
 5464 02b6 1A77     		strb	r2, [r3, #28]
 5465 02b8 5A77     		strb	r2, [r3, #29]
ARM GAS  /tmp/cc2a13AN.s 			page 97


 5466 02ba 9A77     		strb	r2, [r3, #30]
 5467 02bc DA77     		strb	r2, [r3, #31]
 5468 02be 0123     		movs	r3, #1
 5469 02c0 88F80330 		strb	r3, [r8, #3]
 5470 02c4 B9F1000F 		cmp	r9, #0
 5471 02c8 3FF42EAF 		beq	.L1481
 5472 02cc 4946     		mov	r1, r9
 5473 02ce 04A8     		add	r0, sp, #16
 5474 02d0 D8F84C60 		ldr	r6, [r8, #76]
 5475 02d4 FFF7FEFF 		bl	remove_chain
 5476 02d8 0028     		cmp	r0, #0
 5477 02da 7FF4DAAE 		bne	.L1522
 5478 02de DDF80C80 		ldr	r8, [sp, #12]
 5479 02e2 D8F84C30 		ldr	r3, [r8, #76]
 5480 02e6 9E42     		cmp	r6, r3
 5481 02e8 00F0AE80 		beq	.L1580
 5482 02ec 98F80330 		ldrb	r3, [r8, #3]	@ zero_extendqisi2
 5483 02f0 002B     		cmp	r3, #0
 5484 02f2 40F0B780 		bne	.L1485
 5485              	.L1488:
 5486 02f6 98F80100 		ldrb	r0, [r8, #1]	@ zero_extendqisi2
 5487 02fa 0123     		movs	r3, #1
 5488 02fc 3246     		mov	r2, r6
 5489 02fe 08F15001 		add	r1, r8, #80
 5490 0302 FFF7FEFF 		bl	disk_read
 5491 0306 0028     		cmp	r0, #0
 5492 0308 00F0A380 		beq	.L1581
 5493 030c 4FF0FF33 		mov	r3, #-1
 5494 0310 039E     		ldr	r6, [sp, #12]
 5495 0312 C8F84C30 		str	r3, [r8, #76]
 5496 0316 09EB0302 		add	r2, r9, r3
 5497 031a 0023     		movs	r3, #0
 5498 031c B261     		str	r2, [r6, #24]
 5499 031e 0125     		movs	r5, #1
 5500 0320 2360     		str	r3, [r4]
 5501 0322 CEE6     		b	.L1475
 5502              	.L1575:
 5503 0324 089B     		ldr	r3, [sp, #32]
 5504 0326 9DF81720 		ldrb	r2, [sp, #23]	@ zero_extendqisi2
 5505 032a 3069     		ldr	r0, [r6, #16]
 5506 032c 23F0FF03 		bic	r3, r3, #255
 5507 0330 1343     		orrs	r3, r3, r2
 5508 0332 6362     		str	r3, [r4, #36]
 5509 0334 069B     		ldr	r3, [sp, #24]
 5510 0336 2362     		str	r3, [r4, #32]
 5511 0338 179B     		ldr	r3, [sp, #92]
 5512 033a A362     		str	r3, [r4, #40]
 5513 033c 2146     		mov	r1, r4
 5514 033e FFF7FEFF 		bl	init_alloc_info.isra.0
 5515 0342 039E     		ldr	r6, [sp, #12]
 5516 0344 16E7     		b	.L1497
 5517              	.L1476:
 5518 0346 3607     		lsls	r6, r6, #28
 5519 0348 84D4     		bmi	.L1477
 5520 034a DDF80C80 		ldr	r8, [sp, #12]
 5521 034e F0E6     		b	.L1478
 5522              	.L1572:
ARM GAS  /tmp/cc2a13AN.s 			page 98


 5523 0350 1D46     		mov	r5, r3
 5524 0352 67E6     		b	.L1464
 5525              	.L1576:
 5526 0354 C7F30803 		ubfx	r3, r7, #0, #9
 5527 0358 039E     		ldr	r6, [sp, #12]
 5528 035a 2064     		str	r0, [r4, #64]
 5529 035c 6BB1     		cbz	r3, .L1503
 5530              	.L1513:
 5531 035e 336B     		ldr	r3, [r6, #48]
 5532 0360 881E     		subs	r0, r1, #2
 5533 0362 023B     		subs	r3, r3, #2
 5534 0364 9842     		cmp	r0, r3
 5535 0366 05D2     		bcs	.L1529
 5536 0368 7289     		ldrh	r2, [r6, #10]
 5537 036a 736C     		ldr	r3, [r6, #68]
 5538 036c 00FB0230 		mla	r0, r0, r2, r3
 5539 0370 0028     		cmp	r0, #0
 5540 0372 5BD1     		bne	.L1582
 5541              	.L1529:
 5542 0374 0225     		movs	r5, #2
 5543 0376 3EE7     		b	.L1504
 5544              	.L1505:
 5545 0378 039E     		ldr	r6, [sp, #12]
 5546              	.L1503:
 5547 037a 002E     		cmp	r6, #0
 5548 037c 3FF459AE 		beq	.L1530
 5549 0380 7069     		ldr	r0, [r6, #20]
 5550 0382 FFF7FEFF 		bl	ff_rel_grant
 5551 0386 9FE6     		b	.L1583
 5552              	.L1585:
 5553              		.align	2
 5554              	.L1584:
 5555 0388 00000000 		.word	.LANCHOR0
 5556              	.L1579:
 5557 038c 1869     		ldr	r0, [r3, #16]
 5558 038e 2360     		str	r3, [r4]
 5559 0390 2146     		mov	r1, r4
 5560 0392 FFF7FEFF 		bl	init_alloc_info.isra.0
 5561 0396 039B     		ldr	r3, [sp, #12]
 5562 0398 1869     		ldr	r0, [r3, #16]
 5563 039a 1E22     		movs	r2, #30
 5564 039c 0021     		movs	r1, #0
 5565 039e 0230     		adds	r0, r0, #2
 5566 03a0 FFF7FEFF 		bl	memset
 5567 03a4 0399     		ldr	r1, [sp, #12]
 5568 03a6 0B69     		ldr	r3, [r1, #16]
 5569 03a8 0022     		movs	r2, #0
 5570 03aa C3F82620 		str	r2, [r3, #38]	@ unaligned
 5571 03ae C3F82A20 		str	r2, [r3, #42]	@ unaligned
 5572 03b2 C3F82E20 		str	r2, [r3, #46]	@ unaligned
 5573 03b6 C3F83220 		str	r2, [r3, #50]	@ unaligned
 5574 03ba C3F83620 		str	r2, [r3, #54]	@ unaligned
 5575 03be C3F83A20 		str	r2, [r3, #58]	@ unaligned
 5576 03c2 DA87     		strh	r2, [r3, #62]	@ unaligned
 5577 03c4 0B69     		ldr	r3, [r1, #16]
 5578 03c6 2022     		movs	r2, #32
 5579 03c8 1A71     		strb	r2, [r3, #4]
ARM GAS  /tmp/cc2a13AN.s 			page 99


 5580 03ca 0E69     		ldr	r6, [r1, #16]
 5581 03cc FFF7FEFF 		bl	get_fattime
 5582 03d0 020A     		lsrs	r2, r0, #8
 5583 03d2 3072     		strb	r0, [r6, #8]
 5584 03d4 7272     		strb	r2, [r6, #9]
 5585 03d6 039B     		ldr	r3, [sp, #12]
 5586 03d8 020C     		lsrs	r2, r0, #16
 5587 03da 000E     		lsrs	r0, r0, #24
 5588 03dc B272     		strb	r2, [r6, #10]
 5589 03de F072     		strb	r0, [r6, #11]
 5590 03e0 1B69     		ldr	r3, [r3, #16]
 5591 03e2 0122     		movs	r2, #1
 5592 03e4 83F82120 		strb	r2, [r3, #33]
 5593 03e8 04A8     		add	r0, sp, #16
 5594 03ea FFF7FEFF 		bl	store_xdir
 5595 03ee 0246     		mov	r2, r0
 5596 03f0 A0B9     		cbnz	r0, .L1520
 5597 03f2 A168     		ldr	r1, [r4, #8]
 5598 03f4 0029     		cmp	r1, #0
 5599 03f6 3FF495AE 		beq	.L1480
 5600 03fa 2046     		mov	r0, r4
 5601 03fc FFF7FEFF 		bl	remove_chain
 5602 0400 A368     		ldr	r3, [r4, #8]
 5603 0402 DDF80C80 		ldr	r8, [sp, #12]
 5604 0406 013B     		subs	r3, r3, #1
 5605 0408 C8F81830 		str	r3, [r8, #24]
 5606 040c 0028     		cmp	r0, #0
 5607 040e 3FF48BAE 		beq	.L1481
 5608 0412 0546     		mov	r5, r0
 5609 0414 06E6     		b	.L1464
 5610              	.L1578:
 5611 0416 0022     		movs	r2, #0
 5612 0418 9A81     		strh	r2, [r3, #12]	@ movhi
 5613 041a 01E7     		b	.L1507
 5614              	.L1520:
 5615 041c 0546     		mov	r5, r0
 5616 041e 01E6     		b	.L1464
 5617              	.L1500:
 5618 0420 C7F30803 		ubfx	r3, r7, #0, #9
 5619 0424 2164     		str	r1, [r4, #64]
 5620 0426 002B     		cmp	r3, #0
 5621 0428 99D1     		bne	.L1513
 5622 042a 4AE6     		b	.L1475
 5623              	.L1582:
 5624 042c 7A0A     		lsrs	r2, r7, #9
 5625 042e 42EACA52 		orr	r2, r2, r10, lsl #23
 5626 0432 0244     		add	r2, r2, r0
 5627 0434 6264     		str	r2, [r4, #68]
 5628 0436 7078     		ldrb	r0, [r6, #1]	@ zero_extendqisi2
 5629 0438 4146     		mov	r1, r8
 5630 043a 0123     		movs	r3, #1
 5631 043c FFF7FEFF 		bl	disk_read
 5632 0440 0028     		cmp	r0, #0
 5633 0442 99D0     		beq	.L1505
 5634 0444 0125     		movs	r5, #1
 5635 0446 D6E6     		b	.L1504
 5636              	.L1580:
ARM GAS  /tmp/cc2a13AN.s 			page 100


 5637 0448 09F1FF33 		add	r3, r9, #-1
 5638 044c C8F81830 		str	r3, [r8, #24]
 5639 0450 6AE6     		b	.L1481
 5640              	.L1581:
 5641 0452 C8F84C60 		str	r6, [r8, #76]
 5642 0456 DDF80C80 		ldr	r8, [sp, #12]
 5643 045a 09F1FF33 		add	r3, r9, #-1
 5644 045e C8F81830 		str	r3, [r8, #24]
 5645 0462 61E6     		b	.L1481
 5646              	.L1485:
 5647 0464 4046     		mov	r0, r8
 5648 0466 FFF7FEFF 		bl	sync_window.part.0
 5649 046a 0028     		cmp	r0, #0
 5650 046c 3FF443AF 		beq	.L1488
 5651 0470 039B     		ldr	r3, [sp, #12]
 5652 0472 09F1FF32 		add	r2, r9, #-1
 5653 0476 9A61     		str	r2, [r3, #24]
 5654 0478 0546     		mov	r5, r0
 5655 047a D3E5     		b	.L1464
 5656              		.size	f_open, .-f_open
 5657              		.global	__aeabi_uldivmod
 5658              		.global	__aeabi_ldivmod
 5659              		.section	.text.f_read,"ax",%progbits
 5660              		.align	1
 5661              		.p2align 4,,15
 5662              		.global	f_read
 5663              		.syntax unified
 5664              		.thumb
 5665              		.thumb_func
 5666              		.fpu fpv4-sp-d16
 5667              		.type	f_read, %function
 5668              	f_read:
 5669              		@ args = 0, pretend = 0, frame = 24
 5670              		@ frame_needed = 0, uses_anonymous_args = 0
 5671 0000 2DE9F04F 		push	{r4, r5, r6, r7, r8, r9, r10, fp, lr}
 5672 0004 9846     		mov	r8, r3
 5673 0006 87B0     		sub	sp, sp, #28
 5674 0008 0023     		movs	r3, #0
 5675 000a 8946     		mov	r9, r1
 5676 000c C8F80030 		str	r3, [r8]
 5677 0010 05A9     		add	r1, sp, #20
 5678 0012 0446     		mov	r4, r0
 5679 0014 1746     		mov	r7, r2
 5680 0016 FFF7FEFF 		bl	validate
 5681 001a 0028     		cmp	r0, #0
 5682 001c 40F09E80 		bne	.L1658
 5683 0020 94F83150 		ldrb	r5, [r4, #49]	@ zero_extendqisi2
 5684 0024 002D     		cmp	r5, #0
 5685 0026 40F09A80 		bne	.L1587
 5686 002a 94F83030 		ldrb	r3, [r4, #48]	@ zero_extendqisi2
 5687 002e 13F00103 		ands	r3, r3, #1
 5688 0032 0193     		str	r3, [sp, #4]
 5689 0034 00F0CC80 		beq	.L1665
 5690 0038 A66B     		ldr	r6, [r4, #56]
 5691 003a 2369     		ldr	r3, [r4, #16]
 5692 003c E26B     		ldr	r2, [r4, #60]
 5693 003e 6169     		ldr	r1, [r4, #20]
ARM GAS  /tmp/cc2a13AN.s 			page 101


 5694 0040 DDF814A0 		ldr	r10, [sp, #20]
 5695 0044 9B1B     		subs	r3, r3, r6
 5696 0046 61EB0201 		sbc	r1, r1, r2
 5697 004a BB42     		cmp	r3, r7
 5698 004c 71F10001 		sbcs	r1, r1, #0
 5699 0050 38BF     		it	cc
 5700 0052 1F46     		movcc	r7, r3
 5701 0054 002F     		cmp	r7, #0
 5702 0056 79D0     		beq	.L1621
 5703 0058 04F15403 		add	r3, r4, #84
 5704 005c 0295     		str	r5, [sp, #8]
 5705 005e BB46     		mov	fp, r7
 5706 0060 1D46     		mov	r5, r3
 5707              	.L1620:
 5708 0062 C6F30801 		ubfx	r1, r6, #0, #9
 5709 0066 0029     		cmp	r1, #0
 5710 0068 54D1     		bne	.L1594
 5711 006a BAF80A30 		ldrh	r3, [r10, #10]
 5712 006e 700A     		lsrs	r0, r6, #9
 5713 0070 013B     		subs	r3, r3, #1
 5714 0072 40EAC250 		orr	r0, r0, r2, lsl #23
 5715 0076 0340     		ands	r3, r3, r0
 5716 0078 4FEA5221 		lsr	r1, r2, #9
 5717 007c 7CD0     		beq	.L1595
 5718 007e 206C     		ldr	r0, [r4, #64]
 5719              	.L1596:
 5720 0080 DAF83020 		ldr	r2, [r10, #48]
 5721 0084 0238     		subs	r0, r0, #2
 5722 0086 023A     		subs	r2, r2, #2
 5723 0088 9042     		cmp	r0, r2
 5724 008a 80F08F80 		bcs	.L1606
 5725 008e BAF80A20 		ldrh	r2, [r10, #10]
 5726 0092 DAF84470 		ldr	r7, [r10, #68]
 5727 0096 02FB0077 		mla	r7, r2, r0, r7
 5728 009a 002F     		cmp	r7, #0
 5729 009c 00F08680 		beq	.L1606
 5730 00a0 BBF5007F 		cmp	fp, #512
 5731 00a4 1F44     		add	r7, r7, r3
 5732 00a6 1FD3     		bcc	.L1608
 5733 00a8 03EB5B21 		add	r1, r3, fp, lsr #9
 5734 00ac 9142     		cmp	r1, r2
 5735 00ae 4FEA5B26 		lsr	r6, fp, #9
 5736 00b2 88BF     		it	hi
 5737 00b4 D61A     		subhi	r6, r2, r3
 5738 00b6 9AF80100 		ldrb	r0, [r10, #1]	@ zero_extendqisi2
 5739 00ba 3346     		mov	r3, r6
 5740 00bc 3A46     		mov	r2, r7
 5741 00be 4946     		mov	r1, r9
 5742 00c0 FFF7FEFF 		bl	disk_read
 5743 00c4 0028     		cmp	r0, #0
 5744 00c6 00F08B80 		beq	.L1610
 5745              	.L1618:
 5746 00ca 059B     		ldr	r3, [sp, #20]
 5747 00cc 0122     		movs	r2, #1
 5748 00ce 84F83120 		strb	r2, [r4, #49]
 5749 00d2 002B     		cmp	r3, #0
 5750 00d4 00F0BD80 		beq	.L1660
ARM GAS  /tmp/cc2a13AN.s 			page 102


 5751 00d8 5869     		ldr	r0, [r3, #20]
 5752 00da FFF7FEFF 		bl	ff_rel_grant
 5753 00de 019D     		ldr	r5, [sp, #4]
 5754              	.L1625:
 5755 00e0 2846     		mov	r0, r5
 5756 00e2 07B0     		add	sp, sp, #28
 5757              		@ sp needed
 5758 00e4 BDE8F08F 		pop	{r4, r5, r6, r7, r8, r9, r10, fp, pc}
 5759              	.L1608:
 5760 00e8 626C     		ldr	r2, [r4, #68]
 5761 00ea BA42     		cmp	r2, r7
 5762 00ec 0ED0     		beq	.L1619
 5763 00ee 94F93030 		ldrsb	r3, [r4, #48]
 5764 00f2 002B     		cmp	r3, #0
 5765 00f4 7CDB     		blt	.L1666
 5766              	.L1616:
 5767 00f6 9AF80100 		ldrb	r0, [r10, #1]	@ zero_extendqisi2
 5768 00fa 0123     		movs	r3, #1
 5769 00fc 3A46     		mov	r2, r7
 5770 00fe 2946     		mov	r1, r5
 5771 0100 FFF7FEFF 		bl	disk_read
 5772 0104 0028     		cmp	r0, #0
 5773 0106 E0D1     		bne	.L1618
 5774 0108 DDF814A0 		ldr	r10, [sp, #20]
 5775              	.L1619:
 5776 010c A66B     		ldr	r6, [r4, #56]
 5777 010e 6764     		str	r7, [r4, #68]
 5778 0110 C6F30801 		ubfx	r1, r6, #0, #9
 5779              	.L1594:
 5780 0114 C1F50076 		rsb	r6, r1, #512
 5781 0118 5E45     		cmp	r6, fp
 5782 011a 28BF     		it	cs
 5783 011c 5E46     		movcs	r6, fp
 5784 011e 2944     		add	r1, r1, r5
 5785 0120 3246     		mov	r2, r6
 5786 0122 4846     		mov	r0, r9
 5787 0124 3746     		mov	r7, r6
 5788 0126 FFF7FEFF 		bl	memcpy
 5789              	.L1613:
 5790 012a A66B     		ldr	r6, [r4, #56]
 5791 012c D8F80030 		ldr	r3, [r8]
 5792 0130 E26B     		ldr	r2, [r4, #60]
 5793 0132 BE19     		adds	r6, r7, r6
 5794 0134 42F10002 		adc	r2, r2, #0
 5795 0138 3B44     		add	r3, r3, r7
 5796 013a BBEB070B 		subs	fp, fp, r7
 5797 013e C8F80030 		str	r3, [r8]
 5798 0142 B944     		add	r9, r9, r7
 5799 0144 A663     		str	r6, [r4, #56]
 5800 0146 E263     		str	r2, [r4, #60]
 5801 0148 8BD1     		bne	.L1620
 5802 014a 029D     		ldr	r5, [sp, #8]
 5803              	.L1621:
 5804 014c BAF1000F 		cmp	r10, #0
 5805 0150 C6D0     		beq	.L1625
 5806 0152 DAF81400 		ldr	r0, [r10, #20]
 5807 0156 FFF7FEFF 		bl	ff_rel_grant
ARM GAS  /tmp/cc2a13AN.s 			page 103


 5808 015a C1E7     		b	.L1625
 5809              	.L1658:
 5810 015c 0546     		mov	r5, r0
 5811              	.L1587:
 5812 015e 059B     		ldr	r3, [sp, #20]
 5813 0160 002B     		cmp	r3, #0
 5814 0162 BDD0     		beq	.L1625
 5815 0164 0C2D     		cmp	r5, #12
 5816 0166 BBD0     		beq	.L1625
 5817 0168 0B2D     		cmp	r5, #11
 5818 016a B9D0     		beq	.L1625
 5819 016c 0F2D     		cmp	r5, #15
 5820 016e B7D0     		beq	.L1625
 5821 0170 5869     		ldr	r0, [r3, #20]
 5822 0172 FFF7FEFF 		bl	ff_rel_grant
 5823 0176 B3E7     		b	.L1625
 5824              	.L1595:
 5825 0178 3243     		orrs	r2, r6, r2
 5826 017a 22D0     		beq	.L1667
 5827 017c 266D     		ldr	r6, [r4, #80]
 5828 017e 002E     		cmp	r6, #0
 5829 0180 48D0     		beq	.L1599
 5830 0182 2268     		ldr	r2, [r4]
 5831 0184 0393     		str	r3, [sp, #12]
 5832 0186 5289     		ldrh	r2, [r2, #10]
 5833 0188 FFF7FEFF 		bl	__aeabi_uldivmod
 5834 018c 7268     		ldr	r2, [r6, #4]
 5835 018e 0436     		adds	r6, r6, #4
 5836 0190 002A     		cmp	r2, #0
 5837 0192 62D0     		beq	.L1600
 5838 0194 039B     		ldr	r3, [sp, #12]
 5839 0196 04E0     		b	.L1602
 5840              	.L1668:
 5841 0198 801A     		subs	r0, r0, r2
 5842 019a 56F8082F 		ldr	r2, [r6, #8]!
 5843 019e 002A     		cmp	r2, #0
 5844 01a0 5BD0     		beq	.L1600
 5845              	.L1602:
 5846 01a2 8242     		cmp	r2, r0
 5847 01a4 F8D9     		bls	.L1668
 5848 01a6 7268     		ldr	r2, [r6, #4]
 5849 01a8 1044     		add	r0, r0, r2
 5850 01aa 0BE0     		b	.L1598
 5851              	.L1606:
 5852 01ac 0225     		movs	r5, #2
 5853 01ae 84F83150 		strb	r5, [r4, #49]
 5854 01b2 DAF81400 		ldr	r0, [r10, #20]
 5855 01b6 FFF7FEFF 		bl	ff_rel_grant
 5856 01ba 2846     		mov	r0, r5
 5857 01bc 07B0     		add	sp, sp, #28
 5858              		@ sp needed
 5859 01be BDE8F08F 		pop	{r4, r5, r6, r7, r8, r9, r10, fp, pc}
 5860              	.L1667:
 5861 01c2 A068     		ldr	r0, [r4, #8]
 5862              	.L1598:
 5863 01c4 0128     		cmp	r0, #1
 5864 01c6 51D9     		bls	.L1669
ARM GAS  /tmp/cc2a13AN.s 			page 104


 5865 01c8 421C     		adds	r2, r0, #1
 5866 01ca 38D0     		beq	.L1670
 5867 01cc 2064     		str	r0, [r4, #64]
 5868 01ce 57E7     		b	.L1596
 5869              	.L1665:
 5870 01d0 059B     		ldr	r3, [sp, #20]
 5871 01d2 002B     		cmp	r3, #0
 5872 01d4 3FD0     		beq	.L1623
 5873 01d6 5869     		ldr	r0, [r3, #20]
 5874 01d8 FFF7FEFF 		bl	ff_rel_grant
 5875 01dc 0725     		movs	r5, #7
 5876 01de 7FE7     		b	.L1625
 5877              	.L1610:
 5878 01e0 94F93030 		ldrsb	r3, [r4, #48]
 5879 01e4 002B     		cmp	r3, #0
 5880 01e6 1EDB     		blt	.L1671
 5881              	.L1612:
 5882 01e8 DDF814A0 		ldr	r10, [sp, #20]
 5883 01ec 7702     		lsls	r7, r6, #9
 5884 01ee 9CE7     		b	.L1613
 5885              	.L1666:
 5886 01f0 9AF80100 		ldrb	r0, [r10, #1]	@ zero_extendqisi2
 5887 01f4 0123     		movs	r3, #1
 5888 01f6 2946     		mov	r1, r5
 5889 01f8 FFF7FEFF 		bl	disk_write
 5890 01fc 0028     		cmp	r0, #0
 5891 01fe 7FF464AF 		bne	.L1618
 5892 0202 94F83030 		ldrb	r3, [r4, #48]	@ zero_extendqisi2
 5893 0206 DDF814A0 		ldr	r10, [sp, #20]
 5894 020a 03F07F03 		and	r3, r3, #127
 5895 020e 84F83030 		strb	r3, [r4, #48]
 5896 0212 70E7     		b	.L1616
 5897              	.L1599:
 5898 0214 216C     		ldr	r1, [r4, #64]
 5899 0216 0393     		str	r3, [sp, #12]
 5900 0218 2046     		mov	r0, r4
 5901 021a FFF7FEFF 		bl	get_fat
 5902 021e DDF814A0 		ldr	r10, [sp, #20]
 5903 0222 039B     		ldr	r3, [sp, #12]
 5904 0224 CEE7     		b	.L1598
 5905              	.L1671:
 5906 0226 606C     		ldr	r0, [r4, #68]
 5907 0228 C01B     		subs	r0, r0, r7
 5908 022a B042     		cmp	r0, r6
 5909 022c DCD2     		bcs	.L1612
 5910 022e 09EB4020 		add	r0, r9, r0, lsl #9
 5911 0232 4FF40072 		mov	r2, #512
 5912 0236 2946     		mov	r1, r5
 5913 0238 FFF7FEFF 		bl	memcpy
 5914 023c D4E7     		b	.L1612
 5915              	.L1670:
 5916 023e 0123     		movs	r3, #1
 5917 0240 84F83130 		strb	r3, [r4, #49]
 5918 0244 BAF1000F 		cmp	r10, #0
 5919 0248 03D0     		beq	.L1660
 5920 024a DAF81400 		ldr	r0, [r10, #20]
 5921 024e FFF7FEFF 		bl	ff_rel_grant
ARM GAS  /tmp/cc2a13AN.s 			page 105


 5922              	.L1660:
 5923 0252 019D     		ldr	r5, [sp, #4]
 5924 0254 44E7     		b	.L1625
 5925              	.L1623:
 5926 0256 0725     		movs	r5, #7
 5927 0258 42E7     		b	.L1625
 5928              	.L1600:
 5929 025a 0223     		movs	r3, #2
 5930 025c 84F83130 		strb	r3, [r4, #49]
 5931              	.L1622:
 5932 0260 DAF81400 		ldr	r0, [r10, #20]
 5933 0264 FFF7FEFF 		bl	ff_rel_grant
 5934 0268 0225     		movs	r5, #2
 5935 026a 39E7     		b	.L1625
 5936              	.L1669:
 5937 026c 0225     		movs	r5, #2
 5938 026e 84F83150 		strb	r5, [r4, #49]
 5939 0272 BAF1000F 		cmp	r10, #0
 5940 0276 3FF433AF 		beq	.L1625
 5941 027a F1E7     		b	.L1622
 5942              		.size	f_read, .-f_read
 5943              		.section	.text.f_write,"ax",%progbits
 5944              		.align	1
 5945              		.p2align 4,,15
 5946              		.global	f_write
 5947              		.syntax unified
 5948              		.thumb
 5949              		.thumb_func
 5950              		.fpu fpv4-sp-d16
 5951              		.type	f_write, %function
 5952              	f_write:
 5953              		@ args = 0, pretend = 0, frame = 24
 5954              		@ frame_needed = 0, uses_anonymous_args = 0
 5955 0000 2DE9F04F 		push	{r4, r5, r6, r7, r8, r9, r10, fp, lr}
 5956 0004 1F46     		mov	r7, r3
 5957 0006 87B0     		sub	sp, sp, #28
 5958 0008 0023     		movs	r3, #0
 5959 000a 8946     		mov	r9, r1
 5960 000c 3B60     		str	r3, [r7]
 5961 000e 05A9     		add	r1, sp, #20
 5962 0010 0446     		mov	r4, r0
 5963 0012 1646     		mov	r6, r2
 5964 0014 FFF7FEFF 		bl	validate
 5965 0018 0028     		cmp	r0, #0
 5966 001a 40F0C180 		bne	.L1745
 5967 001e 94F83150 		ldrb	r5, [r4, #49]	@ zero_extendqisi2
 5968 0022 002D     		cmp	r5, #0
 5969 0024 40F0BD80 		bne	.L1673
 5970 0028 94F83030 		ldrb	r3, [r4, #48]	@ zero_extendqisi2
 5971 002c 9A07     		lsls	r2, r3, #30
 5972 002e 40F1EC80 		bpl	.L1754
 5973 0032 DDF814A0 		ldr	r10, [sp, #20]
 5974 0036 9AF80020 		ldrb	r2, [r10]	@ zero_extendqisi2
 5975 003a 042A     		cmp	r2, #4
 5976 003c 03D0     		beq	.L1677
 5977 003e A26B     		ldr	r2, [r4, #56]
 5978 0040 F242     		cmn	r2, r6
ARM GAS  /tmp/cc2a13AN.s 			page 106


 5979 0042 28BF     		it	cs
 5980 0044 D643     		mvncs	r6, r2
 5981              	.L1677:
 5982 0046 002E     		cmp	r6, #0
 5983 0048 00F01181 		beq	.L1678
 5984 004c D4E90E3C 		ldrd	r3, ip, [r4, #56]
 5985 0050 04F1540B 		add	fp, r4, #84
 5986 0054 0195     		str	r5, [sp, #4]
 5987              	.L1708:
 5988 0056 C3F30800 		ubfx	r0, r3, #0, #9
 5989 005a 0028     		cmp	r0, #0
 5990 005c 65D1     		bne	.L1680
 5991 005e BAF80A80 		ldrh	r8, [r10, #10]
 5992 0062 580A     		lsrs	r0, r3, #9
 5993 0064 08F1FF38 		add	r8, r8, #-1
 5994 0068 40EACC50 		orr	r0, r0, ip, lsl #23
 5995 006c 18EA0008 		ands	r8, r8, r0
 5996 0070 4FEA5C21 		lsr	r1, ip, #9
 5997 0074 11D1     		bne	.L1681
 5998 0076 53EA0C03 		orrs	r3, r3, ip
 5999 007a 40F0AD80 		bne	.L1682
 6000 007e A168     		ldr	r1, [r4, #8]
 6001 0080 0029     		cmp	r1, #0
 6002 0082 00F0E780 		beq	.L1747
 6003              	.L1683:
 6004 0086 0129     		cmp	r1, #1
 6005 0088 00F01781 		beq	.L1755
 6006 008c 4B1C     		adds	r3, r1, #1
 6007 008e 00F01C81 		beq	.L1756
 6008 0092 A368     		ldr	r3, [r4, #8]
 6009 0094 2164     		str	r1, [r4, #64]
 6010 0096 03B9     		cbnz	r3, .L1681
 6011 0098 A160     		str	r1, [r4, #8]
 6012              	.L1681:
 6013 009a 94F93030 		ldrsb	r3, [r4, #48]
 6014 009e 002B     		cmp	r3, #0
 6015 00a0 C0F2C480 		blt	.L1757
 6016              	.L1693:
 6017 00a4 226C     		ldr	r2, [r4, #64]
 6018 00a6 DAF83030 		ldr	r3, [r10, #48]
 6019 00aa 023A     		subs	r2, r2, #2
 6020 00ac 023B     		subs	r3, r3, #2
 6021 00ae 9A42     		cmp	r2, r3
 6022 00b0 80F08780 		bcs	.L1696
 6023 00b4 BAF80A00 		ldrh	r0, [r10, #10]
 6024 00b8 DAF84410 		ldr	r1, [r10, #68]
 6025 00bc 00FB0212 		mla	r2, r0, r2, r1
 6026 00c0 002A     		cmp	r2, #0
 6027 00c2 7ED0     		beq	.L1696
 6028 00c4 B6F5007F 		cmp	r6, #512
 6029 00c8 4244     		add	r2, r2, r8
 6030 00ca 1ED3     		bcc	.L1698
 6031 00cc 08EB5621 		add	r1, r8, r6, lsr #9
 6032 00d0 8142     		cmp	r1, r0
 6033 00d2 4FEA5623 		lsr	r3, r6, #9
 6034 00d6 4946     		mov	r1, r9
 6035 00d8 88BF     		it	hi
ARM GAS  /tmp/cc2a13AN.s 			page 107


 6036 00da A0EB0803 		subhi	r3, r0, r8
 6037 00de 9AF80100 		ldrb	r0, [r10, #1]	@ zero_extendqisi2
 6038 00e2 CDE90223 		strd	r2, r3, [sp, #8]
 6039 00e6 FFF7FEFF 		bl	disk_write
 6040 00ea DDE90223 		ldrd	r2, r3, [sp, #8]
 6041 00ee 0028     		cmp	r0, #0
 6042 00f0 00F09380 		beq	.L1700
 6043              	.L1706:
 6044 00f4 059B     		ldr	r3, [sp, #20]
 6045 00f6 0125     		movs	r5, #1
 6046 00f8 84F83150 		strb	r5, [r4, #49]
 6047 00fc 002B     		cmp	r3, #0
 6048 00fe 59D1     		bne	.L1751
 6049              	.L1695:
 6050 0100 0125     		movs	r5, #1
 6051              	.L1712:
 6052 0102 2846     		mov	r0, r5
 6053 0104 07B0     		add	sp, sp, #28
 6054              		@ sp needed
 6055 0106 BDE8F08F 		pop	{r4, r5, r6, r7, r8, r9, r10, fp, pc}
 6056              	.L1698:
 6057 010a 636C     		ldr	r3, [r4, #68]
 6058 010c 9342     		cmp	r3, r2
 6059 010e A36B     		ldr	r3, [r4, #56]
 6060 0110 08D0     		beq	.L1705
 6061 0112 2069     		ldr	r0, [r4, #16]
 6062 0114 D4F83CC0 		ldr	ip, [r4, #60]
 6063 0118 6169     		ldr	r1, [r4, #20]
 6064 011a 8342     		cmp	r3, r0
 6065 011c 7CEB0101 		sbcs	r1, ip, r1
 6066 0120 C0F0AA80 		bcc	.L1758
 6067              	.L1705:
 6068 0124 6264     		str	r2, [r4, #68]
 6069 0126 C3F30800 		ubfx	r0, r3, #0, #9
 6070              	.L1680:
 6071 012a C0F50078 		rsb	r8, r0, #512
 6072 012e B045     		cmp	r8, r6
 6073 0130 28BF     		it	cs
 6074 0132 B046     		movcs	r8, r6
 6075 0134 5844     		add	r0, r0, fp
 6076 0136 4246     		mov	r2, r8
 6077 0138 4946     		mov	r1, r9
 6078 013a FFF7FEFF 		bl	memcpy
 6079 013e 94F83030 		ldrb	r3, [r4, #48]	@ zero_extendqisi2
 6080 0142 63F07F03 		orn	r3, r3, #127
 6081 0146 84F83030 		strb	r3, [r4, #48]
 6082              	.L1702:
 6083 014a 3A68     		ldr	r2, [r7]
 6084 014c A36B     		ldr	r3, [r4, #56]
 6085 014e 4244     		add	r2, r2, r8
 6086 0150 3A60     		str	r2, [r7]
 6087 0152 E26B     		ldr	r2, [r4, #60]
 6088 0154 18EB0303 		adds	r3, r8, r3
 6089 0158 42F1000C 		adc	ip, r2, #0
 6090 015c D4E90412 		ldrd	r1, r2, [r4, #16]
 6091 0160 9942     		cmp	r1, r3
 6092 0162 72EB0C00 		sbcs	r0, r2, ip
ARM GAS  /tmp/cc2a13AN.s 			page 108


 6093 0166 3CBF     		itt	cc
 6094 0168 1946     		movcc	r1, r3
 6095 016a 6246     		movcc	r2, ip
 6096 016c A6EB0806 		sub	r6, r6, r8
 6097 0170 C4E90412 		strd	r1, r2, [r4, #16]
 6098 0174 C144     		add	r9, r9, r8
 6099 0176 A363     		str	r3, [r4, #56]
 6100 0178 C4F83CC0 		str	ip, [r4, #60]
 6101 017c 002E     		cmp	r6, #0
 6102 017e 7FF46AAF 		bne	.L1708
 6103              	.L1748:
 6104 0182 94F83030 		ldrb	r3, [r4, #48]	@ zero_extendqisi2
 6105 0186 019D     		ldr	r5, [sp, #4]
 6106 0188 43F04003 		orr	r3, r3, #64
 6107 018c 84F83030 		strb	r3, [r4, #48]
 6108 0190 BAF1000F 		cmp	r10, #0
 6109 0194 B5D0     		beq	.L1712
 6110              	.L1709:
 6111 0196 DAF81400 		ldr	r0, [r10, #20]
 6112 019a FFF7FEFF 		bl	ff_rel_grant
 6113 019e B0E7     		b	.L1712
 6114              	.L1745:
 6115 01a0 0546     		mov	r5, r0
 6116              	.L1673:
 6117 01a2 059B     		ldr	r3, [sp, #20]
 6118 01a4 002B     		cmp	r3, #0
 6119 01a6 ACD0     		beq	.L1712
 6120 01a8 0C2D     		cmp	r5, #12
 6121 01aa AAD0     		beq	.L1712
 6122 01ac 0B2D     		cmp	r5, #11
 6123 01ae A8D0     		beq	.L1712
 6124 01b0 0F2D     		cmp	r5, #15
 6125 01b2 A6D0     		beq	.L1712
 6126              	.L1751:
 6127 01b4 5869     		ldr	r0, [r3, #20]
 6128 01b6 FFF7FEFF 		bl	ff_rel_grant
 6129 01ba 2846     		mov	r0, r5
 6130 01bc 07B0     		add	sp, sp, #28
 6131              		@ sp needed
 6132 01be BDE8F08F 		pop	{r4, r5, r6, r7, r8, r9, r10, fp, pc}
 6133              	.L1696:
 6134 01c2 0225     		movs	r5, #2
 6135 01c4 84F83150 		strb	r5, [r4, #49]
 6136 01c8 DAF81400 		ldr	r0, [r10, #20]
 6137 01cc FFF7FEFF 		bl	ff_rel_grant
 6138 01d0 2846     		mov	r0, r5
 6139 01d2 07B0     		add	sp, sp, #28
 6140              		@ sp needed
 6141 01d4 BDE8F08F 		pop	{r4, r5, r6, r7, r8, r9, r10, fp, pc}
 6142              	.L1682:
 6143 01d8 256D     		ldr	r5, [r4, #80]
 6144 01da 002D     		cmp	r5, #0
 6145 01dc 39D0     		beq	.L1685
 6146 01de 2368     		ldr	r3, [r4]
 6147 01e0 5A89     		ldrh	r2, [r3, #10]
 6148 01e2 4346     		mov	r3, r8
 6149 01e4 FFF7FEFF 		bl	__aeabi_uldivmod
ARM GAS  /tmp/cc2a13AN.s 			page 109


 6150 01e8 6B68     		ldr	r3, [r5, #4]
 6151 01ea 2A1D     		adds	r2, r5, #4
 6152 01ec 2BB9     		cbnz	r3, .L1688
 6153 01ee 3BE0     		b	.L1749
 6154              	.L1759:
 6155 01f0 C01A     		subs	r0, r0, r3
 6156 01f2 52F8083F 		ldr	r3, [r2, #8]!
 6157 01f6 002B     		cmp	r3, #0
 6158 01f8 36D0     		beq	.L1749
 6159              	.L1688:
 6160 01fa 9842     		cmp	r0, r3
 6161 01fc F8D2     		bcs	.L1759
 6162 01fe 5168     		ldr	r1, [r2, #4]
 6163 0200 0144     		add	r1, r1, r0
 6164 0202 0029     		cmp	r1, #0
 6165 0204 7FF43FAF 		bne	.L1683
 6166 0208 BBE7     		b	.L1748
 6167              	.L1754:
 6168 020a 059B     		ldr	r3, [sp, #20]
 6169 020c 002B     		cmp	r3, #0
 6170 020e 52D0     		beq	.L1710
 6171 0210 5869     		ldr	r0, [r3, #20]
 6172 0212 FFF7FEFF 		bl	ff_rel_grant
 6173 0216 0725     		movs	r5, #7
 6174 0218 73E7     		b	.L1712
 6175              	.L1700:
 6176 021a 616C     		ldr	r1, [r4, #68]
 6177 021c 891A     		subs	r1, r1, r2
 6178 021e 9942     		cmp	r1, r3
 6179 0220 39D3     		bcc	.L1760
 6180              	.L1701:
 6181 0222 DDF814A0 		ldr	r10, [sp, #20]
 6182 0226 4FEA4328 		lsl	r8, r3, #9
 6183 022a 8EE7     		b	.L1702
 6184              	.L1757:
 6185 022c 9AF80100 		ldrb	r0, [r10, #1]	@ zero_extendqisi2
 6186 0230 626C     		ldr	r2, [r4, #68]
 6187 0232 0123     		movs	r3, #1
 6188 0234 5946     		mov	r1, fp
 6189 0236 FFF7FEFF 		bl	disk_write
 6190 023a 0028     		cmp	r0, #0
 6191 023c 7FF45AAF 		bne	.L1706
 6192 0240 94F83030 		ldrb	r3, [r4, #48]	@ zero_extendqisi2
 6193 0244 DDF814A0 		ldr	r10, [sp, #20]
 6194 0248 03F07F03 		and	r3, r3, #127
 6195 024c 84F83030 		strb	r3, [r4, #48]
 6196 0250 28E7     		b	.L1693
 6197              	.L1685:
 6198 0252 216C     		ldr	r1, [r4, #64]
 6199              	.L1747:
 6200 0254 2046     		mov	r0, r4
 6201 0256 FFF7FEFF 		bl	create_chain
 6202 025a 0146     		mov	r1, r0
 6203 025c DDF814A0 		ldr	r10, [sp, #20]
 6204 0260 0029     		cmp	r1, #0
 6205 0262 7FF410AF 		bne	.L1683
 6206 0266 8CE7     		b	.L1748
ARM GAS  /tmp/cc2a13AN.s 			page 110


 6207              	.L1749:
 6208 0268 019D     		ldr	r5, [sp, #4]
 6209 026a 94F83030 		ldrb	r3, [r4, #48]	@ zero_extendqisi2
 6210              	.L1678:
 6211 026e 43F04003 		orr	r3, r3, #64
 6212 0272 84F83030 		strb	r3, [r4, #48]
 6213 0276 8EE7     		b	.L1709
 6214              	.L1758:
 6215 0278 9AF80100 		ldrb	r0, [r10, #1]	@ zero_extendqisi2
 6216 027c 0292     		str	r2, [sp, #8]
 6217 027e 0123     		movs	r3, #1
 6218 0280 5946     		mov	r1, fp
 6219 0282 FFF7FEFF 		bl	disk_read
 6220 0286 0028     		cmp	r0, #0
 6221 0288 7FF434AF 		bne	.L1706
 6222 028c A36B     		ldr	r3, [r4, #56]
 6223 028e DDF814A0 		ldr	r10, [sp, #20]
 6224 0292 029A     		ldr	r2, [sp, #8]
 6225 0294 46E7     		b	.L1705
 6226              	.L1760:
 6227 0296 4FF40072 		mov	r2, #512
 6228 029a 09EB4121 		add	r1, r9, r1, lsl #9
 6229 029e 5846     		mov	r0, fp
 6230 02a0 0293     		str	r3, [sp, #8]
 6231 02a2 FFF7FEFF 		bl	memcpy
 6232 02a6 94F83020 		ldrb	r2, [r4, #48]	@ zero_extendqisi2
 6233 02aa 029B     		ldr	r3, [sp, #8]
 6234 02ac 02F07F02 		and	r2, r2, #127
 6235 02b0 84F83020 		strb	r2, [r4, #48]
 6236 02b4 B5E7     		b	.L1701
 6237              	.L1710:
 6238 02b6 0725     		movs	r5, #7
 6239 02b8 23E7     		b	.L1712
 6240              	.L1755:
 6241 02ba 0225     		movs	r5, #2
 6242 02bc 84F83150 		strb	r5, [r4, #49]
 6243 02c0 BAF1000F 		cmp	r10, #0
 6244 02c4 7FF467AF 		bne	.L1709
 6245 02c8 1BE7     		b	.L1712
 6246              	.L1756:
 6247 02ca 0125     		movs	r5, #1
 6248 02cc 84F83150 		strb	r5, [r4, #49]
 6249 02d0 BAF1000F 		cmp	r10, #0
 6250 02d4 7FF45FAF 		bne	.L1709
 6251 02d8 12E7     		b	.L1695
 6252              		.size	f_write, .-f_write
 6253 02da 00BF     		.section	.text.f_sync,"ax",%progbits
 6254              		.align	1
 6255              		.p2align 4,,15
 6256              		.global	f_sync
 6257              		.syntax unified
 6258              		.thumb
 6259              		.thumb_func
 6260              		.fpu fpv4-sp-d16
 6261              		.type	f_sync, %function
 6262              	f_sync:
 6263              		@ args = 0, pretend = 0, frame = 1216
ARM GAS  /tmp/cc2a13AN.s 			page 111


 6264              		@ frame_needed = 0, uses_anonymous_args = 0
 6265 0000 2DE9F041 		push	{r4, r5, r6, r7, r8, lr}
 6266 0004 ADF5986D 		sub	sp, sp, #1216
 6267 0008 01A9     		add	r1, sp, #4
 6268 000a 0546     		mov	r5, r0
 6269 000c FFF7FEFF 		bl	validate
 6270 0010 0446     		mov	r4, r0
 6271 0012 0028     		cmp	r0, #0
 6272 0014 41D1     		bne	.L1762
 6273 0016 95F83030 		ldrb	r3, [r5, #48]	@ zero_extendqisi2
 6274 001a 13F04004 		ands	r4, r3, #64
 6275 001e 4AD1     		bne	.L1763
 6276 0020 019B     		ldr	r3, [sp, #4]
 6277 0022 13B1     		cbz	r3, .L1765
 6278              	.L1764:
 6279 0024 5869     		ldr	r0, [r3, #20]
 6280 0026 FFF7FEFF 		bl	ff_rel_grant
 6281              	.L1765:
 6282 002a 2046     		mov	r0, r4
 6283 002c 0DF5986D 		add	sp, sp, #1216
 6284              		@ sp needed
 6285 0030 BDE8F081 		pop	{r4, r5, r6, r7, r8, pc}
 6286              	.L1807:
 6287 0034 C7F84C80 		str	r8, [r7, #76]
 6288 0038 019F     		ldr	r7, [sp, #4]
 6289              	.L1774:
 6290 003a EA6C     		ldr	r2, [r5, #76]
 6291 003c D37A     		ldrb	r3, [r2, #11]	@ zero_extendqisi2
 6292 003e 43F02003 		orr	r3, r3, #32
 6293 0042 D372     		strb	r3, [r2, #11]
 6294 0044 AB68     		ldr	r3, [r5, #8]
 6295 0046 2968     		ldr	r1, [r5]
 6296 0048 9376     		strb	r3, [r2, #26]
 6297 004a C3F30720 		ubfx	r0, r3, #8, #8
 6298 004e D076     		strb	r0, [r2, #27]
 6299 0050 0978     		ldrb	r1, [r1]	@ zero_extendqisi2
 6300 0052 0329     		cmp	r1, #3
 6301 0054 03D1     		bne	.L1780
 6302 0056 1B0C     		lsrs	r3, r3, #16
 6303 0058 1375     		strb	r3, [r2, #20]
 6304 005a 1B0A     		lsrs	r3, r3, #8
 6305 005c 5375     		strb	r3, [r2, #21]
 6306              	.L1780:
 6307 005e 2B69     		ldr	r3, [r5, #16]
 6308 0060 1377     		strb	r3, [r2, #28]
 6309 0062 190A     		lsrs	r1, r3, #8
 6310 0064 5177     		strb	r1, [r2, #29]
 6311 0066 190C     		lsrs	r1, r3, #16
 6312 0068 1B0E     		lsrs	r3, r3, #24
 6313 006a D377     		strb	r3, [r2, #31]
 6314 006c 0023     		movs	r3, #0
 6315 006e 9374     		strb	r3, [r2, #18]
 6316 0070 D374     		strb	r3, [r2, #19]
 6317 0072 330A     		lsrs	r3, r6, #8
 6318 0074 D375     		strb	r3, [r2, #23]
 6319 0076 330C     		lsrs	r3, r6, #16
 6320 0078 9675     		strb	r6, [r2, #22]
ARM GAS  /tmp/cc2a13AN.s 			page 112


 6321 007a 1376     		strb	r3, [r2, #24]
 6322 007c 360E     		lsrs	r6, r6, #24
 6323 007e 0123     		movs	r3, #1
 6324 0080 9177     		strb	r1, [r2, #30]
 6325 0082 5676     		strb	r6, [r2, #25]
 6326 0084 3846     		mov	r0, r7
 6327 0086 FB70     		strb	r3, [r7, #3]
 6328              	.L1802:
 6329 0088 FFF7FEFF 		bl	sync_fs
 6330 008c 95F83030 		ldrb	r3, [r5, #48]	@ zero_extendqisi2
 6331 0090 23F04003 		bic	r3, r3, #64
 6332 0094 0446     		mov	r4, r0
 6333 0096 85F83030 		strb	r3, [r5, #48]
 6334              	.L1762:
 6335 009a 019B     		ldr	r3, [sp, #4]
 6336 009c 002B     		cmp	r3, #0
 6337 009e C4D0     		beq	.L1765
 6338 00a0 0C2C     		cmp	r4, #12
 6339 00a2 C2D0     		beq	.L1765
 6340 00a4 0B2C     		cmp	r4, #11
 6341 00a6 C0D0     		beq	.L1765
 6342 00a8 0F2C     		cmp	r4, #15
 6343 00aa BBD1     		bne	.L1764
 6344 00ac 2046     		mov	r0, r4
 6345 00ae 0DF5986D 		add	sp, sp, #1216
 6346              		@ sp needed
 6347 00b2 BDE8F081 		pop	{r4, r5, r6, r7, r8, pc}
 6348              	.L1763:
 6349 00b6 1B06     		lsls	r3, r3, #24
 6350 00b8 21D4     		bmi	.L1805
 6351              	.L1766:
 6352 00ba FFF7FEFF 		bl	get_fattime
 6353 00be 019F     		ldr	r7, [sp, #4]
 6354 00c0 3B78     		ldrb	r3, [r7]	@ zero_extendqisi2
 6355 00c2 042B     		cmp	r3, #4
 6356 00c4 0646     		mov	r6, r0
 6357 00c6 2CD0     		beq	.L1806
 6358 00c8 D5F84880 		ldr	r8, [r5, #72]
 6359 00cc FB6C     		ldr	r3, [r7, #76]
 6360 00ce 9845     		cmp	r8, r3
 6361 00d0 B3D0     		beq	.L1774
 6362 00d2 FB78     		ldrb	r3, [r7, #3]	@ zero_extendqisi2
 6363 00d4 002B     		cmp	r3, #0
 6364 00d6 40F0C280 		bne	.L1775
 6365              	.L1778:
 6366 00da 7878     		ldrb	r0, [r7, #1]	@ zero_extendqisi2
 6367 00dc 0123     		movs	r3, #1
 6368 00de 4246     		mov	r2, r8
 6369 00e0 07F15001 		add	r1, r7, #80
 6370 00e4 FFF7FEFF 		bl	disk_read
 6371 00e8 0028     		cmp	r0, #0
 6372 00ea A3D0     		beq	.L1807
 6373 00ec 019B     		ldr	r3, [sp, #4]
 6374 00ee 4FF0FF32 		mov	r2, #-1
 6375 00f2 FA64     		str	r2, [r7, #76]
 6376 00f4 002B     		cmp	r3, #0
 6377 00f6 00F0B080 		beq	.L1803
ARM GAS  /tmp/cc2a13AN.s 			page 113


 6378 00fa 0124     		movs	r4, #1
 6379 00fc 92E7     		b	.L1764
 6380              	.L1805:
 6381 00fe 019B     		ldr	r3, [sp, #4]
 6382 0100 6A6C     		ldr	r2, [r5, #68]
 6383 0102 5878     		ldrb	r0, [r3, #1]	@ zero_extendqisi2
 6384 0104 05F15401 		add	r1, r5, #84
 6385 0108 0123     		movs	r3, #1
 6386 010a FFF7FEFF 		bl	disk_write
 6387 010e 0028     		cmp	r0, #0
 6388 0110 40F09E80 		bne	.L1808
 6389 0114 95F83030 		ldrb	r3, [r5, #48]	@ zero_extendqisi2
 6390 0118 03F07F03 		and	r3, r3, #127
 6391 011c 85F83030 		strb	r3, [r5, #48]
 6392 0120 CBE7     		b	.L1766
 6393              	.L1806:
 6394 0122 EB79     		ldrb	r3, [r5, #7]	@ zero_extendqisi2
 6395 0124 032B     		cmp	r3, #3
 6396 0126 00F0A280 		beq	.L1770
 6397              	.L1772:
 6398 012a 296C     		ldr	r1, [r5, #64]
 6399 012c 4FF0FF32 		mov	r2, #-1
 6400 0130 2846     		mov	r0, r5
 6401 0132 FFF7FEFF 		bl	fill_last_frag
 6402 0136 0446     		mov	r4, r0
 6403 0138 0028     		cmp	r0, #0
 6404 013a AED1     		bne	.L1762
 6405 013c D5E90931 		ldrd	r3, r1, [r5, #36]
 6406 0140 019A     		ldr	r2, [sp, #4]
 6407 0142 8DF80F30 		strb	r3, [sp, #15]
 6408 0146 18A8     		add	r0, sp, #96
 6409 0148 D060     		str	r0, [r2, #12]
 6410 014a 23F0FF03 		bic	r3, r3, #255
 6411 014e 98A8     		add	r0, sp, #608
 6412 0150 1061     		str	r0, [r2, #16]
 6413 0152 CDE90634 		strd	r3, r4, [sp, #24]
 6414 0156 2B68     		ldr	r3, [r5]
 6415 0158 0293     		str	r3, [sp, #8]
 6416 015a 02A8     		add	r0, sp, #8
 6417 015c 2B6A     		ldr	r3, [r5, #32]
 6418 015e 0994     		str	r4, [sp, #36]
 6419 0160 1591     		str	r1, [sp, #84]
 6420 0162 0493     		str	r3, [sp, #16]
 6421 0164 FFF7FEFF 		bl	dir_sdi
 6422 0168 0446     		mov	r4, r0
 6423 016a 0028     		cmp	r0, #0
 6424 016c 95D1     		bne	.L1762
 6425 016e 02A8     		add	r0, sp, #8
 6426 0170 FFF7FEFF 		bl	load_xdir
 6427 0174 0446     		mov	r4, r0
 6428 0176 0028     		cmp	r0, #0
 6429 0178 8FD1     		bne	.L1762
 6430 017a 019B     		ldr	r3, [sp, #4]
 6431 017c 1969     		ldr	r1, [r3, #16]
 6432 017e 0A79     		ldrb	r2, [r1, #4]	@ zero_extendqisi2
 6433 0180 42F02002 		orr	r2, r2, #32
 6434 0184 0A71     		strb	r2, [r1, #4]
ARM GAS  /tmp/cc2a13AN.s 			page 114


 6435 0186 E979     		ldrb	r1, [r5, #7]	@ zero_extendqisi2
 6436 0188 1A69     		ldr	r2, [r3, #16]
 6437 018a 41F00101 		orr	r1, r1, #1
 6438 018e 82F82110 		strb	r1, [r2, #33]
 6439 0192 AA68     		ldr	r2, [r5, #8]
 6440 0194 1969     		ldr	r1, [r3, #16]
 6441 0196 170A     		lsrs	r7, r2, #8
 6442 0198 81F83420 		strb	r2, [r1, #52]
 6443 019c 81F83570 		strb	r7, [r1, #53]
 6444 01a0 170C     		lsrs	r7, r2, #16
 6445 01a2 120E     		lsrs	r2, r2, #24
 6446 01a4 81F83670 		strb	r7, [r1, #54]
 6447 01a8 81F83720 		strb	r2, [r1, #55]
 6448 01ac D5E90471 		ldrd	r7, r1, [r5, #16]
 6449 01b0 1A69     		ldr	r2, [r3, #16]
 6450 01b2 4FEA1728 		lsr	r8, r7, #8
 6451 01b6 82F83870 		strb	r7, [r2, #56]
 6452 01ba 82F83980 		strb	r8, [r2, #57]
 6453 01be 4FEA1748 		lsr	r8, r7, #16
 6454 01c2 3F0E     		lsrs	r7, r7, #24
 6455 01c4 82F83B70 		strb	r7, [r2, #59]
 6456 01c8 0F0A     		lsrs	r7, r1, #8
 6457 01ca 82F83C10 		strb	r1, [r2, #60]
 6458 01ce 82F83D70 		strb	r7, [r2, #61]
 6459 01d2 0F0C     		lsrs	r7, r1, #16
 6460 01d4 090E     		lsrs	r1, r1, #24
 6461 01d6 82F83A80 		strb	r8, [r2, #58]
 6462 01da 82F83E70 		strb	r7, [r2, #62]
 6463 01de 82F83F10 		strb	r1, [r2, #63]
 6464 01e2 D5E90471 		ldrd	r7, r1, [r5, #16]
 6465 01e6 1A69     		ldr	r2, [r3, #16]
 6466 01e8 4FEA1728 		lsr	r8, r7, #8
 6467 01ec 82F82870 		strb	r7, [r2, #40]
 6468 01f0 82F82980 		strb	r8, [r2, #41]
 6469 01f4 4FEA1748 		lsr	r8, r7, #16
 6470 01f8 3F0E     		lsrs	r7, r7, #24
 6471 01fa 82F82B70 		strb	r7, [r2, #43]
 6472 01fe 0F0A     		lsrs	r7, r1, #8
 6473 0200 82F82C10 		strb	r1, [r2, #44]
 6474 0204 82F82A80 		strb	r8, [r2, #42]
 6475 0208 82F82D70 		strb	r7, [r2, #45]
 6476 020c 0F0C     		lsrs	r7, r1, #16
 6477 020e 090E     		lsrs	r1, r1, #24
 6478 0210 82F82E70 		strb	r7, [r2, #46]
 6479 0214 82F82F10 		strb	r1, [r2, #47]
 6480 0218 1A69     		ldr	r2, [r3, #16]
 6481 021a 4FEA162E 		lsr	lr, r6, #8
 6482 021e 1673     		strb	r6, [r2, #12]
 6483 0220 4FEA164C 		lsr	ip, r6, #16
 6484 0224 360E     		lsrs	r6, r6, #24
 6485 0226 82F80DE0 		strb	lr, [r2, #13]
 6486 022a 82F80EC0 		strb	ip, [r2, #14]
 6487 022e D673     		strb	r6, [r2, #15]
 6488 0230 1A69     		ldr	r2, [r3, #16]
 6489 0232 5475     		strb	r4, [r2, #21]
 6490 0234 1B69     		ldr	r3, [r3, #16]
 6491 0236 02A8     		add	r0, sp, #8
ARM GAS  /tmp/cc2a13AN.s 			page 115


 6492 0238 1C74     		strb	r4, [r3, #16]
 6493 023a 5C74     		strb	r4, [r3, #17]
 6494 023c 9C74     		strb	r4, [r3, #18]
 6495 023e DC74     		strb	r4, [r3, #19]
 6496 0240 FFF7FEFF 		bl	store_xdir
 6497 0244 0446     		mov	r4, r0
 6498 0246 0028     		cmp	r0, #0
 6499 0248 7FF427AF 		bne	.L1762
 6500 024c 0198     		ldr	r0, [sp, #4]
 6501 024e 1BE7     		b	.L1802
 6502              	.L1808:
 6503 0250 019B     		ldr	r3, [sp, #4]
 6504 0252 13B1     		cbz	r3, .L1803
 6505 0254 5869     		ldr	r0, [r3, #20]
 6506 0256 FFF7FEFF 		bl	ff_rel_grant
 6507              	.L1803:
 6508 025a 0124     		movs	r4, #1
 6509 025c E5E6     		b	.L1765
 6510              	.L1775:
 6511 025e 3846     		mov	r0, r7
 6512 0260 FFF7FEFF 		bl	sync_window.part.0
 6513 0264 0446     		mov	r4, r0
 6514 0266 0028     		cmp	r0, #0
 6515 0268 3FF437AF 		beq	.L1778
 6516 026c 15E7     		b	.L1762
 6517              	.L1770:
 6518 026e 2846     		mov	r0, r5
 6519 0270 FFF7FEFF 		bl	fill_first_frag.part.0
 6520 0274 0446     		mov	r4, r0
 6521 0276 0028     		cmp	r0, #0
 6522 0278 3FF457AF 		beq	.L1772
 6523 027c 0DE7     		b	.L1762
 6524              		.size	f_sync, .-f_sync
 6525 027e 00BF     		.section	.text.f_close,"ax",%progbits
 6526              		.align	1
 6527              		.p2align 4,,15
 6528              		.global	f_close
 6529              		.syntax unified
 6530              		.thumb
 6531              		.thumb_func
 6532              		.fpu fpv4-sp-d16
 6533              		.type	f_close, %function
 6534              	f_close:
 6535              		@ args = 0, pretend = 0, frame = 8
 6536              		@ frame_needed = 0, uses_anonymous_args = 0
 6537 0000 30B5     		push	{r4, r5, lr}
 6538 0002 83B0     		sub	sp, sp, #12
 6539 0004 0546     		mov	r5, r0
 6540 0006 FFF7FEFF 		bl	f_sync
 6541 000a 0446     		mov	r4, r0
 6542 000c 10B1     		cbz	r0, .L1825
 6543              	.L1810:
 6544 000e 2046     		mov	r0, r4
 6545 0010 03B0     		add	sp, sp, #12
 6546              		@ sp needed
 6547 0012 30BD     		pop	{r4, r5, pc}
 6548              	.L1825:
ARM GAS  /tmp/cc2a13AN.s 			page 116


 6549 0014 01A9     		add	r1, sp, #4
 6550 0016 2846     		mov	r0, r5
 6551 0018 FFF7FEFF 		bl	validate
 6552 001c 0446     		mov	r4, r0
 6553 001e 0028     		cmp	r0, #0
 6554 0020 F5D1     		bne	.L1810
 6555 0022 EB6A     		ldr	r3, [r5, #44]
 6556 0024 013B     		subs	r3, r3, #1
 6557 0026 092B     		cmp	r3, #9
 6558 0028 19D8     		bhi	.L1817
 6559 002a 0E49     		ldr	r1, .L1827
 6560 002c 1801     		lsls	r0, r3, #4
 6561 002e 01EB0313 		add	r3, r1, r3, lsl #4
 6562 0032 9A89     		ldrh	r2, [r3, #12]
 6563 0034 B2F5807F 		cmp	r2, #256
 6564 0038 0DD0     		beq	.L1826
 6565 003a 6AB1     		cbz	r2, .L1813
 6566 003c 013A     		subs	r2, r2, #1
 6567 003e 92B2     		uxth	r2, r2
 6568 0040 9A81     		strh	r2, [r3, #12]	@ movhi
 6569 0042 4AB1     		cbz	r2, .L1813
 6570              	.L1816:
 6571 0044 0023     		movs	r3, #0
 6572 0046 2B60     		str	r3, [r5]
 6573              	.L1811:
 6574 0048 019B     		ldr	r3, [sp, #4]
 6575 004a 002B     		cmp	r3, #0
 6576 004c DFD0     		beq	.L1810
 6577 004e 5869     		ldr	r0, [r3, #20]
 6578 0050 FFF7FEFF 		bl	ff_rel_grant
 6579 0054 DBE7     		b	.L1810
 6580              	.L1826:
 6581 0056 9C81     		strh	r4, [r3, #12]	@ movhi
 6582              	.L1813:
 6583 0058 0023     		movs	r3, #0
 6584 005a 0B50     		str	r3, [r1, r0]
 6585 005c F2E7     		b	.L1816
 6586              	.L1817:
 6587 005e 0224     		movs	r4, #2
 6588 0060 F2E7     		b	.L1811
 6589              	.L1828:
 6590 0062 00BF     		.align	2
 6591              	.L1827:
 6592 0064 00000000 		.word	.LANCHOR0
 6593              		.size	f_close, .-f_close
 6594              		.section	.text.f_chdrive,"ax",%progbits
 6595              		.align	1
 6596              		.p2align 4,,15
 6597              		.global	f_chdrive
 6598              		.syntax unified
 6599              		.thumb
 6600              		.thumb_func
 6601              		.fpu fpv4-sp-d16
 6602              		.type	f_chdrive, %function
 6603              	f_chdrive:
 6604              		@ args = 0, pretend = 0, frame = 8
 6605              		@ frame_needed = 0, uses_anonymous_args = 0
ARM GAS  /tmp/cc2a13AN.s 			page 117


 6606 0000 00B5     		push	{lr}
 6607 0002 83B0     		sub	sp, sp, #12
 6608 0004 0190     		str	r0, [sp, #4]
 6609 0006 01A8     		add	r0, sp, #4
 6610 0008 FFF7FEFF 		bl	get_ldnumber
 6611 000c 031E     		subs	r3, r0, #0
 6612 000e A5BF     		ittet	ge
 6613 0010 034A     		ldrge	r2, .L1833
 6614 0012 0020     		movge	r0, #0
 6615 0014 0B20     		movlt	r0, #11
 6616 0016 1370     		strbge	r3, [r2]
 6617 0018 03B0     		add	sp, sp, #12
 6618              		@ sp needed
 6619 001a 5DF804FB 		ldr	pc, [sp], #4
 6620              	.L1834:
 6621 001e 00BF     		.align	2
 6622              	.L1833:
 6623 0020 00000000 		.word	.LANCHOR1
 6624              		.size	f_chdrive, .-f_chdrive
 6625              		.section	.text.f_chdir,"ax",%progbits
 6626              		.align	1
 6627              		.p2align 4,,15
 6628              		.global	f_chdir
 6629              		.syntax unified
 6630              		.thumb
 6631              		.thumb_func
 6632              		.fpu fpv4-sp-d16
 6633              		.type	f_chdir, %function
 6634              	f_chdir:
 6635              		@ args = 0, pretend = 0, frame = 1224
 6636              		@ frame_needed = 0, uses_anonymous_args = 0
 6637 0000 10B5     		push	{r4, lr}
 6638 0002 ADF5996D 		sub	sp, sp, #1224
 6639 0006 0022     		movs	r2, #0
 6640 0008 0190     		str	r0, [sp, #4]
 6641 000a 03A9     		add	r1, sp, #12
 6642 000c 01A8     		add	r0, sp, #4
 6643 000e FFF7FEFF 		bl	mount_volume
 6644 0012 50B1     		cbz	r0, .L1862
 6645 0014 0446     		mov	r4, r0
 6646              	.L1836:
 6647 0016 039B     		ldr	r3, [sp, #12]
 6648 0018 1BB1     		cbz	r3, .L1844
 6649 001a 0C2C     		cmp	r4, #12
 6650 001c 01D0     		beq	.L1844
 6651 001e 0B2C     		cmp	r4, #11
 6652 0020 32D1     		bne	.L1863
 6653              	.L1844:
 6654 0022 2046     		mov	r0, r4
 6655 0024 0DF5996D 		add	sp, sp, #1224
 6656              		@ sp needed
 6657 0028 10BD     		pop	{r4, pc}
 6658              	.L1862:
 6659 002a 039B     		ldr	r3, [sp, #12]
 6660 002c 0199     		ldr	r1, [sp, #4]
 6661 002e 0493     		str	r3, [sp, #16]
 6662 0030 1AAA     		add	r2, sp, #104
ARM GAS  /tmp/cc2a13AN.s 			page 118


 6663 0032 DA60     		str	r2, [r3, #12]
 6664 0034 9AAA     		add	r2, sp, #616
 6665 0036 1A61     		str	r2, [r3, #16]
 6666 0038 04A8     		add	r0, sp, #16
 6667 003a FFF7FEFF 		bl	follow_path
 6668 003e 0446     		mov	r4, r0
 6669 0040 D8B9     		cbnz	r0, .L1837
 6670 0042 9DF95B30 		ldrsb	r3, [sp, #91]
 6671 0046 002B     		cmp	r3, #0
 6672 0048 24DB     		blt	.L1864
 6673 004a 9DF81630 		ldrb	r3, [sp, #22]	@ zero_extendqisi2
 6674 004e 13F0100F 		tst	r3, #16
 6675 0052 039B     		ldr	r3, [sp, #12]
 6676 0054 3AD0     		beq	.L1840
 6677 0056 1A78     		ldrb	r2, [r3]	@ zero_extendqisi2
 6678 0058 042A     		cmp	r2, #4
 6679 005a 28D0     		beq	.L1865
 6680 005c 1398     		ldr	r0, [sp, #76]
 6681 005e 032A     		cmp	r2, #3
 6682 0060 418B     		ldrh	r1, [r0, #26]	@ unaligned
 6683 0062 04BF     		itt	eq
 6684 0064 828A     		ldrheq	r2, [r0, #20]	@ unaligned
 6685 0066 41EA0241 		orreq	r1, r1, r2, lsl #16
 6686 006a 1962     		str	r1, [r3, #32]
 6687              	.L1843:
 6688 006c 5869     		ldr	r0, [r3, #20]
 6689 006e FFF7FEFF 		bl	ff_rel_grant
 6690 0072 2046     		mov	r0, r4
 6691 0074 0DF5996D 		add	sp, sp, #1224
 6692              		@ sp needed
 6693 0078 10BD     		pop	{r4, pc}
 6694              	.L1837:
 6695 007a 0428     		cmp	r0, #4
 6696 007c CBD1     		bne	.L1836
 6697 007e 039B     		ldr	r3, [sp, #12]
 6698 0080 0524     		movs	r4, #5
 6699 0082 002B     		cmp	r3, #0
 6700 0084 F2D1     		bne	.L1843
 6701 0086 CCE7     		b	.L1844
 6702              	.L1863:
 6703 0088 0F2C     		cmp	r4, #15
 6704 008a EFD1     		bne	.L1843
 6705 008c 2046     		mov	r0, r4
 6706 008e 0DF5996D 		add	sp, sp, #1224
 6707              		@ sp needed
 6708 0092 10BD     		pop	{r4, pc}
 6709              	.L1864:
 6710 0094 039B     		ldr	r3, [sp, #12]
 6711 0096 0699     		ldr	r1, [sp, #24]
 6712 0098 1A78     		ldrb	r2, [r3]	@ zero_extendqisi2
 6713 009a 1962     		str	r1, [r3, #32]
 6714 009c 042A     		cmp	r2, #4
 6715 009e E5D1     		bne	.L1843
 6716 00a0 DDE90C01 		ldrd	r0, r1, [sp, #48]
 6717 00a4 0E9A     		ldr	r2, [sp, #56]
 6718 00a6 DA62     		str	r2, [r3, #44]
 6719 00a8 C3E90901 		strd	r0, r1, [r3, #36]
ARM GAS  /tmp/cc2a13AN.s 			page 119


 6720 00ac DEE7     		b	.L1843
 6721              	.L1865:
 6722 00ae 1969     		ldr	r1, [r3, #16]
 6723 00b0 089A     		ldr	r2, [sp, #32]
 6724 00b2 496B     		ldr	r1, [r1, #52]	@ unaligned
 6725 00b4 9DF81700 		ldrb	r0, [sp, #23]	@ zero_extendqisi2
 6726 00b8 1962     		str	r1, [r3, #32]
 6727 00ba 0699     		ldr	r1, [sp, #24]
 6728 00bc 5962     		str	r1, [r3, #36]
 6729 00be 22F0FF02 		bic	r2, r2, #255
 6730 00c2 1799     		ldr	r1, [sp, #92]
 6731 00c4 0243     		orrs	r2, r2, r0
 6732 00c6 C3E90A21 		strd	r2, r1, [r3, #40]
 6733 00ca CFE7     		b	.L1843
 6734              	.L1840:
 6735 00cc 0524     		movs	r4, #5
 6736 00ce 002B     		cmp	r3, #0
 6737 00d0 CCD1     		bne	.L1843
 6738 00d2 A6E7     		b	.L1844
 6739              		.size	f_chdir, .-f_chdir
 6740              		.section	.text.f_lseek,"ax",%progbits
 6741              		.align	1
 6742              		.p2align 4,,15
 6743              		.global	f_lseek
 6744              		.syntax unified
 6745              		.thumb
 6746              		.thumb_func
 6747              		.fpu fpv4-sp-d16
 6748              		.type	f_lseek, %function
 6749              	f_lseek:
 6750              		@ args = 0, pretend = 0, frame = 16
 6751              		@ frame_needed = 0, uses_anonymous_args = 0
 6752 0000 2DE9F04F 		push	{r4, r5, r6, r7, r8, r9, r10, fp, lr}
 6753 0004 85B0     		sub	sp, sp, #20
 6754 0006 03A9     		add	r1, sp, #12
 6755 0008 0446     		mov	r4, r0
 6756 000a 1646     		mov	r6, r2
 6757 000c 1F46     		mov	r7, r3
 6758 000e FFF7FEFF 		bl	validate
 6759 0012 0546     		mov	r5, r0
 6760 0014 58B1     		cbz	r0, .L1987
 6761              	.L1867:
 6762 0016 039B     		ldr	r3, [sp, #12]
 6763 0018 2BB1     		cbz	r3, .L1936
 6764 001a 0C2D     		cmp	r5, #12
 6765 001c 03D0     		beq	.L1936
 6766 001e 0B2D     		cmp	r5, #11
 6767 0020 01D0     		beq	.L1936
 6768 0022 0F2D     		cmp	r5, #15
 6769 0024 29D1     		bne	.L1890
 6770              	.L1936:
 6771 0026 2846     		mov	r0, r5
 6772 0028 05B0     		add	sp, sp, #20
 6773              		@ sp needed
 6774 002a BDE8F08F 		pop	{r4, r5, r6, r7, r8, r9, r10, fp, pc}
 6775              	.L1987:
 6776 002e 94F83150 		ldrb	r5, [r4, #49]	@ zero_extendqisi2
ARM GAS  /tmp/cc2a13AN.s 			page 120


 6777 0032 002D     		cmp	r5, #0
 6778 0034 EFD1     		bne	.L1867
 6779 0036 039B     		ldr	r3, [sp, #12]
 6780 0038 1A78     		ldrb	r2, [r3]	@ zero_extendqisi2
 6781 003a 042A     		cmp	r2, #4
 6782 003c 24D0     		beq	.L1988
 6783 003e D4F85080 		ldr	r8, [r4, #80]
 6784 0042 B8F1000F 		cmp	r8, #0
 6785 0046 00F0FA80 		beq	.L1929
 6786              	.L1928:
 6787 004a B7F1FF3F 		cmp	r7, #-1
 6788 004e 08BF     		it	eq
 6789 0050 B6F1FF3F 		cmpeq	r6, #-1
 6790 0054 00F0B880 		beq	.L1989
 6791 0058 D4E90491 		ldrd	r9, r1, [r4, #16]
 6792 005c 4E45     		cmp	r6, r9
 6793 005e 77EB0103 		sbcs	r3, r7, r1
 6794 0062 3CBF     		itt	cc
 6795 0064 B146     		movcc	r9, r6
 6796 0066 3946     		movcc	r1, r7
 6797 0068 59EA0103 		orrs	r3, r9, r1
 6798 006c C4E90E91 		strd	r9, r1, [r4, #56]
 6799 0070 40F0EF80 		bne	.L1884
 6800 0074 039B     		ldr	r3, [sp, #12]
 6801              	.L1882:
 6802 0076 002B     		cmp	r3, #0
 6803 0078 D5D0     		beq	.L1936
 6804              	.L1890:
 6805 007a 5869     		ldr	r0, [r3, #20]
 6806 007c FFF7FEFF 		bl	ff_rel_grant
 6807 0080 2846     		mov	r0, r5
 6808 0082 05B0     		add	sp, sp, #20
 6809              		@ sp needed
 6810 0084 BDE8F08F 		pop	{r4, r5, r6, r7, r8, r9, r10, fp, pc}
 6811              	.L1988:
 6812 0088 216C     		ldr	r1, [r4, #64]
 6813 008a 4FF0FF32 		mov	r2, #-1
 6814 008e 2046     		mov	r0, r4
 6815 0090 FFF7FEFF 		bl	fill_last_frag
 6816 0094 0028     		cmp	r0, #0
 6817 0096 40F0DA81 		bne	.L1990
 6818 009a D4F85080 		ldr	r8, [r4, #80]
 6819 009e B8F1000F 		cmp	r8, #0
 6820 00a2 D2D1     		bne	.L1928
 6821 00a4 039B     		ldr	r3, [sp, #12]
 6822 00a6 1A78     		ldrb	r2, [r3]	@ zero_extendqisi2
 6823 00a8 042A     		cmp	r2, #4
 6824 00aa 40F0C880 		bne	.L1929
 6825              	.L1896:
 6826 00ae D4E90412 		ldrd	r1, r2, [r4, #16]
 6827 00b2 B142     		cmp	r1, r6
 6828 00b4 72EB0700 		sbcs	r0, r2, r7
 6829 00b8 07D2     		bcs	.L1898
 6830 00ba 94F83000 		ldrb	r0, [r4, #48]	@ zero_extendqisi2
 6831 00be 00F00200 		and	r0, r0, #2
 6832 00c2 0028     		cmp	r0, #0
 6833 00c4 04BF     		itt	eq
ARM GAS  /tmp/cc2a13AN.s 			page 121


 6834 00c6 0E46     		moveq	r6, r1
 6835 00c8 1746     		moveq	r7, r2
 6836              	.L1898:
 6837 00ca 0021     		movs	r1, #0
 6838 00cc 0020     		movs	r0, #0
 6839 00ce D4E90E28 		ldrd	r2, r8, [r4, #56]
 6840 00d2 C4E90E01 		strd	r0, [r4, #56]
 6841 00d6 56EA0701 		orrs	r1, r6, r7
 6842 00da CCD0     		beq	.L1882
 6843 00dc B3F80A90 		ldrh	r9, [r3, #10]
 6844 00e0 52EA0803 		orrs	r3, r2, r8
 6845 00e4 4FEA4929 		lsl	r9, r9, #9
 6846 00e8 18D0     		beq	.L1900
 6847 00ea 12F1FF3A 		adds	r10, r2, #-1
 6848 00ee 48F1FF38 		adc	r8, r8, #-1
 6849 00f2 701E     		subs	r0, r6, #1
 6850 00f4 67F10001 		sbc	r1, r7, #0
 6851 00f8 4A46     		mov	r2, r9
 6852 00fa 0023     		movs	r3, #0
 6853 00fc FFF7FEFF 		bl	__aeabi_uldivmod
 6854 0100 0023     		movs	r3, #0
 6855 0102 0090     		str	r0, [sp]
 6856 0104 8B46     		mov	fp, r1
 6857 0106 4A46     		mov	r2, r9
 6858 0108 5046     		mov	r0, r10
 6859 010a 4146     		mov	r1, r8
 6860 010c FFF7FEFF 		bl	__aeabi_uldivmod
 6861 0110 009B     		ldr	r3, [sp]
 6862 0112 8342     		cmp	r3, r0
 6863 0114 7BEB0103 		sbcs	r3, fp, r1
 6864 0118 80F02581 		bcs	.L1991
 6865              	.L1900:
 6866 011c D4F80880 		ldr	r8, [r4, #8]
 6867 0120 B8F1000F 		cmp	r8, #0
 6868 0124 00F03D81 		beq	.L1992
 6869 0128 0022     		movs	r2, #0
 6870 012a 1146     		mov	r1, r2
 6871              	.L1902:
 6872 012c C4F84080 		str	r8, [r4, #64]
 6873              	.L1901:
 6874 0130 B8F1000F 		cmp	r8, #0
 6875 0134 00F0E880 		beq	.L1982
 6876 0138 B145     		cmp	r9, r6
 6877 013a 4FF00003 		mov	r3, #0
 6878 013e BB41     		sbcs	r3, r3, r7
 6879 0140 80F08381 		bcs	.L1908
 6880 0144 0B46     		mov	r3, r1
 6881 0146 0195     		str	r5, [sp, #4]
 6882 0148 4146     		mov	r1, r8
 6883 014a 27E0     		b	.L1918
 6884              	.L1996:
 6885 014c 43F0400B 		orr	fp, r3, #64
 6886 0150 6369     		ldr	r3, [r4, #20]
 6887 0152 0093     		str	r3, [sp]
 6888 0154 2369     		ldr	r3, [r4, #16]
 6889 0156 AB42     		cmp	r3, r5
 6890 0158 009B     		ldr	r3, [sp]
ARM GAS  /tmp/cc2a13AN.s 			page 122


 6891 015a 9341     		sbcs	r3, r3, r2
 6892 015c 3CBF     		itt	cc
 6893 015e C4E90452 		strdcc	r5, r2, [r4, #16]
 6894 0162 84F830B0 		strbcc	fp, [r4, #48]
 6895 0166 FFF7FEFF 		bl	create_chain
 6896 016a 0146     		mov	r1, r0
 6897 016c 0028     		cmp	r0, #0
 6898 016e 00F0C780 		beq	.L1993
 6899              	.L1911:
 6900 0172 4B1C     		adds	r3, r1, #1
 6901 0174 00F0B480 		beq	.L1984
 6902 0178 0129     		cmp	r1, #1
 6903 017a 039B     		ldr	r3, [sp, #12]
 6904 017c 40F22081 		bls	.L1913
 6905 0180 1A6B     		ldr	r2, [r3, #48]
 6906 0182 8A42     		cmp	r2, r1
 6907 0184 40F22681 		bls	.L1994
 6908 0188 D145     		cmp	r9, r10
 6909 018a 4FF00002 		mov	r2, #0
 6910 018e 72EB0802 		sbcs	r2, r2, r8
 6911 0192 2164     		str	r1, [r4, #64]
 6912 0194 80F02281 		bcs	.L1995
 6913 0198 D4E90E23 		ldrd	r2, r3, [r4, #56]
 6914              	.L1918:
 6915 019c B6EB090A 		subs	r10, r6, r9
 6916 01a0 67F10008 		sbc	r8, r7, #0
 6917 01a4 12EB0905 		adds	r5, r2, r9
 6918 01a8 43F10002 		adc	r2, r3, #0
 6919 01ac 94F83030 		ldrb	r3, [r4, #48]	@ zero_extendqisi2
 6920 01b0 13F0020F 		tst	r3, #2
 6921 01b4 C4E90E52 		strd	r5, r2, [r4, #56]
 6922 01b8 2046     		mov	r0, r4
 6923 01ba 5646     		mov	r6, r10
 6924 01bc 4746     		mov	r7, r8
 6925 01be C5D1     		bne	.L1996
 6926 01c0 FFF7FEFF 		bl	get_fat
 6927 01c4 0146     		mov	r1, r0
 6928 01c6 D4E7     		b	.L1911
 6929              	.L1989:
 6930 01c8 4646     		mov	r6, r8
 6931 01ca A768     		ldr	r7, [r4, #8]
 6932 01cc 56F804AB 		ldr	r10, [r6], #4
 6933 01d0 4FF00209 		mov	r9, #2
 6934 01d4 BFB9     		cbnz	r7, .L1880
 6935 01d6 039B     		ldr	r3, [sp, #12]
 6936              	.L1873:
 6937 01d8 C8F80090 		str	r9, [r8]
 6938 01dc D145     		cmp	r9, r10
 6939 01de 96BF     		itet	ls
 6940 01e0 0022     		movls	r2, #0
 6941 01e2 1125     		movhi	r5, #17
 6942 01e4 3260     		strls	r2, [r6]
 6943 01e6 46E7     		b	.L1882
 6944              	.L1998:
 6945 01e8 09F10209 		add	r9, r9, #2
 6946 01ec CA45     		cmp	r10, r9
 6947 01ee 04D3     		bcc	.L1879
ARM GAS  /tmp/cc2a13AN.s 			page 123


 6948 01f0 3346     		mov	r3, r6
 6949 01f2 43F808BB 		str	fp, [r3], #8
 6950 01f6 7760     		str	r7, [r6, #4]
 6951 01f8 1E46     		mov	r6, r3
 6952              	.L1879:
 6953 01fa 039B     		ldr	r3, [sp, #12]
 6954 01fc 1A6B     		ldr	r2, [r3, #48]
 6955 01fe 8A42     		cmp	r2, r1
 6956 0200 40F22081 		bls	.L1997
 6957 0204 0F46     		mov	r7, r1
 6958              	.L1880:
 6959 0206 3946     		mov	r1, r7
 6960 0208 4FF0000B 		mov	fp, #0
 6961 020c 03E0     		b	.L1878
 6962              	.L1874:
 6963 020e 431C     		adds	r3, r0, #1
 6964 0210 66D0     		beq	.L1984
 6965 0212 8045     		cmp	r8, r0
 6966 0214 E8D1     		bne	.L1998
 6967              	.L1878:
 6968 0216 2046     		mov	r0, r4
 6969 0218 8846     		mov	r8, r1
 6970 021a FFF7FEFF 		bl	get_fat
 6971 021e 0128     		cmp	r0, #1
 6972 0220 0146     		mov	r1, r0
 6973 0222 08F10108 		add	r8, r8, #1
 6974 0226 0BF1010B 		add	fp, fp, #1
 6975 022a F0D8     		bhi	.L1874
 6976              	.L1986:
 6977 022c 039B     		ldr	r3, [sp, #12]
 6978 022e 0225     		movs	r5, #2
 6979 0230 84F83150 		strb	r5, [r4, #49]
 6980 0234 002B     		cmp	r3, #0
 6981 0236 7FF420AF 		bne	.L1890
 6982              	.L1983:
 6983 023a 0225     		movs	r5, #2
 6984 023c F3E6     		b	.L1936
 6985              	.L1929:
 6986 023e 4FF0FF31 		mov	r1, #-1
 6987 0242 0022     		movs	r2, #0
 6988 0244 B142     		cmp	r1, r6
 6989 0246 72EB0700 		sbcs	r0, r2, r7
 6990 024a 3CBF     		itt	cc
 6991 024c 0E46     		movcc	r6, r1
 6992 024e 1746     		movcc	r7, r2
 6993 0250 2DE7     		b	.L1896
 6994              	.L1884:
 6995 0252 19F1FF36 		adds	r6, r9, #-1
 6996 0256 41F1FF31 		adc	r1, r1, #-1
 6997 025a 2368     		ldr	r3, [r4]
 6998 025c 760A     		lsrs	r6, r6, #9
 6999 025e 46EAC156 		orr	r6, r6, r1, lsl #23
 7000 0262 5A89     		ldrh	r2, [r3, #10]
 7001 0264 490A     		lsrs	r1, r1, #9
 7002 0266 0023     		movs	r3, #0
 7003 0268 3046     		mov	r0, r6
 7004 026a FFF7FEFF 		bl	__aeabi_uldivmod
ARM GAS  /tmp/cc2a13AN.s 			page 124


 7005 026e D8F80430 		ldr	r3, [r8, #4]
 7006 0272 08F10408 		add	r8, r8, #4
 7007 0276 2BB9     		cbnz	r3, .L1887
 7008 0278 72E0     		b	.L1933
 7009              	.L1999:
 7010 027a C01A     		subs	r0, r0, r3
 7011 027c 58F8083F 		ldr	r3, [r8, #8]!
 7012 0280 002B     		cmp	r3, #0
 7013 0282 6DD0     		beq	.L1933
 7014              	.L1887:
 7015 0284 9842     		cmp	r0, r3
 7016 0286 F8D2     		bcs	.L1999
 7017 0288 D8F80430 		ldr	r3, [r8, #4]
 7018 028c 0344     		add	r3, r3, r0
 7019 028e 981E     		subs	r0, r3, #2
 7020              	.L1885:
 7021 0290 2364     		str	r3, [r4, #64]
 7022 0292 039B     		ldr	r3, [sp, #12]
 7023 0294 1A6B     		ldr	r2, [r3, #48]
 7024 0296 023A     		subs	r2, r2, #2
 7025 0298 8242     		cmp	r2, r0
 7026 029a 2AD9     		bls	.L1919
 7027 029c 5F89     		ldrh	r7, [r3, #10]
 7028 029e 596C     		ldr	r1, [r3, #68]
 7029 02a0 00FB0711 		mla	r1, r0, r7, r1
 7030 02a4 29B3     		cbz	r1, .L1919
 7031 02a6 C9F30802 		ubfx	r2, r9, #0, #9
 7032 02aa 002A     		cmp	r2, #0
 7033 02ac 3FF4E5AE 		beq	.L1890
 7034 02b0 013F     		subs	r7, r7, #1
 7035 02b2 626C     		ldr	r2, [r4, #68]
 7036 02b4 3E40     		ands	r6, r6, r7
 7037 02b6 0E44     		add	r6, r6, r1
 7038 02b8 B242     		cmp	r2, r6
 7039 02ba 3FF4DEAE 		beq	.L1890
 7040 02be 94F93010 		ldrsb	r1, [r4, #48]
 7041 02c2 0029     		cmp	r1, #0
 7042 02c4 04F15401 		add	r1, r4, #84
 7043 02c8 C0F2A980 		blt	.L1891
 7044              	.L1892:
 7045 02cc 5878     		ldrb	r0, [r3, #1]	@ zero_extendqisi2
 7046 02ce 3246     		mov	r2, r6
 7047 02d0 0123     		movs	r3, #1
 7048 02d2 FFF7FEFF 		bl	disk_read
 7049 02d6 039B     		ldr	r3, [sp, #12]
 7050 02d8 0546     		mov	r5, r0
 7051 02da 10B9     		cbnz	r0, .L1985
 7052 02dc 6664     		str	r6, [r4, #68]
 7053 02de CAE6     		b	.L1882
 7054              	.L1984:
 7055 02e0 039B     		ldr	r3, [sp, #12]
 7056              	.L1985:
 7057 02e2 0125     		movs	r5, #1
 7058 02e4 84F83150 		strb	r5, [r4, #49]
 7059 02e8 002B     		cmp	r3, #0
 7060 02ea 7FF4C6AE 		bne	.L1890
 7061 02ee 0125     		movs	r5, #1
ARM GAS  /tmp/cc2a13AN.s 			page 125


 7062 02f0 99E6     		b	.L1936
 7063              	.L1919:
 7064 02f2 0225     		movs	r5, #2
 7065 02f4 84F83150 		strb	r5, [r4, #49]
 7066 02f8 5869     		ldr	r0, [r3, #20]
 7067 02fa FFF7FEFF 		bl	ff_rel_grant
 7068 02fe 92E6     		b	.L1936
 7069              	.L1993:
 7070 0300 D4E90E21 		ldrd	r2, r1, [r4, #56]
 7071 0304 019D     		ldr	r5, [sp, #4]
 7072 0306 8046     		mov	r8, r0
 7073              	.L1982:
 7074 0308 039B     		ldr	r3, [sp, #12]
 7075              	.L1907:
 7076 030a D4E90460 		ldrd	r6, r0, [r4, #16]
 7077 030e 9642     		cmp	r6, r2
 7078 0310 8841     		sbcs	r0, r0, r1
 7079 0312 28BF     		it	cs
 7080 0314 C2F30802 		ubfxcs	r2, r2, #0, #9
 7081 0318 09D2     		bcs	.L1922
 7082 031a C4E90421 		strd	r2, r1, [r4, #16]
 7083 031e 94F83010 		ldrb	r1, [r4, #48]	@ zero_extendqisi2
 7084 0322 41F04001 		orr	r1, r1, #64
 7085 0326 C2F30802 		ubfx	r2, r2, #0, #9
 7086 032a 84F83010 		strb	r1, [r4, #48]
 7087              	.L1922:
 7088 032e 002A     		cmp	r2, #0
 7089 0330 3FF4A1AE 		beq	.L1882
 7090 0334 626C     		ldr	r2, [r4, #68]
 7091 0336 4245     		cmp	r2, r8
 7092 0338 3FF49DAE 		beq	.L1882
 7093 033c 94F93010 		ldrsb	r1, [r4, #48]
 7094 0340 0029     		cmp	r1, #0
 7095 0342 04F15401 		add	r1, r4, #84
 7096 0346 1CDB     		blt	.L1923
 7097              	.L1924:
 7098 0348 5878     		ldrb	r0, [r3, #1]	@ zero_extendqisi2
 7099 034a 4246     		mov	r2, r8
 7100 034c 0123     		movs	r3, #1
 7101 034e FFF7FEFF 		bl	disk_read
 7102 0352 039B     		ldr	r3, [sp, #12]
 7103 0354 0546     		mov	r5, r0
 7104 0356 0028     		cmp	r0, #0
 7105 0358 C3D1     		bne	.L1985
 7106 035a C4F84480 		str	r8, [r4, #68]
 7107 035e 8AE6     		b	.L1882
 7108              	.L1933:
 7109 0360 6FF00100 		mvn	r0, #1
 7110 0364 94E7     		b	.L1885
 7111              	.L1991:
 7112 0366 C9F10002 		rsb	r2, r9, #0
 7113 036a 02EA0A02 		and	r2, r2, r10
 7114 036e B61A     		subs	r6, r6, r2
 7115 0370 4146     		mov	r1, r8
 7116 0372 C4F83C80 		str	r8, [r4, #60]
 7117 0376 67EB0807 		sbc	r7, r7, r8
 7118 037a A263     		str	r2, [r4, #56]
ARM GAS  /tmp/cc2a13AN.s 			page 126


 7119 037c D4F84080 		ldr	r8, [r4, #64]
 7120 0380 D6E6     		b	.L1901
 7121              	.L1923:
 7122 0382 5878     		ldrb	r0, [r3, #1]	@ zero_extendqisi2
 7123 0384 0091     		str	r1, [sp]
 7124 0386 0123     		movs	r3, #1
 7125 0388 FFF7FEFF 		bl	disk_write
 7126 038c 0099     		ldr	r1, [sp]
 7127 038e 0028     		cmp	r0, #0
 7128 0390 A6D1     		bne	.L1984
 7129 0392 94F83020 		ldrb	r2, [r4, #48]	@ zero_extendqisi2
 7130 0396 039B     		ldr	r3, [sp, #12]
 7131 0398 02F07F02 		and	r2, r2, #127
 7132 039c 84F83020 		strb	r2, [r4, #48]
 7133 03a0 D2E7     		b	.L1924
 7134              	.L1992:
 7135 03a2 4146     		mov	r1, r8
 7136 03a4 2046     		mov	r0, r4
 7137 03a6 FFF7FEFF 		bl	create_chain
 7138 03aa 0128     		cmp	r0, #1
 7139 03ac 8046     		mov	r8, r0
 7140 03ae 3FF43DAF 		beq	.L1986
 7141 03b2 B0F1FF3F 		cmp	r0, #-1
 7142 03b6 93D0     		beq	.L1984
 7143 03b8 D4E90E21 		ldrd	r2, r1, [r4, #56]
 7144 03bc A060     		str	r0, [r4, #8]
 7145 03be B5E6     		b	.L1902
 7146              	.L1913:
 7147 03c0 0222     		movs	r2, #2
 7148 03c2 84F83120 		strb	r2, [r4, #49]
 7149 03c6 002B     		cmp	r3, #0
 7150 03c8 3FF437AF 		beq	.L1983
 7151              	.L1927:
 7152 03cc 5869     		ldr	r0, [r3, #20]
 7153 03ce FFF7FEFF 		bl	ff_rel_grant
 7154 03d2 32E7     		b	.L1983
 7155              	.L1994:
 7156 03d4 0222     		movs	r2, #2
 7157 03d6 84F83120 		strb	r2, [r4, #49]
 7158 03da F7E7     		b	.L1927
 7159              	.L1995:
 7160 03dc 8846     		mov	r8, r1
 7161 03de D4E90E21 		ldrd	r2, r1, [r4, #56]
 7162 03e2 019D     		ldr	r5, [sp, #4]
 7163              	.L1917:
 7164 03e4 9219     		adds	r2, r2, r6
 7165 03e6 41EB0701 		adc	r1, r1, r7
 7166 03ea C6F30800 		ubfx	r0, r6, #0, #9
 7167 03ee C4E90E21 		strd	r2, r1, [r4, #56]
 7168 03f2 28B3     		cbz	r0, .L1935
 7169 03f4 186B     		ldr	r0, [r3, #48]
 7170 03f6 A8F10208 		sub	r8, r8, #2
 7171 03fa 0238     		subs	r0, r0, #2
 7172 03fc 8045     		cmp	r8, r0
 7173 03fe BFF478AF 		bcs	.L1919
 7174 0402 B3F80AC0 		ldrh	ip, [r3, #10]
 7175 0406 586C     		ldr	r0, [r3, #68]
ARM GAS  /tmp/cc2a13AN.s 			page 127


 7176 0408 08FB0C00 		mla	r0, r8, ip, r0
 7177 040c 0028     		cmp	r0, #0
 7178 040e 3FF470AF 		beq	.L1919
 7179 0412 760A     		lsrs	r6, r6, #9
 7180 0414 46EAC756 		orr	r6, r6, r7, lsl #23
 7181 0418 00EB0608 		add	r8, r0, r6
 7182 041c 75E7     		b	.L1907
 7183              	.L1891:
 7184 041e 5878     		ldrb	r0, [r3, #1]	@ zero_extendqisi2
 7185 0420 0091     		str	r1, [sp]
 7186 0422 0123     		movs	r3, #1
 7187 0424 FFF7FEFF 		bl	disk_write
 7188 0428 0099     		ldr	r1, [sp]
 7189 042a 0028     		cmp	r0, #0
 7190 042c 7FF458AF 		bne	.L1984
 7191 0430 94F83020 		ldrb	r2, [r4, #48]	@ zero_extendqisi2
 7192 0434 039B     		ldr	r3, [sp, #12]
 7193 0436 02F07F02 		and	r2, r2, #127
 7194 043a 84F83020 		strb	r2, [r4, #48]
 7195 043e 45E7     		b	.L1892
 7196              	.L1935:
 7197 0440 8046     		mov	r8, r0
 7198 0442 62E7     		b	.L1907
 7199              	.L1997:
 7200 0444 D4F85080 		ldr	r8, [r4, #80]
 7201 0448 C6E6     		b	.L1873
 7202              	.L1908:
 7203 044a 039B     		ldr	r3, [sp, #12]
 7204 044c CAE7     		b	.L1917
 7205              	.L1990:
 7206 044e 0546     		mov	r5, r0
 7207 0450 E1E5     		b	.L1867
 7208              		.size	f_lseek, .-f_lseek
 7209 0452 00BF     		.section	.text.f_opendir,"ax",%progbits
 7210              		.align	1
 7211              		.p2align 4,,15
 7212              		.global	f_opendir
 7213              		.syntax unified
 7214              		.thumb
 7215              		.thumb_func
 7216              		.fpu fpv4-sp-d16
 7217              		.type	f_opendir, %function
 7218              	f_opendir:
 7219              		@ args = 0, pretend = 0, frame = 1136
 7220              		@ frame_needed = 0, uses_anonymous_args = 0
 7221 0000 30B5     		push	{r4, r5, lr}
 7222 0002 ADF2744D 		subw	sp, sp, #1140
 7223 0006 0191     		str	r1, [sp, #4]
 7224 0008 0028     		cmp	r0, #0
 7225 000a 53D0     		beq	.L2013
 7226 000c 0546     		mov	r5, r0
 7227 000e 0022     		movs	r2, #0
 7228 0010 03A9     		add	r1, sp, #12
 7229 0012 01A8     		add	r0, sp, #4
 7230 0014 FFF7FEFF 		bl	mount_volume
 7231 0018 0446     		mov	r4, r0
 7232 001a 48B1     		cbz	r0, .L2036
ARM GAS  /tmp/cc2a13AN.s 			page 128


 7233              	.L2002:
 7234 001c 039B     		ldr	r3, [sp, #12]
 7235 001e 0022     		movs	r2, #0
 7236 0020 2A60     		str	r2, [r5]
 7237 0022 0BB1     		cbz	r3, .L2001
 7238 0024 0C2C     		cmp	r4, #12
 7239 0026 4FD1     		bne	.L2037
 7240              	.L2001:
 7241 0028 2046     		mov	r0, r4
 7242 002a 0DF2744D 		addw	sp, sp, #1140
 7243              		@ sp needed
 7244 002e 30BD     		pop	{r4, r5, pc}
 7245              	.L2036:
 7246 0030 039B     		ldr	r3, [sp, #12]
 7247 0032 2B60     		str	r3, [r5]
 7248 0034 04AA     		add	r2, sp, #16
 7249 0036 DA60     		str	r2, [r3, #12]
 7250 0038 84AA     		add	r2, sp, #528
 7251 003a 0199     		ldr	r1, [sp, #4]
 7252 003c 1A61     		str	r2, [r3, #16]
 7253 003e 2846     		mov	r0, r5
 7254 0040 FFF7FEFF 		bl	follow_path
 7255 0044 0446     		mov	r4, r0
 7256 0046 70B1     		cbz	r0, .L2038
 7257              	.L2003:
 7258 0048 042C     		cmp	r4, #4
 7259 004a E7D1     		bne	.L2002
 7260 004c 039B     		ldr	r3, [sp, #12]
 7261 004e 0022     		movs	r2, #0
 7262 0050 2A60     		str	r2, [r5]
 7263 0052 0524     		movs	r4, #5
 7264 0054 002B     		cmp	r3, #0
 7265 0056 E7D0     		beq	.L2001
 7266              	.L2011:
 7267 0058 5869     		ldr	r0, [r3, #20]
 7268 005a FFF7FEFF 		bl	ff_rel_grant
 7269 005e 2046     		mov	r0, r4
 7270 0060 0DF2744D 		addw	sp, sp, #1140
 7271              		@ sp needed
 7272 0064 30BD     		pop	{r4, r5, pc}
 7273              	.L2038:
 7274 0066 95F94B30 		ldrsb	r3, [r5, #75]
 7275 006a 002B     		cmp	r3, #0
 7276 006c 3FDB     		blt	.L2030
 7277 006e AB79     		ldrb	r3, [r5, #6]	@ zero_extendqisi2
 7278 0070 13F0100F 		tst	r3, #16
 7279 0074 039B     		ldr	r3, [sp, #12]
 7280 0076 22D0     		beq	.L2006
 7281 0078 1A78     		ldrb	r2, [r3]	@ zero_extendqisi2
 7282 007a 042A     		cmp	r2, #4
 7283 007c 29D0     		beq	.L2039
 7284 007e E86B     		ldr	r0, [r5, #60]
 7285 0080 032A     		cmp	r2, #3
 7286 0082 418B     		ldrh	r1, [r0, #26]	@ unaligned
 7287 0084 04BF     		itt	eq
 7288 0086 828A     		ldrheq	r2, [r0, #20]	@ unaligned
 7289 0088 41EA0241 		orreq	r1, r1, r2, lsl #16
ARM GAS  /tmp/cc2a13AN.s 			page 129


 7290 008c A960     		str	r1, [r5, #8]
 7291              	.L2005:
 7292 008e DB88     		ldrh	r3, [r3, #6]
 7293 0090 AB80     		strh	r3, [r5, #4]	@ movhi
 7294 0092 0021     		movs	r1, #0
 7295 0094 2846     		mov	r0, r5
 7296 0096 FFF7FEFF 		bl	dir_sdi
 7297 009a 0446     		mov	r4, r0
 7298 009c 0028     		cmp	r0, #0
 7299 009e D3D1     		bne	.L2003
 7300 00a0 AB68     		ldr	r3, [r5, #8]
 7301 00a2 33BB     		cbnz	r3, .L2040
 7302 00a4 039B     		ldr	r3, [sp, #12]
 7303 00a6 E862     		str	r0, [r5, #44]
 7304              	.L2035:
 7305 00a8 002B     		cmp	r3, #0
 7306 00aa D5D1     		bne	.L2011
 7307              	.L2041:
 7308 00ac 2046     		mov	r0, r4
 7309 00ae 0DF2744D 		addw	sp, sp, #1140
 7310              		@ sp needed
 7311 00b2 30BD     		pop	{r4, r5, pc}
 7312              	.L2013:
 7313 00b4 0924     		movs	r4, #9
 7314 00b6 2046     		mov	r0, r4
 7315 00b8 0DF2744D 		addw	sp, sp, #1140
 7316              		@ sp needed
 7317 00bc 30BD     		pop	{r4, r5, pc}
 7318              	.L2006:
 7319 00be 2860     		str	r0, [r5]
 7320 00c0 1524     		movs	r4, #21
 7321 00c2 002B     		cmp	r3, #0
 7322 00c4 C8D1     		bne	.L2011
 7323 00c6 F1E7     		b	.L2041
 7324              	.L2037:
 7325 00c8 0B2C     		cmp	r4, #11
 7326 00ca ADD0     		beq	.L2001
 7327 00cc 0F2C     		cmp	r4, #15
 7328 00ce ABD0     		beq	.L2001
 7329 00d0 C2E7     		b	.L2011
 7330              	.L2039:
 7331 00d2 2A69     		ldr	r2, [r5, #16]
 7332 00d4 E879     		ldrb	r0, [r5, #7]	@ zero_extendqisi2
 7333 00d6 A968     		ldr	r1, [r5, #8]
 7334 00d8 2962     		str	r1, [r5, #32]
 7335 00da 22F0FF02 		bic	r2, r2, #255
 7336 00de 0243     		orrs	r2, r2, r0
 7337 00e0 1869     		ldr	r0, [r3, #16]
 7338 00e2 EB6C     		ldr	r3, [r5, #76]
 7339 00e4 6A62     		str	r2, [r5, #36]
 7340 00e6 AB62     		str	r3, [r5, #40]
 7341 00e8 2946     		mov	r1, r5
 7342 00ea FFF7FEFF 		bl	init_alloc_info.isra.0
 7343              	.L2030:
 7344 00ee 039B     		ldr	r3, [sp, #12]
 7345 00f0 CDE7     		b	.L2005
 7346              	.L2040:
ARM GAS  /tmp/cc2a13AN.s 			page 130


 7347 00f2 0146     		mov	r1, r0
 7348 00f4 2846     		mov	r0, r5
 7349 00f6 FFF7FEFF 		bl	inc_lock
 7350 00fa 039B     		ldr	r3, [sp, #12]
 7351 00fc E862     		str	r0, [r5, #44]
 7352 00fe 0028     		cmp	r0, #0
 7353 0100 D2D1     		bne	.L2035
 7354 0102 2C60     		str	r4, [r5]
 7355 0104 1224     		movs	r4, #18
 7356 0106 002B     		cmp	r3, #0
 7357 0108 A6D1     		bne	.L2011
 7358 010a CFE7     		b	.L2041
 7359              		.size	f_opendir, .-f_opendir
 7360              		.section	.text.f_closedir,"ax",%progbits
 7361              		.align	1
 7362              		.p2align 4,,15
 7363              		.global	f_closedir
 7364              		.syntax unified
 7365              		.thumb
 7366              		.thumb_func
 7367              		.fpu fpv4-sp-d16
 7368              		.type	f_closedir, %function
 7369              	f_closedir:
 7370              		@ args = 0, pretend = 0, frame = 0
 7371              		@ frame_needed = 0, uses_anonymous_args = 0
 7372 0000 38B5     		push	{r3, r4, r5, lr}
 7373 0002 40B1     		cbz	r0, .L2073
 7374 0004 0368     		ldr	r3, [r0]
 7375 0006 0446     		mov	r4, r0
 7376 0008 2BB1     		cbz	r3, .L2073
 7377 000a 1A78     		ldrb	r2, [r3]	@ zero_extendqisi2
 7378 000c 1AB1     		cbz	r2, .L2073
 7379 000e 8188     		ldrh	r1, [r0, #4]
 7380 0010 DA88     		ldrh	r2, [r3, #6]
 7381 0012 9142     		cmp	r1, r2
 7382 0014 02D0     		beq	.L2074
 7383              	.L2073:
 7384 0016 0925     		movs	r5, #9
 7385              	.L2044:
 7386 0018 2846     		mov	r0, r5
 7387 001a 38BD     		pop	{r3, r4, r5, pc}
 7388              	.L2074:
 7389 001c 5869     		ldr	r0, [r3, #20]
 7390 001e FFF7FEFF 		bl	ff_req_grant
 7391 0022 50B3     		cbz	r0, .L2055
 7392 0024 2368     		ldr	r3, [r4]
 7393 0026 5878     		ldrb	r0, [r3, #1]	@ zero_extendqisi2
 7394 0028 FFF7FEFF 		bl	disk_status
 7395 002c 10F00105 		ands	r5, r0, #1
 7396 0030 27D1     		bne	.L2046
 7397 0032 E36A     		ldr	r3, [r4, #44]
 7398 0034 2268     		ldr	r2, [r4]
 7399 0036 43B9     		cbnz	r3, .L2075
 7400              	.L2048:
 7401 0038 0023     		movs	r3, #0
 7402 003a 2360     		str	r3, [r4]
 7403              	.L2049:
ARM GAS  /tmp/cc2a13AN.s 			page 131


 7404 003c 002A     		cmp	r2, #0
 7405 003e EBD0     		beq	.L2044
 7406 0040 5069     		ldr	r0, [r2, #20]
 7407 0042 FFF7FEFF 		bl	ff_rel_grant
 7408 0046 2846     		mov	r0, r5
 7409 0048 38BD     		pop	{r3, r4, r5, pc}
 7410              	.L2075:
 7411 004a 013B     		subs	r3, r3, #1
 7412 004c 092B     		cmp	r3, #9
 7413 004e 16D8     		bhi	.L2056
 7414 0050 1048     		ldr	r0, .L2077
 7415 0052 4FEA031C 		lsl	ip, r3, #4
 7416 0056 00EB0313 		add	r3, r0, r3, lsl #4
 7417 005a 9989     		ldrh	r1, [r3, #12]
 7418 005c B1F5807F 		cmp	r1, #256
 7419 0060 16D0     		beq	.L2076
 7420 0062 31B1     		cbz	r1, .L2051
 7421 0064 0139     		subs	r1, r1, #1
 7422 0066 00EB0C03 		add	r3, r0, ip
 7423 006a 89B2     		uxth	r1, r1
 7424 006c 9981     		strh	r1, [r3, #12]	@ movhi
 7425 006e 0029     		cmp	r1, #0
 7426 0070 E2D1     		bne	.L2048
 7427              	.L2051:
 7428 0072 0023     		movs	r3, #0
 7429 0074 40F80C30 		str	r3, [r0, ip]
 7430 0078 DEE7     		b	.L2048
 7431              	.L2055:
 7432 007a 0F25     		movs	r5, #15
 7433 007c CCE7     		b	.L2044
 7434              	.L2056:
 7435 007e 0225     		movs	r5, #2
 7436 0080 DCE7     		b	.L2049
 7437              	.L2046:
 7438 0082 2368     		ldr	r3, [r4]
 7439 0084 002B     		cmp	r3, #0
 7440 0086 C6D0     		beq	.L2073
 7441 0088 5869     		ldr	r0, [r3, #20]
 7442 008a FFF7FEFF 		bl	ff_rel_grant
 7443 008e C2E7     		b	.L2073
 7444              	.L2076:
 7445 0090 9D81     		strh	r5, [r3, #12]	@ movhi
 7446 0092 EEE7     		b	.L2051
 7447              	.L2078:
 7448              		.align	2
 7449              	.L2077:
 7450 0094 00000000 		.word	.LANCHOR0
 7451              		.size	f_closedir, .-f_closedir
 7452              		.section	.text.f_readdir,"ax",%progbits
 7453              		.align	1
 7454              		.p2align 4,,15
 7455              		.global	f_readdir
 7456              		.syntax unified
 7457              		.thumb
 7458              		.thumb_func
 7459              		.fpu fpv4-sp-d16
 7460              		.type	f_readdir, %function
ARM GAS  /tmp/cc2a13AN.s 			page 132


 7461              	f_readdir:
 7462              		@ args = 0, pretend = 0, frame = 1128
 7463              		@ frame_needed = 0, uses_anonymous_args = 0
 7464 0000 F0B5     		push	{r4, r5, r6, r7, lr}
 7465 0002 ADF26C4D 		subw	sp, sp, #1132
 7466 0006 0D46     		mov	r5, r1
 7467 0008 01A9     		add	r1, sp, #4
 7468 000a 0646     		mov	r6, r0
 7469 000c FFF7FEFF 		bl	validate
 7470 0010 0446     		mov	r4, r0
 7471 0012 68B9     		cbnz	r0, .L2080
 7472 0014 6DB3     		cbz	r5, .L2098
 7473 0016 019B     		ldr	r3, [sp, #4]
 7474 0018 02AA     		add	r2, sp, #8
 7475 001a DA60     		str	r2, [r3, #12]
 7476 001c 82AA     		add	r2, sp, #520
 7477 001e 0146     		mov	r1, r0
 7478 0020 1A61     		str	r2, [r3, #16]
 7479 0022 3046     		mov	r0, r6
 7480 0024 FFF7FEFF 		bl	dir_read
 7481 0028 10F0FB07 		ands	r7, r0, #251
 7482 002c 0446     		mov	r4, r0
 7483 002e 0BD0     		beq	.L2099
 7484              	.L2080:
 7485 0030 019B     		ldr	r3, [sp, #4]
 7486 0032 2BB1     		cbz	r3, .L2083
 7487 0034 0C2C     		cmp	r4, #12
 7488 0036 03D0     		beq	.L2083
 7489 0038 0B2C     		cmp	r4, #11
 7490 003a 01D0     		beq	.L2083
 7491 003c 0F2C     		cmp	r4, #15
 7492 003e 11D1     		bne	.L2082
 7493              	.L2083:
 7494 0040 2046     		mov	r0, r4
 7495 0042 0DF26C4D 		addw	sp, sp, #1132
 7496              		@ sp needed
 7497 0046 F0BD     		pop	{r4, r5, r6, r7, pc}
 7498              	.L2099:
 7499 0048 2946     		mov	r1, r5
 7500 004a 3046     		mov	r0, r6
 7501 004c FFF7FEFF 		bl	get_fileinfo
 7502 0050 3946     		mov	r1, r7
 7503 0052 3046     		mov	r0, r6
 7504 0054 FFF7FEFF 		bl	dir_next
 7505 0058 0428     		cmp	r0, #4
 7506 005a 0446     		mov	r4, r0
 7507 005c E8D1     		bne	.L2080
 7508 005e 019B     		ldr	r3, [sp, #4]
 7509 0060 6BB1     		cbz	r3, .L2100
 7510 0062 3C46     		mov	r4, r7
 7511              	.L2082:
 7512 0064 5869     		ldr	r0, [r3, #20]
 7513 0066 FFF7FEFF 		bl	ff_rel_grant
 7514 006a 2046     		mov	r0, r4
 7515 006c 0DF26C4D 		addw	sp, sp, #1132
 7516              		@ sp needed
 7517 0070 F0BD     		pop	{r4, r5, r6, r7, pc}
ARM GAS  /tmp/cc2a13AN.s 			page 133


 7518              	.L2098:
 7519 0072 0146     		mov	r1, r0
 7520 0074 3046     		mov	r0, r6
 7521 0076 FFF7FEFF 		bl	dir_sdi
 7522 007a 0446     		mov	r4, r0
 7523 007c D8E7     		b	.L2080
 7524              	.L2100:
 7525 007e 1C46     		mov	r4, r3
 7526 0080 DEE7     		b	.L2083
 7527              		.size	f_readdir, .-f_readdir
 7528 0082 00BF     		.section	.text.f_findnext,"ax",%progbits
 7529              		.align	1
 7530              		.p2align 4,,15
 7531              		.global	f_findnext
 7532              		.syntax unified
 7533              		.thumb
 7534              		.thumb_func
 7535              		.fpu fpv4-sp-d16
 7536              		.type	f_findnext, %function
 7537              	f_findnext:
 7538              		@ args = 0, pretend = 0, frame = 0
 7539              		@ frame_needed = 0, uses_anonymous_args = 0
 7540 0000 F8B5     		push	{r3, r4, r5, r6, r7, lr}
 7541 0002 0D46     		mov	r5, r1
 7542 0004 0646     		mov	r6, r0
 7543 0006 01F11A07 		add	r7, r1, #26
 7544 000a 06E0     		b	.L2103
 7545              	.L2114:
 7546 000c 7DB1     		cbz	r5, .L2102
 7547 000e A87E     		ldrb	r0, [r5, #26]	@ zero_extendqisi2
 7548 0010 68B1     		cbz	r0, .L2102
 7549 0012 306D     		ldr	r0, [r6, #80]
 7550 0014 FFF7FEFF 		bl	pattern_match
 7551 0018 48B9     		cbnz	r0, .L2102
 7552              	.L2103:
 7553 001a 2946     		mov	r1, r5
 7554 001c 3046     		mov	r0, r6
 7555 001e FFF7FEFF 		bl	f_readdir
 7556 0022 0423     		movs	r3, #4
 7557 0024 3946     		mov	r1, r7
 7558 0026 0446     		mov	r4, r0
 7559 0028 0246     		mov	r2, r0
 7560 002a 0028     		cmp	r0, #0
 7561 002c EED0     		beq	.L2114
 7562              	.L2102:
 7563 002e 2046     		mov	r0, r4
 7564 0030 F8BD     		pop	{r3, r4, r5, r6, r7, pc}
 7565              		.size	f_findnext, .-f_findnext
 7566 0032 00BF     		.section	.text.f_findfirst,"ax",%progbits
 7567              		.align	1
 7568              		.p2align 4,,15
 7569              		.global	f_findfirst
 7570              		.syntax unified
 7571              		.thumb
 7572              		.thumb_func
 7573              		.fpu fpv4-sp-d16
 7574              		.type	f_findfirst, %function
ARM GAS  /tmp/cc2a13AN.s 			page 134


 7575              	f_findfirst:
 7576              		@ args = 0, pretend = 0, frame = 0
 7577              		@ frame_needed = 0, uses_anonymous_args = 0
 7578 0000 38B5     		push	{r3, r4, r5, lr}
 7579 0002 0D46     		mov	r5, r1
 7580 0004 0365     		str	r3, [r0, #80]
 7581 0006 1146     		mov	r1, r2
 7582 0008 0446     		mov	r4, r0
 7583 000a FFF7FEFF 		bl	f_opendir
 7584 000e 00B1     		cbz	r0, .L2118
 7585 0010 38BD     		pop	{r3, r4, r5, pc}
 7586              	.L2118:
 7587 0012 2946     		mov	r1, r5
 7588 0014 2046     		mov	r0, r4
 7589 0016 BDE83840 		pop	{r3, r4, r5, lr}
 7590 001a FFF7FEBF 		b	f_findnext
 7591              		.size	f_findfirst, .-f_findfirst
 7592 001e 00BF     		.section	.text.f_stat,"ax",%progbits
 7593              		.align	1
 7594              		.p2align 4,,15
 7595              		.global	f_stat
 7596              		.syntax unified
 7597              		.thumb
 7598              		.thumb_func
 7599              		.fpu fpv4-sp-d16
 7600              		.type	f_stat, %function
 7601              	f_stat:
 7602              		@ args = 0, pretend = 0, frame = 1216
 7603              		@ frame_needed = 0, uses_anonymous_args = 0
 7604 0000 30B5     		push	{r4, r5, lr}
 7605 0002 ADF2C44D 		subw	sp, sp, #1220
 7606 0006 0D46     		mov	r5, r1
 7607 0008 0190     		str	r0, [sp, #4]
 7608 000a 0022     		movs	r2, #0
 7609 000c 02A9     		add	r1, sp, #8
 7610 000e 01A8     		add	r0, sp, #4
 7611 0010 FFF7FEFF 		bl	mount_volume
 7612 0014 60B1     		cbz	r0, .L2142
 7613 0016 0446     		mov	r4, r0
 7614              	.L2120:
 7615 0018 029B     		ldr	r3, [sp, #8]
 7616 001a 2BB1     		cbz	r3, .L2123
 7617 001c 0C2C     		cmp	r4, #12
 7618 001e 03D0     		beq	.L2123
 7619 0020 0B2C     		cmp	r4, #11
 7620 0022 01D0     		beq	.L2123
 7621 0024 0F2C     		cmp	r4, #15
 7622 0026 1BD1     		bne	.L2122
 7623              	.L2123:
 7624 0028 2046     		mov	r0, r4
 7625 002a 0DF2C44D 		addw	sp, sp, #1220
 7626              		@ sp needed
 7627 002e 30BD     		pop	{r4, r5, pc}
 7628              	.L2142:
 7629 0030 029B     		ldr	r3, [sp, #8]
 7630 0032 0199     		ldr	r1, [sp, #4]
 7631 0034 18AA     		add	r2, sp, #96
ARM GAS  /tmp/cc2a13AN.s 			page 135


 7632 0036 DA60     		str	r2, [r3, #12]
 7633 0038 98AA     		add	r2, sp, #608
 7634 003a 1A61     		str	r2, [r3, #16]
 7635 003c 02A8     		add	r0, sp, #8
 7636 003e FFF7FEFF 		bl	follow_path
 7637 0042 0446     		mov	r4, r0
 7638 0044 0028     		cmp	r0, #0
 7639 0046 E7D1     		bne	.L2120
 7640 0048 9DF95330 		ldrsb	r3, [sp, #83]
 7641 004c 002B     		cmp	r3, #0
 7642 004e 0EDB     		blt	.L2143
 7643 0050 1DB1     		cbz	r5, .L2141
 7644 0052 2946     		mov	r1, r5
 7645 0054 02A8     		add	r0, sp, #8
 7646 0056 FFF7FEFF 		bl	get_fileinfo
 7647              	.L2141:
 7648 005a 029B     		ldr	r3, [sp, #8]
 7649 005c 002B     		cmp	r3, #0
 7650 005e E3D0     		beq	.L2123
 7651              	.L2122:
 7652 0060 5869     		ldr	r0, [r3, #20]
 7653 0062 FFF7FEFF 		bl	ff_rel_grant
 7654 0066 2046     		mov	r0, r4
 7655 0068 0DF2C44D 		addw	sp, sp, #1220
 7656              		@ sp needed
 7657 006c 30BD     		pop	{r4, r5, pc}
 7658              	.L2143:
 7659 006e 029B     		ldr	r3, [sp, #8]
 7660 0070 0624     		movs	r4, #6
 7661 0072 002B     		cmp	r3, #0
 7662 0074 F4D1     		bne	.L2122
 7663 0076 D7E7     		b	.L2123
 7664              		.size	f_stat, .-f_stat
 7665              		.section	.text.f_getfree,"ax",%progbits
 7666              		.align	1
 7667              		.p2align 4,,15
 7668              		.global	f_getfree
 7669              		.syntax unified
 7670              		.thumb
 7671              		.thumb_func
 7672              		.fpu fpv4-sp-d16
 7673              		.type	f_getfree, %function
 7674              	f_getfree:
 7675              		@ args = 0, pretend = 0, frame = 64
 7676              		@ frame_needed = 0, uses_anonymous_args = 0
 7677 0000 2DE9F04F 		push	{r4, r5, r6, r7, r8, r9, r10, fp, lr}
 7678 0004 91B0     		sub	sp, sp, #68
 7679 0006 8946     		mov	r9, r1
 7680 0008 0190     		str	r0, [sp, #4]
 7681 000a 1446     		mov	r4, r2
 7682 000c 03A9     		add	r1, sp, #12
 7683 000e 0022     		movs	r2, #0
 7684 0010 01A8     		add	r0, sp, #4
 7685 0012 FFF7FEFF 		bl	mount_volume
 7686 0016 0746     		mov	r7, r0
 7687 0018 48B1     		cbz	r0, .L2213
 7688              	.L2145:
ARM GAS  /tmp/cc2a13AN.s 			page 136


 7689 001a 039D     		ldr	r5, [sp, #12]
 7690 001c 1DB1     		cbz	r5, .L2182
 7691 001e 0C2F     		cmp	r7, #12
 7692 0020 01D0     		beq	.L2182
 7693 0022 0B2F     		cmp	r7, #11
 7694 0024 7FD1     		bne	.L2214
 7695              	.L2182:
 7696 0026 3846     		mov	r0, r7
 7697 0028 11B0     		add	sp, sp, #68
 7698              		@ sp needed
 7699 002a BDE8F08F 		pop	{r4, r5, r6, r7, r8, r9, r10, fp, pc}
 7700              	.L2213:
 7701 002e 039D     		ldr	r5, [sp, #12]
 7702 0030 2560     		str	r5, [r4]
 7703 0032 D5F83080 		ldr	r8, [r5, #48]
 7704 0036 EB69     		ldr	r3, [r5, #28]
 7705 0038 A8F10204 		sub	r4, r8, #2
 7706 003c A342     		cmp	r3, r4
 7707 003e 08D8     		bhi	.L2146
 7708 0040 C9F80030 		str	r3, [r9]
 7709              	.L2147:
 7710 0044 6869     		ldr	r0, [r5, #20]
 7711 0046 FFF7FEFF 		bl	ff_rel_grant
 7712 004a 3846     		mov	r0, r7
 7713 004c 11B0     		add	sp, sp, #68
 7714              		@ sp needed
 7715 004e BDE8F08F 		pop	{r4, r5, r6, r7, r8, r9, r10, fp, pc}
 7716              	.L2146:
 7717 0052 95F800A0 		ldrb	r10, [r5]	@ zero_extendqisi2
 7718 0056 BAF1010F 		cmp	r10, #1
 7719 005a 34D0     		beq	.L2215
 7720 005c BAF1040F 		cmp	r10, #4
 7721 0060 67D0     		beq	.L2216
 7722 0062 D5F83CA0 		ldr	r10, [r5, #60]
 7723 0066 0446     		mov	r4, r0
 7724 0068 0646     		mov	r6, r0
 7725              	.L2175:
 7726 006a A4B9     		cbnz	r4, .L2165
 7727 006c EB6C     		ldr	r3, [r5, #76]
 7728 006e 9A45     		cmp	r10, r3
 7729 0070 0AF1010B 		add	fp, r10, #1
 7730 0074 4ED0     		beq	.L2180
 7731 0076 EB78     		ldrb	r3, [r5, #3]	@ zero_extendqisi2
 7732 0078 002B     		cmp	r3, #0
 7733 007a 4DD1     		bne	.L2166
 7734              	.L2169:
 7735 007c 6878     		ldrb	r0, [r5, #1]	@ zero_extendqisi2
 7736 007e 0123     		movs	r3, #1
 7737 0080 5246     		mov	r2, r10
 7738 0082 05F15001 		add	r1, r5, #80
 7739 0086 FFF7FEFF 		bl	disk_read
 7740 008a 0028     		cmp	r0, #0
 7741 008c 3AD1     		bne	.L2156
 7742 008e C5F84CA0 		str	r10, [r5, #76]
 7743 0092 039D     		ldr	r5, [sp, #12]
 7744 0094 DA46     		mov	r10, fp
 7745              	.L2165:
ARM GAS  /tmp/cc2a13AN.s 			page 137


 7746 0096 2B78     		ldrb	r3, [r5]	@ zero_extendqisi2
 7747 0098 022B     		cmp	r3, #2
 7748 009a 05EB0403 		add	r3, r5, r4
 7749 009e 2BD0     		beq	.L2217
 7750 00a0 1B6D     		ldr	r3, [r3, #80]	@ unaligned
 7751 00a2 33F07043 		bics	r3, r3, #-268435456
 7752 00a6 08BF     		it	eq
 7753 00a8 0136     		addeq	r6, r6, #1
 7754 00aa 0434     		adds	r4, r4, #4
 7755              	.L2173:
 7756 00ac B8F10108 		subs	r8, r8, #1
 7757 00b0 C4F30804 		ubfx	r4, r4, #0, #9
 7758 00b4 D9D1     		bne	.L2175
 7759              	.L2152:
 7760 00b6 C9F80060 		str	r6, [r9]
 7761 00ba 2B79     		ldrb	r3, [r5, #4]	@ zero_extendqisi2
 7762 00bc EE61     		str	r6, [r5, #28]
 7763 00be 43F00103 		orr	r3, r3, #1
 7764 00c2 2B71     		strb	r3, [r5, #4]
 7765 00c4 BEE7     		b	.L2147
 7766              	.L2215:
 7767 00c6 0495     		str	r5, [sp, #16]
 7768 00c8 0224     		movs	r4, #2
 7769 00ca 0646     		mov	r6, r0
 7770 00cc 07E0     		b	.L2151
 7771              	.L2218:
 7772 00ce 0128     		cmp	r0, #1
 7773 00d0 6ED0     		beq	.L2177
 7774 00d2 00B9     		cbnz	r0, .L2150
 7775 00d4 0136     		adds	r6, r6, #1
 7776              	.L2150:
 7777 00d6 039D     		ldr	r5, [sp, #12]
 7778 00d8 2B6B     		ldr	r3, [r5, #48]
 7779 00da A342     		cmp	r3, r4
 7780 00dc EBD9     		bls	.L2152
 7781              	.L2151:
 7782 00de 2146     		mov	r1, r4
 7783 00e0 04A8     		add	r0, sp, #16
 7784 00e2 FFF7FEFF 		bl	get_fat
 7785 00e6 431C     		adds	r3, r0, #1
 7786 00e8 04F10104 		add	r4, r4, #1
 7787 00ec EFD1     		bne	.L2218
 7788              	.L2149:
 7789 00ee 039D     		ldr	r5, [sp, #12]
 7790 00f0 002D     		cmp	r5, #0
 7791 00f2 5BD0     		beq	.L2219
 7792 00f4 5746     		mov	r7, r10
 7793 00f6 A5E7     		b	.L2147
 7794              	.L2217:
 7795 00f8 B3F85030 		ldrh	r3, [r3, #80]	@ unaligned
 7796 00fc 03B9     		cbnz	r3, .L2172
 7797 00fe 0136     		adds	r6, r6, #1
 7798              	.L2172:
 7799 0100 0234     		adds	r4, r4, #2
 7800 0102 D3E7     		b	.L2173
 7801              	.L2156:
 7802 0104 4FF0FF33 		mov	r3, #-1
ARM GAS  /tmp/cc2a13AN.s 			page 138


 7803 0108 EB64     		str	r3, [r5, #76]
 7804 010a 039D     		ldr	r5, [sp, #12]
 7805 010c 0127     		movs	r7, #1
 7806 010e 002D     		cmp	r5, #0
 7807 0110 98D1     		bne	.L2147
 7808 0112 88E7     		b	.L2182
 7809              	.L2180:
 7810 0114 DA46     		mov	r10, fp
 7811 0116 BEE7     		b	.L2165
 7812              	.L2166:
 7813 0118 2846     		mov	r0, r5
 7814 011a FFF7FEFF 		bl	sync_window.part.0
 7815 011e 0028     		cmp	r0, #0
 7816 0120 ACD0     		beq	.L2169
 7817 0122 0746     		mov	r7, r0
 7818 0124 79E7     		b	.L2145
 7819              	.L2214:
 7820 0126 0F2F     		cmp	r7, #15
 7821 0128 3FF47DAF 		beq	.L2182
 7822 012c BA46     		mov	r10, r7
 7823 012e 5746     		mov	r7, r10
 7824 0130 88E7     		b	.L2147
 7825              	.L2216:
 7826 0132 D5F848A0 		ldr	r10, [r5, #72]
 7827 0136 8046     		mov	r8, r0
 7828 0138 0646     		mov	r6, r0
 7829              	.L2164:
 7830 013a B8F1000F 		cmp	r8, #0
 7831 013e 13D1     		bne	.L2154
 7832 0140 EB6C     		ldr	r3, [r5, #76]
 7833 0142 9A45     		cmp	r10, r3
 7834 0144 0AF1010B 		add	fp, r10, #1
 7835 0148 27D0     		beq	.L2178
 7836 014a EB78     		ldrb	r3, [r5, #3]	@ zero_extendqisi2
 7837 014c 3BBB     		cbnz	r3, .L2155
 7838              	.L2158:
 7839 014e 6878     		ldrb	r0, [r5, #1]	@ zero_extendqisi2
 7840 0150 0123     		movs	r3, #1
 7841 0152 5246     		mov	r2, r10
 7842 0154 05F15001 		add	r1, r5, #80
 7843 0158 FFF7FEFF 		bl	disk_read
 7844 015c 0028     		cmp	r0, #0
 7845 015e D1D1     		bne	.L2156
 7846 0160 C5F84CA0 		str	r10, [r5, #76]
 7847 0164 039D     		ldr	r5, [sp, #12]
 7848 0166 DA46     		mov	r10, fp
 7849              	.L2154:
 7850 0168 05EB0803 		add	r3, r5, r8
 7851 016c A4F10801 		sub	r1, r4, #8
 7852 0170 93F85030 		ldrb	r3, [r3, #80]	@ zero_extendqisi2
 7853              	.L2160:
 7854 0174 002C     		cmp	r4, #0
 7855 0176 9ED0     		beq	.L2152
 7856 0178 13F0010F 		tst	r3, #1
 7857 017c 04F1FF34 		add	r4, r4, #-1
 7858 0180 08BF     		it	eq
 7859 0182 0136     		addeq	r6, r6, #1
ARM GAS  /tmp/cc2a13AN.s 			page 139


 7860 0184 8C42     		cmp	r4, r1
 7861 0186 4FEA5303 		lsr	r3, r3, #1
 7862 018a F3D1     		bne	.L2160
 7863 018c 08F10108 		add	r8, r8, #1
 7864 0190 C8F30808 		ubfx	r8, r8, #0, #9
 7865 0194 002C     		cmp	r4, #0
 7866 0196 D0D1     		bne	.L2164
 7867 0198 8DE7     		b	.L2152
 7868              	.L2178:
 7869 019a DA46     		mov	r10, fp
 7870 019c E4E7     		b	.L2154
 7871              	.L2155:
 7872 019e 2846     		mov	r0, r5
 7873 01a0 FFF7FEFF 		bl	sync_window.part.0
 7874 01a4 0028     		cmp	r0, #0
 7875 01a6 D2D0     		beq	.L2158
 7876 01a8 0746     		mov	r7, r0
 7877 01aa 36E7     		b	.L2145
 7878              	.L2219:
 7879 01ac 5746     		mov	r7, r10
 7880 01ae 3AE7     		b	.L2182
 7881              	.L2177:
 7882 01b0 4FF0020A 		mov	r10, #2
 7883 01b4 9BE7     		b	.L2149
 7884              		.size	f_getfree, .-f_getfree
 7885 01b6 00BF     		.section	.text.f_truncate,"ax",%progbits
 7886              		.align	1
 7887              		.p2align 4,,15
 7888              		.global	f_truncate
 7889              		.syntax unified
 7890              		.thumb
 7891              		.thumb_func
 7892              		.fpu fpv4-sp-d16
 7893              		.type	f_truncate, %function
 7894              	f_truncate:
 7895              		@ args = 0, pretend = 0, frame = 8
 7896              		@ frame_needed = 0, uses_anonymous_args = 0
 7897 0000 30B5     		push	{r4, r5, lr}
 7898 0002 83B0     		sub	sp, sp, #12
 7899 0004 01A9     		add	r1, sp, #4
 7900 0006 0546     		mov	r5, r0
 7901 0008 FFF7FEFF 		bl	validate
 7902 000c 60BB     		cbnz	r0, .L2260
 7903 000e 95F83140 		ldrb	r4, [r5, #49]	@ zero_extendqisi2
 7904 0012 54BB     		cbnz	r4, .L2221
 7905 0014 95F83030 		ldrb	r3, [r5, #48]	@ zero_extendqisi2
 7906 0018 9807     		lsls	r0, r3, #30
 7907 001a 58D5     		bpl	.L2262
 7908 001c AA6B     		ldr	r2, [r5, #56]
 7909 001e 2869     		ldr	r0, [r5, #16]
 7910 0020 EB6B     		ldr	r3, [r5, #60]
 7911 0022 6969     		ldr	r1, [r5, #20]
 7912 0024 8242     		cmp	r2, r0
 7913 0026 73EB0101 		sbcs	r1, r3, r1
 7914 002a 15D2     		bcs	.L2227
 7915 002c 1343     		orrs	r3, r2, r3
 7916 002e 26D1     		bne	.L2228
ARM GAS  /tmp/cc2a13AN.s 			page 140


 7917 0030 A968     		ldr	r1, [r5, #8]
 7918 0032 2246     		mov	r2, r4
 7919 0034 2846     		mov	r0, r5
 7920 0036 FFF7FEFF 		bl	remove_chain
 7921 003a AC60     		str	r4, [r5, #8]
 7922              	.L2229:
 7923 003c D5E90E23 		ldrd	r2, [r5, #56]
 7924 0040 C5E90423 		strd	r2, [r5, #16]
 7925 0044 95F83030 		ldrb	r3, [r5, #48]	@ zero_extendqisi2
 7926 0048 43F04003 		orr	r3, r3, #64
 7927 004c 85F83030 		strb	r3, [r5, #48]
 7928 0050 0028     		cmp	r0, #0
 7929 0052 45D1     		bne	.L2263
 7930 0054 1B06     		lsls	r3, r3, #24
 7931 0056 54D4     		bmi	.L2264
 7932              	.L2227:
 7933 0058 019B     		ldr	r3, [sp, #4]
 7934 005a 13B1     		cbz	r3, .L2247
 7935              	.L2233:
 7936 005c 5869     		ldr	r0, [r3, #20]
 7937 005e FFF7FEFF 		bl	ff_rel_grant
 7938              	.L2247:
 7939 0062 2046     		mov	r0, r4
 7940 0064 03B0     		add	sp, sp, #12
 7941              		@ sp needed
 7942 0066 30BD     		pop	{r4, r5, pc}
 7943              	.L2260:
 7944 0068 0446     		mov	r4, r0
 7945              	.L2221:
 7946 006a 019B     		ldr	r3, [sp, #4]
 7947 006c 002B     		cmp	r3, #0
 7948 006e F8D0     		beq	.L2247
 7949 0070 0C2C     		cmp	r4, #12
 7950 0072 3DD0     		beq	.L2239
 7951 0074 0B2C     		cmp	r4, #11
 7952 0076 31D0     		beq	.L2240
 7953 0078 0F2C     		cmp	r4, #15
 7954 007a F2D0     		beq	.L2247
 7955 007c EEE7     		b	.L2233
 7956              	.L2228:
 7957 007e 296C     		ldr	r1, [r5, #64]
 7958 0080 2846     		mov	r0, r5
 7959 0082 FFF7FEFF 		bl	get_fat
 7960 0086 411C     		adds	r1, r0, #1
 7961 0088 43D0     		beq	.L2243
 7962 008a 0128     		cmp	r0, #1
 7963 008c 54D0     		beq	.L2244
 7964 008e 019B     		ldr	r3, [sp, #4]
 7965 0090 1A6B     		ldr	r2, [r3, #48]
 7966 0092 8242     		cmp	r2, r0
 7967 0094 37D8     		bhi	.L2231
 7968 0096 95F83020 		ldrb	r2, [r5, #48]	@ zero_extendqisi2
 7969 009a D5E90E01 		ldrd	r0, [r5, #56]
 7970 009e 42F04002 		orr	r2, r2, #64
 7971 00a2 85F83020 		strb	r2, [r5, #48]
 7972 00a6 1206     		lsls	r2, r2, #24
 7973 00a8 C5E90401 		strd	r0, [r5, #16]
ARM GAS  /tmp/cc2a13AN.s 			page 141


 7974 00ac D6D5     		bpl	.L2233
 7975              	.L2232:
 7976 00ae 5878     		ldrb	r0, [r3, #1]	@ zero_extendqisi2
 7977 00b0 6A6C     		ldr	r2, [r5, #68]
 7978 00b2 0123     		movs	r3, #1
 7979 00b4 05F15401 		add	r1, r5, #84
 7980 00b8 FFF7FEFF 		bl	disk_write
 7981 00bc 0028     		cmp	r0, #0
 7982 00be 3DD1     		bne	.L2265
 7983 00c0 95F83030 		ldrb	r3, [r5, #48]	@ zero_extendqisi2
 7984 00c4 03F07F03 		and	r3, r3, #127
 7985 00c8 85F83030 		strb	r3, [r5, #48]
 7986 00cc C4E7     		b	.L2227
 7987              	.L2262:
 7988 00ce 019B     		ldr	r3, [sp, #4]
 7989 00d0 83B3     		cbz	r3, .L2242
 7990 00d2 5869     		ldr	r0, [r3, #20]
 7991 00d4 FFF7FEFF 		bl	ff_rel_grant
 7992 00d8 0724     		movs	r4, #7
 7993 00da C2E7     		b	.L2247
 7994              	.L2240:
 7995 00dc 0B24     		movs	r4, #11
 7996 00de C0E7     		b	.L2247
 7997              	.L2263:
 7998 00e0 019B     		ldr	r3, [sp, #4]
 7999 00e2 85F83100 		strb	r0, [r5, #49]
 8000 00e6 0446     		mov	r4, r0
 8001 00e8 002B     		cmp	r3, #0
 8002 00ea BAD0     		beq	.L2247
 8003 00ec 0C28     		cmp	r0, #12
 8004 00ee 03D1     		bne	.L2266
 8005              	.L2239:
 8006 00f0 0C24     		movs	r4, #12
 8007 00f2 2046     		mov	r0, r4
 8008 00f4 03B0     		add	sp, sp, #12
 8009              		@ sp needed
 8010 00f6 30BD     		pop	{r4, r5, pc}
 8011              	.L2266:
 8012 00f8 0B28     		cmp	r0, #11
 8013 00fa EFD0     		beq	.L2240
 8014 00fc 0F28     		cmp	r0, #15
 8015 00fe B0D0     		beq	.L2247
 8016 0100 ACE7     		b	.L2233
 8017              	.L2264:
 8018 0102 019B     		ldr	r3, [sp, #4]
 8019 0104 D3E7     		b	.L2232
 8020              	.L2231:
 8021 0106 0146     		mov	r1, r0
 8022 0108 2A6C     		ldr	r2, [r5, #64]
 8023 010a 2846     		mov	r0, r5
 8024 010c FFF7FEFF 		bl	remove_chain
 8025 0110 94E7     		b	.L2229
 8026              	.L2243:
 8027 0112 0124     		movs	r4, #1
 8028              	.L2230:
 8029 0114 95F83030 		ldrb	r3, [r5, #48]	@ zero_extendqisi2
 8030 0118 85F83140 		strb	r4, [r5, #49]
ARM GAS  /tmp/cc2a13AN.s 			page 142


 8031 011c 43F04003 		orr	r3, r3, #64
 8032 0120 D5E90E01 		ldrd	r0, [r5, #56]
 8033 0124 85F83030 		strb	r3, [r5, #48]
 8034 0128 019B     		ldr	r3, [sp, #4]
 8035 012a C5E90401 		strd	r0, [r5, #16]
 8036 012e 002B     		cmp	r3, #0
 8037 0130 97D0     		beq	.L2247
 8038 0132 93E7     		b	.L2233
 8039              	.L2242:
 8040 0134 0724     		movs	r4, #7
 8041 0136 94E7     		b	.L2247
 8042              	.L2244:
 8043 0138 0224     		movs	r4, #2
 8044 013a EBE7     		b	.L2230
 8045              	.L2265:
 8046 013c 019B     		ldr	r3, [sp, #4]
 8047 013e 0124     		movs	r4, #1
 8048 0140 85F83140 		strb	r4, [r5, #49]
 8049 0144 002B     		cmp	r3, #0
 8050 0146 89D1     		bne	.L2233
 8051 0148 8BE7     		b	.L2247
 8052              		.size	f_truncate, .-f_truncate
 8053 014a 00BF     		.section	.text.f_unlink,"ax",%progbits
 8054              		.align	1
 8055              		.p2align 4,,15
 8056              		.global	f_unlink
 8057              		.syntax unified
 8058              		.thumb
 8059              		.thumb_func
 8060              		.fpu fpv4-sp-d16
 8061              		.type	f_unlink, %function
 8062              	f_unlink:
 8063              		@ args = 0, pretend = 0, frame = 1360
 8064              		@ frame_needed = 0, uses_anonymous_args = 0
 8065 0000 30B5     		push	{r4, r5, lr}
 8066 0002 ADF2545D 		subw	sp, sp, #1364
 8067 0006 0222     		movs	r2, #2
 8068 0008 0190     		str	r0, [sp, #4]
 8069 000a 03A9     		add	r1, sp, #12
 8070 000c 01A8     		add	r0, sp, #4
 8071 000e FFF7FEFF 		bl	mount_volume
 8072 0012 0446     		mov	r4, r0
 8073 0014 58B1     		cbz	r0, .L2308
 8074              	.L2268:
 8075 0016 039B     		ldr	r3, [sp, #12]
 8076 0018 2BB1     		cbz	r3, .L2288
 8077 001a 0C2C     		cmp	r4, #12
 8078 001c 03D0     		beq	.L2288
 8079 001e 0B2C     		cmp	r4, #11
 8080 0020 01D0     		beq	.L2288
 8081 0022 0F2C     		cmp	r4, #15
 8082 0024 18D1     		bne	.L2271
 8083              	.L2288:
 8084 0026 2046     		mov	r0, r4
 8085 0028 0DF2545D 		addw	sp, sp, #1364
 8086              		@ sp needed
 8087 002c 30BD     		pop	{r4, r5, pc}
ARM GAS  /tmp/cc2a13AN.s 			page 143


 8088              	.L2308:
 8089 002e 039B     		ldr	r3, [sp, #12]
 8090 0030 0199     		ldr	r1, [sp, #4]
 8091 0032 1093     		str	r3, [sp, #64]
 8092 0034 3CAA     		add	r2, sp, #240
 8093 0036 DA60     		str	r2, [r3, #12]
 8094 0038 BCAA     		add	r2, sp, #752
 8095 003a 1A61     		str	r2, [r3, #16]
 8096 003c 10A8     		add	r0, sp, #64
 8097 003e FFF7FEFF 		bl	follow_path
 8098 0042 0446     		mov	r4, r0
 8099 0044 0028     		cmp	r0, #0
 8100 0046 E6D1     		bne	.L2268
 8101 0048 9DF88B50 		ldrb	r5, [sp, #139]	@ zero_extendqisi2
 8102 004c A806     		lsls	r0, r5, #26
 8103 004e 0AD5     		bpl	.L2309
 8104              	.L2269:
 8105 0050 039B     		ldr	r3, [sp, #12]
 8106 0052 0624     		movs	r4, #6
 8107 0054 002B     		cmp	r3, #0
 8108 0056 E6D0     		beq	.L2288
 8109              	.L2271:
 8110 0058 5869     		ldr	r0, [r3, #20]
 8111 005a FFF7FEFF 		bl	ff_rel_grant
 8112 005e 2046     		mov	r0, r4
 8113 0060 0DF2545D 		addw	sp, sp, #1364
 8114              		@ sp needed
 8115 0064 30BD     		pop	{r4, r5, pc}
 8116              	.L2309:
 8117 0066 0221     		movs	r1, #2
 8118 0068 10A8     		add	r0, sp, #64
 8119 006a FFF7FEFF 		bl	chk_lock
 8120 006e 0446     		mov	r4, r0
 8121 0070 0028     		cmp	r0, #0
 8122 0072 D0D1     		bne	.L2268
 8123 0074 2906     		lsls	r1, r5, #24
 8124 0076 EBD4     		bmi	.L2269
 8125 0078 9DF84630 		ldrb	r3, [sp, #70]	@ zero_extendqisi2
 8126 007c DA07     		lsls	r2, r3, #31
 8127 007e 41D4     		bmi	.L2306
 8128 0080 039A     		ldr	r2, [sp, #12]
 8129 0082 0492     		str	r2, [sp, #16]
 8130 0084 1178     		ldrb	r1, [r2]	@ zero_extendqisi2
 8131 0086 0429     		cmp	r1, #4
 8132 0088 42D0     		beq	.L2310
 8133 008a 1F9A     		ldr	r2, [sp, #124]
 8134 008c 0329     		cmp	r1, #3
 8135 008e 558B     		ldrh	r5, [r2, #26]	@ unaligned
 8136 0090 02D1     		bne	.L2275
 8137 0092 928A     		ldrh	r2, [r2, #20]	@ unaligned
 8138 0094 45EA0245 		orr	r5, r5, r2, lsl #16
 8139              	.L2275:
 8140 0098 DB06     		lsls	r3, r3, #27
 8141 009a 1FD5     		bpl	.L2282
 8142 009c 039B     		ldr	r3, [sp, #12]
 8143 009e 1A6A     		ldr	r2, [r3, #32]
 8144 00a0 AA42     		cmp	r2, r5
ARM GAS  /tmp/cc2a13AN.s 			page 144


 8145 00a2 31D0     		beq	.L2286
 8146 00a4 2693     		str	r3, [sp, #152]
 8147 00a6 2895     		str	r5, [sp, #160]
 8148 00a8 1B78     		ldrb	r3, [r3]	@ zero_extendqisi2
 8149 00aa 042B     		cmp	r3, #4
 8150 00ac 07D1     		bne	.L2276
 8151 00ae 9DF81730 		ldrb	r3, [sp, #23]	@ zero_extendqisi2
 8152 00b2 8DF89F30 		strb	r3, [sp, #159]
 8153 00b6 DDE90823 		ldrd	r2, [sp, #32]
 8154 00ba CDE92A23 		strd	r2, [sp, #168]
 8155              	.L2276:
 8156 00be 0021     		movs	r1, #0
 8157 00c0 26A8     		add	r0, sp, #152
 8158 00c2 FFF7FEFF 		bl	dir_sdi
 8159 00c6 0446     		mov	r4, r0
 8160 00c8 0028     		cmp	r0, #0
 8161 00ca A4D1     		bne	.L2268
 8162 00cc 0146     		mov	r1, r0
 8163 00ce 26A8     		add	r0, sp, #152
 8164 00d0 FFF7FEFF 		bl	dir_read
 8165 00d4 0446     		mov	r4, r0
 8166 00d6 A8B1     		cbz	r0, .L2306
 8167 00d8 0428     		cmp	r0, #4
 8168 00da 9CD1     		bne	.L2268
 8169              	.L2282:
 8170 00dc 10A8     		add	r0, sp, #64
 8171 00de FFF7FEFF 		bl	dir_remove
 8172 00e2 0446     		mov	r4, r0
 8173 00e4 0028     		cmp	r0, #0
 8174 00e6 96D1     		bne	.L2268
 8175 00e8 3DB1     		cbz	r5, .L2280
 8176 00ea 0246     		mov	r2, r0
 8177 00ec 2946     		mov	r1, r5
 8178 00ee 04A8     		add	r0, sp, #16
 8179 00f0 FFF7FEFF 		bl	remove_chain
 8180 00f4 0446     		mov	r4, r0
 8181 00f6 0028     		cmp	r0, #0
 8182 00f8 8DD1     		bne	.L2268
 8183              	.L2280:
 8184 00fa 0398     		ldr	r0, [sp, #12]
 8185 00fc FFF7FEFF 		bl	sync_fs
 8186 0100 0446     		mov	r4, r0
 8187 0102 88E7     		b	.L2268
 8188              	.L2306:
 8189 0104 039B     		ldr	r3, [sp, #12]
 8190 0106 0BB1     		cbz	r3, .L2311
 8191              	.L2286:
 8192 0108 0724     		movs	r4, #7
 8193 010a A5E7     		b	.L2271
 8194              	.L2311:
 8195 010c 0724     		movs	r4, #7
 8196 010e 8AE7     		b	.L2288
 8197              	.L2310:
 8198 0110 1069     		ldr	r0, [r2, #16]
 8199 0112 04A9     		add	r1, sp, #16
 8200 0114 FFF7FEFF 		bl	init_alloc_info.isra.0
 8201 0118 069D     		ldr	r5, [sp, #24]
ARM GAS  /tmp/cc2a13AN.s 			page 145


 8202 011a 9DF84630 		ldrb	r3, [sp, #70]	@ zero_extendqisi2
 8203 011e BBE7     		b	.L2275
 8204              		.size	f_unlink, .-f_unlink
 8205              		.section	.text.f_mkdir,"ax",%progbits
 8206              		.align	1
 8207              		.p2align 4,,15
 8208              		.global	f_mkdir
 8209              		.syntax unified
 8210              		.thumb
 8211              		.thumb_func
 8212              		.fpu fpv4-sp-d16
 8213              		.type	f_mkdir, %function
 8214              	f_mkdir:
 8215              		@ args = 0, pretend = 0, frame = 1272
 8216              		@ frame_needed = 0, uses_anonymous_args = 0
 8217 0000 F0B5     		push	{r4, r5, r6, r7, lr}
 8218 0002 ADF2FC4D 		subw	sp, sp, #1276
 8219 0006 0222     		movs	r2, #2
 8220 0008 0190     		str	r0, [sp, #4]
 8221 000a 03A9     		add	r1, sp, #12
 8222 000c 01A8     		add	r0, sp, #4
 8223 000e FFF7FEFF 		bl	mount_volume
 8224 0012 0446     		mov	r4, r0
 8225 0014 48B1     		cbz	r0, .L2352
 8226              	.L2313:
 8227 0016 039B     		ldr	r3, [sp, #12]
 8228 0018 1BB1     		cbz	r3, .L2334
 8229 001a 0C2C     		cmp	r4, #12
 8230 001c 01D0     		beq	.L2334
 8231 001e 0B2C     		cmp	r4, #11
 8232 0020 3DD1     		bne	.L2353
 8233              	.L2334:
 8234 0022 2046     		mov	r0, r4
 8235 0024 0DF2FC4D 		addw	sp, sp, #1276
 8236              		@ sp needed
 8237 0028 F0BD     		pop	{r4, r5, r6, r7, pc}
 8238              	.L2352:
 8239 002a 039B     		ldr	r3, [sp, #12]
 8240 002c 0199     		ldr	r1, [sp, #4]
 8241 002e 1093     		str	r3, [sp, #64]
 8242 0030 26AA     		add	r2, sp, #152
 8243 0032 DA60     		str	r2, [r3, #12]
 8244 0034 A6AA     		add	r2, sp, #664
 8245 0036 1A61     		str	r2, [r3, #16]
 8246 0038 10A8     		add	r0, sp, #64
 8247 003a FFF7FEFF 		bl	follow_path
 8248 003e 0446     		mov	r4, r0
 8249 0040 50B9     		cbnz	r0, .L2354
 8250 0042 039B     		ldr	r3, [sp, #12]
 8251 0044 0824     		movs	r4, #8
 8252 0046 002B     		cmp	r3, #0
 8253 0048 EBD0     		beq	.L2334
 8254              	.L2316:
 8255 004a 5869     		ldr	r0, [r3, #20]
 8256 004c FFF7FEFF 		bl	ff_rel_grant
 8257 0050 2046     		mov	r0, r4
 8258 0052 0DF2FC4D 		addw	sp, sp, #1276
ARM GAS  /tmp/cc2a13AN.s 			page 146


 8259              		@ sp needed
 8260 0056 F0BD     		pop	{r4, r5, r6, r7, pc}
 8261              	.L2354:
 8262 0058 0428     		cmp	r0, #4
 8263 005a DCD1     		bne	.L2313
 8264 005c 9DF88B10 		ldrb	r1, [sp, #139]	@ zero_extendqisi2
 8265 0060 039B     		ldr	r3, [sp, #12]
 8266 0062 11F02004 		ands	r4, r1, #32
 8267 0066 2CD1     		bne	.L2355
 8268 0068 2146     		mov	r1, r4
 8269 006a 04A8     		add	r0, sp, #16
 8270 006c 0493     		str	r3, [sp, #16]
 8271 006e FFF7FEFF 		bl	create_chain
 8272 0072 0546     		mov	r5, r0
 8273 0074 C8B1     		cbz	r0, .L2356
 8274 0076 0128     		cmp	r0, #1
 8275 0078 33D0     		beq	.L2319
 8276 007a 431C     		adds	r3, r0, #1
 8277 007c 25D0     		beq	.L2320
 8278 007e FFF7FEFF 		bl	get_fattime
 8279 0082 2946     		mov	r1, r5
 8280 0084 0646     		mov	r6, r0
 8281 0086 0398     		ldr	r0, [sp, #12]
 8282 0088 FFF7FEFF 		bl	dir_clear
 8283 008c 0446     		mov	r4, r0
 8284 008e 0028     		cmp	r0, #0
 8285 0090 33D0     		beq	.L2321
 8286              	.L2322:
 8287 0092 0022     		movs	r2, #0
 8288 0094 2946     		mov	r1, r5
 8289 0096 04A8     		add	r0, sp, #16
 8290 0098 FFF7FEFF 		bl	remove_chain
 8291 009c BBE7     		b	.L2313
 8292              	.L2353:
 8293 009e 0F2C     		cmp	r4, #15
 8294 00a0 D3D1     		bne	.L2316
 8295 00a2 2046     		mov	r0, r4
 8296 00a4 0DF2FC4D 		addw	sp, sp, #1276
 8297              		@ sp needed
 8298 00a8 F0BD     		pop	{r4, r5, r6, r7, pc}
 8299              	.L2356:
 8300 00aa FFF7FEFF 		bl	get_fattime
 8301 00ae 2A46     		mov	r2, r5
 8302 00b0 2946     		mov	r1, r5
 8303 00b2 04A8     		add	r0, sp, #16
 8304 00b4 FFF7FEFF 		bl	remove_chain
 8305 00b8 039B     		ldr	r3, [sp, #12]
 8306 00ba 0724     		movs	r4, #7
 8307 00bc 002B     		cmp	r3, #0
 8308 00be C4D1     		bne	.L2316
 8309 00c0 AFE7     		b	.L2334
 8310              	.L2355:
 8311 00c2 0624     		movs	r4, #6
 8312 00c4 002B     		cmp	r3, #0
 8313 00c6 C0D1     		bne	.L2316
 8314 00c8 ABE7     		b	.L2334
 8315              	.L2320:
ARM GAS  /tmp/cc2a13AN.s 			page 147


 8316 00ca FFF7FEFF 		bl	get_fattime
 8317 00ce 2246     		mov	r2, r4
 8318 00d0 2946     		mov	r1, r5
 8319 00d2 04A8     		add	r0, sp, #16
 8320 00d4 FFF7FEFF 		bl	remove_chain
 8321 00d8 039B     		ldr	r3, [sp, #12]
 8322 00da 0124     		movs	r4, #1
 8323 00dc 002B     		cmp	r3, #0
 8324 00de B4D1     		bne	.L2316
 8325 00e0 9FE7     		b	.L2334
 8326              	.L2319:
 8327 00e2 FFF7FEFF 		bl	get_fattime
 8328 00e6 2246     		mov	r2, r4
 8329 00e8 2946     		mov	r1, r5
 8330 00ea 04A8     		add	r0, sp, #16
 8331 00ec FFF7FEFF 		bl	remove_chain
 8332 00f0 039B     		ldr	r3, [sp, #12]
 8333 00f2 0224     		movs	r4, #2
 8334 00f4 002B     		cmp	r3, #0
 8335 00f6 A8D1     		bne	.L2316
 8336 00f8 93E7     		b	.L2334
 8337              	.L2321:
 8338 00fa 039B     		ldr	r3, [sp, #12]
 8339 00fc 1978     		ldrb	r1, [r3]	@ zero_extendqisi2
 8340 00fe 0429     		cmp	r1, #4
 8341 0100 47D0     		beq	.L2323
 8342 0102 4FF02032 		mov	r2, #538976288
 8343 0106 1A65     		str	r2, [r3, #80]	@ unaligned
 8344 0108 5A65     		str	r2, [r3, #84]	@ unaligned
 8345 010a C3F85720 		str	r2, [r3, #87]	@ unaligned
 8346 010e 2E22     		movs	r2, #46
 8347 0110 83F85020 		strb	r2, [r3, #80]
 8348 0114 1022     		movs	r2, #16
 8349 0116 83F85B20 		strb	r2, [r3, #91]
 8350 011a 320A     		lsrs	r2, r6, #8
 8351 011c 83F86720 		strb	r2, [r3, #103]
 8352 0120 320C     		lsrs	r2, r6, #16
 8353 0122 83F86820 		strb	r2, [r3, #104]
 8354 0126 320E     		lsrs	r2, r6, #24
 8355 0128 83F86920 		strb	r2, [r3, #105]
 8356 012c 0329     		cmp	r1, #3
 8357 012e C5F30722 		ubfx	r2, r5, #8, #8
 8358 0132 83F86B20 		strb	r2, [r3, #107]
 8359 0136 83F86660 		strb	r6, [r3, #102]
 8360 013a 83F86A50 		strb	r5, [r3, #106]
 8361 013e 03F15002 		add	r2, r3, #80
 8362 0142 00F08E80 		beq	.L2357
 8363 0146 5068     		ldr	r0, [r2, #4]	@ unaligned
 8364 0148 D2F808C0 		ldr	ip, [r2, #8]	@ unaligned
 8365 014c D2F80CE0 		ldr	lr, [r2, #12]	@ unaligned
 8366 0150 1C6D     		ldr	r4, [r3, #80]	@ unaligned
 8367 0152 1C67     		str	r4, [r3, #112]	@ unaligned
 8368 0154 C3F87CE0 		str	lr, [r3, #124]	@ unaligned
 8369 0158 5867     		str	r0, [r3, #116]	@ unaligned
 8370 015a C3F878C0 		str	ip, [r3, #120]	@ unaligned
 8371 015e 1299     		ldr	r1, [sp, #72]
 8372 0160 D2F818C0 		ldr	ip, [r2, #24]	@ unaligned
ARM GAS  /tmp/cc2a13AN.s 			page 148


 8373 0164 1469     		ldr	r4, [r2, #16]	@ unaligned
 8374 0166 5069     		ldr	r0, [r2, #20]	@ unaligned
 8375 0168 D2F81CE0 		ldr	lr, [r2, #28]	@ unaligned
 8376 016c C3F888C0 		str	ip, [r3, #136]	@ unaligned
 8377 0170 2E22     		movs	r2, #46
 8378 0172 83F88A10 		strb	r1, [r3, #138]
 8379 0176 C1F30721 		ubfx	r1, r1, #8, #8
 8380 017a C3F88CE0 		str	lr, [r3, #140]	@ unaligned
 8381 017e C3F88040 		str	r4, [r3, #128]	@ unaligned
 8382 0182 C3F88400 		str	r0, [r3, #132]	@ unaligned
 8383 0186 83F88B10 		strb	r1, [r3, #139]
 8384 018a 83F87120 		strb	r2, [r3, #113]
 8385              	.L2328:
 8386 018e 0122     		movs	r2, #1
 8387 0190 DA70     		strb	r2, [r3, #3]
 8388              	.L2323:
 8389 0192 10A8     		add	r0, sp, #64
 8390 0194 FFF7FEFF 		bl	dir_register
 8391 0198 0246     		mov	r2, r0
 8392 019a 0446     		mov	r4, r0
 8393 019c 0028     		cmp	r0, #0
 8394 019e 7FF478AF 		bne	.L2322
 8395 01a2 039B     		ldr	r3, [sp, #12]
 8396 01a4 1978     		ldrb	r1, [r3]	@ zero_extendqisi2
 8397 01a6 0429     		cmp	r1, #4
 8398 01a8 1DD0     		beq	.L2358
 8399 01aa 1F9A     		ldr	r2, [sp, #124]
 8400 01ac 310A     		lsrs	r1, r6, #8
 8401 01ae 9675     		strb	r6, [r2, #22]
 8402 01b0 D175     		strb	r1, [r2, #23]
 8403 01b2 310C     		lsrs	r1, r6, #16
 8404 01b4 360E     		lsrs	r6, r6, #24
 8405 01b6 1176     		strb	r1, [r2, #24]
 8406 01b8 5676     		strb	r6, [r2, #25]
 8407 01ba 1F9A     		ldr	r2, [sp, #124]
 8408 01bc C5F30721 		ubfx	r1, r5, #8, #8
 8409 01c0 9576     		strb	r5, [r2, #26]
 8410 01c2 D176     		strb	r1, [r2, #27]
 8411 01c4 1978     		ldrb	r1, [r3]	@ zero_extendqisi2
 8412 01c6 0329     		cmp	r1, #3
 8413 01c8 03D1     		bne	.L2327
 8414 01ca 2D0C     		lsrs	r5, r5, #16
 8415 01cc 1575     		strb	r5, [r2, #20]
 8416 01ce 2D0A     		lsrs	r5, r5, #8
 8417 01d0 5575     		strb	r5, [r2, #21]
 8418              	.L2327:
 8419 01d2 1F99     		ldr	r1, [sp, #124]
 8420 01d4 1020     		movs	r0, #16
 8421 01d6 0122     		movs	r2, #1
 8422 01d8 C872     		strb	r0, [r1, #11]
 8423 01da DA70     		strb	r2, [r3, #3]
 8424              	.L2326:
 8425 01dc 1846     		mov	r0, r3
 8426 01de FFF7FEFF 		bl	sync_fs
 8427 01e2 0446     		mov	r4, r0
 8428 01e4 17E7     		b	.L2313
 8429              	.L2358:
ARM GAS  /tmp/cc2a13AN.s 			page 149


 8430 01e6 1969     		ldr	r1, [r3, #16]
 8431 01e8 340A     		lsrs	r4, r6, #8
 8432 01ea 0E73     		strb	r6, [r1, #12]
 8433 01ec 4C73     		strb	r4, [r1, #13]
 8434 01ee 340C     		lsrs	r4, r6, #16
 8435 01f0 360E     		lsrs	r6, r6, #24
 8436 01f2 8C73     		strb	r4, [r1, #14]
 8437 01f4 CE73     		strb	r6, [r1, #15]
 8438 01f6 1969     		ldr	r1, [r3, #16]
 8439 01f8 2C0A     		lsrs	r4, r5, #8
 8440 01fa 81F83450 		strb	r5, [r1, #52]
 8441 01fe 81F83540 		strb	r4, [r1, #53]
 8442 0202 2C0C     		lsrs	r4, r5, #16
 8443 0204 2D0E     		lsrs	r5, r5, #24
 8444 0206 81F83750 		strb	r5, [r1, #55]
 8445 020a 81F83640 		strb	r4, [r1, #54]
 8446 020e 5989     		ldrh	r1, [r3, #10]
 8447 0210 1C69     		ldr	r4, [r3, #16]
 8448 0212 4D00     		lsls	r5, r1, #1
 8449 0214 84F83950 		strb	r5, [r4, #57]
 8450 0218 CD09     		lsrs	r5, r1, #7
 8451 021a C90B     		lsrs	r1, r1, #15
 8452 021c 84F83820 		strb	r2, [r4, #56]
 8453 0220 84F83A50 		strb	r5, [r4, #58]
 8454 0224 84F83B10 		strb	r1, [r4, #59]
 8455 0228 5989     		ldrh	r1, [r3, #10]
 8456 022a 1C69     		ldr	r4, [r3, #16]
 8457 022c 84F82820 		strb	r2, [r4, #40]
 8458 0230 4A00     		lsls	r2, r1, #1
 8459 0232 84F82920 		strb	r2, [r4, #41]
 8460 0236 CA09     		lsrs	r2, r1, #7
 8461 0238 C90B     		lsrs	r1, r1, #15
 8462 023a 84F82B10 		strb	r1, [r4, #43]
 8463 023e 84F82A20 		strb	r2, [r4, #42]
 8464 0242 1A69     		ldr	r2, [r3, #16]
 8465 0244 0321     		movs	r1, #3
 8466 0246 82F82110 		strb	r1, [r2, #33]
 8467 024a 1B69     		ldr	r3, [r3, #16]
 8468 024c 1022     		movs	r2, #16
 8469 024e 10A8     		add	r0, sp, #64
 8470 0250 1A71     		strb	r2, [r3, #4]
 8471 0252 FFF7FEFF 		bl	store_xdir
 8472 0256 0446     		mov	r4, r0
 8473 0258 0028     		cmp	r0, #0
 8474 025a 7FF4DCAE 		bne	.L2313
 8475 025e 039B     		ldr	r3, [sp, #12]
 8476 0260 BCE7     		b	.L2326
 8477              	.L2357:
 8478 0262 290C     		lsrs	r1, r5, #16
 8479 0264 83F86410 		strb	r1, [r3, #100]
 8480 0268 090A     		lsrs	r1, r1, #8
 8481 026a 83F86510 		strb	r1, [r3, #101]
 8482 026e D2F804E0 		ldr	lr, [r2, #4]	@ unaligned
 8483 0272 D2F808C0 		ldr	ip, [r2, #8]	@ unaligned
 8484 0276 D768     		ldr	r7, [r2, #12]	@ unaligned
 8485 0278 1299     		ldr	r1, [sp, #72]
 8486 027a 1C6D     		ldr	r4, [r3, #80]	@ unaligned
ARM GAS  /tmp/cc2a13AN.s 			page 150


 8487 027c 1C67     		str	r4, [r3, #112]	@ unaligned
 8488 027e DF67     		str	r7, [r3, #124]	@ unaligned
 8489 0280 C3F874E0 		str	lr, [r3, #116]	@ unaligned
 8490 0284 C3F878C0 		str	ip, [r3, #120]	@ unaligned
 8491 0288 D2F814E0 		ldr	lr, [r2, #20]	@ unaligned
 8492 028c D2F818C0 		ldr	ip, [r2, #24]	@ unaligned
 8493 0290 1469     		ldr	r4, [r2, #16]	@ unaligned
 8494 0292 D769     		ldr	r7, [r2, #28]	@ unaligned
 8495 0294 C3F884E0 		str	lr, [r3, #132]	@ unaligned
 8496 0298 080C     		lsrs	r0, r1, #16
 8497 029a C3F888C0 		str	ip, [r3, #136]	@ unaligned
 8498 029e 83F88400 		strb	r0, [r3, #132]
 8499 02a2 83F88A10 		strb	r1, [r3, #138]
 8500 02a6 000A     		lsrs	r0, r0, #8
 8501 02a8 C1F30721 		ubfx	r1, r1, #8, #8
 8502 02ac 2E22     		movs	r2, #46
 8503 02ae C3F88C70 		str	r7, [r3, #140]	@ unaligned
 8504 02b2 C3F88040 		str	r4, [r3, #128]	@ unaligned
 8505 02b6 83F88B10 		strb	r1, [r3, #139]
 8506 02ba 83F88500 		strb	r0, [r3, #133]
 8507 02be 83F87120 		strb	r2, [r3, #113]
 8508 02c2 64E7     		b	.L2328
 8509              		.size	f_mkdir, .-f_mkdir
 8510              		.section	.text.f_rename,"ax",%progbits
 8511              		.align	1
 8512              		.p2align 4,,15
 8513              		.global	f_rename
 8514              		.syntax unified
 8515              		.thumb
 8516              		.thumb_func
 8517              		.fpu fpv4-sp-d16
 8518              		.type	f_rename, %function
 8519              	f_rename:
 8520              		@ args = 0, pretend = 0, frame = 1376
 8521              		@ frame_needed = 0, uses_anonymous_args = 0
 8522 0000 2DE9F043 		push	{r4, r5, r6, r7, r8, r9, lr}
 8523 0004 ADF2645D 		subw	sp, sp, #1380
 8524 0008 0190     		str	r0, [sp, #4]
 8525 000a 6846     		mov	r0, sp
 8526 000c 0091     		str	r1, [sp]
 8527 000e FFF7FEFF 		bl	get_ldnumber
 8528 0012 0222     		movs	r2, #2
 8529 0014 03A9     		add	r1, sp, #12
 8530 0016 01A8     		add	r0, sp, #4
 8531 0018 FFF7FEFF 		bl	mount_volume
 8532 001c 0446     		mov	r4, r0
 8533 001e 60B1     		cbz	r0, .L2416
 8534              	.L2360:
 8535 0020 0398     		ldr	r0, [sp, #12]
 8536 0022 28B1     		cbz	r0, .L2391
 8537 0024 0C2C     		cmp	r4, #12
 8538 0026 03D0     		beq	.L2391
 8539 0028 0B2C     		cmp	r4, #11
 8540 002a 01D0     		beq	.L2391
 8541 002c 0F2C     		cmp	r4, #15
 8542 002e 1BD1     		bne	.L2366
 8543              	.L2391:
ARM GAS  /tmp/cc2a13AN.s 			page 151


 8544 0030 2046     		mov	r0, r4
 8545 0032 0DF2645D 		addw	sp, sp, #1380
 8546              		@ sp needed
 8547 0036 BDE8F083 		pop	{r4, r5, r6, r7, r8, r9, pc}
 8548              	.L2416:
 8549 003a 039B     		ldr	r3, [sp, #12]
 8550 003c 0199     		ldr	r1, [sp, #4]
 8551 003e 1493     		str	r3, [sp, #80]
 8552 0040 40AA     		add	r2, sp, #256
 8553 0042 14AD     		add	r5, sp, #80
 8554 0044 DA60     		str	r2, [r3, #12]
 8555 0046 C0AA     		add	r2, sp, #768
 8556 0048 1A61     		str	r2, [r3, #16]
 8557 004a 2846     		mov	r0, r5
 8558 004c FFF7FEFF 		bl	follow_path
 8559 0050 0446     		mov	r4, r0
 8560 0052 0028     		cmp	r0, #0
 8561 0054 E4D1     		bne	.L2360
 8562 0056 95F84B30 		ldrb	r3, [r5, #75]	@ zero_extendqisi2
 8563 005a 13F0A00F 		tst	r3, #160
 8564 005e 0BD0     		beq	.L2417
 8565 0060 0398     		ldr	r0, [sp, #12]
 8566 0062 0624     		movs	r4, #6
 8567 0064 0028     		cmp	r0, #0
 8568 0066 E3D0     		beq	.L2391
 8569              	.L2366:
 8570 0068 4069     		ldr	r0, [r0, #20]
 8571 006a FFF7FEFF 		bl	ff_rel_grant
 8572 006e 2046     		mov	r0, r4
 8573 0070 0DF2645D 		addw	sp, sp, #1380
 8574              		@ sp needed
 8575 0074 BDE8F083 		pop	{r4, r5, r6, r7, r8, r9, pc}
 8576              	.L2417:
 8577 0078 0221     		movs	r1, #2
 8578 007a 2846     		mov	r0, r5
 8579 007c FFF7FEFF 		bl	chk_lock
 8580 0080 0446     		mov	r4, r0
 8581 0082 0028     		cmp	r0, #0
 8582 0084 CCD1     		bne	.L2360
 8583 0086 039B     		ldr	r3, [sp, #12]
 8584 0088 1A78     		ldrb	r2, [r3]	@ zero_extendqisi2
 8585 008a 042A     		cmp	r2, #4
 8586 008c 24D0     		beq	.L2418
 8587 008e EE6B     		ldr	r6, [r5, #60]
 8588 0090 04AF     		add	r7, sp, #16
 8589 0092 3068     		ldr	r0, [r6]	@ unaligned
 8590 0094 7168     		ldr	r1, [r6, #4]	@ unaligned
 8591 0096 B268     		ldr	r2, [r6, #8]	@ unaligned
 8592 0098 F368     		ldr	r3, [r6, #12]	@ unaligned
 8593 009a 3C46     		mov	r4, r7
 8594 009c 0FC4     		stmia	r4!, {r0, r1, r2, r3}
 8595 009e 3069     		ldr	r0, [r6, #16]	@ unaligned
 8596 00a0 7169     		ldr	r1, [r6, #20]	@ unaligned
 8597 00a2 B269     		ldr	r2, [r6, #24]	@ unaligned
 8598 00a4 F369     		ldr	r3, [r6, #28]	@ unaligned
 8599 00a6 2AAE     		add	r6, sp, #168
 8600 00a8 0FC4     		stmia	r4!, {r0, r1, r2, r3}
ARM GAS  /tmp/cc2a13AN.s 			page 152


 8601 00aa 5822     		movs	r2, #88
 8602 00ac 2946     		mov	r1, r5
 8603 00ae 3046     		mov	r0, r6
 8604 00b0 FFF7FEFF 		bl	memcpy
 8605 00b4 0099     		ldr	r1, [sp]
 8606 00b6 3046     		mov	r0, r6
 8607 00b8 FFF7FEFF 		bl	follow_path
 8608 00bc 0446     		mov	r4, r0
 8609 00be 0028     		cmp	r0, #0
 8610 00c0 66D1     		bne	.L2373
 8611 00c2 B268     		ldr	r2, [r6, #8]
 8612 00c4 AB68     		ldr	r3, [r5, #8]
 8613 00c6 9A42     		cmp	r2, r3
 8614 00c8 00F0CA80 		beq	.L2374
 8615              	.L2415:
 8616 00cc 0398     		ldr	r0, [sp, #12]
 8617 00ce 0028     		cmp	r0, #0
 8618 00d0 00F0CC80 		beq	.L2419
 8619 00d4 0824     		movs	r4, #8
 8620 00d6 C7E7     		b	.L2366
 8621              	.L2418:
 8622 00d8 1C69     		ldr	r4, [r3, #16]
 8623 00da 04AF     		add	r7, sp, #16
 8624 00dc BC46     		mov	ip, r7
 8625 00de 04F1400E 		add	lr, r4, #64
 8626              	.L2363:
 8627 00e2 2068     		ldr	r0, [r4]	@ unaligned
 8628 00e4 6168     		ldr	r1, [r4, #4]	@ unaligned
 8629 00e6 A268     		ldr	r2, [r4, #8]	@ unaligned
 8630 00e8 E368     		ldr	r3, [r4, #12]	@ unaligned
 8631 00ea 6646     		mov	r6, ip
 8632 00ec 0FC6     		stmia	r6!, {r0, r1, r2, r3}
 8633 00ee 1034     		adds	r4, r4, #16
 8634 00f0 7445     		cmp	r4, lr
 8635 00f2 B446     		mov	ip, r6
 8636 00f4 F5D1     		bne	.L2363
 8637 00f6 2AAE     		add	r6, sp, #168
 8638 00f8 5822     		movs	r2, #88
 8639 00fa 2946     		mov	r1, r5
 8640 00fc 3046     		mov	r0, r6
 8641 00fe FFF7FEFF 		bl	memcpy
 8642 0102 0099     		ldr	r1, [sp]
 8643 0104 3046     		mov	r0, r6
 8644 0106 FFF7FEFF 		bl	follow_path
 8645 010a 0446     		mov	r4, r0
 8646 010c 0028     		cmp	r0, #0
 8647 010e 00F09C80 		beq	.L2420
 8648 0112 0428     		cmp	r0, #4
 8649 0114 84D1     		bne	.L2360
 8650              	.L2368:
 8651 0116 3046     		mov	r0, r6
 8652 0118 FFF7FEFF 		bl	dir_register
 8653 011c 0446     		mov	r4, r0
 8654 011e 0028     		cmp	r0, #0
 8655 0120 7FF47EAF 		bne	.L2360
 8656 0124 039B     		ldr	r3, [sp, #12]
 8657 0126 1B69     		ldr	r3, [r3, #16]
ARM GAS  /tmp/cc2a13AN.s 			page 153


 8658 0128 93F80190 		ldrb	r9, [r3, #1]	@ zero_extendqisi2
 8659 012c 93F82380 		ldrb	r8, [r3, #35]	@ zero_extendqisi2
 8660 0130 B3F824E0 		ldrh	lr, [r3, #36]	@ unaligned
 8661 0134 9C46     		mov	ip, r3
 8662              	.L2370:
 8663 0136 3C46     		mov	r4, r7
 8664 0138 0FCC     		ldmia	r4!, {r0, r1, r2, r3}
 8665 013a AC42     		cmp	r4, r5
 8666 013c 0CF1100C 		add	ip, ip, #16
 8667 0140 07F11007 		add	r7, r7, #16
 8668 0144 4CF8100C 		str	r0, [ip, #-16]	@ unaligned
 8669 0148 4CF80C1C 		str	r1, [ip, #-12]	@ unaligned
 8670 014c 4CF8082C 		str	r2, [ip, #-8]	@ unaligned
 8671 0150 4CF8043C 		str	r3, [ip, #-4]	@ unaligned
 8672 0154 EFD1     		bne	.L2370
 8673 0156 039B     		ldr	r3, [sp, #12]
 8674 0158 1B69     		ldr	r3, [r3, #16]
 8675 015a 83F80190 		strb	r9, [r3, #1]
 8676 015e 039B     		ldr	r3, [sp, #12]
 8677 0160 1A69     		ldr	r2, [r3, #16]
 8678 0162 82F82380 		strb	r8, [r2, #35]
 8679 0166 1A69     		ldr	r2, [r3, #16]
 8680 0168 4FEA1E21 		lsr	r1, lr, #8
 8681 016c 82F824E0 		strb	lr, [r2, #36]
 8682 0170 82F82510 		strb	r1, [r2, #37]
 8683 0174 1A69     		ldr	r2, [r3, #16]
 8684 0176 1379     		ldrb	r3, [r2, #4]	@ zero_extendqisi2
 8685 0178 D806     		lsls	r0, r3, #27
 8686 017a 5CBF     		itt	pl
 8687 017c 43F02003 		orrpl	r3, r3, #32
 8688 0180 1371     		strbpl	r3, [r2, #4]
 8689 0182 3046     		mov	r0, r6
 8690 0184 FFF7FEFF 		bl	store_xdir
 8691 0188 0446     		mov	r4, r0
 8692 018a 0028     		cmp	r0, #0
 8693 018c 51D0     		beq	.L2372
 8694 018e 47E7     		b	.L2360
 8695              	.L2373:
 8696 0190 0428     		cmp	r0, #4
 8697 0192 7FF445AF 		bne	.L2360
 8698              	.L2375:
 8699 0196 3046     		mov	r0, r6
 8700 0198 FFF7FEFF 		bl	dir_register
 8701 019c 0446     		mov	r4, r0
 8702 019e 0028     		cmp	r0, #0
 8703 01a0 7FF43EAF 		bne	.L2360
 8704 01a4 F36B     		ldr	r3, [r6, #60]
 8705 01a6 DDF81D10 		ldr	r1, [sp, #29]	@ unaligned
 8706 01aa C3F80D10 		str	r1, [r3, #13]	@ unaligned
 8707 01ae DDF82110 		ldr	r1, [sp, #33]	@ unaligned
 8708 01b2 C3F81110 		str	r1, [r3, #17]	@ unaligned
 8709 01b6 DDF82510 		ldr	r1, [sp, #37]	@ unaligned
 8710 01ba C3F81510 		str	r1, [r3, #21]	@ unaligned
 8711 01be DDF82910 		ldr	r1, [sp, #41]	@ unaligned
 8712 01c2 FA7A     		ldrb	r2, [r7, #11]	@ zero_extendqisi2
 8713 01c4 C3F81910 		str	r1, [r3, #25]	@ unaligned
 8714 01c8 BDF82D10 		ldrh	r1, [sp, #45]	@ unaligned
ARM GAS  /tmp/cc2a13AN.s 			page 154


 8715 01cc A3F81D10 		strh	r1, [r3, #29]	@ unaligned
 8716 01d0 9DF82F10 		ldrb	r1, [sp, #47]	@ zero_extendqisi2
 8717 01d4 D977     		strb	r1, [r3, #31]
 8718 01d6 D106     		lsls	r1, r2, #27
 8719 01d8 4AD4     		bmi	.L2376
 8720 01da 42F02002 		orr	r2, r2, #32
 8721 01de DA72     		strb	r2, [r3, #11]
 8722              	.L2377:
 8723 01e0 0398     		ldr	r0, [sp, #12]
 8724 01e2 0122     		movs	r2, #1
 8725 01e4 C270     		strb	r2, [r0, #3]
 8726 01e6 DA7A     		ldrb	r2, [r3, #11]	@ zero_extendqisi2
 8727 01e8 D206     		lsls	r2, r2, #27
 8728 01ea 22D5     		bpl	.L2372
 8729 01ec A968     		ldr	r1, [r5, #8]
 8730 01ee B268     		ldr	r2, [r6, #8]
 8731 01f0 9142     		cmp	r1, r2
 8732 01f2 1ED0     		beq	.L2372
 8733 01f4 0178     		ldrb	r1, [r0]	@ zero_extendqisi2
 8734 01f6 5A8B     		ldrh	r2, [r3, #26]	@ unaligned
 8735 01f8 0329     		cmp	r1, #3
 8736 01fa 04BF     		itt	eq
 8737 01fc 9B8A     		ldrheq	r3, [r3, #20]	@ unaligned
 8738 01fe 42EA0342 		orreq	r2, r2, r3, lsl #16
 8739 0202 036B     		ldr	r3, [r0, #48]
 8740 0204 023A     		subs	r2, r2, #2
 8741 0206 023B     		subs	r3, r3, #2
 8742 0208 9A42     		cmp	r2, r3
 8743 020a 33D2     		bcs	.L2389
 8744 020c 4189     		ldrh	r1, [r0, #10]
 8745 020e 436C     		ldr	r3, [r0, #68]
 8746 0210 02FB0131 		mla	r1, r2, r1, r3
 8747 0214 71B3     		cbz	r1, .L2389
 8748 0216 C36C     		ldr	r3, [r0, #76]
 8749 0218 9942     		cmp	r1, r3
 8750 021a 06D0     		beq	.L2411
 8751 021c FFF7FEFF 		bl	move_window.part.0
 8752 0220 0446     		mov	r4, r0
 8753 0222 0028     		cmp	r0, #0
 8754 0224 7FF4FCAE 		bne	.L2360
 8755 0228 0398     		ldr	r0, [sp, #12]
 8756              	.L2411:
 8757 022a 90F87130 		ldrb	r3, [r0, #113]	@ zero_extendqisi2
 8758 022e 2E2B     		cmp	r3, #46
 8759 0230 22D0     		beq	.L2421
 8760              	.L2372:
 8761 0232 2846     		mov	r0, r5
 8762 0234 FFF7FEFF 		bl	dir_remove
 8763 0238 0446     		mov	r4, r0
 8764 023a 0028     		cmp	r0, #0
 8765 023c 7FF4F0AE 		bne	.L2360
 8766 0240 0398     		ldr	r0, [sp, #12]
 8767 0242 FFF7FEFF 		bl	sync_fs
 8768 0246 0446     		mov	r4, r0
 8769 0248 EAE6     		b	.L2360
 8770              	.L2420:
 8771 024a B268     		ldr	r2, [r6, #8]
ARM GAS  /tmp/cc2a13AN.s 			page 155


 8772 024c AB68     		ldr	r3, [r5, #8]
 8773 024e 9A42     		cmp	r2, r3
 8774 0250 7FF43CAF 		bne	.L2415
 8775 0254 326B     		ldr	r2, [r6, #48]
 8776 0256 2B6B     		ldr	r3, [r5, #48]
 8777 0258 9A42     		cmp	r2, r3
 8778 025a 7FF437AF 		bne	.L2415
 8779 025e 5AE7     		b	.L2368
 8780              	.L2374:
 8781 0260 326B     		ldr	r2, [r6, #48]
 8782 0262 2B6B     		ldr	r3, [r5, #48]
 8783 0264 9A42     		cmp	r2, r3
 8784 0266 7FF431AF 		bne	.L2415
 8785 026a 94E7     		b	.L2375
 8786              	.L2419:
 8787 026c 0824     		movs	r4, #8
 8788 026e DFE6     		b	.L2391
 8789              	.L2376:
 8790 0270 DA72     		strb	r2, [r3, #11]
 8791 0272 B5E7     		b	.L2377
 8792              	.L2389:
 8793 0274 0224     		movs	r4, #2
 8794 0276 F7E6     		b	.L2366
 8795              	.L2421:
 8796 0278 B368     		ldr	r3, [r6, #8]
 8797 027a 039A     		ldr	r2, [sp, #12]
 8798 027c 80F88A30 		strb	r3, [r0, #138]
 8799 0280 C3F30721 		ubfx	r1, r3, #8, #8
 8800 0284 80F88B10 		strb	r1, [r0, #139]
 8801 0288 1178     		ldrb	r1, [r2]	@ zero_extendqisi2
 8802 028a 0329     		cmp	r1, #3
 8803 028c 05D1     		bne	.L2382
 8804 028e 1B0C     		lsrs	r3, r3, #16
 8805 0290 80F88430 		strb	r3, [r0, #132]
 8806 0294 1B0A     		lsrs	r3, r3, #8
 8807 0296 80F88530 		strb	r3, [r0, #133]
 8808              	.L2382:
 8809 029a 0123     		movs	r3, #1
 8810 029c D370     		strb	r3, [r2, #3]
 8811 029e C8E7     		b	.L2372
 8812              		.size	f_rename, .-f_rename
 8813              		.section	.text.f_chmod,"ax",%progbits
 8814              		.align	1
 8815              		.p2align 4,,15
 8816              		.global	f_chmod
 8817              		.syntax unified
 8818              		.thumb
 8819              		.thumb_func
 8820              		.fpu fpv4-sp-d16
 8821              		.type	f_chmod, %function
 8822              	f_chmod:
 8823              		@ args = 0, pretend = 0, frame = 1224
 8824              		@ frame_needed = 0, uses_anonymous_args = 0
 8825 0000 70B5     		push	{r4, r5, r6, lr}
 8826 0002 ADF5996D 		sub	sp, sp, #1224
 8827 0006 0E46     		mov	r6, r1
 8828 0008 0190     		str	r0, [sp, #4]
ARM GAS  /tmp/cc2a13AN.s 			page 156


 8829 000a 1546     		mov	r5, r2
 8830 000c 03A9     		add	r1, sp, #12
 8831 000e 0222     		movs	r2, #2
 8832 0010 01A8     		add	r0, sp, #4
 8833 0012 FFF7FEFF 		bl	mount_volume
 8834 0016 0446     		mov	r4, r0
 8835 0018 58B1     		cbz	r0, .L2443
 8836              	.L2423:
 8837 001a 039B     		ldr	r3, [sp, #12]
 8838 001c 2BB1     		cbz	r3, .L2426
 8839 001e 0C2C     		cmp	r4, #12
 8840 0020 03D0     		beq	.L2426
 8841 0022 0B2C     		cmp	r4, #11
 8842 0024 01D0     		beq	.L2426
 8843 0026 0F2C     		cmp	r4, #15
 8844 0028 2CD1     		bne	.L2425
 8845              	.L2426:
 8846 002a 2046     		mov	r0, r4
 8847 002c 0DF5996D 		add	sp, sp, #1224
 8848              		@ sp needed
 8849 0030 70BD     		pop	{r4, r5, r6, pc}
 8850              	.L2443:
 8851 0032 039B     		ldr	r3, [sp, #12]
 8852 0034 0199     		ldr	r1, [sp, #4]
 8853 0036 0493     		str	r3, [sp, #16]
 8854 0038 1AAA     		add	r2, sp, #104
 8855 003a DA60     		str	r2, [r3, #12]
 8856 003c 9AAA     		add	r2, sp, #616
 8857 003e 1A61     		str	r2, [r3, #16]
 8858 0040 04A8     		add	r0, sp, #16
 8859 0042 FFF7FEFF 		bl	follow_path
 8860 0046 0446     		mov	r4, r0
 8861 0048 0028     		cmp	r0, #0
 8862 004a E6D1     		bne	.L2423
 8863 004c 9DF85B30 		ldrb	r3, [sp, #91]	@ zero_extendqisi2
 8864 0050 13F0A00F 		tst	r3, #160
 8865 0054 12D1     		bne	.L2444
 8866 0056 0398     		ldr	r0, [sp, #12]
 8867 0058 0378     		ldrb	r3, [r0]	@ zero_extendqisi2
 8868 005a 042B     		cmp	r3, #4
 8869 005c 05F02702 		and	r2, r5, #39
 8870 0060 17D0     		beq	.L2445
 8871 0062 139C     		ldr	r4, [sp, #76]
 8872 0064 E37A     		ldrb	r3, [r4, #11]	@ zero_extendqisi2
 8873 0066 83EA0601 		eor	r1, r3, r6
 8874 006a 0A40     		ands	r2, r2, r1
 8875 006c 0125     		movs	r5, #1
 8876 006e 5A40     		eors	r2, r2, r3
 8877 0070 E272     		strb	r2, [r4, #11]
 8878 0072 C570     		strb	r5, [r0, #3]
 8879              	.L2428:
 8880 0074 FFF7FEFF 		bl	sync_fs
 8881 0078 0446     		mov	r4, r0
 8882 007a CEE7     		b	.L2423
 8883              	.L2444:
 8884 007c 039B     		ldr	r3, [sp, #12]
 8885 007e 0624     		movs	r4, #6
ARM GAS  /tmp/cc2a13AN.s 			page 157


 8886 0080 002B     		cmp	r3, #0
 8887 0082 D2D0     		beq	.L2426
 8888              	.L2425:
 8889 0084 5869     		ldr	r0, [r3, #20]
 8890 0086 FFF7FEFF 		bl	ff_rel_grant
 8891 008a 2046     		mov	r0, r4
 8892 008c 0DF5996D 		add	sp, sp, #1224
 8893              		@ sp needed
 8894 0090 70BD     		pop	{r4, r5, r6, pc}
 8895              	.L2445:
 8896 0092 0469     		ldr	r4, [r0, #16]
 8897 0094 2379     		ldrb	r3, [r4, #4]	@ zero_extendqisi2
 8898 0096 83EA0601 		eor	r1, r3, r6
 8899 009a 0A40     		ands	r2, r2, r1
 8900 009c 5A40     		eors	r2, r2, r3
 8901 009e 2271     		strb	r2, [r4, #4]
 8902 00a0 04A8     		add	r0, sp, #16
 8903 00a2 FFF7FEFF 		bl	store_xdir
 8904 00a6 0446     		mov	r4, r0
 8905 00a8 0028     		cmp	r0, #0
 8906 00aa B6D1     		bne	.L2423
 8907 00ac 0398     		ldr	r0, [sp, #12]
 8908 00ae E1E7     		b	.L2428
 8909              		.size	f_chmod, .-f_chmod
 8910              		.section	.text.f_utime,"ax",%progbits
 8911              		.align	1
 8912              		.p2align 4,,15
 8913              		.global	f_utime
 8914              		.syntax unified
 8915              		.thumb
 8916              		.thumb_func
 8917              		.fpu fpv4-sp-d16
 8918              		.type	f_utime, %function
 8919              	f_utime:
 8920              		@ args = 0, pretend = 0, frame = 1224
 8921              		@ frame_needed = 0, uses_anonymous_args = 0
 8922 0000 30B5     		push	{r4, r5, lr}
 8923 0002 ADF2CC4D 		subw	sp, sp, #1228
 8924 0006 0D46     		mov	r5, r1
 8925 0008 0190     		str	r0, [sp, #4]
 8926 000a 0222     		movs	r2, #2
 8927 000c 03A9     		add	r1, sp, #12
 8928 000e 01A8     		add	r0, sp, #4
 8929 0010 FFF7FEFF 		bl	mount_volume
 8930 0014 0446     		mov	r4, r0
 8931 0016 58B1     		cbz	r0, .L2467
 8932              	.L2447:
 8933 0018 039B     		ldr	r3, [sp, #12]
 8934 001a 2BB1     		cbz	r3, .L2450
 8935 001c 0C2C     		cmp	r4, #12
 8936 001e 03D0     		beq	.L2450
 8937 0020 0B2C     		cmp	r4, #11
 8938 0022 01D0     		beq	.L2450
 8939 0024 0F2C     		cmp	r4, #15
 8940 0026 2FD1     		bne	.L2449
 8941              	.L2450:
 8942 0028 2046     		mov	r0, r4
ARM GAS  /tmp/cc2a13AN.s 			page 158


 8943 002a 0DF2CC4D 		addw	sp, sp, #1228
 8944              		@ sp needed
 8945 002e 30BD     		pop	{r4, r5, pc}
 8946              	.L2467:
 8947 0030 039B     		ldr	r3, [sp, #12]
 8948 0032 0199     		ldr	r1, [sp, #4]
 8949 0034 0493     		str	r3, [sp, #16]
 8950 0036 1AAA     		add	r2, sp, #104
 8951 0038 DA60     		str	r2, [r3, #12]
 8952 003a 9AAA     		add	r2, sp, #616
 8953 003c 1A61     		str	r2, [r3, #16]
 8954 003e 04A8     		add	r0, sp, #16
 8955 0040 FFF7FEFF 		bl	follow_path
 8956 0044 0446     		mov	r4, r0
 8957 0046 0028     		cmp	r0, #0
 8958 0048 E6D1     		bne	.L2447
 8959 004a 9DF85B30 		ldrb	r3, [sp, #91]	@ zero_extendqisi2
 8960 004e 13F0A00F 		tst	r3, #160
 8961 0052 15D1     		bne	.L2468
 8962 0054 0398     		ldr	r0, [sp, #12]
 8963 0056 2A89     		ldrh	r2, [r5, #8]
 8964 0058 0378     		ldrb	r3, [r0]	@ zero_extendqisi2
 8965 005a 042B     		cmp	r3, #4
 8966 005c 6B89     		ldrh	r3, [r5, #10]
 8967 005e 43EA0243 		orr	r3, r3, r2, lsl #16
 8968 0062 18D0     		beq	.L2469
 8969 0064 139A     		ldr	r2, [sp, #76]
 8970 0066 190A     		lsrs	r1, r3, #8
 8971 0068 D175     		strb	r1, [r2, #23]
 8972 006a 190C     		lsrs	r1, r3, #16
 8973 006c 9375     		strb	r3, [r2, #22]
 8974 006e 1176     		strb	r1, [r2, #24]
 8975 0070 1B0E     		lsrs	r3, r3, #24
 8976 0072 0121     		movs	r1, #1
 8977 0074 5376     		strb	r3, [r2, #25]
 8978 0076 C170     		strb	r1, [r0, #3]
 8979              	.L2452:
 8980 0078 FFF7FEFF 		bl	sync_fs
 8981 007c 0446     		mov	r4, r0
 8982 007e CBE7     		b	.L2447
 8983              	.L2468:
 8984 0080 039B     		ldr	r3, [sp, #12]
 8985 0082 0624     		movs	r4, #6
 8986 0084 002B     		cmp	r3, #0
 8987 0086 CFD0     		beq	.L2450
 8988              	.L2449:
 8989 0088 5869     		ldr	r0, [r3, #20]
 8990 008a FFF7FEFF 		bl	ff_rel_grant
 8991 008e 2046     		mov	r0, r4
 8992 0090 0DF2CC4D 		addw	sp, sp, #1228
 8993              		@ sp needed
 8994 0094 30BD     		pop	{r4, r5, pc}
 8995              	.L2469:
 8996 0096 0269     		ldr	r2, [r0, #16]
 8997 0098 190A     		lsrs	r1, r3, #8
 8998 009a 1373     		strb	r3, [r2, #12]
 8999 009c 5173     		strb	r1, [r2, #13]
ARM GAS  /tmp/cc2a13AN.s 			page 159


 9000 009e 190C     		lsrs	r1, r3, #16
 9001 00a0 1B0E     		lsrs	r3, r3, #24
 9002 00a2 9173     		strb	r1, [r2, #14]
 9003 00a4 D373     		strb	r3, [r2, #15]
 9004 00a6 04A8     		add	r0, sp, #16
 9005 00a8 FFF7FEFF 		bl	store_xdir
 9006 00ac 0446     		mov	r4, r0
 9007 00ae 0028     		cmp	r0, #0
 9008 00b0 B2D1     		bne	.L2447
 9009 00b2 0398     		ldr	r0, [sp, #12]
 9010 00b4 E0E7     		b	.L2452
 9011              		.size	f_utime, .-f_utime
 9012 00b6 00BF     		.section	.text.f_getlabel,"ax",%progbits
 9013              		.align	1
 9014              		.p2align 4,,15
 9015              		.global	f_getlabel
 9016              		.syntax unified
 9017              		.thumb
 9018              		.thumb_func
 9019              		.fpu fpv4-sp-d16
 9020              		.type	f_getlabel, %function
 9021              	f_getlabel:
 9022              		@ args = 0, pretend = 0, frame = 104
 9023              		@ frame_needed = 0, uses_anonymous_args = 0
 9024 0000 2DE9F047 		push	{r4, r5, r6, r7, r8, r9, r10, lr}
 9025 0004 9AB0     		sub	sp, sp, #104
 9026 0006 0E46     		mov	r6, r1
 9027 0008 0190     		str	r0, [sp, #4]
 9028 000a 1746     		mov	r7, r2
 9029 000c 03A9     		add	r1, sp, #12
 9030 000e 0022     		movs	r2, #0
 9031 0010 01A8     		add	r0, sp, #4
 9032 0012 FFF7FEFF 		bl	mount_volume
 9033 0016 0446     		mov	r4, r0
 9034 0018 38B1     		cbz	r0, .L2542
 9035              	.L2471:
 9036 001a 039D     		ldr	r5, [sp, #12]
 9037 001c 0DB1     		cbz	r5, .L2508
 9038 001e 0C2C     		cmp	r4, #12
 9039 0020 6DD1     		bne	.L2543
 9040              	.L2508:
 9041 0022 2046     		mov	r0, r4
 9042 0024 1AB0     		add	sp, sp, #104
 9043              		@ sp needed
 9044 0026 BDE8F087 		pop	{r4, r5, r6, r7, r8, r9, r10, pc}
 9045              	.L2542:
 9046 002a 002E     		cmp	r6, #0
 9047 002c 32D0     		beq	.L2472
 9048 002e 039B     		ldr	r3, [sp, #12]
 9049 0030 0690     		str	r0, [sp, #24]
 9050 0032 0146     		mov	r1, r0
 9051 0034 04A8     		add	r0, sp, #16
 9052 0036 0493     		str	r3, [sp, #16]
 9053 0038 FFF7FEFF 		bl	dir_sdi
 9054 003c 0028     		cmp	r0, #0
 9055 003e 32D0     		beq	.L2544
 9056              	.L2473:
ARM GAS  /tmp/cc2a13AN.s 			page 160


 9057 0040 0428     		cmp	r0, #4
 9058 0042 5AD1     		bne	.L2538
 9059 0044 0023     		movs	r3, #0
 9060 0046 039D     		ldr	r5, [sp, #12]
 9061 0048 3370     		strb	r3, [r6]
 9062 004a 002F     		cmp	r7, #0
 9063 004c 61D0     		beq	.L2540
 9064              	.L2489:
 9065 004e AE6B     		ldr	r6, [r5, #56]
 9066 0050 EB6C     		ldr	r3, [r5, #76]
 9067 0052 9E42     		cmp	r6, r3
 9068 0054 0DD0     		beq	.L2493
 9069 0056 EB78     		ldrb	r3, [r5, #3]	@ zero_extendqisi2
 9070 0058 002B     		cmp	r3, #0
 9071 005a 49D1     		bne	.L2545
 9072              	.L2494:
 9073 005c 6878     		ldrb	r0, [r5, #1]	@ zero_extendqisi2
 9074 005e 0123     		movs	r3, #1
 9075 0060 3246     		mov	r2, r6
 9076 0062 05F15001 		add	r1, r5, #80
 9077 0066 FFF7FEFF 		bl	disk_read
 9078 006a 0028     		cmp	r0, #0
 9079 006c 4CD1     		bne	.L2546
 9080 006e EE64     		str	r6, [r5, #76]
 9081 0070 039D     		ldr	r5, [sp, #12]
 9082              	.L2493:
 9083 0072 2B78     		ldrb	r3, [r5]	@ zero_extendqisi2
 9084 0074 032B     		cmp	r3, #3
 9085 0076 39D0     		beq	.L2505
 9086 0078 042B     		cmp	r3, #4
 9087 007a 14BF     		ite	ne
 9088 007c 2723     		movne	r3, #39
 9089 007e 6423     		moveq	r3, #100
 9090              	.L2495:
 9091 0080 2B44     		add	r3, r3, r5
 9092 0082 1B6D     		ldr	r3, [r3, #80]	@ unaligned
 9093 0084 3B60     		str	r3, [r7]
 9094              	.L2490:
 9095 0086 6869     		ldr	r0, [r5, #20]
 9096 0088 FFF7FEFF 		bl	ff_rel_grant
 9097 008c 2046     		mov	r0, r4
 9098 008e 1AB0     		add	sp, sp, #104
 9099              		@ sp needed
 9100 0090 BDE8F087 		pop	{r4, r5, r6, r7, r8, r9, r10, pc}
 9101              	.L2472:
 9102 0094 039D     		ldr	r5, [sp, #12]
 9103 0096 002F     		cmp	r7, #0
 9104 0098 D9D1     		bne	.L2489
 9105              	.L2492:
 9106 009a 002D     		cmp	r5, #0
 9107 009c F3D1     		bne	.L2490
 9108 009e 2046     		mov	r0, r4
 9109 00a0 1AB0     		add	sp, sp, #104
 9110              		@ sp needed
 9111 00a2 BDE8F087 		pop	{r4, r5, r6, r7, r8, r9, r10, pc}
 9112              	.L2544:
 9113 00a6 0121     		movs	r1, #1
ARM GAS  /tmp/cc2a13AN.s 			page 161


 9114 00a8 04A8     		add	r0, sp, #16
 9115 00aa FFF7FEFF 		bl	dir_read
 9116 00ae 0028     		cmp	r0, #0
 9117 00b0 C6D1     		bne	.L2473
 9118 00b2 039D     		ldr	r5, [sp, #12]
 9119 00b4 2B78     		ldrb	r3, [r5]	@ zero_extendqisi2
 9120 00b6 042B     		cmp	r3, #4
 9121 00b8 2A46     		mov	r2, r5
 9122 00ba 2DD0     		beq	.L2547
 9123 00bc 1398     		ldr	r0, [sp, #76]
 9124 00be 721E     		subs	r2, r6, #1
 9125 00c0 431E     		subs	r3, r0, #1
 9126 00c2 0A30     		adds	r0, r0, #10
 9127              	.L2484:
 9128 00c4 13F8011F 		ldrb	r1, [r3, #1]!	@ zero_extendqisi2
 9129 00c8 02F8011F 		strb	r1, [r2, #1]!
 9130 00cc 8342     		cmp	r3, r0
 9131 00ce F9D1     		bne	.L2484
 9132 00d0 3346     		mov	r3, r6
 9133 00d2 0021     		movs	r1, #0
 9134 00d4 03F80B1F 		strb	r1, [r3, #11]!
 9135              	.L2501:
 9136 00d8 13F8012D 		ldrb	r2, [r3, #-1]!	@ zero_extendqisi2
 9137 00dc 202A     		cmp	r2, #32
 9138 00de 02D1     		bne	.L2486
 9139 00e0 B342     		cmp	r3, r6
 9140 00e2 1970     		strb	r1, [r3]
 9141 00e4 F8D1     		bne	.L2501
 9142              	.L2486:
 9143 00e6 002F     		cmp	r7, #0
 9144 00e8 B1D1     		bne	.L2489
 9145 00ea CCE7     		b	.L2490
 9146              	.L2505:
 9147 00ec 4323     		movs	r3, #67
 9148 00ee C7E7     		b	.L2495
 9149              	.L2545:
 9150 00f0 2846     		mov	r0, r5
 9151 00f2 FFF7FEFF 		bl	sync_window.part.0
 9152 00f6 0028     		cmp	r0, #0
 9153 00f8 B0D0     		beq	.L2494
 9154              	.L2538:
 9155 00fa 0446     		mov	r4, r0
 9156 00fc 8DE7     		b	.L2471
 9157              	.L2543:
 9158 00fe 0B2C     		cmp	r4, #11
 9159 0100 8FD0     		beq	.L2508
 9160 0102 0F2C     		cmp	r4, #15
 9161 0104 8DD0     		beq	.L2508
 9162 0106 BEE7     		b	.L2490
 9163              	.L2546:
 9164 0108 4FF0FF33 		mov	r3, #-1
 9165 010c EB64     		str	r3, [r5, #76]
 9166 010e 039D     		ldr	r5, [sp, #12]
 9167 0110 0124     		movs	r4, #1
 9168              	.L2540:
 9169 0112 002D     		cmp	r5, #0
 9170 0114 B7D1     		bne	.L2490
ARM GAS  /tmp/cc2a13AN.s 			page 162


 9171 0116 84E7     		b	.L2508
 9172              	.L2547:
 9173 0118 139B     		ldr	r3, [sp, #76]
 9174 011a 5978     		ldrb	r1, [r3, #1]	@ zero_extendqisi2
 9175 011c A1B3     		cbz	r1, .L2476
 9176 011e A146     		mov	r9, r4
 9177 0120 A046     		mov	r8, r4
 9178 0122 2546     		mov	r5, r4
 9179 0124 0BE0     		b	.L2475
 9180              	.L2548:
 9181 0126 06F80830 		strb	r3, [r6, r8]
 9182 012a 0222     		movs	r2, #2
 9183 012c 8AF80100 		strb	r0, [r10, #1]
 9184              	.L2480:
 9185 0130 139B     		ldr	r3, [sp, #76]
 9186 0132 4FF00009 		mov	r9, #0
 9187 0136 9044     		add	r8, r8, r2
 9188              	.L2478:
 9189 0138 5A78     		ldrb	r2, [r3, #1]	@ zero_extendqisi2
 9190 013a 9542     		cmp	r5, r2
 9191 013c 1FD2     		bcs	.L2481
 9192              	.L2475:
 9193 013e 0135     		adds	r5, r5, #1
 9194 0140 06EB080A 		add	r10, r6, r8
 9195 0144 33F81500 		ldrh	r0, [r3, r5, lsl #1]	@ unaligned
 9196 0148 B9F1000F 		cmp	r9, #0
 9197 014c 05D1     		bne	.L2477
 9198 014e 00F52052 		add	r2, r0, #10240
 9199 0152 92B2     		uxth	r2, r2
 9200 0154 B2F5006F 		cmp	r2, #2048
 9201 0158 0ED3     		bcc	.L2503
 9202              	.L2477:
 9203 015a 40EA0940 		orr	r0, r0, r9, lsl #16
 9204 015e 40F25231 		movw	r1, #850
 9205 0162 FFF7FEFF 		bl	ff_uni2oem
 9206 0166 FF28     		cmp	r0, #255
 9207 0168 4FEA1023 		lsr	r3, r0, #8
 9208 016c DBD8     		bhi	.L2548
 9209 016e 28B1     		cbz	r0, .L2504
 9210 0170 0122     		movs	r2, #1
 9211 0172 8AF80000 		strb	r0, [r10]
 9212 0176 DBE7     		b	.L2480
 9213              	.L2503:
 9214 0178 8146     		mov	r9, r0
 9215 017a DDE7     		b	.L2478
 9216              	.L2504:
 9217 017c 8046     		mov	r8, r0
 9218              	.L2481:
 9219 017e 039A     		ldr	r2, [sp, #12]
 9220 0180 B9F1000F 		cmp	r9, #0
 9221 0184 00D1     		bne	.L2476
 9222 0186 4644     		add	r6, r6, r8
 9223              	.L2476:
 9224 0188 0023     		movs	r3, #0
 9225 018a 3370     		strb	r3, [r6]
 9226 018c 1546     		mov	r5, r2
 9227 018e 002F     		cmp	r7, #0
ARM GAS  /tmp/cc2a13AN.s 			page 163


 9228 0190 7FF45DAF 		bne	.L2489
 9229 0194 81E7     		b	.L2492
 9230              		.size	f_getlabel, .-f_getlabel
 9231              		.section	.text.f_setlabel,"ax",%progbits
 9232              		.align	1
 9233              		.p2align 4,,15
 9234              		.global	f_setlabel
 9235              		.syntax unified
 9236              		.thumb
 9237              		.thumb_func
 9238              		.fpu fpv4-sp-d16
 9239              		.type	f_setlabel, %function
 9240              	f_setlabel:
 9241              		@ args = 0, pretend = 0, frame = 128
 9242              		@ frame_needed = 0, uses_anonymous_args = 0
 9243 0000 2DE9F043 		push	{r4, r5, r6, r7, r8, r9, lr}
 9244 0004 A1B0     		sub	sp, sp, #132
 9245 0006 0222     		movs	r2, #2
 9246 0008 0190     		str	r0, [sp, #4]
 9247 000a 03A9     		add	r1, sp, #12
 9248 000c 01A8     		add	r0, sp, #4
 9249 000e FFF7FEFF 		bl	mount_volume
 9250 0012 0546     		mov	r5, r0
 9251 0014 0028     		cmp	r0, #0
 9252 0016 68D1     		bne	.L2570
 9253 0018 039F     		ldr	r7, [sp, #12]
 9254 001a 3B78     		ldrb	r3, [r7]	@ zero_extendqisi2
 9255 001c 042B     		cmp	r3, #4
 9256 001e 04AE     		add	r6, sp, #16
 9257 0020 70D0     		beq	.L2645
 9258 0022 4FF02032 		mov	r2, #538976288
 9259 0026 019B     		ldr	r3, [sp, #4]
 9260 0028 0492     		str	r2, [sp, #16]
 9261 002a 7260     		str	r2, [r6, #4]
 9262 002c C6F80720 		str	r2, [r6, #7]	@ unaligned
 9263 0030 1878     		ldrb	r0, [r3]	@ zero_extendqisi2
 9264 0032 1F28     		cmp	r0, #31
 9265 0034 40F2AD80 		bls	.L2586
 9266 0038 734F     		ldr	r7, .L2651
 9267 003a 2C46     		mov	r4, r5
 9268 003c 14E0     		b	.L2567
 9269              	.L2565:
 9270 003e 092C     		cmp	r4, #9
 9271 0040 2AD8     		bhi	.L2642
 9272 0042 04F18003 		add	r3, r4, #128
 9273 0046 6B44     		add	r3, sp, r3
 9274 0048 2A0A     		lsrs	r2, r5, #8
 9275 004a 03F8702C 		strb	r2, [r3, #-112]
 9276 004e 0134     		adds	r4, r4, #1
 9277              	.L2584:
 9278 0050 04F18003 		add	r3, r4, #128
 9279 0054 0DEB0302 		add	r2, sp, r3
 9280 0058 019B     		ldr	r3, [sp, #4]
 9281 005a 02F8705C 		strb	r5, [r2, #-112]
 9282 005e 1878     		ldrb	r0, [r3]	@ zero_extendqisi2
 9283 0060 1F28     		cmp	r0, #31
 9284 0062 04F10104 		add	r4, r4, #1
ARM GAS  /tmp/cc2a13AN.s 			page 164


 9285 0066 7DD9     		bls	.L2646
 9286              	.L2567:
 9287 0068 40F25231 		movw	r1, #850
 9288 006c 5D1C     		adds	r5, r3, #1
 9289 006e FFF7FEFF 		bl	ff_oem2uni
 9290 0072 88B1     		cbz	r0, .L2642
 9291 0074 0195     		str	r5, [sp, #4]
 9292 0076 FFF7FEFF 		bl	ff_wtoupper
 9293 007a 40F25231 		movw	r1, #850
 9294 007e FFF7FEFF 		bl	ff_uni2oem
 9295 0082 0546     		mov	r5, r0
 9296 0084 2946     		mov	r1, r5
 9297 0086 3846     		mov	r0, r7
 9298 0088 35B1     		cbz	r5, .L2642
 9299 008a FFF7FEFF 		bl	strchr
 9300 008e 18B9     		cbnz	r0, .L2642
 9301 0090 FF2D     		cmp	r5, #255
 9302 0092 D4D8     		bhi	.L2565
 9303 0094 0A2C     		cmp	r4, #10
 9304 0096 DBD9     		bls	.L2584
 9305              	.L2642:
 9306 0098 039B     		ldr	r3, [sp, #12]
 9307 009a 13B1     		cbz	r3, .L2636
 9308 009c 5869     		ldr	r0, [r3, #20]
 9309 009e FFF7FEFF 		bl	ff_rel_grant
 9310              	.L2636:
 9311 00a2 0625     		movs	r5, #6
 9312              	.L2589:
 9313 00a4 2846     		mov	r0, r5
 9314 00a6 21B0     		add	sp, sp, #132
 9315              		@ sp needed
 9316 00a8 BDE8F083 		pop	{r4, r5, r6, r7, r8, r9, pc}
 9317              	.L2648:
 9318 00ac 039F     		ldr	r7, [sp, #12]
 9319              	.L2555:
 9320 00ae 0A97     		str	r7, [sp, #40]
 9321 00b0 0021     		movs	r1, #0
 9322 00b2 0AA8     		add	r0, sp, #40
 9323 00b4 0C91     		str	r1, [sp, #48]
 9324 00b6 FFF7FEFF 		bl	dir_sdi
 9325 00ba 0546     		mov	r5, r0
 9326 00bc A8B9     		cbnz	r0, .L2570
 9327 00be 0121     		movs	r1, #1
 9328 00c0 0AA8     		add	r0, sp, #40
 9329 00c2 FFF7FEFF 		bl	dir_read
 9330 00c6 0028     		cmp	r0, #0
 9331 00c8 5FD1     		bne	.L2571
 9332 00ca 039B     		ldr	r3, [sp, #12]
 9333 00cc 1B78     		ldrb	r3, [r3]	@ zero_extendqisi2
 9334 00ce 042B     		cmp	r3, #4
 9335 00d0 74D0     		beq	.L2637
 9336 00d2 002C     		cmp	r4, #0
 9337 00d4 40F08C80 		bne	.L2638
 9338 00d8 199B     		ldr	r3, [sp, #100]
 9339 00da E522     		movs	r2, #229
 9340 00dc 1A70     		strb	r2, [r3]
 9341              	.L2578:
ARM GAS  /tmp/cc2a13AN.s 			page 165


 9342 00de 0398     		ldr	r0, [sp, #12]
 9343 00e0 0123     		movs	r3, #1
 9344 00e2 C370     		strb	r3, [r0, #3]
 9345 00e4 FFF7FEFF 		bl	sync_fs
 9346 00e8 0546     		mov	r5, r0
 9347              	.L2570:
 9348 00ea 039B     		ldr	r3, [sp, #12]
 9349 00ec 002B     		cmp	r3, #0
 9350 00ee D9D0     		beq	.L2589
 9351 00f0 0C2D     		cmp	r5, #12
 9352 00f2 35D0     		beq	.L2579
 9353 00f4 0B2D     		cmp	r5, #11
 9354 00f6 46D0     		beq	.L2647
 9355 00f8 0F2D     		cmp	r5, #15
 9356 00fa D3D0     		beq	.L2589
 9357              	.L2576:
 9358 00fc 5869     		ldr	r0, [r3, #20]
 9359 00fe FFF7FEFF 		bl	ff_rel_grant
 9360 0102 CFE7     		b	.L2589
 9361              	.L2645:
 9362 0104 0490     		str	r0, [sp, #16]
 9363 0106 C6E90100 		strd	r0, r0, [r6, #4]
 9364 010a C6E90300 		strd	r0, r0, [r6, #12]
 9365 010e 019B     		ldr	r3, [sp, #4]
 9366 0110 B082     		strh	r0, [r6, #20]	@ movhi
 9367 0112 1878     		ldrb	r0, [r3]	@ zero_extendqisi2
 9368 0114 1F28     		cmp	r0, #31
 9369 0116 74D9     		bls	.L2585
 9370 0118 DFF8F090 		ldr	r9, .L2651+4
 9371 011c 3746     		mov	r7, r6
 9372 011e 03F10108 		add	r8, r3, #1
 9373 0122 2C46     		mov	r4, r5
 9374 0124 12E0     		b	.L2561
 9375              	.L2556:
 9376 0126 CDF80480 		str	r8, [sp, #4]
 9377 012a FFF7FEFF 		bl	strchr
 9378 012e 2B0A     		lsrs	r3, r5, #8
 9379 0130 0028     		cmp	r0, #0
 9380 0132 B1D1     		bne	.L2642
 9381 0134 0B2C     		cmp	r4, #11
 9382 0136 04F10104 		add	r4, r4, #1
 9383 013a ADD0     		beq	.L2642
 9384 013c 3D70     		strb	r5, [r7]
 9385 013e 7B70     		strb	r3, [r7, #1]
 9386 0140 18F8010B 		ldrb	r0, [r8], #1	@ zero_extendqisi2
 9387 0144 1F28     		cmp	r0, #31
 9388 0146 07F10207 		add	r7, r7, #2
 9389 014a AFD9     		bls	.L2648
 9390              	.L2561:
 9391 014c 40F25231 		movw	r1, #850
 9392 0150 FFF7FEFF 		bl	ff_oem2uni
 9393 0154 0546     		mov	r5, r0
 9394 0156 2946     		mov	r1, r5
 9395 0158 4846     		mov	r0, r9
 9396 015a 002D     		cmp	r5, #0
 9397 015c E3D1     		bne	.L2556
 9398 015e 9BE7     		b	.L2642
ARM GAS  /tmp/cc2a13AN.s 			page 166


 9399              	.L2579:
 9400 0160 0C25     		movs	r5, #12
 9401 0162 9FE7     		b	.L2589
 9402              	.L2646:
 9403 0164 9DF81030 		ldrb	r3, [sp, #16]	@ zero_extendqisi2
 9404 0168 E52B     		cmp	r3, #229
 9405 016a 95D0     		beq	.L2642
 9406 016c 039F     		ldr	r7, [sp, #12]
 9407              	.L2562:
 9408 016e 631E     		subs	r3, r4, #1
 9409 0170 3344     		add	r3, r3, r6
 9410 0172 04E0     		b	.L2569
 9411              	.L2649:
 9412 0174 13F80129 		ldrb	r2, [r3], #-1	@ zero_extendqisi2
 9413 0178 202A     		cmp	r2, #32
 9414 017a 98D1     		bne	.L2555
 9415 017c 0C46     		mov	r4, r1
 9416              	.L2569:
 9417 017e 611E     		subs	r1, r4, #1
 9418 0180 002C     		cmp	r4, #0
 9419 0182 F7D1     		bne	.L2649
 9420 0184 93E7     		b	.L2555
 9421              	.L2647:
 9422 0186 0B25     		movs	r5, #11
 9423 0188 8CE7     		b	.L2589
 9424              	.L2571:
 9425 018a 0428     		cmp	r0, #4
 9426 018c 28D0     		beq	.L2650
 9427 018e 0546     		mov	r5, r0
 9428 0190 ABE7     		b	.L2570
 9429              	.L2586:
 9430 0192 2C46     		mov	r4, r5
 9431 0194 EBE7     		b	.L2562
 9432              	.L2575:
 9433 0196 0121     		movs	r1, #1
 9434 0198 0AA8     		add	r0, sp, #40
 9435 019a FFF7FEFF 		bl	dir_alloc
 9436 019e 0546     		mov	r5, r0
 9437 01a0 0028     		cmp	r0, #0
 9438 01a2 A2D1     		bne	.L2570
 9439 01a4 1998     		ldr	r0, [sp, #100]
 9440 01a6 2022     		movs	r2, #32
 9441 01a8 2946     		mov	r1, r5
 9442 01aa FFF7FEFF 		bl	memset
 9443 01ae 039B     		ldr	r3, [sp, #12]
 9444 01b0 1B78     		ldrb	r3, [r3]	@ zero_extendqisi2
 9445 01b2 042B     		cmp	r3, #4
 9446 01b4 199B     		ldr	r3, [sp, #100]
 9447 01b6 19D1     		bne	.L2577
 9448 01b8 8322     		movs	r2, #131
 9449 01ba 1A70     		strb	r2, [r3]
 9450              	.L2637:
 9451 01bc 199B     		ldr	r3, [sp, #100]
 9452 01be 5C70     		strb	r4, [r3, #1]
 9453 01c0 0FCE     		ldmia	r6!, {r0, r1, r2, r3}
 9454 01c2 199C     		ldr	r4, [sp, #100]
 9455 01c4 C4F80200 		str	r0, [r4, #2]	@ unaligned
ARM GAS  /tmp/cc2a13AN.s 			page 167


 9456 01c8 C4F80610 		str	r1, [r4, #6]	@ unaligned
 9457 01cc C4F80A20 		str	r2, [r4, #10]	@ unaligned
 9458 01d0 C4F80E30 		str	r3, [r4, #14]	@ unaligned
 9459 01d4 3068     		ldr	r0, [r6]
 9460 01d6 C4F81200 		str	r0, [r4, #18]	@ unaligned
 9461 01da B388     		ldrh	r3, [r6, #4]	@ unaligned
 9462 01dc E382     		strh	r3, [r4, #22]	@ unaligned
 9463 01de 7EE7     		b	.L2578
 9464              	.L2650:
 9465 01e0 002C     		cmp	r4, #0
 9466 01e2 D8D1     		bne	.L2575
 9467 01e4 039B     		ldr	r3, [sp, #12]
 9468 01e6 002B     		cmp	r3, #0
 9469 01e8 88D1     		bne	.L2576
 9470 01ea 5BE7     		b	.L2589
 9471              	.L2577:
 9472 01ec 0822     		movs	r2, #8
 9473 01ee DA72     		strb	r2, [r3, #11]
 9474              	.L2638:
 9475 01f0 03CE     		ldmia	r6!, {r0, r1}
 9476 01f2 199B     		ldr	r3, [sp, #100]
 9477 01f4 1860     		str	r0, [r3]	@ unaligned
 9478 01f6 5960     		str	r1, [r3, #4]	@ unaligned
 9479 01f8 3288     		ldrh	r2, [r6]	@ unaligned
 9480 01fa B178     		ldrb	r1, [r6, #2]	@ zero_extendqisi2
 9481 01fc 9972     		strb	r1, [r3, #10]
 9482 01fe 1A81     		strh	r2, [r3, #8]	@ unaligned
 9483 0200 6DE7     		b	.L2578
 9484              	.L2585:
 9485 0202 2C46     		mov	r4, r5
 9486 0204 53E7     		b	.L2555
 9487              	.L2652:
 9488 0206 00BF     		.align	2
 9489              	.L2651:
 9490 0208 00000000 		.word	.LANCHOR6
 9491 020c 07000000 		.word	.LANCHOR6+7
 9492              		.size	f_setlabel, .-f_setlabel
 9493              		.section	.text.f_expand,"ax",%progbits
 9494              		.align	1
 9495              		.p2align 4,,15
 9496              		.global	f_expand
 9497              		.syntax unified
 9498              		.thumb
 9499              		.thumb_func
 9500              		.fpu fpv4-sp-d16
 9501              		.type	f_expand, %function
 9502              	f_expand:
 9503              		@ args = 4, pretend = 0, frame = 16
 9504              		@ frame_needed = 0, uses_anonymous_args = 0
 9505 0000 2DE9F04F 		push	{r4, r5, r6, r7, r8, r9, r10, fp, lr}
 9506 0004 85B0     		sub	sp, sp, #20
 9507 0006 0546     		mov	r5, r0
 9508 0008 9DF83810 		ldrb	r1, [sp, #56]	@ zero_extendqisi2
 9509 000c 0191     		str	r1, [sp, #4]
 9510 000e 03A9     		add	r1, sp, #12
 9511 0010 1646     		mov	r6, r2
 9512 0012 1F46     		mov	r7, r3
ARM GAS  /tmp/cc2a13AN.s 			page 168


 9513 0014 FFF7FEFF 		bl	validate
 9514 0018 0028     		cmp	r0, #0
 9515 001a 69D1     		bne	.L2722
 9516 001c 95F83140 		ldrb	r4, [r5, #49]	@ zero_extendqisi2
 9517 0020 002C     		cmp	r4, #0
 9518 0022 66D1     		bne	.L2654
 9519 0024 56EA0703 		orrs	r3, r6, r7
 9520 0028 58D0     		beq	.L2659
 9521 002a D5E90423 		ldrd	r2, r3, [r5, #16]
 9522 002e 1343     		orrs	r3, r2, r3
 9523 0030 54D1     		bne	.L2659
 9524 0032 95F83030 		ldrb	r3, [r5, #48]	@ zero_extendqisi2
 9525 0036 9A07     		lsls	r2, r3, #30
 9526 0038 50D5     		bpl	.L2659
 9527 003a DDF80CA0 		ldr	r10, [sp, #12]
 9528 003e 9AF80030 		ldrb	r3, [r10]	@ zero_extendqisi2
 9529 0042 042B     		cmp	r3, #4
 9530 0044 62D0     		beq	.L2662
 9531 0046 4FF0FF33 		mov	r3, #-1
 9532 004a B342     		cmp	r3, r6
 9533 004c 74EB0703 		sbcs	r3, r4, r7
 9534 0050 C0F01481 		bcc	.L2725
 9535 0054 BAF80A20 		ldrh	r2, [r10, #10]
 9536 0058 5202     		lsls	r2, r2, #9
 9537 005a 531E     		subs	r3, r2, #1
 9538 005c 3342     		tst	r3, r6
 9539 005e 3046     		mov	r0, r6
 9540 0060 2346     		mov	r3, r4
 9541 0062 3946     		mov	r1, r7
 9542 0064 14BF     		ite	ne
 9543 0066 4FF00109 		movne	r9, #1
 9544 006a 4FF00009 		moveq	r9, #0
 9545 006e FFF7FEFF 		bl	__aeabi_uldivmod
 9546 0072 DAF81880 		ldr	r8, [r10, #24]
 9547 0076 09EB0003 		add	r3, r9, r0
 9548 007a B8F1010F 		cmp	r8, #1
 9549 007e 0093     		str	r3, [sp]
 9550 0080 40F2B080 		bls	.L2704
 9551 0084 DAF83030 		ldr	r3, [r10, #48]
 9552 0088 9845     		cmp	r8, r3
 9553 008a 28BF     		it	cs
 9554 008c 4FF00208 		movcs	r8, #2
 9555              	.L2691:
 9556 0090 C246     		mov	r10, r8
 9557 0092 C146     		mov	r9, r8
 9558 0094 4FF0000B 		mov	fp, #0
 9559 0098 05E0     		b	.L2674
 9560              	.L2727:
 9561 009a 009B     		ldr	r3, [sp]
 9562 009c 9B45     		cmp	fp, r3
 9563 009e 70D0     		beq	.L2726
 9564              	.L2672:
 9565 00a0 C145     		cmp	r9, r8
 9566 00a2 00F09D80 		beq	.L2695
 9567              	.L2674:
 9568 00a6 4946     		mov	r1, r9
 9569 00a8 2846     		mov	r0, r5
ARM GAS  /tmp/cc2a13AN.s 			page 169


 9570 00aa FFF7FEFF 		bl	get_fat
 9571 00ae DDF80CC0 		ldr	ip, [sp, #12]
 9572 00b2 DCF83020 		ldr	r2, [ip, #48]
 9573 00b6 09F10109 		add	r9, r9, #1
 9574 00ba 4A45     		cmp	r2, r9
 9575 00bc 98BF     		it	ls
 9576 00be 4FF00209 		movls	r9, #2
 9577 00c2 0128     		cmp	r0, #1
 9578 00c4 0BF1010B 		add	fp, fp, #1
 9579 00c8 55D0     		beq	.L2702
 9580 00ca 431C     		adds	r3, r0, #1
 9581 00cc 00F08D80 		beq	.L2693
 9582 00d0 0028     		cmp	r0, #0
 9583 00d2 E2D0     		beq	.L2727
 9584 00d4 CA46     		mov	r10, r9
 9585 00d6 4FF0000B 		mov	fp, #0
 9586 00da E1E7     		b	.L2672
 9587              	.L2659:
 9588 00dc 039B     		ldr	r3, [sp, #12]
 9589 00de 13B1     		cbz	r3, .L2724
 9590 00e0 5869     		ldr	r0, [r3, #20]
 9591 00e2 FFF7FEFF 		bl	ff_rel_grant
 9592              	.L2724:
 9593 00e6 0724     		movs	r4, #7
 9594              	.L2705:
 9595 00e8 2046     		mov	r0, r4
 9596 00ea 05B0     		add	sp, sp, #20
 9597              		@ sp needed
 9598 00ec BDE8F08F 		pop	{r4, r5, r6, r7, r8, r9, r10, fp, pc}
 9599              	.L2722:
 9600 00f0 0446     		mov	r4, r0
 9601              	.L2654:
 9602 00f2 039B     		ldr	r3, [sp, #12]
 9603 00f4 002B     		cmp	r3, #0
 9604 00f6 F7D0     		beq	.L2705
 9605 00f8 0C2C     		cmp	r4, #12
 9606 00fa 37D0     		beq	.L2683
 9607 00fc 0B2C     		cmp	r4, #11
 9608 00fe 33D0     		beq	.L2684
 9609 0100 0F2C     		cmp	r4, #15
 9610 0102 F1D0     		beq	.L2705
 9611 0104 5869     		ldr	r0, [r3, #20]
 9612 0106 FFF7FEFF 		bl	ff_rel_grant
 9613 010a EDE7     		b	.L2705
 9614              	.L2662:
 9615 010c BAF80A20 		ldrh	r2, [r10, #10]
 9616 0110 5202     		lsls	r2, r2, #9
 9617 0112 531E     		subs	r3, r2, #1
 9618 0114 3342     		tst	r3, r6
 9619 0116 3046     		mov	r0, r6
 9620 0118 2346     		mov	r3, r4
 9621 011a 3946     		mov	r1, r7
 9622 011c 14BF     		ite	ne
 9623 011e 4FF00109 		movne	r9, #1
 9624 0122 4FF00009 		moveq	r9, #0
 9625 0126 FFF7FEFF 		bl	__aeabi_uldivmod
 9626 012a DAF81810 		ldr	r1, [r10, #24]
ARM GAS  /tmp/cc2a13AN.s 			page 170


 9627 012e 09EB0003 		add	r3, r9, r0
 9628 0132 0129     		cmp	r1, #1
 9629 0134 0093     		str	r3, [sp]
 9630 0136 40F28180 		bls	.L2728
 9631 013a DAF83030 		ldr	r3, [r10, #48]
 9632 013e 9942     		cmp	r1, r3
 9633 0140 28BF     		it	cs
 9634 0142 0221     		movcs	r1, #2
 9635              	.L2689:
 9636 0144 5046     		mov	r0, r10
 9637 0146 009A     		ldr	r2, [sp]
 9638 0148 FFF7FEFF 		bl	find_bitmap
 9639 014c 8246     		mov	r10, r0
 9640 014e 0028     		cmp	r0, #0
 9641 0150 41D0     		beq	.L2664
 9642 0152 B0F1FF3F 		cmp	r0, #-1
 9643 0156 00F09780 		beq	.L2665
 9644 015a 019B     		ldr	r3, [sp, #4]
 9645 015c 002B     		cmp	r3, #0
 9646 015e 6FD1     		bne	.L2729
 9647 0160 DDF80CC0 		ldr	ip, [sp, #12]
 9648 0164 0138     		subs	r0, r0, #1
 9649 0166 44E0     		b	.L2669
 9650              	.L2684:
 9651 0168 0B24     		movs	r4, #11
 9652 016a BDE7     		b	.L2705
 9653              	.L2683:
 9654 016c 0C24     		movs	r4, #12
 9655 016e 2046     		mov	r0, r4
 9656 0170 05B0     		add	sp, sp, #20
 9657              		@ sp needed
 9658 0172 BDE8F08F 		pop	{r4, r5, r6, r7, r8, r9, r10, fp, pc}
 9659              	.L2702:
 9660 0176 0224     		movs	r4, #2
 9661              	.L2680:
 9662 0178 DCF81400 		ldr	r0, [ip, #20]
 9663 017c FFF7FEFF 		bl	ff_rel_grant
 9664 0180 B2E7     		b	.L2705
 9665              	.L2726:
 9666 0182 019B     		ldr	r3, [sp, #4]
 9667 0184 9BB3     		cbz	r3, .L2686
 9668 0186 009B     		ldr	r3, [sp]
 9669 0188 9846     		mov	r8, r3
 9670 018a CBB3     		cbz	r3, .L2678
 9671 018c DDF800B0 		ldr	fp, [sp]
 9672 0190 D046     		mov	r8, r10
 9673 0192 0FE0     		b	.L2679
 9674              	.L2730:
 9675 0194 DCF83030 		ldr	r3, [ip, #48]
 9676 0198 4345     		cmp	r3, r8
 9677 019a ECD9     		bls	.L2702
 9678 019c FFF7FEFF 		bl	put_fat.part.0
 9679 01a0 08F10103 		add	r3, r8, #1
 9680 01a4 0028     		cmp	r0, #0
 9681 01a6 58D1     		bne	.L2698
 9682 01a8 BBF1010B 		subs	fp, fp, #1
 9683 01ac 24D0     		beq	.L2667
ARM GAS  /tmp/cc2a13AN.s 			page 171


 9684 01ae DDF80CC0 		ldr	ip, [sp, #12]
 9685 01b2 9846     		mov	r8, r3
 9686              	.L2679:
 9687 01b4 BBF1010F 		cmp	fp, #1
 9688 01b8 14BF     		ite	ne
 9689 01ba 08F10102 		addne	r2, r8, #1
 9690 01be 4FF0FF32 		moveq	r2, #-1
 9691 01c2 B8F1010F 		cmp	r8, #1
 9692 01c6 4146     		mov	r1, r8
 9693 01c8 6046     		mov	r0, ip
 9694 01ca E3D8     		bhi	.L2730
 9695 01cc BCF1000F 		cmp	ip, #0
 9696 01d0 D1D1     		bne	.L2702
 9697 01d2 0224     		movs	r4, #2
 9698 01d4 88E7     		b	.L2705
 9699              	.L2664:
 9700 01d6 DDF80CC0 		ldr	ip, [sp, #12]
 9701 01da BCF1000F 		cmp	ip, #0
 9702 01de 82D0     		beq	.L2724
 9703              	.L2695:
 9704 01e0 0724     		movs	r4, #7
 9705 01e2 C9E7     		b	.L2680
 9706              	.L2704:
 9707 01e4 4FF00208 		mov	r8, #2
 9708 01e8 52E7     		b	.L2691
 9709              	.L2693:
 9710 01ea 0124     		movs	r4, #1
 9711 01ec C4E7     		b	.L2680
 9712              	.L2686:
 9713 01ee 0AF1FF30 		add	r0, r10, #-1
 9714              	.L2669:
 9715 01f2 CCF81800 		str	r0, [ip, #24]
 9716 01f6 BFE7     		b	.L2680
 9717              	.L2667:
 9718 01f8 DDF80CC0 		ldr	ip, [sp, #12]
 9719 01fc DCF83020 		ldr	r2, [ip, #48]
 9720              	.L2678:
 9721 0200 CCF81880 		str	r8, [ip, #24]
 9722 0204 95F83030 		ldrb	r3, [r5, #48]	@ zero_extendqisi2
 9723 0208 C5F808A0 		str	r10, [r5, #8]
 9724 020c 43F04003 		orr	r3, r3, #64
 9725 0210 85F83030 		strb	r3, [r5, #48]
 9726 0214 0223     		movs	r3, #2
 9727 0216 EB71     		strb	r3, [r5, #7]
 9728 0218 DCF81C30 		ldr	r3, [ip, #28]
 9729 021c 023A     		subs	r2, r2, #2
 9730 021e 9342     		cmp	r3, r2
 9731 0220 C5E90467 		strd	r6, r7, [r5, #16]
 9732 0224 A8D8     		bhi	.L2680
 9733 0226 9CF80420 		ldrb	r2, [ip, #4]	@ zero_extendqisi2
 9734 022a 0099     		ldr	r1, [sp]
 9735 022c 42F00102 		orr	r2, r2, #1
 9736 0230 5B1A     		subs	r3, r3, r1
 9737 0232 CCF81C30 		str	r3, [ip, #28]
 9738 0236 8CF80420 		strb	r2, [ip, #4]
 9739 023a 9DE7     		b	.L2680
 9740              	.L2728:
ARM GAS  /tmp/cc2a13AN.s 			page 172


 9741 023c 0221     		movs	r1, #2
 9742 023e 81E7     		b	.L2689
 9743              	.L2729:
 9744 0240 DDF80080 		ldr	r8, [sp]
 9745 0244 0398     		ldr	r0, [sp, #12]
 9746 0246 4246     		mov	r2, r8
 9747 0248 0123     		movs	r3, #1
 9748 024a 5146     		mov	r1, r10
 9749 024c FFF7FEFF 		bl	change_bitmap
 9750 0250 D044     		add	r8, r10, r8
 9751 0252 08F1FF38 		add	r8, r8, #-1
 9752 0256 0028     		cmp	r0, #0
 9753 0258 CED0     		beq	.L2667
 9754              	.L2698:
 9755 025a DDF80CC0 		ldr	ip, [sp, #12]
 9756 025e 0446     		mov	r4, r0
 9757 0260 BCF1000F 		cmp	ip, #0
 9758 0264 3FF440AF 		beq	.L2705
 9759 0268 0C28     		cmp	r0, #12
 9760 026a 3FF47FAF 		beq	.L2683
 9761 026e 0B28     		cmp	r0, #11
 9762 0270 3FF47AAF 		beq	.L2684
 9763 0274 0F28     		cmp	r0, #15
 9764 0276 3FF437AF 		beq	.L2705
 9765 027a 7DE7     		b	.L2680
 9766              	.L2725:
 9767 027c DAF81400 		ldr	r0, [r10, #20]
 9768 0280 FFF7FEFF 		bl	ff_rel_grant
 9769 0284 0724     		movs	r4, #7
 9770 0286 2FE7     		b	.L2705
 9771              	.L2665:
 9772 0288 DDF80CC0 		ldr	ip, [sp, #12]
 9773 028c 0124     		movs	r4, #1
 9774 028e BCF1000F 		cmp	ip, #0
 9775 0292 7FF471AF 		bne	.L2680
 9776 0296 27E7     		b	.L2705
 9777              		.size	f_expand, .-f_expand
 9778              		.section	.text.f_forward,"ax",%progbits
 9779              		.align	1
 9780              		.p2align 4,,15
 9781              		.global	f_forward
 9782              		.syntax unified
 9783              		.thumb
 9784              		.thumb_func
 9785              		.fpu fpv4-sp-d16
 9786              		.type	f_forward, %function
 9787              	f_forward:
 9788              		@ args = 0, pretend = 0, frame = 8
 9789              		@ frame_needed = 0, uses_anonymous_args = 0
 9790 0000 2DE9F04F 		push	{r4, r5, r6, r7, r8, r9, r10, fp, lr}
 9791 0004 9846     		mov	r8, r3
 9792 0006 83B0     		sub	sp, sp, #12
 9793 0008 0023     		movs	r3, #0
 9794 000a 8946     		mov	r9, r1
 9795 000c C8F80030 		str	r3, [r8]
 9796 0010 01A9     		add	r1, sp, #4
 9797 0012 0446     		mov	r4, r0
ARM GAS  /tmp/cc2a13AN.s 			page 173


 9798 0014 1646     		mov	r6, r2
 9799 0016 FFF7FEFF 		bl	validate
 9800 001a 0028     		cmp	r0, #0
 9801 001c 7DD1     		bne	.L2789
 9802 001e 94F83150 		ldrb	r5, [r4, #49]	@ zero_extendqisi2
 9803 0022 002D     		cmp	r5, #0
 9804 0024 7AD1     		bne	.L2732
 9805 0026 94F830A0 		ldrb	r10, [r4, #48]	@ zero_extendqisi2
 9806 002a 1AF0010A 		ands	r10, r10, #1
 9807 002e 7FD0     		beq	.L2798
 9808 0030 A26B     		ldr	r2, [r4, #56]
 9809 0032 2369     		ldr	r3, [r4, #16]
 9810 0034 E16B     		ldr	r1, [r4, #60]
 9811 0036 9B1A     		subs	r3, r3, r2
 9812 0038 6269     		ldr	r2, [r4, #20]
 9813 003a 62EB0102 		sbc	r2, r2, r1
 9814 003e B342     		cmp	r3, r6
 9815 0040 72F10002 		sbcs	r2, r2, #0
 9816 0044 38BF     		it	cc
 9817 0046 1E46     		movcc	r6, r3
 9818 0048 002E     		cmp	r6, #0
 9819 004a 62D0     		beq	.L2757
 9820 004c 04F1540B 		add	fp, r4, #84
 9821              	.L2737:
 9822 0050 0021     		movs	r1, #0
 9823 0052 0846     		mov	r0, r1
 9824 0054 C847     		blx	r9
 9825 0056 0028     		cmp	r0, #0
 9826 0058 5BD0     		beq	.L2757
 9827 005a D4E90E10 		ldrd	r1, r0, [r4, #56]
 9828 005e 019B     		ldr	r3, [sp, #4]
 9829 0060 5F89     		ldrh	r7, [r3, #10]
 9830 0062 4A0A     		lsrs	r2, r1, #9
 9831 0064 42EAC052 		orr	r2, r2, r0, lsl #23
 9832 0068 013F     		subs	r7, r7, #1
 9833 006a 1740     		ands	r7, r7, r2
 9834 006c C1F30802 		ubfx	r2, r1, #0, #9
 9835 0070 C2B9     		cbnz	r2, .L2791
 9836 0072 BFB9     		cbnz	r7, .L2791
 9837 0074 51EA0002 		orrs	r2, r1, r0
 9838 0078 61D1     		bne	.L2742
 9839 007a A068     		ldr	r0, [r4, #8]
 9840              	.L2743:
 9841 007c 0128     		cmp	r0, #1
 9842 007e 75D9     		bls	.L2794
 9843 0080 421C     		adds	r2, r0, #1
 9844 0082 7BD0     		beq	.L2795
 9845 0084 1A6B     		ldr	r2, [r3, #48]
 9846 0086 2064     		str	r0, [r4, #64]
 9847 0088 023A     		subs	r2, r2, #2
 9848 008a 0238     		subs	r0, r0, #2
 9849 008c 9042     		cmp	r0, r2
 9850 008e 0FD3     		bcc	.L2799
 9851              	.L2748:
 9852 0090 0225     		movs	r5, #2
 9853 0092 84F83150 		strb	r5, [r4, #49]
 9854              	.L2792:
ARM GAS  /tmp/cc2a13AN.s 			page 174


 9855 0096 5869     		ldr	r0, [r3, #20]
 9856 0098 FFF7FEFF 		bl	ff_rel_grant
 9857              	.L2734:
 9858 009c 2846     		mov	r0, r5
 9859 009e 03B0     		add	sp, sp, #12
 9860              		@ sp needed
 9861 00a0 BDE8F08F 		pop	{r4, r5, r6, r7, r8, r9, r10, fp, pc}
 9862              	.L2791:
 9863 00a4 206C     		ldr	r0, [r4, #64]
 9864 00a6 1A6B     		ldr	r2, [r3, #48]
 9865 00a8 0238     		subs	r0, r0, #2
 9866 00aa 023A     		subs	r2, r2, #2
 9867 00ac 9042     		cmp	r0, r2
 9868 00ae EFD2     		bcs	.L2748
 9869              	.L2799:
 9870 00b0 5989     		ldrh	r1, [r3, #10]
 9871 00b2 5A6C     		ldr	r2, [r3, #68]
 9872 00b4 00FB0120 		mla	r0, r0, r1, r2
 9873 00b8 0028     		cmp	r0, #0
 9874 00ba E9D0     		beq	.L2748
 9875 00bc 626C     		ldr	r2, [r4, #68]
 9876 00be 0744     		add	r7, r7, r0
 9877 00c0 BA42     		cmp	r2, r7
 9878 00c2 0BD0     		beq	.L2750
 9879 00c4 94F93010 		ldrsb	r1, [r4, #48]
 9880 00c8 0029     		cmp	r1, #0
 9881 00ca 3EDB     		blt	.L2800
 9882              	.L2752:
 9883 00cc 5878     		ldrb	r0, [r3, #1]	@ zero_extendqisi2
 9884 00ce 3A46     		mov	r2, r7
 9885 00d0 0123     		movs	r3, #1
 9886 00d2 5946     		mov	r1, fp
 9887 00d4 FFF7FEFF 		bl	disk_read
 9888 00d8 0028     		cmp	r0, #0
 9889 00da 4ED1     		bne	.L2797
 9890              	.L2750:
 9891 00dc A06B     		ldr	r0, [r4, #56]
 9892 00de 6764     		str	r7, [r4, #68]
 9893 00e0 C0F30800 		ubfx	r0, r0, #0, #9
 9894 00e4 C0F50071 		rsb	r1, r0, #512
 9895 00e8 B142     		cmp	r1, r6
 9896 00ea 28BF     		it	cs
 9897 00ec 3146     		movcs	r1, r6
 9898 00ee 5844     		add	r0, r0, fp
 9899 00f0 C847     		blx	r9
 9900 00f2 0028     		cmp	r0, #0
 9901 00f4 39D0     		beq	.L2801
 9902 00f6 A36B     		ldr	r3, [r4, #56]
 9903 00f8 1B18     		adds	r3, r3, r0
 9904 00fa A363     		str	r3, [r4, #56]
 9905 00fc E36B     		ldr	r3, [r4, #60]
 9906 00fe 43F10003 		adc	r3, r3, #0
 9907 0102 E363     		str	r3, [r4, #60]
 9908 0104 D8F80030 		ldr	r3, [r8]
 9909 0108 361A     		subs	r6, r6, r0
 9910 010a 0344     		add	r3, r3, r0
 9911 010c C8F80030 		str	r3, [r8]
ARM GAS  /tmp/cc2a13AN.s 			page 175


 9912 0110 9ED1     		bne	.L2737
 9913              	.L2757:
 9914 0112 019B     		ldr	r3, [sp, #4]
 9915 0114 002B     		cmp	r3, #0
 9916 0116 BED1     		bne	.L2792
 9917 0118 C0E7     		b	.L2734
 9918              	.L2789:
 9919 011a 0546     		mov	r5, r0
 9920              	.L2732:
 9921 011c 019B     		ldr	r3, [sp, #4]
 9922 011e 002B     		cmp	r3, #0
 9923 0120 BCD0     		beq	.L2734
 9924 0122 0C2D     		cmp	r5, #12
 9925 0124 BAD0     		beq	.L2734
 9926 0126 0B2D     		cmp	r5, #11
 9927 0128 B8D0     		beq	.L2734
 9928 012a 0F2D     		cmp	r5, #15
 9929 012c B6D0     		beq	.L2734
 9930 012e B2E7     		b	.L2792
 9931              	.L2798:
 9932 0130 019B     		ldr	r3, [sp, #4]
 9933 0132 C3B1     		cbz	r3, .L2759
 9934 0134 5869     		ldr	r0, [r3, #20]
 9935 0136 FFF7FEFF 		bl	ff_rel_grant
 9936 013a 0725     		movs	r5, #7
 9937 013c AEE7     		b	.L2734
 9938              	.L2742:
 9939 013e 216C     		ldr	r1, [r4, #64]
 9940 0140 2046     		mov	r0, r4
 9941 0142 FFF7FEFF 		bl	get_fat
 9942 0146 019B     		ldr	r3, [sp, #4]
 9943 0148 98E7     		b	.L2743
 9944              	.L2800:
 9945 014a 5878     		ldrb	r0, [r3, #1]	@ zero_extendqisi2
 9946 014c 5946     		mov	r1, fp
 9947 014e 0123     		movs	r3, #1
 9948 0150 FFF7FEFF 		bl	disk_write
 9949 0154 88B9     		cbnz	r0, .L2797
 9950 0156 94F83030 		ldrb	r3, [r4, #48]	@ zero_extendqisi2
 9951 015a 03F07F03 		and	r3, r3, #127
 9952 015e 84F83030 		strb	r3, [r4, #48]
 9953 0162 019B     		ldr	r3, [sp, #4]
 9954 0164 B2E7     		b	.L2752
 9955              	.L2759:
 9956 0166 0725     		movs	r5, #7
 9957 0168 98E7     		b	.L2734
 9958              	.L2801:
 9959 016a 019B     		ldr	r3, [sp, #4]
 9960              	.L2794:
 9961 016c 0225     		movs	r5, #2
 9962 016e 84F83150 		strb	r5, [r4, #49]
 9963 0172 002B     		cmp	r3, #0
 9964 0174 8FD1     		bne	.L2792
 9965 0176 0225     		movs	r5, #2
 9966 0178 90E7     		b	.L2734
 9967              	.L2797:
 9968 017a 019B     		ldr	r3, [sp, #4]
ARM GAS  /tmp/cc2a13AN.s 			page 176


 9969              	.L2795:
 9970 017c 0122     		movs	r2, #1
 9971 017e 84F83120 		strb	r2, [r4, #49]
 9972 0182 13B1     		cbz	r3, .L2793
 9973 0184 5869     		ldr	r0, [r3, #20]
 9974 0186 FFF7FEFF 		bl	ff_rel_grant
 9975              	.L2793:
 9976 018a 5546     		mov	r5, r10
 9977 018c 86E7     		b	.L2734
 9978              		.size	f_forward, .-f_forward
 9979 018e 00BF     		.section	.rodata.f_mkfs.str1.4,"aMS",%progbits,1
 9980              		.align	2
 9981              	.LC4:
 9982 0000 EBFE904D 		.ascii	"\353\376\220MSDOS5.0\000"
 9982      53444F53 
 9982      352E3000 
 9983              		.align	2
 9984              	.LC5:
 9985 000c 4E4F204E 		.ascii	"NO NAME    FAT32   \000"
 9985      414D4520 
 9985      20202046 
 9985      41543332 
 9985      20202000 
 9986              		.align	2
 9987              	.LC6:
 9988 0020 4E4F204E 		.ascii	"NO NAME    FAT     \000"
 9988      414D4520 
 9988      20202046 
 9988      41542020 
 9988      20202000 
 9989              		.section	.text.f_mkfs,"ax",%progbits
 9990              		.align	1
 9991              		.p2align 4,,15
 9992              		.global	f_mkfs
 9993              		.syntax unified
 9994              		.thumb
 9995              		.thumb_func
 9996              		.fpu fpv4-sp-d16
 9997              		.type	f_mkfs, %function
 9998              	f_mkfs:
 9999              		@ args = 0, pretend = 0, frame = 128
 10000              		@ frame_needed = 0, uses_anonymous_args = 0
 10001 0000 2DE9F04F 		push	{r4, r5, r6, r7, r8, r9, r10, fp, lr}
 10002 0004 2DED028B 		vpush.64	{d8}
 10003 0008 A1B0     		sub	sp, sp, #132
 10004 000a 8B46     		mov	fp, r1
 10005 000c 1990     		str	r0, [sp, #100]
 10006 000e 19A8     		add	r0, sp, #100
 10007 0010 1546     		mov	r5, r2
 10008 0012 9A46     		mov	r10, r3
 10009 0014 FFF7FEFF 		bl	get_ldnumber
 10010 0018 0028     		cmp	r0, #0
 10011 001a C0F27E81 		blt	.L2934
 10012 001e C24B     		ldr	r3, .L3060
 10013 0020 53F82030 		ldr	r3, [r3, r0, lsl #2]
 10014 0024 0BB1     		cbz	r3, .L2804
 10015 0026 0022     		movs	r2, #0
ARM GAS  /tmp/cc2a13AN.s 			page 177


 10016 0028 1A70     		strb	r2, [r3]
 10017              	.L2804:
 10018 002a C04B     		ldr	r3, .L3060+4
 10019 002c C4B2     		uxtb	r4, r0
 10020 002e 2046     		mov	r0, r4
 10021 0030 BBF1000F 		cmp	fp, #0
 10022 0034 08BF     		it	eq
 10023 0036 9B46     		moveq	fp, r3
 10024 0038 FFF7FEFF 		bl	disk_initialize
 10025 003c C707     		lsls	r7, r0, #31
 10026 003e 00F16281 		bmi	.L2935
 10027 0042 4607     		lsls	r6, r0, #29
 10028 0044 00F17681 		bmi	.L2936
 10029 0048 DBF80430 		ldr	r3, [fp, #4]
 10030 004c 1A93     		str	r3, [sp, #104]
 10031 004e 002B     		cmp	r3, #0
 10032 0050 00F02C81 		beq	.L3031
 10033              	.L2806:
 10034 0054 5A1E     		subs	r2, r3, #1
 10035 0056 B2F5004F 		cmp	r2, #32768
 10036 005a C0F05A81 		bcc	.L2809
 10037              	.L2810:
 10038 005e 0123     		movs	r3, #1
 10039 0060 1A93     		str	r3, [sp, #104]
 10040              	.L2808:
 10041 0062 9BF80120 		ldrb	r2, [fp, #1]	@ zero_extendqisi2
 10042 0066 DBF80870 		ldr	r7, [fp, #8]
 10043 006a 0192     		str	r2, [sp, #4]
 10044 006c 531E     		subs	r3, r2, #1
 10045 006e 012B     		cmp	r3, #1
 10046 0070 88BF     		it	hi
 10047 0072 4FF00109 		movhi	r9, #1
 10048 0076 07F1FF33 		add	r3, r7, #-1
 10049 007a 94BF     		ite	ls
 10050 007c 9146     		movls	r9, r2
 10051 007e CDF80490 		strhi	r9, [sp, #4]
 10052 0082 B3F5004F 		cmp	r3, #32768
 10053 0086 80F00E81 		bcs	.L2938
 10054 008a 17F00F0F 		tst	r7, #15
 10055 008e 18BF     		it	ne
 10056 0090 4FF40077 		movne	r7, #512
 10057              	.L2812:
 10058 0094 DBF80C80 		ldr	r8, [fp, #12]
 10059 0098 B8F1807F 		cmp	r8, #16777216
 10060 009c 05D8     		bhi	.L2940
 10061 009e 08F1FF33 		add	r3, r8, #-1
 10062 00a2 13EA080F 		tst	r3, r8
 10063 00a6 00F00B81 		beq	.L3032
 10064              	.L2940:
 10065 00aa 0026     		movs	r6, #0
 10066 00ac BAF5007F 		cmp	r10, #512
 10067 00b0 B046     		mov	r8, r6
 10068 00b2 C0F00B81 		bcc	.L2942
 10069              	.L3036:
 10070 00b6 002D     		cmp	r5, #0
 10071 00b8 00F00881 		beq	.L2942
 10072 00bc 0023     		movs	r3, #0
ARM GAS  /tmp/cc2a13AN.s 			page 178


 10073 00be 1BAA     		add	r2, sp, #108
 10074 00c0 0121     		movs	r1, #1
 10075 00c2 2046     		mov	r0, r4
 10076 00c4 9BF800B0 		ldrb	fp, [fp]	@ zero_extendqisi2
 10077 00c8 1B93     		str	r3, [sp, #108]
 10078 00ca FFF7FEFF 		bl	disk_ioctl
 10079 00ce 0246     		mov	r2, r0
 10080 00d0 0790     		str	r0, [sp, #28]
 10081 00d2 0028     		cmp	r0, #0
 10082 00d4 40F0DE81 		bne	.L2943
 10083 00d8 1BF00803 		ands	r3, fp, #8
 10084 00dc 0A93     		str	r3, [sp, #40]
 10085 00de 1B9B     		ldr	r3, [sp, #108]
 10086 00e0 00F0FA80 		beq	.L2814
 10087              	.L3022:
 10088 00e4 7F2B     		cmp	r3, #127
 10089 00e6 0292     		str	r2, [sp, #8]
 10090 00e8 40F20781 		bls	.L2949
 10091 00ec 4FEA5A22 		lsr	r2, r10, #9
 10092 00f0 1BF0040F 		tst	fp, #4
 10093 00f4 0992     		str	r2, [sp, #36]
 10094 00f6 00F0D381 		beq	.L2818
 10095 00fa 0BF00702 		and	r2, fp, #7
 10096 00fe 042A     		cmp	r2, #4
 10097 0100 03D0     		beq	.L2822
 10098 0102 B3F1806F 		cmp	r3, #67108864
 10099 0106 C0F08282 		bcc	.L3033
 10100              	.L2822:
 10101 010a FFF7FEFF 		bl	get_fattime
 10102 010e 1B9B     		ldr	r3, [sp, #108]
 10103 0110 0790     		str	r0, [sp, #28]
 10104 0112 B3F5805F 		cmp	r3, #4096
 10105 0116 0393     		str	r3, [sp, #12]
 10106 0118 C0F0EF80 		bcc	.L2949
 10107 011c 56B9     		cbnz	r6, .L2829
 10108 011e 039B     		ldr	r3, [sp, #12]
 10109 0120 B3F5002F 		cmp	r3, #524288
 10110 0124 C0F00A84 		bcc	.L2946
 10111 0128 B3F1806F 		cmp	r3, #67108864
 10112 012c 34BF     		ite	cc
 10113 012e 4026     		movcc	r6, #64
 10114 0130 4FF48076 		movcs	r6, #256
 10115              	.L2829:
 10116 0134 1A9B     		ldr	r3, [sp, #104]
 10117 0136 0298     		ldr	r0, [sp, #8]
 10118 0138 5F1E     		subs	r7, r3, #1
 10119 013a 00F12002 		add	r2, r0, #32
 10120 013e 1744     		add	r7, r7, r2
 10121 0140 0F92     		str	r2, [sp, #60]
 10122 0142 039A     		ldr	r2, [sp, #12]
 10123 0144 B2FBF6F2 		udiv	r2, r2, r6
 10124 0148 9200     		lsls	r2, r2, #2
 10125 014a 02F20722 		addw	r2, r2, #519
 10126 014e 5B42     		rsbs	r3, r3, #0
 10127 0150 07EB5227 		add	r7, r7, r2, lsr #9
 10128 0154 07EA0301 		and	r1, r7, r3
 10129 0158 530A     		lsrs	r3, r2, #9
ARM GAS  /tmp/cc2a13AN.s 			page 179


 10130 015a 0E93     		str	r3, [sp, #56]
 10131 015c 039B     		ldr	r3, [sp, #12]
 10132 015e 1192     		str	r2, [sp, #68]
 10133 0160 0F1A     		subs	r7, r1, r0
 10134 0162 B7EB530F 		cmp	r7, r3, lsr #1
 10135 0166 0D91     		str	r1, [sp, #52]
 10136 0168 1097     		str	r7, [sp, #64]
 10137 016a 80F0C680 		bcs	.L2949
 10138 016e C318     		adds	r3, r0, r3
 10139 0170 5B1A     		subs	r3, r3, r1
 10140 0172 B3FBF6F0 		udiv	r0, r3, r6
 10141 0176 6E4B     		ldr	r3, .L3060+8
 10142 0178 1290     		str	r0, [sp, #72]
 10143 017a A0F11002 		sub	r2, r0, #16
 10144 017e 9A42     		cmp	r2, r3
 10145 0180 00F2BB80 		bhi	.L2949
 10146 0184 C31D     		adds	r3, r0, #7
 10147 0186 7202     		lsls	r2, r6, #9
 10148 0188 1393     		str	r3, [sp, #76]
 10149 018a 2AF4FF73 		bic	r3, r10, #510
 10150 018e 501E     		subs	r0, r2, #1
 10151 0190 23F00103 		bic	r3, r3, #1
 10152 0194 1790     		str	r0, [sp, #92]
 10153 0196 0493     		str	r3, [sp, #16]
 10154 0198 0346     		mov	r3, r0
 10155 019a 1398     		ldr	r0, [sp, #76]
 10156 019c 1692     		str	r2, [sp, #88]
 10157 019e 03EBD003 		add	r3, r3, r0, lsr #3
 10158 01a2 B3FBF2F3 		udiv	r3, r3, r2
 10159 01a6 C208     		lsrs	r2, r0, #3
 10160 01a8 1592     		str	r2, [sp, #84]
 10161 01aa 06FB0312 		mla	r2, r6, r3, r1
 10162 01ae 0027     		movs	r7, #0
 10163 01b0 08EE102A 		vmov	s16, r2	@ int
 10164 01b4 08EE904A 		vmov	s17, r4	@ int
 10165 01b8 0B96     		str	r6, [sp, #44]
 10166 01ba CDF830A0 		str	r10, [sp, #48]
 10167 01be 1493     		str	r3, [sp, #80]
 10168 01c0 1D93     		str	r3, [sp, #116]
 10169 01c2 B946     		mov	r9, r7
 10170 01c4 BB46     		mov	fp, r7
 10171 01c6 0197     		str	r7, [sp, #4]
 10172 01c8 3E46     		mov	r6, r7
 10173 01ca 2C46     		mov	r4, r5
 10174 01cc BA46     		mov	r10, r7
 10175              	.L2830:
 10176 01ce 3EB3     		cbz	r6, .L2831
 10177              	.L2832:
 10178 01d0 781C     		adds	r0, r7, #1
 10179 01d2 B9F10109 		subs	r9, r9, #1
 10180 01d6 80B2     		uxth	r0, r0
 10181 01d8 40F05A82 		bne	.L2844
 10182 01dc 0AF10103 		add	r3, r10, #1
 10183 01e0 CDE9053A 		strd	r3, r10, [sp, #20]
 10184 01e4 BC46     		mov	ip, r7
 10185 01e6 04EB0A06 		add	r6, r4, r10
 10186 01ea 0746     		mov	r7, r0
ARM GAS  /tmp/cc2a13AN.s 			page 180


 10187 01ec 0AF1020A 		add	r10, r10, #2
 10188              	.L2835:
 10189 01f0 019B     		ldr	r3, [sp, #4]
 10190 01f2 0233     		adds	r3, r3, #2
 10191 01f4 5FFA8CF0 		uxtb	r0, ip
 10192 01f8 0193     		str	r3, [sp, #4]
 10193 01fa 059B     		ldr	r3, [sp, #20]
 10194 01fc 3070     		strb	r0, [r6]
 10195 01fe 00EB7B00 		add	r0, r0, fp, ror #1
 10196 0202 CCF30F2B 		ubfx	fp, ip, #8, #16
 10197 0206 04F803B0 		strb	fp, [r4, r3]
 10198 020a 0BEB700B 		add	fp, fp, r0, ror #1
 10199 020e 002F     		cmp	r7, #0
 10200 0210 00F05782 		beq	.L2845
 10201 0214 049B     		ldr	r3, [sp, #16]
 10202 0216 9A45     		cmp	r10, r3
 10203 0218 00F01C84 		beq	.L3034
 10204 021c 4FF00009 		mov	r9, #0
 10205              	.L2831:
 10206 0220 0AF10103 		add	r3, r10, #1
 10207 0224 04EB0A06 		add	r6, r4, r10
 10208 0228 CDE9053A 		strd	r3, r10, [sp, #20]
 10209 022c 0AF1020A 		add	r10, r10, #2
 10210 0230 A046     		mov	r8, r4
 10211 0232 0896     		str	r6, [sp, #32]
 10212 0234 5446     		mov	r4, r10
 10213              	.L2834:
 10214 0236 3846     		mov	r0, r7
 10215 0238 FFF7FEFF 		bl	ff_wtoupper
 10216 023c 1FFA80FC 		uxth	ip, r0
 10217 0240 6745     		cmp	r7, ip
 10218 0242 00F08C83 		beq	.L3035
 10219 0246 089E     		ldr	r6, [sp, #32]
 10220 0248 059B     		ldr	r3, [sp, #20]
 10221 024a 3070     		strb	r0, [r6]
 10222 024c C0B2     		uxtb	r0, r0
 10223 024e 00EB7B00 		add	r0, r0, fp, ror #1
 10224 0252 4FEA1C2B 		lsr	fp, ip, #8
 10225 0256 08F803B0 		strb	fp, [r8, r3]
 10226 025a 019B     		ldr	r3, [sp, #4]
 10227 025c 0137     		adds	r7, r7, #1
 10228 025e 0233     		adds	r3, r3, #2
 10229 0260 BFB2     		uxth	r7, r7
 10230 0262 A246     		mov	r10, r4
 10231 0264 0BEB700B 		add	fp, fp, r0, ror #1
 10232 0268 4446     		mov	r4, r8
 10233 026a 0193     		str	r3, [sp, #4]
 10234 026c 002F     		cmp	r7, #0
 10235 026e 00F02882 		beq	.L2845
 10236 0272 0026     		movs	r6, #0
 10237              	.L2838:
 10238 0274 049B     		ldr	r3, [sp, #16]
 10239 0276 5345     		cmp	r3, r10
 10240 0278 A9D1     		bne	.L2830
 10241 027a 069B     		ldr	r3, [sp, #24]
 10242 027c 03F20125 		addw	r5, r3, #513
 10243 0280 6D0A     		lsrs	r5, r5, #9
ARM GAS  /tmp/cc2a13AN.s 			page 181


 10244 0282 18EE102A 		vmov	r2, s16	@ int
 10245 0286 18EE900A 		vmov	r0, s17	@ int
 10246 028a 2B46     		mov	r3, r5
 10247 028c 2146     		mov	r1, r4
 10248 028e FFF7FEFF 		bl	disk_write
 10249 0292 0028     		cmp	r0, #0
 10250 0294 40F0FE80 		bne	.L2943
 10251 0298 18EE103A 		vmov	r3, s16	@ int
 10252 029c 2B44     		add	r3, r3, r5
 10253 029e 08EE103A 		vmov	s16, r3	@ int
 10254 02a2 8246     		mov	r10, r0
 10255 02a4 93E7     		b	.L2830
 10256              	.L2938:
 10257 02a6 4FF40077 		mov	r7, #512
 10258 02aa F3E6     		b	.L2812
 10259              	.L3031:
 10260 02ac 1AAA     		add	r2, sp, #104
 10261 02ae 0321     		movs	r1, #3
 10262 02b0 2046     		mov	r0, r4
 10263 02b2 FFF7FEFF 		bl	disk_ioctl
 10264 02b6 0028     		cmp	r0, #0
 10265 02b8 7FF4D1AE 		bne	.L2810
 10266 02bc 1A9B     		ldr	r3, [sp, #104]
 10267 02be C9E6     		b	.L2806
 10268              	.L3032:
 10269 02c0 BAF5007F 		cmp	r10, #512
 10270 02c4 4FEA5826 		lsr	r6, r8, #9
 10271 02c8 BFF4F5AE 		bcs	.L3036
 10272              	.L2942:
 10273 02cc 1120     		movs	r0, #17
 10274 02ce 21B0     		add	sp, sp, #132
 10275              		@ sp needed
 10276 02d0 BDEC028B 		vldm	sp!, {d8}
 10277 02d4 BDE8F08F 		pop	{r4, r5, r6, r7, r8, r9, r10, fp, pc}
 10278              	.L2814:
 10279 02d8 3F2B     		cmp	r3, #63
 10280 02da 0ED9     		bls	.L2949
 10281 02dc 3F3B     		subs	r3, r3, #63
 10282 02de 1B93     		str	r3, [sp, #108]
 10283 02e0 3F22     		movs	r2, #63
 10284 02e2 FFE6     		b	.L3022
 10285              	.L2896:
 10286 02e4 40F6F572 		movw	r2, #4085
 10287 02e8 9345     		cmp	fp, r2
 10288 02ea 00F2F084 		bhi	.L2899
 10289 02ee 26B9     		cbnz	r6, .L2949
 10290 02f0 4FEA4806 		lsl	r6, r8, #1
 10291 02f4 802E     		cmp	r6, #128
 10292 02f6 40F21F81 		bls	.L2827
 10293              	.L2949:
 10294 02fa 0E20     		movs	r0, #14
 10295              	.L3008:
 10296 02fc 21B0     		add	sp, sp, #132
 10297              		@ sp needed
 10298 02fe BDEC028B 		vldm	sp!, {d8}
 10299 0302 BDE8F08F 		pop	{r4, r5, r6, r7, r8, r9, r10, fp, pc}
 10300              	.L2935:
ARM GAS  /tmp/cc2a13AN.s 			page 182


 10301 0306 0320     		movs	r0, #3
 10302 0308 21B0     		add	sp, sp, #132
 10303              		@ sp needed
 10304 030a BDEC028B 		vldm	sp!, {d8}
 10305 030e BDE8F08F 		pop	{r4, r5, r6, r7, r8, r9, r10, fp, pc}
 10306              	.L2809:
 10307 0312 1A42     		tst	r2, r3
 10308 0314 7FF4A3AE 		bne	.L2810
 10309 0318 A3E6     		b	.L2808
 10310              	.L2934:
 10311 031a 0B20     		movs	r0, #11
 10312 031c 21B0     		add	sp, sp, #132
 10313              		@ sp needed
 10314 031e BDEC028B 		vldm	sp!, {d8}
 10315 0322 BDE8F08F 		pop	{r4, r5, r6, r7, r8, r9, r10, fp, pc}
 10316              	.L3061:
 10317 0326 00BF     		.align	2
 10318              	.L3060:
 10319 0328 00000000 		.word	.LANCHOR4
 10320 032c 00000000 		.word	.LANCHOR7
 10321 0330 EDFFFF7F 		.word	2147483629
 10322              	.L2936:
 10323 0334 0A20     		movs	r0, #10
 10324 0336 21B0     		add	sp, sp, #132
 10325              		@ sp needed
 10326 0338 BDEC028B 		vldm	sp!, {d8}
 10327 033c BDE8F08F 		pop	{r4, r5, r6, r7, r8, r9, r10, fp, pc}
 10328              	.L3043:
 10329 0340 4FF6F572 		movw	r2, #65525
 10330 0344 9345     		cmp	fp, r2
 10331 0346 40F27E81 		bls	.L3037
 10332 034a 0021     		movs	r1, #0
 10333 034c 4FF40072 		mov	r2, #512
 10334 0350 2846     		mov	r0, r5
 10335 0352 0B93     		str	r3, [sp, #44]
 10336 0354 FFF7FEFF 		bl	memset
 10337 0358 019B     		ldr	r3, [sp, #4]
 10338 035a 2B74     		strb	r3, [r5, #16]
 10339 035c 059B     		ldr	r3, [sp, #20]
 10340 035e 85F80D80 		strb	r8, [r5, #13]
 10341 0362 C3F30722 		ubfx	r2, r3, #8, #8
 10342 0366 EA73     		strb	r2, [r5, #15]
 10343 0368 0221     		movs	r1, #2
 10344 036a C34A     		ldr	r2, .L3062
 10345 036c AB73     		strb	r3, [r5, #14]
 10346 036e 2973     		strb	r1, [r5, #12]
 10347 0370 0027     		movs	r7, #0
 10348              	.L3030:
 10349 0372 03CA     		ldmia	r2!, {r0, r1}
 10350 0374 0B9B     		ldr	r3, [sp, #44]
 10351 0376 6960     		str	r1, [r5, #4]	@ unaligned
 10352 0378 1188     		ldrh	r1, [r2]	@ unaligned
 10353 037a 9278     		ldrb	r2, [r2, #2]	@ zero_extendqisi2
 10354 037c AA72     		strb	r2, [r5, #10]
 10355 037e B3F5803F 		cmp	r3, #65536
 10356 0382 079A     		ldr	r2, [sp, #28]
 10357 0384 2860     		str	r0, [r5]	@ unaligned
ARM GAS  /tmp/cc2a13AN.s 			page 183


 10358 0386 2981     		strh	r1, [r5, #8]	@ unaligned
 10359 0388 6A74     		strb	r2, [r5, #17]
 10360 038a AF74     		strb	r7, [r5, #18]
 10361 038c 80F0E383 		bcs	.L2902
 10362 0390 EB74     		strb	r3, [r5, #19]
 10363 0392 C3F30723 		ubfx	r3, r3, #8, #8
 10364 0396 2B75     		strb	r3, [r5, #20]
 10365              	.L2903:
 10366 0398 029B     		ldr	r3, [sp, #8]
 10367 039a 2B77     		strb	r3, [r5, #28]
 10368 039c F823     		movs	r3, #248
 10369 039e 6B75     		strb	r3, [r5, #21]
 10370 03a0 3F23     		movs	r3, #63
 10371 03a2 2B76     		strb	r3, [r5, #24]
 10372 03a4 FF23     		movs	r3, #255
 10373 03a6 AB76     		strb	r3, [r5, #26]
 10374 03a8 039B     		ldr	r3, [sp, #12]
 10375 03aa 0C9A     		ldr	r2, [sp, #48]
 10376 03ac 032B     		cmp	r3, #3
 10377 03ae 00F0EA83 		beq	.L3038
 10378 03b2 130A     		lsrs	r3, r2, #8
 10379 03b4 0499     		ldr	r1, [sp, #16]
 10380 03b6 85F82830 		strb	r3, [r5, #40]
 10381 03ba 130C     		lsrs	r3, r2, #16
 10382 03bc 85F82930 		strb	r3, [r5, #41]
 10383 03c0 130E     		lsrs	r3, r2, #24
 10384 03c2 85F82A30 		strb	r3, [r5, #42]
 10385 03c6 C1F30723 		ubfx	r3, r1, #8, #8
 10386 03ca EB75     		strb	r3, [r5, #23]
 10387 03cc 8023     		movs	r3, #128
 10388 03ce 85F82430 		strb	r3, [r5, #36]
 10389 03d2 2923     		movs	r3, #41
 10390 03d4 A94E     		ldr	r6, .L3062+4
 10391 03d6 85F82630 		strb	r3, [r5, #38]
 10392 03da 5523     		movs	r3, #85
 10393 03dc 85F8FE31 		strb	r3, [r5, #510]
 10394 03e0 AA23     		movs	r3, #170
 10395 03e2 85F82720 		strb	r2, [r5, #39]
 10396 03e6 A975     		strb	r1, [r5, #22]
 10397 03e8 85F8FF31 		strb	r3, [r5, #511]
 10398 03ec 0FCE     		ldmia	r6!, {r0, r1, r2, r3}
 10399 03ee C5F83730 		str	r3, [r5, #55]	@ unaligned
 10400 03f2 3388     		ldrh	r3, [r6]	@ unaligned
 10401 03f4 A5F83B30 		strh	r3, [r5, #59]	@ unaligned
 10402 03f8 B378     		ldrb	r3, [r6, #2]	@ zero_extendqisi2
 10403 03fa C5F82B00 		str	r0, [r5, #43]	@ unaligned
 10404 03fe C5F82F10 		str	r1, [r5, #47]	@ unaligned
 10405 0402 C5F83320 		str	r2, [r5, #51]	@ unaligned
 10406 0406 85F83D30 		strb	r3, [r5, #61]
 10407 040a 029A     		ldr	r2, [sp, #8]
 10408 040c 0123     		movs	r3, #1
 10409 040e 2946     		mov	r1, r5
 10410 0410 2046     		mov	r0, r4
 10411 0412 FFF7FEFF 		bl	disk_write
 10412 0416 0028     		cmp	r0, #0
 10413 0418 3CD1     		bne	.L2943
 10414              	.L2907:
ARM GAS  /tmp/cc2a13AN.s 			page 184


 10415 041a 2AF4FF72 		bic	r2, r10, #510
 10416 041e 22F00102 		bic	r2, r2, #1
 10417 0422 0021     		movs	r1, #0
 10418 0424 2846     		mov	r0, r5
 10419 0426 FFF7FEFF 		bl	memset
 10420 042a 039B     		ldr	r3, [sp, #12]
 10421 042c CDF81480 		str	r8, [sp, #20]
 10422 0430 012B     		cmp	r3, #1
 10423 0432 934B     		ldr	r3, .L3062+8
 10424 0434 CDF80890 		str	r9, [sp, #8]
 10425 0438 18BF     		it	ne
 10426 043a 6FF00703 		mvnne	r3, #7
 10427 043e DDE9088B 		ldrd	r8, fp, [sp, #32]
 10428 0442 1B0E     		lsrs	r3, r3, #24
 10429 0444 0193     		str	r3, [sp, #4]
 10430 0446 4FF0000A 		mov	r10, #0
 10431 044a FF27     		movs	r7, #255
 10432              	.L2911:
 10433 044c 039B     		ldr	r3, [sp, #12]
 10434 044e 6F70     		strb	r7, [r5, #1]
 10435 0450 032B     		cmp	r3, #3
 10436 0452 6FF00703 		mvn	r3, #7
 10437 0456 2B70     		strb	r3, [r5]
 10438 0458 AF70     		strb	r7, [r5, #2]
 10439 045a 00F08883 		beq	.L3039
 10440 045e 019B     		ldr	r3, [sp, #4]
 10441 0460 EB70     		strb	r3, [r5, #3]
 10442              	.L2909:
 10443 0462 049E     		ldr	r6, [sp, #16]
 10444 0464 05E0     		b	.L2910
 10445              	.L3041:
 10446 0466 FFF7FEFF 		bl	memset
 10447 046a B6EB0906 		subs	r6, r6, r9
 10448 046e 00F05083 		beq	.L3040
 10449              	.L2910:
 10450 0472 5E45     		cmp	r6, fp
 10451 0474 B146     		mov	r9, r6
 10452 0476 28BF     		it	cs
 10453 0478 D946     		movcs	r9, fp
 10454 047a 4246     		mov	r2, r8
 10455 047c 2946     		mov	r1, r5
 10456 047e 4B46     		mov	r3, r9
 10457 0480 2046     		mov	r0, r4
 10458 0482 FFF7FEFF 		bl	disk_write
 10459 0486 0146     		mov	r1, r0
 10460 0488 C844     		add	r8, r8, r9
 10461 048a 4FF40072 		mov	r2, #512
 10462 048e 2846     		mov	r0, r5
 10463 0490 0029     		cmp	r1, #0
 10464 0492 E8D0     		beq	.L3041
 10465              	.L2943:
 10466 0494 0120     		movs	r0, #1
 10467 0496 21B0     		add	sp, sp, #132
 10468              		@ sp needed
 10469 0498 BDEC028B 		vldm	sp!, {d8}
 10470 049c BDE8F08F 		pop	{r4, r5, r6, r7, r8, r9, r10, fp, pc}
 10471              	.L2818:
ARM GAS  /tmp/cc2a13AN.s 			page 185


 10472 04a0 B8F5813F 		cmp	r8, #66048
 10473 04a4 28BF     		it	cs
 10474 04a6 8026     		movcs	r6, #128
 10475              	.L2823:
 10476 04a8 1BF00203 		ands	r3, fp, #2
 10477 04ac 0B93     		str	r3, [sp, #44]
 10478 04ae 38D0     		beq	.L2824
 10479 04b0 1BF0010F 		tst	fp, #1
 10480 04b4 39D1     		bne	.L2826
 10481 04b6 FFF7FEFF 		bl	get_fattime
 10482 04ba 1B9B     		ldr	r3, [sp, #108]
 10483 04bc C218     		adds	r2, r0, r3
 10484 04be 0C92     		str	r2, [sp, #48]
 10485              	.L2828:
 10486 04c0 002E     		cmp	r6, #0
 10487 04c2 00F0CA80 		beq	.L2929
 10488 04c6 3246     		mov	r2, r6
 10489              	.L2882:
 10490 04c8 B3FBF6F1 		udiv	r1, r3, r6
 10491 04cc DFF8BCC1 		ldr	ip, .L3062+20
 10492 04d0 4FEA810E 		lsl	lr, r1, #2
 10493 04d4 A1F57F41 		sub	r1, r1, #65280
 10494 04d8 0EF2072E 		addw	lr, lr, #519
 10495 04dc F639     		subs	r1, r1, #246
 10496 04de 4FEA5E20 		lsr	r0, lr, #9
 10497 04e2 6145     		cmp	r1, ip
 10498 04e4 0490     		str	r0, [sp, #16]
 10499 04e6 3FF608AF 		bhi	.L2949
 10500 04ea B046     		mov	r8, r6
 10501 04ec 1646     		mov	r6, r2
 10502 04ee 029A     		ldr	r2, [sp, #8]
 10503 04f0 DDF868C0 		ldr	ip, [sp, #104]
 10504 04f4 0499     		ldr	r1, [sp, #16]
 10505 04f6 2032     		adds	r2, r2, #32
 10506 04f8 09FB0121 		mla	r1, r9, r1, r2
 10507 04fc 0CF1FF3B 		add	fp, ip, #-1
 10508 0500 8B44     		add	fp, fp, r1
 10509 0502 CCF10000 		rsb	r0, ip, #0
 10510 0506 0BEA000B 		and	fp, fp, r0
 10511 050a ABEB010B 		sub	fp, fp, r1
 10512 050e 5A44     		add	r2, r2, fp
 10513 0510 0892     		str	r2, [sp, #32]
 10514 0512 0BF12002 		add	r2, fp, #32
 10515 0516 0592     		str	r2, [sp, #20]
 10516 0518 0022     		movs	r2, #0
 10517 051a 0692     		str	r2, [sp, #24]
 10518 051c 0322     		movs	r2, #3
 10519 051e 0392     		str	r2, [sp, #12]
 10520 0520 3CE0     		b	.L2931
 10521              	.L2824:
 10522 0522 1BF0010F 		tst	fp, #1
 10523 0526 00F00382 		beq	.L2945
 10524              	.L2826:
 10525 052a FFF7FEFF 		bl	get_fattime
 10526 052e 1B9B     		ldr	r3, [sp, #108]
 10527 0530 DDF868C0 		ldr	ip, [sp, #104]
 10528 0534 C218     		adds	r2, r0, r3
ARM GAS  /tmp/cc2a13AN.s 			page 186


 10529 0536 0C92     		str	r2, [sp, #48]
 10530              	.L2827:
 10531 0538 002E     		cmp	r6, #0
 10532 053a 75D0     		beq	.L3042
 10533 053c B046     		mov	r8, r6
 10534              	.L2886:
 10535 053e 40F6F571 		movw	r1, #4085
 10536 0542 B3FBF8F2 		udiv	r2, r3, r8
 10537 0546 8A42     		cmp	r2, r1
 10538 0548 59D9     		bls	.L2889
 10539              	.L3045:
 10540 054a 0232     		adds	r2, r2, #2
 10541 054c 0221     		movs	r1, #2
 10542 054e 5200     		lsls	r2, r2, #1
 10543 0550 0391     		str	r1, [sp, #12]
 10544              	.L2890:
 10545 0552 0298     		ldr	r0, [sp, #8]
 10546 0554 C7F31611 		ubfx	r1, r7, #4, #23
 10547 0558 0130     		adds	r0, r0, #1
 10548 055a 02F2FF12 		addw	r2, r2, #511
 10549 055e 520A     		lsrs	r2, r2, #9
 10550 0560 0691     		str	r1, [sp, #24]
 10551 0562 0144     		add	r1, r1, r0
 10552 0564 09FB0211 		mla	r1, r9, r2, r1
 10553 0568 0890     		str	r0, [sp, #32]
 10554 056a 0CF1FF30 		add	r0, ip, #-1
 10555 056e CCF1000E 		rsb	lr, ip, #0
 10556 0572 0844     		add	r0, r0, r1
 10557 0574 00EA0E00 		and	r0, r0, lr
 10558 0578 401A     		subs	r0, r0, r1
 10559 057a B0FBF9FE 		udiv	lr, r0, r9
 10560 057e 09FB1E0B 		mls	fp, r9, lr, r0
 10561 0582 BBF1000F 		cmp	fp, #0
 10562 0586 47D0     		beq	.L2963
 10563 0588 0138     		subs	r0, r0, #1
 10564 058a B0FBF9FE 		udiv	lr, r0, r9
 10565 058e 0298     		ldr	r0, [sp, #8]
 10566 0590 0230     		adds	r0, r0, #2
 10567 0592 0890     		str	r0, [sp, #32]
 10568 0594 0220     		movs	r0, #2
 10569 0596 0590     		str	r0, [sp, #20]
 10570              	.L2891:
 10571 0598 7244     		add	r2, lr, r2
 10572 059a 0492     		str	r2, [sp, #16]
 10573              	.L2931:
 10574 059c 029A     		ldr	r2, [sp, #8]
 10575 059e 891A     		subs	r1, r1, r2
 10576 05a0 01EB0811 		add	r1, r1, r8, lsl #4
 10577 05a4 9942     		cmp	r1, r3
 10578 05a6 3FF6A8AE 		bhi	.L2949
 10579 05aa DDE90521 		ldrd	r2, r1, [sp, #20]
 10580 05ae 0A44     		add	r2, r2, r1
 10581 05b0 0499     		ldr	r1, [sp, #16]
 10582 05b2 9A1A     		subs	r2, r3, r2
 10583 05b4 09FB1122 		mls	r2, r9, r1, r2
 10584 05b8 B2FBF8FB 		udiv	fp, r2, r8
 10585 05bc 039A     		ldr	r2, [sp, #12]
ARM GAS  /tmp/cc2a13AN.s 			page 187


 10586 05be 032A     		cmp	r2, #3
 10587 05c0 3FF4BEAE 		beq	.L3043
 10588 05c4 039A     		ldr	r2, [sp, #12]
 10589 05c6 022A     		cmp	r2, #2
 10590 05c8 40F08482 		bne	.L2895
 10591 05cc 4FF6F572 		movw	r2, #65525
 10592 05d0 9345     		cmp	fp, r2
 10593 05d2 7FF687AE 		bls	.L2896
 10594 05d6 16BB     		cbnz	r6, .L2897
 10595 05d8 4FEA4808 		lsl	r8, r8, #1
 10596 05dc B8F1400F 		cmp	r8, #64
 10597 05e0 40F2A881 		bls	.L3044
 10598 05e4 0B9A     		ldr	r2, [sp, #44]
 10599 05e6 C2BB     		cbnz	r2, .L2929
 10600 05e8 B8F1800F 		cmp	r8, #128
 10601 05ec 3FF685AE 		bhi	.L2949
 10602 05f0 B3FBF8F2 		udiv	r2, r3, r8
 10603 05f4 40F6F571 		movw	r1, #4085
 10604 05f8 8A42     		cmp	r2, r1
 10605 05fa 4646     		mov	r6, r8
 10606 05fc A5D8     		bhi	.L3045
 10607              	.L2889:
 10608 05fe 02EB4202 		add	r2, r2, r2, lsl #1
 10609 0602 0132     		adds	r2, r2, #1
 10610 0604 5208     		lsrs	r2, r2, #1
 10611 0606 0121     		movs	r1, #1
 10612 0608 0332     		adds	r2, r2, #3
 10613 060a 0391     		str	r1, [sp, #12]
 10614 060c A1E7     		b	.L2890
 10615              	.L3033:
 10616 060e B8F5813F 		cmp	r8, #66048
 10617 0612 BFF47AAD 		bcs	.L2822
 10618 0616 47E7     		b	.L2823
 10619              	.L2963:
 10620 0618 0120     		movs	r0, #1
 10621 061a 0590     		str	r0, [sp, #20]
 10622 061c BCE7     		b	.L2891
 10623              	.L2897:
 10624 061e 0B9A     		ldr	r2, [sp, #44]
 10625 0620 002A     		cmp	r2, #0
 10626 0622 7FF44DAF 		bne	.L2828
 10627 0626 68E6     		b	.L2949
 10628              	.L3042:
 10629 0628 0122     		movs	r2, #1
 10630 062a 1649     		ldr	r1, .L3062+12
 10631 062c 180B     		lsrs	r0, r3, #12
 10632 062e 9046     		mov	r8, r2
 10633 0630 06E0     		b	.L2887
 10634              	.L2888:
 10635 0632 31F8022B 		ldrh	r2, [r1], #2
 10636 0636 4FEA4808 		lsl	r8, r8, #1
 10637 063a 002A     		cmp	r2, #0
 10638 063c 3FF47FAF 		beq	.L2886
 10639              	.L2887:
 10640 0640 8242     		cmp	r2, r0
 10641 0642 F6D9     		bls	.L2888
 10642 0644 7BE7     		b	.L2886
ARM GAS  /tmp/cc2a13AN.s 			page 188


 10643              	.L3037:
 10644 0646 002E     		cmp	r6, #0
 10645 0648 7FF457AE 		bne	.L2949
 10646 064c B8F1010F 		cmp	r8, #1
 10647 0650 7FF653AE 		bls	.L2949
 10648 0654 4FEA5806 		lsr	r6, r8, #1
 10649 0658 32E7     		b	.L2828
 10650              	.L2929:
 10651 065a 0126     		movs	r6, #1
 10652 065c 0A49     		ldr	r1, .L3062+16
 10653 065e 580C     		lsrs	r0, r3, #17
 10654 0660 3246     		mov	r2, r6
 10655 0662 05E0     		b	.L2883
 10656              	.L2884:
 10657 0664 31F8022B 		ldrh	r2, [r1], #2
 10658 0668 7600     		lsls	r6, r6, #1
 10659 066a 002A     		cmp	r2, #0
 10660 066c 3FF42CAF 		beq	.L2882
 10661              	.L2883:
 10662 0670 8242     		cmp	r2, r0
 10663 0672 F7D9     		bls	.L2884
 10664 0674 0022     		movs	r2, #0
 10665 0676 27E7     		b	.L2882
 10666              	.L3063:
 10667              		.align	2
 10668              	.L3062:
 10669 0678 00000000 		.word	.LC4
 10670 067c 20000000 		.word	.LC6
 10671 0680 F8FFFF00 		.word	16777208
 10672 0684 02000000 		.word	.LANCHOR9+2
 10673 0688 02000000 		.word	.LANCHOR8+2
 10674 068c FFFFFE0F 		.word	268369919
 10675              	.L2844:
 10676 0690 FDB2     		uxtb	r5, r7
 10677 0692 019B     		ldr	r3, [sp, #4]
 10678 0694 04F80A50 		strb	r5, [r4, r10]
 10679 0698 05EB7B0B 		add	fp, r5, fp, ror #1
 10680 069c 04EB0A05 		add	r5, r4, r10
 10681 06a0 C7F30F27 		ubfx	r7, r7, #8, #16
 10682 06a4 0233     		adds	r3, r3, #2
 10683 06a6 0193     		str	r3, [sp, #4]
 10684 06a8 07EB7B0B 		add	fp, r7, fp, ror #1
 10685 06ac 6F70     		strb	r7, [r5, #1]
 10686 06ae 0028     		cmp	r0, #0
 10687 06b0 00F04781 		beq	.L2852
 10688 06b4 CDF818A0 		str	r10, [sp, #24]
 10689 06b8 0746     		mov	r7, r0
 10690 06ba 0AF1020A 		add	r10, r10, #2
 10691 06be 0126     		movs	r6, #1
 10692 06c0 D8E5     		b	.L2838
 10693              	.L2845:
 10694 06c2 2546     		mov	r5, r4
 10695 06c4 18EE102A 		vmov	r2, s16	@ int
 10696 06c8 0B9E     		ldr	r6, [sp, #44]
 10697 06ca CDF814B0 		str	fp, [sp, #20]
 10698 06ce 18EE904A 		vmov	r4, s17	@ int
 10699              	.L3026:
ARM GAS  /tmp/cc2a13AN.s 			page 189


 10700 06d2 069B     		ldr	r3, [sp, #24]
 10701 06d4 DDF830A0 		ldr	r10, [sp, #48]
 10702 06d8 03F20123 		addw	r3, r3, #513
 10703              	.L3029:
 10704 06dc 5B0A     		lsrs	r3, r3, #9
 10705 06de 2946     		mov	r1, r5
 10706 06e0 2046     		mov	r0, r4
 10707 06e2 FFF7FEFF 		bl	disk_write
 10708 06e6 0028     		cmp	r0, #0
 10709 06e8 7FF4D4AE 		bne	.L2943
 10710 06ec 019A     		ldr	r2, [sp, #4]
 10711 06ee 179B     		ldr	r3, [sp, #92]
 10712 06f0 DDF834B0 		ldr	fp, [sp, #52]
 10713 06f4 0496     		str	r6, [sp, #16]
 10714 06f6 1344     		add	r3, r3, r2
 10715 06f8 169A     		ldr	r2, [sp, #88]
 10716 06fa B3FBF2F3 		udiv	r3, r3, r2
 10717 06fe 149A     		ldr	r2, [sp, #80]
 10718 0700 1E93     		str	r3, [sp, #120]
 10719 0702 D318     		adds	r3, r2, r3
 10720 0704 159A     		ldr	r2, [sp, #84]
 10721 0706 0693     		str	r3, [sp, #24]
 10722 0708 2AF4FF78 		bic	r8, r10, #510
 10723 070c 4FF00109 		mov	r9, #1
 10724 0710 02F2FF17 		addw	r7, r2, #511
 10725 0714 4FEA572A 		lsr	r10, r7, #9
 10726 0718 28F00108 		bic	r8, r8, #1
 10727 071c CDF87C90 		str	r9, [sp, #124]
 10728 0720 03EB0907 		add	r7, r3, r9
 10729              	.L2856:
 10730 0724 4246     		mov	r2, r8
 10731 0726 0021     		movs	r1, #0
 10732 0728 2846     		mov	r0, r5
 10733 072a FFF7FEFF 		bl	memset
 10734 072e A7B1     		cbz	r7, .L2855
 10735 0730 0023     		movs	r3, #0
 10736 0732 1946     		mov	r1, r3
 10737 0734 05E0     		b	.L2853
 10738              	.L3047:
 10739 0736 B8EBD30F 		cmp	r8, r3, lsr #3
 10740 073a 4FEAD301 		lsr	r1, r3, #3
 10741 073e 40F2F580 		bls	.L3046
 10742              	.L2853:
 10743 0742 685C     		ldrb	r0, [r5, r1]	@ zero_extendqisi2
 10744 0744 03F00702 		and	r2, r3, #7
 10745 0748 09FA02F2 		lsl	r2, r9, r2
 10746 074c 0133     		adds	r3, r3, #1
 10747 074e 0243     		orrs	r2, r2, r0
 10748 0750 9F42     		cmp	r7, r3
 10749 0752 6A54     		strb	r2, [r5, r1]
 10750 0754 A7EB0302 		sub	r2, r7, r3
 10751 0758 EDD1     		bne	.L3047
 10752              	.L2855:
 10753 075a 0027     		movs	r7, #0
 10754              	.L2854:
 10755 075c 099E     		ldr	r6, [sp, #36]
 10756 075e 5645     		cmp	r6, r10
ARM GAS  /tmp/cc2a13AN.s 			page 190


 10757 0760 28BF     		it	cs
 10758 0762 5646     		movcs	r6, r10
 10759 0764 3346     		mov	r3, r6
 10760 0766 5A46     		mov	r2, fp
 10761 0768 2946     		mov	r1, r5
 10762 076a 2046     		mov	r0, r4
 10763 076c FFF7FEFF 		bl	disk_write
 10764 0770 0028     		cmp	r0, #0
 10765 0772 7FF48FAE 		bne	.L2943
 10766 0776 BAEB060A 		subs	r10, r10, r6
 10767 077a B344     		add	fp, fp, r6
 10768 077c D2D1     		bne	.L2856
 10769 077e 049E     		ldr	r6, [sp, #16]
 10770 0780 0E9B     		ldr	r3, [sp, #56]
 10771 0782 0896     		str	r6, [sp, #32]
 10772 0784 5746     		mov	r7, r10
 10773 0786 5646     		mov	r6, r10
 10774 0788 DDF83CA0 		ldr	r10, [sp, #60]
 10775 078c 08EE104A 		vmov	s16, r4	@ int
 10776 0790 4FF0FF0B 		mov	fp, #255
 10777 0794 3C46     		mov	r4, r7
 10778 0796 9946     		mov	r9, r3
 10779              	.L2865:
 10780 0798 4246     		mov	r2, r8
 10781 079a 0021     		movs	r1, #0
 10782 079c 2846     		mov	r0, r5
 10783 079e FFF7FEFF 		bl	memset
 10784 07a2 002E     		cmp	r6, #0
 10785 07a4 40F0C880 		bne	.L2957
 10786 07a8 F823     		movs	r3, #248
 10787 07aa 2B70     		strb	r3, [r5]
 10788 07ac 85F801B0 		strb	fp, [r5, #1]
 10789 07b0 85F802B0 		strb	fp, [r5, #2]
 10790 07b4 85F803B0 		strb	fp, [r5, #3]
 10791 07b8 85F804B0 		strb	fp, [r5, #4]
 10792 07bc 85F805B0 		strb	fp, [r5, #5]
 10793 07c0 85F806B0 		strb	fp, [r5, #6]
 10794 07c4 85F807B0 		strb	fp, [r5, #7]
 10795 07c8 0226     		movs	r6, #2
 10796 07ca 0823     		movs	r3, #8
 10797              	.L2861:
 10798 07cc 84B9     		cbnz	r4, .L3048
 10799              	.L2862:
 10800 07ce 022F     		cmp	r7, #2
 10801 07d0 12D8     		bhi	.L2864
 10802 07d2 20A9     		add	r1, sp, #128
 10803 07d4 7A1C     		adds	r2, r7, #1
 10804 07d6 01EB8707 		add	r7, r1, r7, lsl #2
 10805 07da 57F80C4C 		ldr	r4, [r7, #-12]
 10806 07de 002C     		cmp	r4, #0
 10807 07e0 00F05781 		beq	.L2958
 10808 07e4 4345     		cmp	r3, r8
 10809 07e6 80F05481 		bcs	.L2958
 10810 07ea 1746     		mov	r7, r2
 10811              	.L3052:
 10812 07ec 002C     		cmp	r4, #0
 10813 07ee EED0     		beq	.L2862
ARM GAS  /tmp/cc2a13AN.s 			page 191


 10814              	.L3048:
 10815 07f0 4345     		cmp	r3, r8
 10816 07f2 05EB0302 		add	r2, r5, r3
 10817 07f6 7ED3     		bcc	.L2863
 10818              	.L2864:
 10819 07f8 099B     		ldr	r3, [sp, #36]
 10820 07fa 4B45     		cmp	r3, r9
 10821 07fc 28BF     		it	cs
 10822 07fe 4B46     		movcs	r3, r9
 10823 0800 18EE100A 		vmov	r0, s16	@ int
 10824 0804 5246     		mov	r2, r10
 10825 0806 2946     		mov	r1, r5
 10826 0808 0493     		str	r3, [sp, #16]
 10827 080a FFF7FEFF 		bl	disk_write
 10828 080e 0028     		cmp	r0, #0
 10829 0810 7FF440AE 		bne	.L2943
 10830 0814 049B     		ldr	r3, [sp, #16]
 10831 0816 B9EB0309 		subs	r9, r9, r3
 10832 081a 9A44     		add	r10, r10, r3
 10833 081c BCD1     		bne	.L2865
 10834 081e 089E     		ldr	r6, [sp, #32]
 10835 0820 0D99     		ldr	r1, [sp, #52]
 10836 0822 0698     		ldr	r0, [sp, #24]
 10837 0824 4246     		mov	r2, r8
 10838 0826 06FB0017 		mla	r7, r6, r0, r1
 10839 082a 4946     		mov	r1, r9
 10840 082c 2846     		mov	r0, r5
 10841 082e FFF7FEFF 		bl	memset
 10842 0832 8323     		movs	r3, #131
 10843 0834 2B70     		strb	r3, [r5]
 10844 0836 8123     		movs	r3, #129
 10845 0838 85F82030 		strb	r3, [r5, #32]
 10846 083c 0223     		movs	r3, #2
 10847 083e 85F83430 		strb	r3, [r5, #52]
 10848 0842 139B     		ldr	r3, [sp, #76]
 10849 0844 0599     		ldr	r1, [sp, #20]
 10850 0846 159A     		ldr	r2, [sp, #84]
 10851 0848 85F83820 		strb	r2, [r5, #56]
 10852 084c DB0A     		lsrs	r3, r3, #11
 10853 084e 85F83930 		strb	r3, [r5, #57]
 10854 0852 139B     		ldr	r3, [sp, #76]
 10855 0854 149A     		ldr	r2, [sp, #80]
 10856 0856 0198     		ldr	r0, [sp, #4]
 10857 0858 85F83590 		strb	r9, [r5, #53]
 10858 085c DB0C     		lsrs	r3, r3, #19
 10859 085e 85F83A30 		strb	r3, [r5, #58]
 10860 0862 139B     		ldr	r3, [sp, #76]
 10861 0864 85F83690 		strb	r9, [r5, #54]
 10862 0868 DB0E     		lsrs	r3, r3, #27
 10863 086a 85F83B30 		strb	r3, [r5, #59]
 10864 086e 8223     		movs	r3, #130
 10865 0870 85F84030 		strb	r3, [r5, #64]
 10866 0874 0B0A     		lsrs	r3, r1, #8
 10867 0876 85F84530 		strb	r3, [r5, #69]
 10868 087a 0B0C     		lsrs	r3, r1, #16
 10869 087c 0232     		adds	r2, r2, #2
 10870 087e 85F84630 		strb	r3, [r5, #70]
ARM GAS  /tmp/cc2a13AN.s 			page 192


 10871 0882 0B0E     		lsrs	r3, r1, #24
 10872 0884 85F84730 		strb	r3, [r5, #71]
 10873 0888 130A     		lsrs	r3, r2, #8
 10874 088a 85F85530 		strb	r3, [r5, #85]
 10875 088e 030A     		lsrs	r3, r0, #8
 10876 0890 85F85930 		strb	r3, [r5, #89]
 10877 0894 030C     		lsrs	r3, r0, #16
 10878 0896 85F85420 		strb	r2, [r5, #84]
 10879 089a 85F85A30 		strb	r3, [r5, #90]
 10880 089e 120C     		lsrs	r2, r2, #16
 10881 08a0 030E     		lsrs	r3, r0, #24
 10882 08a2 85F83790 		strb	r9, [r5, #55]
 10883 08a6 85F85790 		strb	r9, [r5, #87]
 10884 08aa 18EE104A 		vmov	r4, s16	@ int
 10885 08ae DDF82490 		ldr	r9, [sp, #36]
 10886 08b2 85F84410 		strb	r1, [r5, #68]
 10887 08b6 85F85800 		strb	r0, [r5, #88]
 10888 08ba 85F85620 		strb	r2, [r5, #86]
 10889 08be 85F85B30 		strb	r3, [r5, #91]
 10890 08c2 B046     		mov	r8, r6
 10891 08c4 05E0     		b	.L2866
 10892              	.L3050:
 10893 08c6 FFF7FEFF 		bl	memset
 10894 08ca B8EB0A08 		subs	r8, r8, r10
 10895 08ce 00F03182 		beq	.L3049
 10896              	.L2866:
 10897 08d2 C845     		cmp	r8, r9
 10898 08d4 C246     		mov	r10, r8
 10899 08d6 28BF     		it	cs
 10900 08d8 CA46     		movcs	r10, r9
 10901 08da 3A46     		mov	r2, r7
 10902 08dc 2946     		mov	r1, r5
 10903 08de 5346     		mov	r3, r10
 10904 08e0 2046     		mov	r0, r4
 10905 08e2 FFF7FEFF 		bl	disk_write
 10906 08e6 0146     		mov	r1, r0
 10907 08e8 5744     		add	r7, r7, r10
 10908 08ea 4FF40072 		mov	r2, #512
 10909 08ee 2846     		mov	r0, r5
 10910 08f0 0029     		cmp	r1, #0
 10911 08f2 E8D0     		beq	.L3050
 10912 08f4 CEE5     		b	.L2943
 10913              	.L2863:
 10914 08f6 012C     		cmp	r4, #1
 10915 08f8 06F10106 		add	r6, r6, #1
 10916 08fc 11D0     		beq	.L3051
 10917 08fe 5FFA86FE 		uxtb	lr, r6
 10918 0902 C6F3072C 		ubfx	ip, r6, #8, #8
 10919 0906 C6F30740 		ubfx	r0, r6, #16, #8
 10920 090a 310E     		lsrs	r1, r6, #24
 10921              	.L2859:
 10922 090c 82F800E0 		strb	lr, [r2]
 10923 0910 82F801C0 		strb	ip, [r2, #1]
 10924 0914 9070     		strb	r0, [r2, #2]
 10925 0916 D170     		strb	r1, [r2, #3]
 10926 0918 3A46     		mov	r2, r7
 10927 091a 0433     		adds	r3, r3, #4
ARM GAS  /tmp/cc2a13AN.s 			page 193


 10928 091c 013C     		subs	r4, r4, #1
 10929 091e 1746     		mov	r7, r2
 10930 0920 64E7     		b	.L3052
 10931              	.L3051:
 10932 0922 FF21     		movs	r1, #255
 10933 0924 0846     		mov	r0, r1
 10934 0926 8C46     		mov	ip, r1
 10935 0928 8E46     		mov	lr, r1
 10936 092a EFE7     		b	.L2859
 10937              	.L3046:
 10938 092c 1746     		mov	r7, r2
 10939 092e 15E7     		b	.L2854
 10940              	.L2945:
 10941 0930 1320     		movs	r0, #19
 10942 0932 E3E4     		b	.L3008
 10943              	.L3044:
 10944 0934 4646     		mov	r6, r8
 10945 0936 FFE5     		b	.L2827
 10946              	.L2957:
 10947 0938 0023     		movs	r3, #0
 10948 093a 47E7     		b	.L2861
 10949              	.L2946:
 10950 093c 0826     		movs	r6, #8
 10951 093e FFF7F9BB 		b	.L2829
 10952              	.L2852:
 10953 0942 D046     		mov	r8, r10
 10954 0944 2546     		mov	r5, r4
 10955 0946 18EE102A 		vmov	r2, s16	@ int
 10956 094a 0B9E     		ldr	r6, [sp, #44]
 10957 094c DDF830A0 		ldr	r10, [sp, #48]
 10958 0950 CDF814B0 		str	fp, [sp, #20]
 10959 0954 18EE904A 		vmov	r4, s17	@ int
 10960 0958 08F20123 		addw	r3, r8, #513
 10961 095c BEE6     		b	.L3029
 10962              	.L3035:
 10963 095e 7B1C     		adds	r3, r7, #1
 10964 0960 9BB2     		uxth	r3, r3
 10965 0962 1893     		str	r3, [sp, #96]
 10966 0964 002B     		cmp	r3, #0
 10967 0966 00F0B083 		beq	.L2950
 10968 096a C7F57F43 		rsb	r3, r7, #65280
 10969 096e FE33     		adds	r3, r3, #254
 10970 0970 9BB2     		uxth	r3, r3
 10971 0972 9E1C     		adds	r6, r3, #2
 10972 0974 4FF00109 		mov	r9, #1
 10973 0978 04E0     		b	.L2836
 10974              	.L2840:
 10975 097a 09F10109 		add	r9, r9, #1
 10976 097e B145     		cmp	r9, r6
 10977 0980 00F08980 		beq	.L2839
 10978              	.L2836:
 10979 0984 07EB0905 		add	r5, r7, r9
 10980 0988 ADB2     		uxth	r5, r5
 10981 098a 2846     		mov	r0, r5
 10982 098c FFF7FEFF 		bl	ff_wtoupper
 10983 0990 8542     		cmp	r5, r0
 10984 0992 F2D0     		beq	.L2840
ARM GAS  /tmp/cc2a13AN.s 			page 194


 10985 0994 B9F17F0F 		cmp	r9, #127
 10986 0998 40F28581 		bls	.L3053
 10987              	.L2841:
 10988 099c 019B     		ldr	r3, [sp, #4]
 10989 099e 089A     		ldr	r2, [sp, #32]
 10990 09a0 0233     		adds	r3, r3, #2
 10991 09a2 4FEA7B0B 		ror	fp, fp, #1
 10992 09a6 0193     		str	r3, [sp, #4]
 10993 09a8 FF23     		movs	r3, #255
 10994 09aa 1370     		strb	r3, [r2]
 10995 09ac 0BF1FF0B 		add	fp, fp, #255
 10996 09b0 059A     		ldr	r2, [sp, #20]
 10997 09b2 4FEA7B0B 		ror	fp, fp, #1
 10998 09b6 08F80230 		strb	r3, [r8, r2]
 10999 09ba 0BF1FF0B 		add	fp, fp, #255
 11000 09be 002F     		cmp	r7, #0
 11001 09c0 00F07C81 		beq	.L2851
 11002 09c4 049B     		ldr	r3, [sp, #16]
 11003 09c6 A342     		cmp	r3, r4
 11004 09c8 00F09A81 		beq	.L3054
 11005              	.L2833:
 11006 09cc 019B     		ldr	r3, [sp, #4]
 11007 09ce 08F80490 		strb	r9, [r8, r4]
 11008 09d2 0233     		adds	r3, r3, #2
 11009 09d4 0193     		str	r3, [sp, #4]
 11010 09d6 1FFA89F3 		uxth	r3, r9
 11011 09da 1F44     		add	r7, r7, r3
 11012 09dc 4FEA7B0B 		ror	fp, fp, #1
 11013 09e0 08EB0401 		add	r1, r8, r4
 11014 09e4 1B0A     		lsrs	r3, r3, #8
 11015 09e6 5BFA89FB 		uxtab	fp, fp, r9
 11016 09ea BFB2     		uxth	r7, r7
 11017 09ec 03EB7B0B 		add	fp, r3, fp, ror #1
 11018 09f0 4B70     		strb	r3, [r1, #1]
 11019 09f2 37B1     		cbz	r7, .L2847
 11020 09f4 049B     		ldr	r3, [sp, #16]
 11021 09f6 A01C     		adds	r0, r4, #2
 11022 09f8 9842     		cmp	r0, r3
 11023 09fa 10D0     		beq	.L3055
 11024 09fc 4446     		mov	r4, r8
 11025 09fe 8246     		mov	r10, r0
 11026 0a00 0EE4     		b	.L2831
 11027              	.L2847:
 11028 0a02 4546     		mov	r5, r8
 11029 0a04 A046     		mov	r8, r4
 11030 0a06 18EE102A 		vmov	r2, s16	@ int
 11031 0a0a 0B9E     		ldr	r6, [sp, #44]
 11032 0a0c DDF830A0 		ldr	r10, [sp, #48]
 11033 0a10 CDF814B0 		str	fp, [sp, #20]
 11034 0a14 18EE904A 		vmov	r4, s17	@ int
 11035 0a18 08F20123 		addw	r3, r8, #513
 11036 0a1c 5EE6     		b	.L3029
 11037              	.L3055:
 11038 0a1e 04F20122 		addw	r2, r4, #513
 11039 0a22 540A     		lsrs	r4, r2, #9
 11040 0a24 18EE900A 		vmov	r0, s17	@ int
 11041 0a28 18EE102A 		vmov	r2, s16	@ int
ARM GAS  /tmp/cc2a13AN.s 			page 195


 11042 0a2c 2346     		mov	r3, r4
 11043 0a2e 4146     		mov	r1, r8
 11044 0a30 FFF7FEFF 		bl	disk_write
 11045 0a34 0028     		cmp	r0, #0
 11046 0a36 7FF42DAD 		bne	.L2943
 11047 0a3a 18EE103A 		vmov	r3, s16	@ int
 11048 0a3e 2344     		add	r3, r3, r4
 11049 0a40 08EE103A 		vmov	s16, r3	@ int
 11050 0a44 0123     		movs	r3, #1
 11051 0a46 0690     		str	r0, [sp, #24]
 11052 0a48 CDF82080 		str	r8, [sp, #32]
 11053 0a4c 0593     		str	r3, [sp, #20]
 11054 0a4e 0224     		movs	r4, #2
 11055 0a50 FFF7F1BB 		b	.L2834
 11056              	.L3034:
 11057 0a54 069B     		ldr	r3, [sp, #24]
 11058 0a56 03F20125 		addw	r5, r3, #513
 11059 0a5a 6D0A     		lsrs	r5, r5, #9
 11060 0a5c 18EE102A 		vmov	r2, s16	@ int
 11061 0a60 18EE900A 		vmov	r0, s17	@ int
 11062 0a64 2B46     		mov	r3, r5
 11063 0a66 2146     		mov	r1, r4
 11064 0a68 FFF7FEFF 		bl	disk_write
 11065 0a6c 0028     		cmp	r0, #0
 11066 0a6e 7FF411AD 		bne	.L2943
 11067 0a72 18EE103A 		vmov	r3, s16	@ int
 11068 0a76 2B44     		add	r3, r3, r5
 11069 0a78 08EE103A 		vmov	s16, r3	@ int
 11070 0a7c 4FF0020A 		mov	r10, #2
 11071 0a80 0123     		movs	r3, #1
 11072 0a82 0894     		str	r4, [sp, #32]
 11073 0a84 A046     		mov	r8, r4
 11074 0a86 0690     		str	r0, [sp, #24]
 11075 0a88 0593     		str	r3, [sp, #20]
 11076 0a8a 8146     		mov	r9, r0
 11077 0a8c 5446     		mov	r4, r10
 11078 0a8e FFF7D2BB 		b	.L2834
 11079              	.L2958:
 11080 0a92 1746     		mov	r7, r2
 11081 0a94 B0E6     		b	.L2864
 11082              	.L2839:
 11083 0a96 B9F17F0F 		cmp	r9, #127
 11084 0a9a 3FF67FAF 		bhi	.L2841
 11085 0a9e 6FEA0709 		mvn	r9, r7
 11086 0aa2 089E     		ldr	r6, [sp, #32]
 11087 0aa4 A246     		mov	r10, r4
 11088 0aa6 1FFA89F9 		uxth	r9, r9
 11089 0aaa 4446     		mov	r4, r8
 11090              	.L2932:
 11091 0aac 019B     		ldr	r3, [sp, #4]
 11092 0aae 0233     		adds	r3, r3, #2
 11093 0ab0 0193     		str	r3, [sp, #4]
 11094 0ab2 059B     		ldr	r3, [sp, #20]
 11095 0ab4 F8B2     		uxtb	r0, r7
 11096 0ab6 C7F30F27 		ubfx	r7, r7, #8, #16
 11097 0aba 3070     		strb	r0, [r6]
 11098 0abc E754     		strb	r7, [r4, r3]
ARM GAS  /tmp/cc2a13AN.s 			page 196


 11099 0abe 049B     		ldr	r3, [sp, #16]
 11100 0ac0 00EB7B00 		add	r0, r0, fp, ror #1
 11101 0ac4 9A45     		cmp	r10, r3
 11102 0ac6 07EB700B 		add	fp, r7, r0, ror #1
 11103 0aca 00F02982 		beq	.L3056
 11104 0ace 189F     		ldr	r7, [sp, #96]
 11105 0ad0 FFF77EBB 		b	.L2832
 11106              	.L2895:
 11107 0ad4 40F6F572 		movw	r2, #4085
 11108 0ad8 9345     		cmp	fp, r2
 11109 0ada 3FF60EAC 		bhi	.L2949
 11110 0ade 0021     		movs	r1, #0
 11111 0ae0 4FF40072 		mov	r2, #512
 11112 0ae4 2846     		mov	r0, r5
 11113 0ae6 0B93     		str	r3, [sp, #44]
 11114 0ae8 FFF7FEFF 		bl	memset
 11115 0aec 019B     		ldr	r3, [sp, #4]
 11116 0aee 2B74     		strb	r3, [r5, #16]
 11117 0af0 059B     		ldr	r3, [sp, #20]
 11118 0af2 AB73     		strb	r3, [r5, #14]
 11119 0af4 C3F30722 		ubfx	r2, r3, #8, #8
 11120 0af8 FBB2     		uxtb	r3, r7
 11121 0afa 0221     		movs	r1, #2
 11122 0afc 0793     		str	r3, [sp, #28]
 11123 0afe 0123     		movs	r3, #1
 11124 0b00 EA73     		strb	r2, [r5, #15]
 11125 0b02 85F80D80 		strb	r8, [r5, #13]
 11126 0b06 894A     		ldr	r2, .L3064
 11127 0b08 2973     		strb	r1, [r5, #12]
 11128 0b0a C7F30727 		ubfx	r7, r7, #8, #8
 11129 0b0e 0393     		str	r3, [sp, #12]
 11130 0b10 2FE4     		b	.L3030
 11131              	.L3040:
 11132 0b12 029B     		ldr	r3, [sp, #8]
 11133 0b14 0AF1010A 		add	r10, r10, #1
 11134 0b18 9A45     		cmp	r10, r3
 11135 0b1a 7FF497AC 		bne	.L2911
 11136 0b1e 4746     		mov	r7, r8
 11137 0b20 DDE90583 		ldrd	r8, r3, [sp, #20]
 11138 0b24 039A     		ldr	r2, [sp, #12]
 11139 0b26 DDF82490 		ldr	r9, [sp, #36]
 11140 0b2a 032A     		cmp	r2, #3
 11141 0b2c 18BF     		it	ne
 11142 0b2e 9846     		movne	r8, r3
 11143 0b30 03E0     		b	.L2913
 11144              	.L3058:
 11145 0b32 B8EB0608 		subs	r8, r8, r6
 11146 0b36 00F00B82 		beq	.L3057
 11147              	.L2913:
 11148 0b3a C845     		cmp	r8, r9
 11149 0b3c 4646     		mov	r6, r8
 11150 0b3e 28BF     		it	cs
 11151 0b40 4E46     		movcs	r6, r9
 11152 0b42 3A46     		mov	r2, r7
 11153 0b44 3346     		mov	r3, r6
 11154 0b46 2946     		mov	r1, r5
 11155 0b48 2046     		mov	r0, r4
ARM GAS  /tmp/cc2a13AN.s 			page 197


 11156 0b4a 3744     		add	r7, r7, r6
 11157 0b4c FFF7FEFF 		bl	disk_write
 11158 0b50 0028     		cmp	r0, #0
 11159 0b52 EED0     		beq	.L3058
 11160 0b54 9EE4     		b	.L2943
 11161              	.L2902:
 11162 0b56 1A0A     		lsrs	r2, r3, #8
 11163 0b58 85F82030 		strb	r3, [r5, #32]
 11164 0b5c 85F82120 		strb	r2, [r5, #33]
 11165 0b60 1A0C     		lsrs	r2, r3, #16
 11166 0b62 1B0E     		lsrs	r3, r3, #24
 11167 0b64 85F82220 		strb	r2, [r5, #34]
 11168 0b68 85F82330 		strb	r3, [r5, #35]
 11169 0b6c 14E4     		b	.L2903
 11170              	.L3039:
 11171 0b6e 4FF00F03 		mov	r3, #15
 11172 0b72 EF70     		strb	r7, [r5, #3]
 11173 0b74 2F71     		strb	r7, [r5, #4]
 11174 0b76 6F71     		strb	r7, [r5, #5]
 11175 0b78 AF71     		strb	r7, [r5, #6]
 11176 0b7a EF71     		strb	r7, [r5, #7]
 11177 0b7c 2F72     		strb	r7, [r5, #8]
 11178 0b7e 6F72     		strb	r7, [r5, #9]
 11179 0b80 AF72     		strb	r7, [r5, #10]
 11180 0b82 EB72     		strb	r3, [r5, #11]
 11181 0b84 6DE4     		b	.L2909
 11182              	.L3038:
 11183 0b86 130A     		lsrs	r3, r2, #8
 11184 0b88 0499     		ldr	r1, [sp, #16]
 11185 0b8a 85F84430 		strb	r3, [r5, #68]
 11186 0b8e 130C     		lsrs	r3, r2, #16
 11187 0b90 85F84530 		strb	r3, [r5, #69]
 11188 0b94 130E     		lsrs	r3, r2, #24
 11189 0b96 85F84630 		strb	r3, [r5, #70]
 11190 0b9a 0B0A     		lsrs	r3, r1, #8
 11191 0b9c 85F82530 		strb	r3, [r5, #37]
 11192 0ba0 0B0C     		lsrs	r3, r1, #16
 11193 0ba2 85F82630 		strb	r3, [r5, #38]
 11194 0ba6 0B0E     		lsrs	r3, r1, #24
 11195 0ba8 85F82730 		strb	r3, [r5, #39]
 11196 0bac 4FF00203 		mov	r3, #2
 11197 0bb0 85F82C30 		strb	r3, [r5, #44]
 11198 0bb4 0623     		movs	r3, #6
 11199 0bb6 85F83230 		strb	r3, [r5, #50]
 11200 0bba 8023     		movs	r3, #128
 11201 0bbc 85F84030 		strb	r3, [r5, #64]
 11202 0bc0 2923     		movs	r3, #41
 11203 0bc2 85F84230 		strb	r3, [r5, #66]
 11204 0bc6 5A4E     		ldr	r6, .L3064+4
 11205 0bc8 85F84320 		strb	r2, [r5, #67]
 11206 0bcc 4FF05503 		mov	r3, #85
 11207 0bd0 85F8FE31 		strb	r3, [r5, #510]
 11208 0bd4 6FF05503 		mvn	r3, #85
 11209 0bd8 85F82410 		strb	r1, [r5, #36]
 11210 0bdc 85F8FF31 		strb	r3, [r5, #511]
 11211 0be0 0FCE     		ldmia	r6!, {r0, r1, r2, r3}
 11212 0be2 C5F85330 		str	r3, [r5, #83]	@ unaligned
ARM GAS  /tmp/cc2a13AN.s 			page 198


 11213 0be6 3388     		ldrh	r3, [r6]	@ unaligned
 11214 0be8 A5F85730 		strh	r3, [r5, #87]	@ unaligned
 11215 0bec 0127     		movs	r7, #1
 11216 0bee B378     		ldrb	r3, [r6, #2]	@ zero_extendqisi2
 11217 0bf0 C5F84700 		str	r0, [r5, #71]	@ unaligned
 11218 0bf4 C5F84B10 		str	r1, [r5, #75]	@ unaligned
 11219 0bf8 C5F84F20 		str	r2, [r5, #79]	@ unaligned
 11220 0bfc 85F85930 		strb	r3, [r5, #89]
 11221 0c00 029A     		ldr	r2, [sp, #8]
 11222 0c02 85F83070 		strb	r7, [r5, #48]
 11223 0c06 3B46     		mov	r3, r7
 11224 0c08 2946     		mov	r1, r5
 11225 0c0a 2046     		mov	r0, r4
 11226 0c0c FFF7FEFF 		bl	disk_write
 11227 0c10 0646     		mov	r6, r0
 11228 0c12 0028     		cmp	r0, #0
 11229 0c14 7FF43EAC 		bne	.L2943
 11230 0c18 029A     		ldr	r2, [sp, #8]
 11231 0c1a 3B46     		mov	r3, r7
 11232 0c1c 2946     		mov	r1, r5
 11233 0c1e 0632     		adds	r2, r2, #6
 11234 0c20 2046     		mov	r0, r4
 11235 0c22 FFF7FEFF 		bl	disk_write
 11236 0c26 3146     		mov	r1, r6
 11237 0c28 4FF40072 		mov	r2, #512
 11238 0c2c 2846     		mov	r0, r5
 11239 0c2e FFF7FEFF 		bl	memset
 11240 0c32 5222     		movs	r2, #82
 11241 0c34 4FF00203 		mov	r3, #2
 11242 0c38 85F8EC31 		strb	r3, [r5, #492]
 11243 0c3c 2A70     		strb	r2, [r5]
 11244 0c3e 6A70     		strb	r2, [r5, #1]
 11245 0c40 4FF05503 		mov	r3, #85
 11246 0c44 6122     		movs	r2, #97
 11247 0c46 85F8FE31 		strb	r3, [r5, #510]
 11248 0c4a AA70     		strb	r2, [r5, #2]
 11249 0c4c 85F8E721 		strb	r2, [r5, #487]
 11250 0c50 6FF05503 		mvn	r3, #85
 11251 0c54 4122     		movs	r2, #65
 11252 0c56 85F8FF31 		strb	r3, [r5, #511]
 11253 0c5a EA70     		strb	r2, [r5, #3]
 11254 0c5c 0BF1FF33 		add	r3, fp, #-1
 11255 0c60 85F8E621 		strb	r2, [r5, #486]
 11256 0c64 7222     		movs	r2, #114
 11257 0c66 029E     		ldr	r6, [sp, #8]
 11258 0c68 85F8E421 		strb	r2, [r5, #484]
 11259 0c6c 85F8E521 		strb	r2, [r5, #485]
 11260 0c70 1A0A     		lsrs	r2, r3, #8
 11261 0c72 85F8E921 		strb	r2, [r5, #489]
 11262 0c76 1A0C     		lsrs	r2, r3, #16
 11263 0c78 85F8E831 		strb	r3, [r5, #488]
 11264 0c7c 85F8EA21 		strb	r2, [r5, #490]
 11265 0c80 1B0E     		lsrs	r3, r3, #24
 11266 0c82 3246     		mov	r2, r6
 11267 0c84 85F8EB31 		strb	r3, [r5, #491]
 11268 0c88 2946     		mov	r1, r5
 11269 0c8a 3B46     		mov	r3, r7
ARM GAS  /tmp/cc2a13AN.s 			page 199


 11270 0c8c 0732     		adds	r2, r2, #7
 11271 0c8e 2046     		mov	r0, r4
 11272 0c90 FFF7FEFF 		bl	disk_write
 11273 0c94 3246     		mov	r2, r6
 11274 0c96 3B46     		mov	r3, r7
 11275 0c98 0132     		adds	r2, r2, #1
 11276 0c9a 2946     		mov	r1, r5
 11277 0c9c 2046     		mov	r0, r4
 11278 0c9e FFF7FEFF 		bl	disk_write
 11279 0ca2 FFF7BABB 		b	.L2907
 11280              	.L3053:
 11281 0ca6 B9F10109 		subs	r9, r9, #1
 11282 0caa A246     		mov	r10, r4
 11283 0cac 089E     		ldr	r6, [sp, #32]
 11284 0cae 4446     		mov	r4, r8
 11285 0cb0 7FF4FCAE 		bne	.L2932
 11286 0cb4 BC46     		mov	ip, r7
 11287 0cb6 189F     		ldr	r7, [sp, #96]
 11288 0cb8 FFF79ABA 		b	.L2835
 11289              	.L2851:
 11290 0cbc 18EE102A 		vmov	r2, s16	@ int
 11291 0cc0 0B9E     		ldr	r6, [sp, #44]
 11292 0cc2 CDF814B0 		str	fp, [sp, #20]
 11293 0cc6 18EE904A 		vmov	r4, s17	@ int
 11294 0cca 4546     		mov	r5, r8
 11295 0ccc 01E5     		b	.L3026
 11296              	.L2899:
 11297 0cce 4FF40072 		mov	r2, #512
 11298 0cd2 0021     		movs	r1, #0
 11299 0cd4 2846     		mov	r0, r5
 11300 0cd6 0B93     		str	r3, [sp, #44]
 11301 0cd8 FFF7FEFF 		bl	memset
 11302 0cdc 019B     		ldr	r3, [sp, #4]
 11303 0cde 2B74     		strb	r3, [r5, #16]
 11304 0ce0 039B     		ldr	r3, [sp, #12]
 11305 0ce2 2B73     		strb	r3, [r5, #12]
 11306 0ce4 059B     		ldr	r3, [sp, #20]
 11307 0ce6 AB73     		strb	r3, [r5, #14]
 11308 0ce8 C3F30722 		ubfx	r2, r3, #8, #8
 11309 0cec FBB2     		uxtb	r3, r7
 11310 0cee EA73     		strb	r2, [r5, #15]
 11311 0cf0 85F80D80 		strb	r8, [r5, #13]
 11312 0cf4 0D4A     		ldr	r2, .L3064
 11313 0cf6 0793     		str	r3, [sp, #28]
 11314 0cf8 C7F30727 		ubfx	r7, r7, #8, #8
 11315 0cfc FFF739BB 		b	.L3030
 11316              	.L3054:
 11317 0d00 069B     		ldr	r3, [sp, #24]
 11318 0d02 03F20124 		addw	r4, r3, #513
 11319 0d06 640A     		lsrs	r4, r4, #9
 11320 0d08 18EE102A 		vmov	r2, s16	@ int
 11321 0d0c 18EE900A 		vmov	r0, s17	@ int
 11322 0d10 2346     		mov	r3, r4
 11323 0d12 4146     		mov	r1, r8
 11324 0d14 FFF7FEFF 		bl	disk_write
 11325 0d18 0028     		cmp	r0, #0
 11326 0d1a 7FF4BBAB 		bne	.L2943
ARM GAS  /tmp/cc2a13AN.s 			page 200


 11327 0d1e 18EE103A 		vmov	r3, s16	@ int
 11328 0d22 2344     		add	r3, r3, r4
 11329 0d24 08EE103A 		vmov	s16, r3	@ int
 11330 0d28 0446     		mov	r4, r0
 11331 0d2a 4FE6     		b	.L2833
 11332              	.L3065:
 11333              		.align	2
 11334              	.L3064:
 11335 0d2c 00000000 		.word	.LC4
 11336 0d30 0C000000 		.word	.LC5
 11337              	.L3049:
 11338 0d34 7108     		lsrs	r1, r6, #1
 11339 0d36 1691     		str	r1, [sp, #88]
 11340 0d38 1199     		ldr	r1, [sp, #68]
 11341 0d3a 039A     		ldr	r2, [sp, #12]
 11342 0d3c 079B     		ldr	r3, [sp, #28]
 11343 0d3e DDF80890 		ldr	r9, [sp, #8]
 11344 0d42 C1F34740 		ubfx	r0, r1, #17, #8
 11345 0d46 490E     		lsrs	r1, r1, #25
 11346 0d48 1491     		str	r1, [sp, #80]
 11347 0d4a 1099     		ldr	r1, [sp, #64]
 11348 0d4c 1390     		str	r0, [sp, #76]
 11349 0d4e C1F30720 		ubfx	r0, r1, #8, #8
 11350 0d52 0D90     		str	r0, [sp, #52]
 11351 0d54 C1F30740 		ubfx	r0, r1, #16, #8
 11352 0d58 090E     		lsrs	r1, r1, #24
 11353 0d5a 1191     		str	r1, [sp, #68]
 11354 0d5c 1299     		ldr	r1, [sp, #72]
 11355 0d5e 0F90     		str	r0, [sp, #60]
 11356 0d60 1344     		add	r3, r3, r2
 11357 0d62 069A     		ldr	r2, [sp, #24]
 11358 0d64 1593     		str	r3, [sp, #84]
 11359 0d66 C1F30720 		ubfx	r0, r1, #8, #8
 11360 0d6a 0232     		adds	r2, r2, #2
 11361 0d6c 0990     		str	r0, [sp, #36]
 11362 0d6e C1F30740 		ubfx	r0, r1, #16, #8
 11363 0d72 090E     		lsrs	r1, r1, #24
 11364 0d74 0392     		str	r2, [sp, #12]
 11365 0d76 0C91     		str	r1, [sp, #48]
 11366 0d78 C2F30721 		ubfx	r1, r2, #8, #8
 11367 0d7c C2F30742 		ubfx	r2, r2, #16, #8
 11368 0d80 0892     		str	r2, [sp, #32]
 11369 0d82 C3F30722 		ubfx	r2, r3, #8, #8
 11370 0d86 0492     		str	r2, [sp, #16]
 11371 0d88 C3F30742 		ubfx	r2, r3, #16, #8
 11372 0d8c 1B0E     		lsrs	r3, r3, #24
 11373 0d8e 0693     		str	r3, [sp, #24]
 11374 0d90 0223     		movs	r3, #2
 11375 0d92 0B90     		str	r0, [sp, #44]
 11376 0d94 0791     		str	r1, [sp, #28]
 11377 0d96 0592     		str	r2, [sp, #20]
 11378 0d98 0193     		str	r3, [sp, #4]
 11379 0d9a 05F1FF3B 		add	fp, r5, #-1
 11380              	.L2880:
 11381 0d9e 0021     		movs	r1, #0
 11382 0da0 4FF40072 		mov	r2, #512
 11383 0da4 2846     		mov	r0, r5
ARM GAS  /tmp/cc2a13AN.s 			page 201


 11384 0da6 FFF7FEFF 		bl	memset
 11385 0daa 029B     		ldr	r3, [sp, #8]
 11386 0dac 85F84030 		strb	r3, [r5, #64]
 11387 0db0 0E9B     		ldr	r3, [sp, #56]
 11388 0db2 85F85430 		strb	r3, [r5, #84]
 11389 0db6 139B     		ldr	r3, [sp, #76]
 11390 0db8 85F85530 		strb	r3, [r5, #85]
 11391 0dbc 149B     		ldr	r3, [sp, #80]
 11392 0dbe 85F85630 		strb	r3, [r5, #86]
 11393 0dc2 109B     		ldr	r3, [sp, #64]
 11394 0dc4 85F85830 		strb	r3, [r5, #88]
 11395 0dc8 0D9B     		ldr	r3, [sp, #52]
 11396 0dca 85F85930 		strb	r3, [r5, #89]
 11397 0dce 0F9B     		ldr	r3, [sp, #60]
 11398 0dd0 85F85A30 		strb	r3, [r5, #90]
 11399 0dd4 119B     		ldr	r3, [sp, #68]
 11400 0dd6 85F85B30 		strb	r3, [r5, #91]
 11401 0dda 129B     		ldr	r3, [sp, #72]
 11402 0ddc 85F85C30 		strb	r3, [r5, #92]
 11403 0de0 099B     		ldr	r3, [sp, #36]
 11404 0de2 85F85D30 		strb	r3, [r5, #93]
 11405 0de6 0B9B     		ldr	r3, [sp, #44]
 11406 0de8 85F85E30 		strb	r3, [r5, #94]
 11407 0dec 0C9B     		ldr	r3, [sp, #48]
 11408 0dee 85F85F30 		strb	r3, [r5, #95]
 11409 0df2 039B     		ldr	r3, [sp, #12]
 11410 0df4 85F86030 		strb	r3, [r5, #96]
 11411 0df8 079B     		ldr	r3, [sp, #28]
 11412 0dfa 85F86130 		strb	r3, [r5, #97]
 11413 0dfe 089B     		ldr	r3, [sp, #32]
 11414 0e00 85F86230 		strb	r3, [r5, #98]
 11415 0e04 159B     		ldr	r3, [sp, #84]
 11416 0e06 85F86430 		strb	r3, [r5, #100]
 11417 0e0a 049B     		ldr	r3, [sp, #16]
 11418 0e0c 1B9A     		ldr	r2, [sp, #108]
 11419 0e0e 85F86530 		strb	r3, [r5, #101]
 11420 0e12 059B     		ldr	r3, [sp, #20]
 11421 0e14 85F86630 		strb	r3, [r5, #102]
 11422 0e18 110A     		lsrs	r1, r2, #8
 11423 0e1a B24B     		ldr	r3, .L3066
 11424 0e1c 85F84910 		strb	r1, [r5, #73]
 11425 0e20 110C     		lsrs	r1, r2, #16
 11426 0e22 85F84A10 		strb	r1, [r5, #74]
 11427 0e26 03CB     		ldmia	r3!, {r0, r1}
 11428 0e28 6960     		str	r1, [r5, #4]	@ unaligned
 11429 0e2a 1988     		ldrh	r1, [r3]	@ unaligned
 11430 0e2c 9B78     		ldrb	r3, [r3, #2]	@ zero_extendqisi2
 11431 0e2e AB72     		strb	r3, [r5, #10]
 11432 0e30 069B     		ldr	r3, [sp, #24]
 11433 0e32 85F84820 		strb	r2, [r5, #72]
 11434 0e36 85F86730 		strb	r3, [r5, #103]
 11435 0e3a 120E     		lsrs	r2, r2, #24
 11436 0e3c 4FF00103 		mov	r3, #1
 11437 0e40 85F84B20 		strb	r2, [r5, #75]
 11438 0e44 85F86930 		strb	r3, [r5, #105]
 11439 0e48 2022     		movs	r2, #32
 11440 0e4a 169B     		ldr	r3, [sp, #88]
ARM GAS  /tmp/cc2a13AN.s 			page 202


 11441 0e4c 85F85020 		strb	r2, [r5, #80]
 11442 0e50 0922     		movs	r2, #9
 11443 0e52 2860     		str	r0, [r5]	@ unaligned
 11444 0e54 2981     		strh	r1, [r5, #8]	@ unaligned
 11445 0e56 85F86C20 		strb	r2, [r5, #108]
 11446 0e5a 43B1     		cbz	r3, .L2867
 11447 0e5c 1A46     		mov	r2, r3
 11448 0e5e 0123     		movs	r3, #1
 11449              	.L2868:
 11450 0e60 591C     		adds	r1, r3, #1
 11451 0e62 5208     		lsrs	r2, r2, #1
 11452 0e64 1846     		mov	r0, r3
 11453 0e66 CBB2     		uxtb	r3, r1
 11454 0e68 FAD1     		bne	.L2868
 11455 0e6a 85F86D00 		strb	r0, [r5, #109]
 11456              	.L2867:
 11457 0e6e 4FF00103 		mov	r3, #1
 11458 0e72 85F86E30 		strb	r3, [r5, #110]
 11459 0e76 8023     		movs	r3, #128
 11460 0e78 85F86F30 		strb	r3, [r5, #111]
 11461 0e7c EB23     		movs	r3, #235
 11462 0e7e 85F87830 		strb	r3, [r5, #120]
 11463 0e82 FE23     		movs	r3, #254
 11464 0e84 85F87930 		strb	r3, [r5, #121]
 11465 0e88 5523     		movs	r3, #85
 11466 0e8a 85F8FE31 		strb	r3, [r5, #510]
 11467 0e8e AA23     		movs	r3, #170
 11468 0e90 85F8FF31 		strb	r3, [r5, #511]
 11469 0e94 0026     		movs	r6, #0
 11470 0e96 0127     		movs	r7, #1
 11471 0e98 00E0     		b	.L2872
 11472              	.L2870:
 11473 0e9a 0137     		adds	r7, r7, #1
 11474              	.L2872:
 11475 0e9c A7F16B03 		sub	r3, r7, #107
 11476 0ea0 012B     		cmp	r3, #1
 11477 0ea2 FAD9     		bls	.L2870
 11478 0ea4 712F     		cmp	r7, #113
 11479 0ea6 F8D0     		beq	.L2870
 11480 0ea8 1BF80730 		ldrb	r3, [fp, r7]	@ zero_extendqisi2
 11481 0eac B7F5007F 		cmp	r7, #512
 11482 0eb0 03EB7606 		add	r6, r3, r6, ror #1
 11483 0eb4 F1D1     		bne	.L2870
 11484 0eb6 2946     		mov	r1, r5
 11485 0eb8 0123     		movs	r3, #1
 11486 0eba 4A46     		mov	r2, r9
 11487 0ebc 2046     		mov	r0, r4
 11488 0ebe FFF7FEFF 		bl	disk_write
 11489 0ec2 09F1010A 		add	r10, r9, #1
 11490 0ec6 0146     		mov	r1, r0
 11491 0ec8 0028     		cmp	r0, #0
 11492 0eca 7FF4E3AA 		bne	.L2943
 11493 0ece 09F10903 		add	r3, r9, #9
 11494 0ed2 3A46     		mov	r2, r7
 11495 0ed4 2846     		mov	r0, r5
 11496 0ed6 1793     		str	r3, [sp, #92]
 11497 0ed8 FFF7FEFF 		bl	memset
ARM GAS  /tmp/cc2a13AN.s 			page 203


 11498 0edc 5523     		movs	r3, #85
 11499 0ede 85F8FE31 		strb	r3, [r5, #510]
 11500 0ee2 AA23     		movs	r3, #170
 11501 0ee4 85F8FF31 		strb	r3, [r5, #511]
 11502 0ee8 05F2FF17 		addw	r7, r5, #511
 11503 0eec A946     		mov	r9, r5
 11504 0eee 179D     		ldr	r5, [sp, #92]
 11505              	.L2873:
 11506 0ef0 C846     		mov	r8, r9
 11507 0ef2 5B46     		mov	r3, fp
 11508              	.L2874:
 11509 0ef4 13F8012F 		ldrb	r2, [r3, #1]!	@ zero_extendqisi2
 11510 0ef8 9F42     		cmp	r7, r3
 11511 0efa 02EB7606 		add	r6, r2, r6, ror #1
 11512 0efe F9D1     		bne	.L2874
 11513 0f00 0123     		movs	r3, #1
 11514 0f02 5246     		mov	r2, r10
 11515 0f04 4946     		mov	r1, r9
 11516 0f06 2046     		mov	r0, r4
 11517 0f08 FFF7FEFF 		bl	disk_write
 11518 0f0c 0AF10103 		add	r3, r10, #1
 11519 0f10 0028     		cmp	r0, #0
 11520 0f12 7FF4BFAA 		bne	.L2943
 11521 0f16 AB42     		cmp	r3, r5
 11522 0f18 00F0E680 		beq	.L2875
 11523 0f1c 9A46     		mov	r10, r3
 11524 0f1e E7E7     		b	.L2873
 11525              	.L3056:
 11526 0f20 069B     		ldr	r3, [sp, #24]
 11527 0f22 03F20125 		addw	r5, r3, #513
 11528 0f26 6D0A     		lsrs	r5, r5, #9
 11529 0f28 18EE102A 		vmov	r2, s16	@ int
 11530 0f2c 18EE900A 		vmov	r0, s17	@ int
 11531 0f30 2B46     		mov	r3, r5
 11532 0f32 2146     		mov	r1, r4
 11533 0f34 FFF7FEFF 		bl	disk_write
 11534 0f38 0028     		cmp	r0, #0
 11535 0f3a 7FF4ABAA 		bne	.L2943
 11536 0f3e 18EE103A 		vmov	r3, s16	@ int
 11537 0f42 2B44     		add	r3, r3, r5
 11538 0f44 08EE103A 		vmov	s16, r3	@ int
 11539 0f48 189F     		ldr	r7, [sp, #96]
 11540 0f4a 8246     		mov	r10, r0
 11541 0f4c FFF740B9 		b	.L2832
 11542              	.L3057:
 11543 0f50 039A     		ldr	r2, [sp, #12]
 11544 0f52 032A     		cmp	r2, #3
 11545 0f54 00F0C380 		beq	.L2966
 11546 0f58 1B9B     		ldr	r3, [sp, #108]
 11547 0f5a B3F5803F 		cmp	r3, #65536
 11548 0f5e 80F0BC80 		bcs	.L2967
 11549 0f62 022A     		cmp	r2, #2
 11550 0f64 0CBF     		ite	eq
 11551 0f66 0427     		moveq	r7, #4
 11552 0f68 0127     		movne	r7, #1
 11553              	.L2881:
 11554 0f6a 0A99     		ldr	r1, [sp, #40]
ARM GAS  /tmp/cc2a13AN.s 			page 204


 11555 0f6c 0029     		cmp	r1, #0
 11556 0f6e 40F09E80 		bne	.L2914
 11557 0f72 1B9B     		ldr	r3, [sp, #108]
 11558 0f74 1E91     		str	r1, [sp, #120]
 11559 0f76 1CAA     		add	r2, sp, #112
 11560 0f78 0121     		movs	r1, #1
 11561 0f7a 2046     		mov	r0, r4
 11562 0f7c 1D93     		str	r3, [sp, #116]
 11563 0f7e FFF7FEFF 		bl	disk_ioctl
 11564 0f82 0028     		cmp	r0, #0
 11565 0f84 7FF486AA 		bne	.L2943
 11566 0f88 DDF87080 		ldr	r8, [sp, #112]
 11567 0f8c 0523     		movs	r3, #5
 11568 0f8e 0826     		movs	r6, #8
 11569 0f90 4FF63E42 		movw	r2, #64574
 11570              	.L2916:
 11571 0f94 B8FBF6F1 		udiv	r1, r8, r6
 11572 0f98 9142     		cmp	r1, r2
 11573 0f9a 4FEA4600 		lsl	r0, r6, #1
 11574 0f9e 03D9     		bls	.L2917
 11575 0fa0 013B     		subs	r3, r3, #1
 11576 0fa2 C6B2     		uxtb	r6, r0
 11577 0fa4 F6D1     		bne	.L2916
 11578 0fa6 FF26     		movs	r6, #255
 11579              	.L2917:
 11580 0fa8 4FF40072 		mov	r2, #512
 11581 0fac 0021     		movs	r1, #0
 11582 0fae 2846     		mov	r0, r5
 11583 0fb0 FFF7FEFF 		bl	memset
 11584 0fb4 05F5FF71 		add	r1, r5, #510
 11585 0fb8 6423     		movs	r3, #100
 11586 0fba 3F22     		movs	r2, #63
 11587 0fbc B8FBF3F3 		udiv	r3, r8, r3
 11588 0fc0 0DF1740B 		add	fp, sp, #116
 11589 0fc4 0193     		str	r3, [sp, #4]
 11590 0fc6 0291     		str	r1, [sp, #8]
 11591 0fc8 05F5DF73 		add	r3, r5, #446
 11592              	.L2919:
 11593 0fcc 4245     		cmp	r2, r8
 11594 0fce 5FD2     		bcs	.L2927
 11595 0fd0 5BF8041B 		ldr	r1, [fp], #4
 11596 0fd4 6429     		cmp	r1, #100
 11597 0fd6 03D8     		bhi	.L2920
 11598 0fd8 16BF     		itet	ne
 11599 0fda 0198     		ldrne	r0, [sp, #4]
 11600 0fdc 4146     		moveq	r1, r8
 11601 0fde 4143     		mulne	r1, r0, r1
 11602              	.L2920:
 11603 0fe0 5018     		adds	r0, r2, r1
 11604 0fe2 2CBF     		ite	cs
 11605 0fe4 4FF0010C 		movcs	ip, #1
 11606 0fe8 4FF0000C 		movcc	ip, #0
 11607 0fec 8045     		cmp	r8, r0
 11608 0fee 68D3     		bcc	.L2923
 11609 0ff0 BCF1000F 		cmp	ip, #0
 11610 0ff4 65D1     		bne	.L2923
 11611 0ff6 0029     		cmp	r1, #0
ARM GAS  /tmp/cc2a13AN.s 			page 205


 11612 0ff8 4AD0     		beq	.L2927
 11613              	.L2925:
 11614 0ffa 4FEA122E 		lsr	lr, r2, #8
 11615 0ffe 4FF03F09 		mov	r9, #63
 11616 1002 B2FBF9FA 		udiv	r10, r2, r9
 11617 1006 CAEB8A1C 		rsb	ip, r10, r10, lsl #6
 11618 100a 1A72     		strb	r2, [r3, #8]
 11619 100c 83F809E0 		strb	lr, [r3, #9]
 11620 1010 A2EB0C0C 		sub	ip, r2, ip
 11621 1014 4FEA124E 		lsr	lr, r2, #16
 11622 1018 120E     		lsrs	r2, r2, #24
 11623 101a 83F80AE0 		strb	lr, [r3, #10]
 11624 101e DA72     		strb	r2, [r3, #11]
 11625 1020 0246     		mov	r2, r0
 11626 1022 0138     		subs	r0, r0, #1
 11627 1024 B0FBF9F9 		udiv	r9, r0, r9
 11628 1028 C9EB891E 		rsb	lr, r9, r9, lsl #6
 11629 102c A0EB0E00 		sub	r0, r0, lr
 11630 1030 BAFBF6FE 		udiv	lr, r10, r6
 11631 1034 83F803E0 		strb	lr, [r3, #3]
 11632 1038 06FB1EAA 		mls	r10, r6, lr, r10
 11633 103c 4FEA9E0E 		lsr	lr, lr, #2
 11634 1040 0CF1010C 		add	ip, ip, #1
 11635 1044 2EF03F0E 		bic	lr, lr, #63
 11636 1048 4CEA0E0C 		orr	ip, ip, lr
 11637 104c 83F802C0 		strb	ip, [r3, #2]
 11638 1050 B9FBF6FC 		udiv	ip, r9, r6
 11639 1054 83F807C0 		strb	ip, [r3, #7]
 11640 1058 06FB1C99 		mls	r9, r6, ip, r9
 11641 105c 4FEA9C0C 		lsr	ip, ip, #2
 11642 1060 0130     		adds	r0, r0, #1
 11643 1062 2CF03F0C 		bic	ip, ip, #63
 11644 1066 40EA0C00 		orr	r0, r0, ip
 11645 106a 9871     		strb	r0, [r3, #6]
 11646 106c 080A     		lsrs	r0, r1, #8
 11647 106e 1973     		strb	r1, [r3, #12]
 11648 1070 5873     		strb	r0, [r3, #13]
 11649 1072 080C     		lsrs	r0, r1, #16
 11650 1074 090E     		lsrs	r1, r1, #24
 11651 1076 D973     		strb	r1, [r3, #15]
 11652 1078 0299     		ldr	r1, [sp, #8]
 11653 107a 1F71     		strb	r7, [r3, #4]
 11654 107c 83F801A0 		strb	r10, [r3, #1]
 11655 1080 83F80590 		strb	r9, [r3, #5]
 11656 1084 9873     		strb	r0, [r3, #14]
 11657 1086 1033     		adds	r3, r3, #16
 11658 1088 8B42     		cmp	r3, r1
 11659 108a 01D0     		beq	.L2927
 11660 108c 002A     		cmp	r2, #0
 11661 108e 9DD1     		bne	.L2919
 11662              	.L2927:
 11663 1090 5522     		movs	r2, #85
 11664 1092 AA23     		movs	r3, #170
 11665 1094 85F8FE21 		strb	r2, [r5, #510]
 11666 1098 85F8FF31 		strb	r3, [r5, #511]
 11667 109c 0022     		movs	r2, #0
 11668 109e 0123     		movs	r3, #1
ARM GAS  /tmp/cc2a13AN.s 			page 206


 11669 10a0 2946     		mov	r1, r5
 11670 10a2 2046     		mov	r0, r4
 11671 10a4 FFF7FEFF 		bl	disk_write
 11672 10a8 0028     		cmp	r0, #0
 11673 10aa 7FF4F3A9 		bne	.L2943
 11674              	.L2914:
 11675 10ae 0022     		movs	r2, #0
 11676 10b0 1146     		mov	r1, r2
 11677 10b2 2046     		mov	r0, r4
 11678 10b4 FFF7FEFF 		bl	disk_ioctl
 11679 10b8 0038     		subs	r0, r0, #0
 11680 10ba 18BF     		it	ne
 11681 10bc 0120     		movne	r0, #1
 11682 10be FFF71DB9 		b	.L3008
 11683              	.L2923:
 11684 10c2 A8EB0201 		sub	r1, r8, r2
 11685 10c6 4046     		mov	r0, r8
 11686 10c8 97E7     		b	.L2925
 11687              	.L2950:
 11688 10ca A246     		mov	r10, r4
 11689 10cc 089E     		ldr	r6, [sp, #32]
 11690 10ce 189F     		ldr	r7, [sp, #96]
 11691 10d0 4446     		mov	r4, r8
 11692 10d2 4FF6FF7C 		movw	ip, #65535
 11693 10d6 FFF78BB8 		b	.L2835
 11694              	.L2967:
 11695 10da 0627     		movs	r7, #6
 11696 10dc 45E7     		b	.L2881
 11697              	.L2966:
 11698 10de 0C27     		movs	r7, #12
 11699 10e0 43E7     		b	.L2881
 11700              	.L3067:
 11701 10e2 00BF     		.align	2
 11702              	.L3066:
 11703 10e4 00000000 		.word	.LC0
 11704              	.L2875:
 11705 10e8 4D46     		mov	r5, r9
 11706 10ea 0146     		mov	r1, r0
 11707 10ec 4FF40072 		mov	r2, #512
 11708 10f0 2846     		mov	r0, r5
 11709 10f2 9946     		mov	r9, r3
 11710 10f4 0AF1030A 		add	r10, r10, #3
 11711 10f8 FFF7FEFF 		bl	memset
 11712              	.L2876:
 11713 10fc 5B46     		mov	r3, fp
 11714              	.L2877:
 11715 10fe 13F8012F 		ldrb	r2, [r3, #1]!	@ zero_extendqisi2
 11716 1102 9F42     		cmp	r7, r3
 11717 1104 02EB7606 		add	r6, r2, r6, ror #1
 11718 1108 F9D1     		bne	.L2877
 11719 110a 4A46     		mov	r2, r9
 11720 110c 0123     		movs	r3, #1
 11721 110e 2946     		mov	r1, r5
 11722 1110 2046     		mov	r0, r4
 11723 1112 FFF7FEFF 		bl	disk_write
 11724 1116 09F10102 		add	r2, r9, #1
 11725 111a 0028     		cmp	r0, #0
ARM GAS  /tmp/cc2a13AN.s 			page 207


 11726 111c 7FF4BAA9 		bne	.L2943
 11727 1120 5245     		cmp	r2, r10
 11728 1122 22D1     		bne	.L3059
 11729 1124 C6F30727 		ubfx	r7, r6, #8, #8
 11730 1128 C6F30740 		ubfx	r0, r6, #16, #8
 11731 112c 310E     		lsrs	r1, r6, #24
 11732 112e 05F50073 		add	r3, r5, #512
 11733 1132 F6B2     		uxtb	r6, r6
 11734              	.L2879:
 11735 1134 88F80060 		strb	r6, [r8]
 11736 1138 88F80170 		strb	r7, [r8, #1]
 11737 113c 88F80200 		strb	r0, [r8, #2]
 11738 1140 88F80310 		strb	r1, [r8, #3]
 11739 1144 08F10408 		add	r8, r8, #4
 11740 1148 4345     		cmp	r3, r8
 11741 114a F3D1     		bne	.L2879
 11742 114c 0123     		movs	r3, #1
 11743 114e 2946     		mov	r1, r5
 11744 1150 2046     		mov	r0, r4
 11745 1152 09F10209 		add	r9, r9, #2
 11746 1156 FFF7FEFF 		bl	disk_write
 11747 115a 0028     		cmp	r0, #0
 11748 115c 7FF49AA9 		bne	.L2943
 11749 1160 019B     		ldr	r3, [sp, #4]
 11750 1162 012B     		cmp	r3, #1
 11751 1164 03D1     		bne	.L2959
 11752 1166 0727     		movs	r7, #7
 11753 1168 FFE6     		b	.L2881
 11754              	.L3059:
 11755 116a 9146     		mov	r9, r2
 11756 116c C6E7     		b	.L2876
 11757              	.L2959:
 11758 116e 0123     		movs	r3, #1
 11759 1170 0193     		str	r3, [sp, #4]
 11760 1172 14E6     		b	.L2880
 11761              		.size	f_mkfs, .-f_mkfs
 11762              		.section	.bss.CurrVol,"aw",%nobits
 11763              		.set	.LANCHOR1,. + 0
 11764              		.type	CurrVol, %object
 11765              		.size	CurrVol, 1
 11766              	CurrVol:
 11767 0000 00       		.space	1
 11768              		.section	.bss.FatFs,"aw",%nobits
 11769              		.align	2
 11770              		.set	.LANCHOR4,. + 0
 11771              		.type	FatFs, %object
 11772              		.size	FatFs, 4
 11773              	FatFs:
 11774 0000 00000000 		.space	4
 11775              		.section	.bss.Files,"aw",%nobits
 11776              		.align	2
 11777              		.set	.LANCHOR0,. + 0
 11778              		.type	Files, %object
 11779              		.size	Files, 160
 11780              	Files:
 11781 0000 00000000 		.space	160
 11781      00000000 
ARM GAS  /tmp/cc2a13AN.s 			page 208


 11781      00000000 
 11781      00000000 
 11781      00000000 
 11782              		.section	.bss.Fsid,"aw",%nobits
 11783              		.align	1
 11784              		.set	.LANCHOR5,. + 0
 11785              		.type	Fsid, %object
 11786              		.size	Fsid, 2
 11787              	Fsid:
 11788 0000 0000     		.space	2
 11789              		.section	.rodata.ExCvt,"a"
 11790              		.align	2
 11791              		.set	.LANCHOR2,. + 0
 11792              		.type	ExCvt, %object
 11793              		.size	ExCvt, 128
 11794              	ExCvt:
 11795 0000 43554541 		.ascii	"CUEAAAACEEEIIIAAE\222\222OOOUUYOUO\234O\236\237AIOU"
 11795      41414143 
 11795      45454549 
 11795      49494141 
 11795      4592924F 
 11796 0024 A5A5A6A7 		.ascii	"\245\245\246\247\250\251\252\253\254\255\256\257\260"
 11796      A8A9AAAB 
 11796      ACADAEAF 
 11796      B0
 11797 0031 B1B2B3B4 		.ascii	"\261\262\263\264AAA\270\271\272\273\274\275\276\277"
 11797      414141B8 
 11797      B9BABBBC 
 11797      BDBEBF
 11798 0040 C0C1C2C3 		.ascii	"\300\301\302\303\304\305AA\310\311\312\313\314\315\316"
 11798      C4C54141 
 11798      C8C9CACB 
 11798      CCCDCE
 11799 004f CFD1D145 		.ascii	"\317\321\321EEEIIII\331\332\333\334\335I\337O\341OO"
 11799      45454949 
 11799      4949D9DA 
 11799      DBDCDD49 
 11799      DF4FE14F 
 11800 0064 4F4FE6E8 		.ascii	"OO\346\350\350UUUYY\356\357\360\361\362\363\364\365"
 11800      E8555555 
 11800      5959EEEF 
 11800      F0F1F2F3 
 11800      F4F5
 11801 0076 F6F7F8F9 		.ascii	"\366\367\370\371\372\373\374\375\376\377"
 11801      FAFBFCFD 
 11801      FEFF
 11802              		.section	.rodata.LfnOfs,"a"
 11803              		.align	2
 11804              		.set	.LANCHOR3,. + 0
 11805              		.type	LfnOfs, %object
 11806              		.size	LfnOfs, 13
 11807              	LfnOfs:
 11808 0000 01030507 		.ascii	"\001\003\005\007\011\016\020\022\024\026\030\034\036"
 11808      090E1012 
 11808      1416181C 
 11808      1E
 11809              		.section	.rodata.badchr.3,"a"
ARM GAS  /tmp/cc2a13AN.s 			page 209


 11810              		.align	2
 11811              		.set	.LANCHOR6,. + 0
 11812              		.type	badchr.3, %object
 11813              		.size	badchr.3, 18
 11814              	badchr.3:
 11815 0000 2B2E2C3B 		.ascii	"+.,;=[]/*:<>|\\\"?\177\000"
 11815      3D5B5D2F 
 11815      2A3A3C3E 
 11815      7C5C223F 
 11815      7F00
 11816              		.section	.rodata.cst.0,"a"
 11817              		.align	2
 11818              		.set	.LANCHOR9,. + 0
 11819              		.type	cst.0, %object
 11820              		.size	cst.0, 14
 11821              	cst.0:
 11822 0000 0100     		.short	1
 11823 0002 0400     		.short	4
 11824 0004 1000     		.short	16
 11825 0006 4000     		.short	64
 11826 0008 0001     		.short	256
 11827 000a 0002     		.short	512
 11828 000c 0000     		.short	0
 11829              		.section	.rodata.cst32.1,"a"
 11830              		.align	2
 11831              		.set	.LANCHOR8,. + 0
 11832              		.type	cst32.1, %object
 11833              		.size	cst32.1, 14
 11834              	cst32.1:
 11835 0000 0100     		.short	1
 11836 0002 0200     		.short	2
 11837 0004 0400     		.short	4
 11838 0006 0800     		.short	8
 11839 0008 1000     		.short	16
 11840 000a 2000     		.short	32
 11841 000c 0000     		.short	0
 11842              		.section	.rodata.defopt.2,"a"
 11843              		.align	2
 11844              		.set	.LANCHOR7,. + 0
 11845              		.type	defopt.2, %object
 11846              		.size	defopt.2, 16
 11847              	defopt.2:
 11848 0000 07       		.byte	7
 11849 0001 00       		.byte	0
 11850 0002 0000     		.space	2
 11851 0004 00000000 		.word	0
 11852 0008 00000000 		.word	0
 11853 000c 00000000 		.word	0
 11854              		.ident	"GCC: (15:10.3-2021.07-4) 10.3.1 20210621 (release)"
ARM GAS  /tmp/cc2a13AN.s 			page 210


DEFINED SYMBOLS
                            *ABS*:0000000000000000 ff.c
     /tmp/cc2a13AN.s:15     .text.chk_lock:0000000000000000 $t
     /tmp/cc2a13AN.s:23     .text.chk_lock:0000000000000000 chk_lock
     /tmp/cc2a13AN.s:88     .text.chk_lock:0000000000000070 $d
     /tmp/cc2a13AN.s:91     .text.inc_lock:0000000000000000 $t
     /tmp/cc2a13AN.s:98     .text.inc_lock:0000000000000000 inc_lock
     /tmp/cc2a13AN.s:171    .text.inc_lock:0000000000000080 $d
     /tmp/cc2a13AN.s:174    .text.get_ldnumber:0000000000000000 $t
     /tmp/cc2a13AN.s:181    .text.get_ldnumber:0000000000000000 get_ldnumber
     /tmp/cc2a13AN.s:216    .text.get_ldnumber:0000000000000034 $d
     /tmp/cc2a13AN.s:219    .text.sync_window.part.0:0000000000000000 $t
     /tmp/cc2a13AN.s:226    .text.sync_window.part.0:0000000000000000 sync_window.part.0
     /tmp/cc2a13AN.s:265    .text.dir_clear:0000000000000000 $t
     /tmp/cc2a13AN.s:272    .text.dir_clear:0000000000000000 dir_clear
     /tmp/cc2a13AN.s:331    .text.sync_fs:0000000000000000 $t
     /tmp/cc2a13AN.s:338    .text.sync_fs:0000000000000000 sync_fs
     /tmp/cc2a13AN.s:418    .text.move_window.part.0:0000000000000000 $t
     /tmp/cc2a13AN.s:425    .text.move_window.part.0:0000000000000000 move_window.part.0
     /tmp/cc2a13AN.s:452    .text.validate:0000000000000000 $t
     /tmp/cc2a13AN.s:459    .text.validate:0000000000000000 validate
     /tmp/cc2a13AN.s:501    .text.pattern_match:0000000000000000 $t
     /tmp/cc2a13AN.s:508    .text.pattern_match:0000000000000000 pattern_match
     /tmp/cc2a13AN.s:644    .text.pattern_match:000000000000010c $d
     /tmp/cc2a13AN.s:647    .text.init_alloc_info.isra.0:0000000000000000 $t
     /tmp/cc2a13AN.s:654    .text.init_alloc_info.isra.0:0000000000000000 init_alloc_info.isra.0
     /tmp/cc2a13AN.s:671    .text.get_fileinfo:0000000000000000 $t
     /tmp/cc2a13AN.s:678    .text.get_fileinfo:0000000000000000 get_fileinfo
     /tmp/cc2a13AN.s:947    .rodata.check_fs.str1.4:0000000000000000 $d
     /tmp/cc2a13AN.s:954    .text.check_fs:0000000000000000 $t
     /tmp/cc2a13AN.s:961    .text.check_fs:0000000000000000 check_fs
     /tmp/cc2a13AN.s:1077   .text.check_fs:00000000000000f8 $d
     /tmp/cc2a13AN.s:1081   .text.change_bitmap:0000000000000000 $t
     /tmp/cc2a13AN.s:1088   .text.change_bitmap:0000000000000000 change_bitmap
     /tmp/cc2a13AN.s:1182   .text.find_bitmap:0000000000000000 $t
     /tmp/cc2a13AN.s:1189   .text.find_bitmap:0000000000000000 find_bitmap
     /tmp/cc2a13AN.s:1292   .text.put_fat.part.0:0000000000000000 $t
     /tmp/cc2a13AN.s:1299   .text.put_fat.part.0:0000000000000000 put_fat.part.0
     /tmp/cc2a13AN.s:1507   .text.fill_first_frag.part.0:0000000000000000 $t
     /tmp/cc2a13AN.s:1514   .text.fill_first_frag.part.0:0000000000000000 fill_first_frag.part.0
     /tmp/cc2a13AN.s:1555   .text.fill_last_frag:0000000000000000 $t
     /tmp/cc2a13AN.s:1562   .text.fill_last_frag:0000000000000000 fill_last_frag
     /tmp/cc2a13AN.s:1605   .text.get_fat:0000000000000000 $t
     /tmp/cc2a13AN.s:1612   .text.get_fat:0000000000000000 get_fat
     /tmp/cc2a13AN.s:1634   .text.get_fat:0000000000000024 $d
     /tmp/cc2a13AN.s:1638   .text.get_fat:0000000000000028 $t
     /tmp/cc2a13AN.s:1853   .text.create_chain:0000000000000000 $t
     /tmp/cc2a13AN.s:1860   .text.create_chain:0000000000000000 create_chain
     /tmp/cc2a13AN.s:2082   .text.dir_sdi:0000000000000000 $t
     /tmp/cc2a13AN.s:2089   .text.dir_sdi:0000000000000000 dir_sdi
     /tmp/cc2a13AN.s:2178   .text.remove_chain:0000000000000000 $t
     /tmp/cc2a13AN.s:2185   .text.remove_chain:0000000000000000 remove_chain
     /tmp/cc2a13AN.s:2337   .text.dir_next:0000000000000000 $t
     /tmp/cc2a13AN.s:2344   .text.dir_next:0000000000000000 dir_next
     /tmp/cc2a13AN.s:2447   .text.dir_alloc:0000000000000000 $t
     /tmp/cc2a13AN.s:2454   .text.dir_alloc:0000000000000000 dir_alloc
     /tmp/cc2a13AN.s:2532   .text.dir_remove:0000000000000000 $t
ARM GAS  /tmp/cc2a13AN.s 			page 211


     /tmp/cc2a13AN.s:2539   .text.dir_remove:0000000000000000 dir_remove
     /tmp/cc2a13AN.s:2619   .text.load_xdir:0000000000000000 $t
     /tmp/cc2a13AN.s:2626   .text.load_xdir:0000000000000000 load_xdir
     /tmp/cc2a13AN.s:2858   .text.load_xdir:0000000000000208 $d
     /tmp/cc2a13AN.s:2861   .text.dir_read:0000000000000000 $t
     /tmp/cc2a13AN.s:2868   .text.dir_read:0000000000000000 dir_read
     /tmp/cc2a13AN.s:3055   .text.dir_read:0000000000000184 $d
     /tmp/cc2a13AN.s:3058   .text.store_xdir:0000000000000000 $t
     /tmp/cc2a13AN.s:3065   .text.store_xdir:0000000000000000 store_xdir
     /tmp/cc2a13AN.s:3185   .text.dir_find:0000000000000000 $t
     /tmp/cc2a13AN.s:3192   .text.dir_find:0000000000000000 dir_find
     /tmp/cc2a13AN.s:3467   .text.dir_find:000000000000026c $d
     /tmp/cc2a13AN.s:3471   .rodata.follow_path.str1.4:0000000000000000 $d
     /tmp/cc2a13AN.s:3478   .text.follow_path:0000000000000000 $t
     /tmp/cc2a13AN.s:3485   .text.follow_path:0000000000000000 follow_path
     /tmp/cc2a13AN.s:3920   .text.follow_path:00000000000003d4 $d
     /tmp/cc2a13AN.s:3925   .text.follow_path:00000000000003e4 $t
     /tmp/cc2a13AN.s:3980   .text.dir_register:0000000000000000 $t
     /tmp/cc2a13AN.s:3987   .text.dir_register:0000000000000000 dir_register
     /tmp/cc2a13AN.s:4332   .text.dir_register:000000000000034c $d
     /tmp/cc2a13AN.s:4336   .text.dir_register:0000000000000358 $t
     /tmp/cc2a13AN.s:4553   .text.dir_register:0000000000000578 $d
     /tmp/cc2a13AN.s:4556   .text.mount_volume:0000000000000000 $t
     /tmp/cc2a13AN.s:4563   .text.mount_volume:0000000000000000 mount_volume
     /tmp/cc2a13AN.s:4795   .text.mount_volume:0000000000000214 $d
     /tmp/cc2a13AN.s:4800   .text.mount_volume:0000000000000224 $t
     /tmp/cc2a13AN.s:5016   .text.mount_volume:0000000000000428 $d
     /tmp/cc2a13AN.s:5020   .text.f_mount:0000000000000000 $t
     /tmp/cc2a13AN.s:5028   .text.f_mount:0000000000000000 f_mount
     /tmp/cc2a13AN.s:5110   .text.f_mount:00000000000000a4 $d
     /tmp/cc2a13AN.s:5114   .text.f_getfs:0000000000000000 $t
     /tmp/cc2a13AN.s:5122   .text.f_getfs:0000000000000000 f_getfs
     /tmp/cc2a13AN.s:5141   .text.f_getfs:0000000000000020 $d
     /tmp/cc2a13AN.s:5144   .text.f_open:0000000000000000 $t
     /tmp/cc2a13AN.s:5152   .text.f_open:0000000000000000 f_open
     /tmp/cc2a13AN.s:5555   .text.f_open:0000000000000388 $d
     /tmp/cc2a13AN.s:5557   .text.f_open:000000000000038c $t
     /tmp/cc2a13AN.s:5660   .text.f_read:0000000000000000 $t
     /tmp/cc2a13AN.s:5668   .text.f_read:0000000000000000 f_read
     /tmp/cc2a13AN.s:5944   .text.f_write:0000000000000000 $t
     /tmp/cc2a13AN.s:5952   .text.f_write:0000000000000000 f_write
     /tmp/cc2a13AN.s:6254   .text.f_sync:0000000000000000 $t
     /tmp/cc2a13AN.s:6262   .text.f_sync:0000000000000000 f_sync
     /tmp/cc2a13AN.s:6526   .text.f_close:0000000000000000 $t
     /tmp/cc2a13AN.s:6534   .text.f_close:0000000000000000 f_close
     /tmp/cc2a13AN.s:6592   .text.f_close:0000000000000064 $d
     /tmp/cc2a13AN.s:6595   .text.f_chdrive:0000000000000000 $t
     /tmp/cc2a13AN.s:6603   .text.f_chdrive:0000000000000000 f_chdrive
     /tmp/cc2a13AN.s:6623   .text.f_chdrive:0000000000000020 $d
     /tmp/cc2a13AN.s:6626   .text.f_chdir:0000000000000000 $t
     /tmp/cc2a13AN.s:6634   .text.f_chdir:0000000000000000 f_chdir
     /tmp/cc2a13AN.s:6741   .text.f_lseek:0000000000000000 $t
     /tmp/cc2a13AN.s:6749   .text.f_lseek:0000000000000000 f_lseek
     /tmp/cc2a13AN.s:7210   .text.f_opendir:0000000000000000 $t
     /tmp/cc2a13AN.s:7218   .text.f_opendir:0000000000000000 f_opendir
     /tmp/cc2a13AN.s:7361   .text.f_closedir:0000000000000000 $t
     /tmp/cc2a13AN.s:7369   .text.f_closedir:0000000000000000 f_closedir
ARM GAS  /tmp/cc2a13AN.s 			page 212


     /tmp/cc2a13AN.s:7450   .text.f_closedir:0000000000000094 $d
     /tmp/cc2a13AN.s:7453   .text.f_readdir:0000000000000000 $t
     /tmp/cc2a13AN.s:7461   .text.f_readdir:0000000000000000 f_readdir
     /tmp/cc2a13AN.s:7529   .text.f_findnext:0000000000000000 $t
     /tmp/cc2a13AN.s:7537   .text.f_findnext:0000000000000000 f_findnext
     /tmp/cc2a13AN.s:7567   .text.f_findfirst:0000000000000000 $t
     /tmp/cc2a13AN.s:7575   .text.f_findfirst:0000000000000000 f_findfirst
     /tmp/cc2a13AN.s:7593   .text.f_stat:0000000000000000 $t
     /tmp/cc2a13AN.s:7601   .text.f_stat:0000000000000000 f_stat
     /tmp/cc2a13AN.s:7666   .text.f_getfree:0000000000000000 $t
     /tmp/cc2a13AN.s:7674   .text.f_getfree:0000000000000000 f_getfree
     /tmp/cc2a13AN.s:7886   .text.f_truncate:0000000000000000 $t
     /tmp/cc2a13AN.s:7894   .text.f_truncate:0000000000000000 f_truncate
     /tmp/cc2a13AN.s:8054   .text.f_unlink:0000000000000000 $t
     /tmp/cc2a13AN.s:8062   .text.f_unlink:0000000000000000 f_unlink
     /tmp/cc2a13AN.s:8206   .text.f_mkdir:0000000000000000 $t
     /tmp/cc2a13AN.s:8214   .text.f_mkdir:0000000000000000 f_mkdir
     /tmp/cc2a13AN.s:8511   .text.f_rename:0000000000000000 $t
     /tmp/cc2a13AN.s:8519   .text.f_rename:0000000000000000 f_rename
     /tmp/cc2a13AN.s:8814   .text.f_chmod:0000000000000000 $t
     /tmp/cc2a13AN.s:8822   .text.f_chmod:0000000000000000 f_chmod
     /tmp/cc2a13AN.s:8911   .text.f_utime:0000000000000000 $t
     /tmp/cc2a13AN.s:8919   .text.f_utime:0000000000000000 f_utime
     /tmp/cc2a13AN.s:9013   .text.f_getlabel:0000000000000000 $t
     /tmp/cc2a13AN.s:9021   .text.f_getlabel:0000000000000000 f_getlabel
     /tmp/cc2a13AN.s:9232   .text.f_setlabel:0000000000000000 $t
     /tmp/cc2a13AN.s:9240   .text.f_setlabel:0000000000000000 f_setlabel
     /tmp/cc2a13AN.s:9490   .text.f_setlabel:0000000000000208 $d
     /tmp/cc2a13AN.s:9494   .text.f_expand:0000000000000000 $t
     /tmp/cc2a13AN.s:9502   .text.f_expand:0000000000000000 f_expand
     /tmp/cc2a13AN.s:9779   .text.f_forward:0000000000000000 $t
     /tmp/cc2a13AN.s:9787   .text.f_forward:0000000000000000 f_forward
     /tmp/cc2a13AN.s:9980   .rodata.f_mkfs.str1.4:0000000000000000 $d
     /tmp/cc2a13AN.s:9990   .text.f_mkfs:0000000000000000 $t
     /tmp/cc2a13AN.s:9998   .text.f_mkfs:0000000000000000 f_mkfs
     /tmp/cc2a13AN.s:10319  .text.f_mkfs:0000000000000328 $d
     /tmp/cc2a13AN.s:10323  .text.f_mkfs:0000000000000334 $t
     /tmp/cc2a13AN.s:10669  .text.f_mkfs:0000000000000678 $d
     /tmp/cc2a13AN.s:10676  .text.f_mkfs:0000000000000690 $t
     /tmp/cc2a13AN.s:11335  .text.f_mkfs:0000000000000d2c $d
     /tmp/cc2a13AN.s:11338  .text.f_mkfs:0000000000000d34 $t
     /tmp/cc2a13AN.s:11703  .text.f_mkfs:00000000000010e4 $d
     /tmp/cc2a13AN.s:11705  .text.f_mkfs:00000000000010e8 $t
     /tmp/cc2a13AN.s:11766  .bss.CurrVol:0000000000000000 CurrVol
     /tmp/cc2a13AN.s:11767  .bss.CurrVol:0000000000000000 $d
     /tmp/cc2a13AN.s:11769  .bss.FatFs:0000000000000000 $d
     /tmp/cc2a13AN.s:11773  .bss.FatFs:0000000000000000 FatFs
     /tmp/cc2a13AN.s:11776  .bss.Files:0000000000000000 $d
     /tmp/cc2a13AN.s:11780  .bss.Files:0000000000000000 Files
     /tmp/cc2a13AN.s:11783  .bss.Fsid:0000000000000000 $d
     /tmp/cc2a13AN.s:11787  .bss.Fsid:0000000000000000 Fsid
     /tmp/cc2a13AN.s:11790  .rodata.ExCvt:0000000000000000 $d
     /tmp/cc2a13AN.s:11794  .rodata.ExCvt:0000000000000000 ExCvt
     /tmp/cc2a13AN.s:11803  .rodata.LfnOfs:0000000000000000 $d
     /tmp/cc2a13AN.s:11807  .rodata.LfnOfs:0000000000000000 LfnOfs
     /tmp/cc2a13AN.s:11810  .rodata.badchr.3:0000000000000000 $d
     /tmp/cc2a13AN.s:11814  .rodata.badchr.3:0000000000000000 badchr.3
ARM GAS  /tmp/cc2a13AN.s 			page 213


     /tmp/cc2a13AN.s:11817  .rodata.cst.0:0000000000000000 $d
     /tmp/cc2a13AN.s:11821  .rodata.cst.0:0000000000000000 cst.0
     /tmp/cc2a13AN.s:11830  .rodata.cst32.1:0000000000000000 $d
     /tmp/cc2a13AN.s:11834  .rodata.cst32.1:0000000000000000 cst32.1
     /tmp/cc2a13AN.s:11843  .rodata.defopt.2:0000000000000000 $d
     /tmp/cc2a13AN.s:11847  .rodata.defopt.2:0000000000000000 defopt.2

UNDEFINED SYMBOLS
disk_write
memset
disk_ioctl
disk_read
ff_req_grant
disk_status
ff_rel_grant
ff_uni2oem
memcmp
ff_wtoupper
ff_oem2uni
strchr
disk_initialize
ff_del_syncobj
ff_cre_syncobj
get_fattime
__aeabi_uldivmod
__aeabi_ldivmod
memcpy
