ARM GAS  /tmp/cc2a13AN.s 			page 1


   1              		.cpu cortex-m4
   2              		.eabi_attribute 27, 1
   3              		.eabi_attribute 20, 1
   4              		.eabi_attribute 21, 1
   5              		.eabi_attribute 23, 3
   6              		.eabi_attribute 24, 1
   7              		.eabi_attribute 25, 1
   8              		.eabi_attribute 26, 1
   9              		.eabi_attribute 30, 2
  10              		.eabi_attribute 34, 1
  11              		.eabi_attribute 18, 4
  12              		.file	"ff.c"
  13              		.text
  14              		.section	.text.chk_lock,"ax",%progbits
  15              		.align	1
  16              		.p2align 4,,15
  17              		.arch armv7e-m
  18              		.syntax unified
  19              		.thumb
  20              		.thumb_func
  21              		.fpu fpv4-sp-d16
  22              		.type	chk_lock, %function
  23              	chk_lock:
  24              		@ args = 0, pretend = 0, frame = 0
  25              		@ frame_needed = 0, uses_anonymous_args = 0
  26              		@ link register save eliminated.
  27 0000 F0B4     		push	{r4, r5, r6, r7}
  28 0002 1B4E     		ldr	r6, .L24
  29 0004 0025     		movs	r5, #0
  30 0006 3346     		mov	r3, r6
  31 0008 2A46     		mov	r2, r5
  32 000a 07E0     		b	.L4
  33              	.L21:
  34 000c 0768     		ldr	r7, [r0]
  35 000e BC42     		cmp	r4, r7
  36 0010 15D0     		beq	.L19
  37              	.L2:
  38 0012 0132     		adds	r2, r2, #1
  39 0014 0A2A     		cmp	r2, #10
  40 0016 03F11003 		add	r3, r3, #16
  41 001a 09D0     		beq	.L20
  42              	.L4:
  43 001c 1C68     		ldr	r4, [r3]
  44 001e 002C     		cmp	r4, #0
  45 0020 F4D1     		bne	.L21
  46 0022 0132     		adds	r2, r2, #1
  47 0024 0A2A     		cmp	r2, #10
  48 0026 4FF00105 		mov	r5, #1
  49 002a 03F11003 		add	r3, r3, #16
  50 002e F5D1     		bne	.L4
  51              	.L20:
  52 0030 DDB9     		cbnz	r5, .L22
  53 0032 0229     		cmp	r1, #2
  54 0034 0CBF     		ite	eq
  55 0036 0020     		moveq	r0, #0
  56 0038 1220     		movne	r0, #18
  57 003a F0BC     		pop	{r4, r5, r6, r7}
ARM GAS  /tmp/cc2a13AN.s 			page 2


  58 003c 7047     		bx	lr
  59              	.L19:
  60 003e 8468     		ldr	r4, [r0, #8]
  61 0040 5F68     		ldr	r7, [r3, #4]
  62 0042 A742     		cmp	r7, r4
  63 0044 E5D1     		bne	.L2
  64 0046 046B     		ldr	r4, [r0, #48]
  65 0048 9F68     		ldr	r7, [r3, #8]
  66 004a A742     		cmp	r7, r4
  67 004c E1D1     		bne	.L2
  68 004e 49B9     		cbnz	r1, .L23
  69 0050 06EB0212 		add	r2, r6, r2, lsl #4
  70 0054 F0BC     		pop	{r4, r5, r6, r7}
  71 0056 9389     		ldrh	r3, [r2, #12]
  72 0058 B3F5807F 		cmp	r3, #256
  73 005c 14BF     		ite	ne
  74 005e 0020     		movne	r0, #0
  75 0060 1020     		moveq	r0, #16
  76 0062 7047     		bx	lr
  77              	.L23:
  78 0064 1020     		movs	r0, #16
  79 0066 F0BC     		pop	{r4, r5, r6, r7}
  80 0068 7047     		bx	lr
  81              	.L22:
  82 006a 0020     		movs	r0, #0
  83 006c F0BC     		pop	{r4, r5, r6, r7}
  84 006e 7047     		bx	lr
  85              	.L25:
  86              		.align	2
  87              	.L24:
  88 0070 00000000 		.word	.LANCHOR0
  89              		.size	chk_lock, .-chk_lock
  90              		.section	.text.inc_lock,"ax",%progbits
  91              		.align	1
  92              		.p2align 4,,15
  93              		.syntax unified
  94              		.thumb
  95              		.thumb_func
  96              		.fpu fpv4-sp-d16
  97              		.type	inc_lock, %function
  98              	inc_lock:
  99              		@ args = 0, pretend = 0, frame = 0
 100              		@ frame_needed = 0, uses_anonymous_args = 0
 101              		@ link register save eliminated.
 102 0000 F0B4     		push	{r4, r5, r6, r7}
 103 0002 1F4D     		ldr	r5, .L46
 104 0004 0468     		ldr	r4, [r0]
 105 0006 2A46     		mov	r2, r5
 106 0008 0023     		movs	r3, #0
 107 000a 04E0     		b	.L29
 108              	.L27:
 109 000c 0133     		adds	r3, r3, #1
 110 000e 0A2B     		cmp	r3, #10
 111 0010 02F11002 		add	r2, r2, #16
 112 0014 19D0     		beq	.L44
 113              	.L29:
 114 0016 1668     		ldr	r6, [r2]
ARM GAS  /tmp/cc2a13AN.s 			page 3


 115 0018 A642     		cmp	r6, r4
 116 001a F7D1     		bne	.L27
 117 001c 5668     		ldr	r6, [r2, #4]
 118 001e 8768     		ldr	r7, [r0, #8]
 119 0020 BE42     		cmp	r6, r7
 120 0022 F3D1     		bne	.L27
 121 0024 066B     		ldr	r6, [r0, #48]
 122 0026 9768     		ldr	r7, [r2, #8]
 123 0028 B742     		cmp	r7, r6
 124 002a EFD1     		bne	.L27
 125 002c 0129     		cmp	r1, #1
 126 002e 05EB0311 		add	r1, r5, r3, lsl #4
 127 0032 4FEA0312 		lsl	r2, r3, #4
 128 0036 8989     		ldrh	r1, [r1, #12]
 129 0038 11D1     		bne	.L34
 130 003a 69B9     		cbnz	r1, .L38
 131 003c 4FF48071 		mov	r1, #256
 132              	.L35:
 133 0040 2A44     		add	r2, r2, r5
 134 0042 581C     		adds	r0, r3, #1
 135 0044 F0BC     		pop	{r4, r5, r6, r7}
 136 0046 9181     		strh	r1, [r2, #12]	@ movhi
 137 0048 7047     		bx	lr
 138              	.L44:
 139 004a 0023     		movs	r3, #0
 140              	.L30:
 141 004c 1A01     		lsls	r2, r3, #4
 142 004e AE58     		ldr	r6, [r5, r2]
 143 0050 46B1     		cbz	r6, .L45
 144 0052 0133     		adds	r3, r3, #1
 145 0054 0A2B     		cmp	r3, #10
 146 0056 F9D1     		bne	.L30
 147              	.L38:
 148 0058 0020     		movs	r0, #0
 149 005a F0BC     		pop	{r4, r5, r6, r7}
 150 005c 7047     		bx	lr
 151              	.L34:
 152 005e 0131     		adds	r1, r1, #1
 153 0060 89B2     		uxth	r1, r1
 154 0062 EDE7     		b	.L35
 155              	.L45:
 156 0064 0129     		cmp	r1, #1
 157 0066 05EB0201 		add	r1, r5, r2
 158 006a AC50     		str	r4, [r5, r2]
 159 006c 8468     		ldr	r4, [r0, #8]
 160 006e 006B     		ldr	r0, [r0, #48]
 161 0070 4C60     		str	r4, [r1, #4]
 162 0072 8860     		str	r0, [r1, #8]
 163 0074 8E81     		strh	r6, [r1, #12]	@ movhi
 164 0076 0CBF     		ite	eq
 165 0078 4FF48071 		moveq	r1, #256
 166 007c 0121     		movne	r1, #1
 167 007e DFE7     		b	.L35
 168              	.L47:
 169              		.align	2
 170              	.L46:
 171 0080 00000000 		.word	.LANCHOR0
ARM GAS  /tmp/cc2a13AN.s 			page 4


 172              		.size	inc_lock, .-inc_lock
 173              		.section	.text.get_ldnumber,"ax",%progbits
 174              		.align	1
 175              		.p2align 4,,15
 176              		.syntax unified
 177              		.thumb
 178              		.thumb_func
 179              		.fpu fpv4-sp-d16
 180              		.type	get_ldnumber, %function
 181              	get_ldnumber:
 182              		@ args = 0, pretend = 0, frame = 0
 183              		@ frame_needed = 0, uses_anonymous_args = 0
 184              		@ link register save eliminated.
 185 0000 0168     		ldr	r1, [r0]
 186 0002 69B1     		cbz	r1, .L58
 187 0004 0A46     		mov	r2, r1
 188 0006 01E0     		b	.L51
 189              	.L60:
 190 0008 3A2B     		cmp	r3, #58
 191 000a 06D0     		beq	.L59
 192              	.L51:
 193 000c 12F8013B 		ldrb	r3, [r2], #1	@ zero_extendqisi2
 194 0010 1F2B     		cmp	r3, #31
 195 0012 F9D8     		bhi	.L60
 196 0014 074B     		ldr	r3, .L61
 197 0016 1878     		ldrb	r0, [r3]	@ zero_extendqisi2
 198 0018 7047     		bx	lr
 199              	.L59:
 200 001a 8B1C     		adds	r3, r1, #2
 201 001c 9A42     		cmp	r2, r3
 202 001e 02D0     		beq	.L53
 203              	.L58:
 204 0020 4FF0FF30 		mov	r0, #-1
 205 0024 7047     		bx	lr
 206              	.L53:
 207 0026 0B78     		ldrb	r3, [r1]	@ zero_extendqisi2
 208 0028 302B     		cmp	r3, #48
 209 002a F9D1     		bne	.L58
 210 002c 0260     		str	r2, [r0]
 211 002e 0020     		movs	r0, #0
 212 0030 7047     		bx	lr
 213              	.L62:
 214 0032 00BF     		.align	2
 215              	.L61:
 216 0034 00000000 		.word	.LANCHOR1
 217              		.size	get_ldnumber, .-get_ldnumber
 218              		.section	.text.sync_window.part.0,"ax",%progbits
 219              		.align	1
 220              		.p2align 4,,15
 221              		.syntax unified
 222              		.thumb
 223              		.thumb_func
 224              		.fpu fpv4-sp-d16
 225              		.type	sync_window.part.0, %function
 226              	sync_window.part.0:
 227              		@ args = 0, pretend = 0, frame = 0
 228              		@ frame_needed = 0, uses_anonymous_args = 0
ARM GAS  /tmp/cc2a13AN.s 			page 5


 229 0000 70B5     		push	{r4, r5, r6, lr}
 230 0002 00F15006 		add	r6, r0, #80
 231 0006 C26C     		ldr	r2, [r0, #76]
 232 0008 0446     		mov	r4, r0
 233 000a 0123     		movs	r3, #1
 234 000c 4078     		ldrb	r0, [r0, #1]	@ zero_extendqisi2
 235 000e 3146     		mov	r1, r6
 236 0010 FFF7FEFF 		bl	disk_write
 237 0014 60B9     		cbnz	r0, .L65
 238 0016 E16C     		ldr	r1, [r4, #76]
 239 0018 E36B     		ldr	r3, [r4, #60]
 240 001a 626B     		ldr	r2, [r4, #52]
 241 001c E070     		strb	r0, [r4, #3]
 242 001e CB1A     		subs	r3, r1, r3
 243 0020 9342     		cmp	r3, r2
 244 0022 0546     		mov	r5, r0
 245 0024 02D2     		bcs	.L64
 246 0026 A378     		ldrb	r3, [r4, #2]	@ zero_extendqisi2
 247 0028 022B     		cmp	r3, #2
 248 002a 04D0     		beq	.L67
 249              	.L64:
 250 002c 2846     		mov	r0, r5
 251 002e 70BD     		pop	{r4, r5, r6, pc}
 252              	.L65:
 253 0030 0125     		movs	r5, #1
 254 0032 2846     		mov	r0, r5
 255 0034 70BD     		pop	{r4, r5, r6, pc}
 256              	.L67:
 257 0036 0A44     		add	r2, r2, r1
 258 0038 6078     		ldrb	r0, [r4, #1]	@ zero_extendqisi2
 259 003a 3146     		mov	r1, r6
 260 003c 0123     		movs	r3, #1
 261 003e FFF7FEFF 		bl	disk_write
 262 0042 F3E7     		b	.L64
 263              		.size	sync_window.part.0, .-sync_window.part.0
 264              		.section	.text.dir_clear,"ax",%progbits
 265              		.align	1
 266              		.p2align 4,,15
 267              		.syntax unified
 268              		.thumb
 269              		.thumb_func
 270              		.fpu fpv4-sp-d16
 271              		.type	dir_clear, %function
 272              	dir_clear:
 273              		@ args = 0, pretend = 0, frame = 0
 274              		@ frame_needed = 0, uses_anonymous_args = 0
 275 0000 F8B5     		push	{r3, r4, r5, r6, r7, lr}
 276 0002 C378     		ldrb	r3, [r0, #3]	@ zero_extendqisi2
 277 0004 0546     		mov	r5, r0
 278 0006 0E46     		mov	r6, r1
 279 0008 3BBB     		cbnz	r3, .L69
 280              	.L73:
 281 000a 2B6B     		ldr	r3, [r5, #48]
 282 000c B11E     		subs	r1, r6, #2
 283 000e 023B     		subs	r3, r3, #2
 284 0010 9942     		cmp	r1, r3
 285 0012 28D2     		bcs	.L82
ARM GAS  /tmp/cc2a13AN.s 			page 6


 286 0014 6B89     		ldrh	r3, [r5, #10]
 287 0016 6E6C     		ldr	r6, [r5, #68]
 288 0018 01FB0366 		mla	r6, r1, r3, r6
 289              	.L70:
 290 001c 05F15007 		add	r7, r5, #80
 291 0020 EE64     		str	r6, [r5, #76]
 292 0022 4FF40072 		mov	r2, #512
 293 0026 0021     		movs	r1, #0
 294 0028 3846     		mov	r0, r7
 295 002a FFF7FEFF 		bl	memset
 296 002e 6889     		ldrh	r0, [r5, #10]
 297 0030 0446     		mov	r4, r0
 298 0032 70B1     		cbz	r0, .L75
 299 0034 0024     		movs	r4, #0
 300 0036 03E0     		b	.L74
 301              	.L76:
 302 0038 6889     		ldrh	r0, [r5, #10]
 303 003a 0134     		adds	r4, r4, #1
 304 003c A042     		cmp	r0, r4
 305 003e 08D9     		bls	.L75
 306              	.L74:
 307 0040 6878     		ldrb	r0, [r5, #1]	@ zero_extendqisi2
 308 0042 3219     		adds	r2, r6, r4
 309 0044 0123     		movs	r3, #1
 310 0046 3946     		mov	r1, r7
 311 0048 FFF7FEFF 		bl	disk_write
 312 004c 0028     		cmp	r0, #0
 313 004e F3D0     		beq	.L76
 314 0050 6889     		ldrh	r0, [r5, #10]
 315              	.L75:
 316 0052 201A     		subs	r0, r4, r0
 317 0054 18BF     		it	ne
 318 0056 0120     		movne	r0, #1
 319 0058 F8BD     		pop	{r3, r4, r5, r6, r7, pc}
 320              	.L69:
 321 005a FFF7FEFF 		bl	sync_window.part.0
 322 005e 0028     		cmp	r0, #0
 323 0060 D3D0     		beq	.L73
 324 0062 0120     		movs	r0, #1
 325 0064 F8BD     		pop	{r3, r4, r5, r6, r7, pc}
 326              	.L82:
 327 0066 0026     		movs	r6, #0
 328 0068 D8E7     		b	.L70
 329              		.size	dir_clear, .-dir_clear
 330 006a 00BF     		.section	.text.sync_fs,"ax",%progbits
 331              		.align	1
 332              		.p2align 4,,15
 333              		.syntax unified
 334              		.thumb
 335              		.thumb_func
 336              		.fpu fpv4-sp-d16
 337              		.type	sync_fs, %function
 338              	sync_fs:
 339              		@ args = 0, pretend = 0, frame = 0
 340              		@ frame_needed = 0, uses_anonymous_args = 0
 341 0000 F8B5     		push	{r3, r4, r5, r6, r7, lr}
 342 0002 C378     		ldrb	r3, [r0, #3]	@ zero_extendqisi2
ARM GAS  /tmp/cc2a13AN.s 			page 7


 343 0004 0446     		mov	r4, r0
 344 0006 5BB9     		cbnz	r3, .L84
 345 0008 2378     		ldrb	r3, [r4]	@ zero_extendqisi2
 346 000a 032B     		cmp	r3, #3
 347 000c 0FD0     		beq	.L94
 348              	.L86:
 349 000e 0022     		movs	r2, #0
 350 0010 6078     		ldrb	r0, [r4, #1]	@ zero_extendqisi2
 351 0012 1146     		mov	r1, r2
 352 0014 FFF7FEFF 		bl	disk_ioctl
 353 0018 0038     		subs	r0, r0, #0
 354 001a 18BF     		it	ne
 355 001c 0120     		movne	r0, #1
 356              	.L88:
 357 001e F8BD     		pop	{r3, r4, r5, r6, r7, pc}
 358              	.L84:
 359 0020 FFF7FEFF 		bl	sync_window.part.0
 360 0024 0028     		cmp	r0, #0
 361 0026 FAD1     		bne	.L88
 362 0028 2378     		ldrb	r3, [r4]	@ zero_extendqisi2
 363 002a 032B     		cmp	r3, #3
 364 002c EFD1     		bne	.L86
 365              	.L94:
 366 002e 2579     		ldrb	r5, [r4, #4]	@ zero_extendqisi2
 367 0030 012D     		cmp	r5, #1
 368 0032 ECD1     		bne	.L86
 369 0034 04F15007 		add	r7, r4, #80
 370 0038 4FF40072 		mov	r2, #512
 371 003c 0021     		movs	r1, #0
 372 003e 3846     		mov	r0, r7
 373 0040 FFF7FEFF 		bl	memset
 374 0044 5223     		movs	r3, #82
 375 0046 E669     		ldr	r6, [r4, #28]
 376 0048 84F85030 		strb	r3, [r4, #80]
 377 004c 84F85130 		strb	r3, [r4, #81]
 378 0050 4123     		movs	r3, #65
 379 0052 84F85330 		strb	r3, [r4, #83]
 380 0056 84F83632 		strb	r3, [r4, #566]
 381 005a 2B46     		mov	r3, r5
 382 005c 7225     		movs	r5, #114
 383 005e A069     		ldr	r0, [r4, #24]
 384 0060 84F83452 		strb	r5, [r4, #564]
 385 0064 84F83552 		strb	r5, [r4, #565]
 386 0068 350A     		lsrs	r5, r6, #8
 387 006a 6122     		movs	r2, #97
 388 006c 84F83952 		strb	r5, [r4, #569]
 389 0070 350C     		lsrs	r5, r6, #16
 390 0072 84F85220 		strb	r2, [r4, #82]
 391 0076 84F83722 		strb	r2, [r4, #567]
 392 007a 84F83A52 		strb	r5, [r4, #570]
 393 007e A26B     		ldr	r2, [r4, #56]
 394 0080 84F83C02 		strb	r0, [r4, #572]
 395 0084 050A     		lsrs	r5, r0, #8
 396 0086 84F83D52 		strb	r5, [r4, #573]
 397 008a 050C     		lsrs	r5, r0, #16
 398 008c 000E     		lsrs	r0, r0, #24
 399 008e 5521     		movs	r1, #85
ARM GAS  /tmp/cc2a13AN.s 			page 8


 400 0090 84F83862 		strb	r6, [r4, #568]
 401 0094 0132     		adds	r2, r2, #1
 402 0096 84F83F02 		strb	r0, [r4, #575]
 403 009a 360E     		lsrs	r6, r6, #24
 404 009c AA20     		movs	r0, #170
 405 009e 84F84E12 		strb	r1, [r4, #590]
 406 00a2 84F84F02 		strb	r0, [r4, #591]
 407 00a6 3946     		mov	r1, r7
 408 00a8 6078     		ldrb	r0, [r4, #1]	@ zero_extendqisi2
 409 00aa E264     		str	r2, [r4, #76]
 410 00ac 84F83B62 		strb	r6, [r4, #571]
 411 00b0 84F83E52 		strb	r5, [r4, #574]
 412 00b4 FFF7FEFF 		bl	disk_write
 413 00b8 0023     		movs	r3, #0
 414 00ba 2371     		strb	r3, [r4, #4]
 415 00bc A7E7     		b	.L86
 416              		.size	sync_fs, .-sync_fs
 417 00be 00BF     		.section	.text.move_window.part.0,"ax",%progbits
 418              		.align	1
 419              		.p2align 4,,15
 420              		.syntax unified
 421              		.thumb
 422              		.thumb_func
 423              		.fpu fpv4-sp-d16
 424              		.type	move_window.part.0, %function
 425              	move_window.part.0:
 426              		@ args = 0, pretend = 0, frame = 0
 427              		@ frame_needed = 0, uses_anonymous_args = 0
 428 0000 38B5     		push	{r3, r4, r5, lr}
 429 0002 C378     		ldrb	r3, [r0, #3]	@ zero_extendqisi2
 430 0004 0446     		mov	r4, r0
 431 0006 0D46     		mov	r5, r1
 432 0008 6BB9     		cbnz	r3, .L96
 433              	.L98:
 434 000a 2A46     		mov	r2, r5
 435 000c 6078     		ldrb	r0, [r4, #1]	@ zero_extendqisi2
 436 000e 0123     		movs	r3, #1
 437 0010 04F15001 		add	r1, r4, #80
 438 0014 FFF7FEFF 		bl	disk_read
 439 0018 0028     		cmp	r0, #0
 440 001a 1CBF     		itt	ne
 441 001c 4FF0FF35 		movne	r5, #-1
 442 0020 0120     		movne	r0, #1
 443 0022 E564     		str	r5, [r4, #76]
 444 0024 38BD     		pop	{r3, r4, r5, pc}
 445              	.L96:
 446 0026 FFF7FEFF 		bl	sync_window.part.0
 447 002a 0028     		cmp	r0, #0
 448 002c EDD0     		beq	.L98
 449 002e 38BD     		pop	{r3, r4, r5, pc}
 450              		.size	move_window.part.0, .-move_window.part.0
 451              		.section	.text.validate,"ax",%progbits
 452              		.align	1
 453              		.p2align 4,,15
 454              		.syntax unified
 455              		.thumb
 456              		.thumb_func
ARM GAS  /tmp/cc2a13AN.s 			page 9


 457              		.fpu fpv4-sp-d16
 458              		.type	validate, %function
 459              	validate:
 460              		@ args = 0, pretend = 0, frame = 0
 461              		@ frame_needed = 0, uses_anonymous_args = 0
 462 0000 38B5     		push	{r3, r4, r5, lr}
 463 0002 0D46     		mov	r5, r1
 464 0004 40B1     		cbz	r0, .L123
 465 0006 0368     		ldr	r3, [r0]
 466 0008 0446     		mov	r4, r0
 467 000a 2BB1     		cbz	r3, .L123
 468 000c 1A78     		ldrb	r2, [r3]	@ zero_extendqisi2
 469 000e 1AB1     		cbz	r2, .L123
 470 0010 8188     		ldrh	r1, [r0, #4]
 471 0012 DA88     		ldrh	r2, [r3, #6]
 472 0014 9142     		cmp	r1, r2
 473 0016 03D0     		beq	.L124
 474              	.L123:
 475 0018 0920     		movs	r0, #9
 476 001a 0023     		movs	r3, #0
 477              	.L109:
 478 001c 2B60     		str	r3, [r5]
 479 001e 38BD     		pop	{r3, r4, r5, pc}
 480              	.L124:
 481 0020 5869     		ldr	r0, [r3, #20]
 482 0022 FFF7FEFF 		bl	ff_req_grant
 483 0026 0346     		mov	r3, r0
 484 0028 68B1     		cbz	r0, .L112
 485 002a 2368     		ldr	r3, [r4]
 486 002c 5878     		ldrb	r0, [r3, #1]	@ zero_extendqisi2
 487 002e FFF7FEFF 		bl	disk_status
 488 0032 10F00100 		ands	r0, r0, #1
 489 0036 2368     		ldr	r3, [r4]
 490 0038 F0D0     		beq	.L109
 491 003a 002B     		cmp	r3, #0
 492 003c ECD0     		beq	.L123
 493 003e 5869     		ldr	r0, [r3, #20]
 494 0040 FFF7FEFF 		bl	ff_rel_grant
 495 0044 E8E7     		b	.L123
 496              	.L112:
 497 0046 0F20     		movs	r0, #15
 498 0048 E8E7     		b	.L109
 499              		.size	validate, .-validate
 500 004a 00BF     		.section	.text.pattern_match,"ax",%progbits
 501              		.align	1
 502              		.p2align 4,,15
 503              		.syntax unified
 504              		.thumb
 505              		.thumb_func
 506              		.fpu fpv4-sp-d16
 507              		.type	pattern_match, %function
 508              	pattern_match:
 509              		@ args = 0, pretend = 0, frame = 0
 510              		@ frame_needed = 0, uses_anonymous_args = 0
 511 0000 2DE9F047 		push	{r4, r5, r6, r7, r8, r9, r10, lr}
 512 0004 D4B2     		uxtb	r4, r2
 513 0006 8046     		mov	r8, r0
ARM GAS  /tmp/cc2a13AN.s 			page 10


 514 0008 9946     		mov	r9, r3
 515 000a 0D46     		mov	r5, r1
 516 000c 002C     		cmp	r4, #0
 517 000e 7BD0     		beq	.L151
 518 0010 3E4F     		ldr	r7, .L182
 519              	.L130:
 520 0012 15F8013B 		ldrb	r3, [r5], #1	@ zero_extendqisi2
 521 0016 A3F16100 		sub	r0, r3, #97
 522 001a 4C1B     		subs	r4, r1, r5
 523 001c 1444     		add	r4, r4, r2
 524 001e 1928     		cmp	r0, #25
 525 0020 07EB0306 		add	r6, r7, r3
 526 0024 E0B2     		uxtb	r0, r4
 527 0026 04D9     		bls	.L127
 528 0028 7F2B     		cmp	r3, #127
 529 002a 88BF     		it	hi
 530 002c 16F8803C 		ldrbhi	r3, [r6, #-128]	@ zero_extendqisi2
 531 0030 CBB3     		cbz	r3, .L129
 532              	.L127:
 533 0032 0028     		cmp	r0, #0
 534 0034 EDD1     		bne	.L130
 535              	.L126:
 536 0036 98F80020 		ldrb	r2, [r8]	@ zero_extendqisi2
 537 003a BAB3     		cbz	r2, .L175
 538              	.L131:
 539 003c 334F     		ldr	r7, .L182
 540 003e 09F1FF3A 		add	r10, r9, #-1
 541              	.L133:
 542 0042 4046     		mov	r0, r8
 543 0044 2E46     		mov	r6, r5
 544 0046 0DE0     		b	.L148
 545              	.L177:
 546 0048 16F8013B 		ldrb	r3, [r6], #1	@ zero_extendqisi2
 547 004c A3F16101 		sub	r1, r3, #97
 548 0050 1929     		cmp	r1, #25
 549 0052 A2F12002 		sub	r2, r2, #32
 550 0056 19D8     		bhi	.L146
 551              	.L178:
 552 0058 203B     		subs	r3, r3, #32
 553 005a 9342     		cmp	r3, r2
 554 005c 1DD1     		bne	.L143
 555              	.L179:
 556 005e 3BB3     		cbz	r3, .L132
 557 0060 10F8012F 		ldrb	r2, [r0, #1]!	@ zero_extendqisi2
 558              	.L148:
 559 0064 3F2A     		cmp	r2, #63
 560 0066 26D0     		beq	.L135
 561 0068 2A2A     		cmp	r2, #42
 562 006a 46D0     		beq	.L176
 563 006c A2F16103 		sub	r3, r2, #97
 564 0070 192B     		cmp	r3, #25
 565 0072 E9D9     		bls	.L177
 566 0074 7F2A     		cmp	r2, #127
 567 0076 16F8013B 		ldrb	r3, [r6], #1	@ zero_extendqisi2
 568 007a 88BF     		it	hi
 569 007c D219     		addhi	r2, r2, r7
 570 007e A3F16101 		sub	r1, r3, #97
ARM GAS  /tmp/cc2a13AN.s 			page 11


 571 0082 88BF     		it	hi
 572 0084 12F8802C 		ldrbhi	r2, [r2, #-128]	@ zero_extendqisi2
 573 0088 1929     		cmp	r1, #25
 574 008a E5D9     		bls	.L178
 575              	.L146:
 576 008c 7F2B     		cmp	r3, #127
 577 008e 84BF     		itt	hi
 578 0090 DB19     		addhi	r3, r3, r7
 579 0092 13F8803C 		ldrbhi	r3, [r3, #-128]	@ zero_extendqisi2
 580 0096 9342     		cmp	r3, r2
 581 0098 E1D0     		beq	.L179
 582              	.L143:
 583 009a 0135     		adds	r5, r5, #1
 584 009c 1CB1     		cbz	r4, .L129
 585 009e 13B1     		cbz	r3, .L129
 586 00a0 98F80020 		ldrb	r2, [r8]	@ zero_extendqisi2
 587 00a4 CDE7     		b	.L133
 588              	.L129:
 589 00a6 0020     		movs	r0, #0
 590 00a8 BDE8F087 		pop	{r4, r5, r6, r7, r8, r9, r10, pc}
 591              	.L175:
 592 00ac 002C     		cmp	r4, #0
 593 00ae C5D0     		beq	.L131
 594              	.L132:
 595 00b0 0120     		movs	r0, #1
 596 00b2 BDE8F087 		pop	{r4, r5, r6, r7, r8, r9, r10, pc}
 597              	.L135:
 598 00b6 B9F1000F 		cmp	r9, #0
 599 00ba F4D0     		beq	.L129
 600 00bc 0130     		adds	r0, r0, #1
 601 00be 0346     		mov	r3, r0
 602 00c0 0022     		movs	r2, #0
 603              	.L138:
 604 00c2 0178     		ldrb	r1, [r0]	@ zero_extendqisi2
 605 00c4 3F29     		cmp	r1, #63
 606 00c6 02F10102 		add	r2, r2, #1
 607 00ca 03F10103 		add	r3, r3, #1
 608 00ce 0AD0     		beq	.L141
 609              	.L181:
 610 00d0 2A29     		cmp	r1, #42
 611 00d2 08BF     		it	eq
 612 00d4 1846     		moveq	r0, r3
 613 00d6 08D1     		bne	.L180
 614              	.L139:
 615 00d8 0178     		ldrb	r1, [r0]	@ zero_extendqisi2
 616 00da 3F29     		cmp	r1, #63
 617 00dc 42F48072 		orr	r2, r2, #256
 618 00e0 03F10103 		add	r3, r3, #1
 619 00e4 F4D1     		bne	.L181
 620              	.L141:
 621 00e6 1846     		mov	r0, r3
 622 00e8 EBE7     		b	.L138
 623              	.L180:
 624 00ea 5346     		mov	r3, r10
 625 00ec 3146     		mov	r1, r6
 626 00ee FFF787FF 		bl	pattern_match
 627 00f2 0028     		cmp	r0, #0
ARM GAS  /tmp/cc2a13AN.s 			page 12


 628 00f4 DCD1     		bne	.L132
 629 00f6 3378     		ldrb	r3, [r6]	@ zero_extendqisi2
 630 00f8 CFE7     		b	.L143
 631              	.L176:
 632 00fa B9F1000F 		cmp	r9, #0
 633 00fe D2D0     		beq	.L129
 634 0100 0130     		adds	r0, r0, #1
 635 0102 0346     		mov	r3, r0
 636 0104 0022     		movs	r2, #0
 637 0106 E7E7     		b	.L139
 638              	.L151:
 639 0108 1446     		mov	r4, r2
 640 010a 94E7     		b	.L126
 641              	.L183:
 642              		.align	2
 643              	.L182:
 644 010c 00000000 		.word	.LANCHOR2
 645              		.size	pattern_match, .-pattern_match
 646              		.section	.text.init_alloc_info.isra.0,"ax",%progbits
 647              		.align	1
 648              		.p2align 4,,15
 649              		.syntax unified
 650              		.thumb
 651              		.thumb_func
 652              		.fpu fpv4-sp-d16
 653              		.type	init_alloc_info.isra.0, %function
 654              	init_alloc_info.isra.0:
 655              		@ args = 0, pretend = 0, frame = 0
 656              		@ frame_needed = 0, uses_anonymous_args = 0
 657              		@ link register save eliminated.
 658 0000 436B     		ldr	r3, [r0, #52]	@ unaligned
 659 0002 8B60     		str	r3, [r1, #8]
 660 0004 836B     		ldr	r3, [r0, #56]	@ unaligned
 661 0006 C26B     		ldr	r2, [r0, #60]	@ unaligned
 662 0008 C1E90432 		strd	r3, r2, [r1, #16]
 663 000c 90F82130 		ldrb	r3, [r0, #33]	@ zero_extendqisi2
 664 0010 0022     		movs	r2, #0
 665 0012 03F00203 		and	r3, r3, #2
 666 0016 CB71     		strb	r3, [r1, #7]
 667 0018 CA61     		str	r2, [r1, #28]
 668 001a 7047     		bx	lr
 669              		.size	init_alloc_info.isra.0, .-init_alloc_info.isra.0
 670              		.section	.text.get_fileinfo,"ax",%progbits
 671              		.align	1
 672              		.p2align 4,,15
 673              		.syntax unified
 674              		.thumb
 675              		.thumb_func
 676              		.fpu fpv4-sp-d16
 677              		.type	get_fileinfo, %function
 678              	get_fileinfo:
 679              		@ args = 0, pretend = 0, frame = 0
 680              		@ frame_needed = 0, uses_anonymous_args = 0
 681 0000 2DE9F843 		push	{r3, r4, r5, r6, r7, r8, r9, lr}
 682 0004 0024     		movs	r4, #0
 683 0006 0568     		ldr	r5, [r0]
 684 0008 8C76     		strb	r4, [r1, #26]
ARM GAS  /tmp/cc2a13AN.s 			page 13


 685 000a 836B     		ldr	r3, [r0, #56]
 686 000c 002B     		cmp	r3, #0
 687 000e 59D0     		beq	.L185
 688 0010 2B78     		ldrb	r3, [r5]	@ zero_extendqisi2
 689 0012 042B     		cmp	r3, #4
 690 0014 0E46     		mov	r6, r1
 691 0016 00F0A180 		beq	.L249
 692 001a C36C     		ldr	r3, [r0, #76]
 693 001c 0133     		adds	r3, r3, #1
 694 001e 8046     		mov	r8, r0
 695 0020 1ED0     		beq	.L202
 696 0022 E968     		ldr	r1, [r5, #12]
 697 0024 0888     		ldrh	r0, [r1]
 698 0026 B0B1     		cbz	r0, .L210
 699 0028 0227     		movs	r7, #2
 700 002a A146     		mov	r9, r4
 701              	.L203:
 702 002c 2CB9     		cbnz	r4, .L205
 703 002e 00F52052 		add	r2, r0, #10240
 704 0032 92B2     		uxth	r2, r2
 705 0034 B2F5006F 		cmp	r2, #2048
 706 0038 78D3     		bcc	.L228
 707              	.L205:
 708 003a 40F25231 		movw	r1, #850
 709 003e 40EA0440 		orr	r0, r0, r4, lsl #16
 710 0042 FFF7FEFF 		bl	ff_uni2oem
 711 0046 FF28     		cmp	r0, #255
 712 0048 C9F1FF03 		rsb	r3, r9, #255
 713 004c 5CD9     		bls	.L207
 714 004e 012B     		cmp	r3, #1
 715 0050 6ED8     		bhi	.L250
 716 0052 0023     		movs	r3, #0
 717              	.L208:
 718 0054 04B1     		cbz	r4, .L204
 719              	.L210:
 720 0056 0023     		movs	r3, #0
 721              	.L204:
 722 0058 3344     		add	r3, r3, r6
 723 005a 0022     		movs	r2, #0
 724 005c 9A76     		strb	r2, [r3, #26]
 725 005e B47E     		ldrb	r4, [r6, #26]	@ zero_extendqisi2
 726              	.L202:
 727 0060 D8F83C70 		ldr	r7, [r8, #60]
 728 0064 0025     		movs	r5, #0
 729 0066 7A1E     		subs	r2, r7, #1
 730 0068 07F10A0C 		add	ip, r7, #10
 731 006c 4FF02E0E 		mov	lr, #46
 732 0070 04E0     		b	.L214
 733              	.L213:
 734 0072 7019     		adds	r0, r6, r5
 735 0074 0135     		adds	r5, r5, #1
 736 0076 4373     		strb	r3, [r0, #13]
 737              	.L211:
 738 0078 6245     		cmp	r2, ip
 739 007a 13D0     		beq	.L251
 740              	.L214:
 741 007c 1046     		mov	r0, r2
ARM GAS  /tmp/cc2a13AN.s 			page 14


 742 007e 12F8013F 		ldrb	r3, [r2, #1]!	@ zero_extendqisi2
 743 0082 202B     		cmp	r3, #32
 744 0084 A0F10700 		sub	r0, r0, #7
 745 0088 99B2     		uxth	r1, r3
 746 008a F5D0     		beq	.L211
 747 008c 0529     		cmp	r1, #5
 748 008e 08BF     		it	eq
 749 0090 E523     		moveq	r3, #229
 750 0092 B842     		cmp	r0, r7
 751 0094 EDD1     		bne	.L213
 752 0096 0B2D     		cmp	r5, #11
 753 0098 EBD8     		bhi	.L213
 754 009a 7119     		adds	r1, r6, r5
 755 009c 0135     		adds	r5, r5, #1
 756 009e 81F80DE0 		strb	lr, [r1, #13]
 757 00a2 E6E7     		b	.L213
 758              	.L251:
 759 00a4 7319     		adds	r3, r6, r5
 760 00a6 0022     		movs	r2, #0
 761 00a8 5A73     		strb	r2, [r3, #13]
 762 00aa 6CB1     		cbz	r4, .L252
 763              	.L216:
 764 00ac FB7A     		ldrb	r3, [r7, #11]	@ zero_extendqisi2
 765 00ae 03F03F03 		and	r3, r3, #63
 766 00b2 3373     		strb	r3, [r6, #12]
 767 00b4 FB69     		ldr	r3, [r7, #28]	@ unaligned
 768 00b6 0022     		movs	r2, #0
 769 00b8 C6E90032 		strd	r3, r2, [r6]
 770 00bc FB8A     		ldrh	r3, [r7, #22]	@ unaligned
 771 00be 7381     		strh	r3, [r6, #10]	@ movhi
 772 00c0 3B8B     		ldrh	r3, [r7, #24]	@ unaligned
 773 00c2 3381     		strh	r3, [r6, #8]	@ movhi
 774              	.L185:
 775 00c4 BDE8F883 		pop	{r3, r4, r5, r6, r7, r8, r9, pc}
 776              	.L252:
 777 00c8 002D     		cmp	r5, #0
 778 00ca 3CD0     		beq	.L217
 779 00cc 737B     		ldrb	r3, [r6, #13]	@ zero_extendqisi2
 780 00ce 002B     		cmp	r3, #0
 781 00d0 3CD0     		beq	.L219
 782 00d2 6FF00B00 		mvn	r0, #11
 783 00d6 06F10D02 		add	r2, r6, #13
 784 00da 0825     		movs	r5, #8
 785 00dc 801B     		subs	r0, r0, r6
 786 00de 0CE0     		b	.L221
 787              	.L253:
 788 00e0 1929     		cmp	r1, #25
 789 00e2 05D8     		bhi	.L220
 790 00e4 397B     		ldrb	r1, [r7, #12]	@ zero_extendqisi2
 791 00e6 0D42     		tst	r5, r1
 792 00e8 03F12004 		add	r4, r3, #32
 793 00ec 00D0     		beq	.L220
 794 00ee E3B2     		uxtb	r3, r4
 795              	.L220:
 796 00f0 5373     		strb	r3, [r2, #13]
 797 00f2 8418     		adds	r4, r0, r2
 798 00f4 12F8013F 		ldrb	r3, [r2, #1]!	@ zero_extendqisi2
ARM GAS  /tmp/cc2a13AN.s 			page 15


 799 00f8 43B3     		cbz	r3, .L219
 800              	.L221:
 801 00fa 99B2     		uxth	r1, r3
 802 00fc 2E2B     		cmp	r3, #46
 803 00fe A1F14101 		sub	r1, r1, #65
 804 0102 EDD1     		bne	.L253
 805 0104 1025     		movs	r5, #16
 806 0106 F3E7     		b	.L220
 807              	.L207:
 808 0108 C8B1     		cbz	r0, .L230
 809 010a 002B     		cmp	r3, #0
 810 010c A2D0     		beq	.L208
 811 010e 06EB0903 		add	r3, r6, r9
 812 0112 9876     		strb	r0, [r3, #26]
 813 0114 0123     		movs	r3, #1
 814              	.L209:
 815 0116 E968     		ldr	r1, [r5, #12]
 816 0118 9944     		add	r9, r9, r3
 817 011a 0024     		movs	r4, #0
 818              	.L206:
 819 011c C85B     		ldrh	r0, [r1, r7]
 820 011e 0237     		adds	r7, r7, #2
 821 0120 0028     		cmp	r0, #0
 822 0122 83D1     		bne	.L203
 823 0124 4B46     		mov	r3, r9
 824 0126 002C     		cmp	r4, #0
 825 0128 95D1     		bne	.L210
 826 012a 95E7     		b	.L204
 827              	.L228:
 828 012c 0446     		mov	r4, r0
 829 012e F5E7     		b	.L206
 830              	.L250:
 831 0130 06EB0902 		add	r2, r6, r9
 832 0134 030A     		lsrs	r3, r0, #8
 833 0136 9376     		strb	r3, [r2, #26]
 834 0138 D076     		strb	r0, [r2, #27]
 835 013a 0223     		movs	r3, #2
 836 013c EBE7     		b	.L209
 837              	.L230:
 838 013e 0346     		mov	r3, r0
 839 0140 002C     		cmp	r4, #0
 840 0142 88D1     		bne	.L210
 841 0144 88E7     		b	.L204
 842              	.L217:
 843 0146 3F23     		movs	r3, #63
 844 0148 B376     		strb	r3, [r6, #26]
 845 014a 0124     		movs	r4, #1
 846              	.L219:
 847 014c 3444     		add	r4, r4, r6
 848 014e 0023     		movs	r3, #0
 849 0150 A376     		strb	r3, [r4, #26]
 850 0152 3B7B     		ldrb	r3, [r7, #12]	@ zero_extendqisi2
 851 0154 002B     		cmp	r3, #0
 852 0156 A9D1     		bne	.L216
 853 0158 7373     		strb	r3, [r6, #13]
 854 015a A7E7     		b	.L216
 855              	.L249:
ARM GAS  /tmp/cc2a13AN.s 			page 16


 856 015c 2B69     		ldr	r3, [r5, #16]
 857 015e 93F82320 		ldrb	r2, [r3, #35]	@ zero_extendqisi2
 858 0162 1846     		mov	r0, r3
 859 0164 E2B1     		cbz	r2, .L189
 860 0166 2246     		mov	r2, r4
 861 0168 A046     		mov	r8, r4
 862 016a 4027     		movs	r7, #64
 863              	.L188:
 864 016c F906     		lsls	r1, r7, #27
 865 016e 08BF     		it	eq
 866 0170 0237     		addeq	r7, r7, #2
 867 0172 0134     		adds	r4, r4, #1
 868 0174 D85B     		ldrh	r0, [r3, r7]	@ unaligned
 869 0176 0237     		adds	r7, r7, #2
 870 0178 2AB9     		cbnz	r2, .L192
 871 017a 00F52051 		add	r1, r0, #10240
 872 017e 89B2     		uxth	r1, r1
 873 0180 B1F5006F 		cmp	r1, #2048
 874 0184 3AD3     		bcc	.L224
 875              	.L192:
 876 0186 40EA0240 		orr	r0, r0, r2, lsl #16
 877 018a 40F25231 		movw	r1, #850
 878 018e FFF7FEFF 		bl	ff_uni2oem
 879 0192 FF28     		cmp	r0, #255
 880 0194 C8F1FF03 		rsb	r3, r8, #255
 881 0198 1CD9     		bls	.L194
 882 019a 012B     		cmp	r3, #1
 883 019c 30D8     		bhi	.L195
 884              	.L248:
 885 019e 2869     		ldr	r0, [r5, #16]
 886              	.L189:
 887 01a0 3F23     		movs	r3, #63
 888 01a2 B376     		strb	r3, [r6, #26]
 889 01a4 4FF00108 		mov	r8, #1
 890              	.L200:
 891 01a8 B044     		add	r8, r8, r6
 892 01aa 0023     		movs	r3, #0
 893 01ac 88F81A30 		strb	r3, [r8, #26]
 894 01b0 7373     		strb	r3, [r6, #13]
 895 01b2 0279     		ldrb	r2, [r0, #4]	@ zero_extendqisi2
 896 01b4 02F03701 		and	r1, r2, #55
 897 01b8 3173     		strb	r1, [r6, #12]
 898 01ba D206     		lsls	r2, r2, #27
 899 01bc 5ABF     		itte	pl
 900 01be 836B     		ldrpl	r3, [r0, #56]	@ unaligned
 901 01c0 C26B     		ldrpl	r2, [r0, #60]	@ unaligned
 902 01c2 1A46     		movmi	r2, r3
 903 01c4 C6E90032 		strd	r3, r2, [r6]
 904 01c8 8389     		ldrh	r3, [r0, #12]	@ unaligned
 905 01ca 7381     		strh	r3, [r6, #10]	@ movhi
 906 01cc C389     		ldrh	r3, [r0, #14]	@ unaligned
 907 01ce 3381     		strh	r3, [r6, #8]	@ movhi
 908 01d0 BDE8F883 		pop	{r3, r4, r5, r6, r7, r8, r9, pc}
 909              	.L194:
 910 01d4 0028     		cmp	r0, #0
 911 01d6 E2D0     		beq	.L248
 912 01d8 002B     		cmp	r3, #0
ARM GAS  /tmp/cc2a13AN.s 			page 17


 913 01da E0D0     		beq	.L248
 914 01dc 06EB0803 		add	r3, r6, r8
 915 01e0 9876     		strb	r0, [r3, #26]
 916 01e2 0123     		movs	r3, #1
 917              	.L196:
 918 01e4 9844     		add	r8, r8, r3
 919 01e6 2B69     		ldr	r3, [r5, #16]
 920 01e8 0022     		movs	r2, #0
 921              	.L193:
 922 01ea 93F82310 		ldrb	r1, [r3, #35]	@ zero_extendqisi2
 923 01ee A142     		cmp	r1, r4
 924 01f0 1846     		mov	r0, r3
 925 01f2 0CD9     		bls	.L254
 926 01f4 B7F5187F 		cmp	r7, #608
 927 01f8 B8D3     		bcc	.L188
 928 01fa D1E7     		b	.L189
 929              	.L224:
 930 01fc 0246     		mov	r2, r0
 931 01fe F4E7     		b	.L193
 932              	.L195:
 933 0200 06EB0803 		add	r3, r6, r8
 934 0204 D876     		strb	r0, [r3, #27]
 935 0206 000A     		lsrs	r0, r0, #8
 936 0208 9876     		strb	r0, [r3, #26]
 937 020a 0223     		movs	r3, #2
 938 020c EAE7     		b	.L196
 939              	.L254:
 940 020e 002A     		cmp	r2, #0
 941 0210 C6D1     		bne	.L189
 942 0212 B8F1000F 		cmp	r8, #0
 943 0216 C7D1     		bne	.L200
 944 0218 C2E7     		b	.L189
 945              		.size	get_fileinfo, .-get_fileinfo
 946 021a 00BF     		.section	.rodata.check_fs.str1.4,"aMS",%progbits,1
 947              		.align	2
 948              	.LC0:
 949 0000 EB769045 		.ascii	"\353v\220EXFAT   \000"
 949      58464154 
 949      20202000 
 950              		.align	2
 951              	.LC1:
 952 000c 46415433 		.ascii	"FAT32   \000"
 952      32202020 
 952      00
 953              		.section	.text.check_fs,"ax",%progbits
 954              		.align	1
 955              		.p2align 4,,15
 956              		.syntax unified
 957              		.thumb
 958              		.thumb_func
 959              		.fpu fpv4-sp-d16
 960              		.type	check_fs, %function
 961              	check_fs:
 962              		@ args = 0, pretend = 0, frame = 0
 963              		@ frame_needed = 0, uses_anonymous_args = 0
 964 0000 70B5     		push	{r4, r5, r6, lr}
 965 0002 4FF0FF36 		mov	r6, #-1
ARM GAS  /tmp/cc2a13AN.s 			page 18


 966 0006 0023     		movs	r3, #0
 967 0008 B142     		cmp	r1, r6
 968 000a 0446     		mov	r4, r0
 969 000c C370     		strb	r3, [r0, #3]
 970 000e C664     		str	r6, [r0, #76]
 971 0010 0CD0     		beq	.L256
 972 0012 0D46     		mov	r5, r1
 973 0014 0A46     		mov	r2, r1
 974 0016 4078     		ldrb	r0, [r0, #1]	@ zero_extendqisi2
 975 0018 0123     		movs	r3, #1
 976 001a 04F15001 		add	r1, r4, #80
 977 001e FFF7FEFF 		bl	disk_read
 978 0022 10B1     		cbz	r0, .L307
 979 0024 E664     		str	r6, [r4, #76]
 980 0026 0420     		movs	r0, #4
 981              	.L255:
 982 0028 70BD     		pop	{r4, r5, r6, pc}
 983              	.L307:
 984 002a E564     		str	r5, [r4, #76]
 985              	.L256:
 986 002c B4F84E52 		ldrh	r5, [r4, #590]	@ unaligned
 987 0030 4AF65523 		movw	r3, #43605
 988 0034 9D42     		cmp	r5, r3
 989 0036 1AD0     		beq	.L308
 990 0038 94F85030 		ldrb	r3, [r4, #80]	@ zero_extendqisi2
 991 003c 03F0FD02 		and	r2, r3, #253
 992 0040 E92A     		cmp	r2, #233
 993 0042 03D0     		beq	.L266
 994 0044 E82B     		cmp	r3, #232
 995 0046 01D0     		beq	.L266
 996              	.L306:
 997 0048 0320     		movs	r0, #3
 998 004a 70BD     		pop	{r4, r5, r6, pc}
 999              	.L266:
 1000 004c B4F85B30 		ldrh	r3, [r4, #91]	@ unaligned
 1001 0050 94F85D10 		ldrb	r1, [r4, #93]	@ zero_extendqisi2
 1002 0054 5A1E     		subs	r2, r3, #1
 1003 0056 1A42     		tst	r2, r3
 1004 0058 F6D1     		bne	.L306
 1005 005a B3F5007F 		cmp	r3, #512
 1006 005e 2BD0     		beq	.L269
 1007              	.L262:
 1008 0060 4AF65520 		movw	r0, #43605
 1009 0064 8542     		cmp	r5, r0
 1010 0066 14BF     		ite	ne
 1011 0068 0320     		movne	r0, #3
 1012 006a 0220     		moveq	r0, #2
 1013 006c 70BD     		pop	{r4, r5, r6, pc}
 1014              	.L308:
 1015 006e 2249     		ldr	r1, .L310
 1016 0070 0B22     		movs	r2, #11
 1017 0072 04F15000 		add	r0, r4, #80
 1018 0076 FFF7FEFF 		bl	memcmp
 1019 007a D8B1     		cbz	r0, .L309
 1020 007c 94F85030 		ldrb	r3, [r4, #80]	@ zero_extendqisi2
 1021 0080 03F0FD02 		and	r2, r3, #253
 1022 0084 E92A     		cmp	r2, #233
ARM GAS  /tmp/cc2a13AN.s 			page 19


 1023 0086 01D0     		beq	.L268
 1024 0088 E82B     		cmp	r3, #232
 1025 008a 11D1     		bne	.L305
 1026              	.L268:
 1027 008c 1B49     		ldr	r1, .L310+4
 1028 008e 0822     		movs	r2, #8
 1029 0090 04F1A200 		add	r0, r4, #162
 1030 0094 FFF7FEFF 		bl	memcmp
 1031 0098 0028     		cmp	r0, #0
 1032 009a C5D0     		beq	.L255
 1033 009c B4F85B30 		ldrh	r3, [r4, #91]	@ unaligned
 1034 00a0 94F85D10 		ldrb	r1, [r4, #93]	@ zero_extendqisi2
 1035 00a4 5A1E     		subs	r2, r3, #1
 1036 00a6 1A42     		tst	r2, r3
 1037 00a8 02D1     		bne	.L305
 1038 00aa B3F5007F 		cmp	r3, #512
 1039 00ae 03D0     		beq	.L269
 1040              	.L305:
 1041 00b0 0220     		movs	r0, #2
 1042 00b2 70BD     		pop	{r4, r5, r6, pc}
 1043              	.L309:
 1044 00b4 0120     		movs	r0, #1
 1045 00b6 70BD     		pop	{r4, r5, r6, pc}
 1046              	.L269:
 1047 00b8 0029     		cmp	r1, #0
 1048 00ba D1D0     		beq	.L262
 1049 00bc 4B1E     		subs	r3, r1, #1
 1050 00be 0B42     		tst	r3, r1
 1051 00c0 CED1     		bne	.L262
 1052 00c2 B4F85E30 		ldrh	r3, [r4, #94]	@ unaligned
 1053 00c6 002B     		cmp	r3, #0
 1054 00c8 CAD0     		beq	.L262
 1055 00ca 94F86030 		ldrb	r3, [r4, #96]	@ zero_extendqisi2
 1056 00ce 013B     		subs	r3, r3, #1
 1057 00d0 012B     		cmp	r3, #1
 1058 00d2 C5D8     		bhi	.L262
 1059 00d4 B4F86130 		ldrh	r3, [r4, #97]	@ unaligned
 1060 00d8 002B     		cmp	r3, #0
 1061 00da C1D0     		beq	.L262
 1062 00dc B4F86330 		ldrh	r3, [r4, #99]	@ unaligned
 1063 00e0 7F2B     		cmp	r3, #127
 1064 00e2 03D8     		bhi	.L263
 1065 00e4 236F     		ldr	r3, [r4, #112]	@ unaligned
 1066 00e6 B3F5803F 		cmp	r3, #65536
 1067 00ea B9D3     		bcc	.L262
 1068              	.L263:
 1069 00ec B4F86630 		ldrh	r3, [r4, #102]	@ unaligned
 1070 00f0 002B     		cmp	r3, #0
 1071 00f2 B5D0     		beq	.L262
 1072 00f4 0020     		movs	r0, #0
 1073 00f6 70BD     		pop	{r4, r5, r6, pc}
 1074              	.L311:
 1075              		.align	2
 1076              	.L310:
 1077 00f8 00000000 		.word	.LC0
 1078 00fc 0C000000 		.word	.LC1
 1079              		.size	check_fs, .-check_fs
ARM GAS  /tmp/cc2a13AN.s 			page 20


 1080              		.section	.text.change_bitmap,"ax",%progbits
 1081              		.align	1
 1082              		.p2align 4,,15
 1083              		.syntax unified
 1084              		.thumb
 1085              		.thumb_func
 1086              		.fpu fpv4-sp-d16
 1087              		.type	change_bitmap, %function
 1088              	change_bitmap:
 1089              		@ args = 0, pretend = 0, frame = 0
 1090              		@ frame_needed = 0, uses_anonymous_args = 0
 1091 0000 0239     		subs	r1, r1, #2
 1092 0002 2DE9F84F 		push	{r3, r4, r5, r6, r7, r8, r9, r10, fp, lr}
 1093 0006 0746     		mov	r7, r0
 1094 0008 01F00704 		and	r4, r1, #7
 1095 000c 806C     		ldr	r0, [r0, #72]
 1096 000e 4FF00109 		mov	r9, #1
 1097 0012 09FA04F4 		lsl	r4, r9, r4
 1098 0016 1546     		mov	r5, r2
 1099 0018 9846     		mov	r8, r3
 1100 001a 00EB113A 		add	r10, r0, r1, lsr #12
 1101 001e C1F3C806 		ubfx	r6, r1, #3, #9
 1102 0022 E4B2     		uxtb	r4, r4
 1103 0024 07F1500B 		add	fp, r7, #80
 1104              	.L324:
 1105 0028 FB6C     		ldr	r3, [r7, #76]
 1106 002a 5345     		cmp	r3, r10
 1107 002c 11D0     		beq	.L313
 1108 002e FB78     		ldrb	r3, [r7, #3]	@ zero_extendqisi2
 1109 0030 002B     		cmp	r3, #0
 1110 0032 40D1     		bne	.L314
 1111              	.L317:
 1112 0034 7878     		ldrb	r0, [r7, #1]	@ zero_extendqisi2
 1113 0036 0123     		movs	r3, #1
 1114 0038 5246     		mov	r2, r10
 1115 003a 5946     		mov	r1, fp
 1116 003c FFF7FEFF 		bl	disk_read
 1117 0040 28B1     		cbz	r0, .L337
 1118 0042 4FF0FF33 		mov	r3, #-1
 1119 0046 FB64     		str	r3, [r7, #76]
 1120              	.L336:
 1121 0048 0120     		movs	r0, #1
 1122 004a BDE8F88F 		pop	{r3, r4, r5, r6, r7, r8, r9, r10, fp, pc}
 1123              	.L337:
 1124 004e C7F84CA0 		str	r10, [r7, #76]
 1125              	.L313:
 1126 0052 BB19     		adds	r3, r7, r6
 1127 0054 93F85020 		ldrb	r2, [r3, #80]	@ zero_extendqisi2
 1128 0058 1442     		tst	r4, r2
 1129 005a 14BF     		ite	ne
 1130 005c 0121     		movne	r1, #1
 1131 005e 0021     		moveq	r1, #0
 1132 0060 8845     		cmp	r8, r1
 1133 0062 22D0     		beq	.L321
 1134 0064 6240     		eors	r2, r2, r4
 1135 0066 013D     		subs	r5, r5, #1
 1136 0068 83F85020 		strb	r2, [r3, #80]
ARM GAS  /tmp/cc2a13AN.s 			page 21


 1137 006c 87F80390 		strb	r9, [r7, #3]
 1138 0070 06D1     		bne	.L320
 1139 0072 1DE0     		b	.L322
 1140              	.L339:
 1141 0074 013D     		subs	r5, r5, #1
 1142 0076 83F850C0 		strb	ip, [r3, #80]
 1143 007a 87F80390 		strb	r9, [r7, #3]
 1144 007e 17D0     		beq	.L322
 1145              	.L320:
 1146 0080 6400     		lsls	r4, r4, #1
 1147 0082 14F0FF04 		ands	r4, r4, #255
 1148 0086 05D1     		bne	.L323
 1149 0088 0136     		adds	r6, r6, #1
 1150 008a B6F5007F 		cmp	r6, #512
 1151 008e 18D0     		beq	.L338
 1152 0090 0124     		movs	r4, #1
 1153 0092 BB19     		adds	r3, r7, r6
 1154              	.L323:
 1155 0094 93F850C0 		ldrb	ip, [r3, #80]	@ zero_extendqisi2
 1156 0098 1CEA040F 		tst	ip, r4
 1157 009c 14BF     		ite	ne
 1158 009e 0122     		movne	r2, #1
 1159 00a0 0022     		moveq	r2, #0
 1160 00a2 4245     		cmp	r2, r8
 1161 00a4 8CEA040C 		eor	ip, ip, r4
 1162 00a8 E4D1     		bne	.L339
 1163              	.L321:
 1164 00aa 0220     		movs	r0, #2
 1165 00ac BDE8F88F 		pop	{r3, r4, r5, r6, r7, r8, r9, r10, fp, pc}
 1166              	.L322:
 1167 00b0 0020     		movs	r0, #0
 1168 00b2 BDE8F88F 		pop	{r3, r4, r5, r6, r7, r8, r9, r10, fp, pc}
 1169              	.L314:
 1170 00b6 3846     		mov	r0, r7
 1171 00b8 FFF7FEFF 		bl	sync_window.part.0
 1172 00bc 0028     		cmp	r0, #0
 1173 00be B9D0     		beq	.L317
 1174 00c0 C2E7     		b	.L336
 1175              	.L338:
 1176 00c2 2646     		mov	r6, r4
 1177 00c4 0AF1010A 		add	r10, r10, #1
 1178 00c8 0124     		movs	r4, #1
 1179 00ca ADE7     		b	.L324
 1180              		.size	change_bitmap, .-change_bitmap
 1181              		.section	.text.find_bitmap,"ax",%progbits
 1182              		.align	1
 1183              		.p2align 4,,15
 1184              		.syntax unified
 1185              		.thumb
 1186              		.thumb_func
 1187              		.fpu fpv4-sp-d16
 1188              		.type	find_bitmap, %function
 1189              	find_bitmap:
 1190              		@ args = 0, pretend = 0, frame = 8
 1191              		@ frame_needed = 0, uses_anonymous_args = 0
 1192 0000 2DE9F04F 		push	{r4, r5, r6, r7, r8, r9, r10, fp, lr}
 1193 0004 D0F830C0 		ldr	ip, [r0, #48]
ARM GAS  /tmp/cc2a13AN.s 			page 22


 1194 0008 8F1E     		subs	r7, r1, #2
 1195 000a ACF10203 		sub	r3, ip, #2
 1196 000e BB42     		cmp	r3, r7
 1197 0010 98BF     		it	ls
 1198 0012 0027     		movls	r7, #0
 1199 0014 83B0     		sub	sp, sp, #12
 1200 0016 0646     		mov	r6, r0
 1201 0018 9146     		mov	r9, r2
 1202 001a B846     		mov	r8, r7
 1203 001c 3C46     		mov	r4, r7
 1204 001e 0025     		movs	r5, #0
 1205 0020 00F1500B 		add	fp, r0, #80
 1206 0024 4FF0010A 		mov	r10, #1
 1207              	.L352:
 1208 0028 B26C     		ldr	r2, [r6, #72]
 1209 002a F36C     		ldr	r3, [r6, #76]
 1210 002c 02EB1432 		add	r2, r2, r4, lsr #12
 1211 0030 9A42     		cmp	r2, r3
 1212 0032 13D0     		beq	.L342
 1213 0034 F378     		ldrb	r3, [r6, #3]	@ zero_extendqisi2
 1214 0036 002B     		cmp	r3, #0
 1215 0038 44D1     		bne	.L343
 1216              	.L346:
 1217 003a 7078     		ldrb	r0, [r6, #1]	@ zero_extendqisi2
 1218 003c 0192     		str	r2, [sp, #4]
 1219 003e 0123     		movs	r3, #1
 1220 0040 5946     		mov	r1, fp
 1221 0042 FFF7FEFF 		bl	disk_read
 1222 0046 28B1     		cbz	r0, .L363
 1223 0048 4FF0FF30 		mov	r0, #-1
 1224 004c F064     		str	r0, [r6, #76]
 1225 004e 03B0     		add	sp, sp, #12
 1226              		@ sp needed
 1227 0050 BDE8F08F 		pop	{r4, r5, r6, r7, r8, r9, r10, fp, pc}
 1228              	.L363:
 1229 0054 019A     		ldr	r2, [sp, #4]
 1230 0056 D6F830C0 		ldr	ip, [r6, #48]
 1231 005a F264     		str	r2, [r6, #76]
 1232              	.L342:
 1233 005c 04F00703 		and	r3, r4, #7
 1234 0060 0AFA03F3 		lsl	r3, r10, r3
 1235 0064 DBB2     		uxtb	r3, r3
 1236 0066 C4F3C801 		ubfx	r1, r4, #3, #9
 1237 006a ACF1020E 		sub	lr, ip, #2
 1238              	.L348:
 1239 006e 7218     		adds	r2, r6, r1
 1240 0070 0134     		adds	r4, r4, #1
 1241 0072 92F85020 		ldrb	r2, [r2, #80]	@ zero_extendqisi2
 1242 0076 A645     		cmp	lr, r4
 1243 0078 4FEA4300 		lsl	r0, r3, #1
 1244 007c 02EA0302 		and	r2, r2, r3
 1245 0080 97BF     		itett	ls
 1246 0082 0024     		movls	r4, #0
 1247 0084 C3B2     		uxtbhi	r3, r0
 1248 0086 2346     		movls	r3, r4
 1249 0088 4FF40071 		movls	r1, #512
 1250 008c 0135     		adds	r5, r5, #1
ARM GAS  /tmp/cc2a13AN.s 			page 23


 1251 008e 5AB9     		cbnz	r2, .L354
 1252 0090 4D45     		cmp	r5, r9
 1253 0092 12D0     		beq	.L364
 1254 0094 A742     		cmp	r7, r4
 1255 0096 0CD0     		beq	.L355
 1256              	.L365:
 1257 0098 002B     		cmp	r3, #0
 1258 009a E8D1     		bne	.L348
 1259 009c 0123     		movs	r3, #1
 1260 009e 1944     		add	r1, r1, r3
 1261 00a0 B1F5007F 		cmp	r1, #512
 1262 00a4 E3D3     		bcc	.L348
 1263 00a6 BFE7     		b	.L352
 1264              	.L354:
 1265 00a8 A742     		cmp	r7, r4
 1266 00aa 4FF00005 		mov	r5, #0
 1267 00ae A046     		mov	r8, r4
 1268 00b0 F2D1     		bne	.L365
 1269              	.L355:
 1270 00b2 0020     		movs	r0, #0
 1271 00b4 03B0     		add	sp, sp, #12
 1272              		@ sp needed
 1273 00b6 BDE8F08F 		pop	{r4, r5, r6, r7, r8, r9, r10, fp, pc}
 1274              	.L364:
 1275 00ba 08F10200 		add	r0, r8, #2
 1276 00be 03B0     		add	sp, sp, #12
 1277              		@ sp needed
 1278 00c0 BDE8F08F 		pop	{r4, r5, r6, r7, r8, r9, r10, fp, pc}
 1279              	.L343:
 1280 00c4 3046     		mov	r0, r6
 1281 00c6 0192     		str	r2, [sp, #4]
 1282 00c8 FFF7FEFF 		bl	sync_window.part.0
 1283 00cc 019A     		ldr	r2, [sp, #4]
 1284 00ce 0028     		cmp	r0, #0
 1285 00d0 B3D0     		beq	.L346
 1286 00d2 4FF0FF30 		mov	r0, #-1
 1287 00d6 03B0     		add	sp, sp, #12
 1288              		@ sp needed
 1289 00d8 BDE8F08F 		pop	{r4, r5, r6, r7, r8, r9, r10, fp, pc}
 1290              		.size	find_bitmap, .-find_bitmap
 1291              		.section	.text.put_fat.part.0,"ax",%progbits
 1292              		.align	1
 1293              		.p2align 4,,15
 1294              		.syntax unified
 1295              		.thumb
 1296              		.thumb_func
 1297              		.fpu fpv4-sp-d16
 1298              		.type	put_fat.part.0, %function
 1299              	put_fat.part.0:
 1300              		@ args = 0, pretend = 0, frame = 0
 1301              		@ frame_needed = 0, uses_anonymous_args = 0
 1302 0000 2DE9F843 		push	{r3, r4, r5, r6, r7, r8, r9, lr}
 1303 0004 0378     		ldrb	r3, [r0]	@ zero_extendqisi2
 1304 0006 022B     		cmp	r3, #2
 1305 0008 0446     		mov	r4, r0
 1306 000a 0D46     		mov	r5, r1
 1307 000c 1646     		mov	r6, r2
ARM GAS  /tmp/cc2a13AN.s 			page 24


 1308 000e 7CD0     		beq	.L367
 1309 0010 45D8     		bhi	.L368
 1310 0012 012B     		cmp	r3, #1
 1311 0014 76D1     		bne	.L397
 1312 0016 C26B     		ldr	r2, [r0, #60]
 1313 0018 C36C     		ldr	r3, [r0, #76]
 1314 001a 01EB5107 		add	r7, r1, r1, lsr #1
 1315 001e 02EB5728 		add	r8, r2, r7, lsr #9
 1316 0022 9845     		cmp	r8, r3
 1317 0024 00F09780 		beq	.L417
 1318 0028 C378     		ldrb	r3, [r0, #3]	@ zero_extendqisi2
 1319 002a 002B     		cmp	r3, #0
 1320 002c 40F0CB80 		bne	.L374
 1321              	.L377:
 1322 0030 04F15009 		add	r9, r4, #80
 1323 0034 6078     		ldrb	r0, [r4, #1]	@ zero_extendqisi2
 1324 0036 0123     		movs	r3, #1
 1325 0038 4246     		mov	r2, r8
 1326 003a 4946     		mov	r1, r9
 1327 003c FFF7FEFF 		bl	disk_read
 1328 0040 38BB     		cbnz	r0, .L375
 1329 0042 C4F84C80 		str	r8, [r4, #76]
 1330              	.L373:
 1331 0046 15F00105 		ands	r5, r5, #1
 1332 004a 07F10108 		add	r8, r7, #1
 1333 004e C7F30807 		ubfx	r7, r7, #0, #9
 1334 0052 00F08E80 		beq	.L378
 1335 0056 19F80730 		ldrb	r3, [r9, r7]	@ zero_extendqisi2
 1336 005a 03F00F03 		and	r3, r3, #15
 1337 005e 43EA0613 		orr	r3, r3, r6, lsl #4
 1338 0062 09F80730 		strb	r3, [r9, r7]
 1339 0066 0123     		movs	r3, #1
 1340 0068 E76B     		ldr	r7, [r4, #60]
 1341 006a E370     		strb	r3, [r4, #3]
 1342 006c E36C     		ldr	r3, [r4, #76]
 1343 006e 07EB5827 		add	r7, r7, r8, lsr #9
 1344 0072 9F42     		cmp	r7, r3
 1345 0074 00F0AD80 		beq	.L418
 1346              	.L379:
 1347 0078 2046     		mov	r0, r4
 1348 007a FFF7FEFF 		bl	sync_window.part.0
 1349 007e 0028     		cmp	r0, #0
 1350 0080 41D1     		bne	.L398
 1351 0082 6078     		ldrb	r0, [r4, #1]	@ zero_extendqisi2
 1352 0084 0123     		movs	r3, #1
 1353 0086 3A46     		mov	r2, r7
 1354 0088 4946     		mov	r1, r9
 1355 008a FFF7FEFF 		bl	disk_read
 1356 008e 0028     		cmp	r0, #0
 1357 0090 67D0     		beq	.L419
 1358              	.L375:
 1359 0092 4FF0FF33 		mov	r3, #-1
 1360 0096 E364     		str	r3, [r4, #76]
 1361 0098 0120     		movs	r0, #1
 1362 009a BDE8F883 		pop	{r3, r4, r5, r6, r7, r8, r9, pc}
 1363              	.L368:
 1364 009e D91E     		subs	r1, r3, #3
ARM GAS  /tmp/cc2a13AN.s 			page 25


 1365 00a0 0129     		cmp	r1, #1
 1366 00a2 2FD8     		bhi	.L397
 1367 00a4 C76B     		ldr	r7, [r0, #60]
 1368 00a6 C26C     		ldr	r2, [r0, #76]
 1369 00a8 07EBD517 		add	r7, r7, r5, lsr #7
 1370 00ac 9742     		cmp	r7, r2
 1371 00ae 4FD0     		beq	.L420
 1372 00b0 C378     		ldrb	r3, [r0, #3]	@ zero_extendqisi2
 1373 00b2 002B     		cmp	r3, #0
 1374 00b4 7CD1     		bne	.L391
 1375              	.L393:
 1376 00b6 04F15008 		add	r8, r4, #80
 1377 00ba 6078     		ldrb	r0, [r4, #1]	@ zero_extendqisi2
 1378 00bc 0123     		movs	r3, #1
 1379 00be 3A46     		mov	r2, r7
 1380 00c0 4146     		mov	r1, r8
 1381 00c2 FFF7FEFF 		bl	disk_read
 1382 00c6 0028     		cmp	r0, #0
 1383 00c8 E3D1     		bne	.L375
 1384 00ca 2378     		ldrb	r3, [r4]	@ zero_extendqisi2
 1385 00cc E764     		str	r7, [r4, #76]
 1386              	.L390:
 1387 00ce 042B     		cmp	r3, #4
 1388 00d0 69D0     		beq	.L421
 1389 00d2 AD00     		lsls	r5, r5, #2
 1390 00d4 05F4FE75 		and	r5, r5, #508
 1391 00d8 26F07042 		bic	r2, r6, #-268435456
 1392 00dc 58F80510 		ldr	r1, [r8, r5]	@ unaligned
 1393 00e0 01F07041 		and	r1, r1, #-268435456
 1394 00e4 08EB0503 		add	r3, r8, r5
 1395 00e8 41EA0206 		orr	r6, r1, r2
 1396              	.L395:
 1397 00ec 310C     		lsrs	r1, r6, #16
 1398 00ee 300A     		lsrs	r0, r6, #8
 1399 00f0 9970     		strb	r1, [r3, #2]
 1400 00f2 320E     		lsrs	r2, r6, #24
 1401 00f4 0121     		movs	r1, #1
 1402 00f6 5870     		strb	r0, [r3, #1]
 1403 00f8 1E70     		strb	r6, [r3]
 1404 00fa DA70     		strb	r2, [r3, #3]
 1405 00fc E170     		strb	r1, [r4, #3]
 1406 00fe 0020     		movs	r0, #0
 1407 0100 BDE8F883 		pop	{r3, r4, r5, r6, r7, r8, r9, pc}
 1408              	.L397:
 1409 0104 0220     		movs	r0, #2
 1410              	.L398:
 1411 0106 BDE8F883 		pop	{r3, r4, r5, r6, r7, r8, r9, pc}
 1412              	.L367:
 1413 010a C76B     		ldr	r7, [r0, #60]
 1414 010c C36C     		ldr	r3, [r0, #76]
 1415 010e 07EB1127 		add	r7, r7, r1, lsr #8
 1416 0112 9F42     		cmp	r7, r3
 1417 0114 22D0     		beq	.L422
 1418 0116 C378     		ldrb	r3, [r0, #3]	@ zero_extendqisi2
 1419 0118 002B     		cmp	r3, #0
 1420 011a 4FD1     		bne	.L386
 1421              	.L388:
ARM GAS  /tmp/cc2a13AN.s 			page 26


 1422 011c 04F15008 		add	r8, r4, #80
 1423 0120 6078     		ldrb	r0, [r4, #1]	@ zero_extendqisi2
 1424 0122 0123     		movs	r3, #1
 1425 0124 3A46     		mov	r2, r7
 1426 0126 4146     		mov	r1, r8
 1427 0128 FFF7FEFF 		bl	disk_read
 1428 012c 0028     		cmp	r0, #0
 1429 012e B0D1     		bne	.L375
 1430 0130 E764     		str	r7, [r4, #76]
 1431              	.L385:
 1432 0132 6D00     		lsls	r5, r5, #1
 1433 0134 05F4FF75 		and	r5, r5, #510
 1434 0138 08EB0501 		add	r1, r8, r5
 1435 013c 08F80560 		strb	r6, [r8, r5]
 1436 0140 C6F30722 		ubfx	r2, r6, #8, #8
 1437 0144 0123     		movs	r3, #1
 1438 0146 4A70     		strb	r2, [r1, #1]
 1439 0148 E370     		strb	r3, [r4, #3]
 1440 014a 0020     		movs	r0, #0
 1441 014c BDE8F883 		pop	{r3, r4, r5, r6, r7, r8, r9, pc}
 1442              	.L420:
 1443 0150 00F15008 		add	r8, r0, #80
 1444 0154 BBE7     		b	.L390
 1445              	.L417:
 1446 0156 00F15009 		add	r9, r0, #80
 1447 015a 74E7     		b	.L373
 1448              	.L422:
 1449 015c 00F15008 		add	r8, r0, #80
 1450 0160 E7E7     		b	.L385
 1451              	.L419:
 1452 0162 C8F30801 		ubfx	r1, r8, #0, #9
 1453 0166 E764     		str	r7, [r4, #76]
 1454 0168 4944     		add	r1, r1, r9
 1455 016a 85B1     		cbz	r5, .L382
 1456              	.L396:
 1457 016c C6F30712 		ubfx	r2, r6, #4, #8
 1458 0170 13E0     		b	.L383
 1459              	.L378:
 1460 0172 09F80760 		strb	r6, [r9, r7]
 1461 0176 0123     		movs	r3, #1
 1462 0178 E76B     		ldr	r7, [r4, #60]
 1463 017a E370     		strb	r3, [r4, #3]
 1464 017c E36C     		ldr	r3, [r4, #76]
 1465 017e 07EB5827 		add	r7, r7, r8, lsr #9
 1466 0182 9F42     		cmp	r7, r3
 1467 0184 7FF478AF 		bne	.L379
 1468 0188 C8F30801 		ubfx	r1, r8, #0, #9
 1469 018c 4944     		add	r1, r1, r9
 1470              	.L382:
 1471 018e 0B78     		ldrb	r3, [r1]	@ zero_extendqisi2
 1472 0190 C6F30322 		ubfx	r2, r6, #8, #4
 1473 0194 23F00F06 		bic	r6, r3, #15
 1474 0198 3243     		orrs	r2, r2, r6
 1475              	.L383:
 1476 019a 0123     		movs	r3, #1
 1477 019c 0A70     		strb	r2, [r1]
 1478 019e E370     		strb	r3, [r4, #3]
ARM GAS  /tmp/cc2a13AN.s 			page 27


 1479 01a0 0020     		movs	r0, #0
 1480 01a2 BDE8F883 		pop	{r3, r4, r5, r6, r7, r8, r9, pc}
 1481              	.L421:
 1482 01a6 AB00     		lsls	r3, r5, #2
 1483 01a8 03F4FE73 		and	r3, r3, #508
 1484 01ac 4344     		add	r3, r3, r8
 1485 01ae 9DE7     		b	.L395
 1486              	.L391:
 1487 01b0 FFF7FEFF 		bl	sync_window.part.0
 1488 01b4 0028     		cmp	r0, #0
 1489 01b6 3FF47EAF 		beq	.L393
 1490 01ba A4E7     		b	.L398
 1491              	.L386:
 1492 01bc FFF7FEFF 		bl	sync_window.part.0
 1493 01c0 0028     		cmp	r0, #0
 1494 01c2 ABD0     		beq	.L388
 1495 01c4 9FE7     		b	.L398
 1496              	.L374:
 1497 01c6 FFF7FEFF 		bl	sync_window.part.0
 1498 01ca 0028     		cmp	r0, #0
 1499 01cc 3FF430AF 		beq	.L377
 1500 01d0 99E7     		b	.L398
 1501              	.L418:
 1502 01d2 C8F30803 		ubfx	r3, r8, #0, #9
 1503 01d6 09EB0301 		add	r1, r9, r3
 1504 01da C7E7     		b	.L396
 1505              		.size	put_fat.part.0, .-put_fat.part.0
 1506              		.section	.text.fill_first_frag.part.0,"ax",%progbits
 1507              		.align	1
 1508              		.p2align 4,,15
 1509              		.syntax unified
 1510              		.thumb
 1511              		.thumb_func
 1512              		.fpu fpv4-sp-d16
 1513              		.type	fill_first_frag.part.0, %function
 1514              	fill_first_frag.part.0:
 1515              		@ args = 0, pretend = 0, frame = 0
 1516              		@ frame_needed = 0, uses_anonymous_args = 0
 1517 0000 F8B5     		push	{r3, r4, r5, r6, r7, lr}
 1518 0002 8669     		ldr	r6, [r0, #24]
 1519 0004 8468     		ldr	r4, [r0, #8]
 1520 0006 0746     		mov	r7, r0
 1521 0008 B6B1     		cbz	r6, .L430
 1522 000a 012C     		cmp	r4, #1
 1523 000c 12D9     		bls	.L428
 1524 000e 2644     		add	r6, r6, r4
 1525 0010 0068     		ldr	r0, [r0]
 1526 0012 013E     		subs	r6, r6, #1
 1527 0014 08E0     		b	.L427
 1528              	.L432:
 1529 0016 FFF7FEFF 		bl	put_fat.part.0
 1530 001a 60B9     		cbnz	r0, .L425
 1531 001c A642     		cmp	r6, r4
 1532 001e 0BD0     		beq	.L430
 1533 0020 012D     		cmp	r5, #1
 1534 0022 07D9     		bls	.L428
 1535 0024 3868     		ldr	r0, [r7]
ARM GAS  /tmp/cc2a13AN.s 			page 28


 1536 0026 2C46     		mov	r4, r5
 1537              	.L427:
 1538 0028 036B     		ldr	r3, [r0, #48]
 1539 002a 651C     		adds	r5, r4, #1
 1540 002c A342     		cmp	r3, r4
 1541 002e 2146     		mov	r1, r4
 1542 0030 2A46     		mov	r2, r5
 1543 0032 F0D8     		bhi	.L432
 1544              	.L428:
 1545 0034 0220     		movs	r0, #2
 1546              	.L425:
 1547 0036 F8BD     		pop	{r3, r4, r5, r6, r7, pc}
 1548              	.L430:
 1549 0038 0023     		movs	r3, #0
 1550 003a FB71     		strb	r3, [r7, #7]
 1551 003c 1846     		mov	r0, r3
 1552 003e F8BD     		pop	{r3, r4, r5, r6, r7, pc}
 1553              		.size	fill_first_frag.part.0, .-fill_first_frag.part.0
 1554              		.section	.text.fill_last_frag,"ax",%progbits
 1555              		.align	1
 1556              		.p2align 4,,15
 1557              		.syntax unified
 1558              		.thumb
 1559              		.thumb_func
 1560              		.fpu fpv4-sp-d16
 1561              		.type	fill_last_frag, %function
 1562              	fill_last_frag:
 1563              		@ args = 0, pretend = 0, frame = 0
 1564              		@ frame_needed = 0, uses_anonymous_args = 0
 1565 0000 C369     		ldr	r3, [r0, #28]
 1566 0002 03B3     		cbz	r3, .L446
 1567 0004 70B5     		push	{r4, r5, r6, lr}
 1568 0006 0446     		mov	r4, r0
 1569 0008 0E46     		mov	r6, r1
 1570 000a 1546     		mov	r5, r2
 1571 000c 0AE0     		b	.L437
 1572              	.L450:
 1573 000e 2068     		ldr	r0, [r4]
 1574 0010 036B     		ldr	r3, [r0, #48]
 1575 0012 9E45     		cmp	lr, r3
 1576 0014 13D2     		bcs	.L440
 1577 0016 FFF7FEFF 		bl	put_fat.part.0
 1578 001a 88B9     		cbnz	r0, .L436
 1579 001c E369     		ldr	r3, [r4, #28]
 1580 001e 013B     		subs	r3, r3, #1
 1581 0020 E361     		str	r3, [r4, #28]
 1582 0022 73B1     		cbz	r3, .L449
 1583              	.L437:
 1584 0024 A6EB030C 		sub	ip, r6, r3
 1585 0028 012B     		cmp	r3, #1
 1586 002a 0CF1010E 		add	lr, ip, #1
 1587 002e 14BF     		ite	ne
 1588 0030 0CF10202 		addne	r2, ip, #2
 1589 0034 2A46     		moveq	r2, r5
 1590 0036 BEF1010F 		cmp	lr, #1
 1591 003a 7146     		mov	r1, lr
 1592 003c E7D8     		bhi	.L450
ARM GAS  /tmp/cc2a13AN.s 			page 29


 1593              	.L440:
 1594 003e 0220     		movs	r0, #2
 1595              	.L436:
 1596 0040 70BD     		pop	{r4, r5, r6, pc}
 1597              	.L449:
 1598 0042 0020     		movs	r0, #0
 1599 0044 70BD     		pop	{r4, r5, r6, pc}
 1600              	.L446:
 1601 0046 0020     		movs	r0, #0
 1602 0048 7047     		bx	lr
 1603              		.size	fill_last_frag, .-fill_last_frag
 1604 004a 00BF     		.section	.text.get_fat,"ax",%progbits
 1605              		.align	1
 1606              		.p2align 4,,15
 1607              		.syntax unified
 1608              		.thumb
 1609              		.thumb_func
 1610              		.fpu fpv4-sp-d16
 1611              		.type	get_fat, %function
 1612              	get_fat:
 1613              		@ args = 0, pretend = 0, frame = 0
 1614              		@ frame_needed = 0, uses_anonymous_args = 0
 1615 0000 0129     		cmp	r1, #1
 1616 0002 11D9     		bls	.L493
 1617 0004 2DE9F041 		push	{r4, r5, r6, r7, r8, lr}
 1618 0008 0568     		ldr	r5, [r0]
 1619 000a 2B6B     		ldr	r3, [r5, #48]
 1620 000c 8B42     		cmp	r3, r1
 1621 000e 0C46     		mov	r4, r1
 1622 0010 02D8     		bhi	.L526
 1623              	.L496:
 1624 0012 0120     		movs	r0, #1
 1625              	.L451:
 1626 0014 BDE8F081 		pop	{r4, r5, r6, r7, r8, pc}
 1627              	.L526:
 1628 0018 2B78     		ldrb	r3, [r5]	@ zero_extendqisi2
 1629 001a 013B     		subs	r3, r3, #1
 1630 001c 032B     		cmp	r3, #3
 1631 001e F8D8     		bhi	.L496
 1632 0020 DFE803F0 		tbb	[pc, r3]
 1633              	.L454:
 1634 0024 64       		.byte	(.L457-.L454)/2
 1635 0025 4B       		.byte	(.L456-.L454)/2
 1636 0026 2F       		.byte	(.L455-.L454)/2
 1637 0027 04       		.byte	(.L453-.L454)/2
 1638              		.p2align 1
 1639              	.L493:
 1640 0028 0120     		movs	r0, #1
 1641 002a 7047     		bx	lr
 1642              	.L453:
 1643 002c D0E90432 		ldrd	r3, r2, [r0, #16]
 1644 0030 53EA0201 		orrs	r1, r3, r2
 1645 0034 40F09580 		bne	.L527
 1646              	.L482:
 1647 0038 C379     		ldrb	r3, [r0, #7]	@ zero_extendqisi2
 1648 003a 002B     		cmp	r3, #0
 1649 003c E9D1     		bne	.L496
ARM GAS  /tmp/cc2a13AN.s 			page 30


 1650              	.L484:
 1651 003e C369     		ldr	r3, [r0, #28]
 1652 0040 002B     		cmp	r3, #0
 1653 0042 40F0CC80 		bne	.L498
 1654 0046 EE6B     		ldr	r6, [r5, #60]
 1655 0048 EB6C     		ldr	r3, [r5, #76]
 1656 004a 06EBD416 		add	r6, r6, r4, lsr #7
 1657 004e 9E42     		cmp	r6, r3
 1658 0050 00F0CE80 		beq	.L528
 1659 0054 EB78     		ldrb	r3, [r5, #3]	@ zero_extendqisi2
 1660 0056 002B     		cmp	r3, #0
 1661 0058 40F0CD80 		bne	.L489
 1662              	.L492:
 1663 005c 05F15007 		add	r7, r5, #80
 1664 0060 6878     		ldrb	r0, [r5, #1]	@ zero_extendqisi2
 1665 0062 0123     		movs	r3, #1
 1666 0064 3246     		mov	r2, r6
 1667 0066 3946     		mov	r1, r7
 1668 0068 FFF7FEFF 		bl	disk_read
 1669 006c 0028     		cmp	r0, #0
 1670 006e 40F09080 		bne	.L490
 1671 0072 EE64     		str	r6, [r5, #76]
 1672              	.L488:
 1673 0074 A300     		lsls	r3, r4, #2
 1674 0076 03F4FE73 		and	r3, r3, #508
 1675 007a F858     		ldr	r0, [r7, r3]	@ unaligned
 1676 007c 20F00040 		bic	r0, r0, #-2147483648
 1677 0080 C8E7     		b	.L451
 1678              	.L455:
 1679 0082 EE6B     		ldr	r6, [r5, #60]
 1680 0084 EB6C     		ldr	r3, [r5, #76]
 1681 0086 06EBD116 		add	r6, r6, r1, lsr #7
 1682 008a 9E42     		cmp	r6, r3
 1683 008c 7ED0     		beq	.L529
 1684 008e EB78     		ldrb	r3, [r5, #3]	@ zero_extendqisi2
 1685 0090 002B     		cmp	r3, #0
 1686 0092 40F09080 		bne	.L478
 1687              	.L481:
 1688 0096 05F15007 		add	r7, r5, #80
 1689 009a 6878     		ldrb	r0, [r5, #1]	@ zero_extendqisi2
 1690 009c 0123     		movs	r3, #1
 1691 009e 3246     		mov	r2, r6
 1692 00a0 3946     		mov	r1, r7
 1693 00a2 FFF7FEFF 		bl	disk_read
 1694 00a6 0028     		cmp	r0, #0
 1695 00a8 73D1     		bne	.L490
 1696 00aa EE64     		str	r6, [r5, #76]
 1697              	.L477:
 1698 00ac A400     		lsls	r4, r4, #2
 1699 00ae 04F4FE74 		and	r4, r4, #508
 1700 00b2 3859     		ldr	r0, [r7, r4]	@ unaligned
 1701 00b4 20F07040 		bic	r0, r0, #-268435456
 1702 00b8 ACE7     		b	.L451
 1703              	.L456:
 1704 00ba EE6B     		ldr	r6, [r5, #60]
 1705 00bc EB6C     		ldr	r3, [r5, #76]
 1706 00be 06EB1126 		add	r6, r6, r1, lsr #8
ARM GAS  /tmp/cc2a13AN.s 			page 31


 1707 00c2 9E42     		cmp	r6, r3
 1708 00c4 5FD0     		beq	.L530
 1709 00c6 EB78     		ldrb	r3, [r5, #3]	@ zero_extendqisi2
 1710 00c8 002B     		cmp	r3, #0
 1711 00ca 6ED1     		bne	.L472
 1712              	.L475:
 1713 00cc 05F15007 		add	r7, r5, #80
 1714 00d0 6878     		ldrb	r0, [r5, #1]	@ zero_extendqisi2
 1715 00d2 0123     		movs	r3, #1
 1716 00d4 3246     		mov	r2, r6
 1717 00d6 3946     		mov	r1, r7
 1718 00d8 FFF7FEFF 		bl	disk_read
 1719 00dc 0028     		cmp	r0, #0
 1720 00de 58D1     		bne	.L490
 1721 00e0 EE64     		str	r6, [r5, #76]
 1722              	.L471:
 1723 00e2 6400     		lsls	r4, r4, #1
 1724 00e4 04F4FF74 		and	r4, r4, #510
 1725 00e8 385B     		ldrh	r0, [r7, r4]	@ unaligned
 1726 00ea 93E7     		b	.L451
 1727              	.L457:
 1728 00ec EA6B     		ldr	r2, [r5, #60]
 1729 00ee 01EB5107 		add	r7, r1, r1, lsr #1
 1730 00f2 E96C     		ldr	r1, [r5, #76]
 1731 00f4 02EB5726 		add	r6, r2, r7, lsr #9
 1732 00f8 8E42     		cmp	r6, r1
 1733 00fa 0ED0     		beq	.L458
 1734 00fc EB78     		ldrb	r3, [r5, #3]	@ zero_extendqisi2
 1735 00fe 002B     		cmp	r3, #0
 1736 0100 4BD1     		bne	.L459
 1737              	.L462:
 1738 0102 6878     		ldrb	r0, [r5, #1]	@ zero_extendqisi2
 1739 0104 0123     		movs	r3, #1
 1740 0106 3246     		mov	r2, r6
 1741 0108 05F15001 		add	r1, r5, #80
 1742 010c FFF7FEFF 		bl	disk_read
 1743 0110 0028     		cmp	r0, #0
 1744 0112 3ED1     		bne	.L490
 1745 0114 EA6B     		ldr	r2, [r5, #60]
 1746 0116 EE64     		str	r6, [r5, #76]
 1747 0118 3146     		mov	r1, r6
 1748              	.L458:
 1749 011a C7F30803 		ubfx	r3, r7, #0, #9
 1750 011e 0137     		adds	r7, r7, #1
 1751 0120 2B44     		add	r3, r3, r5
 1752 0122 02EB5728 		add	r8, r2, r7, lsr #9
 1753 0126 8845     		cmp	r8, r1
 1754 0128 93F85060 		ldrb	r6, [r3, #80]	@ zero_extendqisi2
 1755 012c 0CD0     		beq	.L463
 1756 012e EB78     		ldrb	r3, [r5, #3]	@ zero_extendqisi2
 1757 0130 002B     		cmp	r3, #0
 1758 0132 57D1     		bne	.L464
 1759              	.L467:
 1760 0134 6878     		ldrb	r0, [r5, #1]	@ zero_extendqisi2
 1761 0136 0123     		movs	r3, #1
 1762 0138 4246     		mov	r2, r8
 1763 013a 05F15001 		add	r1, r5, #80
ARM GAS  /tmp/cc2a13AN.s 			page 32


 1764 013e FFF7FEFF 		bl	disk_read
 1765 0142 30BB     		cbnz	r0, .L490
 1766 0144 C5F84C80 		str	r8, [r5, #76]
 1767              	.L463:
 1768 0148 C7F30807 		ubfx	r7, r7, #0, #9
 1769 014c 3D44     		add	r5, r5, r7
 1770 014e E307     		lsls	r3, r4, #31
 1771 0150 95F85000 		ldrb	r0, [r5, #80]	@ zero_extendqisi2
 1772 0154 46EA0020 		orr	r0, r6, r0, lsl #8
 1773 0158 4CBF     		ite	mi
 1774 015a 0009     		lsrmi	r0, r0, #4
 1775 015c C0F30B00 		ubfxpl	r0, r0, #0, #12
 1776 0160 58E7     		b	.L451
 1777              	.L527:
 1778 0162 8168     		ldr	r1, [r0, #8]
 1779 0164 0029     		cmp	r1, #0
 1780 0166 3FF467AF 		beq	.L482
 1781 016a C679     		ldrb	r6, [r0, #7]	@ zero_extendqisi2
 1782 016c 022E     		cmp	r6, #2
 1783 016e A4EB0101 		sub	r1, r4, r1
 1784 0172 27D0     		beq	.L531
 1785 0174 032E     		cmp	r6, #3
 1786 0176 7FF462AF 		bne	.L484
 1787 017a 8369     		ldr	r3, [r0, #24]
 1788 017c 8B42     		cmp	r3, r1
 1789 017e 7FF65EAF 		bls	.L484
 1790              	.L486:
 1791 0182 601C     		adds	r0, r4, #1
 1792 0184 46E7     		b	.L451
 1793              	.L530:
 1794 0186 05F15007 		add	r7, r5, #80
 1795 018a AAE7     		b	.L471
 1796              	.L529:
 1797 018c 05F15007 		add	r7, r5, #80
 1798 0190 8CE7     		b	.L477
 1799              	.L490:
 1800 0192 4FF0FF30 		mov	r0, #-1
 1801 0196 E864     		str	r0, [r5, #76]
 1802 0198 3CE7     		b	.L451
 1803              	.L459:
 1804 019a 2846     		mov	r0, r5
 1805 019c FFF7FEFF 		bl	sync_window.part.0
 1806 01a0 0028     		cmp	r0, #0
 1807 01a2 AED0     		beq	.L462
 1808              	.L468:
 1809 01a4 4FF0FF30 		mov	r0, #-1
 1810 01a8 34E7     		b	.L451
 1811              	.L472:
 1812 01aa 2846     		mov	r0, r5
 1813 01ac FFF7FEFF 		bl	sync_window.part.0
 1814 01b0 0028     		cmp	r0, #0
 1815 01b2 8BD0     		beq	.L475
 1816 01b4 F6E7     		b	.L468
 1817              	.L478:
 1818 01b6 2846     		mov	r0, r5
 1819 01b8 FFF7FEFF 		bl	sync_window.part.0
 1820 01bc 0028     		cmp	r0, #0
ARM GAS  /tmp/cc2a13AN.s 			page 33


 1821 01be 3FF46AAF 		beq	.L481
 1822 01c2 EFE7     		b	.L468
 1823              	.L531:
 1824 01c4 013B     		subs	r3, r3, #1
 1825 01c6 42F1FF32 		adc	r2, r2, #-1
 1826 01ca 5B0A     		lsrs	r3, r3, #9
 1827 01cc 6889     		ldrh	r0, [r5, #10]
 1828 01ce 43EAC253 		orr	r3, r3, r2, lsl #23
 1829 01d2 B3FBF0F3 		udiv	r3, r3, r0
 1830 01d6 9942     		cmp	r1, r3
 1831 01d8 3FF61BAF 		bhi	.L496
 1832 01dc D1D1     		bne	.L486
 1833              	.L498:
 1834 01de 6FF00040 		mvn	r0, #-2147483648
 1835 01e2 17E7     		b	.L451
 1836              	.L464:
 1837 01e4 2846     		mov	r0, r5
 1838 01e6 FFF7FEFF 		bl	sync_window.part.0
 1839 01ea 0028     		cmp	r0, #0
 1840 01ec A2D0     		beq	.L467
 1841 01ee D9E7     		b	.L468
 1842              	.L528:
 1843 01f0 05F15007 		add	r7, r5, #80
 1844 01f4 3EE7     		b	.L488
 1845              	.L489:
 1846 01f6 2846     		mov	r0, r5
 1847 01f8 FFF7FEFF 		bl	sync_window.part.0
 1848 01fc 0028     		cmp	r0, #0
 1849 01fe 3FF42DAF 		beq	.L492
 1850 0202 CFE7     		b	.L468
 1851              		.size	get_fat, .-get_fat
 1852              		.section	.text.create_chain,"ax",%progbits
 1853              		.align	1
 1854              		.p2align 4,,15
 1855              		.syntax unified
 1856              		.thumb
 1857              		.thumb_func
 1858              		.fpu fpv4-sp-d16
 1859              		.type	create_chain, %function
 1860              	create_chain:
 1861              		@ args = 0, pretend = 0, frame = 0
 1862              		@ frame_needed = 0, uses_anonymous_args = 0
 1863 0000 2DE9F041 		push	{r4, r5, r6, r7, r8, lr}
 1864 0004 0668     		ldr	r6, [r0]
 1865 0006 0746     		mov	r7, r0
 1866 0008 8846     		mov	r8, r1
 1867 000a 0029     		cmp	r1, #0
 1868 000c 4BD1     		bne	.L533
 1869 000e B569     		ldr	r5, [r6, #24]
 1870 0010 002D     		cmp	r5, #0
 1871 0012 40D0     		beq	.L563
 1872 0014 336B     		ldr	r3, [r6, #48]
 1873 0016 AB42     		cmp	r3, r5
 1874 0018 98BF     		it	ls
 1875 001a 0125     		movls	r5, #1
 1876              	.L534:
 1877 001c F369     		ldr	r3, [r6, #28]
ARM GAS  /tmp/cc2a13AN.s 			page 34


 1878 001e 002B     		cmp	r3, #0
 1879 0020 3DD0     		beq	.L556
 1880              	.L538:
 1881 0022 3378     		ldrb	r3, [r6]	@ zero_extendqisi2
 1882 0024 042B     		cmp	r3, #4
 1883 0026 4AD0     		beq	.L601
 1884 0028 4545     		cmp	r5, r8
 1885 002a 7AD0     		beq	.L549
 1886              	.L600:
 1887 002c 336B     		ldr	r3, [r6, #48]
 1888              	.L550:
 1889 002e 2C46     		mov	r4, r5
 1890 0030 06E0     		b	.L557
 1891              	.L602:
 1892 0032 0128     		cmp	r0, #1
 1893 0034 5DD0     		beq	.L535
 1894 0036 0130     		adds	r0, r0, #1
 1895 0038 6ED0     		beq	.L540
 1896 003a AC42     		cmp	r4, r5
 1897 003c 2FD0     		beq	.L556
 1898 003e 336B     		ldr	r3, [r6, #48]
 1899              	.L557:
 1900 0040 0134     		adds	r4, r4, #1
 1901 0042 9C42     		cmp	r4, r3
 1902 0044 3846     		mov	r0, r7
 1903 0046 02D3     		bcc	.L555
 1904 0048 012D     		cmp	r5, #1
 1905 004a 28D9     		bls	.L556
 1906 004c 0224     		movs	r4, #2
 1907              	.L555:
 1908 004e 2146     		mov	r1, r4
 1909 0050 FFF7FEFF 		bl	get_fat
 1910 0054 0028     		cmp	r0, #0
 1911 0056 ECD1     		bne	.L602
 1912              	.L554:
 1913 0058 012C     		cmp	r4, #1
 1914 005a 4AD9     		bls	.L535
 1915 005c 336B     		ldr	r3, [r6, #48]
 1916 005e 9C42     		cmp	r4, r3
 1917 0060 47D2     		bcs	.L535
 1918 0062 4FF0FF32 		mov	r2, #-1
 1919 0066 2146     		mov	r1, r4
 1920 0068 3046     		mov	r0, r6
 1921 006a FFF7FEFF 		bl	put_fat.part.0
 1922 006e 0028     		cmp	r0, #0
 1923 0070 50D1     		bne	.L547
 1924 0072 B8F1000F 		cmp	r8, #0
 1925 0076 40D1     		bne	.L603
 1926              	.L548:
 1927 0078 336B     		ldr	r3, [r6, #48]
 1928 007a F269     		ldr	r2, [r6, #28]
 1929 007c B461     		str	r4, [r6, #24]
 1930 007e 023B     		subs	r3, r3, #2
 1931 0080 9A42     		cmp	r2, r3
 1932 0082 3379     		ldrb	r3, [r6, #4]	@ zero_extendqisi2
 1933 0084 98BF     		it	ls
 1934 0086 02F1FF32 		addls	r2, r2, #-1
ARM GAS  /tmp/cc2a13AN.s 			page 35


 1935 008a 43F00103 		orr	r3, r3, #1
 1936 008e 98BF     		it	ls
 1937 0090 F261     		strls	r2, [r6, #28]
 1938 0092 3371     		strb	r3, [r6, #4]
 1939 0094 04E0     		b	.L532
 1940              	.L563:
 1941 0096 F369     		ldr	r3, [r6, #28]
 1942 0098 0125     		movs	r5, #1
 1943 009a 002B     		cmp	r3, #0
 1944 009c C1D1     		bne	.L538
 1945              	.L556:
 1946 009e 0024     		movs	r4, #0
 1947              	.L532:
 1948 00a0 2046     		mov	r0, r4
 1949 00a2 BDE8F081 		pop	{r4, r5, r6, r7, r8, pc}
 1950              	.L533:
 1951 00a6 FFF7FEFF 		bl	get_fat
 1952 00aa 0128     		cmp	r0, #1
 1953 00ac 0446     		mov	r4, r0
 1954 00ae 20D9     		bls	.L535
 1955 00b0 421C     		adds	r2, r0, #1
 1956 00b2 31D0     		beq	.L540
 1957 00b4 336B     		ldr	r3, [r6, #48]
 1958 00b6 8342     		cmp	r3, r0
 1959 00b8 F2D8     		bhi	.L532
 1960 00ba 4546     		mov	r5, r8
 1961 00bc AEE7     		b	.L534
 1962              	.L601:
 1963 00be 0122     		movs	r2, #1
 1964 00c0 2946     		mov	r1, r5
 1965 00c2 3046     		mov	r0, r6
 1966 00c4 FFF7FEFF 		bl	find_bitmap
 1967 00c8 431E     		subs	r3, r0, #1
 1968 00ca 0333     		adds	r3, r3, #3
 1969 00cc 0446     		mov	r4, r0
 1970 00ce E7D8     		bhi	.L532
 1971 00d0 0123     		movs	r3, #1
 1972 00d2 0146     		mov	r1, r0
 1973 00d4 1A46     		mov	r2, r3
 1974 00d6 3046     		mov	r0, r6
 1975 00d8 FFF7FEFF 		bl	change_bitmap
 1976 00dc 0228     		cmp	r0, #2
 1977 00de 08D0     		beq	.L535
 1978 00e0 0128     		cmp	r0, #1
 1979 00e2 19D0     		beq	.L540
 1980 00e4 B8F1000F 		cmp	r8, #0
 1981 00e8 35D1     		bne	.L541
 1982 00ea 0223     		movs	r3, #2
 1983 00ec FB71     		strb	r3, [r7, #7]
 1984              	.L545:
 1985 00ee 0028     		cmp	r0, #0
 1986 00f0 C2D0     		beq	.L548
 1987              	.L535:
 1988 00f2 0124     		movs	r4, #1
 1989 00f4 2046     		mov	r0, r4
 1990 00f6 BDE8F081 		pop	{r4, r5, r6, r7, r8, pc}
 1991              	.L603:
ARM GAS  /tmp/cc2a13AN.s 			page 36


 1992 00fa B8F1010F 		cmp	r8, #1
 1993 00fe F8D0     		beq	.L535
 1994 0100 336B     		ldr	r3, [r6, #48]
 1995 0102 9845     		cmp	r8, r3
 1996 0104 F5D2     		bcs	.L535
 1997 0106 2246     		mov	r2, r4
 1998 0108 4146     		mov	r1, r8
 1999 010a 3046     		mov	r0, r6
 2000 010c FFF7FEFF 		bl	put_fat.part.0
 2001 0110 0028     		cmp	r0, #0
 2002 0112 B1D0     		beq	.L548
 2003              	.L547:
 2004 0114 0128     		cmp	r0, #1
 2005 0116 ECD1     		bne	.L535
 2006              	.L540:
 2007 0118 4FF0FF34 		mov	r4, #-1
 2008 011c 2046     		mov	r0, r4
 2009 011e BDE8F081 		pop	{r4, r5, r6, r7, r8, pc}
 2010              	.L549:
 2011 0122 336B     		ldr	r3, [r6, #48]
 2012 0124 6C1C     		adds	r4, r5, #1
 2013 0126 A342     		cmp	r3, r4
 2014 0128 98BF     		it	ls
 2015 012a 0224     		movls	r4, #2
 2016 012c 2146     		mov	r1, r4
 2017 012e 3846     		mov	r0, r7
 2018 0130 FFF7FEFF 		bl	get_fat
 2019 0134 0128     		cmp	r0, #1
 2020 0136 DCD0     		beq	.L535
 2021 0138 431C     		adds	r3, r0, #1
 2022 013a EDD0     		beq	.L540
 2023 013c 40B1     		cbz	r0, .L552
 2024 013e B269     		ldr	r2, [r6, #24]
 2025 0140 336B     		ldr	r3, [r6, #48]
 2026 0142 012A     		cmp	r2, #1
 2027 0144 7FF673AF 		bls	.L550
 2028 0148 9342     		cmp	r3, r2
 2029 014a 88BF     		it	hi
 2030 014c 1546     		movhi	r5, r2
 2031 014e 6EE7     		b	.L550
 2032              	.L552:
 2033 0150 002C     		cmp	r4, #0
 2034 0152 81D1     		bne	.L554
 2035 0154 6AE7     		b	.L600
 2036              	.L541:
 2037 0156 FB79     		ldrb	r3, [r7, #7]	@ zero_extendqisi2
 2038 0158 022B     		cmp	r3, #2
 2039 015a 18D0     		beq	.L604
 2040              	.L543:
 2041 015c 08F10103 		add	r3, r8, #1
 2042 0160 A342     		cmp	r3, r4
 2043 0162 0DD0     		beq	.L605
 2044 0164 FB69     		ldr	r3, [r7, #28]
 2045 0166 0BB9     		cbnz	r3, .L546
 2046 0168 0123     		movs	r3, #1
 2047 016a FB61     		str	r3, [r7, #28]
 2048              	.L546:
ARM GAS  /tmp/cc2a13AN.s 			page 37


 2049 016c 2246     		mov	r2, r4
 2050 016e 4146     		mov	r1, r8
 2051 0170 3846     		mov	r0, r7
 2052 0172 FFF7FEFF 		bl	fill_last_frag
 2053 0176 0028     		cmp	r0, #0
 2054 0178 CCD1     		bne	.L547
 2055 017a 0123     		movs	r3, #1
 2056 017c FB61     		str	r3, [r7, #28]
 2057 017e 7BE7     		b	.L548
 2058              	.L605:
 2059 0180 FB69     		ldr	r3, [r7, #28]
 2060 0182 6BB1     		cbz	r3, .L564
 2061 0184 0133     		adds	r3, r3, #1
 2062              	.L544:
 2063 0186 FB61     		str	r3, [r7, #28]
 2064 0188 0028     		cmp	r0, #0
 2065 018a B2D1     		bne	.L535
 2066 018c 74E7     		b	.L548
 2067              	.L604:
 2068 018e 6B1C     		adds	r3, r5, #1
 2069 0190 A342     		cmp	r3, r4
 2070 0192 ACD0     		beq	.L545
 2071 0194 BB68     		ldr	r3, [r7, #8]
 2072 0196 EB1A     		subs	r3, r5, r3
 2073 0198 BB61     		str	r3, [r7, #24]
 2074 019a 0323     		movs	r3, #3
 2075 019c FB71     		strb	r3, [r7, #7]
 2076 019e DDE7     		b	.L543
 2077              	.L564:
 2078 01a0 0223     		movs	r3, #2
 2079 01a2 F0E7     		b	.L544
 2080              		.size	create_chain, .-create_chain
 2081              		.section	.text.dir_sdi,"ax",%progbits
 2082              		.align	1
 2083              		.p2align 4,,15
 2084              		.syntax unified
 2085              		.thumb
 2086              		.thumb_func
 2087              		.fpu fpv4-sp-d16
 2088              		.type	dir_sdi, %function
 2089              	dir_sdi:
 2090              		@ args = 0, pretend = 0, frame = 0
 2091              		@ frame_needed = 0, uses_anonymous_args = 0
 2092 0000 F8B5     		push	{r3, r4, r5, r6, r7, lr}
 2093 0002 0768     		ldr	r7, [r0]
 2094 0004 3B78     		ldrb	r3, [r7]	@ zero_extendqisi2
 2095 0006 042B     		cmp	r3, #4
 2096 0008 0CBF     		ite	eq
 2097 000a 4FF08052 		moveq	r2, #268435456
 2098 000e 4FF40012 		movne	r2, #2097152
 2099 0012 8A42     		cmp	r2, r1
 2100 0014 21D9     		bls	.L610
 2101 0016 CA06     		lsls	r2, r1, #27
 2102 0018 0D46     		mov	r5, r1
 2103 001a 1ED1     		bne	.L610
 2104 001c 8168     		ldr	r1, [r0, #8]
 2105 001e 0563     		str	r5, [r0, #48]
ARM GAS  /tmp/cc2a13AN.s 			page 38


 2106 0020 0646     		mov	r6, r0
 2107 0022 E1B1     		cbz	r1, .L631
 2108              	.L611:
 2109 0024 7B89     		ldrh	r3, [r7, #10]
 2110 0026 B5EB432F 		cmp	r5, r3, lsl #9
 2111 002a 4FEA4324 		lsl	r4, r3, #9
 2112 002e 07D2     		bcs	.L617
 2113 0030 31E0     		b	.L616
 2114              	.L632:
 2115 0032 0128     		cmp	r0, #1
 2116 0034 11D9     		bls	.L610
 2117 0036 3B6B     		ldr	r3, [r7, #48]
 2118 0038 8342     		cmp	r3, r0
 2119 003a 0ED9     		bls	.L610
 2120 003c AC42     		cmp	r4, r5
 2121 003e 2BD8     		bhi	.L618
 2122              	.L617:
 2123 0040 3046     		mov	r0, r6
 2124 0042 FFF7FEFF 		bl	get_fat
 2125 0046 431C     		adds	r3, r0, #1
 2126 0048 0146     		mov	r1, r0
 2127 004a A5EB0405 		sub	r5, r5, r4
 2128 004e F0D1     		bne	.L632
 2129 0050 0120     		movs	r0, #1
 2130 0052 F8BD     		pop	{r3, r4, r5, r6, r7, pc}
 2131              	.L633:
 2132 0054 0023     		movs	r3, #0
 2133 0056 C6E90D13 		strd	r1, r3, [r6, #52]
 2134              	.L610:
 2135 005a 0220     		movs	r0, #2
 2136 005c F8BD     		pop	{r3, r4, r5, r6, r7, pc}
 2137              	.L631:
 2138 005e 022B     		cmp	r3, #2
 2139 0060 13D8     		bhi	.L612
 2140              	.L614:
 2141 0062 3B89     		ldrh	r3, [r7, #8]
 2142 0064 B3EB551F 		cmp	r3, r5, lsr #5
 2143 0068 F7D9     		bls	.L610
 2144 006a 3A6C     		ldr	r2, [r7, #64]
 2145 006c B263     		str	r2, [r6, #56]
 2146              	.L615:
 2147 006e 7163     		str	r1, [r6, #52]
 2148 0070 002A     		cmp	r2, #0
 2149 0072 F2D0     		beq	.L610
 2150 0074 07F15003 		add	r3, r7, #80
 2151 0078 C5F30801 		ubfx	r1, r5, #0, #9
 2152 007c 02EB5522 		add	r2, r2, r5, lsr #9
 2153 0080 0B44     		add	r3, r3, r1
 2154 0082 C6E90E23 		strd	r2, r3, [r6, #56]
 2155 0086 0020     		movs	r0, #0
 2156 0088 F8BD     		pop	{r3, r4, r5, r6, r7, pc}
 2157              	.L612:
 2158 008a 3B6C     		ldr	r3, [r7, #64]
 2159 008c C171     		strb	r1, [r0, #7]
 2160 008e 002B     		cmp	r3, #0
 2161 0090 E7D0     		beq	.L614
 2162 0092 1946     		mov	r1, r3
ARM GAS  /tmp/cc2a13AN.s 			page 39


 2163 0094 C6E7     		b	.L611
 2164              	.L616:
 2165 0096 3B6B     		ldr	r3, [r7, #48]
 2166              	.L618:
 2167 0098 023B     		subs	r3, r3, #2
 2168 009a 8A1E     		subs	r2, r1, #2
 2169 009c 9A42     		cmp	r2, r3
 2170 009e D9D2     		bcs	.L633
 2171 00a0 7B89     		ldrh	r3, [r7, #10]
 2172 00a2 786C     		ldr	r0, [r7, #68]
 2173 00a4 02FB0302 		mla	r2, r2, r3, r0
 2174 00a8 B263     		str	r2, [r6, #56]
 2175 00aa E0E7     		b	.L615
 2176              		.size	dir_sdi, .-dir_sdi
 2177              		.section	.text.remove_chain,"ax",%progbits
 2178              		.align	1
 2179              		.p2align 4,,15
 2180              		.syntax unified
 2181              		.thumb
 2182              		.thumb_func
 2183              		.fpu fpv4-sp-d16
 2184              		.type	remove_chain, %function
 2185              	remove_chain:
 2186              		@ args = 0, pretend = 0, frame = 0
 2187              		@ frame_needed = 0, uses_anonymous_args = 0
 2188 0000 0129     		cmp	r1, #1
 2189 0002 2DE9F843 		push	{r3, r4, r5, r6, r7, r8, r9, lr}
 2190 0006 0568     		ldr	r5, [r0]
 2191 0008 36D9     		bls	.L637
 2192 000a 2B6B     		ldr	r3, [r5, #48]
 2193 000c 8B42     		cmp	r3, r1
 2194 000e 0C46     		mov	r4, r1
 2195 0010 32D9     		bls	.L637
 2196 0012 0746     		mov	r7, r0
 2197 0014 9146     		mov	r9, r2
 2198 0016 002A     		cmp	r2, #0
 2199 0018 44D1     		bne	.L638
 2200              	.L641:
 2201 001a A046     		mov	r8, r4
 2202 001c 1CE0     		b	.L639
 2203              	.L675:
 2204 001e 2B6B     		ldr	r3, [r5, #48]
 2205 0020 9E42     		cmp	r6, r3
 2206 0022 29D2     		bcs	.L637
 2207 0024 0022     		movs	r2, #0
 2208 0026 3146     		mov	r1, r6
 2209 0028 2846     		mov	r0, r5
 2210 002a FFF7FEFF 		bl	put_fat.part.0
 2211 002e 20BB     		cbnz	r0, .L636
 2212              	.L649:
 2213 0030 2A6B     		ldr	r2, [r5, #48]
 2214 0032 EB69     		ldr	r3, [r5, #28]
 2215 0034 911E     		subs	r1, r2, #2
 2216 0036 8B42     		cmp	r3, r1
 2217 0038 05D2     		bcs	.L648
 2218 003a 2979     		ldrb	r1, [r5, #4]	@ zero_extendqisi2
 2219 003c 0133     		adds	r3, r3, #1
ARM GAS  /tmp/cc2a13AN.s 			page 40


 2220 003e 41F00101 		orr	r1, r1, #1
 2221 0042 EB61     		str	r3, [r5, #28]
 2222 0044 2971     		strb	r1, [r5, #4]
 2223              	.L648:
 2224 0046 0136     		adds	r6, r6, #1
 2225 0048 A642     		cmp	r6, r4
 2226 004a 03D0     		beq	.L650
 2227 004c 2B78     		ldrb	r3, [r5]	@ zero_extendqisi2
 2228 004e 042B     		cmp	r3, #4
 2229 0050 15D0     		beq	.L674
 2230 0052 A046     		mov	r8, r4
 2231              	.L650:
 2232 0054 A242     		cmp	r2, r4
 2233 0056 1FD9     		bls	.L651
 2234              	.L639:
 2235 0058 2146     		mov	r1, r4
 2236 005a 3846     		mov	r0, r7
 2237 005c FFF7FEFF 		bl	get_fat
 2238 0060 2646     		mov	r6, r4
 2239 0062 0446     		mov	r4, r0
 2240 0064 C0B1     		cbz	r0, .L651
 2241 0066 0128     		cmp	r0, #1
 2242 0068 06D0     		beq	.L637
 2243 006a 421C     		adds	r2, r0, #1
 2244 006c 46D0     		beq	.L655
 2245 006e 2B78     		ldrb	r3, [r5]	@ zero_extendqisi2
 2246 0070 042B     		cmp	r3, #4
 2247 0072 DDD0     		beq	.L649
 2248 0074 012E     		cmp	r6, #1
 2249 0076 D2D8     		bhi	.L675
 2250              	.L637:
 2251 0078 0220     		movs	r0, #2
 2252              	.L636:
 2253 007a BDE8F883 		pop	{r3, r4, r5, r6, r7, r8, r9, pc}
 2254              	.L674:
 2255 007e A6EB0802 		sub	r2, r6, r8
 2256 0082 4146     		mov	r1, r8
 2257 0084 0023     		movs	r3, #0
 2258 0086 2846     		mov	r0, r5
 2259 0088 FFF7FEFF 		bl	change_bitmap
 2260 008c 0028     		cmp	r0, #0
 2261 008e F4D1     		bne	.L636
 2262 0090 2A6B     		ldr	r2, [r5, #48]
 2263 0092 A242     		cmp	r2, r4
 2264 0094 A046     		mov	r8, r4
 2265 0096 DFD8     		bhi	.L639
 2266              	.L651:
 2267 0098 2B78     		ldrb	r3, [r5]	@ zero_extendqisi2
 2268 009a 042B     		cmp	r3, #4
 2269 009c 16D0     		beq	.L676
 2270              	.L673:
 2271 009e 0020     		movs	r0, #0
 2272 00a0 BDE8F883 		pop	{r3, r4, r5, r6, r7, r8, r9, pc}
 2273              	.L638:
 2274 00a4 2A78     		ldrb	r2, [r5]	@ zero_extendqisi2
 2275 00a6 042A     		cmp	r2, #4
 2276 00a8 02D1     		bne	.L640
ARM GAS  /tmp/cc2a13AN.s 			page 41


 2277 00aa C279     		ldrb	r2, [r0, #7]	@ zero_extendqisi2
 2278 00ac 022A     		cmp	r2, #2
 2279 00ae B4D0     		beq	.L641
 2280              	.L640:
 2281 00b0 B9F1010F 		cmp	r9, #1
 2282 00b4 E0D0     		beq	.L637
 2283 00b6 4B45     		cmp	r3, r9
 2284 00b8 DED9     		bls	.L637
 2285 00ba 4FF0FF32 		mov	r2, #-1
 2286 00be 4946     		mov	r1, r9
 2287 00c0 2846     		mov	r0, r5
 2288 00c2 FFF7FEFF 		bl	put_fat.part.0
 2289 00c6 0028     		cmp	r0, #0
 2290 00c8 A7D0     		beq	.L641
 2291 00ca D6E7     		b	.L636
 2292              	.L676:
 2293 00cc B9F1000F 		cmp	r9, #0
 2294 00d0 17D0     		beq	.L677
 2295 00d2 FB79     		ldrb	r3, [r7, #7]	@ zero_extendqisi2
 2296 00d4 CBB9     		cbnz	r3, .L653
 2297 00d6 BC68     		ldr	r4, [r7, #8]
 2298 00d8 09E0     		b	.L654
 2299              	.L656:
 2300 00da FFF7FEFF 		bl	get_fat
 2301 00de 0128     		cmp	r0, #1
 2302 00e0 04F10104 		add	r4, r4, #1
 2303 00e4 C8D9     		bls	.L637
 2304 00e6 431C     		adds	r3, r0, #1
 2305 00e8 08D0     		beq	.L655
 2306 00ea 8442     		cmp	r4, r0
 2307 00ec D7D1     		bne	.L673
 2308              	.L654:
 2309 00ee 4C45     		cmp	r4, r9
 2310 00f0 2146     		mov	r1, r4
 2311 00f2 3846     		mov	r0, r7
 2312 00f4 F1D1     		bne	.L656
 2313              	.L657:
 2314 00f6 0223     		movs	r3, #2
 2315 00f8 FB71     		strb	r3, [r7, #7]
 2316 00fa D0E7     		b	.L673
 2317              	.L655:
 2318 00fc 0120     		movs	r0, #1
 2319 00fe BDE8F883 		pop	{r3, r4, r5, r6, r7, r8, r9, pc}
 2320              	.L677:
 2321 0102 87F80790 		strb	r9, [r7, #7]
 2322 0106 4846     		mov	r0, r9
 2323 0108 B7E7     		b	.L636
 2324              	.L653:
 2325 010a 032B     		cmp	r3, #3
 2326 010c C7D1     		bne	.L673
 2327 010e BB68     		ldr	r3, [r7, #8]
 2328 0110 4B45     		cmp	r3, r9
 2329 0112 C4D8     		bhi	.L673
 2330 0114 BA69     		ldr	r2, [r7, #24]
 2331 0116 1344     		add	r3, r3, r2
 2332 0118 4B45     		cmp	r3, r9
 2333 011a C0D3     		bcc	.L673
ARM GAS  /tmp/cc2a13AN.s 			page 42


 2334 011c EBE7     		b	.L657
 2335              		.size	remove_chain, .-remove_chain
 2336 011e 00BF     		.section	.text.dir_next,"ax",%progbits
 2337              		.align	1
 2338              		.p2align 4,,15
 2339              		.syntax unified
 2340              		.thumb
 2341              		.thumb_func
 2342              		.fpu fpv4-sp-d16
 2343              		.type	dir_next, %function
 2344              	dir_next:
 2345              		@ args = 0, pretend = 0, frame = 0
 2346              		@ frame_needed = 0, uses_anonymous_args = 0
 2347 0000 2DE9F047 		push	{r4, r5, r6, r7, r8, r9, r10, lr}
 2348 0004 0768     		ldr	r7, [r0]
 2349 0006 056B     		ldr	r5, [r0, #48]
 2350 0008 3A78     		ldrb	r2, [r7]	@ zero_extendqisi2
 2351 000a 042A     		cmp	r2, #4
 2352 000c 05F12005 		add	r5, r5, #32
 2353 0010 0CBF     		ite	eq
 2354 0012 4FF08052 		moveq	r2, #268435456
 2355 0016 4FF40012 		movne	r2, #2097152
 2356 001a AA42     		cmp	r2, r5
 2357 001c 0446     		mov	r4, r0
 2358 001e 04D8     		bhi	.L680
 2359              	.L685:
 2360 0020 0023     		movs	r3, #0
 2361 0022 A363     		str	r3, [r4, #56]
 2362 0024 0420     		movs	r0, #4
 2363              	.L681:
 2364 0026 BDE8F087 		pop	{r4, r5, r6, r7, r8, r9, r10, pc}
 2365              	.L680:
 2366 002a 826B     		ldr	r2, [r0, #56]
 2367 002c 002A     		cmp	r2, #0
 2368 002e 52D0     		beq	.L694
 2369 0030 C5F30806 		ubfx	r6, r5, #0, #9
 2370 0034 002E     		cmp	r6, #0
 2371 0036 3BD1     		bne	.L683
 2372 0038 8846     		mov	r8, r1
 2373 003a 416B     		ldr	r1, [r0, #52]
 2374 003c 0132     		adds	r2, r2, #1
 2375 003e 8263     		str	r2, [r0, #56]
 2376 0040 0029     		cmp	r1, #0
 2377 0042 3DD0     		beq	.L706
 2378 0044 7B89     		ldrh	r3, [r7, #10]
 2379 0046 013B     		subs	r3, r3, #1
 2380 0048 13EA5529 		ands	r9, r3, r5, lsr #9
 2381 004c 30D1     		bne	.L683
 2382 004e FFF7FEFF 		bl	get_fat
 2383 0052 0128     		cmp	r0, #1
 2384 0054 8246     		mov	r10, r0
 2385 0056 3AD9     		bls	.L690
 2386 0058 B0F1FF3F 		cmp	r0, #-1
 2387 005c 35D0     		beq	.L691
 2388 005e 3B6B     		ldr	r3, [r7, #48]
 2389 0060 8342     		cmp	r3, r0
 2390 0062 17D8     		bhi	.L689
ARM GAS  /tmp/cc2a13AN.s 			page 43


 2391 0064 B8F1000F 		cmp	r8, #0
 2392 0068 DAD0     		beq	.L685
 2393 006a 616B     		ldr	r1, [r4, #52]
 2394 006c 2046     		mov	r0, r4
 2395 006e FFF7FEFF 		bl	create_chain
 2396 0072 8246     		mov	r10, r0
 2397 0074 68B3     		cbz	r0, .L695
 2398 0076 0128     		cmp	r0, #1
 2399 0078 29D0     		beq	.L690
 2400 007a B0F1FF3F 		cmp	r0, #-1
 2401 007e 24D0     		beq	.L691
 2402 0080 0146     		mov	r1, r0
 2403 0082 3846     		mov	r0, r7
 2404 0084 FFF7FEFF 		bl	dir_clear
 2405 0088 F8B9     		cbnz	r0, .L691
 2406 008a E379     		ldrb	r3, [r4, #7]	@ zero_extendqisi2
 2407 008c 43F00403 		orr	r3, r3, #4
 2408 0090 E371     		strb	r3, [r4, #7]
 2409 0092 3B6B     		ldr	r3, [r7, #48]
 2410              	.L689:
 2411 0094 C4F834A0 		str	r10, [r4, #52]
 2412 0098 023B     		subs	r3, r3, #2
 2413 009a AAF1020A 		sub	r10, r10, #2
 2414 009e 9A45     		cmp	r10, r3
 2415 00a0 04D2     		bcs	.L692
 2416 00a2 B7F80A90 		ldrh	r9, [r7, #10]
 2417 00a6 7B6C     		ldr	r3, [r7, #68]
 2418 00a8 0AFB0939 		mla	r9, r10, r9, r3
 2419              	.L692:
 2420 00ac C4F83890 		str	r9, [r4, #56]
 2421              	.L683:
 2422 00b0 07F15003 		add	r3, r7, #80
 2423 00b4 3344     		add	r3, r3, r6
 2424 00b6 2563     		str	r5, [r4, #48]
 2425 00b8 E363     		str	r3, [r4, #60]
 2426 00ba 0020     		movs	r0, #0
 2427 00bc BDE8F087 		pop	{r4, r5, r6, r7, r8, r9, r10, pc}
 2428              	.L706:
 2429 00c0 3B89     		ldrh	r3, [r7, #8]
 2430 00c2 B3EB551F 		cmp	r3, r5, lsr #5
 2431 00c6 F3D8     		bhi	.L683
 2432 00c8 AAE7     		b	.L685
 2433              	.L691:
 2434 00ca 0120     		movs	r0, #1
 2435 00cc ABE7     		b	.L681
 2436              	.L690:
 2437 00ce 0220     		movs	r0, #2
 2438 00d0 A9E7     		b	.L681
 2439              	.L695:
 2440 00d2 0720     		movs	r0, #7
 2441 00d4 A7E7     		b	.L681
 2442              	.L694:
 2443 00d6 0420     		movs	r0, #4
 2444 00d8 A5E7     		b	.L681
 2445              		.size	dir_next, .-dir_next
 2446 00da 00BF     		.section	.text.dir_alloc,"ax",%progbits
 2447              		.align	1
ARM GAS  /tmp/cc2a13AN.s 			page 44


 2448              		.p2align 4,,15
 2449              		.syntax unified
 2450              		.thumb
 2451              		.thumb_func
 2452              		.fpu fpv4-sp-d16
 2453              		.type	dir_alloc, %function
 2454              	dir_alloc:
 2455              		@ args = 0, pretend = 0, frame = 0
 2456              		@ frame_needed = 0, uses_anonymous_args = 0
 2457 0000 2DE9F047 		push	{r4, r5, r6, r7, r8, r9, r10, lr}
 2458 0004 8846     		mov	r8, r1
 2459 0006 0021     		movs	r1, #0
 2460 0008 0468     		ldr	r4, [r0]
 2461 000a 0546     		mov	r5, r0
 2462 000c FFF7FEFF 		bl	dir_sdi
 2463 0010 0746     		mov	r7, r0
 2464 0012 30B1     		cbz	r0, .L732
 2465              	.L708:
 2466 0014 0428     		cmp	r0, #4
 2467 0016 14BF     		ite	ne
 2468 0018 0746     		movne	r7, r0
 2469 001a 0727     		moveq	r7, #7
 2470              	.L714:
 2471 001c 3846     		mov	r0, r7
 2472 001e BDE8F087 		pop	{r4, r5, r6, r7, r8, r9, r10, pc}
 2473              	.L732:
 2474 0022 0646     		mov	r6, r0
 2475 0024 04F15009 		add	r9, r4, #80
 2476              	.L718:
 2477 0028 D5F838A0 		ldr	r10, [r5, #56]
 2478 002c E36C     		ldr	r3, [r4, #76]
 2479 002e 9A45     		cmp	r10, r3
 2480 0030 11D0     		beq	.L709
 2481 0032 E378     		ldrb	r3, [r4, #3]	@ zero_extendqisi2
 2482 0034 3BBB     		cbnz	r3, .L710
 2483              	.L713:
 2484 0036 6078     		ldrb	r0, [r4, #1]	@ zero_extendqisi2
 2485 0038 0123     		movs	r3, #1
 2486 003a 5246     		mov	r2, r10
 2487 003c 4946     		mov	r1, r9
 2488 003e FFF7FEFF 		bl	disk_read
 2489 0042 30B1     		cbz	r0, .L733
 2490 0044 4FF0FF33 		mov	r3, #-1
 2491 0048 0127     		movs	r7, #1
 2492 004a E364     		str	r3, [r4, #76]
 2493 004c 3846     		mov	r0, r7
 2494 004e BDE8F087 		pop	{r4, r5, r6, r7, r8, r9, r10, pc}
 2495              	.L733:
 2496 0052 C4F84CA0 		str	r10, [r4, #76]
 2497              	.L709:
 2498 0056 2378     		ldrb	r3, [r4]	@ zero_extendqisi2
 2499 0058 042B     		cmp	r3, #4
 2500 005a EB6B     		ldr	r3, [r5, #60]
 2501 005c 0BD0     		beq	.L734
 2502 005e 1B78     		ldrb	r3, [r3]	@ zero_extendqisi2
 2503 0060 E52B     		cmp	r3, #229
 2504 0062 0CD0     		beq	.L716
ARM GAS  /tmp/cc2a13AN.s 			page 45


 2505 0064 5BB1     		cbz	r3, .L716
 2506              	.L720:
 2507 0066 0026     		movs	r6, #0
 2508              	.L717:
 2509 0068 0121     		movs	r1, #1
 2510 006a 2846     		mov	r0, r5
 2511 006c FFF7FEFF 		bl	dir_next
 2512 0070 0028     		cmp	r0, #0
 2513 0072 D9D0     		beq	.L718
 2514 0074 CEE7     		b	.L708
 2515              	.L734:
 2516 0076 93F90030 		ldrsb	r3, [r3]
 2517 007a 002B     		cmp	r3, #0
 2518 007c F3DB     		blt	.L720
 2519              	.L716:
 2520 007e 0136     		adds	r6, r6, #1
 2521 0080 4645     		cmp	r6, r8
 2522 0082 F1D1     		bne	.L717
 2523 0084 CAE7     		b	.L714
 2524              	.L710:
 2525 0086 2046     		mov	r0, r4
 2526 0088 FFF7FEFF 		bl	sync_window.part.0
 2527 008c 0028     		cmp	r0, #0
 2528 008e D2D0     		beq	.L713
 2529 0090 C0E7     		b	.L708
 2530              		.size	dir_alloc, .-dir_alloc
 2531 0092 00BF     		.section	.text.dir_remove,"ax",%progbits
 2532              		.align	1
 2533              		.p2align 4,,15
 2534              		.syntax unified
 2535              		.thumb
 2536              		.thumb_func
 2537              		.fpu fpv4-sp-d16
 2538              		.type	dir_remove, %function
 2539              	dir_remove:
 2540              		@ args = 0, pretend = 0, frame = 0
 2541              		@ frame_needed = 0, uses_anonymous_args = 0
 2542 0000 C16C     		ldr	r1, [r0, #76]
 2543 0002 4B1C     		adds	r3, r1, #1
 2544 0004 2DE9F047 		push	{r4, r5, r6, r7, r8, r9, r10, lr}
 2545 0008 0468     		ldr	r4, [r0]
 2546 000a 066B     		ldr	r6, [r0, #48]
 2547 000c 0546     		mov	r5, r0
 2548 000e 41D1     		bne	.L736
 2549              	.L738:
 2550 0010 04F15009 		add	r9, r4, #80
 2551 0014 0127     		movs	r7, #1
 2552 0016 4FF0E508 		mov	r8, #229
 2553              	.L737:
 2554 001a D5F838A0 		ldr	r10, [r5, #56]
 2555 001e E36C     		ldr	r3, [r4, #76]
 2556 0020 9A45     		cmp	r10, r3
 2557 0022 10D0     		beq	.L740
 2558 0024 E378     		ldrb	r3, [r4, #3]	@ zero_extendqisi2
 2559 0026 5BBB     		cbnz	r3, .L741
 2560              	.L744:
 2561 0028 6078     		ldrb	r0, [r4, #1]	@ zero_extendqisi2
ARM GAS  /tmp/cc2a13AN.s 			page 46


 2562 002a 0123     		movs	r3, #1
 2563 002c 5246     		mov	r2, r10
 2564 002e 4946     		mov	r1, r9
 2565 0030 FFF7FEFF 		bl	disk_read
 2566 0034 28B1     		cbz	r0, .L759
 2567 0036 4FF0FF33 		mov	r3, #-1
 2568 003a E364     		str	r3, [r4, #76]
 2569 003c 0120     		movs	r0, #1
 2570 003e BDE8F087 		pop	{r4, r5, r6, r7, r8, r9, r10, pc}
 2571              	.L759:
 2572 0042 C4F84CA0 		str	r10, [r4, #76]
 2573              	.L740:
 2574 0046 2378     		ldrb	r3, [r4]	@ zero_extendqisi2
 2575 0048 042B     		cmp	r3, #4
 2576 004a 0DD0     		beq	.L760
 2577 004c EB6B     		ldr	r3, [r5, #60]
 2578 004e 83F80080 		strb	r8, [r3]
 2579 0052 E770     		strb	r7, [r4, #3]
 2580 0054 2B6B     		ldr	r3, [r5, #48]
 2581 0056 B342     		cmp	r3, r6
 2582 0058 0FD2     		bcs	.L748
 2583              	.L761:
 2584 005a 0021     		movs	r1, #0
 2585 005c 2846     		mov	r0, r5
 2586 005e FFF7FEFF 		bl	dir_next
 2587 0062 0028     		cmp	r0, #0
 2588 0064 D9D0     		beq	.L737
 2589 0066 10E0     		b	.L745
 2590              	.L760:
 2591 0068 EA6B     		ldr	r2, [r5, #60]
 2592 006a 1378     		ldrb	r3, [r2]	@ zero_extendqisi2
 2593 006c 03F07F03 		and	r3, r3, #127
 2594 0070 1370     		strb	r3, [r2]
 2595 0072 E770     		strb	r7, [r4, #3]
 2596 0074 2B6B     		ldr	r3, [r5, #48]
 2597 0076 B342     		cmp	r3, r6
 2598 0078 EFD3     		bcc	.L761
 2599              	.L748:
 2600 007a 0020     		movs	r0, #0
 2601 007c BDE8F087 		pop	{r4, r5, r6, r7, r8, r9, r10, pc}
 2602              	.L741:
 2603 0080 2046     		mov	r0, r4
 2604 0082 FFF7FEFF 		bl	sync_window.part.0
 2605 0086 0028     		cmp	r0, #0
 2606 0088 CED0     		beq	.L744
 2607              	.L745:
 2608 008a 0428     		cmp	r0, #4
 2609 008c 08BF     		it	eq
 2610 008e 0220     		moveq	r0, #2
 2611 0090 BDE8F087 		pop	{r4, r5, r6, r7, r8, r9, r10, pc}
 2612              	.L736:
 2613 0094 FFF7FEFF 		bl	dir_sdi
 2614 0098 0028     		cmp	r0, #0
 2615 009a B9D0     		beq	.L738
 2616 009c BDE8F087 		pop	{r4, r5, r6, r7, r8, r9, r10, pc}
 2617              		.size	dir_remove, .-dir_remove
 2618              		.section	.text.load_xdir,"ax",%progbits
ARM GAS  /tmp/cc2a13AN.s 			page 47


 2619              		.align	1
 2620              		.p2align 4,,15
 2621              		.syntax unified
 2622              		.thumb
 2623              		.thumb_func
 2624              		.fpu fpv4-sp-d16
 2625              		.type	load_xdir, %function
 2626              	load_xdir:
 2627              		@ args = 0, pretend = 0, frame = 0
 2628              		@ frame_needed = 0, uses_anonymous_args = 0
 2629 0000 2DE9F843 		push	{r3, r4, r5, r6, r7, r8, r9, lr}
 2630 0004 0668     		ldr	r6, [r0]
 2631 0006 876B     		ldr	r7, [r0, #56]
 2632 0008 F36C     		ldr	r3, [r6, #76]
 2633 000a 3569     		ldr	r5, [r6, #16]
 2634 000c 9F42     		cmp	r7, r3
 2635 000e 0446     		mov	r4, r0
 2636 0010 11D0     		beq	.L763
 2637 0012 F378     		ldrb	r3, [r6, #3]	@ zero_extendqisi2
 2638 0014 002B     		cmp	r3, #0
 2639 0016 4CD1     		bne	.L764
 2640              	.L767:
 2641 0018 7078     		ldrb	r0, [r6, #1]	@ zero_extendqisi2
 2642 001a 0123     		movs	r3, #1
 2643 001c 3A46     		mov	r2, r7
 2644 001e 06F15001 		add	r1, r6, #80
 2645 0022 FFF7FEFF 		bl	disk_read
 2646 0026 28B1     		cbz	r0, .L809
 2647 0028 4FF0FF33 		mov	r3, #-1
 2648 002c F364     		str	r3, [r6, #76]
 2649 002e 0120     		movs	r0, #1
 2650 0030 BDE8F883 		pop	{r3, r4, r5, r6, r7, r8, r9, pc}
 2651              	.L809:
 2652 0034 F764     		str	r7, [r6, #76]
 2653              	.L763:
 2654 0036 E36B     		ldr	r3, [r4, #60]
 2655 0038 1A78     		ldrb	r2, [r3]	@ zero_extendqisi2
 2656 003a 852A     		cmp	r2, #133
 2657 003c 02D0     		beq	.L769
 2658              	.L770:
 2659 003e 0220     		movs	r0, #2
 2660              	.L768:
 2661 0040 BDE8F883 		pop	{r3, r4, r5, r6, r7, r8, r9, pc}
 2662              	.L769:
 2663 0044 1868     		ldr	r0, [r3]	@ unaligned
 2664 0046 5968     		ldr	r1, [r3, #4]	@ unaligned
 2665 0048 9A68     		ldr	r2, [r3, #8]	@ unaligned
 2666 004a DF68     		ldr	r7, [r3, #12]	@ unaligned
 2667 004c 2860     		str	r0, [r5]	@ unaligned
 2668 004e 6E78     		ldrb	r6, [r5, #1]	@ zero_extendqisi2
 2669 0050 6960     		str	r1, [r5, #4]	@ unaligned
 2670 0052 0136     		adds	r6, r6, #1
 2671 0054 AA60     		str	r2, [r5, #8]	@ unaligned
 2672 0056 EF60     		str	r7, [r5, #12]	@ unaligned
 2673 0058 7601     		lsls	r6, r6, #5
 2674 005a 1869     		ldr	r0, [r3, #16]	@ unaligned
 2675 005c 5969     		ldr	r1, [r3, #20]	@ unaligned
ARM GAS  /tmp/cc2a13AN.s 			page 48


 2676 005e 9A69     		ldr	r2, [r3, #24]	@ unaligned
 2677 0060 DF69     		ldr	r7, [r3, #28]	@ unaligned
 2678 0062 EF61     		str	r7, [r5, #28]	@ unaligned
 2679 0064 A6F16003 		sub	r3, r6, #96
 2680 0068 B3F5007F 		cmp	r3, #512
 2681 006c 2861     		str	r0, [r5, #16]	@ unaligned
 2682 006e 6961     		str	r1, [r5, #20]	@ unaligned
 2683 0070 AA61     		str	r2, [r5, #24]	@ unaligned
 2684 0072 E4D8     		bhi	.L770
 2685 0074 0021     		movs	r1, #0
 2686 0076 2046     		mov	r0, r4
 2687 0078 FFF7FEFF 		bl	dir_next
 2688 007c 0428     		cmp	r0, #4
 2689 007e DED0     		beq	.L770
 2690 0080 0028     		cmp	r0, #0
 2691 0082 DDD1     		bne	.L768
 2692 0084 2768     		ldr	r7, [r4]
 2693 0086 D4F83880 		ldr	r8, [r4, #56]
 2694 008a FB6C     		ldr	r3, [r7, #76]
 2695 008c 9845     		cmp	r8, r3
 2696 008e 18D0     		beq	.L771
 2697 0090 FB78     		ldrb	r3, [r7, #3]	@ zero_extendqisi2
 2698 0092 002B     		cmp	r3, #0
 2699 0094 40F08C80 		bne	.L772
 2700              	.L775:
 2701 0098 7878     		ldrb	r0, [r7, #1]	@ zero_extendqisi2
 2702 009a 0123     		movs	r3, #1
 2703 009c 4246     		mov	r2, r8
 2704 009e 07F15001 		add	r1, r7, #80
 2705 00a2 FFF7FEFF 		bl	disk_read
 2706 00a6 50B1     		cbz	r0, .L810
 2707 00a8 4FF0FF33 		mov	r3, #-1
 2708 00ac FB64     		str	r3, [r7, #76]
 2709 00ae 0120     		movs	r0, #1
 2710 00b0 C6E7     		b	.L768
 2711              	.L764:
 2712 00b2 3046     		mov	r0, r6
 2713 00b4 FFF7FEFF 		bl	sync_window.part.0
 2714 00b8 0028     		cmp	r0, #0
 2715 00ba ADD0     		beq	.L767
 2716 00bc C0E7     		b	.L768
 2717              	.L810:
 2718 00be C7F84C80 		str	r8, [r7, #76]
 2719              	.L771:
 2720 00c2 E36B     		ldr	r3, [r4, #60]
 2721 00c4 1A78     		ldrb	r2, [r3]	@ zero_extendqisi2
 2722 00c6 C02A     		cmp	r2, #192
 2723 00c8 B9D1     		bne	.L770
 2724 00ca 1F68     		ldr	r7, [r3]	@ unaligned
 2725 00cc 5868     		ldr	r0, [r3, #4]	@ unaligned
 2726 00ce 9968     		ldr	r1, [r3, #8]	@ unaligned
 2727 00d0 D3F80CC0 		ldr	ip, [r3, #12]	@ unaligned
 2728 00d4 2F62     		str	r7, [r5, #32]	@ unaligned
 2729 00d6 95F82320 		ldrb	r2, [r5, #35]	@ zero_extendqisi2
 2730 00da A962     		str	r1, [r5, #40]	@ unaligned
 2731 00dc 4A49     		ldr	r1, .L814
 2732 00de 6862     		str	r0, [r5, #36]	@ unaligned
ARM GAS  /tmp/cc2a13AN.s 			page 49


 2733 00e0 2C32     		adds	r2, r2, #44
 2734 00e2 A1FB0212 		umull	r1, r2, r1, r2
 2735 00e6 C5F82CC0 		str	ip, [r5, #44]	@ unaligned
 2736 00ea D208     		lsrs	r2, r2, #3
 2737 00ec 1F69     		ldr	r7, [r3, #16]	@ unaligned
 2738 00ee 5869     		ldr	r0, [r3, #20]	@ unaligned
 2739 00f0 9969     		ldr	r1, [r3, #24]	@ unaligned
 2740 00f2 D3F81CC0 		ldr	ip, [r3, #28]	@ unaligned
 2741 00f6 C5F83CC0 		str	ip, [r5, #60]	@ unaligned
 2742 00fa B6EB421F 		cmp	r6, r2, lsl #5
 2743 00fe 2F63     		str	r7, [r5, #48]	@ unaligned
 2744 0100 6863     		str	r0, [r5, #52]	@ unaligned
 2745 0102 A963     		str	r1, [r5, #56]	@ unaligned
 2746 0104 9BD3     		bcc	.L770
 2747 0106 4027     		movs	r7, #64
 2748              	.L782:
 2749 0108 0021     		movs	r1, #0
 2750 010a 2046     		mov	r0, r4
 2751 010c FFF7FEFF 		bl	dir_next
 2752 0110 0428     		cmp	r0, #4
 2753 0112 94D0     		beq	.L770
 2754 0114 0028     		cmp	r0, #0
 2755 0116 93D1     		bne	.L768
 2756 0118 D4F80080 		ldr	r8, [r4]
 2757 011c D4F83890 		ldr	r9, [r4, #56]
 2758 0120 D8F84C30 		ldr	r3, [r8, #76]
 2759 0124 9945     		cmp	r9, r3
 2760 0126 13D0     		beq	.L776
 2761 0128 98F80330 		ldrb	r3, [r8, #3]	@ zero_extendqisi2
 2762 012c D3BB     		cbnz	r3, .L777
 2763              	.L780:
 2764 012e 98F80100 		ldrb	r0, [r8, #1]	@ zero_extendqisi2
 2765 0132 0123     		movs	r3, #1
 2766 0134 4A46     		mov	r2, r9
 2767 0136 08F15001 		add	r1, r8, #80
 2768 013a FFF7FEFF 		bl	disk_read
 2769 013e 28B1     		cbz	r0, .L811
 2770 0140 4FF0FF33 		mov	r3, #-1
 2771 0144 C8F84C30 		str	r3, [r8, #76]
 2772 0148 0120     		movs	r0, #1
 2773 014a 79E7     		b	.L768
 2774              	.L811:
 2775 014c C8F84C90 		str	r9, [r8, #76]
 2776              	.L776:
 2777 0150 E36B     		ldr	r3, [r4, #60]
 2778 0152 1A78     		ldrb	r2, [r3]	@ zero_extendqisi2
 2779 0154 C12A     		cmp	r2, #193
 2780 0156 7FF472AF 		bne	.L770
 2781 015a B7F5187F 		cmp	r7, #608
 2782 015e 07D3     		bcc	.L812
 2783              	.L781:
 2784 0160 2037     		adds	r7, r7, #32
 2785 0162 BE42     		cmp	r6, r7
 2786 0164 D0D8     		bhi	.L782
 2787 0166 B7F5187F 		cmp	r7, #608
 2788 016a 28D9     		bls	.L813
 2789              	.L788:
ARM GAS  /tmp/cc2a13AN.s 			page 50


 2790 016c 0020     		movs	r0, #0
 2791 016e 67E7     		b	.L768
 2792              	.L812:
 2793 0170 D3F800C0 		ldr	ip, [r3]	@ unaligned
 2794 0174 5868     		ldr	r0, [r3, #4]	@ unaligned
 2795 0176 9968     		ldr	r1, [r3, #8]	@ unaligned
 2796 0178 D3F80CE0 		ldr	lr, [r3, #12]	@ unaligned
 2797 017c 45F807C0 		str	ip, [r5, r7]	@ unaligned
 2798 0180 EA19     		adds	r2, r5, r7
 2799 0182 5060     		str	r0, [r2, #4]	@ unaligned
 2800 0184 9160     		str	r1, [r2, #8]	@ unaligned
 2801 0186 C2F80CE0 		str	lr, [r2, #12]	@ unaligned
 2802 018a D3F810C0 		ldr	ip, [r3, #16]	@ unaligned
 2803 018e 5869     		ldr	r0, [r3, #20]	@ unaligned
 2804 0190 9969     		ldr	r1, [r3, #24]	@ unaligned
 2805 0192 D3F81CE0 		ldr	lr, [r3, #28]	@ unaligned
 2806 0196 C2F81CE0 		str	lr, [r2, #28]	@ unaligned
 2807 019a C2F810C0 		str	ip, [r2, #16]	@ unaligned
 2808 019e 5061     		str	r0, [r2, #20]	@ unaligned
 2809 01a0 9161     		str	r1, [r2, #24]	@ unaligned
 2810 01a2 DDE7     		b	.L781
 2811              	.L777:
 2812 01a4 4046     		mov	r0, r8
 2813 01a6 FFF7FEFF 		bl	sync_window.part.0
 2814 01aa 0028     		cmp	r0, #0
 2815 01ac BFD0     		beq	.L780
 2816 01ae 47E7     		b	.L768
 2817              	.L772:
 2818 01b0 3846     		mov	r0, r7
 2819 01b2 FFF7FEFF 		bl	sync_window.part.0
 2820 01b6 0028     		cmp	r0, #0
 2821 01b8 3FF46EAF 		beq	.L775
 2822 01bc 40E7     		b	.L768
 2823              	.L813:
 2824 01be 6978     		ldrb	r1, [r5, #1]	@ zero_extendqisi2
 2825 01c0 0023     		movs	r3, #0
 2826 01c2 0131     		adds	r1, r1, #1
 2827 01c4 4901     		lsls	r1, r1, #5
 2828 01c6 1A46     		mov	r2, r3
 2829              	.L786:
 2830 01c8 022A     		cmp	r2, #2
 2831 01ca 0ED1     		bne	.L783
 2832 01cc 2A79     		ldrb	r2, [r5, #4]	@ zero_extendqisi2
 2833 01ce 02EBC332 		add	r2, r2, r3, lsl #15
 2834 01d2 92B2     		uxth	r2, r2
 2835 01d4 02EB5302 		add	r2, r2, r3, lsr #1
 2836 01d8 6B79     		ldrb	r3, [r5, #5]	@ zero_extendqisi2
 2837 01da C2F34E00 		ubfx	r0, r2, #1, #15
 2838 01de 03EBC233 		add	r3, r3, r2, lsl #15
 2839 01e2 10FA83F3 		uxtah	r3, r0, r3
 2840 01e6 9BB2     		uxth	r3, r3
 2841 01e8 0622     		movs	r2, #6
 2842              	.L783:
 2843 01ea A85C     		ldrb	r0, [r5, r2]	@ zero_extendqisi2
 2844 01ec 00EBC330 		add	r0, r0, r3, lsl #15
 2845 01f0 0132     		adds	r2, r2, #1
 2846 01f2 80B2     		uxth	r0, r0
ARM GAS  /tmp/cc2a13AN.s 			page 51


 2847 01f4 00EB5303 		add	r3, r0, r3, lsr #1
 2848 01f8 9142     		cmp	r1, r2
 2849 01fa 9BB2     		uxth	r3, r3
 2850 01fc E4D8     		bhi	.L786
 2851 01fe 6A88     		ldrh	r2, [r5, #2]	@ unaligned
 2852 0200 9A42     		cmp	r2, r3
 2853 0202 B3D0     		beq	.L788
 2854 0204 1BE7     		b	.L770
 2855              	.L815:
 2856 0206 00BF     		.align	2
 2857              	.L814:
 2858 0208 89888888 		.word	-2004318071
 2859              		.size	load_xdir, .-load_xdir
 2860              		.section	.text.dir_read,"ax",%progbits
 2861              		.align	1
 2862              		.p2align 4,,15
 2863              		.syntax unified
 2864              		.thumb
 2865              		.thumb_func
 2866              		.fpu fpv4-sp-d16
 2867              		.type	dir_read, %function
 2868              	dir_read:
 2869              		@ args = 0, pretend = 0, frame = 0
 2870              		@ frame_needed = 0, uses_anonymous_args = 0
 2871 0000 2DE9F84F 		push	{r3, r4, r5, r6, r7, r8, r9, r10, fp, lr}
 2872 0004 0546     		mov	r5, r0
 2873 0006 0468     		ldr	r4, [r0]
 2874 0008 D5F838A0 		ldr	r10, [r5, #56]
 2875 000c 4FF0FF09 		mov	r9, #255
 2876 0010 0E46     		mov	r6, r1
 2877 0012 4F46     		mov	r7, r9
 2878 0014 0420     		movs	r0, #4
 2879 0016 04F15008 		add	r8, r4, #80
 2880 001a BAF1000F 		cmp	r10, #0
 2881 001e 3AD0     		beq	.L867
 2882              	.L839:
 2883 0020 E36C     		ldr	r3, [r4, #76]
 2884 0022 9A45     		cmp	r10, r3
 2885 0024 13D0     		beq	.L818
 2886 0026 E378     		ldrb	r3, [r4, #3]	@ zero_extendqisi2
 2887 0028 002B     		cmp	r3, #0
 2888 002a 3DD1     		bne	.L819
 2889              	.L822:
 2890 002c 6078     		ldrb	r0, [r4, #1]	@ zero_extendqisi2
 2891 002e 0123     		movs	r3, #1
 2892 0030 5246     		mov	r2, r10
 2893 0032 4146     		mov	r1, r8
 2894 0034 FFF7FEFF 		bl	disk_read
 2895 0038 38B1     		cbz	r0, .L868
 2896 003a 4FF0FF33 		mov	r3, #-1
 2897 003e E364     		str	r3, [r4, #76]
 2898 0040 0120     		movs	r0, #1
 2899              	.L823:
 2900 0042 0023     		movs	r3, #0
 2901 0044 AB63     		str	r3, [r5, #56]
 2902              	.L827:
 2903 0046 BDE8F88F 		pop	{r3, r4, r5, r6, r7, r8, r9, r10, fp, pc}
ARM GAS  /tmp/cc2a13AN.s 			page 52


 2904              	.L868:
 2905 004a C4F84CA0 		str	r10, [r4, #76]
 2906              	.L818:
 2907 004e E96B     		ldr	r1, [r5, #60]
 2908 0050 0B78     		ldrb	r3, [r1]	@ zero_extendqisi2
 2909 0052 002B     		cmp	r3, #0
 2910 0054 73D0     		beq	.L840
 2911 0056 2278     		ldrb	r2, [r4]	@ zero_extendqisi2
 2912 0058 042A     		cmp	r2, #4
 2913 005a 21D0     		beq	.L869
 2914 005c CA7A     		ldrb	r2, [r1, #11]	@ zero_extendqisi2
 2915 005e E52B     		cmp	r3, #229
 2916 0060 02F03F02 		and	r2, r2, #63
 2917 0064 AA71     		strb	r2, [r5, #6]
 2918 0066 0AD0     		beq	.L849
 2919 0068 2E2B     		cmp	r3, #46
 2920 006a 08D0     		beq	.L849
 2921 006c 22F02000 		bic	r0, r2, #32
 2922 0070 A0F10800 		sub	r0, #8
 2923 0074 B0FA80F0 		clz	r0, r0
 2924 0078 4009     		lsrs	r0, r0, #5
 2925 007a B042     		cmp	r0, r6
 2926 007c 29D0     		beq	.L870
 2927              	.L849:
 2928 007e FF27     		movs	r7, #255
 2929              	.L826:
 2930 0080 0021     		movs	r1, #0
 2931 0082 2846     		mov	r0, r5
 2932 0084 FFF7FEFF 		bl	dir_next
 2933 0088 0028     		cmp	r0, #0
 2934 008a DAD1     		bne	.L823
 2935 008c D5F838A0 		ldr	r10, [r5, #56]
 2936 0090 BAF1000F 		cmp	r10, #0
 2937 0094 C4D1     		bne	.L839
 2938              	.L867:
 2939 0096 0028     		cmp	r0, #0
 2940 0098 D3D1     		bne	.L823
 2941              	.L866:
 2942 009a 0020     		movs	r0, #0
 2943 009c BDE8F88F 		pop	{r3, r4, r5, r6, r7, r8, r9, r10, fp, pc}
 2944              	.L869:
 2945 00a0 46B1     		cbz	r6, .L825
 2946 00a2 832B     		cmp	r3, #131
 2947 00a4 ECD1     		bne	.L826
 2948 00a6 F8E7     		b	.L866
 2949              	.L819:
 2950 00a8 2046     		mov	r0, r4
 2951 00aa FFF7FEFF 		bl	sync_window.part.0
 2952 00ae 0028     		cmp	r0, #0
 2953 00b0 BCD0     		beq	.L822
 2954 00b2 C6E7     		b	.L823
 2955              	.L825:
 2956 00b4 852B     		cmp	r3, #133
 2957 00b6 E3D1     		bne	.L826
 2958 00b8 2B6B     		ldr	r3, [r5, #48]
 2959 00ba EB64     		str	r3, [r5, #76]
 2960 00bc 2846     		mov	r0, r5
ARM GAS  /tmp/cc2a13AN.s 			page 53


 2961 00be FFF7FEFF 		bl	load_xdir
 2962 00c2 0028     		cmp	r0, #0
 2963 00c4 BDD1     		bne	.L823
 2964 00c6 2369     		ldr	r3, [r4, #16]
 2965 00c8 1B79     		ldrb	r3, [r3, #4]	@ zero_extendqisi2
 2966 00ca 03F03F03 		and	r3, r3, #63
 2967 00ce AB71     		strb	r3, [r5, #6]
 2968 00d0 B9E7     		b	.L827
 2969              	.L870:
 2970 00d2 0F2A     		cmp	r2, #15
 2971 00d4 43D1     		bne	.L828
 2972 00d6 5806     		lsls	r0, r3, #25
 2973 00d8 2ED5     		bpl	.L829
 2974 00da 2A6B     		ldr	r2, [r5, #48]
 2975 00dc 91F80D90 		ldrb	r9, [r1, #13]	@ zero_extendqisi2
 2976 00e0 EA64     		str	r2, [r5, #76]
 2977 00e2 03F0BF03 		and	r3, r3, #191
 2978              	.L830:
 2979 00e6 4A7B     		ldrb	r2, [r1, #13]	@ zero_extendqisi2
 2980 00e8 4A45     		cmp	r2, r9
 2981 00ea C8D1     		bne	.L849
 2982 00ec 4A8B     		ldrh	r2, [r1, #26]	@ unaligned
 2983 00ee 002A     		cmp	r2, #0
 2984 00f0 C5D1     		bne	.L849
 2985 00f2 0A78     		ldrb	r2, [r1]	@ zero_extendqisi2
 2986 00f4 2348     		ldr	r0, .L872
 2987 00f6 D4F80CA0 		ldr	r10, [r4, #12]
 2988 00fa 22F04002 		bic	r2, r2, #64
 2989 00fe 013A     		subs	r2, r2, #1
 2990 0100 02EB4207 		add	r7, r2, r2, lsl #1
 2991 0104 02EB8702 		add	r2, r2, r7, lsl #2
 2992 0108 0127     		movs	r7, #1
 2993 010a 00F10C0E 		add	lr, r0, #12
 2994 010e BC46     		mov	ip, r7
 2995 0110 4FF6FF7B 		movw	fp, #65535
 2996 0114 09E0     		b	.L834
 2997              	.L871:
 2998 0116 FF2A     		cmp	r2, #255
 2999 0118 B1D8     		bhi	.L849
 3000 011a 2AF81270 		strh	r7, [r10, r2, lsl #1]	@ movhi
 3001 011e BC46     		mov	ip, r7
 3002 0120 0132     		adds	r2, r2, #1
 3003              	.L832:
 3004 0122 8645     		cmp	lr, r0
 3005 0124 0DD0     		beq	.L833
 3006 0126 10F8017F 		ldrb	r7, [r0, #1]!	@ zero_extendqisi2
 3007              	.L834:
 3008 012a CF5B     		ldrh	r7, [r1, r7]	@ unaligned
 3009 012c BCF1000F 		cmp	ip, #0
 3010 0130 F1D1     		bne	.L871
 3011 0132 5F45     		cmp	r7, fp
 3012 0134 F5D0     		beq	.L832
 3013 0136 A2E7     		b	.L849
 3014              	.L829:
 3015 0138 9F42     		cmp	r7, r3
 3016 013a A0D1     		bne	.L849
 3017 013c D3E7     		b	.L830
ARM GAS  /tmp/cc2a13AN.s 			page 54


 3018              	.L840:
 3019 013e 0420     		movs	r0, #4
 3020 0140 7FE7     		b	.L823
 3021              	.L833:
 3022 0142 0978     		ldrb	r1, [r1]	@ zero_extendqisi2
 3023 0144 4906     		lsls	r1, r1, #25
 3024 0146 07D5     		bpl	.L835
 3025 0148 BCF1000F 		cmp	ip, #0
 3026 014c 04D0     		beq	.L835
 3027 014e FF2A     		cmp	r2, #255
 3028 0150 95D8     		bhi	.L849
 3029 0152 0021     		movs	r1, #0
 3030 0154 2AF81210 		strh	r1, [r10, r2, lsl #1]	@ movhi
 3031              	.L835:
 3032 0158 013B     		subs	r3, r3, #1
 3033 015a DFB2     		uxtb	r7, r3
 3034 015c 90E7     		b	.L826
 3035              	.L828:
 3036 015e 6FB9     		cbnz	r7, .L836
 3037 0160 01F10B02 		add	r2, r1, #11
 3038              	.L837:
 3039 0164 FB01     		lsls	r3, r7, #7
 3040 0166 43EA5707 		orr	r7, r3, r7, lsr #1
 3041 016a 11F8013B 		ldrb	r3, [r1], #1	@ zero_extendqisi2
 3042 016e 53FA87F7 		uxtab	r7, r3, r7
 3043 0172 9142     		cmp	r1, r2
 3044 0174 FFB2     		uxtb	r7, r7
 3045 0176 F5D1     		bne	.L837
 3046 0178 B945     		cmp	r9, r7
 3047 017a 8ED0     		beq	.L866
 3048              	.L836:
 3049 017c 4FF0FF33 		mov	r3, #-1
 3050 0180 EB64     		str	r3, [r5, #76]
 3051 0182 8AE7     		b	.L866
 3052              	.L873:
 3053              		.align	2
 3054              	.L872:
 3055 0184 00000000 		.word	.LANCHOR3
 3056              		.size	dir_read, .-dir_read
 3057              		.section	.text.store_xdir,"ax",%progbits
 3058              		.align	1
 3059              		.p2align 4,,15
 3060              		.syntax unified
 3061              		.thumb
 3062              		.thumb_func
 3063              		.fpu fpv4-sp-d16
 3064              		.type	store_xdir, %function
 3065              	store_xdir:
 3066              		@ args = 0, pretend = 0, frame = 0
 3067              		@ frame_needed = 0, uses_anonymous_args = 0
 3068 0000 2DE9F047 		push	{r4, r5, r6, r7, r8, r9, r10, lr}
 3069 0004 0368     		ldr	r3, [r0]
 3070 0006 1C69     		ldr	r4, [r3, #16]
 3071 0008 6778     		ldrb	r7, [r4, #1]	@ zero_extendqisi2
 3072 000a 0021     		movs	r1, #0
 3073 000c 0137     		adds	r7, r7, #1
 3074 000e 0546     		mov	r5, r0
ARM GAS  /tmp/cc2a13AN.s 			page 55


 3075 0010 0A46     		mov	r2, r1
 3076 0012 7801     		lsls	r0, r7, #5
 3077              	.L878:
 3078 0014 022A     		cmp	r2, #2
 3079 0016 0ED1     		bne	.L875
 3080 0018 2379     		ldrb	r3, [r4, #4]	@ zero_extendqisi2
 3081 001a 6279     		ldrb	r2, [r4, #5]	@ zero_extendqisi2
 3082 001c 03EBC133 		add	r3, r3, r1, lsl #15
 3083 0020 9BB2     		uxth	r3, r3
 3084 0022 03EB5103 		add	r3, r3, r1, lsr #1
 3085 0026 C3F34E01 		ubfx	r1, r3, #1, #15
 3086 002a 02EBC333 		add	r3, r2, r3, lsl #15
 3087 002e 11FA83F3 		uxtah	r3, r1, r3
 3088 0032 99B2     		uxth	r1, r3
 3089 0034 0622     		movs	r2, #6
 3090              	.L875:
 3091 0036 A35C     		ldrb	r3, [r4, r2]	@ zero_extendqisi2
 3092 0038 03EBC133 		add	r3, r3, r1, lsl #15
 3093 003c 0132     		adds	r2, r2, #1
 3094 003e 9BB2     		uxth	r3, r3
 3095 0040 03EB5103 		add	r3, r3, r1, lsr #1
 3096 0044 9042     		cmp	r0, r2
 3097 0046 99B2     		uxth	r1, r3
 3098 0048 E4D8     		bhi	.L878
 3099 004a 0B0A     		lsrs	r3, r1, #8
 3100 004c A170     		strb	r1, [r4, #2]
 3101 004e E370     		strb	r3, [r4, #3]
 3102 0050 E96C     		ldr	r1, [r5, #76]
 3103 0052 2846     		mov	r0, r5
 3104 0054 FFF7FEFF 		bl	dir_sdi
 3105 0058 8146     		mov	r9, r0
 3106 005a 0028     		cmp	r0, #0
 3107 005c 4CD1     		bne	.L879
 3108 005e 4FF00108 		mov	r8, #1
 3109              	.L884:
 3110 0062 2E68     		ldr	r6, [r5]
 3111 0064 D5F838A0 		ldr	r10, [r5, #56]
 3112 0068 F36C     		ldr	r3, [r6, #76]
 3113 006a 9A45     		cmp	r10, r3
 3114 006c 13D0     		beq	.L880
 3115 006e F378     		ldrb	r3, [r6, #3]	@ zero_extendqisi2
 3116 0070 BBBB     		cbnz	r3, .L898
 3117              	.L881:
 3118 0072 7078     		ldrb	r0, [r6, #1]	@ zero_extendqisi2
 3119 0074 0123     		movs	r3, #1
 3120 0076 5246     		mov	r2, r10
 3121 0078 06F15001 		add	r1, r6, #80
 3122 007c FFF7FEFF 		bl	disk_read
 3123 0080 38B1     		cbz	r0, .L883
 3124 0082 4FF0FF33 		mov	r3, #-1
 3125 0086 F364     		str	r3, [r6, #76]
 3126 0088 4FF00109 		mov	r9, #1
 3127              	.L882:
 3128 008c 4846     		mov	r0, r9
 3129 008e BDE8F087 		pop	{r4, r5, r6, r7, r8, r9, r10, pc}
 3130              	.L883:
 3131 0092 C6F84CA0 		str	r10, [r6, #76]
ARM GAS  /tmp/cc2a13AN.s 			page 56


 3132              	.L880:
 3133 0096 EB6B     		ldr	r3, [r5, #60]
 3134 0098 2068     		ldr	r0, [r4]	@ unaligned
 3135 009a 6168     		ldr	r1, [r4, #4]	@ unaligned
 3136 009c A268     		ldr	r2, [r4, #8]	@ unaligned
 3137 009e E668     		ldr	r6, [r4, #12]	@ unaligned
 3138 00a0 DE60     		str	r6, [r3, #12]	@ unaligned
 3139 00a2 1860     		str	r0, [r3]	@ unaligned
 3140 00a4 5960     		str	r1, [r3, #4]	@ unaligned
 3141 00a6 9A60     		str	r2, [r3, #8]	@ unaligned
 3142 00a8 2069     		ldr	r0, [r4, #16]	@ unaligned
 3143 00aa 6169     		ldr	r1, [r4, #20]	@ unaligned
 3144 00ac A269     		ldr	r2, [r4, #24]	@ unaligned
 3145 00ae E669     		ldr	r6, [r4, #28]	@ unaligned
 3146 00b0 DE61     		str	r6, [r3, #28]	@ unaligned
 3147 00b2 1861     		str	r0, [r3, #16]	@ unaligned
 3148 00b4 5961     		str	r1, [r3, #20]	@ unaligned
 3149 00b6 9A61     		str	r2, [r3, #24]	@ unaligned
 3150 00b8 2B68     		ldr	r3, [r5]
 3151 00ba 013F     		subs	r7, r7, #1
 3152 00bc 4FF00001 		mov	r1, #0
 3153 00c0 2846     		mov	r0, r5
 3154 00c2 83F80380 		strb	r8, [r3, #3]
 3155 00c6 E1D0     		beq	.L882
 3156 00c8 FFF7FEFF 		bl	dir_next
 3157 00cc 2034     		adds	r4, r4, #32
 3158 00ce 0028     		cmp	r0, #0
 3159 00d0 C7D0     		beq	.L884
 3160 00d2 0228     		cmp	r0, #2
 3161 00d4 28BF     		it	cs
 3162 00d6 0220     		movcs	r0, #2
 3163 00d8 5FFA80F9 		uxtb	r9, r0
 3164              	.L899:
 3165 00dc 4846     		mov	r0, r9
 3166 00de BDE8F087 		pop	{r4, r5, r6, r7, r8, r9, r10, pc}
 3167              	.L898:
 3168 00e2 3046     		mov	r0, r6
 3169 00e4 FFF7FEFF 		bl	sync_window.part.0
 3170 00e8 0028     		cmp	r0, #0
 3171 00ea C2D0     		beq	.L881
 3172 00ec 0228     		cmp	r0, #2
 3173 00ee 28BF     		it	cs
 3174 00f0 0220     		movcs	r0, #2
 3175 00f2 5FFA80F9 		uxtb	r9, r0
 3176 00f6 F1E7     		b	.L899
 3177              	.L879:
 3178 00f8 0228     		cmp	r0, #2
 3179 00fa 28BF     		it	cs
 3180 00fc 4FF00209 		movcs	r9, #2
 3181 0100 5FFA89F9 		uxtb	r9, r9
 3182 0104 C2E7     		b	.L882
 3183              		.size	store_xdir, .-store_xdir
 3184 0106 00BF     		.section	.text.dir_find,"ax",%progbits
 3185              		.align	1
 3186              		.p2align 4,,15
 3187              		.syntax unified
 3188              		.thumb
ARM GAS  /tmp/cc2a13AN.s 			page 57


 3189              		.thumb_func
 3190              		.fpu fpv4-sp-d16
 3191              		.type	dir_find, %function
 3192              	dir_find:
 3193              		@ args = 0, pretend = 0, frame = 16
 3194              		@ frame_needed = 0, uses_anonymous_args = 0
 3195 0000 2DE9F04F 		push	{r4, r5, r6, r7, r8, r9, r10, fp, lr}
 3196 0004 2DED028B 		vpush.64	{d8}
 3197 0008 0021     		movs	r1, #0
 3198 000a 85B0     		sub	sp, sp, #20
 3199 000c 0668     		ldr	r6, [r0]
 3200 000e 0546     		mov	r5, r0
 3201 0010 FFF7FEFF 		bl	dir_sdi
 3202 0014 E8B9     		cbnz	r0, .L972
 3203 0016 3378     		ldrb	r3, [r6]	@ zero_extendqisi2
 3204 0018 042B     		cmp	r3, #4
 3205 001a 00F0C480 		beq	.L975
 3206 001e 4FF0FF33 		mov	r3, #-1
 3207 0022 4FF0FF09 		mov	r9, #255
 3208 0026 EB64     		str	r3, [r5, #76]
 3209 0028 CA46     		mov	r10, r9
 3210 002a 06F15008 		add	r8, r6, #80
 3211              	.L934:
 3212 002e AC6B     		ldr	r4, [r5, #56]
 3213 0030 F36C     		ldr	r3, [r6, #76]
 3214 0032 9C42     		cmp	r4, r3
 3215 0034 13D0     		beq	.L913
 3216 0036 F378     		ldrb	r3, [r6, #3]	@ zero_extendqisi2
 3217 0038 002B     		cmp	r3, #0
 3218 003a 42D1     		bne	.L914
 3219              	.L917:
 3220 003c 7078     		ldrb	r0, [r6, #1]	@ zero_extendqisi2
 3221 003e 0123     		movs	r3, #1
 3222 0040 2246     		mov	r2, r4
 3223 0042 4146     		mov	r1, r8
 3224 0044 FFF7FEFF 		bl	disk_read
 3225 0048 40B1     		cbz	r0, .L976
 3226 004a 4FF0FF33 		mov	r3, #-1
 3227 004e F364     		str	r3, [r6, #76]
 3228 0050 0120     		movs	r0, #1
 3229              	.L972:
 3230 0052 05B0     		add	sp, sp, #20
 3231              		@ sp needed
 3232 0054 BDEC028B 		vldm	sp!, {d8}
 3233 0058 BDE8F08F 		pop	{r4, r5, r6, r7, r8, r9, r10, fp, pc}
 3234              	.L976:
 3235 005c F464     		str	r4, [r6, #76]
 3236              	.L913:
 3237 005e EC6B     		ldr	r4, [r5, #60]
 3238 0060 2778     		ldrb	r7, [r4]	@ zero_extendqisi2
 3239 0062 002F     		cmp	r7, #0
 3240 0064 00F09D80 		beq	.L938
 3241 0068 E27A     		ldrb	r2, [r4, #11]	@ zero_extendqisi2
 3242 006a E52F     		cmp	r7, #229
 3243 006c 02F03F03 		and	r3, r2, #63
 3244 0070 AB71     		strb	r3, [r5, #6]
 3245 0072 03D0     		beq	.L932
ARM GAS  /tmp/cc2a13AN.s 			page 58


 3246 0074 1207     		lsls	r2, r2, #28
 3247 0076 11D5     		bpl	.L919
 3248 0078 0F2B     		cmp	r3, #15
 3249 007a 2CD0     		beq	.L920
 3250              	.L932:
 3251 007c 4FF0FF33 		mov	r3, #-1
 3252 0080 EB64     		str	r3, [r5, #76]
 3253 0082 4FF0FF0A 		mov	r10, #255
 3254              	.L921:
 3255 0086 0021     		movs	r1, #0
 3256 0088 2846     		mov	r0, r5
 3257 008a FFF7FEFF 		bl	dir_next
 3258 008e 0028     		cmp	r0, #0
 3259 0090 CDD0     		beq	.L934
 3260 0092 05B0     		add	sp, sp, #20
 3261              		@ sp needed
 3262 0094 BDEC028B 		vldm	sp!, {d8}
 3263 0098 BDE8F08F 		pop	{r4, r5, r6, r7, r8, r9, r10, fp, pc}
 3264              	.L919:
 3265 009c 0F2B     		cmp	r3, #15
 3266 009e 1AD0     		beq	.L920
 3267 00a0 BAF1000F 		cmp	r10, #0
 3268 00a4 66D0     		beq	.L977
 3269              	.L930:
 3270 00a6 95F84B30 		ldrb	r3, [r5, #75]	@ zero_extendqisi2
 3271 00aa DB07     		lsls	r3, r3, #31
 3272 00ac E6D4     		bmi	.L932
 3273 00ae 0B22     		movs	r2, #11
 3274 00b0 05F14001 		add	r1, r5, #64
 3275 00b4 2046     		mov	r0, r4
 3276 00b6 FFF7FEFF 		bl	memcmp
 3277 00ba 0028     		cmp	r0, #0
 3278 00bc DED1     		bne	.L932
 3279              	.L933:
 3280 00be 0020     		movs	r0, #0
 3281 00c0 C7E7     		b	.L972
 3282              	.L914:
 3283 00c2 3046     		mov	r0, r6
 3284 00c4 FFF7FEFF 		bl	sync_window.part.0
 3285 00c8 0028     		cmp	r0, #0
 3286 00ca B7D0     		beq	.L917
 3287 00cc 05B0     		add	sp, sp, #20
 3288              		@ sp needed
 3289 00ce BDEC028B 		vldm	sp!, {d8}
 3290 00d2 BDE8F08F 		pop	{r4, r5, r6, r7, r8, r9, r10, fp, pc}
 3291              	.L920:
 3292 00d6 95F84B30 		ldrb	r3, [r5, #75]	@ zero_extendqisi2
 3293 00da 5806     		lsls	r0, r3, #25
 3294 00dc D3D4     		bmi	.L921
 3295 00de 7906     		lsls	r1, r7, #25
 3296 00e0 5AD5     		bpl	.L923
 3297 00e2 2B6B     		ldr	r3, [r5, #48]
 3298 00e4 94F80D90 		ldrb	r9, [r4, #13]	@ zero_extendqisi2
 3299 00e8 EB64     		str	r3, [r5, #76]
 3300 00ea 07F0BF07 		and	r7, r7, #191
 3301              	.L924:
 3302 00ee 637B     		ldrb	r3, [r4, #13]	@ zero_extendqisi2
ARM GAS  /tmp/cc2a13AN.s 			page 59


 3303 00f0 4B45     		cmp	r3, r9
 3304 00f2 53D1     		bne	.L945
 3305 00f4 638B     		ldrh	r3, [r4, #26]	@ unaligned
 3306 00f6 002B     		cmp	r3, #0
 3307 00f8 50D1     		bne	.L945
 3308 00fa 94F800A0 		ldrb	r10, [r4]	@ zero_extendqisi2
 3309 00fe F268     		ldr	r2, [r6, #12]
 3310 0100 DFF86CB1 		ldr	fp, .L981+4
 3311 0104 0297     		str	r7, [sp, #8]
 3312 0106 0AF03F0A 		and	r10, r10, #63
 3313 010a 0AF1FF3A 		add	r10, r10, #-1
 3314 010e 0AEB4A03 		add	r3, r10, r10, lsl #1
 3315 0112 0AEB830A 		add	r10, r10, r3, lsl #2
 3316 0116 0123     		movs	r3, #1
 3317 0118 0195     		str	r5, [sp, #4]
 3318 011a 08EE108A 		vmov	s16, r8	@ int
 3319 011e 0392     		str	r2, [sp, #12]
 3320 0120 0BF10C01 		add	r1, fp, #12
 3321 0124 1846     		mov	r0, r3
 3322 0126 1746     		mov	r7, r2
 3323 0128 2546     		mov	r5, r4
 3324 012a 14E0     		b	.L928
 3325              	.L978:
 3326 012c BAF1FF0F 		cmp	r10, #255
 3327 0130 2046     		mov	r0, r4
 3328 0132 19D8     		bhi	.L944
 3329 0134 FFF7FEFF 		bl	ff_wtoupper
 3330 0138 0346     		mov	r3, r0
 3331 013a 37F81A00 		ldrh	r0, [r7, r10, lsl #1]
 3332 013e 9A46     		mov	r10, r3
 3333 0140 FFF7FEFF 		bl	ff_wtoupper
 3334 0144 8245     		cmp	r10, r0
 3335 0146 0FD1     		bne	.L944
 3336 0148 4849     		ldr	r1, .L981
 3337 014a 2046     		mov	r0, r4
 3338 014c C246     		mov	r10, r8
 3339              	.L926:
 3340 014e 8B45     		cmp	fp, r1
 3341 0150 76D0     		beq	.L927
 3342 0152 1BF8013F 		ldrb	r3, [fp, #1]!	@ zero_extendqisi2
 3343              	.L928:
 3344 0156 EC5A     		ldrh	r4, [r5, r3]	@ unaligned
 3345 0158 0AF10108 		add	r8, r10, #1
 3346 015c 0028     		cmp	r0, #0
 3347 015e E5D1     		bne	.L978
 3348 0160 4FF6FF73 		movw	r3, #65535
 3349 0164 9C42     		cmp	r4, r3
 3350 0166 F2D0     		beq	.L926
 3351              	.L944:
 3352 0168 019D     		ldr	r5, [sp, #4]
 3353 016a 18EE108A 		vmov	r8, s16	@ int
 3354 016e 4FF0FF0A 		mov	r10, #255
 3355 0172 88E7     		b	.L921
 3356              	.L977:
 3357 0174 04F10B00 		add	r0, r4, #11
 3358 0178 2246     		mov	r2, r4
 3359              	.L931:
ARM GAS  /tmp/cc2a13AN.s 			page 60


 3360 017a 12F8011B 		ldrb	r1, [r2], #1	@ zero_extendqisi2
 3361 017e 4FEACA13 		lsl	r3, r10, #7
 3362 0182 43EA5A0A 		orr	r10, r3, r10, lsr #1
 3363 0186 51FA8AFA 		uxtab	r10, r1, r10
 3364 018a 8242     		cmp	r2, r0
 3365 018c 5FFA8AFA 		uxtb	r10, r10
 3366 0190 F3D1     		bne	.L931
 3367 0192 D145     		cmp	r9, r10
 3368 0194 87D1     		bne	.L930
 3369 0196 92E7     		b	.L933
 3370              	.L923:
 3371 0198 BA45     		cmp	r10, r7
 3372 019a A8D0     		beq	.L924
 3373              	.L945:
 3374 019c 4FF0FF0A 		mov	r10, #255
 3375 01a0 71E7     		b	.L921
 3376              	.L938:
 3377 01a2 0420     		movs	r0, #4
 3378 01a4 55E7     		b	.L972
 3379              	.L975:
 3380 01a6 F468     		ldr	r4, [r6, #12]
 3381 01a8 34F8023B 		ldrh	r3, [r4], #2
 3382 01ac 002B     		cmp	r3, #0
 3383 01ae 5BD0     		beq	.L936
 3384 01b0 0746     		mov	r7, r0
 3385 01b2 1846     		mov	r0, r3
 3386              	.L904:
 3387 01b4 FFF7FEFF 		bl	ff_wtoupper
 3388 01b8 C3B2     		uxtb	r3, r0
 3389 01ba 03EB5703 		add	r3, r3, r7, lsr #1
 3390 01be 03EBC732 		add	r2, r3, r7, lsl #15
 3391 01c2 93B2     		uxth	r3, r2
 3392 01c4 C0F30722 		ubfx	r2, r0, #8, #8
 3393 01c8 02EB5302 		add	r2, r2, r3, lsr #1
 3394 01cc 34F8020B 		ldrh	r0, [r4], #2
 3395 01d0 02EBC332 		add	r2, r2, r3, lsl #15
 3396 01d4 97B2     		uxth	r7, r2
 3397 01d6 0028     		cmp	r0, #0
 3398 01d8 ECD1     		bne	.L904
 3399              	.L906:
 3400 01da 0021     		movs	r1, #0
 3401 01dc 2846     		mov	r0, r5
 3402 01de FFF7FEFF 		bl	dir_read
 3403 01e2 0028     		cmp	r0, #0
 3404 01e4 7FF435AF 		bne	.L972
 3405 01e8 3369     		ldr	r3, [r6, #16]
 3406 01ea 9A8C     		ldrh	r2, [r3, #36]	@ unaligned
 3407 01ec BA42     		cmp	r2, r7
 3408 01ee F4D1     		bne	.L906
 3409 01f0 93F823A0 		ldrb	r10, [r3, #35]	@ zero_extendqisi2
 3410 01f4 BAF1000F 		cmp	r10, #0
 3411 01f8 34D0     		beq	.L937
 3412 01fa 0446     		mov	r4, r0
 3413 01fc 4FF04008 		mov	r8, #64
 3414 0200 02E0     		b	.L911
 3415              	.L980:
 3416 0202 5445     		cmp	r4, r10
ARM GAS  /tmp/cc2a13AN.s 			page 61


 3417 0204 16D0     		beq	.L979
 3418 0206 3369     		ldr	r3, [r6, #16]
 3419              	.L911:
 3420 0208 18F01F0F 		tst	r8, #31
 3421 020c 08BF     		it	eq
 3422 020e 08F10208 		addeq	r8, r8, #2
 3423 0212 33F80800 		ldrh	r0, [r3, r8]	@ unaligned
 3424 0216 FFF7FEFF 		bl	ff_wtoupper
 3425 021a F368     		ldr	r3, [r6, #12]
 3426 021c 8146     		mov	r9, r0
 3427 021e 33F81400 		ldrh	r0, [r3, r4, lsl #1]
 3428 0222 FFF7FEFF 		bl	ff_wtoupper
 3429 0226 8145     		cmp	r9, r0
 3430 0228 04F10104 		add	r4, r4, #1
 3431 022c 08F10208 		add	r8, r8, #2
 3432 0230 E7D0     		beq	.L980
 3433 0232 D2E7     		b	.L906
 3434              	.L979:
 3435 0234 6400     		lsls	r4, r4, #1
 3436              	.L907:
 3437 0236 F368     		ldr	r3, [r6, #12]
 3438 0238 1B5B     		ldrh	r3, [r3, r4]
 3439 023a 002B     		cmp	r3, #0
 3440 023c CDD1     		bne	.L906
 3441 023e 3EE7     		b	.L933
 3442              	.L927:
 3443 0240 2C46     		mov	r4, r5
 3444 0242 18EE108A 		vmov	r8, s16	@ int
 3445 0246 2378     		ldrb	r3, [r4]	@ zero_extendqisi2
 3446 0248 5A06     		lsls	r2, r3, #25
 3447 024a DDE90157 		ldrd	r5, r7, [sp, #4]
 3448 024e 05D5     		bpl	.L929
 3449 0250 20B1     		cbz	r0, .L929
 3450 0252 039B     		ldr	r3, [sp, #12]
 3451 0254 33F81A30 		ldrh	r3, [r3, r10, lsl #1]
 3452 0258 002B     		cmp	r3, #0
 3453 025a 9FD1     		bne	.L945
 3454              	.L929:
 3455 025c 013F     		subs	r7, r7, #1
 3456 025e 5FFA87FA 		uxtb	r10, r7
 3457 0262 10E7     		b	.L921
 3458              	.L937:
 3459 0264 5446     		mov	r4, r10
 3460 0266 E6E7     		b	.L907
 3461              	.L936:
 3462 0268 1F46     		mov	r7, r3
 3463 026a B6E7     		b	.L906
 3464              	.L982:
 3465              		.align	2
 3466              	.L981:
 3467 026c 0C000000 		.word	.LANCHOR3+12
 3468 0270 00000000 		.word	.LANCHOR3
 3469              		.size	dir_find, .-dir_find
 3470              		.section	.rodata.follow_path.str1.4,"aMS",%progbits,1
 3471              		.align	2
 3472              	.LC2:
 3473 0000 2A3A3C3E 		.ascii	"*:<>|\"?\177\000"
ARM GAS  /tmp/cc2a13AN.s 			page 62


 3473      7C223F7F 
 3473      00
 3474 0009 000000   		.align	2
 3475              	.LC3:
 3476 000c 2B2C3B3D 		.ascii	"+,;=[]\000"
 3476      5B5D00
 3477              		.section	.text.follow_path,"ax",%progbits
 3478              		.align	1
 3479              		.p2align 4,,15
 3480              		.syntax unified
 3481              		.thumb
 3482              		.thumb_func
 3483              		.fpu fpv4-sp-d16
 3484              		.type	follow_path, %function
 3485              	follow_path:
 3486              		@ args = 0, pretend = 0, frame = 104
 3487              		@ frame_needed = 0, uses_anonymous_args = 0
 3488 0000 2DE9F04F 		push	{r4, r5, r6, r7, r8, r9, r10, fp, lr}
 3489 0004 0B78     		ldrb	r3, [r1]	@ zero_extendqisi2
 3490 0006 0268     		ldr	r2, [r0]
 3491 0008 9BB0     		sub	sp, sp, #108
 3492 000a 2F2B     		cmp	r3, #47
 3493 000c 0D46     		mov	r5, r1
 3494 000e 8346     		mov	fp, r0
 3495 0010 0092     		str	r2, [sp]
 3496 0012 04D0     		beq	.L988
 3497 0014 5C2B     		cmp	r3, #92
 3498 0016 04D0     		beq	.L985
 3499 0018 136A     		ldr	r3, [r2, #32]
 3500 001a 8360     		str	r3, [r0, #8]
 3501 001c 08E0     		b	.L987
 3502              	.L988:
 3503 001e 15F8013F 		ldrb	r3, [r5, #1]!	@ zero_extendqisi2
 3504              	.L985:
 3505 0022 2F2B     		cmp	r3, #47
 3506 0024 FBD0     		beq	.L988
 3507 0026 5C2B     		cmp	r3, #92
 3508 0028 F9D0     		beq	.L988
 3509 002a 0023     		movs	r3, #0
 3510 002c CBF80830 		str	r3, [fp, #8]
 3511              	.L987:
 3512 0030 009A     		ldr	r2, [sp]
 3513 0032 0023     		movs	r3, #0
 3514 0034 CBF81C30 		str	r3, [fp, #28]
 3515 0038 1278     		ldrb	r2, [r2]	@ zero_extendqisi2
 3516 003a 042A     		cmp	r2, #4
 3517 003c 68D0     		beq	.L1164
 3518              	.L989:
 3519 003e 2B78     		ldrb	r3, [r5]	@ zero_extendqisi2
 3520 0040 1F2B     		cmp	r3, #31
 3521 0042 40F25D81 		bls	.L1146
 3522 0046 DFF89883 		ldr	r8, .L1176+12
 3523              	.L993:
 3524 004a DBF80020 		ldr	r2, [fp]
 3525 004e D2F80CA0 		ldr	r10, [r2, #12]
 3526 0052 6F1C     		adds	r7, r5, #1
 3527 0054 0024     		movs	r4, #0
ARM GAS  /tmp/cc2a13AN.s 			page 63


 3528 0056 AAF10209 		sub	r9, r10, #2
 3529              	.L998:
 3530 005a 98B2     		uxth	r0, r3
 3531 005c 3D46     		mov	r5, r7
 3532 005e EBB9     		cbnz	r3, .L1165
 3533              	.L1063:
 3534 0060 012C     		cmp	r4, #1
 3535 0062 4FF00406 		mov	r6, #4
 3536 0066 44D0     		beq	.L1166
 3537              	.L1000:
 3538 0068 022C     		cmp	r4, #2
 3539 006a 4AD0     		beq	.L1167
 3540 006c 7CB1     		cbz	r4, .L1004
 3541 006e 04F10042 		add	r2, r4, #-2147483648
 3542 0072 013A     		subs	r2, r2, #1
 3543 0074 3AF81230 		ldrh	r3, [r10, r2, lsl #1]
 3544              	.L1002:
 3545 0078 0AEB4202 		add	r2, r10, r2, lsl #1
 3546 007c 01E0     		b	.L1010
 3547              	.L1168:
 3548 007e 32F8023D 		ldrh	r3, [r2, #-2]!
 3549              	.L1010:
 3550 0082 202B     		cmp	r3, #32
 3551 0084 01D0     		beq	.L1008
 3552 0086 2E2B     		cmp	r3, #46
 3553 0088 70D1     		bne	.L1009
 3554              	.L1008:
 3555 008a 013C     		subs	r4, r4, #1
 3556 008c F7D1     		bne	.L1168
 3557              	.L1004:
 3558 008e 0023     		movs	r3, #0
 3559 0090 AAF80030 		strh	r3, [r10]	@ movhi
 3560              	.L1162:
 3561 0094 0620     		movs	r0, #6
 3562              	.L1064:
 3563 0096 1BB0     		add	sp, sp, #108
 3564              		@ sp needed
 3565 0098 BDE8F08F 		pop	{r4, r5, r6, r7, r8, r9, r10, fp, pc}
 3566              	.L1165:
 3567 009c 40F25231 		movw	r1, #850
 3568 00a0 FFF7FEFF 		bl	ff_oem2uni
 3569 00a4 0646     		mov	r6, r0
 3570 00a6 0028     		cmp	r0, #0
 3571 00a8 F4D0     		beq	.L1162
 3572 00aa 1F2E     		cmp	r6, #31
 3573 00ac 0146     		mov	r1, r0
 3574 00ae 4046     		mov	r0, r8
 3575 00b0 D6D9     		bls	.L1063
 3576 00b2 2F2E     		cmp	r6, #47
 3577 00b4 0FD0     		beq	.L1119
 3578 00b6 5C2E     		cmp	r6, #92
 3579 00b8 0DD0     		beq	.L1119
 3580 00ba 7F2E     		cmp	r6, #127
 3581 00bc 03D8     		bhi	.L997
 3582 00be FFF7FEFF 		bl	strchr
 3583 00c2 0028     		cmp	r0, #0
 3584 00c4 E6D1     		bne	.L1162
ARM GAS  /tmp/cc2a13AN.s 			page 64


 3585              	.L997:
 3586 00c6 FF2C     		cmp	r4, #255
 3587 00c8 E4D0     		beq	.L1162
 3588 00ca 29F8026F 		strh	r6, [r9, #2]!	@ movhi
 3589 00ce 0134     		adds	r4, r4, #1
 3590 00d0 17F8013B 		ldrb	r3, [r7], #1	@ zero_extendqisi2
 3591 00d4 C1E7     		b	.L998
 3592              	.L1119:
 3593 00d6 3B78     		ldrb	r3, [r7]	@ zero_extendqisi2
 3594 00d8 2F2B     		cmp	r3, #47
 3595 00da 3D46     		mov	r5, r7
 3596 00dc 07F10107 		add	r7, r7, #1
 3597 00e0 F9D0     		beq	.L1119
 3598 00e2 5C2B     		cmp	r3, #92
 3599 00e4 F7D0     		beq	.L1119
 3600 00e6 1F2B     		cmp	r3, #31
 3601 00e8 8CBF     		ite	hi
 3602 00ea 0026     		movhi	r6, #0
 3603 00ec 0426     		movls	r6, #4
 3604 00ee 012C     		cmp	r4, #1
 3605 00f0 BAD1     		bne	.L1000
 3606              	.L1166:
 3607 00f2 BAF80030 		ldrh	r3, [r10]
 3608 00f6 2E2B     		cmp	r3, #46
 3609 00f8 00F02781 		beq	.L1001
 3610 00fc 4FF00042 		mov	r2, #-2147483648
 3611 0100 BAE7     		b	.L1002
 3612              	.L1167:
 3613 0102 BAF80230 		ldrh	r3, [r10, #2]
 3614 0106 2E2B     		cmp	r3, #46
 3615 0108 00F01A81 		beq	.L1148
 3616              	.L1159:
 3617 010c B14A     		ldr	r2, .L1176
 3618 010e B3E7     		b	.L1002
 3619              	.L1164:
 3620 0110 DBF80820 		ldr	r2, [fp, #8]
 3621 0114 002A     		cmp	r2, #0
 3622 0116 92D0     		beq	.L989
 3623 0118 0099     		ldr	r1, [sp]
 3624 011a 0993     		str	r3, [sp, #36]
 3625 011c 0B93     		str	r3, [sp, #44]
 3626 011e 8B6A     		ldr	r3, [r1, #40]
 3627 0120 4A6A     		ldr	r2, [r1, #36]
 3628 0122 0491     		str	r1, [sp, #16]
 3629 0124 C96A     		ldr	r1, [r1, #44]
 3630 0126 CBF82430 		str	r3, [fp, #36]
 3631 012a 8DF81730 		strb	r3, [sp, #23]
 3632 012e CBF82020 		str	r2, [fp, #32]
 3633 0132 23F0FF03 		bic	r3, r3, #255
 3634 0136 CBF82810 		str	r1, [fp, #40]
 3635 013a 04A8     		add	r0, sp, #16
 3636 013c 0692     		str	r2, [sp, #24]
 3637 013e 0893     		str	r3, [sp, #32]
 3638 0140 1791     		str	r1, [sp, #92]
 3639 0142 FFF7FEFF 		bl	dir_sdi
 3640 0146 0028     		cmp	r0, #0
 3641 0148 A5D1     		bne	.L1064
ARM GAS  /tmp/cc2a13AN.s 			page 65


 3642 014a 04A8     		add	r0, sp, #16
 3643 014c FFF7FEFF 		bl	load_xdir
 3644 0150 0028     		cmp	r0, #0
 3645 0152 A0D1     		bne	.L1064
 3646 0154 009A     		ldr	r2, [sp]
 3647 0156 1269     		ldr	r2, [r2, #16]
 3648 0158 916B     		ldr	r1, [r2, #56]	@ unaligned
 3649 015a CBE90410 		strd	r1, r0, [fp, #16]
 3650 015e 92F82130 		ldrb	r3, [r2, #33]	@ zero_extendqisi2
 3651 0162 03F00203 		and	r3, r3, #2
 3652 0166 8BF80730 		strb	r3, [fp, #7]
 3653 016a 68E7     		b	.L989
 3654              	.L1009:
 3655 016c 0022     		movs	r2, #0
 3656 016e 2AF81420 		strh	r2, [r10, r4, lsl #1]	@ movhi
 3657 0172 BAF80030 		ldrh	r3, [r10]
 3658 0176 202B     		cmp	r3, #32
 3659 0178 08BF     		it	eq
 3660 017a 0AF10203 		addeq	r3, r10, #2
 3661 017e 40F0B880 		bne	.L1169
 3662              	.L1011:
 3663 0182 1946     		mov	r1, r3
 3664 0184 33F8020B 		ldrh	r0, [r3], #2
 3665 0188 2028     		cmp	r0, #32
 3666 018a 9146     		mov	r9, r2
 3667 018c 02F10102 		add	r2, r2, #1
 3668 0190 F7D0     		beq	.L1011
 3669 0192 09F10209 		add	r9, r9, #2
 3670              	.L1012:
 3671 0196 46F00306 		orr	r6, r6, #3
 3672 019a F6B2     		uxtb	r6, r6
 3673              	.L1013:
 3674 019c 0AEB4403 		add	r3, r10, r4, lsl #1
 3675              	.L1014:
 3676 01a0 33F8022D 		ldrh	r2, [r3, #-2]!
 3677 01a4 2E2A     		cmp	r2, #46
 3678 01a6 01D0     		beq	.L1015
 3679 01a8 013C     		subs	r4, r4, #1
 3680 01aa F9D1     		bne	.L1014
 3681              	.L1015:
 3682 01ac 4FF02033 		mov	r3, #538976288
 3683 01b0 CBF84430 		str	r3, [fp, #68]	@ unaligned
 3684 01b4 CBF84030 		str	r3, [fp, #64]	@ unaligned
 3685 01b8 CBF84730 		str	r3, [fp, #71]	@ unaligned
 3686 01bc 0988     		ldrh	r1, [r1]
 3687 01be 0029     		cmp	r1, #0
 3688 01c0 4CD0     		beq	.L1017
 3689 01c2 0822     		movs	r2, #8
 3690 01c4 2846     		mov	r0, r5
 3691 01c6 0027     		movs	r7, #0
 3692 01c8 2546     		mov	r5, r4
 3693 01ca 5B46     		mov	r3, fp
 3694 01cc 3C46     		mov	r4, r7
 3695 01ce D346     		mov	fp, r10
 3696 01d0 9246     		mov	r10, r2
 3697 01d2 0246     		mov	r2, r0
 3698              	.L1018:
ARM GAS  /tmp/cc2a13AN.s 			page 66


 3699 01d4 2029     		cmp	r1, #32
 3700 01d6 75D0     		beq	.L1020
 3701 01d8 2E29     		cmp	r1, #46
 3702 01da 7ED0     		beq	.L1170
 3703 01dc A245     		cmp	r10, r4
 3704 01de 1BD9     		bls	.L1024
 3705 01e0 A945     		cmp	r9, r5
 3706 01e2 7CD0     		beq	.L1051
 3707 01e4 7F29     		cmp	r1, #127
 3708 01e6 00F2DB80 		bhi	.L1171
 3709              	.L1030:
 3710 01ea 7B48     		ldr	r0, .L1176+4
 3711 01ec 0191     		str	r1, [sp, #4]
 3712 01ee CDE90232 		strd	r3, r2, [sp, #8]
 3713 01f2 FFF7FEFF 		bl	strchr
 3714 01f6 DDE90113 		ldrd	r1, r3, [sp, #4]
 3715 01fa 039A     		ldr	r2, [sp, #12]
 3716 01fc 0028     		cmp	r0, #0
 3717 01fe 00F01381 		beq	.L1036
 3718 0202 0196     		str	r6, [sp, #4]
 3719              	.L1035:
 3720 0204 0199     		ldr	r1, [sp, #4]
 3721 0206 41F00306 		orr	r6, r1, #3
 3722 020a F6B2     		uxtb	r6, r6
 3723 020c 5F21     		movs	r1, #95
 3724              	.L1034:
 3725 020e 1819     		adds	r0, r3, r4
 3726 0210 0134     		adds	r4, r4, #1
 3727 0212 80F84010 		strb	r1, [r0, #64]
 3728 0216 58E0     		b	.L1023
 3729              	.L1024:
 3730 0218 BAF10B0F 		cmp	r10, #11
 3731 021c 00F0E280 		beq	.L1160
 3732 0220 A945     		cmp	r9, r5
 3733 0222 5FD0     		beq	.L1029
 3734 0224 46F00306 		orr	r6, r6, #3
 3735 0228 F6B2     		uxtb	r6, r6
 3736 022a 5BD9     		bls	.L1029
 3737              	.L1019:
 3738 022c 9B46     		mov	fp, r3
 3739 022e 93F84030 		ldrb	r3, [r3, #64]	@ zero_extendqisi2
 3740 0232 E52B     		cmp	r3, #229
 3741 0234 08BF     		it	eq
 3742 0236 0523     		moveq	r3, #5
 3743 0238 1546     		mov	r5, r2
 3744 023a 5246     		mov	r2, r10
 3745 023c 08BF     		it	eq
 3746 023e 8BF84030 		strbeq	r3, [fp, #64]
 3747 0242 082A     		cmp	r2, #8
 3748 0244 66D0     		beq	.L1172
 3749              	.L1028:
 3750 0246 07F00C03 		and	r3, r7, #12
 3751 024a 0C2B     		cmp	r3, #12
 3752 024c 03D0     		beq	.L1040
 3753 024e 07F00303 		and	r3, r7, #3
 3754 0252 032B     		cmp	r3, #3
 3755 0254 67D1     		bne	.L1173
ARM GAS  /tmp/cc2a13AN.s 			page 67


 3756              	.L1040:
 3757 0256 46F00206 		orr	r6, r6, #2
 3758 025a F6B2     		uxtb	r6, r6
 3759              	.L1017:
 3760 025c 8BF84B60 		strb	r6, [fp, #75]
 3761              	.L1007:
 3762 0260 5846     		mov	r0, fp
 3763 0262 FFF7FEFF 		bl	dir_find
 3764 0266 9BF84B30 		ldrb	r3, [fp, #75]	@ zero_extendqisi2
 3765 026a 70B1     		cbz	r0, .L1045
 3766 026c 0428     		cmp	r0, #4
 3767 026e 7FF412AF 		bne	.L1064
 3768 0272 9C06     		lsls	r4, r3, #26
 3769 0274 40F1E180 		bpl	.L1046
 3770 0278 5907     		lsls	r1, r3, #29
 3771 027a 21D5     		bpl	.L1047
 3772 027c 8023     		movs	r3, #128
 3773 027e 0020     		movs	r0, #0
 3774 0280 8BF84B30 		strb	r3, [fp, #75]
 3775 0284 1BB0     		add	sp, sp, #108
 3776              		@ sp needed
 3777 0286 BDE8F08F 		pop	{r4, r5, r6, r7, r8, r9, r10, fp, pc}
 3778              	.L1045:
 3779 028a 5A07     		lsls	r2, r3, #29
 3780 028c 3FF503AF 		bmi	.L1064
 3781 0290 9BF80630 		ldrb	r3, [fp, #6]	@ zero_extendqisi2
 3782 0294 DB06     		lsls	r3, r3, #27
 3783 0296 40F1D580 		bpl	.L1062
 3784 029a 009B     		ldr	r3, [sp]
 3785 029c 1978     		ldrb	r1, [r3]	@ zero_extendqisi2
 3786 029e 0429     		cmp	r1, #4
 3787 02a0 66D0     		beq	.L1174
 3788 02a2 DBF83030 		ldr	r3, [fp, #48]
 3789 02a6 C3F30802 		ubfx	r2, r3, #0, #9
 3790 02aa 009B     		ldr	r3, [sp]
 3791 02ac 5033     		adds	r3, r3, #80
 3792 02ae 1344     		add	r3, r3, r2
 3793 02b0 0329     		cmp	r1, #3
 3794 02b2 5A8B     		ldrh	r2, [r3, #26]	@ unaligned
 3795 02b4 04BF     		itt	eq
 3796 02b6 9B8A     		ldrheq	r3, [r3, #20]	@ unaligned
 3797 02b8 42EA0342 		orreq	r2, r2, r3, lsl #16
 3798 02bc CBF80820 		str	r2, [fp, #8]
 3799              	.L1047:
 3800 02c0 2B78     		ldrb	r3, [r5]	@ zero_extendqisi2
 3801 02c2 C2E6     		b	.L993
 3802              	.L1020:
 3803 02c4 46F00306 		orr	r6, r6, #3
 3804 02c8 F6B2     		uxtb	r6, r6
 3805              	.L1023:
 3806 02ca 3BF81910 		ldrh	r1, [fp, r9, lsl #1]
 3807 02ce 09F10109 		add	r9, r9, #1
 3808 02d2 0029     		cmp	r1, #0
 3809 02d4 7FF47EAF 		bne	.L1018
 3810 02d8 A8E7     		b	.L1019
 3811              	.L1170:
 3812 02da A945     		cmp	r9, r5
ARM GAS  /tmp/cc2a13AN.s 			page 68


 3813 02dc F2D1     		bne	.L1020
 3814              	.L1051:
 3815 02de BAF10B0F 		cmp	r10, #11
 3816 02e2 7FD0     		beq	.L1160
 3817              	.L1029:
 3818 02e4 BF00     		lsls	r7, r7, #2
 3819 02e6 FFB2     		uxtb	r7, r7
 3820 02e8 A946     		mov	r9, r5
 3821 02ea 4FF00B0A 		mov	r10, #11
 3822 02ee 0824     		movs	r4, #8
 3823 02f0 EBE7     		b	.L1023
 3824              	.L1169:
 3825 02f2 2E2B     		cmp	r3, #46
 3826 02f4 5146     		mov	r1, r10
 3827 02f6 4FF00109 		mov	r9, #1
 3828 02fa 7FF44FAF 		bne	.L1013
 3829 02fe 4AE7     		b	.L1012
 3830              	.L1146:
 3831 0300 8023     		movs	r3, #128
 3832 0302 0021     		movs	r1, #0
 3833 0304 5846     		mov	r0, fp
 3834 0306 8BF84B30 		strb	r3, [fp, #75]
 3835 030a 1BB0     		add	sp, sp, #108
 3836              		@ sp needed
 3837 030c BDE8F04F 		pop	{r4, r5, r6, r7, r8, r9, r10, fp, lr}
 3838 0310 FFF7FEBF 		b	dir_sdi
 3839              	.L1172:
 3840 0314 BB00     		lsls	r3, r7, #2
 3841 0316 03F00C02 		and	r2, r3, #12
 3842 031a 0C2A     		cmp	r2, #12
 3843 031c DFB2     		uxtb	r7, r3
 3844 031e 9AD0     		beq	.L1040
 3845 0320 B107     		lsls	r1, r6, #30
 3846 0322 07D5     		bpl	.L1044
 3847 0324 9AE7     		b	.L1017
 3848              	.L1173:
 3849 0326 B207     		lsls	r2, r6, #30
 3850 0328 98D4     		bmi	.L1017
 3851 032a FB07     		lsls	r3, r7, #31
 3852 032c 44BF     		itt	mi
 3853 032e 46F01006 		orrmi	r6, r6, #16
 3854 0332 F6B2     		uxtbmi	r6, r6
 3855              	.L1044:
 3856 0334 7F07     		lsls	r7, r7, #29
 3857 0336 44BF     		itt	mi
 3858 0338 46F00806 		orrmi	r6, r6, #8
 3859 033c F6B2     		uxtbmi	r6, r6
 3860 033e 8DE7     		b	.L1017
 3861              	.L1148:
 3862 0340 BAF80020 		ldrh	r2, [r10]
 3863 0344 2E2A     		cmp	r2, #46
 3864 0346 7FF4E1AE 		bne	.L1159
 3865              	.L1001:
 3866 034a 0023     		movs	r3, #0
 3867 034c 2AF81430 		strh	r3, [r10, r4, lsl #1]	@ movhi
 3868 0350 0BF13F02 		add	r2, fp, #63
 3869              	.L1006:
ARM GAS  /tmp/cc2a13AN.s 			page 69


 3870 0354 9C42     		cmp	r4, r3
 3871 0356 8CBF     		ite	hi
 3872 0358 2E21     		movhi	r1, #46
 3873 035a 2021     		movls	r1, #32
 3874 035c 0133     		adds	r3, r3, #1
 3875 035e 0B2B     		cmp	r3, #11
 3876 0360 02F8011F 		strb	r1, [r2, #1]!
 3877 0364 F6D1     		bne	.L1006
 3878 0366 46F02006 		orr	r6, r6, #32
 3879 036a 8BF84B60 		strb	r6, [fp, #75]
 3880 036e 77E7     		b	.L1007
 3881              	.L1174:
 3882 0370 DBF81030 		ldr	r3, [fp, #16]
 3883 0374 9BF80720 		ldrb	r2, [fp, #7]	@ zero_extendqisi2
 3884 0378 23F0FF03 		bic	r3, r3, #255
 3885 037c 1343     		orrs	r3, r3, r2
 3886 037e CBF82430 		str	r3, [fp, #36]
 3887 0382 DBF80830 		ldr	r3, [fp, #8]
 3888 0386 CBF82030 		str	r3, [fp, #32]
 3889 038a DBF84C30 		ldr	r3, [fp, #76]
 3890 038e CBF82830 		str	r3, [fp, #40]
 3891 0392 009B     		ldr	r3, [sp]
 3892 0394 5946     		mov	r1, fp
 3893 0396 1869     		ldr	r0, [r3, #16]
 3894 0398 FFF7FEFF 		bl	init_alloc_info.isra.0
 3895 039c 2B78     		ldrb	r3, [r5]	@ zero_extendqisi2
 3896 039e 54E6     		b	.L993
 3897              	.L1171:
 3898 03a0 0846     		mov	r0, r1
 3899 03a2 46F00201 		orr	r1, r6, #2
 3900 03a6 CDE90232 		strd	r3, r2, [sp, #8]
 3901 03aa CBB2     		uxtb	r3, r1
 3902 03ac 40F25231 		movw	r1, #850
 3903 03b0 0193     		str	r3, [sp, #4]
 3904 03b2 FFF7FEFF 		bl	ff_uni2oem
 3905 03b6 10F0800F 		tst	r0, #128
 3906 03ba DDE90232 		ldrd	r3, r2, [sp, #8]
 3907 03be 0146     		mov	r1, r0
 3908 03c0 1ED0     		beq	.L1031
 3909 03c2 00F07F01 		and	r1, r0, #127
 3910 03c6 0548     		ldr	r0, .L1176+8
 3911 03c8 415C     		ldrb	r1, [r0, r1]	@ zero_extendqisi2
 3912              	.L1032:
 3913 03ca 0029     		cmp	r1, #0
 3914 03cc 3FF41AAF 		beq	.L1035
 3915 03d0 019E     		ldr	r6, [sp, #4]
 3916 03d2 0AE7     		b	.L1030
 3917              	.L1177:
 3918              		.align	2
 3919              	.L1176:
 3920 03d4 01000080 		.word	-2147483647
 3921 03d8 0C000000 		.word	.LC3
 3922 03dc 00000000 		.word	.LANCHOR2
 3923 03e0 00000000 		.word	.LC2
 3924              	.L1160:
 3925 03e4 9B46     		mov	fp, r3
 3926 03e6 93F84030 		ldrb	r3, [r3, #64]	@ zero_extendqisi2
ARM GAS  /tmp/cc2a13AN.s 			page 70


 3927 03ea 46F00306 		orr	r6, r6, #3
 3928 03ee E52B     		cmp	r3, #229
 3929 03f0 1546     		mov	r5, r2
 3930 03f2 F6B2     		uxtb	r6, r6
 3931 03f4 7FF427AF 		bne	.L1028
 3932 03f8 0523     		movs	r3, #5
 3933 03fa 8BF84030 		strb	r3, [fp, #64]
 3934 03fe 22E7     		b	.L1028
 3935              	.L1031:
 3936 0400 FF28     		cmp	r0, #255
 3937 0402 E2D9     		bls	.L1032
 3938 0404 0AF1FF30 		add	r0, r10, #-1
 3939 0408 A042     		cmp	r0, r4
 3940 040a 08D9     		bls	.L1175
 3941 040c 1819     		adds	r0, r3, r4
 3942 040e 4FEA112C 		lsr	ip, r1, #8
 3943 0412 019E     		ldr	r6, [sp, #4]
 3944 0414 80F840C0 		strb	ip, [r0, #64]
 3945 0418 0134     		adds	r4, r4, #1
 3946 041a C9B2     		uxtb	r1, r1
 3947 041c F7E6     		b	.L1034
 3948              	.L1175:
 3949 041e 46F00306 		orr	r6, r6, #3
 3950 0422 F6B2     		uxtb	r6, r6
 3951 0424 5446     		mov	r4, r10
 3952 0426 50E7     		b	.L1023
 3953              	.L1036:
 3954 0428 A1F14100 		sub	r0, r1, #65
 3955 042c 80B2     		uxth	r0, r0
 3956 042e 1928     		cmp	r0, #25
 3957 0430 0AD8     		bhi	.L1037
 3958 0432 47F00207 		orr	r7, r7, #2
 3959 0436 C9B2     		uxtb	r1, r1
 3960 0438 E9E6     		b	.L1034
 3961              	.L1046:
 3962 043a 13F0040F 		tst	r3, #4
 3963 043e 08BF     		it	eq
 3964 0440 0520     		moveq	r0, #5
 3965 0442 28E6     		b	.L1064
 3966              	.L1062:
 3967 0444 0520     		movs	r0, #5
 3968 0446 26E6     		b	.L1064
 3969              	.L1037:
 3970 0448 A1F16100 		sub	r0, r1, #97
 3971 044c 80B2     		uxth	r0, r0
 3972 044e 1928     		cmp	r0, #25
 3973 0450 9CBF     		itt	ls
 3974 0452 2039     		subls	r1, r1, #32
 3975 0454 47F00107 		orrls	r7, r7, #1
 3976 0458 C9B2     		uxtb	r1, r1
 3977 045a D8E6     		b	.L1034
 3978              		.size	follow_path, .-follow_path
 3979              		.section	.text.dir_register,"ax",%progbits
 3980              		.align	1
 3981              		.p2align 4,,15
 3982              		.syntax unified
 3983              		.thumb
ARM GAS  /tmp/cc2a13AN.s 			page 71


 3984              		.thumb_func
 3985              		.fpu fpv4-sp-d16
 3986              		.type	dir_register, %function
 3987              	dir_register:
 3988              		@ args = 0, pretend = 0, frame = 104
 3989              		@ frame_needed = 0, uses_anonymous_args = 0
 3990 0000 2DE9F04F 		push	{r4, r5, r6, r7, r8, r9, r10, fp, lr}
 3991 0004 2DED028B 		vpush.64	{d8}
 3992 0008 90F84B30 		ldrb	r3, [r0, #75]	@ zero_extendqisi2
 3993 000c 9BB0     		sub	sp, sp, #108
 3994 000e 0093     		str	r3, [sp]
 3995 0010 13F0A003 		ands	r3, r3, #160
 3996 0014 40F07A81 		bne	.L1236
 3997 0018 0568     		ldr	r5, [r0]
 3998 001a EA68     		ldr	r2, [r5, #12]
 3999 001c 1188     		ldrh	r1, [r2]
 4000 001e 0446     		mov	r4, r0
 4001 0020 0029     		cmp	r1, #0
 4002 0022 00F08182 		beq	.L1237
 4003 0026 9B46     		mov	fp, r3
 4004              	.L1181:
 4005 0028 32F8023F 		ldrh	r3, [r2, #2]!
 4006 002c 0BF1010B 		add	fp, fp, #1
 4007 0030 002B     		cmp	r3, #0
 4008 0032 F9D1     		bne	.L1181
 4009              	.L1180:
 4010 0034 2A78     		ldrb	r2, [r5]	@ zero_extendqisi2
 4011 0036 042A     		cmp	r2, #4
 4012 0038 00F08E81 		beq	.L1290
 4013 003c 04F14006 		add	r6, r4, #64
 4014 0040 96E80700 		ldm	r6, {r0, r1, r2}
 4015 0044 009B     		ldr	r3, [sp]
 4016 0046 0DF1100A 		add	r10, sp, #16
 4017 004a 8AE80700 		stm	r10, {r0, r1, r2}
 4018 004e DA07     		lsls	r2, r3, #31
 4019 0050 7AD5     		bpl	.L1195
 4020 0052 4022     		movs	r2, #64
 4021 0054 84F84B20 		strb	r2, [r4, #75]
 4022 0058 9AE80700 		ldm	r10, {r0, r1, r2}
 4023 005c B646     		mov	lr, r6
 4024 005e AEE80300 		stmia	lr!, {r0, r1}
 4025 0062 2EF8022B 		strh	r2, [lr], #2	@ movhi
 4026 0066 4FF00109 		mov	r9, #1
 4027 006a 120C     		lsrs	r2, r2, #16
 4028 006c B74F     		ldr	r7, .L1297
 4029 006e 8EF80020 		strb	r2, [lr]
 4030 0072 CC46     		mov	ip, r9
 4031              	.L1196:
 4032 0074 0DF10F00 		add	r0, sp, #15
 4033 0078 0722     		movs	r2, #7
 4034 007a 03E0     		b	.L1203
 4035              	.L1292:
 4036 007c BEF10F0F 		cmp	lr, #15
 4037 0080 40F23081 		bls	.L1291
 4038              	.L1203:
 4039 0084 0CF00F01 		and	r1, ip, #15
 4040 0088 01F13003 		add	r3, r1, #48
ARM GAS  /tmp/cc2a13AN.s 			page 72


 4041 008c 392B     		cmp	r3, #57
 4042 008e 88BF     		it	hi
 4043 0090 01F13703 		addhi	r3, r1, #55
 4044 0094 013A     		subs	r2, r2, #1
 4045 0096 E646     		mov	lr, ip
 4046 0098 00F80139 		strb	r3, [r0], #-1
 4047 009c 4FEA1C1C 		lsr	ip, ip, #4
 4048 00a0 ECD1     		bne	.L1292
 4049 00a2 7E23     		movs	r3, #126
 4050 00a4 8DF80830 		strb	r3, [sp, #8]
 4051 00a8 1346     		mov	r3, r2
 4052              	.L1205:
 4053 00aa 3F33     		adds	r3, r3, #63
 4054 00ac 2344     		add	r3, r3, r4
 4055              	.L1208:
 4056 00ae 02F16801 		add	r1, r2, #104
 4057 00b2 6944     		add	r1, sp, r1
 4058 00b4 072A     		cmp	r2, #7
 4059 00b6 98BF     		it	ls
 4060 00b8 11F8600C 		ldrbls	r0, [r1, #-96]	@ zero_extendqisi2
 4061 00bc A3F13E01 		sub	r1, r3, #62
 4062 00c0 A1EB0401 		sub	r1, r1, r4
 4063 00c4 8CBF     		ite	hi
 4064 00c6 2020     		movhi	r0, #32
 4065 00c8 0132     		addls	r2, r2, #1
 4066 00ca 0729     		cmp	r1, #7
 4067 00cc 5870     		strb	r0, [r3, #1]
 4068 00ce 03F10103 		add	r3, r3, #1
 4069 00d2 ECD9     		bls	.L1208
 4070 00d4 2046     		mov	r0, r4
 4071 00d6 FFF7FEFF 		bl	dir_find
 4072 00da 70BB     		cbnz	r0, .L1209
 4073 00dc 09F10109 		add	r9, r9, #1
 4074 00e0 B9F1640F 		cmp	r9, #100
 4075 00e4 00F04382 		beq	.L1293
 4076 00e8 9AE80700 		ldm	r10, {r0, r1, r2}
 4077 00ec 3346     		mov	r3, r6
 4078 00ee D5F80CC0 		ldr	ip, [r5, #12]
 4079 00f2 03C3     		stmia	r3!, {r0, r1}
 4080 00f4 23F8022B 		strh	r2, [r3], #2	@ movhi
 4081 00f8 B9F1050F 		cmp	r9, #5
 4082 00fc 4FEA1242 		lsr	r2, r2, #16
 4083 0100 1A70     		strb	r2, [r3]
 4084 0102 40F20181 		bls	.L1243
 4085 0106 BCF80030 		ldrh	r3, [ip]
 4086 010a 002B     		cmp	r3, #0
 4087 010c 00F0FC80 		beq	.L1243
 4088 0110 6046     		mov	r0, ip
 4089 0112 CC46     		mov	ip, r9
 4090              	.L1200:
 4091 0114 1022     		movs	r2, #16
 4092              	.L1199:
 4093 0116 03F00101 		and	r1, r3, #1
 4094 011a 01EB4C0C 		add	ip, r1, ip, lsl #1
 4095 011e 1CF4803F 		tst	ip, #65536
 4096 0122 18BF     		it	ne
 4097 0124 8CEA070C 		eorne	ip, ip, r7
ARM GAS  /tmp/cc2a13AN.s 			page 73


 4098 0128 013A     		subs	r2, r2, #1
 4099 012a 4FEA5303 		lsr	r3, r3, #1
 4100 012e F2D1     		bne	.L1199
 4101 0130 30F8023F 		ldrh	r3, [r0, #2]!
 4102 0134 002B     		cmp	r3, #0
 4103 0136 EDD1     		bne	.L1200
 4104 0138 9CE7     		b	.L1196
 4105              	.L1209:
 4106 013a 0428     		cmp	r0, #4
 4107 013c 8046     		mov	r8, r0
 4108 013e 40F0CB80 		bne	.L1246
 4109 0142 009B     		ldr	r3, [sp]
 4110 0144 84F84B30 		strb	r3, [r4, #75]
 4111              	.L1195:
 4112 0148 009B     		ldr	r3, [sp]
 4113 014a 9B07     		lsls	r3, r3, #30
 4114 014c 40F1E680 		bpl	.L1211
 4115 0150 7F4A     		ldr	r2, .L1297+4
 4116 0152 0BF10C0B 		add	fp, fp, #12
 4117 0156 A2FB0B32 		umull	r3, r2, r2, fp
 4118 015a 4FEA920A 		lsr	r10, r2, #2
 4119 015e 0AF10101 		add	r1, r10, #1
 4120 0162 2046     		mov	r0, r4
 4121 0164 FFF7FEFF 		bl	dir_alloc
 4122 0168 8046     		mov	r8, r0
 4123 016a 0028     		cmp	r0, #0
 4124 016c 40F0B480 		bne	.L1246
 4125 0170 BBF10C0F 		cmp	fp, #12
 4126 0174 00F08780 		beq	.L1229
 4127 0178 216B     		ldr	r1, [r4, #48]
 4128 017a 2046     		mov	r0, r4
 4129 017c A1EB4A11 		sub	r1, r1, r10, lsl #5
 4130 0180 FFF7FEFF 		bl	dir_sdi
 4131 0184 8046     		mov	r8, r0
 4132 0186 0028     		cmp	r0, #0
 4133 0188 40F0A680 		bne	.L1246
 4134 018c 3246     		mov	r2, r6
 4135 018e 04F14B01 		add	r1, r4, #75
 4136              	.L1215:
 4137 0192 C301     		lsls	r3, r0, #7
 4138 0194 43EA5003 		orr	r3, r3, r0, lsr #1
 4139 0198 12F8010B 		ldrb	r0, [r2], #1	@ zero_extendqisi2
 4140 019c 50FA83F3 		uxtab	r3, r0, r3
 4141 01a0 8A42     		cmp	r2, r1
 4142 01a2 D8B2     		uxtb	r0, r3
 4143 01a4 F5D1     		bne	.L1215
 4144 01a6 05F15003 		add	r3, r5, #80
 4145 01aa 6A4F     		ldr	r7, .L1297+8
 4146 01ac 0090     		str	r0, [sp]
 4147 01ae 08EE103A 		vmov	s16, r3	@ int
 4148 01b2 0196     		str	r6, [sp, #4]
 4149              	.L1228:
 4150 01b4 A66B     		ldr	r6, [r4, #56]
 4151 01b6 EB6C     		ldr	r3, [r5, #76]
 4152 01b8 9E42     		cmp	r6, r3
 4153 01ba 0ED0     		beq	.L1216
 4154 01bc EB78     		ldrb	r3, [r5, #3]	@ zero_extendqisi2
ARM GAS  /tmp/cc2a13AN.s 			page 74


 4155 01be 002B     		cmp	r3, #0
 4156 01c0 40F0A581 		bne	.L1217
 4157              	.L1220:
 4158 01c4 6878     		ldrb	r0, [r5, #1]	@ zero_extendqisi2
 4159 01c6 18EE101A 		vmov	r1, s16	@ int
 4160 01ca 0123     		movs	r3, #1
 4161 01cc 3246     		mov	r2, r6
 4162 01ce FFF7FEFF 		bl	disk_read
 4163 01d2 0028     		cmp	r0, #0
 4164 01d4 40F0AE80 		bne	.L1231
 4165 01d8 EE64     		str	r6, [r5, #76]
 4166              	.L1216:
 4167 01da E06B     		ldr	r0, [r4, #60]
 4168 01dc D5F80CE0 		ldr	lr, [r5, #12]
 4169 01e0 5FFA8AF9 		uxtb	r9, r10
 4170 01e4 09F1FF31 		add	r1, r9, #-1
 4171 01e8 0F26     		movs	r6, #15
 4172 01ea 0022     		movs	r2, #0
 4173 01ec 01EB4103 		add	r3, r1, r1, lsl #1
 4174 01f0 C672     		strb	r6, [r0, #11]
 4175 01f2 009E     		ldr	r6, [sp]
 4176 01f4 4673     		strb	r6, [r0, #13]
 4177 01f6 01EB8301 		add	r1, r1, r3, lsl #2
 4178 01fa 0273     		strb	r2, [r0, #12]
 4179 01fc 1346     		mov	r3, r2
 4180 01fe 8276     		strb	r2, [r0, #26]
 4181 0200 C276     		strb	r2, [r0, #27]
 4182 0202 0126     		movs	r6, #1
 4183 0204 4FF6FF78 		movw	r8, #65535
 4184 0208 4FF0FF0C 		mov	ip, #255
 4185 020c 17E0     		b	.L1226
 4186              	.L1294:
 4187 020e 3EF81130 		ldrh	r3, [lr, r1, lsl #1]
 4188 0212 8355     		strb	r3, [r0, r6]
 4189 0214 1E0A     		lsrs	r6, r3, #8
 4190 0216 8BF80160 		strb	r6, [fp, #1]
 4191 021a 0131     		adds	r1, r1, #1
 4192 021c 5BB9     		cbnz	r3, .L1222
 4193 021e 0132     		adds	r2, r2, #1
 4194 0220 0D2A     		cmp	r2, #13
 4195 0222 1FD0     		beq	.L1227
 4196 0224 BE5C     		ldrb	r6, [r7, r2]	@ zero_extendqisi2
 4197 0226 00EB060B 		add	fp, r0, r6
 4198 022a 00F806C0 		strb	ip, [r0, r6]
 4199 022e 4FF6FF73 		movw	r3, #65535
 4200 0232 8BF801C0 		strb	ip, [fp, #1]
 4201              	.L1222:
 4202 0236 0132     		adds	r2, r2, #1
 4203 0238 0D2A     		cmp	r2, #13
 4204 023a 0CD0     		beq	.L1225
 4205              	.L1295:
 4206 023c BE5C     		ldrb	r6, [r7, r2]	@ zero_extendqisi2
 4207              	.L1226:
 4208 023e 4345     		cmp	r3, r8
 4209 0240 00EB060B 		add	fp, r0, r6
 4210 0244 E3D1     		bne	.L1294
 4211 0246 00F806C0 		strb	ip, [r0, r6]
ARM GAS  /tmp/cc2a13AN.s 			page 75


 4212 024a 0132     		adds	r2, r2, #1
 4213 024c 0644     		add	r6, r6, r0
 4214 024e 0D2A     		cmp	r2, #13
 4215 0250 86F801C0 		strb	ip, [r6, #1]
 4216 0254 F2D1     		bne	.L1295
 4217              	.L1225:
 4218 0256 4FF6FF72 		movw	r2, #65535
 4219 025a 9342     		cmp	r3, r2
 4220 025c 02D0     		beq	.L1227
 4221 025e 3EF81130 		ldrh	r3, [lr, r1, lsl #1]
 4222 0262 0BB9     		cbnz	r3, .L1224
 4223              	.L1227:
 4224 0264 49F04009 		orr	r9, r9, #64
 4225              	.L1224:
 4226 0268 0123     		movs	r3, #1
 4227 026a 80F80090 		strb	r9, [r0]
 4228 026e 0021     		movs	r1, #0
 4229 0270 EB70     		strb	r3, [r5, #3]
 4230 0272 2046     		mov	r0, r4
 4231 0274 FFF7FEFF 		bl	dir_next
 4232 0278 0028     		cmp	r0, #0
 4233 027a 40F04E81 		bne	.L1287
 4234 027e BAF1010A 		subs	r10, r10, #1
 4235 0282 97D1     		bne	.L1228
 4236 0284 019E     		ldr	r6, [sp, #4]
 4237              	.L1229:
 4238 0286 A76B     		ldr	r7, [r4, #56]
 4239 0288 EB6C     		ldr	r3, [r5, #76]
 4240 028a 9F42     		cmp	r7, r3
 4241 028c 0DD0     		beq	.L1214
 4242              	.L1213:
 4243 028e EB78     		ldrb	r3, [r5, #3]	@ zero_extendqisi2
 4244 0290 002B     		cmp	r3, #0
 4245 0292 40F06481 		bne	.L1230
 4246              	.L1233:
 4247 0296 6878     		ldrb	r0, [r5, #1]	@ zero_extendqisi2
 4248 0298 0123     		movs	r3, #1
 4249 029a 3A46     		mov	r2, r7
 4250 029c 05F15001 		add	r1, r5, #80
 4251 02a0 FFF7FEFF 		bl	disk_read
 4252 02a4 0028     		cmp	r0, #0
 4253 02a6 45D1     		bne	.L1231
 4254 02a8 EF64     		str	r7, [r5, #76]
 4255              	.L1214:
 4256 02aa 0021     		movs	r1, #0
 4257 02ac 2022     		movs	r2, #32
 4258 02ae E06B     		ldr	r0, [r4, #60]
 4259 02b0 FFF7FEFF 		bl	memset
 4260 02b4 03CE     		ldmia	r6!, {r0, r1}
 4261 02b6 E36B     		ldr	r3, [r4, #60]
 4262 02b8 1860     		str	r0, [r3]	@ unaligned
 4263 02ba 5960     		str	r1, [r3, #4]	@ unaligned
 4264 02bc 3288     		ldrh	r2, [r6]	@ unaligned
 4265 02be B178     		ldrb	r1, [r6, #2]	@ zero_extendqisi2
 4266 02c0 9972     		strb	r1, [r3, #10]
 4267 02c2 1A81     		strh	r2, [r3, #8]	@ unaligned
 4268 02c4 94F84B30 		ldrb	r3, [r4, #75]	@ zero_extendqisi2
ARM GAS  /tmp/cc2a13AN.s 			page 76


 4269 02c8 E16B     		ldr	r1, [r4, #60]
 4270 02ca 03F01803 		and	r3, r3, #24
 4271 02ce 0122     		movs	r2, #1
 4272 02d0 0B73     		strb	r3, [r1, #12]
 4273 02d2 4FF00008 		mov	r8, #0
 4274 02d6 EA70     		strb	r2, [r5, #3]
 4275              	.L1246:
 4276 02d8 4046     		mov	r0, r8
 4277 02da 1BB0     		add	sp, sp, #108
 4278              		@ sp needed
 4279 02dc BDEC028B 		vldm	sp!, {d8}
 4280 02e0 BDE8F08F 		pop	{r4, r5, r6, r7, r8, r9, r10, fp, pc}
 4281              	.L1291:
 4282 02e4 02F16803 		add	r3, r2, #104
 4283 02e8 6B44     		add	r3, sp, r3
 4284 02ea 7E21     		movs	r1, #126
 4285 02ec 03F8601C 		strb	r1, [r3, #-96]
 4286 02f0 3146     		mov	r1, r6
 4287 02f2 0023     		movs	r3, #0
 4288 02f4 03E0     		b	.L1235
 4289              	.L1206:
 4290 02f6 0133     		adds	r3, r3, #1
 4291 02f8 9A42     		cmp	r2, r3
 4292 02fa 7FF6D6AE 		bls	.L1205
 4293              	.L1235:
 4294 02fe 11F8010B 		ldrb	r0, [r1], #1	@ zero_extendqisi2
 4295 0302 2028     		cmp	r0, #32
 4296 0304 F7D1     		bne	.L1206
 4297 0306 D0E6     		b	.L1205
 4298              	.L1243:
 4299 0308 CC46     		mov	ip, r9
 4300 030a B3E6     		b	.L1196
 4301              	.L1236:
 4302 030c 4FF00608 		mov	r8, #6
 4303 0310 4046     		mov	r0, r8
 4304 0312 1BB0     		add	sp, sp, #108
 4305              		@ sp needed
 4306 0314 BDEC028B 		vldm	sp!, {d8}
 4307 0318 BDE8F08F 		pop	{r4, r5, r6, r7, r8, r9, r10, fp, pc}
 4308              	.L1211:
 4309 031c 0121     		movs	r1, #1
 4310 031e 2046     		mov	r0, r4
 4311 0320 FFF7FEFF 		bl	dir_alloc
 4312 0324 8046     		mov	r8, r0
 4313 0326 0028     		cmp	r0, #0
 4314 0328 D6D1     		bne	.L1246
 4315 032a A76B     		ldr	r7, [r4, #56]
 4316 032c EB6C     		ldr	r3, [r5, #76]
 4317 032e 9F42     		cmp	r7, r3
 4318 0330 ADD1     		bne	.L1213
 4319 0332 BAE7     		b	.L1214
 4320              	.L1231:
 4321 0334 4FF00108 		mov	r8, #1
 4322 0338 4FF0FF33 		mov	r3, #-1
 4323 033c 4046     		mov	r0, r8
 4324 033e EB64     		str	r3, [r5, #76]
 4325 0340 1BB0     		add	sp, sp, #108
ARM GAS  /tmp/cc2a13AN.s 			page 77


 4326              		@ sp needed
 4327 0342 BDEC028B 		vldm	sp!, {d8}
 4328 0346 BDE8F08F 		pop	{r4, r5, r6, r7, r8, r9, r10, fp, pc}
 4329              	.L1298:
 4330 034a 00BF     		.align	2
 4331              	.L1297:
 4332 034c 21100100 		.word	69665
 4333 0350 4FECC44E 		.word	1321528399
 4334 0354 00000000 		.word	.LANCHOR3
 4335              	.L1290:
 4336 0358 874A     		ldr	r2, .L1299
 4337 035a 0BF10E06 		add	r6, fp, #14
 4338 035e A2FB0636 		umull	r3, r6, r2, r6
 4339 0362 F608     		lsrs	r6, r6, #3
 4340 0364 B11C     		adds	r1, r6, #2
 4341 0366 2046     		mov	r0, r4
 4342 0368 FFF7FEFF 		bl	dir_alloc
 4343 036c 8046     		mov	r8, r0
 4344 036e 0028     		cmp	r0, #0
 4345 0370 B2D1     		bne	.L1246
 4346 0372 236B     		ldr	r3, [r4, #48]
 4347 0374 0136     		adds	r6, r6, #1
 4348 0376 A3EB4616 		sub	r6, r3, r6, lsl #5
 4349 037a E379     		ldrb	r3, [r4, #7]	@ zero_extendqisi2
 4350 037c E664     		str	r6, [r4, #76]
 4351 037e 5E07     		lsls	r6, r3, #29
 4352 0380 6FD5     		bpl	.L1188
 4353 0382 03F0FB03 		and	r3, r3, #251
 4354 0386 032B     		cmp	r3, #3
 4355 0388 E371     		strb	r3, [r4, #7]
 4356 038a 00F0E080 		beq	.L1184
 4357              	.L1186:
 4358 038e 616B     		ldr	r1, [r4, #52]
 4359 0390 4FF0FF32 		mov	r2, #-1
 4360 0394 2046     		mov	r0, r4
 4361 0396 FFF7FEFF 		bl	fill_last_frag
 4362 039a 0028     		cmp	r0, #0
 4363 039c 40F0BD80 		bne	.L1287
 4364 03a0 A368     		ldr	r3, [r4, #8]
 4365 03a2 002B     		cmp	r3, #0
 4366 03a4 5DD0     		beq	.L1188
 4367 03a6 2368     		ldr	r3, [r4]
 4368 03a8 0493     		str	r3, [sp, #16]
 4369 03aa 236A     		ldr	r3, [r4, #32]
 4370 03ac 0693     		str	r3, [sp, #24]
 4371 03ae 636A     		ldr	r3, [r4, #36]
 4372 03b0 A16A     		ldr	r1, [r4, #40]
 4373 03b2 8DF81730 		strb	r3, [sp, #23]
 4374 03b6 0990     		str	r0, [sp, #36]
 4375 03b8 23F0FF03 		bic	r3, r3, #255
 4376 03bc 0B90     		str	r0, [sp, #44]
 4377 03be 04A8     		add	r0, sp, #16
 4378 03c0 0893     		str	r3, [sp, #32]
 4379 03c2 1791     		str	r1, [sp, #92]
 4380 03c4 FFF7FEFF 		bl	dir_sdi
 4381 03c8 0028     		cmp	r0, #0
 4382 03ca 40F0A680 		bne	.L1287
ARM GAS  /tmp/cc2a13AN.s 			page 78


 4383 03ce 04A8     		add	r0, sp, #16
 4384 03d0 FFF7FEFF 		bl	load_xdir
 4385 03d4 0028     		cmp	r0, #0
 4386 03d6 40F0A080 		bne	.L1287
 4387 03da D4E90432 		ldrd	r3, r2, [r4, #16]
 4388 03de 6E89     		ldrh	r6, [r5, #10]
 4389 03e0 4FF40071 		mov	r1, #512
 4390 03e4 E6FB0132 		umlal	r3, r2, r6, r1
 4391 03e8 2969     		ldr	r1, [r5, #16]
 4392 03ea 1E0A     		lsrs	r6, r3, #8
 4393 03ec C4E90432 		strd	r3, r2, [r4, #16]
 4394 03f0 81F83830 		strb	r3, [r1, #56]
 4395 03f4 81F83960 		strb	r6, [r1, #57]
 4396 03f8 1E0C     		lsrs	r6, r3, #16
 4397 03fa 1B0E     		lsrs	r3, r3, #24
 4398 03fc 81F83B30 		strb	r3, [r1, #59]
 4399 0400 130A     		lsrs	r3, r2, #8
 4400 0402 81F83C20 		strb	r2, [r1, #60]
 4401 0406 81F83D30 		strb	r3, [r1, #61]
 4402 040a 130C     		lsrs	r3, r2, #16
 4403 040c 120E     		lsrs	r2, r2, #24
 4404 040e 81F83A60 		strb	r6, [r1, #58]
 4405 0412 81F83E30 		strb	r3, [r1, #62]
 4406 0416 81F83F20 		strb	r2, [r1, #63]
 4407 041a D4E90412 		ldrd	r1, r2, [r4, #16]
 4408 041e 2B69     		ldr	r3, [r5, #16]
 4409 0420 0E0A     		lsrs	r6, r1, #8
 4410 0422 83F82810 		strb	r1, [r3, #40]
 4411 0426 83F82960 		strb	r6, [r3, #41]
 4412 042a 0E0C     		lsrs	r6, r1, #16
 4413 042c 090E     		lsrs	r1, r1, #24
 4414 042e 83F82B10 		strb	r1, [r3, #43]
 4415 0432 110A     		lsrs	r1, r2, #8
 4416 0434 83F82C20 		strb	r2, [r3, #44]
 4417 0438 83F82D10 		strb	r1, [r3, #45]
 4418 043c 110C     		lsrs	r1, r2, #16
 4419 043e 120E     		lsrs	r2, r2, #24
 4420 0440 83F82A60 		strb	r6, [r3, #42]
 4421 0444 83F82E10 		strb	r1, [r3, #46]
 4422 0448 83F82F20 		strb	r2, [r3, #47]
 4423 044c E379     		ldrb	r3, [r4, #7]	@ zero_extendqisi2
 4424 044e 2A69     		ldr	r2, [r5, #16]
 4425 0450 43F00103 		orr	r3, r3, #1
 4426 0454 04A8     		add	r0, sp, #16
 4427 0456 82F82130 		strb	r3, [r2, #33]
 4428 045a FFF7FEFF 		bl	store_xdir
 4429 045e 0028     		cmp	r0, #0
 4430 0460 5BD1     		bne	.L1287
 4431              	.L1188:
 4432 0462 2E69     		ldr	r6, [r5, #16]
 4433 0464 EC68     		ldr	r4, [r5, #12]
 4434 0466 4022     		movs	r2, #64
 4435 0468 0021     		movs	r1, #0
 4436 046a 3046     		mov	r0, r6
 4437 046c FFF7FEFF 		bl	memset
 4438 0470 8523     		movs	r3, #133
 4439 0472 4FF0000C 		mov	ip, #0
ARM GAS  /tmp/cc2a13AN.s 			page 79


 4440 0476 3370     		strb	r3, [r6]
 4441 0478 C023     		movs	r3, #192
 4442 047a 86F82030 		strb	r3, [r6, #32]
 4443 047e E146     		mov	r9, ip
 4444 0480 0121     		movs	r1, #1
 4445 0482 4022     		movs	r2, #64
 4446 0484 6046     		mov	r0, ip
 4447 0486 C6F1040E 		rsb	lr, r6, #4
 4448 048a 4FF0C10A 		mov	r10, #193
 4449              	.L1192:
 4450 048e B318     		adds	r3, r6, r2
 4451 0490 06F802A0 		strb	r10, [r6, r2]
 4452 0494 4FF00002 		mov	r2, #0
 4453 0498 5A70     		strb	r2, [r3, #1]
 4454 049a 5FFA89F2 		uxtb	r2, r9
 4455 049e 0092     		str	r2, [sp]
 4456              	.L1191:
 4457 04a0 0029     		cmp	r1, #0
 4458 04a2 43D1     		bne	.L1189
 4459 04a4 04EB400B 		add	fp, r4, r0, lsl #1
 4460 04a8 0D46     		mov	r5, r1
 4461 04aa 0F46     		mov	r7, r1
 4462              	.L1190:
 4463 04ac 0EEB0302 		add	r2, lr, r3
 4464 04b0 DD70     		strb	r5, [r3, #3]
 4465 04b2 D506     		lsls	r5, r2, #27
 4466 04b4 9F70     		strb	r7, [r3, #2]
 4467 04b6 03F10203 		add	r3, r3, #2
 4468 04ba F1D1     		bne	.L1191
 4469 04bc BBF80050 		ldrh	r5, [fp]
 4470 04c0 09F10109 		add	r9, r9, #1
 4471 04c4 002D     		cmp	r5, #0
 4472 04c6 E2D1     		bne	.L1192
 4473 04c8 009B     		ldr	r3, [sp]
 4474 04ca 86F823C0 		strb	ip, [r6, #35]
 4475 04ce 0233     		adds	r3, r3, #2
 4476 04d0 7370     		strb	r3, [r6, #1]
 4477 04d2 34F8020B 		ldrh	r0, [r4], #2
 4478 04d6 0028     		cmp	r0, #0
 4479 04d8 4CD0     		beq	.L1241
 4480              	.L1194:
 4481 04da FFF7FEFF 		bl	ff_wtoupper
 4482 04de C3B2     		uxtb	r3, r0
 4483 04e0 03EB5503 		add	r3, r3, r5, lsr #1
 4484 04e4 03EBC533 		add	r3, r3, r5, lsl #15
 4485 04e8 9AB2     		uxth	r2, r3
 4486 04ea C0F30723 		ubfx	r3, r0, #8, #8
 4487 04ee 03EB5203 		add	r3, r3, r2, lsr #1
 4488 04f2 34F8020B 		ldrh	r0, [r4], #2
 4489 04f6 03EBC233 		add	r3, r3, r2, lsl #15
 4490 04fa 9DB2     		uxth	r5, r3
 4491 04fc 0028     		cmp	r0, #0
 4492 04fe ECD1     		bne	.L1194
 4493 0500 EBB2     		uxtb	r3, r5
 4494 0502 280A     		lsrs	r0, r5, #8
 4495              	.L1193:
 4496 0504 86F82430 		strb	r3, [r6, #36]
ARM GAS  /tmp/cc2a13AN.s 			page 80


 4497 0508 86F82500 		strb	r0, [r6, #37]
 4498 050c E4E6     		b	.L1246
 4499              	.L1217:
 4500 050e 2846     		mov	r0, r5
 4501 0510 FFF7FEFF 		bl	sync_window.part.0
 4502 0514 0028     		cmp	r0, #0
 4503 0516 3FF455AE 		beq	.L1220
 4504              	.L1287:
 4505 051a 8046     		mov	r8, r0
 4506              	.L1296:
 4507 051c 4046     		mov	r0, r8
 4508 051e 1BB0     		add	sp, sp, #108
 4509              		@ sp needed
 4510 0520 BDEC028B 		vldm	sp!, {d8}
 4511 0524 BDE8F08F 		pop	{r4, r5, r6, r7, r8, r9, r10, fp, pc}
 4512              	.L1237:
 4513 0528 8B46     		mov	fp, r1
 4514 052a 83E5     		b	.L1180
 4515              	.L1189:
 4516 052c 34F81010 		ldrh	r1, [r4, r0, lsl #1]
 4517 0530 0CF10102 		add	r2, ip, #1
 4518 0534 04EB400B 		add	fp, r4, r0, lsl #1
 4519 0538 31B1     		cbz	r1, .L1240
 4520 053a D0B2     		uxtb	r0, r2
 4521 053c 8446     		mov	ip, r0
 4522 053e CFB2     		uxtb	r7, r1
 4523 0540 0D0A     		lsrs	r5, r1, #8
 4524 0542 04EB400B 		add	fp, r4, r0, lsl #1
 4525 0546 B1E7     		b	.L1190
 4526              	.L1240:
 4527 0548 0D46     		mov	r5, r1
 4528 054a 0F46     		mov	r7, r1
 4529 054c AEE7     		b	.L1190
 4530              	.L1184:
 4531 054e 2046     		mov	r0, r4
 4532 0550 FFF7FEFF 		bl	fill_first_frag.part.0
 4533 0554 0028     		cmp	r0, #0
 4534 0556 3FF41AAF 		beq	.L1186
 4535 055a 8046     		mov	r8, r0
 4536 055c DEE7     		b	.L1296
 4537              	.L1230:
 4538 055e 2846     		mov	r0, r5
 4539 0560 FFF7FEFF 		bl	sync_window.part.0
 4540 0564 8046     		mov	r8, r0
 4541 0566 0028     		cmp	r0, #0
 4542 0568 3FF495AE 		beq	.L1233
 4543 056c B4E6     		b	.L1246
 4544              	.L1293:
 4545 056e 4FF00708 		mov	r8, #7
 4546 0572 B1E6     		b	.L1246
 4547              	.L1241:
 4548 0574 0346     		mov	r3, r0
 4549 0576 C5E7     		b	.L1193
 4550              	.L1300:
 4551              		.align	2
 4552              	.L1299:
 4553 0578 89888888 		.word	-2004318071
ARM GAS  /tmp/cc2a13AN.s 			page 81


 4554              		.size	dir_register, .-dir_register
 4555              		.section	.text.mount_volume,"ax",%progbits
 4556              		.align	1
 4557              		.p2align 4,,15
 4558              		.syntax unified
 4559              		.thumb
 4560              		.thumb_func
 4561              		.fpu fpv4-sp-d16
 4562              		.type	mount_volume, %function
 4563              	mount_volume:
 4564              		@ args = 0, pretend = 0, frame = 16
 4565              		@ frame_needed = 0, uses_anonymous_args = 0
 4566 0000 2DE9F043 		push	{r4, r5, r6, r7, r8, r9, lr}
 4567 0004 0023     		movs	r3, #0
 4568 0006 85B0     		sub	sp, sp, #20
 4569 0008 0B60     		str	r3, [r1]
 4570 000a 0F46     		mov	r7, r1
 4571 000c 1546     		mov	r5, r2
 4572 000e FFF7FEFF 		bl	get_ldnumber
 4573 0012 061E     		subs	r6, r0, #0
 4574 0014 C0F2EE80 		blt	.L1352
 4575 0018 7E4B     		ldr	r3, .L1415
 4576 001a 53F82640 		ldr	r4, [r3, r6, lsl #2]
 4577 001e 002C     		cmp	r4, #0
 4578 0020 00F0E380 		beq	.L1353
 4579 0024 6069     		ldr	r0, [r4, #20]
 4580 0026 FFF7FEFF 		bl	ff_req_grant
 4581 002a 0028     		cmp	r0, #0
 4582 002c 00F0E780 		beq	.L1354
 4583 0030 3C60     		str	r4, [r7]
 4584 0032 2378     		ldrb	r3, [r4]	@ zero_extendqisi2
 4585 0034 05F0FE05 		and	r5, r5, #254
 4586 0038 002B     		cmp	r3, #0
 4587 003a 40F09A80 		bne	.L1409
 4588              	.L1303:
 4589 003e 0023     		movs	r3, #0
 4590 0040 F0B2     		uxtb	r0, r6
 4591 0042 2370     		strb	r3, [r4]
 4592 0044 6070     		strb	r0, [r4, #1]
 4593 0046 FFF7FEFF 		bl	disk_initialize
 4594 004a C307     		lsls	r3, r0, #31
 4595 004c 00F1DC80 		bmi	.L1355
 4596 0050 15B1     		cbz	r5, .L1304
 4597 0052 4707     		lsls	r7, r0, #29
 4598 0054 00F1B780 		bmi	.L1305
 4599              	.L1304:
 4600 0058 0021     		movs	r1, #0
 4601 005a 2046     		mov	r0, r4
 4602 005c FFF7FEFF 		bl	check_fs
 4603 0060 0228     		cmp	r0, #2
 4604 0062 00F09480 		beq	.L1410
 4605 0066 0428     		cmp	r0, #4
 4606 0068 00F0D280 		beq	.L1325
 4607 006c 0128     		cmp	r0, #1
 4608 006e 00F2B780 		bhi	.L1317
 4609              	.L1312:
 4610 0072 0128     		cmp	r0, #1
ARM GAS  /tmp/cc2a13AN.s 			page 82


 4611 0074 E16C     		ldr	r1, [r4, #76]
 4612 0076 00F0A880 		beq	.L1411
 4613 007a B4F85B30 		ldrh	r3, [r4, #91]	@ unaligned
 4614 007e B3F5007F 		cmp	r3, #512
 4615 0082 40F0AD80 		bne	.L1317
 4616 0086 B4F86630 		ldrh	r3, [r4, #102]	@ unaligned
 4617 008a 03B9     		cbnz	r3, .L1336
 4618 008c 636F     		ldr	r3, [r4, #116]	@ unaligned
 4619              	.L1336:
 4620 008e 94F86020 		ldrb	r2, [r4, #96]	@ zero_extendqisi2
 4621 0092 6363     		str	r3, [r4, #52]
 4622 0094 501E     		subs	r0, r2, #1
 4623 0096 0128     		cmp	r0, #1
 4624 0098 A270     		strb	r2, [r4, #2]
 4625 009a 00F2A180 		bhi	.L1317
 4626 009e 94F85D00 		ldrb	r0, [r4, #93]	@ zero_extendqisi2
 4627 00a2 85B2     		uxth	r5, r0
 4628 00a4 6581     		strh	r5, [r4, #10]	@ movhi
 4629 00a6 002D     		cmp	r5, #0
 4630 00a8 00F09A80 		beq	.L1317
 4631 00ac 451E     		subs	r5, r0, #1
 4632 00ae 0542     		tst	r5, r0
 4633 00b0 40F09680 		bne	.L1317
 4634 00b4 B4F86160 		ldrh	r6, [r4, #97]	@ unaligned
 4635 00b8 2681     		strh	r6, [r4, #8]	@ movhi
 4636 00ba 3507     		lsls	r5, r6, #28
 4637 00bc 40F09080 		bne	.L1317
 4638 00c0 B4F86350 		ldrh	r5, [r4, #99]	@ unaligned
 4639 00c4 05B9     		cbnz	r5, .L1337
 4640 00c6 256F     		ldr	r5, [r4, #112]	@ unaligned
 4641              	.L1337:
 4642 00c8 B4F85EC0 		ldrh	ip, [r4, #94]	@ unaligned
 4643 00cc BCF1000F 		cmp	ip, #0
 4644 00d0 00F08680 		beq	.L1317
 4645 00d4 03FB02F2 		mul	r2, r3, r2
 4646 00d8 0CEB1617 		add	r7, ip, r6, lsr #4
 4647 00dc 1744     		add	r7, r7, r2
 4648 00de BD42     		cmp	r5, r7
 4649 00e0 7ED3     		bcc	.L1317
 4650 00e2 ED1B     		subs	r5, r5, r7
 4651 00e4 8542     		cmp	r5, r0
 4652 00e6 B5FBF0FE 		udiv	lr, r5, r0
 4653 00ea 79D3     		bcc	.L1317
 4654 00ec 4A48     		ldr	r0, .L1415+4
 4655 00ee 8645     		cmp	lr, r0
 4656 00f0 76D8     		bhi	.L1317
 4657 00f2 4FF6F570 		movw	r0, #65525
 4658 00f6 8645     		cmp	lr, r0
 4659 00f8 00F23F81 		bhi	.L1338
 4660 00fc 40F6F570 		movw	r0, #4085
 4661 0100 8645     		cmp	lr, r0
 4662 0102 0CEB0105 		add	r5, ip, r1
 4663 0106 0EF10200 		add	r0, lr, #2
 4664 010a 0F44     		add	r7, r7, r1
 4665 010c A163     		str	r1, [r4, #56]
 4666 010e 6764     		str	r7, [r4, #68]
 4667 0110 2063     		str	r0, [r4, #48]
ARM GAS  /tmp/cc2a13AN.s 			page 83


 4668 0112 E563     		str	r5, [r4, #60]
 4669 0114 00F25A81 		bhi	.L1339
 4670 0118 002E     		cmp	r6, #0
 4671 011a 61D0     		beq	.L1317
 4672 011c 1544     		add	r5, r5, r2
 4673 011e 00EB4001 		add	r1, r0, r0, lsl #1
 4674 0122 00F00102 		and	r2, r0, #1
 4675 0126 02EB5102 		add	r2, r2, r1, lsr #1
 4676 012a 2564     		str	r5, [r4, #64]
 4677 012c 0121     		movs	r1, #1
 4678              	.L1349:
 4679 012e 02F2FF12 		addw	r2, r2, #511
 4680 0132 B3EB522F 		cmp	r3, r2, lsr #9
 4681 0136 53D3     		bcc	.L1317
 4682 0138 4FF0FF33 		mov	r3, #-1
 4683 013c 8022     		movs	r2, #128
 4684 013e C4E90633 		strd	r3, r3, [r4, #24]
 4685 0142 2271     		strb	r2, [r4, #4]
 4686 0144 CBB2     		uxtb	r3, r1
 4687              	.L1335:
 4688 0146 3549     		ldr	r1, .L1415+8
 4689 0148 2370     		strb	r3, [r4]
 4690 014a 0A88     		ldrh	r2, [r1]
 4691 014c 0132     		adds	r2, r2, #1
 4692 014e 92B2     		uxth	r2, r2
 4693 0150 0020     		movs	r0, #0
 4694 0152 0A80     		strh	r2, [r1]	@ movhi
 4695 0154 3249     		ldr	r1, .L1415+12
 4696 0156 E280     		strh	r2, [r4, #6]	@ movhi
 4697 0158 0346     		mov	r3, r0
 4698 015a 2062     		str	r0, [r4, #32]
 4699              	.L1345:
 4700 015c 51F82320 		ldr	r2, [r1, r3, lsl #2]
 4701 0160 9442     		cmp	r4, r2
 4702 0162 08BF     		it	eq
 4703 0164 41F82300 		streq	r0, [r1, r3, lsl #2]
 4704 0168 0433     		adds	r3, r3, #4
 4705 016a 282B     		cmp	r3, #40
 4706 016c F6D1     		bne	.L1345
 4707 016e 0025     		movs	r5, #0
 4708 0170 09E0     		b	.L1358
 4709              	.L1409:
 4710 0172 6078     		ldrb	r0, [r4, #1]	@ zero_extendqisi2
 4711 0174 FFF7FEFF 		bl	disk_status
 4712 0178 C207     		lsls	r2, r0, #31
 4713 017a 3FF560AF 		bmi	.L1303
 4714 017e 15B1     		cbz	r5, .L1358
 4715 0180 10F00405 		ands	r5, r0, #4
 4716 0184 1FD1     		bne	.L1305
 4717              	.L1358:
 4718 0186 2846     		mov	r0, r5
 4719 0188 05B0     		add	sp, sp, #20
 4720              		@ sp needed
 4721 018a BDE8F083 		pop	{r4, r5, r6, r7, r8, r9, pc}
 4722              	.L1410:
 4723 018e D4F81602 		ldr	r0, [r4, #534]	@ unaligned
 4724 0192 D4F82612 		ldr	r1, [r4, #550]	@ unaligned
ARM GAS  /tmp/cc2a13AN.s 			page 84


 4725 0196 D4F83622 		ldr	r2, [r4, #566]	@ unaligned
 4726 019a D4F84632 		ldr	r3, [r4, #582]	@ unaligned
 4727 019e CDE90001 		strd	r0, r1, [sp]
 4728 01a2 CDE90223 		strd	r2, r3, [sp, #8]
 4729 01a6 6D46     		mov	r5, sp
 4730 01a8 04AE     		add	r6, sp, #16
 4731 01aa 01E0     		b	.L1309
 4732              	.L1307:
 4733 01ac B542     		cmp	r5, r6
 4734 01ae 2DD0     		beq	.L1412
 4735              	.L1309:
 4736 01b0 55F8041B 		ldr	r1, [r5], #4
 4737 01b4 0320     		movs	r0, #3
 4738 01b6 0029     		cmp	r1, #0
 4739 01b8 F8D0     		beq	.L1307
 4740 01ba 2046     		mov	r0, r4
 4741 01bc FFF7FEFF 		bl	check_fs
 4742 01c0 0128     		cmp	r0, #1
 4743 01c2 F3D8     		bhi	.L1307
 4744 01c4 55E7     		b	.L1312
 4745              	.L1305:
 4746 01c6 0A25     		movs	r5, #10
 4747 01c8 DDE7     		b	.L1358
 4748              	.L1411:
 4749 01ca 04F15A03 		add	r3, r4, #90
 4750 01ce 04F18F00 		add	r0, r4, #143
 4751 01d2 01E0     		b	.L1314
 4752              	.L1316:
 4753 01d4 9842     		cmp	r0, r3
 4754 01d6 25D0     		beq	.L1315
 4755              	.L1314:
 4756 01d8 13F8012F 		ldrb	r2, [r3, #1]!	@ zero_extendqisi2
 4757 01dc 002A     		cmp	r2, #0
 4758 01de F9D0     		beq	.L1316
 4759              	.L1317:
 4760 01e0 0D25     		movs	r5, #13
 4761 01e2 2846     		mov	r0, r5
 4762 01e4 05B0     		add	sp, sp, #20
 4763              		@ sp needed
 4764 01e6 BDE8F083 		pop	{r4, r5, r6, r7, r8, r9, pc}
 4765              	.L1353:
 4766 01ea 0C25     		movs	r5, #12
 4767 01ec 2846     		mov	r0, r5
 4768 01ee 05B0     		add	sp, sp, #20
 4769              		@ sp needed
 4770 01f0 BDE8F083 		pop	{r4, r5, r6, r7, r8, r9, pc}
 4771              	.L1352:
 4772 01f4 0B25     		movs	r5, #11
 4773 01f6 2846     		mov	r0, r5
 4774 01f8 05B0     		add	sp, sp, #20
 4775              		@ sp needed
 4776 01fa BDE8F083 		pop	{r4, r5, r6, r7, r8, r9, pc}
 4777              	.L1354:
 4778 01fe 0F25     		movs	r5, #15
 4779 0200 2846     		mov	r0, r5
 4780 0202 05B0     		add	sp, sp, #20
 4781              		@ sp needed
ARM GAS  /tmp/cc2a13AN.s 			page 85


 4782 0204 BDE8F083 		pop	{r4, r5, r6, r7, r8, r9, pc}
 4783              	.L1355:
 4784 0208 0325     		movs	r5, #3
 4785 020a BCE7     		b	.L1358
 4786              	.L1412:
 4787 020c 0428     		cmp	r0, #4
 4788 020e E7D1     		bne	.L1317
 4789              	.L1325:
 4790 0210 0125     		movs	r5, #1
 4791 0212 B8E7     		b	.L1358
 4792              	.L1416:
 4793              		.align	2
 4794              	.L1415:
 4795 0214 00000000 		.word	.LANCHOR4
 4796 0218 F5FFFF0F 		.word	268435445
 4797 021c 00000000 		.word	.LANCHOR5
 4798 0220 00000000 		.word	.LANCHOR0
 4799              	.L1315:
 4800 0224 B4F8B830 		ldrh	r3, [r4, #184]	@ unaligned
 4801 0228 B3F5807F 		cmp	r3, #256
 4802 022c D8D1     		bne	.L1317
 4803 022e 94F8BC30 		ldrb	r3, [r4, #188]	@ zero_extendqisi2
 4804 0232 092B     		cmp	r3, #9
 4805 0234 D4D1     		bne	.L1317
 4806 0236 D4F89800 		ldr	r0, [r4, #152]	@ unaligned
 4807 023a D4F89C30 		ldr	r3, [r4, #156]	@ unaligned
 4808 023e 4618     		adds	r6, r0, r1
 4809 0240 4FF0FF30 		mov	r0, #-1
 4810 0244 43F10003 		adc	r3, r3, #0
 4811 0248 B042     		cmp	r0, r6
 4812 024a 72EB0300 		sbcs	r0, r2, r3
 4813 024e C7D3     		bcc	.L1317
 4814 0250 94F8BE50 		ldrb	r5, [r4, #190]	@ zero_extendqisi2
 4815 0254 D4F8A400 		ldr	r0, [r4, #164]	@ unaligned
 4816 0258 A570     		strb	r5, [r4, #2]
 4817 025a 012D     		cmp	r5, #1
 4818 025c 6063     		str	r0, [r4, #52]
 4819 025e BFD1     		bne	.L1317
 4820 0260 94F8BD00 		ldrb	r0, [r4, #189]	@ zero_extendqisi2
 4821 0264 05FA00F0 		lsl	r0, r5, r0
 4822 0268 87B2     		uxth	r7, r0
 4823 026a 6781     		strh	r7, [r4, #10]	@ movhi
 4824 026c 002F     		cmp	r7, #0
 4825 026e B7D0     		beq	.L1317
 4826 0270 D4F8AC70 		ldr	r7, [r4, #172]	@ unaligned
 4827 0274 DFF8B4C1 		ldr	ip, .L1417+4
 4828 0278 6745     		cmp	r7, ip
 4829 027a B1D8     		bhi	.L1317
 4830 027c 80B2     		uxth	r0, r0
 4831 027e 07FB00F0 		mul	r0, r7, r0
 4832 0282 0237     		adds	r7, r7, #2
 4833 0284 2763     		str	r7, [r4, #48]
 4834 0286 D4F8A870 		ldr	r7, [r4, #168]	@ unaligned
 4835 028a A163     		str	r1, [r4, #56]
 4836 028c 0F44     		add	r7, r7, r1
 4837 028e C019     		adds	r0, r0, r7
 4838 0290 6764     		str	r7, [r4, #68]
ARM GAS  /tmp/cc2a13AN.s 			page 86


 4839 0292 D4F8A070 		ldr	r7, [r4, #160]	@ unaligned
 4840 0296 3944     		add	r1, r1, r7
 4841 0298 E163     		str	r1, [r4, #60]
 4842 029a 42EB0201 		adc	r1, r2, r2
 4843 029e 8642     		cmp	r6, r0
 4844 02a0 8B41     		sbcs	r3, r3, r1
 4845 02a2 9DD3     		bcc	.L1317
 4846 02a4 D4F8B030 		ldr	r3, [r4, #176]	@ unaligned
 4847 02a8 2364     		str	r3, [r4, #64]
 4848 02aa 1646     		mov	r6, r2
 4849 02ac 9046     		mov	r8, r2
 4850 02ae 04F15009 		add	r9, r4, #80
 4851              	.L1327:
 4852 02b2 06BB     		cbnz	r6, .L1318
 4853 02b4 6189     		ldrh	r1, [r4, #10]
 4854 02b6 4145     		cmp	r1, r8
 4855 02b8 92D9     		bls	.L1317
 4856 02ba 236C     		ldr	r3, [r4, #64]
 4857 02bc 226B     		ldr	r2, [r4, #48]
 4858 02be 023B     		subs	r3, r3, #2
 4859 02c0 023A     		subs	r2, r2, #2
 4860 02c2 9342     		cmp	r3, r2
 4861 02c4 3EBF     		ittt	cc
 4862 02c6 626C     		ldrcc	r2, [r4, #68]
 4863 02c8 03FB0123 		mlacc	r3, r3, r1, r2
 4864 02cc 03EB0807 		addcc	r7, r3, r8
 4865 02d0 E36C     		ldr	r3, [r4, #76]
 4866 02d2 28BF     		it	cs
 4867 02d4 4746     		movcs	r7, r8
 4868 02d6 BB42     		cmp	r3, r7
 4869 02d8 0BD0     		beq	.L1320
 4870 02da E378     		ldrb	r3, [r4, #3]	@ zero_extendqisi2
 4871 02dc 002B     		cmp	r3, #0
 4872 02de 46D1     		bne	.L1321
 4873              	.L1324:
 4874 02e0 6078     		ldrb	r0, [r4, #1]	@ zero_extendqisi2
 4875 02e2 0123     		movs	r3, #1
 4876 02e4 3A46     		mov	r2, r7
 4877 02e6 4946     		mov	r1, r9
 4878 02e8 FFF7FEFF 		bl	disk_read
 4879 02ec 0028     		cmp	r0, #0
 4880 02ee 3AD1     		bne	.L1330
 4881 02f0 E764     		str	r7, [r4, #76]
 4882              	.L1320:
 4883 02f2 08F10108 		add	r8, r8, #1
 4884              	.L1318:
 4885 02f6 A319     		adds	r3, r4, r6
 4886 02f8 93F85030 		ldrb	r3, [r3, #80]	@ zero_extendqisi2
 4887 02fc 812B     		cmp	r3, #129
 4888 02fe 04D0     		beq	.L1326
 4889 0300 06F12002 		add	r2, r6, #32
 4890 0304 C2F30806 		ubfx	r6, r2, #0, #9
 4891 0308 D3E7     		b	.L1327
 4892              	.L1326:
 4893 030a 04F15008 		add	r8, r4, #80
 4894 030e 08EB0602 		add	r2, r8, r6
 4895 0312 5769     		ldr	r7, [r2, #20]	@ unaligned
ARM GAS  /tmp/cc2a13AN.s 			page 87


 4896 0314 012F     		cmp	r7, #1
 4897 0316 7FF663AF 		bls	.L1317
 4898 031a 236B     		ldr	r3, [r4, #48]
 4899 031c BB42     		cmp	r3, r7
 4900 031e 7FF65FAF 		bls	.L1317
 4901 0322 6289     		ldrh	r2, [r4, #10]
 4902 0324 636C     		ldr	r3, [r4, #68]
 4903 0326 B91E     		subs	r1, r7, #2
 4904 0328 01FB0233 		mla	r3, r1, r2, r3
 4905 032c A364     		str	r3, [r4, #72]
 4906 032e 0AE0     		b	.L1334
 4907              	.L1413:
 4908 0330 E664     		str	r6, [r4, #76]
 4909              	.L1328:
 4910 0332 07F07F03 		and	r3, r7, #127
 4911 0336 0137     		adds	r7, r7, #1
 4912 0338 58F82330 		ldr	r3, [r8, r3, lsl #2]	@ unaligned
 4913 033c 5E1C     		adds	r6, r3, #1
 4914 033e 4DD0     		beq	.L1333
 4915 0340 9F42     		cmp	r7, r3
 4916 0342 7FF44DAF 		bne	.L1317
 4917              	.L1334:
 4918 0346 E66B     		ldr	r6, [r4, #60]
 4919 0348 E36C     		ldr	r3, [r4, #76]
 4920 034a 06EBD716 		add	r6, r6, r7, lsr #7
 4921 034e 9E42     		cmp	r6, r3
 4922 0350 EFD0     		beq	.L1328
 4923 0352 E378     		ldrb	r3, [r4, #3]	@ zero_extendqisi2
 4924 0354 A3BB     		cbnz	r3, .L1329
 4925              	.L1332:
 4926 0356 6078     		ldrb	r0, [r4, #1]	@ zero_extendqisi2
 4927 0358 0123     		movs	r3, #1
 4928 035a 3246     		mov	r2, r6
 4929 035c 4146     		mov	r1, r8
 4930 035e FFF7FEFF 		bl	disk_read
 4931 0362 0028     		cmp	r0, #0
 4932 0364 E4D0     		beq	.L1413
 4933              	.L1330:
 4934 0366 4FF0FF33 		mov	r3, #-1
 4935 036a E364     		str	r3, [r4, #76]
 4936 036c 0BE7     		b	.L1358
 4937              	.L1321:
 4938 036e 2046     		mov	r0, r4
 4939 0370 FFF7FEFF 		bl	sync_window.part.0
 4940 0374 0028     		cmp	r0, #0
 4941 0376 B3D0     		beq	.L1324
 4942 0378 4AE7     		b	.L1325
 4943              	.L1338:
 4944 037a 0CEB0100 		add	r0, ip, r1
 4945 037e E063     		str	r0, [r4, #60]
 4946 0380 B4F87A00 		ldrh	r0, [r4, #122]	@ unaligned
 4947 0384 A163     		str	r1, [r4, #56]
 4948 0386 0EF10202 		add	r2, lr, #2
 4949 038a 0F44     		add	r7, r7, r1
 4950 038c 3043     		orrs	r0, r0, r6
 4951 038e 6764     		str	r7, [r4, #68]
 4952 0390 2263     		str	r2, [r4, #48]
ARM GAS  /tmp/cc2a13AN.s 			page 88


 4953 0392 7FF425AF 		bne	.L1317
 4954 0396 9200     		lsls	r2, r2, #2
 4955 0398 02F2FF12 		addw	r2, r2, #511
 4956 039c E06F     		ldr	r0, [r4, #124]	@ unaligned
 4957 039e 2064     		str	r0, [r4, #64]
 4958 03a0 B3EB522F 		cmp	r3, r2, lsr #9
 4959 03a4 FFF41CAF 		bcc	.L1317
 4960 03a8 B4F88020 		ldrh	r2, [r4, #128]	@ unaligned
 4961 03ac 4FF0FF33 		mov	r3, #-1
 4962 03b0 8020     		movs	r0, #128
 4963 03b2 012A     		cmp	r2, #1
 4964 03b4 C4E90633 		strd	r3, r3, [r4, #24]
 4965 03b8 2071     		strb	r0, [r4, #4]
 4966 03ba 13D0     		beq	.L1414
 4967              	.L1408:
 4968 03bc 0323     		movs	r3, #3
 4969 03be C2E6     		b	.L1335
 4970              	.L1329:
 4971 03c0 2046     		mov	r0, r4
 4972 03c2 FFF7FEFF 		bl	sync_window.part.0
 4973 03c6 0028     		cmp	r0, #0
 4974 03c8 C5D0     		beq	.L1332
 4975 03ca 21E7     		b	.L1325
 4976              	.L1339:
 4977 03cc 002E     		cmp	r6, #0
 4978 03ce 3FF407AF 		beq	.L1317
 4979 03d2 2A44     		add	r2, r2, r5
 4980 03d4 2264     		str	r2, [r4, #64]
 4981 03d6 0221     		movs	r1, #2
 4982 03d8 4200     		lsls	r2, r0, #1
 4983 03da A8E6     		b	.L1349
 4984              	.L1333:
 4985 03dc C4E90633 		strd	r3, r3, [r4, #24]
 4986 03e0 0423     		movs	r3, #4
 4987 03e2 B0E6     		b	.L1335
 4988              	.L1414:
 4989 03e4 0131     		adds	r1, r1, #1
 4990 03e6 2046     		mov	r0, r4
 4991 03e8 FFF7FEFF 		bl	move_window.part.0
 4992 03ec 0028     		cmp	r0, #0
 4993 03ee E5D1     		bne	.L1408
 4994 03f0 B4F84E22 		ldrh	r2, [r4, #590]	@ unaligned
 4995 03f4 2071     		strb	r0, [r4, #4]
 4996 03f6 4AF65523 		movw	r3, #43605
 4997 03fa 9A42     		cmp	r2, r3
 4998 03fc DED1     		bne	.L1408
 4999 03fe 226D     		ldr	r2, [r4, #80]	@ unaligned
 5000 0400 094B     		ldr	r3, .L1417
 5001 0402 9A42     		cmp	r2, r3
 5002 0404 DAD1     		bne	.L1408
 5003 0406 03F1FF53 		add	r3, r3, #534773760
 5004 040a D4F83422 		ldr	r2, [r4, #564]	@ unaligned
 5005 040e 03F50053 		add	r3, r3, #8192
 5006 0412 2033     		adds	r3, r3, #32
 5007 0414 9A42     		cmp	r2, r3
 5008 0416 D1D1     		bne	.L1408
 5009 0418 D4F83822 		ldr	r2, [r4, #568]	@ unaligned
ARM GAS  /tmp/cc2a13AN.s 			page 89


 5010 041c D4F83C32 		ldr	r3, [r4, #572]	@ unaligned
 5011 0420 C4E90632 		strd	r3, r2, [r4, #24]
 5012 0424 CAE7     		b	.L1408
 5013              	.L1418:
 5014 0426 00BF     		.align	2
 5015              	.L1417:
 5016 0428 52526141 		.word	1096897106
 5017 042c FDFFFF7F 		.word	2147483645
 5018              		.size	mount_volume, .-mount_volume
 5019              		.section	.text.f_mount,"ax",%progbits
 5020              		.align	1
 5021              		.p2align 4,,15
 5022              		.global	f_mount
 5023              		.syntax unified
 5024              		.thumb
 5025              		.thumb_func
 5026              		.fpu fpv4-sp-d16
 5027              		.type	f_mount, %function
 5028              	f_mount:
 5029              		@ args = 0, pretend = 0, frame = 16
 5030              		@ frame_needed = 0, uses_anonymous_args = 0
 5031 0000 2DE9F041 		push	{r4, r5, r6, r7, r8, lr}
 5032 0004 84B0     		sub	sp, sp, #16
 5033 0006 1646     		mov	r6, r2
 5034 0008 0190     		str	r0, [sp, #4]
 5035 000a 03A8     		add	r0, sp, #12
 5036 000c 0091     		str	r1, [sp]
 5037 000e 0391     		str	r1, [sp, #12]
 5038 0010 FFF7FEFF 		bl	get_ldnumber
 5039 0014 071E     		subs	r7, r0, #0
 5040 0016 3ADB     		blt	.L1428
 5041 0018 DFF88C80 		ldr	r8, .L1454+4
 5042 001c 58F82740 		ldr	r4, [r8, r7, lsl #2]
 5043 0020 8CB1     		cbz	r4, .L1422
 5044 0022 0023     		movs	r3, #0
 5045 0024 1F4D     		ldr	r5, .L1454
 5046 0026 1A46     		mov	r2, r3
 5047              	.L1424:
 5048 0028 55F82310 		ldr	r1, [r5, r3, lsl #2]
 5049 002c 8C42     		cmp	r4, r1
 5050 002e 08BF     		it	eq
 5051 0030 45F82320 		streq	r2, [r5, r3, lsl #2]
 5052 0034 0433     		adds	r3, r3, #4
 5053 0036 282B     		cmp	r3, #40
 5054 0038 F6D1     		bne	.L1424
 5055 003a 6069     		ldr	r0, [r4, #20]
 5056 003c FFF7FEFF 		bl	ff_del_syncobj
 5057 0040 50B3     		cbz	r0, .L1427
 5058 0042 0023     		movs	r3, #0
 5059 0044 2370     		strb	r3, [r4]
 5060              	.L1422:
 5061 0046 0199     		ldr	r1, [sp, #4]
 5062 0048 39B1     		cbz	r1, .L1426
 5063 004a 0023     		movs	r3, #0
 5064 004c 01F8143B 		strb	r3, [r1], #20
 5065 0050 F8B2     		uxtb	r0, r7
 5066 0052 FFF7FEFF 		bl	ff_cre_syncobj
ARM GAS  /tmp/cc2a13AN.s 			page 90


 5067 0056 F8B1     		cbz	r0, .L1427
 5068 0058 0199     		ldr	r1, [sp, #4]
 5069              	.L1426:
 5070 005a 48F82710 		str	r1, [r8, r7, lsl #2]
 5071 005e 1EB9     		cbnz	r6, .L1453
 5072              	.L1421:
 5073 0060 3046     		mov	r0, r6
 5074 0062 04B0     		add	sp, sp, #16
 5075              		@ sp needed
 5076 0064 BDE8F081 		pop	{r4, r5, r6, r7, r8, pc}
 5077              	.L1453:
 5078 0068 0022     		movs	r2, #0
 5079 006a 01A9     		add	r1, sp, #4
 5080 006c 6846     		mov	r0, sp
 5081 006e FFF7FEFF 		bl	mount_volume
 5082 0072 019B     		ldr	r3, [sp, #4]
 5083 0074 0646     		mov	r6, r0
 5084 0076 002B     		cmp	r3, #0
 5085 0078 F2D0     		beq	.L1421
 5086 007a 0C28     		cmp	r0, #12
 5087 007c F0D0     		beq	.L1421
 5088 007e 0B28     		cmp	r0, #11
 5089 0080 05D0     		beq	.L1428
 5090 0082 0F28     		cmp	r0, #15
 5091 0084 ECD0     		beq	.L1421
 5092 0086 5869     		ldr	r0, [r3, #20]
 5093 0088 FFF7FEFF 		bl	ff_rel_grant
 5094 008c E8E7     		b	.L1421
 5095              	.L1428:
 5096 008e 0B26     		movs	r6, #11
 5097 0090 3046     		mov	r0, r6
 5098 0092 04B0     		add	sp, sp, #16
 5099              		@ sp needed
 5100 0094 BDE8F081 		pop	{r4, r5, r6, r7, r8, pc}
 5101              	.L1427:
 5102 0098 0226     		movs	r6, #2
 5103 009a 3046     		mov	r0, r6
 5104 009c 04B0     		add	sp, sp, #16
 5105              		@ sp needed
 5106 009e BDE8F081 		pop	{r4, r5, r6, r7, r8, pc}
 5107              	.L1455:
 5108 00a2 00BF     		.align	2
 5109              	.L1454:
 5110 00a4 00000000 		.word	.LANCHOR0
 5111 00a8 00000000 		.word	.LANCHOR4
 5112              		.size	f_mount, .-f_mount
 5113              		.section	.text.f_getfs,"ax",%progbits
 5114              		.align	1
 5115              		.p2align 4,,15
 5116              		.global	f_getfs
 5117              		.syntax unified
 5118              		.thumb
 5119              		.thumb_func
 5120              		.fpu fpv4-sp-d16
 5121              		.type	f_getfs, %function
 5122              	f_getfs:
 5123              		@ args = 0, pretend = 0, frame = 8
ARM GAS  /tmp/cc2a13AN.s 			page 91


 5124              		@ frame_needed = 0, uses_anonymous_args = 0
 5125 0000 00B5     		push	{lr}
 5126 0002 83B0     		sub	sp, sp, #12
 5127 0004 0190     		str	r0, [sp, #4]
 5128 0006 01A8     		add	r0, sp, #4
 5129 0008 FFF7FEFF 		bl	get_ldnumber
 5130 000c 0028     		cmp	r0, #0
 5131 000e A6BF     		itte	ge
 5132 0010 034B     		ldrge	r3, .L1460
 5133 0012 53F82000 		ldrge	r0, [r3, r0, lsl #2]
 5134 0016 0020     		movlt	r0, #0
 5135 0018 03B0     		add	sp, sp, #12
 5136              		@ sp needed
 5137 001a 5DF804FB 		ldr	pc, [sp], #4
 5138              	.L1461:
 5139 001e 00BF     		.align	2
 5140              	.L1460:
 5141 0020 00000000 		.word	.LANCHOR4
 5142              		.size	f_getfs, .-f_getfs
 5143              		.section	.text.f_open,"ax",%progbits
 5144              		.align	1
 5145              		.p2align 4,,15
 5146              		.global	f_open
 5147              		.syntax unified
 5148              		.thumb
 5149              		.thumb_func
 5150              		.fpu fpv4-sp-d16
 5151              		.type	f_open, %function
 5152              	f_open:
 5153              		@ args = 0, pretend = 0, frame = 1224
 5154              		@ frame_needed = 0, uses_anonymous_args = 0
 5155 0000 2DE9F04F 		push	{r4, r5, r6, r7, r8, r9, r10, fp, lr}
 5156 0004 ADF2CC4D 		subw	sp, sp, #1228
 5157 0008 0191     		str	r1, [sp, #4]
 5158 000a 0028     		cmp	r0, #0
 5159 000c 43D0     		beq	.L1514
 5160 000e 02F03F07 		and	r7, r2, #63
 5161 0012 1646     		mov	r6, r2
 5162 0014 0446     		mov	r4, r0
 5163 0016 3A46     		mov	r2, r7
 5164 0018 03A9     		add	r1, sp, #12
 5165 001a 01A8     		add	r0, sp, #4
 5166 001c FFF7FEFF 		bl	mount_volume
 5167 0020 0546     		mov	r5, r0
 5168 0022 58B1     		cbz	r0, .L1568
 5169              	.L1464:
 5170 0024 039E     		ldr	r6, [sp, #12]
 5171 0026 0023     		movs	r3, #0
 5172 0028 2360     		str	r3, [r4]
 5173 002a 16B1     		cbz	r6, .L1530
 5174 002c 0C2D     		cmp	r5, #12
 5175 002e 40F00281 		bne	.L1569
 5176              	.L1530:
 5177 0032 2846     		mov	r0, r5
 5178 0034 0DF2CC4D 		addw	sp, sp, #1228
 5179              		@ sp needed
 5180 0038 BDE8F08F 		pop	{r4, r5, r6, r7, r8, r9, r10, fp, pc}
ARM GAS  /tmp/cc2a13AN.s 			page 92


 5181              	.L1568:
 5182 003c 039B     		ldr	r3, [sp, #12]
 5183 003e 0199     		ldr	r1, [sp, #4]
 5184 0040 0493     		str	r3, [sp, #16]
 5185 0042 1AAA     		add	r2, sp, #104
 5186 0044 DA60     		str	r2, [r3, #12]
 5187 0046 9AAA     		add	r2, sp, #616
 5188 0048 1A61     		str	r2, [r3, #16]
 5189 004a 04A8     		add	r0, sp, #16
 5190 004c FFF7FEFF 		bl	follow_path
 5191 0050 0346     		mov	r3, r0
 5192 0052 D8B9     		cbnz	r0, .L1465
 5193 0054 9DF95B30 		ldrsb	r3, [sp, #91]
 5194 0058 002B     		cmp	r3, #0
 5195 005a 3ADB     		blt	.L1570
 5196 005c 17F0FE0F 		tst	r7, #254
 5197 0060 14BF     		ite	ne
 5198 0062 0121     		movne	r1, #1
 5199 0064 0021     		moveq	r1, #0
 5200 0066 04A8     		add	r0, sp, #16
 5201 0068 FFF7FEFF 		bl	chk_lock
 5202 006c 16F01C0F 		tst	r6, #28
 5203 0070 0346     		mov	r3, r0
 5204 0072 16D0     		beq	.L1468
 5205 0074 0028     		cmp	r0, #0
 5206 0076 32D1     		bne	.L1511
 5207 0078 9DF81630 		ldrb	r3, [sp, #22]	@ zero_extendqisi2
 5208 007c 13F0110F 		tst	r3, #17
 5209 0080 47D0     		beq	.L1474
 5210 0082 039E     		ldr	r6, [sp, #12]
 5211 0084 2560     		str	r5, [r4]
 5212 0086 DEB9     		cbnz	r6, .L1524
 5213              	.L1493:
 5214 0088 0725     		movs	r5, #7
 5215 008a D2E7     		b	.L1530
 5216              	.L1465:
 5217 008c 16F01C0F 		tst	r6, #28
 5218 0090 25D1     		bne	.L1511
 5219              	.L1522:
 5220 0092 0546     		mov	r5, r0
 5221 0094 C6E7     		b	.L1464
 5222              	.L1514:
 5223 0096 0925     		movs	r5, #9
 5224 0098 2846     		mov	r0, r5
 5225 009a 0DF2CC4D 		addw	sp, sp, #1228
 5226              		@ sp needed
 5227 009e BDE8F08F 		pop	{r4, r5, r6, r7, r8, r9, r10, fp, pc}
 5228              	.L1468:
 5229 00a2 0028     		cmp	r0, #0
 5230 00a4 F5D1     		bne	.L1522
 5231 00a6 9DF81630 		ldrb	r3, [sp, #22]	@ zero_extendqisi2
 5232 00aa 13F01002 		ands	r2, r3, #16
 5233 00ae 2AD1     		bne	.L1571
 5234 00b0 B007     		lsls	r0, r6, #30
 5235 00b2 37D5     		bpl	.L1480
 5236 00b4 DE07     		lsls	r6, r3, #31
 5237 00b6 35D5     		bpl	.L1480
ARM GAS  /tmp/cc2a13AN.s 			page 93


 5238 00b8 039E     		ldr	r6, [sp, #12]
 5239 00ba 2260     		str	r2, [r4]
 5240 00bc 002E     		cmp	r6, #0
 5241 00be E3D0     		beq	.L1493
 5242              	.L1524:
 5243 00c0 0725     		movs	r5, #7
 5244              	.L1475:
 5245 00c2 7069     		ldr	r0, [r6, #20]
 5246 00c4 FFF7FEFF 		bl	ff_rel_grant
 5247              	.L1583:
 5248 00c8 2846     		mov	r0, r5
 5249 00ca 0DF2CC4D 		addw	sp, sp, #1228
 5250              		@ sp needed
 5251 00ce BDE8F08F 		pop	{r4, r5, r6, r7, r8, r9, r10, fp, pc}
 5252              	.L1570:
 5253 00d2 039E     		ldr	r6, [sp, #12]
 5254 00d4 2560     		str	r5, [r4]
 5255 00d6 0625     		movs	r5, #6
 5256 00d8 002E     		cmp	r6, #0
 5257 00da F2D1     		bne	.L1475
 5258 00dc A9E7     		b	.L1530
 5259              	.L1511:
 5260 00de 042B     		cmp	r3, #4
 5261 00e0 40F03681 		bne	.L1572
 5262 00e4 A849     		ldr	r1, .L1584
 5263 00e6 0023     		movs	r3, #0
 5264              	.L1470:
 5265 00e8 51F82320 		ldr	r2, [r1, r3, lsl #2]
 5266 00ec 0433     		adds	r3, r3, #4
 5267 00ee 002A     		cmp	r2, #0
 5268 00f0 00F0A880 		beq	.L1573
 5269 00f4 282B     		cmp	r3, #40
 5270 00f6 F7D1     		bne	.L1470
 5271 00f8 1225     		movs	r5, #18
 5272              	.L1471:
 5273 00fa 039E     		ldr	r6, [sp, #12]
 5274 00fc 0023     		movs	r3, #0
 5275 00fe 2360     		str	r3, [r4]
 5276 0100 002E     		cmp	r6, #0
 5277 0102 96D0     		beq	.L1530
 5278 0104 DDE7     		b	.L1475
 5279              	.L1571:
 5280 0106 039E     		ldr	r6, [sp, #12]
 5281 0108 2560     		str	r5, [r4]
 5282 010a 1425     		movs	r5, #20
 5283 010c 002E     		cmp	r6, #0
 5284 010e D8D1     		bne	.L1475
 5285 0110 8FE7     		b	.L1530
 5286              	.L1474:
 5287 0112 7307     		lsls	r3, r6, #29
 5288 0114 40F11781 		bpl	.L1476
 5289 0118 039E     		ldr	r6, [sp, #12]
 5290 011a 2560     		str	r5, [r4]
 5291 011c 0825     		movs	r5, #8
 5292 011e 002E     		cmp	r6, #0
 5293 0120 CFD1     		bne	.L1475
 5294 0122 86E7     		b	.L1530
ARM GAS  /tmp/cc2a13AN.s 			page 94


 5295              	.L1480:
 5296 0124 DDF80C80 		ldr	r8, [sp, #12]
 5297              	.L1481:
 5298 0128 3807     		lsls	r0, r7, #28
 5299 012a 7ED5     		bpl	.L1574
 5300 012c 47F04007 		orr	r7, r7, #64
 5301 0130 0121     		movs	r1, #1
 5302              	.L1478:
 5303 0132 D8F84C30 		ldr	r3, [r8, #76]
 5304 0136 A364     		str	r3, [r4, #72]
 5305 0138 139B     		ldr	r3, [sp, #76]
 5306 013a E364     		str	r3, [r4, #76]
 5307 013c 04A8     		add	r0, sp, #16
 5308 013e FFF7FEFF 		bl	inc_lock
 5309 0142 039E     		ldr	r6, [sp, #12]
 5310 0144 E062     		str	r0, [r4, #44]
 5311 0146 20B9     		cbnz	r0, .L1495
 5312 0148 2060     		str	r0, [r4]
 5313 014a 0225     		movs	r5, #2
 5314 014c 002E     		cmp	r6, #0
 5315 014e B8D1     		bne	.L1475
 5316 0150 6FE7     		b	.L1530
 5317              	.L1495:
 5318 0152 3378     		ldrb	r3, [r6]	@ zero_extendqisi2
 5319 0154 042B     		cmp	r3, #4
 5320 0156 00F0E580 		beq	.L1575
 5321 015a 139A     		ldr	r2, [sp, #76]
 5322 015c 032B     		cmp	r3, #3
 5323 015e 08BF     		it	eq
 5324 0160 938A     		ldrheq	r3, [r2, #20]	@ unaligned
 5325 0162 518B     		ldrh	r1, [r2, #26]	@ unaligned
 5326 0164 08BF     		it	eq
 5327 0166 41EA0341 		orreq	r1, r1, r3, lsl #16
 5328 016a A160     		str	r1, [r4, #8]
 5329 016c D369     		ldr	r3, [r2, #28]	@ unaligned
 5330 016e 2361     		str	r3, [r4, #16]
 5331 0170 0023     		movs	r3, #0
 5332 0172 6361     		str	r3, [r4, #20]
 5333              	.L1497:
 5334 0174 F388     		ldrh	r3, [r6, #6]
 5335 0176 2660     		str	r6, [r4]
 5336 0178 4FF00009 		mov	r9, #0
 5337 017c 04F15408 		add	r8, r4, #84
 5338 0180 4FF0000A 		mov	r10, #0
 5339 0184 4FF0000B 		mov	fp, #0
 5340 0188 4FF40072 		mov	r2, #512
 5341 018c C4E90EAB 		strd	r10, [r4, #56]
 5342 0190 A380     		strh	r3, [r4, #4]	@ movhi
 5343 0192 84F83070 		strb	r7, [r4, #48]
 5344 0196 C4F85090 		str	r9, [r4, #80]
 5345 019a 84F83190 		strb	r9, [r4, #49]
 5346 019e C4F84490 		str	r9, [r4, #68]
 5347 01a2 4946     		mov	r1, r9
 5348 01a4 4046     		mov	r0, r8
 5349 01a6 FFF7FEFF 		bl	memset
 5350 01aa BA06     		lsls	r2, r7, #26
 5351 01ac 89D5     		bpl	.L1475
ARM GAS  /tmp/cc2a13AN.s 			page 95


 5352 01ae D4E9047A 		ldrd	r7, r10, [r4, #16]
 5353 01b2 57EA0A03 		orrs	r3, r7, r10
 5354 01b6 84D0     		beq	.L1475
 5355 01b8 B6F80AB0 		ldrh	fp, [r6, #10]
 5356 01bc A168     		ldr	r1, [r4, #8]
 5357 01be 4FEA4B2B 		lsl	fp, fp, #9
 5358 01c2 BB45     		cmp	fp, r7
 5359 01c4 79EB0A03 		sbcs	r3, r9, r10
 5360 01c8 C4E90E7A 		strd	r7, r10, [r4, #56]
 5361 01cc 0BD3     		bcc	.L1502
 5362 01ce 27E1     		b	.L1500
 5363              	.L1577:
 5364 01d0 431C     		adds	r3, r0, #1
 5365 01d2 28D0     		beq	.L1527
 5366 01d4 B7EB0B07 		subs	r7, r7, fp
 5367 01d8 6AF1000A 		sbc	r10, r10, #0
 5368 01dc BB45     		cmp	fp, r7
 5369 01de 79EB0A03 		sbcs	r3, r9, r10
 5370 01e2 80F0B780 		bcs	.L1576
 5371              	.L1502:
 5372 01e6 2046     		mov	r0, r4
 5373 01e8 FFF7FEFF 		bl	get_fat
 5374 01ec 0128     		cmp	r0, #1
 5375 01ee 0146     		mov	r1, r0
 5376 01f0 EED8     		bhi	.L1577
 5377 01f2 0225     		movs	r5, #2
 5378              	.L1501:
 5379 01f4 2164     		str	r1, [r4, #64]
 5380              	.L1504:
 5381 01f6 E36A     		ldr	r3, [r4, #44]
 5382 01f8 013B     		subs	r3, r3, #1
 5383 01fa 092B     		cmp	r3, #9
 5384 01fc 3FF67DAF 		bhi	.L1471
 5385 0200 6149     		ldr	r1, .L1584
 5386 0202 1801     		lsls	r0, r3, #4
 5387 0204 01EB0313 		add	r3, r1, r3, lsl #4
 5388 0208 9A89     		ldrh	r2, [r3, #12]
 5389 020a B2F5807F 		cmp	r2, #256
 5390 020e 00F00281 		beq	.L1578
 5391 0212 2AB1     		cbz	r2, .L1507
 5392 0214 013A     		subs	r2, r2, #1
 5393 0216 92B2     		uxth	r2, r2
 5394 0218 9A81     		strh	r2, [r3, #12]	@ movhi
 5395 021a 002A     		cmp	r2, #0
 5396 021c 7FF46DAF 		bne	.L1471
 5397              	.L1507:
 5398 0220 0023     		movs	r3, #0
 5399 0222 0B50     		str	r3, [r1, r0]
 5400 0224 69E7     		b	.L1471
 5401              	.L1527:
 5402 0226 0125     		movs	r5, #1
 5403 0228 E4E7     		b	.L1501
 5404              	.L1574:
 5405 022a 17F0FE0F 		tst	r7, #254
 5406 022e 14BF     		ite	ne
 5407 0230 0121     		movne	r1, #1
 5408 0232 0021     		moveq	r1, #0
ARM GAS  /tmp/cc2a13AN.s 			page 96


 5409 0234 7DE7     		b	.L1478
 5410              	.L1569:
 5411 0236 0B2D     		cmp	r5, #11
 5412 0238 3FF4FBAE 		beq	.L1530
 5413 023c 0F2D     		cmp	r5, #15
 5414 023e 3FF4F8AE 		beq	.L1530
 5415 0242 3EE7     		b	.L1475
 5416              	.L1573:
 5417 0244 04A8     		add	r0, sp, #16
 5418 0246 47F00807 		orr	r7, r7, #8
 5419 024a FFF7FEFF 		bl	dir_register
 5420 024e 0028     		cmp	r0, #0
 5421 0250 7FF41FAF 		bne	.L1522
 5422              	.L1477:
 5423 0254 039B     		ldr	r3, [sp, #12]
 5424 0256 1A78     		ldrb	r2, [r3]	@ zero_extendqisi2
 5425 0258 042A     		cmp	r2, #4
 5426 025a 00F09780 		beq	.L1579
 5427 025e FFF7FEFF 		bl	get_fattime
 5428 0262 139B     		ldr	r3, [sp, #76]
 5429 0264 DDF80C80 		ldr	r8, [sp, #12]
 5430 0268 C0F30721 		ubfx	r1, r0, #8, #8
 5431 026c C0F30742 		ubfx	r2, r0, #16, #8
 5432 0270 C6B2     		uxtb	r6, r0
 5433 0272 000E     		lsrs	r0, r0, #24
 5434 0274 9E73     		strb	r6, [r3, #14]
 5435 0276 D973     		strb	r1, [r3, #15]
 5436 0278 1A74     		strb	r2, [r3, #16]
 5437 027a 5874     		strb	r0, [r3, #17]
 5438 027c 139B     		ldr	r3, [sp, #76]
 5439 027e 9E75     		strb	r6, [r3, #22]
 5440 0280 D975     		strb	r1, [r3, #23]
 5441 0282 1A76     		strb	r2, [r3, #24]
 5442 0284 5876     		strb	r0, [r3, #25]
 5443 0286 98F80020 		ldrb	r2, [r8]	@ zero_extendqisi2
 5444 028a 139B     		ldr	r3, [sp, #76]
 5445 028c 032A     		cmp	r2, #3
 5446 028e B3F81A90 		ldrh	r9, [r3, #26]	@ unaligned
 5447 0292 04BF     		itt	eq
 5448 0294 9A8A     		ldrheq	r2, [r3, #20]	@ unaligned
 5449 0296 49EA0249 		orreq	r9, r9, r2, lsl #16
 5450 029a 2022     		movs	r2, #32
 5451 029c DA72     		strb	r2, [r3, #11]
 5452 029e 139B     		ldr	r3, [sp, #76]
 5453 02a0 0022     		movs	r2, #0
 5454 02a2 9A76     		strb	r2, [r3, #26]
 5455 02a4 DA76     		strb	r2, [r3, #27]
 5456 02a6 98F80010 		ldrb	r1, [r8]	@ zero_extendqisi2
 5457 02aa 0329     		cmp	r1, #3
 5458 02ac 01D1     		bne	.L1483
 5459 02ae 1A75     		strb	r2, [r3, #20]
 5460 02b0 5A75     		strb	r2, [r3, #21]
 5461              	.L1483:
 5462 02b2 139B     		ldr	r3, [sp, #76]
 5463 02b4 0022     		movs	r2, #0
 5464 02b6 1A77     		strb	r2, [r3, #28]
 5465 02b8 5A77     		strb	r2, [r3, #29]
ARM GAS  /tmp/cc2a13AN.s 			page 97


 5466 02ba 9A77     		strb	r2, [r3, #30]
 5467 02bc DA77     		strb	r2, [r3, #31]
 5468 02be 0123     		movs	r3, #1
 5469 02c0 88F80330 		strb	r3, [r8, #3]
 5470 02c4 B9F1000F 		cmp	r9, #0
 5471 02c8 3FF42EAF 		beq	.L1481
 5472 02cc 4946     		mov	r1, r9
 5473 02ce 04A8     		add	r0, sp, #16
 5474 02d0 D8F84C60 		ldr	r6, [r8, #76]
 5475 02d4 FFF7FEFF 		bl	remove_chain
 5476 02d8 0028     		cmp	r0, #0
 5477 02da 7FF4DAAE 		bne	.L1522
 5478 02de DDF80C80 		ldr	r8, [sp, #12]
 5479 02e2 D8F84C30 		ldr	r3, [r8, #76]
 5480 02e6 9E42     		cmp	r6, r3
 5481 02e8 00F0AE80 		beq	.L1580
 5482 02ec 98F80330 		ldrb	r3, [r8, #3]	@ zero_extendqisi2
 5483 02f0 002B     		cmp	r3, #0
 5484 02f2 40F0B780 		bne	.L1485
 5485              	.L1488:
 5486 02f6 98F80100 		ldrb	r0, [r8, #1]	@ zero_extendqisi2
 5487 02fa 0123     		movs	r3, #1
 5488 02fc 3246     		mov	r2, r6
 5489 02fe 08F15001 		add	r1, r8, #80
 5490 0302 FFF7FEFF 		bl	disk_read
 5491 0306 0028     		cmp	r0, #0
 5492 0308 00F0A380 		beq	.L1581
 5493 030c 4FF0FF33 		mov	r3, #-1
 5494 0310 039E     		ldr	r6, [sp, #12]
 5495 0312 C8F84C30 		str	r3, [r8, #76]
 5496 0316 09EB0302 		add	r2, r9, r3
 5497 031a 0023     		movs	r3, #0
 5498 031c B261     		str	r2, [r6, #24]
 5499 031e 0125     		movs	r5, #1
 5500 0320 2360     		str	r3, [r4]
 5501 0322 CEE6     		b	.L1475
 5502              	.L1575:
 5503 0324 089B     		ldr	r3, [sp, #32]
 5504 0326 9DF81720 		ldrb	r2, [sp, #23]	@ zero_extendqisi2
 5505 032a 3069     		ldr	r0, [r6, #16]
 5506 032c 23F0FF03 		bic	r3, r3, #255
 5507 0330 1343     		orrs	r3, r3, r2
 5508 0332 6362     		str	r3, [r4, #36]
 5509 0334 069B     		ldr	r3, [sp, #24]
 5510 0336 2362     		str	r3, [r4, #32]
 5511 0338 179B     		ldr	r3, [sp, #92]
 5512 033a A362     		str	r3, [r4, #40]
 5513 033c 2146     		mov	r1, r4
 5514 033e FFF7FEFF 		bl	init_alloc_info.isra.0
 5515 0342 039E     		ldr	r6, [sp, #12]
 5516 0344 16E7     		b	.L1497
 5517              	.L1476:
 5518 0346 3607     		lsls	r6, r6, #28
 5519 0348 84D4     		bmi	.L1477
 5520 034a DDF80C80 		ldr	r8, [sp, #12]
 5521 034e F0E6     		b	.L1478
 5522              	.L1572:
ARM GAS  /tmp/cc2a13AN.s 			page 98


 5523 0350 1D46     		mov	r5, r3
 5524 0352 67E6     		b	.L1464
 5525              	.L1576:
 5526 0354 C7F30803 		ubfx	r3, r7, #0, #9
 5527 0358 039E     		ldr	r6, [sp, #12]
 5528 035a 2064     		str	r0, [r4, #64]
 5529 035c 6BB1     		cbz	r3, .L1503
 5530              	.L1513:
 5531 035e 336B     		ldr	r3, [r6, #48]
 5532 0360 881E     		subs	r0, r1, #2
 5533 0362 023B     		subs	r3, r3, #2
 5534 0364 9842     		cmp	r0, r3
 5535 0366 05D2     		bcs	.L1529
 5536 0368 7289     		ldrh	r2, [r6, #10]
 5537 036a 736C     		ldr	r3, [r6, #68]
 5538 036c 00FB0230 		mla	r0, r0, r2, r3
 5539 0370 0028     		cmp	r0, #0
 5540 0372 5BD1     		bne	.L1582
 5541              	.L1529:
 5542 0374 0225     		movs	r5, #2
 5543 0376 3EE7     		b	.L1504
 5544              	.L1505:
 5545 0378 039E     		ldr	r6, [sp, #12]
 5546              	.L1503:
 5547 037a 002E     		cmp	r6, #0
 5548 037c 3FF459AE 		beq	.L1530
 5549 0380 7069     		ldr	r0, [r6, #20]
 5550 0382 FFF7FEFF 		bl	ff_rel_grant
 5551 0386 9FE6     		b	.L1583
 5552              	.L1585:
 5553              		.align	2
 5554              	.L1584:
 5555 0388 00000000 		.word	.LANCHOR0
 5556              	.L1579:
 5557 038c 1869     		ldr	r0, [r3, #16]
 5558 038e 2360     		str	r3, [r4]
 5559 0390 2146     		mov	r1, r4
 5560 0392 FFF7FEFF 		bl	init_alloc_info.isra.0
 5561 0396 039B     		ldr	r3, [sp, #12]
 5562 0398 1869     		ldr	r0, [r3, #16]
 5563 039a 1E22     		movs	r2, #30
 5564 039c 0021     		movs	r1, #0
 5565 039e 0230     		adds	r0, r0, #2
 5566 03a0 FFF7FEFF 		bl	memset
 5567 03a4 0399     		ldr	r1, [sp, #12]
 5568 03a6 0B69     		ldr	r3, [r1, #16]
 5569 03a8 0022     		movs	r2, #0
 5570 03aa C3F82620 		str	r2, [r3, #38]	@ unaligned
 5571 03ae C3F82A20 		str	r2, [r3, #42]	@ unaligned
 5572 03b2 C3F82E20 		str	r2, [r3, #46]	@ unaligned
 5573 03b6 C3F83220 		str	r2, [r3, #50]	@ unaligned
 5574 03ba C3F83620 		str	r2, [r3, #54]	@ unaligned
 5575 03be C3F83A20 		str	r2, [r3, #58]	@ unaligned
 5576 03c2 DA87     		strh	r2, [r3, #62]	@ unaligned
 5577 03c4 0B69     		ldr	r3, [r1, #16]
 5578 03c6 2022     		movs	r2, #32
 5579 03c8 1A71     		strb	r2, [r3, #4]
ARM GAS  /tmp/cc2a13AN.s 			page 99


 5580 03ca 0E69     		ldr	r6, [r1, #16]
 5581 03cc FFF7FEFF 		bl	get_fattime
 5582 03d0 020A     		lsrs	r2, r0, #8
 5583 03d2 3072     		strb	r0, [r6, #8]
 5584 03d4 7272     		strb	r2, [r6, #9]
 5585 03d6 039B     		ldr	r3, [sp, #12]
 5586 03d8 020C     		lsrs	r2, r0, #16
 5587 03da 000E     		lsrs	r0, r0, #24
 5588 03dc B272     		strb	r2, [r6, #10]
 5589 03de F072     		strb	r0, [r6, #11]
 5590 03e0 1B69     		ldr	r3, [r3, #16]
 5591 03e2 0122     		movs	r2, #1
 5592 03e4 83F82120 		strb	r2, [r3, #33]
 5593 03e8 04A8     		add	r0, sp, #16
 5594 03ea FFF7FEFF 		bl	store_xdir
 5595 03ee 0246     		mov	r2, r0
 5596 03f0 A0B9     		cbnz	r0, .L1520
 5597 03f2 A168     		ldr	r1, [r4, #8]
 5598 03f4 0029     		cmp	r1, #0
 5599 03f6 3FF495AE 		beq	.L1480
 5600 03fa 2046     		mov	r0, r4
 5601 03fc FFF7FEFF 		bl	remove_chain
 5602 0400 A368     		ldr	r3, [r4, #8]
 5603 0402 DDF80C80 		ldr	r8, [sp, #12]
 5604 0406 013B     		subs	r3, r3, #1
 5605 0408 C8F81830 		str	r3, [r8, #24]
 5606 040c 0028     		cmp	r0, #0
 5607 040e 3FF48BAE 		beq	.L1481
 5608 0412 0546     		mov	r5, r0
 5609 0414 06E6     		b	.L1464
 5610              	.L1578:
 5611 0416 0022     		movs	r2, #0
 5612 0418 9A81     		strh	r2, [r3, #12]	@ movhi
 5613 041a 01E7     		b	.L1507
 5614              	.L1520:
 5615 041c 0546     		mov	r5, r0
 5616 041e 01E6     		b	.L1464
 5617              	.L1500:
 5618 0420 C7F30803 		ubfx	r3, r7, #0, #9
 5619 0424 2164     		str	r1, [r4, #64]
 5620 0426 002B     		cmp	r3, #0
 5621 0428 99D1     		bne	.L1513
 5622 042a 4AE6     		b	.L1475
 5623              	.L1582:
 5624 042c 7A0A     		lsrs	r2, r7, #9
 5625 042e 42EACA52 		orr	r2, r2, r10, lsl #23
 5626 0432 0244     		add	r2, r2, r0
 5627 0434 6264     		str	r2, [r4, #68]
 5628 0436 7078     		ldrb	r0, [r6, #1]	@ zero_extendqisi2
 5629 0438 4146     		mov	r1, r8
 5630 043a 0123     		movs	r3, #1
 5631 043c FFF7FEFF 		bl	disk_read
 5632 0440 0028     		cmp	r0, #0
 5633 0442 99D0     		beq	.L1505
 5634 0444 0125     		movs	r5, #1
 5635 0446 D6E6     		b	.L1504
 5636              	.L1580:
ARM GAS  /tmp/cc2a13AN.s 			page 100


 5637 0448 09F1FF33 		add	r3, r9, #-1
 5638 044c C8F81830 		str	r3, [r8, #24]
 5639 0450 6AE6     		b	.L1481
 5640              	.L1581:
 5641 0452 C8F84C60 		str	r6, [r8, #76]
 5642 0456 DDF80C80 		ldr	r8, [sp, #12]
 5643 045a 09F1FF33 		add	r3, r9, #-1
 5644 045e C8F81830 		str	r3, [r8, #24]
 5645 0462 61E6     		b	.L1481
 5646              	.L1485:
 5647 0464 4046     		mov	r0, r8
 5648 0466 FFF7FEFF 		bl	sync_window.part.0
 5649 046a 0028     		cmp	r0, #0
 5650 046c 3FF443AF 		beq	.L1488
 5651 0470 039B     		ldr	r3, [sp, #12]
 5652 0472 09F1FF32 		add	r2, r9, #-1
 5653 0476 9A61     		str	r2, [r3, #24]
 5654 0478 0546     		mov	r5, r0
 5655 047a D3E5     		b	.L1464
 5656              		.size	f_open, .-f_open
 5657              		.global	__aeabi_uldivmod
 5658              		.global	__aeabi_ldivmod
 5659              		.section	.text.f_read,"ax",%progbits
 5660              		.align	1
 5661              		.p2align 4,,15
 5662              		.global	f_read
 5663              		.syntax unified
 5664              		.thumb
 5665              		.thumb_func
 5666              		.fpu fpv4-sp-d16
 5667              		.type	f_read, %function
 5668              	f_read:
 5669              		@ args = 0, pretend = 0, frame = 24
 5670              		@ frame_needed = 0, uses_anonymous_args = 0
 5671 0000 2DE9F04F 		push	{r4, r5, r6, r7, r8, r9, r10, fp, lr}
 5672 0004 9846     		mov	r8, r3
 5673 0006 87B0     		sub	sp, sp, #28
 5674 0008 0023     		movs	r3, #0
 5675 000a 8946     		mov	r9, r1
 5676 000c C8F80030 		str	r3, [r8]
 5677 0010 05A9     		add	r1, sp, #20
 5678 0012 0446     		mov	r4, r0
 5679 0014 1746     		mov	r7, r2
 5680 0016 FFF7FEFF 		bl	validate
 5681 001a 0028     		cmp	r0, #0
 5682 001c 40F09E80 		bne	.L1658
 5683 0020 94F83150 		ldrb	r5, [r4, #49]	@ zero_extendqisi2
 5684 0024 002D     		cmp	r5, #0
 5685 0026 40F09A80 		bne	.L1587
 5686 002a 94F83030 		ldrb	r3, [r4, #48]	@ zero_extendqisi2
 5687 002e 13F00103 		ands	r3, r3, #1
 5688 0032 0193     		str	r3, [sp, #4]
 5689 0034 00F0CC80 		beq	.L1665
 5690 0038 A66B     		ldr	r6, [r4, #56]
 5691 003a 2369     		ldr	r3, [r4, #16]
 5692 003c E26B     		ldr	r2, [r4, #60]
 5693 003e 6169     		ldr	r1, [r4, #20]
ARM GAS  /tmp/cc2a13AN.s 			page 101


 5694 0040 DDF814A0 		ldr	r10, [sp, #20]
 5695 0044 9B1B     		subs	r3, r3, r6
 5696 0046 61EB0201 		sbc	r1, r1, r2
 5697 004a BB42     		cmp	r3, r7
 5698 004c 71F10001 		sbcs	r1, r1, #0
 5699 0050 38BF     		it	cc
 5700 0052 1F46     		movcc	r7, r3
 5701 0054 002F     		cmp	r7, #0
 5702 0056 79D0     		beq	.L1621
 5703 0058 04F15403 		add	r3, r4, #84
 5704 005c 0295     		str	r5, [sp, #8]
 5705 005e BB46     		mov	fp, r7
 5706 0060 1D46     		mov	r5, r3
 5707              	.L1620:
 5708 0062 C6F30801 		ubfx	r1, r6, #0, #9
 5709 0066 0029     		cmp	r1, #0
 5710 0068 54D1     		bne	.L1594
 5711 006a BAF80A30 		ldrh	r3, [r10, #10]
 5712 006e 700A     		lsrs	r0, r6, #9
 5713 0070 013B     		subs	r3, r3, #1
 5714 0072 40EAC250 		orr	r0, r0, r2, lsl #23
 5715 0076 0340     		ands	r3, r3, r0
 5716 0078 4FEA5221 		lsr	r1, r2, #9
 5717 007c 7CD0     		beq	.L1595
 5718 007e 206C     		ldr	r0, [r4, #64]
 5719              	.L1596:
 5720 0080 DAF83020 		ldr	r2, [r10, #48]
 5721 0084 0238     		subs	r0, r0, #2
 5722 0086 023A     		subs	r2, r2, #2
 5723 0088 9042     		cmp	r0, r2
 5724 008a 80F08F80 		bcs	.L1606
 5725 008e BAF80A20 		ldrh	r2, [r10, #10]
 5726 0092 DAF84470 		ldr	r7, [r10, #68]
 5727 0096 02FB0077 		mla	r7, r2, r0, r7
 5728 009a 002F     		cmp	r7, #0
 5729 009c 00F08680 		beq	.L1606
 5730 00a0 BBF5007F 		cmp	fp, #512
 5731 00a4 1F44     		add	r7, r7, r3
 5732 00a6 1FD3     		bcc	.L1608
 5733 00a8 03EB5B21 		add	r1, r3, fp, lsr #9
 5734 00ac 9142     		cmp	r1, r2
 5735 00ae 4FEA5B26 		lsr	r6, fp, #9
 5736 00b2 88BF     		it	hi
 5737 00b4 D61A     		subhi	r6, r2, r3
 5738 00b6 9AF80100 		ldrb	r0, [r10, #1]	@ zero_extendqisi2
 5739 00ba 3346     		mov	r3, r6
 5740 00bc 3A46     		mov	r2, r7
 5741 00be 4946     		mov	r1, r9
 5742 00c0 FFF7FEFF 		bl	disk_read
 5743 00c4 0028     		cmp	r0, #0
 5744 00c6 00F08B80 		beq	.L1610
 5745              	.L1618:
 5746 00ca 059B     		ldr	r3, [sp, #20]
 5747 00cc 0122     		movs	r2, #1
 5748 00ce 84F83120 		strb	r2, [r4, #49]
 5749 00d2 002B     		cmp	r3, #0
 5750 00d4 00F0BD80 		beq	.L1660
ARM GAS  /tmp/cc2a13AN.s 			page 102


 5751 00d8 5869     		ldr	r0, [r3, #20]
 5752 00da FFF7FEFF 		bl	ff_rel_grant
 5753 00de 019D     		ldr	r5, [sp, #4]
 5754              	.L1625:
 5755 00e0 2846     		mov	r0, r5
 5756 00e2 07B0     		add	sp, sp, #28
 5757              		@ sp needed
 5758 00e4 BDE8F08F 		pop	{r4, r5, r6, r7, r8, r9, r10, fp, pc}
 5759              	.L1608:
 5760 00e8 626C     		ldr	r2, [r4, #68]
 5761 00ea BA42     		cmp	r2, r7
 5762 00ec 0ED0     		beq	.L1619
 5763 00ee 94F93030 		ldrsb	r3, [r4, #48]
 5764 00f2 002B     		cmp	r3, #0
 5765 00f4 7CDB     		blt	.L1666
 5766              	.L1616:
 5767 00f6 9AF80100 		ldrb	r0, [r10, #1]	@ zero_extendqisi2
 5768 00fa 0123     		movs	r3, #1
 5769 00fc 3A46     		mov	r2, r7
 5770 00fe 2946     		mov	r1, r5
 5771 0100 FFF7FEFF 		bl	disk_read
 5772 0104 0028     		cmp	r0, #0
 5773 0106 E0D1     		bne	.L1618
 5774 0108 DDF814A0 		ldr	r10, [sp, #20]
 5775              	.L1619:
 5776 010c A66B     		ldr	r6, [r4, #56]
 5777 010e 6764     		str	r7, [r4, #68]
 5778 0110 C6F30801 		ubfx	r1, r6, #0, #9
 5779              	.L1594:
 5780 0114 C1F50076 		rsb	r6, r1, #512
 5781 0118 5E45     		cmp	r6, fp
 5782 011a 28BF     		it	cs
 5783 011c 5E46     		movcs	r6, fp
 5784 011e 2944     		add	r1, r1, r5
 5785 0120 3246     		mov	r2, r6
 5786 0122 4846     		mov	r0, r9
 5787 0124 3746     		mov	r7, r6
 5788 0126 FFF7FEFF 		bl	memcpy
 5789              	.L1613:
 5790 012a A66B     		ldr	r6, [r4, #56]
 5791 012c D8F80030 		ldr	r3, [r8]
 5792 0130 E26B     		ldr	r2, [r4, #60]
 5793 0132 BE19     		adds	r6, r7, r6
 5794 0134 42F10002 		adc	r2, r2, #0
 5795 0138 3B44     		add	r3, r3, r7
 5796 013a BBEB070B 		subs	fp, fp, r7
 5797 013e C8F80030 		str	r3, [r8]
 5798 0142 B944     		add	r9, r9, r7
 5799 0144 A663     		str	r6, [r4, #56]
 5800 0146 E263     		str	r2, [r4, #60]
 5801 0148 8BD1     		bne	.L1620
 5802 014a 029D     		ldr	r5, [sp, #8]
 5803              	.L1621:
 5804 014c BAF1000F 		cmp	r10, #0
 5805 0150 C6D0     		beq	.L1625
 5806 0152 DAF81400 		ldr	r0, [r10, #20]
 5807 0156 FFF7FEFF 		bl	ff_rel_grant
ARM GAS  /tmp/cc2a13AN.s 			page 103


 5808 015a C1E7     		b	.L1625
 5809              	.L1658:
 5810 015c 0546     		mov	r5, r0
 5811              	.L1587:
 5812 015e 059B     		ldr	r3, [sp, #20]
 5813 0160 002B     		cmp	r3, #0
 5814 0162 BDD0     		beq	.L1625
 5815 0164 0C2D     		cmp	r5, #12
 5816 0166 BBD0     		beq	.L1625
 5817 0168 0B2D     		cmp	r5, #11
 5818 016a B9D0     		beq	.L1625
 5819 016c 0F2D     		cmp	r5, #15
 5820 016e B7D0     		beq	.L1625
 5821 0170 5869     		ldr	r0, [r3, #20]
 5822 0172 FFF7FEFF 		bl	ff_rel_grant
 5823 0176 B3E7     		b	.L1625
 5824              	.L1595:
 5825 0178 3243     		orrs	r2, r6, r2
 5826 017a 22D0     		beq	.L1667
 5827 017c 266D     		ldr	r6, [r4, #80]
 5828 017e 002E     		cmp	r6, #0
 5829 0180 48D0     		beq	.L1599
 5830 0182 2268     		ldr	r2, [r4]
 5831 0184 0393     		str	r3, [sp, #12]
 5832 0186 5289     		ldrh	r2, [r2, #10]
 5833 0188 FFF7FEFF 		bl	__aeabi_uldivmod
 5834 018c 7268     		ldr	r2, [r6, #4]
 5835 018e 0436     		adds	r6, r6, #4
 5836 0190 002A     		cmp	r2, #0
 5837 0192 62D0     		beq	.L1600
 5838 0194 039B     		ldr	r3, [sp, #12]
 5839 0196 04E0     		b	.L1602
 5840              	.L1668:
 5841 0198 801A     		subs	r0, r0, r2
 5842 019a 56F8082F 		ldr	r2, [r6, #8]!
 5843 019e 002A     		cmp	r2, #0
 5844 01a0 5BD0     		beq	.L1600
 5845              	.L1602:
 5846 01a2 8242     		cmp	r2, r0
 5847 01a4 F8D9     		bls	.L1668
 5848 01a6 7268     		ldr	r2, [r6, #4]
 5849 01a8 1044     		add	r0, r0, r2
 5850 01aa 0BE0     		b	.L1598
 5851              	.L1606:
 5852 01ac 0225     		movs	r5, #2
 5853 01ae 84F83150 		strb	r5, [r4, #49]
 5854 01b2 DAF81400 		ldr	r0, [r10, #20]
 5855 01b6 FFF7FEFF 		bl	ff_rel_grant
 5856 01ba 2846     		mov	r0, r5
 5857 01bc 07B0     		add	sp, sp, #28
 5858              		@ sp needed
 5859 01be BDE8F08F 		pop	{r4, r5, r6, r7, r8, r9, r10, fp, pc}
 5860              	.L1667:
 5861 01c2 A068     		ldr	r0, [r4, #8]
 5862              	.L1598:
 5863 01c4 0128     		cmp	r0, #1
 5864 01c6 51D9     		bls	.L1669
ARM GAS  /tmp/cc2a13AN.s 			page 104


 5865 01c8 421C     		adds	r2, r0, #1
 5866 01ca 38D0     		beq	.L1670
 5867 01cc 2064     		str	r0, [r4, #64]
 5868 01ce 57E7     		b	.L1596
 5869              	.L1665:
 5870 01d0 059B     		ldr	r3, [sp, #20]
 5871 01d2 002B     		cmp	r3, #0
 5872 01d4 3FD0     		beq	.L1623
 5873 01d6 5869     		ldr	r0, [r3, #20]
 5874 01d8 FFF7FEFF 		bl	ff_rel_grant
 5875 01dc 0725     		movs	r5, #7
 5876 01de 7FE7     		b	.L1625
 5877              	.L1610:
 5878 01e0 94F93030 		ldrsb	r3, [r4, #48]
 5879 01e4 002B     		cmp	r3, #0
 5880 01e6 1EDB     		blt	.L1671
 5881              	.L1612:
 5882 01e8 DDF814A0 		ldr	r10, [sp, #20]
 5883 01ec 7702     		lsls	r7, r6, #9
 5884 01ee 9CE7     		b	.L1613
 5885              	.L1666:
 5886 01f0 9AF80100 		ldrb	r0, [r10, #1]	@ zero_extendqisi2
 5887 01f4 0123     		movs	r3, #1
 5888 01f6 2946     		mov	r1, r5
 5889 01f8 FFF7FEFF 		bl	disk_write
 5890 01fc 0028     		cmp	r0, #0
 5891 01fe 7FF464AF 		bne	.L1618
 5892 0202 94F83030 		ldrb	r3, [r4, #48]	@ zero_extendqisi2
 5893 0206 DDF814A0 		ldr	r10, [sp, #20]
 5894 020a 03F07F03 		and	r3, r3, #127
 5895 020e 84F83030 		strb	r3, [r4, #48]
 5896 0212 70E7     		b	.L1616
 5897              	.L1599:
 5898 0214 216C     		ldr	r1, [r4, #64]
 5899 0216 0393     		str	r3, [sp, #12]
 5900 0218 2046     		mov	r0, r4
 5901 021a FFF7FEFF 		bl	get_fat
 5902 021e DDF814A0 		ldr	r10, [sp, #20]
 5903 0222 039B     		ldr	r3, [sp, #12]
 5904 0224 CEE7     		b	.L1598
 5905              	.L1671:
 5906 0226 606C     		ldr	r0, [r4, #68]
 5907 0228 C01B     		subs	r0, r0, r7
 5908 022a B042     		cmp	r0, r6
 5909 022c DCD2     		bcs	.L1612
 5910 022e 09EB4020 		add	r0, r9, r0, lsl #9
 5911 0232 4FF40072 		mov	r2, #512
 5912 0236 2946     		mov	r1, r5
 5913 0238 FFF7FEFF 		bl	memcpy
 5914 023c D4E7     		b	.L1612
 5915              	.L1670:
 5916 023e 0123     		movs	r3, #1
 5917 0240 84F83130 		strb	r3, [r4, #49]
 5918 0244 BAF1000F 		cmp	r10, #0
 5919 0248 03D0     		beq	.L1660
 5920 024a DAF81400 		ldr	r0, [r10, #20]
 5921 024e FFF7FEFF 		bl	ff_rel_grant
ARM GAS  /tmp/cc2a13AN.s 			page 105


 5922              	.L1660:
 5923 0252 019D     		ldr	r5, [sp, #4]
 5924 0254 44E7     		b	.L1625
 5925              	.L1623:
 5926 0256 0725     		movs	r5, #7
 5927 0258 42E7     		b	.L1625
 5928              	.L1600:
 5929 025a 0223     		movs	r3, #2
 5930 025c 84F83130 		strb	r3, [r4, #49]
 5931              	.L1622:
 5932 0260 DAF81400 		ldr	r0, [r10, #20]
 5933 0264 FFF7FEFF 		bl	ff_rel_grant
 5934 0268 0225     		movs	r5, #2
 5935 026a 39E7     		b	.L1625
 5936              	.L1669:
 5937 026c 0225     		movs	r5, #2
 5938 026e 84F83150 		strb	r5, [r4, #49]
 5939 0272 BAF1000F 		cmp	r10, #0
 5940 0276 3FF433AF 		beq	.L1625
 5941 027a F1E7     		b	.L1622
 5942              		.size	f_read, .-f_read
 5943              		.section	.text.f_write,"ax",%progbits
 5944              		.align	1
 5945              		.p2align 4,,15
 5946              		.global	f_write
 5947              		.syntax unified
 5948              		.thumb
 5949              		.thumb_func
 5950              		.fpu fpv4-sp-d16
 5951              		.type	f_write, %function
 5952              	f_write:
 5953              		@ args = 0, pretend = 0, frame = 24
 5954              		@ frame_needed = 0, uses_anonymous_args = 0
 5955 0000 2DE9F04F 		push	{r4, r5, r6, r7, r8, r9, r10, fp, lr}
 5956 0004 1F46     		mov	r7, r3
 5957 0006 87B0     		sub	sp, sp, #28
 5958 0008 0023     		movs	r3, #0
 5959 000a 8946     		mov	r9, r1
 5960 000c 3B60     		str	r3, [r7]
 5961 000e 05A9     		add	r1, sp, #20
 5962 0010 0446     		mov	r4, r0
 5963 0012 1646     		mov	r6, r2
 5964 0014 FFF7FEFF 		bl	validate
 5965 0018 0028     		cmp	r0, #0
 5966 001a 40F0C180 		bne	.L1745
 5967 001e 94F83150 		ldrb	r5, [r4, #49]	@ zero_extendqisi2
 5968 0022 002D     		cmp	r5, #0
 5969 0024 40F0BD80 		bne	.L1673
 5970 0028 94F83030 		ldrb	r3, [r4, #48]	@ zero_extendqisi2
 5971 002c 9A07     		lsls	r2, r3, #30
 5972 002e 40F1EC80 		bpl	.L1754
 5973 0032 DDF814A0 		ldr	r10, [sp, #20]
 5974 0036 9AF80020 		ldrb	r2, [r10]	@ zero_extendqisi2
 5975 003a 042A     		cmp	r2, #4
 5976 003c 03D0     		beq	.L1677
 5977 003e A26B     		ldr	r2, [r4, #56]
 5978 0040 F242     		cmn	r2, r6
ARM GAS  /tmp/cc2a13AN.s 			page 106


 5979 0042 28BF     		it	cs
 5980 0044 D643     		mvncs	r6, r2
 5981              	.L1677:
 5982 0046 002E     		cmp	r6, #0
 5983 0048 00F01181 		beq	.L1678
 5984 004c D4E90E3C 		ldrd	r3, ip, [r4, #56]
 5985 0050 04F1540B 		add	fp, r4, #84
 5986 0054 0195     		str	r5, [sp, #4]
 5987              	.L1708:
 5988 0056 C3F30800 		ubfx	r0, r3, #0, #9
 5989 005a 0028     		cmp	r0, #0
 5990 005c 65D1     		bne	.L1680
 5991 005e BAF80A80 		ldrh	r8, [r10, #10]
 5992 0062 580A     		lsrs	r0, r3, #9
 5993 0064 08F1FF38 		add	r8, r8, #-1
 5994 0068 40EACC50 		orr	r0, r0, ip, lsl #23
 5995 006c 18EA0008 		ands	r8, r8, r0
 5996 0070 4FEA5C21 		lsr	r1, ip, #9
 5997 0074 11D1     		bne	.L1681
 5998 0076 53EA0C03 		orrs	r3, r3, ip
 5999 007a 40F0AD80 		bne	.L1682
 6000 007e A168     		ldr	r1, [r4, #8]
 6001 0080 0029     		cmp	r1, #0
 6002 0082 00F0E780 		beq	.L1747
 6003              	.L1683:
 6004 0086 0129     		cmp	r1, #1
 6005 0088 00F01781 		beq	.L1755
 6006 008c 4B1C     		adds	r3, r1, #1
 6007 008e 00F01C81 		beq	.L1756
 6008 0092 A368     		ldr	r3, [r4, #8]
 6009 0094 2164     		str	r1, [r4, #64]
 6010 0096 03B9     		cbnz	r3, .L1681
 6011 0098 A160     		str	r1, [r4, #8]
 6012              	.L1681:
 6013 009a 94F93030 		ldrsb	r3, [r4, #48]
 6014 009e 002B     		cmp	r3, #0
 6015 00a0 C0F2C480 		blt	.L1757
 6016              	.L1693:
 6017 00a4 226C     		ldr	r2, [r4, #64]
 6018 00a6 DAF83030 		ldr	r3, [r10, #48]
 6019 00aa 023A     		subs	r2, r2, #2
 6020 00ac 023B     		subs	r3, r3, #2
 6021 00ae 9A42     		cmp	r2, r3
 6022 00b0 80F08780 		bcs	.L1696
 6023 00b4 BAF80A00 		ldrh	r0, [r10, #10]
 6024 00b8 DAF84410 		ldr	r1, [r10, #68]
 6025 00bc 00FB0212 		mla	r2, r0, r2, r1
 6026 00c0 002A     		cmp	r2, #0
 6027 00c2 7ED0     		beq	.L1696
 6028 00c4 B6F5007F 		cmp	r6, #512
 6029 00c8 4244     		add	r2, r2, r8
 6030 00ca 1ED3     		bcc	.L1698
 6031 00cc 08EB5621 		add	r1, r8, r6, lsr #9
 6032 00d0 8142     		cmp	r1, r0
 6033 00d2 4FEA5623 		lsr	r3, r6, #9
 6034 00d6 4946     		mov	r1, r9
 6035 00d8 88BF     		it	hi
ARM GAS  /tmp/cc2a13AN.s 			page 107


 6036 00da A0EB0803 		subhi	r3, r0, r8
 6037 00de 9AF80100 		ldrb	r0, [r10, #1]	@ zero_extendqisi2
 6038 00e2 CDE90223 		strd	r2, r3, [sp, #8]
 6039 00e6 FFF7FEFF 		bl	disk_write
 6040 00ea DDE90223 		ldrd	r2, r3, [sp, #8]
 6041 00ee 0028     		cmp	r0, #0
 6042 00f0 00F09380 		beq	.L1700
 6043              	.L1706:
 6044 00f4 059B     		ldr	r3, [sp, #20]
 6045 00f6 0125     		movs	r5, #1
 6046 00f8 84F83150 		strb	r5, [r4, #49]
 6047 00fc 002B     		cmp	r3, #0
 6048 00fe 59D1     		bne	.L1751
 6049              	.L1695:
 6050 0100 0125     		movs	r5, #1
 6051              	.L1712:
 6052 0102 2846     		mov	r0, r5
 6053 0104 07B0     		add	sp, sp, #28
 6054              		@ sp needed
 6055 0106 BDE8F08F 		pop	{r4, r5, r6, r7, r8, r9, r10, fp, pc}
 6056              	.L1698:
 6057 010a 636C     		ldr	r3, [r4, #68]
 6058 010c 9342     		cmp	r3, r2
 6059 010e A36B     		ldr	r3, [r4, #56]
 6060 0110 08D0     		beq	.L1705
 6061 0112 2069     		ldr	r0, [r4, #16]
 6062 0114 D4F83CC0 		ldr	ip, [r4, #60]
 6063 0118 6169     		ldr	r1, [r4, #20]
 6064 011a 8342     		cmp	r3, r0
 6065 011c 7CEB0101 		sbcs	r1, ip, r1
 6066 0120 C0F0AA80 		bcc	.L1758
 6067              	.L1705:
 6068 0124 6264     		str	r2, [r4, #68]
 6069 0126 C3F30800 		ubfx	r0, r3, #0, #9
 6070              	.L1680:
 6071 012a C0F50078 		rsb	r8, r0, #512
 6072 012e B045     		cmp	r8, r6
 6073 0130 28BF     		it	cs
 6074 0132 B046     		movcs	r8, r6
 6075 0134 5844     		add	r0, r0, fp
 6076 0136 4246     		mov	r2, r8
 6077 0138 4946     		mov	r1, r9
 6078 013a FFF7FEFF 		bl	memcpy
 6079 013e 94F83030 		ldrb	r3, [r4, #48]	@ zero_extendqisi2
 6080 0142 63F07F03 		orn	r3, r3, #127
 6081 0146 84F83030 		strb	r3, [r4, #48]
 6082              	.L1702:
 6083 014a 3A68     		ldr	r2, [r7]
 6084 014c A36B     		ldr	r3, [r4, #56]
 6085 014e 4244     		add	r2, r2, r8
 6086 0150 3A60     		str	r2, [r7]
 6087 0152 E26B     		ldr	r2, [r4, #60]
 6088 0154 18EB0303 		adds	r3, r8, r3
 6089 0158 42F1000C 		adc	ip, r2, #0
 6090 015c D4E90412 		ldrd	r1, r2, [r4, #16]
 6091 0160 9942     		cmp	r1, r3
 6092 0162 72EB0C00 		sbcs	r0, r2, ip
ARM GAS  /tmp/cc2a13AN.s 			page 108


 6093 0166 3CBF     		itt	cc
 6094 0168 1946     		movcc	r1, r3
 6095 016a 6246     		movcc	r2, ip
 6096 016c A6EB0806 		sub	r6, r6, r8
 6097 0170 C4E90412 		strd	r1, r2, [r4, #16]
 6098 0174 C144     		add	r9, r9, r8
 6099 0176 A363     		str	r3, [r4, #56]
 6100 0178 C4F83CC0 		str	ip, [r4, #60]
 6101 017c 002E     		cmp	r6, #0
 6102 017e 7FF46AAF 		bne	.L1708
 6103              	.L1748:
 6104 0182 94F83030 		ldrb	r3, [r4, #48]	@ zero_extendqisi2
 6105 0186 019D     		ldr	r5, [sp, #4]
 6106 0188 43F04003 		orr	r3, r3, #64
 6107 018c 84F83030 		strb	r3, [r4, #48]
 6108 0190 BAF1000F 		cmp	r10, #0
 6109 0194 B5D0     		beq	.L1712
 6110              	.L1709:
 6111 0196 DAF81400 		ldr	r0, [r10, #20]
 6112 019a FFF7FEFF 		bl	ff_rel_grant
 6113 019e B0E7     		b	.L1712
 6114              	.L1745:
 6115 01a0 0546     		mov	r5, r0
 6116              	.L1673:
 6117 01a2 059B     		ldr	r3, [sp, #20]
 6118 01a4 002B     		cmp	r3, #0
 6119 01a6 ACD0     		beq	.L1712
 6120 01a8 0C2D     		cmp	r5, #12
 6121 01aa AAD0     		beq	.L1712
 6122 01ac 0B2D     		cmp	r5, #11
 6123 01ae A8D0     		beq	.L1712
 6124 01b0 0F2D     		cmp	r5, #15
 6125 01b2 A6D0     		beq	.L1712
 6126              	.L1751:
 6127 01b4 5869     		ldr	r0, [r3, #20]
 6128 01b6 FFF7FEFF 		bl	ff_rel_grant
 6129 01ba 2846     		mov	r0, r5
 6130 01bc 07B0     		add	sp, sp, #28
 6131              		@ sp needed
 6132 01be BDE8F08F 		pop	{r4, r5, r6, r7, r8, r9, r10, fp, pc}
 6133              	.L1696:
 6134 01c2 0225     		movs	r5, #2
 6135 01c4 84F83150 		strb	r5, [r4, #49]
 6136 01c8 DAF81400 		ldr	r0, [r10, #20]
 6137 01cc FFF7FEFF 		bl	ff_rel_grant
 6138 01d0 2846     		mov	r0, r5
 6139 01d2 07B0     		add	sp, sp, #28
 6140              		@ sp needed
 6141 01d4 BDE8F08F 		pop	{r4, r5, r6, r7, r8, r9, r10, fp, pc}
 6142              	.L1682:
 6143 01d8 256D     		ldr	r5, [r4, #80]
 6144 01da 002D     		cmp	r5, #0
 6145 01dc 39D0     		beq	.L1685
 6146 01de 2368     		ldr	r3, [r4]
 6147 01e0 5A89     		ldrh	r2, [r3, #10]
 6148 01e2 4346     		mov	r3, r8
 6149 01e4 FFF7FEFF 		bl	__aeabi_uldivmod
ARM GAS  /tmp/cc2a13AN.s 			page 109


 6150 01e8 6B68     		ldr	r3, [r5, #4]
 6151 01ea 2A1D     		adds	r2, r5, #4
 6152 01ec 2BB9     		cbnz	r3, .L1688
 6153 01ee 3BE0     		b	.L1749
 6154              	.L1759:
 6155 01f0 C01A     		subs	r0, r0, r3
 6156 01f2 52F8083F 		ldr	r3, [r2, #8]!
 6157 01f6 002B     		cmp	r3, #0
 6158 01f8 36D0     		beq	.L1749
 6159              	.L1688:
 6160 01fa 9842     		cmp	r0, r3
 6161 01fc F8D2     		bcs	.L1759
 6162 01fe 5168     		ldr	r1, [r2, #4]
 6163 0200 0144     		add	r1, r1, r0
 6164 0202 0029     		cmp	r1, #0
 6165 0204 7FF43FAF 		bne	.L1683
 6166 0208 BBE7     		b	.L1748
 6167              	.L1754:
 6168 020a 059B     		ldr	r3, [sp, #20]
 6169 020c 002B     		cmp	r3, #0
 6170 020e 52D0     		beq	.L1710
 6171 0210 5869     		ldr	r0, [r3, #20]
 6172 0212 FFF7FEFF 		bl	ff_rel_grant
 6173 0216 0725     		movs	r5, #7
 6174 0218 73E7     		b	.L1712
 6175              	.L1700:
 6176 021a 616C     		ldr	r1, [r4, #68]
 6177 021c 891A     		subs	r1, r1, r2
 6178 021e 9942     		cmp	r1, r3
 6179 0220 39D3     		bcc	.L1760
 6180              	.L1701:
 6181 0222 DDF814A0 		ldr	r10, [sp, #20]
 6182 0226 4FEA4328 		lsl	r8, r3, #9
 6183 022a 8EE7     		b	.L1702
 6184              	.L1757:
 6185 022c 9AF80100 		ldrb	r0, [r10, #1]	@ zero_extendqisi2
 6186 0230 626C     		ldr	r2, [r4, #68]
 6187 0232 0123     		movs	r3, #1
 6188 0234 5946     		mov	r1, fp
 6189 0236 FFF7FEFF 		bl	disk_write
 6190 023a 0028     		cmp	r0, #0
 6191 023c 7FF45AAF 		bne	.L1706
 6192 0240 94F83030 		ldrb	r3, [r4, #48]	@ zero_extendqisi2
 6193 0244 DDF814A0 		ldr	r10, [sp, #20]
 6194 0248 03F07F03 		and	r3, r3, #127
 6195 024c 84F83030 		strb	r3, [r4, #48]
 6196 0250 28E7     		b	.L1693
 6197              	.L1685:
 6198 0252 216C     		ldr	r1, [r4, #64]
 6199              	.L1747:
 6200 0254 2046     		mov	r0, r4
 6201 0256 FFF7FEFF 		bl	create_chain
 6202 025a 0146     		mov	r1, r0
 6203 025c DDF814A0 		ldr	r10, [sp, #20]
 6204 0260 0029     		cmp	r1, #0
 6205 0262 7FF410AF 		bne	.L1683
 6206 0266 8CE7     		b	.L1748
ARM GAS  /tmp/cc2a13AN.s 			page 110


 6207              	.L1749:
 6208 0268 019D     		ldr	r5, [sp, #4]
 6209 026a 94F83030 		ldrb	r3, [r4, #48]	@ zero_extendqisi2
 6210              	.L1678:
 6211 026e 43F04003 		orr	r3, r3, #64
 6212 0272 84F83030 		strb	r3, [r4, #48]
 6213 0276 8EE7     		b	.L1709
 6214              	.L1758:
 6215 0278 9AF80100 		ldrb	r0, [r10, #1]	@ zero_extendqisi2
 6216 027c 0292     		str	r2, [sp, #8]
 6217 027e 0123     		movs	r3, #1
 6218 0280 5946     		mov	r1, fp
 6219 0282 FFF7FEFF 		bl	disk_read
 6220 0286 0028     		cmp	r0, #0
 6221 0288 7FF434AF 		bne	.L1706
 6222 028c A36B     		ldr	r3, [r4, #56]
 6223 028e DDF814A0 		ldr	r10, [sp, #20]
 6224 0292 029A     		ldr	r2, [sp, #8]
 6225 0294 46E7     		b	.L1705
 6226              	.L1760:
 6227 0296 4FF40072 		mov	r2, #512
 6228 029a 09EB4121 		add	r1, r9, r1, lsl #9
 6229 029e 5846     		mov	r0, fp
 6230 02a0 0293     		str	r3, [sp, #8]
 6231 02a2 FFF7FEFF 		bl	memcpy
 6232 02a6 94F83020 		ldrb	r2, [r4, #48]	@ zero_extendqisi2
 6233 02aa 029B     		ldr	r3, [sp, #8]
 6234 02ac 02F07F02 		and	r2, r2, #127
 6235 02b0 84F83020 		strb	r2, [r4, #48]
 6236 02b4 B5E7     		b	.L1701
 6237              	.L1710:
 6238 02b6 0725     		movs	r5, #7
 6239 02b8 23E7     		b	.L1712
 6240              	.L1755:
 6241 02ba 0225     		movs	r5, #2
 6242 02bc 84F83150 		strb	r5, [r4, #49]
 6243 02c0 BAF1000F 		cmp	r10, #0
 6244 02c4 7FF467AF 		bne	.L1709
 6245 02c8 1BE7     		b	.L1712
 6246              	.L1756:
 6247 02ca 0125     		movs	r5, #1
 6248 02cc 84F83150 		strb	r5, [r4, #49]
 6249 02d0 BAF1000F 		cmp	r10, #0
 6250 02d4 7FF45FAF 		bne	.L1709
 6251 02d8 12E7     		b	.L1695
 6252              		.size	f_write, .-f_write
 6253 02da 00BF     		.section	.text.f_sync,"ax",%progbits
 6254              		.align	1
 6255              		.p2align 4,,15
 6256              		.global	f_sync
 6257              		.syntax unified
 6258              		.thumb
 6259              		.thumb_func
 6260              		.fpu fpv4-sp-d16
 6261              		.type	f_sync, %function
 6262              	f_sync:
 6263              		@ args = 0, pretend = 0, frame = 1216
ARM GAS  /tmp/cc2a13AN.s 			page 111


 6264              		@ frame_needed = 0, uses_anonymous_args = 0
 6265 0000 2DE9F041 		push	{r4, r5, r6, r7, r8, lr}
 6266 0004 ADF5986D 		sub	sp, sp, #1216
 6267 0008 01A9     		add	r1, sp, #4
 6268 000a 0546     		mov	r5, r0
 6269 000c FFF7FEFF 		bl	validate
 6270 0010 0446     		mov	r4, r0
 6271 0012 0028     		cmp	r0, #0
 6272 0014 41D1     		bne	.L1762
 6273 0016 95F83030 		ldrb	r3, [r5, #48]	@ zero_extendqisi2
 6274 001a 13F04004 		ands	r4, r3, #64
 6275 001e 4AD1     		bne	.L1763
 6276 0020 019B     		ldr	r3, [sp, #4]
 6277 0022 13B1     		cbz	r3, .L1765
 6278              	.L1764:
 6279 0024 5869     		ldr	r0, [r3, #20]
 6280 0026 FFF7FEFF 		bl	ff_rel_grant
 6281              	.L1765:
 6282 002a 2046     		mov	r0, r4
 6283 002c 0DF5986D 		add	sp, sp, #1216
 6284              		@ sp needed
 6285 0030 BDE8F081 		pop	{r4, r5, r6, r7, r8, pc}
 6286              	.L1807:
 6287 0034 C7F84C80 		str	r8, [r7, #76]
 6288 0038 019F     		ldr	r7, [sp, #4]
 6289              	.L1774:
 6290 003a EA6C     		ldr	r2, [r5, #76]
 6291 003c D37A     		ldrb	r3, [r2, #11]	@ zero_extendqisi2
 6292 003e 43F02003 		orr	r3, r3, #32
 6293 0042 D372     		strb	r3, [r2, #11]
 6294 0044 AB68     		ldr	r3, [r5, #8]
 6295 0046 2968     		ldr	r1, [r5]
 6296 0048 9376     		strb	r3, [r2, #26]
 6297 004a C3F30720 		ubfx	r0, r3, #8, #8
 6298 004e D076     		strb	r0, [r2, #27]
 6299 0050 0978     		ldrb	r1, [r1]	@ zero_extendqisi2
 6300 0052 0329     		cmp	r1, #3
 6301 0054 03D1     		bne	.L1780
 6302 0056 1B0C     		lsrs	r3, r3, #16
 6303 0058 1375     		strb	r3, [r2, #20]
 6304 005a 1B0A     		lsrs	r3, r3, #8
 6305 005c 5375     		strb	r3, [r2, #21]
 6306              	.L1780:
 6307 005e 2B69     		ldr	r3, [r5, #16]
 6308 0060 1377     		strb	r3, [r2, #28]
 6309 0062 190A     		lsrs	r1, r3, #8
 6310 0064 5177     		strb	r1, [r2, #29]
 6311 0066 190C     		lsrs	r1, r3, #16
 6312 0068 1B0E     		lsrs	r3, r3, #24
 6313 006a D377     		strb	r3, [r2, #31]
 6314 006c 0023     		movs	r3, #0
 6315 006e 9374     		strb	r3, [r2, #18]
 6316 0070 D374     		strb	r3, [r2, #19]
 6317 0072 330A     		lsrs	r3, r6, #8
 6318 0074 D375     		strb	r3, [r2, #23]
 6319 0076 330C     		lsrs	r3, r6, #16
 6320 0078 9675     		strb	r6, [r2, #22]
ARM GAS  /tmp/cc2a13AN.s 			page 112


 6321 007a 1376     		strb	r3, [r2, #24]
 6322 007c 360E     		lsrs	r6, r6, #24
 6323 007e 0123     		movs	r3, #1
 6324 0080 9177     		strb	r1, [r2, #30]
 6325 0082 5676     		strb	r6, [r2, #25]
 6326 0084 3846     		mov	r0, r7
 6327 0086 FB70     		strb	r3, [r7, #3]
 6328              	.L1802:
 6329 0088 FFF7FEFF 		bl	sync_fs
 6330 008c 95F83030 		ldrb	r3, [r5, #48]	@ zero_extendqisi2
 6331 0090 23F04003 		bic	r3, r3, #64
 6332 0094 0446     		mov	r4, r0
 6333 0096 85F83030 		strb	r3, [r5, #48]
 6334              	.L1762:
 6335 009a 019B     		ldr	r3, [sp, #4]
 6336 009c 002B     		cmp	r3, #0
 6337 009e C4D0     		beq	.L1765
 6338 00a0 0C2C     		cmp	r4, #12
 6339 00a2 C2D0     		beq	.L1765
 6340 00a4 0B2C     		cmp	r4, #11
 6341 00a6 C0D0     		beq	.L1765
 6342 00a8 0F2C     		cmp	r4, #15
 6343 00aa BBD1     		bne	.L1764
 6344 00ac 2046     		mov	r0, r4
 6345 00ae 0DF5986D 		add	sp, sp, #1216
 6346              		@ sp needed
 6347 00b2 BDE8F081 		pop	{r4, r5, r6, r7, r8, pc}
 6348              	.L1763:
 6349 00b6 1B06     		lsls	r3, r3, #24
 6350 00b8 21D4     		bmi	.L1805
 6351              	.L1766:
 6352 00ba FFF7FEFF 		bl	get_fattime
 6353 00be 019F     		ldr	r7, [sp, #4]
 6354 00c0 3B78     		ldrb	r3, [r7]	@ zero_extendqisi2
 6355 00c2 042B     		cmp	r3, #4
 6356 00c4 0646     		mov	r6, r0
 6357 00c6 2CD0     		beq	.L1806
 6358 00c8 D5F84880 		ldr	r8, [r5, #72]
 6359 00cc FB6C     		ldr	r3, [r7, #76]
 6360 00ce 9845     		cmp	r8, r3
 6361 00d0 B3D0     		beq	.L1774
 6362 00d2 FB78     		ldrb	r3, [r7, #3]	@ zero_extendqisi2
 6363 00d4 002B     		cmp	r3, #0
 6364 00d6 40F0C280 		bne	.L1775
 6365              	.L1778:
 6366 00da 7878     		ldrb	r0, [r7, #1]	@ zero_extendqisi2
 6367 00dc 0123     		movs	r3, #1
 6368 00de 4246     		mov	r2, r8
 6369 00e0 07F15001 		add	r1, r7, #80
 6370 00e4 FFF7FEFF 		bl	disk_read
 6371 00e8 0028     		cmp	r0, #0
 6372 00ea A3D0     		beq	.L1807
 6373 00ec 019B     		ldr	r3, [sp, #4]
 6374 00ee 4FF0FF32 		mov	r2, #-1
 6375 00f2 FA64     		str	r2, [r7, #76]
 6376 00f4 002B     		cmp	r3, #0
 6377 00f6 00F0B080 		beq	.L1803
ARM GAS  /tmp/cc2a13AN.s 			page 113


 6378 00fa 0124     		movs	r4, #1
 6379 00fc 92E7     		b	.L1764
 6380              	.L1805:
 6381 00fe 019B     		ldr	r3, [sp, #4]
 6382 0100 6A6C     		ldr	r2, [r5, #68]
 6383 0102 5878     		ldrb	r0, [r3, #1]	@ zero_extendqisi2
 6384 0104 05F15401 		add	r1, r5, #84
 6385 0108 0123     		movs	r3, #1
 6386 010a FFF7FEFF 		bl	disk_write
 6387 010e 0028     		cmp	r0, #0
 6388 0110 40F09E80 		bne	.L1808
 6389 0114 95F83030 		ldrb	r3, [r5, #48]	@ zero_extendqisi2
 6390 0118 03F07F03 		and	r3, r3, #127
 6391 011c 85F83030 		strb	r3, [r5, #48]
 6392 0120 CBE7     		b	.L1766
 6393              	.L1806:
 6394 0122 EB79     		ldrb	r3, [r5, #7]	@ zero_extendqisi2
 6395 0124 032B     		cmp	r3, #3
 6396 0126 00F0A280 		beq	.L1770
 6397              	.L1772:
 6398 012a 296C     		ldr	r1, [r5, #64]
 6399 012c 4FF0FF32 		mov	r2, #-1
 6400 0130 2846     		mov	r0, r5
 6401 0132 FFF7FEFF 		bl	fill_last_frag
 6402 0136 0446     		mov	r4, r0
 6403 0138 0028     		cmp	r0, #0
 6404 013a AED1     		bne	.L1762
 6405 013c D5E90931 		ldrd	r3, r1, [r5, #36]
 6406 0140 019A     		ldr	r2, [sp, #4]
 6407 0142 8DF80F30 		strb	r3, [sp, #15]
 6408 0146 18A8     		add	r0, sp, #96
 6409 0148 D060     		str	r0, [r2, #12]
 6410 014a 23F0FF03 		bic	r3, r3, #255
 6411 014e 98A8     		add	r0, sp, #608
 6412 0150 1061     		str	r0, [r2, #16]
 6413 0152 CDE90634 		strd	r3, r4, [sp, #24]
 6414 0156 2B68     		ldr	r3, [r5]
 6415 0158 0293     		str	r3, [sp, #8]
 6416 015a 02A8     		add	r0, sp, #8
 6417 015c 2B6A     		ldr	r3, [r5, #32]
 6418 015e 0994     		str	r4, [sp, #36]
 6419 0160 1591     		str	r1, [sp, #84]
 6420 0162 0493     		str	r3, [sp, #16]
 6421 0164 FFF7FEFF 		bl	dir_sdi
 6422 0168 0446     		mov	r4, r0
 6423 016a 0028     		cmp	r0, #0
 6424 016c 95D1     		bne	.L1762
 6425 016e 02A8     		add	r0, sp, #8
 6426 0170 FFF7FEFF 		bl	load_xdir
 6427 0174 0446     		mov	r4, r0
 6428 0176 0028     		cmp	r0, #0
 6429 0178 8FD1     		bne	.L1762
 6430 017a 019B     		ldr	r3, [sp, #4]
 6431 017c 1969     		ldr	r1, [r3, #16]
 6432 017e 0A79     		ldrb	r2, [r1, #4]	@ zero_extendqisi2
 6433 0180 42F02002 		orr	r2, r2, #32
 6434 0184 0A71     		strb	r2, [r1, #4]
ARM GAS  /tmp/cc2a13AN.s 			page 114


 6435 0186 E979     		ldrb	r1, [r5, #7]	@ zero_extendqisi2
 6436 0188 1A69     		ldr	r2, [r3, #16]
 6437 018a 41F00101 		orr	r1, r1, #1
 6438 018e 82F82110 		strb	r1, [r2, #33]
 6439 0192 AA68     		ldr	r2, [r5, #8]
 6440 0194 1969     		ldr	r1, [r3, #16]
 6441 0196 170A     		lsrs	r7, r2, #8
 6442 0198 81F83420 		strb	r2, [r1, #52]
 6443 019c 81F83570 		strb	r7, [r1, #53]
 6444 01a0 170C     		lsrs	r7, r2, #16
 6445 01a2 120E     		lsrs	r2, r2, #24
 6446 01a4 81F83670 		strb	r7, [r1, #54]
 6447 01a8 81F83720 		strb	r2, [r1, #55]
 6448 01ac D5E90471 		ldrd	r7, r1, [r5, #16]
 6449 01b0 1A69     		ldr	r2, [r3, #16]
 6450 01b2 4FEA1728 		lsr	r8, r7, #8
 6451 01b6 82F83870 		strb	r7, [r2, #56]
 6452 01ba 82F83980 		strb	r8, [r2, #57]
 6453 01be 4FEA1748 		lsr	r8, r7, #16
 6454 01c2 3F0E     		lsrs	r7, r7, #24
 6455 01c4 82F83B70 		strb	r7, [r2, #59]
 6456 01c8 0F0A     		lsrs	r7, r1, #8
 6457 01ca 82F83C10 		strb	r1, [r2, #60]
 6458 01ce 82F83D70 		strb	r7, [r2, #61]
 6459 01d2 0F0C     		lsrs	r7, r1, #16
 6460 01d4 090E     		lsrs	r1, r1, #24
 6461 01d6 82F83A80 		strb	r8, [r2, #58]
 6462 01da 82F83E70 		strb	r7, [r2, #62]
 6463 01de 82F83F10 		strb	r1, [r2, #63]
 6464 01e2 D5E90471 		ldrd	r7, r1, [r5, #16]
 6465 01e6 1A69     		ldr	r2, [r3, #16]
 6466 01e8 4FEA1728 		lsr	r8, r7, #8
 6467 01ec 82F82870 		strb	r7, [r2, #40]
 6468 01f0 82F82980 		strb	r8, [r2, #41]
 6469 01f4 4FEA1748 		lsr	r8, r7, #16
 6470 01f8 3F0E     		lsrs	r7, r7, #24
 6471 01fa 82F82B70 		strb	r7, [r2, #43]
 6472 01fe 0F0A     		lsrs	r7, r1, #8
 6473 0200 82F82C10 		strb	r1, [r2, #44]
 6474 0204 82F82A80 		strb	r8, [r2, #42]
 6475 0208 82F82D70 		strb	r7, [r2, #45]
 6476 020c 0F0C     		lsrs	r7, r1, #16
 6477 020e 090E     		lsrs	r1, r1, #24
 6478 0210 82F82E70 		strb	r7, [r2, #46]
 6479 0214 82F82F10 		strb	r1, [r2, #47]
 6480 0218 1A69     		ldr	r2, [r3, #16]
 6481 021a 4FEA162E 		lsr	lr, r6, #8
 6482 021e 1673     		strb	r6, [r2, #12]
 6483 0220 4FEA164C 		lsr	ip, r6, #16
 6484 0224 360E     		lsrs	r6, r6, #24
 6485 0226 82F80DE0 		strb	lr, [r2, #13]
 6486 022a 82F80EC0 		strb	ip, [r2, #14]
 6487 022e D673     		strb	r6, [r2, #15]
 6488 0230 1A69     		ldr	r2, [r3, #16]
 6489 0232 5475     		strb	r4, [r2, #21]
 6490 0234 1B69     		ldr	r3, [r3, #16]
 6491 0236 02A8     		add	r0, sp, #8
ARM GAS  /tmp/cc2a13AN.s 			page 115


 6492 0238 1C74     		strb	r4, [r3, #16]
 6493 023a 5C74     		strb	r4, [r3, #17]
 6494 023c 9C74     		strb	r4, [r3, #18]
 6495 023e DC74     		strb	r4, [r3, #19]
 6496 0240 FFF7FEFF 		bl	store_xdir
 6497 0244 0446     		mov	r4, r0
 6498 0246 0028     		cmp	r0, #0
 6499 0248 7FF427AF 		bne	.L1762
 6500 024c 0198     		ldr	r0, [sp, #4]
 6501 024e 1BE7     		b	.L1802
 6502              	.L1808:
 6503 0250 019B     		ldr	r3, [sp, #4]
 6504 0252 13B1     		cbz	r3, .L1803
 6505 0254 5869     		ldr	r0, [r3, #20]
 6506 0256 FFF7FEFF 		bl	ff_rel_grant
 6507              	.L1803:
 6508 025a 0124     		movs	r4, #1
 6509 025c E5E6     		b	.L1765
 6510              	.L1775:
 6511 025e 3846     		mov	r0, r7
 6512 0260 FFF7FEFF 		bl	sync_window.part.0
 6513 0264 0446     		mov	r4, r0
 6514 0266 0028     		cmp	r0, #0
 6515 0268 3FF437AF 		beq	.L1778
 6516 026c 15E7     		b	.L1762
 6517              	.L1770:
 6518 026e 2846     		mov	r0, r5
 6519 0270 FFF7FEFF 		bl	fill_first_frag.part.0
 6520 0274 0446     		mov	r4, r0
 6521 0276 0028     		cmp	r0, #0
 6522 0278 3FF457AF 		beq	.L1772
 6523 027c 0DE7     		b	.L1762
 6524              		.size	f_sync, .-f_sync
 6525 027e 00BF     		.section	.text.f_close,"ax",%progbits
 6526              		.align	1
 6527              		.p2align 4,,15
 6528              		.global	f_close
 6529              		.syntax unified
 6530              		.thumb
 6531              		.thumb_func
 6532              		.fpu fpv4-sp-d16
 6533              		.type	f_close, %function
 6534              	f_close:
 6535              		@ args = 0, pretend = 0, frame = 8
 6536              		@ frame_needed = 0, uses_anonymous_args = 0
 6537 0000 30B5     		push	{r4, r5, lr}
 6538 0002 83B0     		sub	sp, sp, #12
 6539 0004 0546     		mov	r5, r0
 6540 0006 FFF7FEFF 		bl	f_sync
 6541 000a 0446     		mov	r4, r0
 6542 000c 10B1     		cbz	r0, .L1825
 6543              	.L1810:
 6544 000e 2046     		mov	r0, r4
 6545 0010 03B0     		add	sp, sp, #12
 6546              		@ sp needed
 6547 0012 30BD     		pop	{r4, r5, pc}
 6548              	.L1825:
ARM GAS  /tmp/cc2a13AN.s 			page 116


 6549 0014 01A9     		add	r1, sp, #4
 6550 0016 2846     		mov	r0, r5
 6551 0018 FFF7FEFF 		bl	validate
 6552 001c 0446     		mov	r4, r0
 6553 001e 0028     		cmp	r0, #0
 6554 0020 F5D1     		bne	.L1810
 6555 0022 EB6A     		ldr	r3, [r5, #44]
 6556 0024 013B     		subs	r3, r3, #1
 6557 0026 092B     		cmp	r3, #9
 6558 0028 19D8     		bhi	.L1817
 6559 002a 0E49     		ldr	r1, .L1827
 6560 002c 1801     		lsls	r0, r3, #4
 6561 002e 01EB0313 		add	r3, r1, r3, lsl #4
 6562 0032 9A89     		ldrh	r2, [r3, #12]
 6563 0034 B2F5807F 		cmp	r2, #256
 6564 0038 0DD0     		beq	.L1826
 6565 003a 6AB1     		cbz	r2, .L1813
 6566 003c 013A     		subs	r2, r2, #1
 6567 003e 92B2     		uxth	r2, r2
 6568 0040 9A81     		strh	r2, [r3, #12]	@ movhi
 6569 0042 4AB1     		cbz	r2, .L1813
 6570              	.L1816:
 6571 0044 0023     		movs	r3, #0
 6572 0046 2B60     		str	r3, [r5]
 6573              	.L1811:
 6574 0048 019B     		ldr	r3, [sp, #4]
 6575 004a 002B     		cmp	r3, #0
 6576 004c DFD0     		beq	.L1810
 6577 004e 5869     		ldr	r0, [r3, #20]
 6578 0050 FFF7FEFF 		bl	ff_rel_grant
 6579 0054 DBE7     		b	.L1810
 6580              	.L1826:
 6581 0056 9C81     		strh	r4, [r3, #12]	@ movhi
 6582              	.L1813:
 6583 0058 0023     		movs	r3, #0
 6584 005a 0B50     		str	r3, [r1, r0]
 6585 005c F2E7     		b	.L1816
 6586              	.L1817:
 6587 005e 0224     		movs	r4, #2
 6588 0060 F2E7     		b	.L1811
 6589              	.L1828:
 6590 0062 00BF     		.align	2
 6591              	.L1827:
 6592 0064 00000000 		.word	.LANCHOR0
 6593              		.size	f_close, .-f_close
 6594              		.section	.text.f_chdrive,"ax",%progbits
 6595              		.align	1
 6596              		.p2align 4,,15
 6597              		.global	f_chdrive
 6598              		.syntax unified
 6599              		.thumb
 6600              		.thumb_func
 6601              		.fpu fpv4-sp-d16
 6602              		.type	f_chdrive, %function
 6603              	f_chdrive:
 6604              		@ args = 0, pretend = 0, frame = 8
 6605              		@ frame_needed = 0, uses_anonymous_args = 0
ARM GAS  /tmp/cc2a13AN.s 			page 117


 6606 0000 00B5     		push	{lr}
 6607 0002 83B0     		sub	sp, sp, #12
 6608 0004 0190     		str	r0, [sp, #4]
 6609 0006 01A8     		add	r0, sp, #4
 6610 0008 FFF7FEFF 		bl	get_ldnumber
 6611 000c 031E     		subs	r3, r0, #0
 6612 000e A5BF     		ittet	ge
 6613 0010 034A     		ldrge	r2, .L1833
 6614 0012 0020     		movge	r0, #0
 6615 0014 0B20     		movlt	r0, #11
 6616 0016 1370     		strbge	r3, [r2]
 6617 0018 03B0     		add	sp, sp, #12
 6618              		@ sp needed
 6619 001a 5DF804FB 		ldr	pc, [sp], #4
 6620              	.L1834:
 6621 001e 00BF     		.align	2
 6622              	.L1833:
 6623 0020 00000000 		.word	.LANCHOR1
 6624              		.size	f_chdrive, .-f_chdrive
 6625              		.section	.text.f_chdir,"ax",%progbits
 6626              		.align	1
 6627              		.p2align 4,,15
 6628              		.global	f_chdir
 6629              		.syntax unified
 6630              		.thumb
 6631              		.thumb_func
 6632              		.fpu fpv4-sp-d16
 6633              		.type	f_chdir, %function
 6634              	f_chdir:
 6635              		@ args = 0, pretend = 0, frame = 1224
 6636              		@ frame_needed = 0, uses_anonymous_args = 0
 6637 0000 10B5     		push	{r4, lr}
 6638 0002 ADF5996D 		sub	sp, sp, #1224
 6639 0006 0022     		movs	r2, #0
 6640 0008 0190     		str	r0, [sp, #4]
 6641 000a 03A9     		add	r1, sp, #12
 6642 000c 01A8     		add	r0, sp, #4
 6643 000e FFF7FEFF 		bl	mount_volume
 6644 0012 50B1     		cbz	r0, .L1862
 6645 0014 0446     		mov	r4, r0
 6646              	.L1836:
 6647 0016 039B     		ldr	r3, [sp, #12]
 6648 0018 1BB1     		cbz	r3, .L1844
 6649 001a 0C2C     		cmp	r4, #12
 6650 001c 01D0     		beq	.L1844
 6651 001e 0B2C     		cmp	r4, #11
 6652 0020 32D1     		bne	.L1863
 6653              	.L1844:
 6654 0022 2046     		mov	r0, r4
 6655 0024 0DF5996D 		add	sp, sp, #1224
 6656              		@ sp needed
 6657 0028 10BD     		pop	{r4, pc}
 6658              	.L1862:
 6659 002a 039B     		ldr	r3, [sp, #12]
 6660 002c 0199     		ldr	r1, [sp, #4]
 6661 002e 0493     		str	r3, [sp, #16]
 6662 0030 1AAA     		add	r2, sp, #104
ARM GAS  /tmp/cc2a13AN.s 			page 118


