ARM GAS  /tmp/ccjdIEbE.s 			page 1


   1              		.cpu cortex-m4
   2              		.eabi_attribute 27, 1
   3              		.eabi_attribute 20, 1
   4              		.eabi_attribute 21, 1
   5              		.eabi_attribute 23, 3
   6              		.eabi_attribute 24, 1
   7              		.eabi_attribute 25, 1
   8              		.eabi_attribute 26, 1
   9              		.eabi_attribute 30, 2
  10              		.eabi_attribute 34, 1
  11              		.eabi_attribute 18, 4
  12              		.file	"gpio_arch.c"
  13              		.text
  14              		.section	.text.gpio_setup_output,"ax",%progbits
  15              		.align	1
  16              		.p2align 4,,15
  17              		.global	gpio_setup_output
  18              		.arch armv7e-m
  19              		.syntax unified
  20              		.thumb
  21              		.thumb_func
  22              		.fpu fpv4-sp-d16
  23              		.type	gpio_setup_output, %function
  24              	gpio_setup_output:
  25              		@ args = 0, pretend = 0, frame = 8
  26              		@ frame_needed = 0, uses_anonymous_args = 0
  27 0000 10B5     		push	{r4, lr}
  28 0002 82B0     		sub	sp, sp, #8
  29 0004 0C46     		mov	r4, r1
  30 0006 0190     		str	r0, [sp, #4]
  31 0008 3023     		movs	r3, #48
  32              		.syntax unified
  33              	@ 493 "/home/argroos/paparazzi/sw/ext/chibios/os/common/ext/ARM/CMSIS/Core/Include/cmsis_gcc.h" 1
  34 000a 83F31188 		MSR basepri, r3
  35              	@ 0 "" 2
  36              		.thumb
  37              		.syntax unified
  38 000e FFF7FEFF 		bl	__stats_start_measure_crit_thd
  39 0012 0122     		movs	r2, #1
  40 0014 0198     		ldr	r0, [sp, #4]
  41 0016 02FA04F1 		lsl	r1, r2, r4
  42 001a FFF7FEFF 		bl	_pal_lld_setgroupmode
  43 001e FFF7FEFF 		bl	__stats_stop_measure_crit_thd
  44 0022 0023     		movs	r3, #0
  45              		.syntax unified
  46              	@ 493 "/home/argroos/paparazzi/sw/ext/chibios/os/common/ext/ARM/CMSIS/Core/Include/cmsis_gcc.h" 1
  47 0024 83F31188 		MSR basepri, r3
  48              	@ 0 "" 2
  49              		.thumb
  50              		.syntax unified
  51 0028 02B0     		add	sp, sp, #8
  52              		@ sp needed
  53 002a 10BD     		pop	{r4, pc}
  54              		.size	gpio_setup_output, .-gpio_setup_output
  55              		.section	.text.gpio_setup_input,"ax",%progbits
  56              		.align	1
  57              		.p2align 4,,15
ARM GAS  /tmp/ccjdIEbE.s 			page 2


  58              		.global	gpio_setup_input
  59              		.syntax unified
  60              		.thumb
  61              		.thumb_func
  62              		.fpu fpv4-sp-d16
  63              		.type	gpio_setup_input, %function
  64              	gpio_setup_input:
  65              		@ args = 0, pretend = 0, frame = 8
  66              		@ frame_needed = 0, uses_anonymous_args = 0
  67 0000 10B5     		push	{r4, lr}
  68 0002 82B0     		sub	sp, sp, #8
  69 0004 0C46     		mov	r4, r1
  70 0006 0190     		str	r0, [sp, #4]
  71 0008 3023     		movs	r3, #48
  72              		.syntax unified
  73              	@ 493 "/home/argroos/paparazzi/sw/ext/chibios/os/common/ext/ARM/CMSIS/Core/Include/cmsis_gcc.h" 1
  74 000a 83F31188 		MSR basepri, r3
  75              	@ 0 "" 2
  76              		.thumb
  77              		.syntax unified
  78 000e FFF7FEFF 		bl	__stats_start_measure_crit_thd
  79 0012 0121     		movs	r1, #1
  80 0014 0198     		ldr	r0, [sp, #4]
  81 0016 0022     		movs	r2, #0
  82 0018 A140     		lsls	r1, r1, r4
  83 001a FFF7FEFF 		bl	_pal_lld_setgroupmode
  84 001e FFF7FEFF 		bl	__stats_stop_measure_crit_thd
  85 0022 0023     		movs	r3, #0
  86              		.syntax unified
  87              	@ 493 "/home/argroos/paparazzi/sw/ext/chibios/os/common/ext/ARM/CMSIS/Core/Include/cmsis_gcc.h" 1
  88 0024 83F31188 		MSR basepri, r3
  89              	@ 0 "" 2
  90              		.thumb
  91              		.syntax unified
  92 0028 02B0     		add	sp, sp, #8
  93              		@ sp needed
  94 002a 10BD     		pop	{r4, pc}
  95              		.size	gpio_setup_input, .-gpio_setup_input
  96              		.section	.text.gpio_setup_input_pullup,"ax",%progbits
  97              		.align	1
  98              		.p2align 4,,15
  99              		.global	gpio_setup_input_pullup
 100              		.syntax unified
 101              		.thumb
 102              		.thumb_func
 103              		.fpu fpv4-sp-d16
 104              		.type	gpio_setup_input_pullup, %function
 105              	gpio_setup_input_pullup:
 106              		@ args = 0, pretend = 0, frame = 8
 107              		@ frame_needed = 0, uses_anonymous_args = 0
 108 0000 10B5     		push	{r4, lr}
 109 0002 82B0     		sub	sp, sp, #8
 110 0004 0C46     		mov	r4, r1
 111 0006 0190     		str	r0, [sp, #4]
 112 0008 3023     		movs	r3, #48
 113              		.syntax unified
 114              	@ 493 "/home/argroos/paparazzi/sw/ext/chibios/os/common/ext/ARM/CMSIS/Core/Include/cmsis_gcc.h" 1
ARM GAS  /tmp/ccjdIEbE.s 			page 3


 115 000a 83F31188 		MSR basepri, r3
 116              	@ 0 "" 2
 117              		.thumb
 118              		.syntax unified
 119 000e FFF7FEFF 		bl	__stats_start_measure_crit_thd
 120 0012 0121     		movs	r1, #1
 121 0014 0198     		ldr	r0, [sp, #4]
 122 0016 2022     		movs	r2, #32
 123 0018 A140     		lsls	r1, r1, r4
 124 001a FFF7FEFF 		bl	_pal_lld_setgroupmode
 125 001e FFF7FEFF 		bl	__stats_stop_measure_crit_thd
 126 0022 0023     		movs	r3, #0
 127              		.syntax unified
 128              	@ 493 "/home/argroos/paparazzi/sw/ext/chibios/os/common/ext/ARM/CMSIS/Core/Include/cmsis_gcc.h" 1
 129 0024 83F31188 		MSR basepri, r3
 130              	@ 0 "" 2
 131              		.thumb
 132              		.syntax unified
 133 0028 02B0     		add	sp, sp, #8
 134              		@ sp needed
 135 002a 10BD     		pop	{r4, pc}
 136              		.size	gpio_setup_input_pullup, .-gpio_setup_input_pullup
 137              		.section	.text.gpio_setup_input_pulldown,"ax",%progbits
 138              		.align	1
 139              		.p2align 4,,15
 140              		.global	gpio_setup_input_pulldown
 141              		.syntax unified
 142              		.thumb
 143              		.thumb_func
 144              		.fpu fpv4-sp-d16
 145              		.type	gpio_setup_input_pulldown, %function
 146              	gpio_setup_input_pulldown:
 147              		@ args = 0, pretend = 0, frame = 8
 148              		@ frame_needed = 0, uses_anonymous_args = 0
 149 0000 10B5     		push	{r4, lr}
 150 0002 82B0     		sub	sp, sp, #8
 151 0004 0C46     		mov	r4, r1
 152 0006 0190     		str	r0, [sp, #4]
 153 0008 3023     		movs	r3, #48
 154              		.syntax unified
 155              	@ 493 "/home/argroos/paparazzi/sw/ext/chibios/os/common/ext/ARM/CMSIS/Core/Include/cmsis_gcc.h" 1
 156 000a 83F31188 		MSR basepri, r3
 157              	@ 0 "" 2
 158              		.thumb
 159              		.syntax unified
 160 000e FFF7FEFF 		bl	__stats_start_measure_crit_thd
 161 0012 0121     		movs	r1, #1
 162 0014 0198     		ldr	r0, [sp, #4]
 163 0016 4022     		movs	r2, #64
 164 0018 A140     		lsls	r1, r1, r4
 165 001a FFF7FEFF 		bl	_pal_lld_setgroupmode
 166 001e FFF7FEFF 		bl	__stats_stop_measure_crit_thd
 167 0022 0023     		movs	r3, #0
 168              		.syntax unified
 169              	@ 493 "/home/argroos/paparazzi/sw/ext/chibios/os/common/ext/ARM/CMSIS/Core/Include/cmsis_gcc.h" 1
 170 0024 83F31188 		MSR basepri, r3
 171              	@ 0 "" 2
ARM GAS  /tmp/ccjdIEbE.s 			page 4


 172              		.thumb
 173              		.syntax unified
 174 0028 02B0     		add	sp, sp, #8
 175              		@ sp needed
 176 002a 10BD     		pop	{r4, pc}
 177              		.size	gpio_setup_input_pulldown, .-gpio_setup_input_pulldown
 178              		.section	.text.gpio_setup_pin_af_pullup,"ax",%progbits
 179              		.align	1
 180              		.p2align 4,,15
 181              		.global	gpio_setup_pin_af_pullup
 182              		.syntax unified
 183              		.thumb
 184              		.thumb_func
 185              		.fpu fpv4-sp-d16
 186              		.type	gpio_setup_pin_af_pullup, %function
 187              	gpio_setup_pin_af_pullup:
 188              		@ args = 0, pretend = 0, frame = 0
 189              		@ frame_needed = 0, uses_anonymous_args = 0
 190              		@ link register save eliminated.
 191 0000 D201     		lsls	r2, r2, #7
 192 0002 0123     		movs	r3, #1
 193 0004 42F02202 		orr	r2, r2, #34
 194 0008 03FA01F1 		lsl	r1, r3, r1
 195 000c FFF7FEBF 		b	_pal_lld_setgroupmode
 196              		.size	gpio_setup_pin_af_pullup, .-gpio_setup_pin_af_pullup
 197              		.section	.text.gpio_setup_pin_af,"ax",%progbits
 198              		.align	1
 199              		.p2align 4,,15
 200              		.global	gpio_setup_pin_af
 201              		.syntax unified
 202              		.thumb
 203              		.thumb_func
 204              		.fpu fpv4-sp-d16
 205              		.type	gpio_setup_pin_af, %function
 206              	gpio_setup_pin_af:
 207              		@ args = 0, pretend = 0, frame = 8
 208              		@ frame_needed = 0, uses_anonymous_args = 0
 209 0000 70B5     		push	{r4, r5, r6, lr}
 210 0002 82B0     		sub	sp, sp, #8
 211 0004 1D46     		mov	r5, r3
 212 0006 0190     		str	r0, [sp, #4]
 213 0008 0E46     		mov	r6, r1
 214 000a 1446     		mov	r4, r2
 215 000c 3023     		movs	r3, #48
 216              		.syntax unified
 217              	@ 493 "/home/argroos/paparazzi/sw/ext/chibios/os/common/ext/ARM/CMSIS/Core/Include/cmsis_gcc.h" 1
 218 000e 83F31188 		MSR basepri, r3
 219              	@ 0 "" 2
 220              		.thumb
 221              		.syntax unified
 222 0012 FFF7FEFF 		bl	__stats_start_measure_crit_thd
 223 0016 0198     		ldr	r0, [sp, #4]
 224 0018 94B9     		cbnz	r4, .L16
 225 001a 5DB9     		cbnz	r5, .L17
 226 001c 0121     		movs	r1, #1
 227 001e 2A46     		mov	r2, r5
 228 0020 B140     		lsls	r1, r1, r6
ARM GAS  /tmp/ccjdIEbE.s 			page 5


 229 0022 FFF7FEFF 		bl	_pal_lld_setgroupmode
 230              	.L13:
 231 0026 FFF7FEFF 		bl	__stats_stop_measure_crit_thd
 232 002a 0023     		movs	r3, #0
 233              		.syntax unified
 234              	@ 493 "/home/argroos/paparazzi/sw/ext/chibios/os/common/ext/ARM/CMSIS/Core/Include/cmsis_gcc.h" 1
 235 002c 83F31188 		MSR basepri, r3
 236              	@ 0 "" 2
 237              		.thumb
 238              		.syntax unified
 239 0030 02B0     		add	sp, sp, #8
 240              		@ sp needed
 241 0032 70BD     		pop	{r4, r5, r6, pc}
 242              	.L17:
 243 0034 0122     		movs	r2, #1
 244 0036 02FA06F1 		lsl	r1, r2, r6
 245 003a FFF7FEFF 		bl	_pal_lld_setgroupmode
 246 003e F2E7     		b	.L13
 247              	.L16:
 248 0040 E201     		lsls	r2, r4, #7
 249 0042 0121     		movs	r1, #1
 250 0044 42F00202 		orr	r2, r2, #2
 251 0048 B140     		lsls	r1, r1, r6
 252 004a FFF7FEFF 		bl	_pal_lld_setgroupmode
 253 004e EAE7     		b	.L13
 254              		.size	gpio_setup_pin_af, .-gpio_setup_pin_af
 255              		.section	.text.gpio_setup_pin_analog,"ax",%progbits
 256              		.align	1
 257              		.p2align 4,,15
 258              		.global	gpio_setup_pin_analog
 259              		.syntax unified
 260              		.thumb
 261              		.thumb_func
 262              		.fpu fpv4-sp-d16
 263              		.type	gpio_setup_pin_analog, %function
 264              	gpio_setup_pin_analog:
 265              		@ args = 0, pretend = 0, frame = 8
 266              		@ frame_needed = 0, uses_anonymous_args = 0
 267 0000 10B5     		push	{r4, lr}
 268 0002 82B0     		sub	sp, sp, #8
 269 0004 0C46     		mov	r4, r1
 270 0006 0190     		str	r0, [sp, #4]
 271 0008 3023     		movs	r3, #48
 272              		.syntax unified
 273              	@ 493 "/home/argroos/paparazzi/sw/ext/chibios/os/common/ext/ARM/CMSIS/Core/Include/cmsis_gcc.h" 1
 274 000a 83F31188 		MSR basepri, r3
 275              	@ 0 "" 2
 276              		.thumb
 277              		.syntax unified
 278 000e FFF7FEFF 		bl	__stats_start_measure_crit_thd
 279 0012 0121     		movs	r1, #1
 280 0014 0198     		ldr	r0, [sp, #4]
 281 0016 0322     		movs	r2, #3
 282 0018 A140     		lsls	r1, r1, r4
 283 001a FFF7FEFF 		bl	_pal_lld_setgroupmode
 284 001e FFF7FEFF 		bl	__stats_stop_measure_crit_thd
 285 0022 0023     		movs	r3, #0
ARM GAS  /tmp/ccjdIEbE.s 			page 6


 286              		.syntax unified
 287              	@ 493 "/home/argroos/paparazzi/sw/ext/chibios/os/common/ext/ARM/CMSIS/Core/Include/cmsis_gcc.h" 1
 288 0024 83F31188 		MSR basepri, r3
 289              	@ 0 "" 2
 290              		.thumb
 291              		.syntax unified
 292 0028 02B0     		add	sp, sp, #8
 293              		@ sp needed
 294 002a 10BD     		pop	{r4, pc}
 295              		.size	gpio_setup_pin_analog, .-gpio_setup_pin_analog
 296              		.ident	"GCC: (15:10.3-2021.07-4) 10.3.1 20210621 (release)"
ARM GAS  /tmp/ccjdIEbE.s 			page 7

