ARM GAS  /tmp/ccN4Q8qI.s 			page 1


   1              		.cpu cortex-m4
   2              		.eabi_attribute 27, 1
   3              		.eabi_attribute 20, 1
   4              		.eabi_attribute 21, 1
   5              		.eabi_attribute 23, 3
   6              		.eabi_attribute 24, 1
   7              		.eabi_attribute 25, 1
   8              		.eabi_attribute 26, 1
   9              		.eabi_attribute 30, 2
  10              		.eabi_attribute 34, 1
  11              		.eabi_attribute 18, 4
  12              		.file	"guidance_v.c"
  13              		.text
  14              		.section	.text.v_ctl_init,"ax",%progbits
  15              		.align	1
  16              		.p2align 4,,15
  17              		.global	v_ctl_init
  18              		.arch armv7e-m
  19              		.syntax unified
  20              		.thumb
  21              		.thumb_func
  22              		.fpu fpv4-sp-d16
  23              		.type	v_ctl_init, %function
  24              	v_ctl_init:
  25              		@ args = 0, pretend = 0, frame = 0
  26              		@ frame_needed = 0, uses_anonymous_args = 0
  27              		@ link register save eliminated.
  28 0000 2848     		ldr	r0, .L4
  29 0002 2949     		ldr	r1, .L4+4
  30 0004 DFF818C1 		ldr	ip, .L4+124
  31 0008 70B4     		push	{r4, r5, r6}
  32 000a 0023     		movs	r3, #0
  33 000c 274C     		ldr	r4, .L4+8
  34 000e 0360     		str	r3, [r0]	@ float
  35 0010 2748     		ldr	r0, .L4+12
  36 0012 2360     		str	r3, [r4]	@ float
  37 0014 274C     		ldr	r4, .L4+16
  38 0016 0460     		str	r4, [r0]	@ float
  39 0018 2748     		ldr	r0, .L4+20
  40 001a 284E     		ldr	r6, .L4+24
  41 001c 0360     		str	r3, [r0]	@ float
  42 001e 2848     		ldr	r0, .L4+28
  43 0020 284D     		ldr	r5, .L4+32
  44 0022 0360     		str	r3, [r0]	@ float
  45 0024 2848     		ldr	r0, .L4+36
  46 0026 294C     		ldr	r4, .L4+40
  47 0028 0022     		movs	r2, #0
  48 002a 0270     		strb	r2, [r0]
  49 002c 2848     		ldr	r0, .L4+44
  50 002e 2A70     		strb	r2, [r5]
  51 0030 0270     		strb	r2, [r0]
  52 0032 2848     		ldr	r0, .L4+48
  53 0034 284D     		ldr	r5, .L4+52
  54 0036 0360     		str	r3, [r0]	@ float
  55 0038 2848     		ldr	r0, .L4+56
  56 003a 0360     		str	r3, [r0]	@ float
  57 003c 2848     		ldr	r0, .L4+60
ARM GAS  /tmp/ccN4Q8qI.s 			page 2


  58 003e 0160     		str	r1, [r0]	@ float
  59 0040 2848     		ldr	r0, .L4+64
  60 0042 0660     		str	r6, [r0]	@ float
  61 0044 284E     		ldr	r6, .L4+68
  62 0046 2948     		ldr	r0, .L4+72
  63 0048 3160     		str	r1, [r6]	@ float
  64 004a 2949     		ldr	r1, .L4+76
  65 004c C1F800C0 		str	ip, [r1]	@ float
  66 0050 2849     		ldr	r1, .L4+80
  67 0052 DFF8D0C0 		ldr	ip, .L4+128
  68 0056 C1F800C0 		str	ip, [r1]	@ float
  69 005a 2749     		ldr	r1, .L4+84
  70 005c DFF8C8C0 		ldr	ip, .L4+132
  71 0060 C1F800C0 		str	ip, [r1]	@ float
  72 0064 2549     		ldr	r1, .L4+88
  73 0066 DFF8C4C0 		ldr	ip, .L4+136
  74 006a 0B60     		str	r3, [r1]	@ float
  75 006c 2449     		ldr	r1, .L4+92
  76 006e 0B60     		str	r3, [r1]	@ float
  77 0070 2449     		ldr	r1, .L4+96
  78 0072 C1F800C0 		str	ip, [r1]	@ float
  79 0076 2449     		ldr	r1, .L4+100
  80 0078 DFF8B4C0 		ldr	ip, .L4+140
  81 007c 0B60     		str	r3, [r1]	@ float
  82 007e 2349     		ldr	r1, .L4+104
  83 0080 C1F800C0 		str	ip, [r1]	@ float
  84 0084 2249     		ldr	r1, .L4+108
  85 0086 0B60     		str	r3, [r1]	@ float
  86 0088 2249     		ldr	r1, .L4+112
  87 008a 0B60     		str	r3, [r1]	@ float
  88 008c 224B     		ldr	r3, .L4+116
  89 008e 1A80     		strh	r2, [r3]	@ movhi
  90 0090 4FF07E53 		mov	r3, #1065353216
  91 0094 2B60     		str	r3, [r5]	@ float
  92 0096 214A     		ldr	r2, .L4+120
  93 0098 2260     		str	r2, [r4]	@ float
  94 009a 4FF07C53 		mov	r3, #1056964608
  95 009e 70BC     		pop	{r4, r5, r6}
  96 00a0 0360     		str	r3, [r0]	@ float
  97 00a2 7047     		bx	lr
  98              	.L5:
  99              		.align	2
 100              	.L4:
 101 00a4 00000000 		.word	.LANCHOR1
 102 00a8 6666E63E 		.word	1055286886
 103 00ac 00000000 		.word	.LANCHOR2
 104 00b0 00000000 		.word	.LANCHOR3
 105 00b4 EC51383E 		.word	1043878380
 106 00b8 00000000 		.word	.LANCHOR4
 107 00bc CDCCCC3E 		.word	1053609165
 108 00c0 00000000 		.word	.LANCHOR7
 109 00c4 00000000 		.word	.LANCHOR0
 110 00c8 00000000 		.word	.LANCHOR8
 111 00cc 00000000 		.word	.LANCHOR6
 112 00d0 00000000 		.word	.LANCHOR9
 113 00d4 00000000 		.word	.LANCHOR10
 114 00d8 00000000 		.word	.LANCHOR5
ARM GAS  /tmp/ccN4Q8qI.s 			page 3


 115 00dc 00000000 		.word	.LANCHOR11
 116 00e0 00000000 		.word	.LANCHOR12
 117 00e4 00000000 		.word	.LANCHOR13
 118 00e8 00000000 		.word	.LANCHOR15
 119 00ec 00000000 		.word	.LANCHOR14
 120 00f0 00000000 		.word	.LANCHOR16
 121 00f4 00000000 		.word	.LANCHOR17
 122 00f8 00000000 		.word	.LANCHOR18
 123 00fc 00000000 		.word	.LANCHOR19
 124 0100 00000000 		.word	.LANCHOR20
 125 0104 00000000 		.word	.LANCHOR21
 126 0108 00000000 		.word	.LANCHOR22
 127 010c 00000000 		.word	.LANCHOR23
 128 0110 00000000 		.word	.LANCHOR24
 129 0114 00000000 		.word	.LANCHOR25
 130 0118 00000000 		.word	.LANCHOR26
 131 011c 0000A040 		.word	1084227584
 132 0120 CDCCCC3D 		.word	1036831949
 133 0124 6F12033B 		.word	990057071
 134 0128 6F12833B 		.word	998445679
 135 012c 8FC2F53C 		.word	1022739087
 136 0130 0AD7233D 		.word	1025758986
 137              		.size	v_ctl_init, .-v_ctl_init
 138              		.section	.text.v_ctl_altitude_loop,"ax",%progbits
 139              		.align	1
 140              		.p2align 4,,15
 141              		.global	v_ctl_altitude_loop
 142              		.syntax unified
 143              		.thumb
 144              		.thumb_func
 145              		.fpu fpv4-sp-d16
 146              		.type	v_ctl_altitude_loop, %function
 147              	v_ctl_altitude_loop:
 148              		@ args = 0, pretend = 0, frame = 0
 149              		@ frame_needed = 0, uses_anonymous_args = 0
 150 0000 10B5     		push	{r4, lr}
 151 0002 1E4C     		ldr	r4, .L12
 152 0004 1E4A     		ldr	r2, .L12+4
 153 0006 2388     		ldrh	r3, [r4]
 154 0008 9B05     		lsls	r3, r3, #22
 155 000a 2DED028B 		vpush.64	{d8}
 156 000e 92ED008A 		vldr.32	s16, [r2]
 157 0012 2FD5     		bpl	.L11
 158              	.L7:
 159 0014 1B4A     		ldr	r2, .L12+8
 160 0016 1C49     		ldr	r1, .L12+12
 161 0018 D2ED006A 		vldr.32	s13, [r2]
 162 001c 1B4B     		ldr	r3, .L12+16
 163 001e 94ED207A 		vldr.32	s14, [r4, #128]
 164 0022 D1ED007A 		vldr.32	s15, [r1]
 165 0026 1A4A     		ldr	r2, .L12+20
 166 0028 38EE477A 		vsub.f32	s14, s16, s14
 167 002c 67EEA67A 		vmul.f32	s15, s15, s13
 168 0030 D3ED006A 		vldr.32	s13, [r3]
 169 0034 174B     		ldr	r3, .L12+24
 170 0036 82ED007A 		vstr.32	s14, [r2]
 171 003a E7EE267A 		vfma.f32	s15, s14, s13
ARM GAS  /tmp/ccN4Q8qI.s 			page 4


 172 003e D3ED006A 		vldr.32	s13, [r3]
 173 0042 154B     		ldr	r3, .L12+28
 174 0044 B1EE666A 		vneg.f32	s12, s13
 175 0048 F4EEC67A 		vcmpe.f32	s15, s12
 176 004c F1EE10FA 		vmrs	APSR_nzcv, FPSCR
 177 0050 C3ED007A 		vstr.32	s15, [r3]
 178 0054 04DC     		bgt	.L8
 179 0056 BDEC028B 		vldm	sp!, {d8}
 180 005a 83ED006A 		vstr.32	s12, [r3]
 181 005e 10BD     		pop	{r4, pc}
 182              	.L8:
 183 0060 BDEC028B 		vldm	sp!, {d8}
 184 0064 F4EEE67A 		vcmpe.f32	s15, s13
 185 0068 F1EE10FA 		vmrs	APSR_nzcv, FPSCR
 186 006c 58BF     		it	pl
 187 006e C3ED006A 		vstrpl.32	s13, [r3]
 188 0072 10BD     		pop	{r4, pc}
 189              	.L11:
 190 0074 FFF7FEFF 		bl	stateCalcPositionUtm_f
 191 0078 CCE7     		b	.L7
 192              	.L13:
 193 007a 00BF     		.align	2
 194              	.L12:
 195 007c 00000000 		.word	state
 196 0080 00000000 		.word	.LANCHOR1
 197 0084 00000000 		.word	.LANCHOR5
 198 0088 00000000 		.word	.LANCHOR2
 199 008c 00000000 		.word	.LANCHOR3
 200 0090 00000000 		.word	.LANCHOR4
 201 0094 00000000 		.word	.LANCHOR6
 202 0098 00000000 		.word	.LANCHOR7
 203              		.size	v_ctl_altitude_loop, .-v_ctl_altitude_loop
 204              		.global	__aeabi_f2d
 205              		.global	__aeabi_dcmpgt
 206              		.global	__aeabi_dcmplt
 207              		.section	.text.v_ctl_climb_loop,"ax",%progbits
 208              		.align	1
 209              		.p2align 4,,15
 210              		.global	v_ctl_climb_loop
 211              		.syntax unified
 212              		.thumb
 213              		.thumb_func
 214              		.fpu fpv4-sp-d16
 215              		.type	v_ctl_climb_loop, %function
 216              	v_ctl_climb_loop:
 217              		@ args = 0, pretend = 0, frame = 0
 218              		@ frame_needed = 0, uses_anonymous_args = 0
 219 0000 38B5     		push	{r3, r4, r5, lr}
 220 0002 2DED028B 		vpush.64	{d8}
 221 0006 704B     		ldr	r3, .L44+16
 222 0008 704C     		ldr	r4, .L44+20
 223 000a 1B78     		ldrb	r3, [r3]	@ zero_extendqisi2
 224 000c 012B     		cmp	r3, #1
 225 000e B4F81431 		ldrh	r3, [r4, #276]
 226 0012 6DD0     		beq	.L15
 227 0014 1A06     		lsls	r2, r3, #24
 228 0016 68D5     		bpl	.L39
ARM GAS  /tmp/ccN4Q8qI.s 			page 5


 229              	.L16:
 230 0018 6D4B     		ldr	r3, .L44+24
 231 001a 94ED596A 		vldr.32	s12, [r4, #356]
 232 001e D3ED007A 		vldr.32	s15, [r3]
 233 0022 6C49     		ldr	r1, .L44+28
 234 0024 6C4B     		ldr	r3, .L44+32
 235 0026 91ED007A 		vldr.32	s14, [r1]
 236 002a 6C4A     		ldr	r2, .L44+36
 237 002c D3ED006A 		vldr.32	s13, [r3]
 238 0030 6B48     		ldr	r0, .L44+40
 239 0032 6C49     		ldr	r1, .L44+44
 240 0034 6C4C     		ldr	r4, .L44+48
 241 0036 91ED004A 		vldr.32	s8, [r1]
 242 003a D2ED005A 		vldr.32	s11, [r2]
 243 003e D4ED004A 		vldr.32	s9, [r4]
 244 0042 6A49     		ldr	r1, .L44+52
 245 0044 36EE676A 		vsub.f32	s12, s12, s15
 246 0048 B0EE465A 		vmov.f32	s10, s12
 247 004c A7EE265A 		vfma.f32	s10, s14, s13
 248 0050 90ED007A 		vldr.32	s14, [r0]
 249 0054 6648     		ldr	r0, .L44+56
 250 0056 82ED006A 		vstr.32	s12, [r2]
 251 005a A7EEA47A 		vfma.f32	s14, s15, s9
 252 005e 76EE655A 		vsub.f32	s11, s12, s11
 253 0062 D1ED004A 		vldr.32	s9, [r1]
 254 0066 6349     		ldr	r1, .L44+60
 255 0068 A5EE845A 		vfma.f32	s10, s11, s8
 256 006c E5EEA47A 		vfma.f32	s15, s11, s9
 257 0070 76EE266A 		vadd.f32	s13, s12, s13
 258 0074 DFED605A 		vldr.32	s11, .L44+64
 259 0078 90ED004A 		vldr.32	s8, [r0]
 260 007c D1ED004A 		vldr.32	s9, [r1]
 261 0080 F4EEE56A 		vcmpe.f32	s13, s11
 262 0084 F1EE10FA 		vmrs	APSR_nzcv, FPSCR
 263 0088 A5EE447A 		vfms.f32	s14, s10, s8
 264 008c 67EEA47A 		vmul.f32	s15, s15, s9
 265 0090 28DD     		ble	.L40
 266 0092 9FED5A6A 		vldr.32	s12, .L44+68
 267 0096 F4EEC66A 		vcmpe.f32	s13, s12
 268 009a F1EE10FA 		vmrs	APSR_nzcv, FPSCR
 269 009e 58BF     		it	pl
 270 00a0 F0EE466A 		vmovpl.f32	s13, s12
 271 00a4 C3ED006A 		vstr.32	s13, [r3]
 272              	.L18:
 273 00a8 554A     		ldr	r2, .L44+72
 274 00aa 564B     		ldr	r3, .L44+76
 275 00ac D2ED006A 		vldr.32	s13, [r2]
 276 00b0 93ED006A 		vldr.32	s12, [r3]
 277 00b4 544B     		ldr	r3, .L44+80
 278 00b6 77EEA67A 		vadd.f32	s15, s15, s13
 279 00ba DFED546A 		vldr.32	s13, .L44+84
 280 00be 27EE267A 		vmul.f32	s14, s14, s13
 281 00c2 77EE867A 		vadd.f32	s15, s15, s12
 282 00c6 B5EEC07A 		vcmpe.f32	s14, #0
 283 00ca F1EE10FA 		vmrs	APSR_nzcv, FPSCR
 284 00ce C3ED007A 		vstr.32	s15, [r3]
 285 00d2 4FD4     		bmi	.L31
ARM GAS  /tmp/ccN4Q8qI.s 			page 6


 286 00d4 B4EEE67A 		vcmpe.f32	s14, s13
 287 00d8 F1EE10FA 		vmrs	APSR_nzcv, FPSCR
 288 00dc 50DD     		ble	.L41
 289 00de 4FF41653 		mov	r3, #9600
 290 00e2 48E0     		b	.L21
 291              	.L40:
 292 00e4 C3ED005A 		vstr.32	s11, [r3]
 293 00e8 DEE7     		b	.L18
 294              	.L39:
 295 00ea FFF7FEFF 		bl	stateCalcSpeedEnu_f
 296 00ee 93E7     		b	.L16
 297              	.L15:
 298 00f0 1B06     		lsls	r3, r3, #24
 299 00f2 5BD5     		bpl	.L42
 300              	.L23:
 301 00f4 364B     		ldr	r3, .L44+24
 302 00f6 D4ED597A 		vldr.32	s15, [r4, #356]
 303 00fa 93ED007A 		vldr.32	s14, [r3]
 304 00fe 444B     		ldr	r3, .L44+88
 305 0100 DFED446A 		vldr.32	s13, .L44+92
 306 0104 4449     		ldr	r1, .L44+96
 307 0106 454A     		ldr	r2, .L44+100
 308 0108 0988     		ldrh	r1, [r1]
 309 010a 1180     		strh	r1, [r2]	@ movhi
 310 010c 77EEC77A 		vsub.f32	s15, s15, s14
 311 0110 93ED007A 		vldr.32	s14, [r3]
 312 0114 37EE877A 		vadd.f32	s14, s15, s14
 313 0118 B4EEE67A 		vcmpe.f32	s14, s13
 314 011c F1EE10FA 		vmrs	APSR_nzcv, FPSCR
 315 0120 3ADC     		bgt	.L24
 316              	.L36:
 317 0122 B0EE667A 		vmov.f32	s14, s13
 318 0126 C3ED006A 		vstr.32	s13, [r3]
 319              	.L25:
 320 012a 3D4B     		ldr	r3, .L44+104
 321 012c 344A     		ldr	r2, .L44+72
 322 012e D3ED006A 		vldr.32	s13, [r3]
 323 0132 3C4B     		ldr	r3, .L44+108
 324 0134 92ED008A 		vldr.32	s16, [r2]
 325 0138 E6EE877A 		vfma.f32	s15, s13, s14
 326 013c 93ED007A 		vldr.32	s14, [r3]
 327 0140 A7EEC78A 		vfms.f32	s16, s15, s14
 328 0144 18EE100A 		vmov	r0, s16
 329 0148 FFF7FEFF 		bl	__aeabi_f2d
 330 014c 1AA3     		adr	r3, .L44
 331 014e D3E90023 		ldrd	r2, [r3]
 332 0152 0446     		mov	r4, r0
 333 0154 0D46     		mov	r5, r1
 334 0156 FFF7FEFF 		bl	__aeabi_dcmpgt
 335 015a B8B1     		cbz	r0, .L43
 336 015c 18A3     		adr	r3, .L44+8
 337 015e D3E90023 		ldrd	r2, [r3]
 338 0162 2046     		mov	r0, r4
 339 0164 2946     		mov	r1, r5
 340 0166 FFF7FEFF 		bl	__aeabi_dcmplt
 341 016a 274B     		ldr	r3, .L44+80
 342 016c 08B3     		cbz	r0, .L37
ARM GAS  /tmp/ccN4Q8qI.s 			page 7


 343 016e 83ED008A 		vstr.32	s16, [r3]
 344 0172 02E0     		b	.L14
 345              	.L31:
 346 0174 0023     		movs	r3, #0
 347              	.L21:
 348 0176 294A     		ldr	r2, .L44+100
 349 0178 1380     		strh	r3, [r2]	@ movhi
 350              	.L14:
 351 017a BDEC028B 		vldm	sp!, {d8}
 352 017e 38BD     		pop	{r3, r4, r5, pc}
 353              	.L41:
 354 0180 BDEEC77A 		vcvt.s32.f32	s14, s14
 355 0184 17EE103A 		vmov	r3, s14	@ int
 356 0188 1BB2     		sxth	r3, r3
 357 018a F4E7     		b	.L21
 358              	.L43:
 359 018c BDEC028B 		vldm	sp!, {d8}
 360 0190 1D4B     		ldr	r3, .L44+80
 361 0192 254A     		ldr	r2, .L44+112
 362 0194 1A60     		str	r2, [r3]	@ float
 363 0196 38BD     		pop	{r3, r4, r5, pc}
 364              	.L24:
 365 0198 DFED246A 		vldr.32	s13, .L44+116
 366 019c B4EEE67A 		vcmpe.f32	s14, s13
 367 01a0 F1EE10FA 		vmrs	APSR_nzcv, FPSCR
 368 01a4 BDD5     		bpl	.L36
 369 01a6 83ED007A 		vstr.32	s14, [r3]
 370 01aa BEE7     		b	.L25
 371              	.L42:
 372 01ac FFF7FEFF 		bl	stateCalcSpeedEnu_f
 373 01b0 A0E7     		b	.L23
 374              	.L37:
 375 01b2 1F4A     		ldr	r2, .L44+120
 376 01b4 1A60     		str	r2, [r3]	@ float
 377 01b6 E0E7     		b	.L14
 378              	.L45:
 379              		.align	3
 380              	.L44:
 381 01b8 D6A0794A 		.word	1249485014
 382 01bc 1857D6BF 		.word	-1076472040
 383 01c0 D6A0794A 		.word	1249485014
 384 01c4 1857D63F 		.word	1071011608
 385 01c8 00000000 		.word	.LANCHOR8
 386 01cc 00000000 		.word	state
 387 01d0 00000000 		.word	.LANCHOR7
 388 01d4 00000000 		.word	.LANCHOR18
 389 01d8 00000000 		.word	.LANCHOR20
 390 01dc 00000000 		.word	.LANCHOR27
 391 01e0 00000000 		.word	.LANCHOR15
 392 01e4 00000000 		.word	.LANCHOR19
 393 01e8 00000000 		.word	.LANCHOR16
 394 01ec 00000000 		.word	.LANCHOR22
 395 01f0 00000000 		.word	.LANCHOR17
 396 01f4 00000000 		.word	.LANCHOR21
 397 01f8 000016C3 		.word	-1021968384
 398 01fc 00001643 		.word	1125515264
 399 0200 00000000 		.word	.LANCHOR11
ARM GAS  /tmp/ccN4Q8qI.s 			page 8


 400 0204 00000000 		.word	nav_pitch
 401 0208 00000000 		.word	.LANCHOR10
 402 020c 00001646 		.word	1175846912
 403 0210 00000000 		.word	.LANCHOR25
 404 0214 0000C8C2 		.word	-1027080192
 405 0218 00000000 		.word	nav_throttle_setpoint
 406 021c 00000000 		.word	.LANCHOR26
 407 0220 00000000 		.word	.LANCHOR24
 408 0224 00000000 		.word	.LANCHOR23
 409 0228 C2B8B2BE 		.word	-1095583550
 410 022c 0000C842 		.word	1120403456
 411 0230 C2B8B23E 		.word	1051900098
 412              		.size	v_ctl_climb_loop, .-v_ctl_climb_loop
 413              		.section	.text.v_ctl_guidance_loop,"ax",%progbits
 414              		.align	1
 415              		.p2align 4,,15
 416              		.global	v_ctl_guidance_loop
 417              		.syntax unified
 418              		.thumb
 419              		.thumb_func
 420              		.fpu fpv4-sp-d16
 421              		.type	v_ctl_guidance_loop, %function
 422              	v_ctl_guidance_loop:
 423              		@ args = 0, pretend = 0, frame = 0
 424              		@ frame_needed = 0, uses_anonymous_args = 0
 425 0000 10B5     		push	{r4, lr}
 426 0002 114C     		ldr	r4, .L56
 427 0004 2378     		ldrb	r3, [r4]	@ zero_extendqisi2
 428 0006 032B     		cmp	r3, #3
 429 0008 19D0     		beq	.L53
 430              	.L47:
 431 000a 012B     		cmp	r3, #1
 432 000c 0ED0     		beq	.L54
 433 000e 0AD8     		bhi	.L55
 434              	.L49:
 435 0010 0E4B     		ldr	r3, .L56+4
 436 0012 1A7A     		ldrb	r2, [r3, #8]	@ zero_extendqisi2
 437 0014 1AB9     		cbnz	r2, .L50
 438 0016 5A88     		ldrh	r2, [r3, #2]
 439 0018 22B9     		cbnz	r2, .L46
 440 001a 9B7A     		ldrb	r3, [r3, #10]	@ zero_extendqisi2
 441 001c 13B9     		cbnz	r3, .L46
 442              	.L50:
 443 001e 0C4B     		ldr	r3, .L56+8
 444 0020 0022     		movs	r2, #0
 445 0022 1A80     		strh	r2, [r3]	@ movhi
 446              	.L46:
 447 0024 10BD     		pop	{r4, pc}
 448              	.L55:
 449 0026 FFF7FEFF 		bl	v_ctl_climb_loop
 450 002a F1E7     		b	.L49
 451              	.L54:
 452 002c 094A     		ldr	r2, .L56+12
 453 002e 0A48     		ldr	r0, .L56+16
 454 0030 0749     		ldr	r1, .L56+8
 455 0032 0A4B     		ldr	r3, .L56+20
 456 0034 1268     		ldr	r2, [r2]	@ float
ARM GAS  /tmp/ccN4Q8qI.s 			page 9


 457 0036 0088     		ldrh	r0, [r0]
 458 0038 0880     		strh	r0, [r1]	@ movhi
 459 003a 1A60     		str	r2, [r3]	@ float
 460 003c E8E7     		b	.L49
 461              	.L53:
 462 003e FFF7FEFF 		bl	v_ctl_altitude_loop
 463 0042 2378     		ldrb	r3, [r4]	@ zero_extendqisi2
 464 0044 E1E7     		b	.L47
 465              	.L57:
 466 0046 00BF     		.align	2
 467              	.L56:
 468 0048 00000000 		.word	.LANCHOR0
 469 004c 00000000 		.word	autopilot
 470 0050 00000000 		.word	.LANCHOR26
 471 0054 00000000 		.word	nav_pitch
 472 0058 00000000 		.word	nav_throttle_setpoint
 473 005c 00000000 		.word	.LANCHOR10
 474              		.size	v_ctl_guidance_loop, .-v_ctl_guidance_loop
 475              		.section	.text.v_ctl_landing_loop,"ax",%progbits
 476              		.align	1
 477              		.p2align 4,,15
 478              		.global	v_ctl_landing_loop
 479              		.syntax unified
 480              		.thumb
 481              		.thumb_func
 482              		.fpu fpv4-sp-d16
 483              		.type	v_ctl_landing_loop, %function
 484              	v_ctl_landing_loop:
 485              		@ args = 0, pretend = 0, frame = 0
 486              		@ frame_needed = 0, uses_anonymous_args = 0
 487              		@ link register save eliminated.
 488 0000 7047     		bx	lr
 489              		.size	v_ctl_landing_loop, .-v_ctl_landing_loop
 490 0002 00BF     		.section	.text.v_ctl_throttle_slew,"ax",%progbits
 491              		.align	1
 492              		.p2align 4,,15
 493              		.global	v_ctl_throttle_slew
 494              		.syntax unified
 495              		.thumb
 496              		.thumb_func
 497              		.fpu fpv4-sp-d16
 498              		.type	v_ctl_throttle_slew, %function
 499              	v_ctl_throttle_slew:
 500              		@ args = 0, pretend = 0, frame = 0
 501              		@ frame_needed = 0, uses_anonymous_args = 0
 502              		@ link register save eliminated.
 503 0000 0849     		ldr	r1, .L60
 504 0002 094B     		ldr	r3, .L60+4
 505 0004 0A88     		ldrh	r2, [r1]
 506 0006 1B88     		ldrh	r3, [r3]
 507 0008 0848     		ldr	r0, .L60+8
 508 000a 9B1A     		subs	r3, r3, r2
 509 000c 1BB2     		sxth	r3, r3
 510 000e B3F5707F 		cmp	r3, #960
 511 0012 A8BF     		it	ge
 512 0014 4FF47073 		movge	r3, #960
 513 0018 8342     		cmp	r3, r0
ARM GAS  /tmp/ccN4Q8qI.s 			page 10


 514 001a ACBF     		ite	ge
 515 001c D218     		addge	r2, r2, r3
 516 001e 1218     		addlt	r2, r2, r0
 517 0020 0A80     		strh	r2, [r1]	@ movhi
 518 0022 7047     		bx	lr
 519              	.L61:
 520              		.align	2
 521              	.L60:
 522 0024 00000000 		.word	.LANCHOR28
 523 0028 00000000 		.word	.LANCHOR26
 524 002c 40FCFFFF 		.word	-960
 525              		.size	v_ctl_throttle_slew, .-v_ctl_throttle_slew
 526              		.global	v_ctl_pitch_trim
 527              		.global	v_ctl_pitch_setpoint
 528              		.global	v_ctl_throttle_slewed
 529              		.global	v_ctl_throttle_setpoint
 530              		.global	v_ctl_auto_pitch_sum_err
 531              		.global	v_ctl_auto_pitch_igain
 532              		.global	v_ctl_auto_pitch_pgain
 533              		.global	v_ctl_auto_throttle_pitch_of_vz_dgain
 534              		.global	v_ctl_auto_throttle_pitch_of_vz_pgain
 535              		.global	v_ctl_auto_throttle_sum_err
 536              		.global	v_ctl_auto_throttle_dgain
 537              		.global	v_ctl_auto_throttle_igain
 538              		.global	v_ctl_auto_throttle_pgain
 539              		.global	v_ctl_auto_throttle_climb_throttle_increment
 540              		.global	v_ctl_auto_throttle_max_cruise_throttle
 541              		.global	v_ctl_auto_throttle_min_cruise_throttle
 542              		.global	v_ctl_auto_throttle_nominal_cruise_throttle
 543              		.global	v_ctl_auto_throttle_cruise_throttle
 544              		.global	v_ctl_auto_throttle_submode
 545              		.global	v_ctl_climb_mode
 546              		.global	v_ctl_climb_setpoint
 547              		.global	v_ctl_altitude_max_climb
 548              		.global	v_ctl_altitude_pre_climb_correction
 549              		.global	v_ctl_altitude_error
 550              		.global	v_ctl_altitude_pgain
 551              		.global	v_ctl_altitude_pre_climb
 552              		.global	v_ctl_altitude_setpoint
 553              		.global	v_ctl_mode
 554              		.section	.bss.last_err.0,"aw",%nobits
 555              		.align	2
 556              		.set	.LANCHOR27,. + 0
 557              		.type	last_err.0, %object
 558              		.size	last_err.0, 4
 559              	last_err.0:
 560 0000 00000000 		.space	4
 561              		.section	.bss.v_ctl_altitude_error,"aw",%nobits
 562              		.align	2
 563              		.set	.LANCHOR4,. + 0
 564              		.type	v_ctl_altitude_error, %object
 565              		.size	v_ctl_altitude_error, 4
 566              	v_ctl_altitude_error:
 567 0000 00000000 		.space	4
 568              		.section	.bss.v_ctl_altitude_max_climb,"aw",%nobits
 569              		.align	2
 570              		.set	.LANCHOR6,. + 0
ARM GAS  /tmp/ccN4Q8qI.s 			page 11


 571              		.type	v_ctl_altitude_max_climb, %object
 572              		.size	v_ctl_altitude_max_climb, 4
 573              	v_ctl_altitude_max_climb:
 574 0000 00000000 		.space	4
 575              		.section	.bss.v_ctl_altitude_pgain,"aw",%nobits
 576              		.align	2
 577              		.set	.LANCHOR3,. + 0
 578              		.type	v_ctl_altitude_pgain, %object
 579              		.size	v_ctl_altitude_pgain, 4
 580              	v_ctl_altitude_pgain:
 581 0000 00000000 		.space	4
 582              		.section	.bss.v_ctl_altitude_pre_climb,"aw",%nobits
 583              		.align	2
 584              		.set	.LANCHOR2,. + 0
 585              		.type	v_ctl_altitude_pre_climb, %object
 586              		.size	v_ctl_altitude_pre_climb, 4
 587              	v_ctl_altitude_pre_climb:
 588 0000 00000000 		.space	4
 589              		.section	.bss.v_ctl_altitude_pre_climb_correction,"aw",%nobits
 590              		.align	2
 591              		.set	.LANCHOR5,. + 0
 592              		.type	v_ctl_altitude_pre_climb_correction, %object
 593              		.size	v_ctl_altitude_pre_climb_correction, 4
 594              	v_ctl_altitude_pre_climb_correction:
 595 0000 00000000 		.space	4
 596              		.section	.bss.v_ctl_altitude_setpoint,"aw",%nobits
 597              		.align	2
 598              		.set	.LANCHOR1,. + 0
 599              		.type	v_ctl_altitude_setpoint, %object
 600              		.size	v_ctl_altitude_setpoint, 4
 601              	v_ctl_altitude_setpoint:
 602 0000 00000000 		.space	4
 603              		.section	.bss.v_ctl_auto_pitch_igain,"aw",%nobits
 604              		.align	2
 605              		.set	.LANCHOR24,. + 0
 606              		.type	v_ctl_auto_pitch_igain, %object
 607              		.size	v_ctl_auto_pitch_igain, 4
 608              	v_ctl_auto_pitch_igain:
 609 0000 00000000 		.space	4
 610              		.section	.bss.v_ctl_auto_pitch_pgain,"aw",%nobits
 611              		.align	2
 612              		.set	.LANCHOR23,. + 0
 613              		.type	v_ctl_auto_pitch_pgain, %object
 614              		.size	v_ctl_auto_pitch_pgain, 4
 615              	v_ctl_auto_pitch_pgain:
 616 0000 00000000 		.space	4
 617              		.section	.bss.v_ctl_auto_pitch_sum_err,"aw",%nobits
 618              		.align	2
 619              		.set	.LANCHOR25,. + 0
 620              		.type	v_ctl_auto_pitch_sum_err, %object
 621              		.size	v_ctl_auto_pitch_sum_err, 4
 622              	v_ctl_auto_pitch_sum_err:
 623 0000 00000000 		.space	4
 624              		.section	.bss.v_ctl_auto_throttle_climb_throttle_increment,"aw",%nobits
 625              		.align	2
 626              		.set	.LANCHOR16,. + 0
 627              		.type	v_ctl_auto_throttle_climb_throttle_increment, %object
ARM GAS  /tmp/ccN4Q8qI.s 			page 12


 628              		.size	v_ctl_auto_throttle_climb_throttle_increment, 4
 629              	v_ctl_auto_throttle_climb_throttle_increment:
 630 0000 00000000 		.space	4
 631              		.section	.bss.v_ctl_auto_throttle_cruise_throttle,"aw",%nobits
 632              		.align	2
 633              		.set	.LANCHOR15,. + 0
 634              		.type	v_ctl_auto_throttle_cruise_throttle, %object
 635              		.size	v_ctl_auto_throttle_cruise_throttle, 4
 636              	v_ctl_auto_throttle_cruise_throttle:
 637 0000 00000000 		.space	4
 638              		.section	.bss.v_ctl_auto_throttle_dgain,"aw",%nobits
 639              		.align	2
 640              		.set	.LANCHOR19,. + 0
 641              		.type	v_ctl_auto_throttle_dgain, %object
 642              		.size	v_ctl_auto_throttle_dgain, 4
 643              	v_ctl_auto_throttle_dgain:
 644 0000 00000000 		.space	4
 645              		.section	.bss.v_ctl_auto_throttle_igain,"aw",%nobits
 646              		.align	2
 647              		.set	.LANCHOR18,. + 0
 648              		.type	v_ctl_auto_throttle_igain, %object
 649              		.size	v_ctl_auto_throttle_igain, 4
 650              	v_ctl_auto_throttle_igain:
 651 0000 00000000 		.space	4
 652              		.section	.bss.v_ctl_auto_throttle_max_cruise_throttle,"aw",%nobits
 653              		.align	2
 654              		.set	.LANCHOR14,. + 0
 655              		.type	v_ctl_auto_throttle_max_cruise_throttle, %object
 656              		.size	v_ctl_auto_throttle_max_cruise_throttle, 4
 657              	v_ctl_auto_throttle_max_cruise_throttle:
 658 0000 00000000 		.space	4
 659              		.section	.bss.v_ctl_auto_throttle_min_cruise_throttle,"aw",%nobits
 660              		.align	2
 661              		.set	.LANCHOR13,. + 0
 662              		.type	v_ctl_auto_throttle_min_cruise_throttle, %object
 663              		.size	v_ctl_auto_throttle_min_cruise_throttle, 4
 664              	v_ctl_auto_throttle_min_cruise_throttle:
 665 0000 00000000 		.space	4
 666              		.section	.bss.v_ctl_auto_throttle_nominal_cruise_throttle,"aw",%nobits
 667              		.align	2
 668              		.set	.LANCHOR12,. + 0
 669              		.type	v_ctl_auto_throttle_nominal_cruise_throttle, %object
 670              		.size	v_ctl_auto_throttle_nominal_cruise_throttle, 4
 671              	v_ctl_auto_throttle_nominal_cruise_throttle:
 672 0000 00000000 		.space	4
 673              		.section	.bss.v_ctl_auto_throttle_pgain,"aw",%nobits
 674              		.align	2
 675              		.set	.LANCHOR17,. + 0
 676              		.type	v_ctl_auto_throttle_pgain, %object
 677              		.size	v_ctl_auto_throttle_pgain, 4
 678              	v_ctl_auto_throttle_pgain:
 679 0000 00000000 		.space	4
 680              		.section	.bss.v_ctl_auto_throttle_pitch_of_vz_dgain,"aw",%nobits
 681              		.align	2
 682              		.set	.LANCHOR22,. + 0
 683              		.type	v_ctl_auto_throttle_pitch_of_vz_dgain, %object
 684              		.size	v_ctl_auto_throttle_pitch_of_vz_dgain, 4
ARM GAS  /tmp/ccN4Q8qI.s 			page 13


 685              	v_ctl_auto_throttle_pitch_of_vz_dgain:
 686 0000 00000000 		.space	4
 687              		.section	.bss.v_ctl_auto_throttle_pitch_of_vz_pgain,"aw",%nobits
 688              		.align	2
 689              		.set	.LANCHOR21,. + 0
 690              		.type	v_ctl_auto_throttle_pitch_of_vz_pgain, %object
 691              		.size	v_ctl_auto_throttle_pitch_of_vz_pgain, 4
 692              	v_ctl_auto_throttle_pitch_of_vz_pgain:
 693 0000 00000000 		.space	4
 694              		.section	.bss.v_ctl_auto_throttle_submode,"aw",%nobits
 695              		.set	.LANCHOR9,. + 0
 696              		.type	v_ctl_auto_throttle_submode, %object
 697              		.size	v_ctl_auto_throttle_submode, 1
 698              	v_ctl_auto_throttle_submode:
 699 0000 00       		.space	1
 700              		.section	.bss.v_ctl_auto_throttle_sum_err,"aw",%nobits
 701              		.align	2
 702              		.set	.LANCHOR20,. + 0
 703              		.type	v_ctl_auto_throttle_sum_err, %object
 704              		.size	v_ctl_auto_throttle_sum_err, 4
 705              	v_ctl_auto_throttle_sum_err:
 706 0000 00000000 		.space	4
 707              		.section	.bss.v_ctl_climb_mode,"aw",%nobits
 708              		.set	.LANCHOR8,. + 0
 709              		.type	v_ctl_climb_mode, %object
 710              		.size	v_ctl_climb_mode, 1
 711              	v_ctl_climb_mode:
 712 0000 00       		.space	1
 713              		.section	.bss.v_ctl_climb_setpoint,"aw",%nobits
 714              		.align	2
 715              		.set	.LANCHOR7,. + 0
 716              		.type	v_ctl_climb_setpoint, %object
 717              		.size	v_ctl_climb_setpoint, 4
 718              	v_ctl_climb_setpoint:
 719 0000 00000000 		.space	4
 720              		.section	.bss.v_ctl_mode,"aw",%nobits
 721              		.set	.LANCHOR0,. + 0
 722              		.type	v_ctl_mode, %object
 723              		.size	v_ctl_mode, 1
 724              	v_ctl_mode:
 725 0000 00       		.space	1
 726              		.section	.bss.v_ctl_pitch_setpoint,"aw",%nobits
 727              		.align	2
 728              		.set	.LANCHOR10,. + 0
 729              		.type	v_ctl_pitch_setpoint, %object
 730              		.size	v_ctl_pitch_setpoint, 4
 731              	v_ctl_pitch_setpoint:
 732 0000 00000000 		.space	4
 733              		.section	.bss.v_ctl_pitch_trim,"aw",%nobits
 734              		.align	2
 735              		.set	.LANCHOR11,. + 0
 736              		.type	v_ctl_pitch_trim, %object
 737              		.size	v_ctl_pitch_trim, 4
 738              	v_ctl_pitch_trim:
 739 0000 00000000 		.space	4
 740              		.section	.bss.v_ctl_throttle_setpoint,"aw",%nobits
 741              		.align	1
ARM GAS  /tmp/ccN4Q8qI.s 			page 14


 742              		.set	.LANCHOR26,. + 0
 743              		.type	v_ctl_throttle_setpoint, %object
 744              		.size	v_ctl_throttle_setpoint, 2
 745              	v_ctl_throttle_setpoint:
 746 0000 0000     		.space	2
 747              		.section	.bss.v_ctl_throttle_slewed,"aw",%nobits
 748              		.align	1
 749              		.set	.LANCHOR28,. + 0
 750              		.type	v_ctl_throttle_slewed, %object
 751              		.size	v_ctl_throttle_slewed, 2
 752              	v_ctl_throttle_slewed:
 753 0000 0000     		.space	2
 754              		.ident	"GCC: (15:10.3-2021.07-4) 10.3.1 20210621 (release)"
ARM GAS  /tmp/ccN4Q8qI.s 			page 15

