ARM GAS  /tmp/ccNuGowN.s 			page 1


   1              		.cpu cortex-m4
   2              		.eabi_attribute 27, 1
   3              		.eabi_attribute 20, 1
   4              		.eabi_attribute 21, 1
   5              		.eabi_attribute 23, 3
   6              		.eabi_attribute 24, 1
   7              		.eabi_attribute 25, 1
   8              		.eabi_attribute 26, 1
   9              		.eabi_attribute 30, 2
  10              		.eabi_attribute 34, 1
  11              		.eabi_attribute 18, 4
  12              		.file	"hal_queues.c"
  13              		.text
  14              		.section	.text.iq_read,"ax",%progbits
  15              		.align	1
  16              		.p2align 4,,15
  17              		.arch armv7e-m
  18              		.syntax unified
  19              		.thumb
  20              		.thumb_func
  21              		.fpu fpv4-sp-d16
  22              		.type	iq_read, %function
  23              	iq_read:
  24              		@ args = 0, pretend = 0, frame = 0
  25              		@ frame_needed = 0, uses_anonymous_args = 0
  26 0000 F8B5     		push	{r3, r4, r5, r6, r7, lr}
  27 0002 0446     		mov	r4, r0
  28 0004 8068     		ldr	r0, [r0, #8]
  29 0006 2669     		ldr	r6, [r4, #16]
  30 0008 9042     		cmp	r0, r2
  31 000a 0B46     		mov	r3, r1
  32 000c A169     		ldr	r1, [r4, #24]
  33 000e 34BF     		ite	cc
  34 0010 A568     		ldrcc	r5, [r4, #8]
  35 0012 1546     		movcs	r5, r2
  36 0014 761A     		subs	r6, r6, r1
  37 0016 B542     		cmp	r5, r6
  38 0018 1DD3     		bcc	.L9
  39 001a 0AD8     		bhi	.L10
  40 001c 2A46     		mov	r2, r5
  41 001e 1846     		mov	r0, r3
  42 0020 FFF7FEFF 		bl	memcpy
  43 0024 A268     		ldr	r2, [r4, #8]
  44 0026 E368     		ldr	r3, [r4, #12]
  45 0028 A361     		str	r3, [r4, #24]
  46 002a 2846     		mov	r0, r5
  47 002c 551B     		subs	r5, r2, r5
  48 002e A560     		str	r5, [r4, #8]
  49 0030 F8BD     		pop	{r3, r4, r5, r6, r7, pc}
  50              	.L10:
  51 0032 3246     		mov	r2, r6
  52 0034 1846     		mov	r0, r3
  53 0036 FFF7FEFF 		bl	memcpy
  54 003a AF1B     		subs	r7, r5, r6
  55 003c 3A46     		mov	r2, r7
  56 003e E168     		ldr	r1, [r4, #12]
  57 0040 3044     		add	r0, r0, r6
ARM GAS  /tmp/ccNuGowN.s 			page 2


  58 0042 FFF7FEFF 		bl	memcpy
  59 0046 A268     		ldr	r2, [r4, #8]
  60 0048 E368     		ldr	r3, [r4, #12]
  61 004a 2846     		mov	r0, r5
  62 004c 3B44     		add	r3, r3, r7
  63 004e 551B     		subs	r5, r2, r5
  64 0050 A361     		str	r3, [r4, #24]
  65 0052 A560     		str	r5, [r4, #8]
  66 0054 F8BD     		pop	{r3, r4, r5, r6, r7, pc}
  67              	.L9:
  68 0056 2A46     		mov	r2, r5
  69 0058 1846     		mov	r0, r3
  70 005a FFF7FEFF 		bl	memcpy
  71 005e A369     		ldr	r3, [r4, #24]
  72 0060 A268     		ldr	r2, [r4, #8]
  73 0062 2B44     		add	r3, r3, r5
  74 0064 2846     		mov	r0, r5
  75 0066 551B     		subs	r5, r2, r5
  76 0068 A361     		str	r3, [r4, #24]
  77 006a A560     		str	r5, [r4, #8]
  78 006c F8BD     		pop	{r3, r4, r5, r6, r7, pc}
  79              		.size	iq_read, .-iq_read
  80 006e 00BF     		.section	.text.oq_write,"ax",%progbits
  81              		.align	1
  82              		.p2align 4,,15
  83              		.syntax unified
  84              		.thumb
  85              		.thumb_func
  86              		.fpu fpv4-sp-d16
  87              		.type	oq_write, %function
  88              	oq_write:
  89              		@ args = 0, pretend = 0, frame = 0
  90              		@ frame_needed = 0, uses_anonymous_args = 0
  91 0000 8368     		ldr	r3, [r0, #8]
  92 0002 9342     		cmp	r3, r2
  93 0004 2DE9F041 		push	{r4, r5, r6, r7, r8, lr}
  94 0008 38BF     		it	cc
  95 000a 8568     		ldrcc	r5, [r0, #8]
  96 000c 0446     		mov	r4, r0
  97 000e D0E90460 		ldrd	r6, r0, [r0, #16]
  98 0012 28BF     		it	cs
  99 0014 1546     		movcs	r5, r2
 100 0016 361A     		subs	r6, r6, r0
 101 0018 B542     		cmp	r5, r6
 102 001a 8846     		mov	r8, r1
 103 001c 19D3     		bcc	.L18
 104 001e 0AD8     		bhi	.L19
 105 0020 2A46     		mov	r2, r5
 106 0022 FFF7FEFF 		bl	memcpy
 107 0026 E368     		ldr	r3, [r4, #12]
 108 0028 6361     		str	r3, [r4, #20]
 109              	.L14:
 110 002a A268     		ldr	r2, [r4, #8]
 111 002c 2846     		mov	r0, r5
 112 002e 551B     		subs	r5, r2, r5
 113 0030 A560     		str	r5, [r4, #8]
 114 0032 BDE8F081 		pop	{r4, r5, r6, r7, r8, pc}
ARM GAS  /tmp/ccNuGowN.s 			page 3


 115              	.L19:
 116 0036 3246     		mov	r2, r6
 117 0038 AF1B     		subs	r7, r5, r6
 118 003a FFF7FEFF 		bl	memcpy
 119 003e E068     		ldr	r0, [r4, #12]
 120 0040 08EB0601 		add	r1, r8, r6
 121 0044 3A46     		mov	r2, r7
 122 0046 FFF7FEFF 		bl	memcpy
 123 004a E368     		ldr	r3, [r4, #12]
 124 004c 3B44     		add	r3, r3, r7
 125 004e 6361     		str	r3, [r4, #20]
 126 0050 EBE7     		b	.L14
 127              	.L18:
 128 0052 2A46     		mov	r2, r5
 129 0054 FFF7FEFF 		bl	memcpy
 130 0058 6369     		ldr	r3, [r4, #20]
 131 005a 2B44     		add	r3, r3, r5
 132 005c 6361     		str	r3, [r4, #20]
 133 005e E4E7     		b	.L14
 134              		.size	oq_write, .-oq_write
 135              		.section	.text.iqObjectInit,"ax",%progbits
 136              		.align	1
 137              		.p2align 4,,15
 138              		.global	iqObjectInit
 139              		.syntax unified
 140              		.thumb
 141              		.thumb_func
 142              		.fpu fpv4-sp-d16
 143              		.type	iqObjectInit, %function
 144              	iqObjectInit:
 145              		@ args = 4, pretend = 0, frame = 0
 146              		@ frame_needed = 0, uses_anonymous_args = 0
 147 0000 F8B5     		push	{r3, r4, r5, r6, r7, lr}
 148 0002 0446     		mov	r4, r0
 149 0004 0D46     		mov	r5, r1
 150 0006 1F46     		mov	r7, r3
 151 0008 1646     		mov	r6, r2
 152 000a FFF7FEFF 		bl	chThdQueueObjectInit
 153 000e 069B     		ldr	r3, [sp, #24]
 154 0010 2362     		str	r3, [r4, #32]
 155 0012 2E44     		add	r6, r6, r5
 156 0014 0023     		movs	r3, #0
 157 0016 C4E90356 		strd	r5, r6, [r4, #12]
 158 001a C4E90555 		strd	r5, r5, [r4, #20]
 159 001e E761     		str	r7, [r4, #28]
 160 0020 A360     		str	r3, [r4, #8]
 161 0022 F8BD     		pop	{r3, r4, r5, r6, r7, pc}
 162              		.size	iqObjectInit, .-iqObjectInit
 163              		.section	.text.iqResetI,"ax",%progbits
 164              		.align	1
 165              		.p2align 4,,15
 166              		.global	iqResetI
 167              		.syntax unified
 168              		.thumb
 169              		.thumb_func
 170              		.fpu fpv4-sp-d16
 171              		.type	iqResetI, %function
ARM GAS  /tmp/ccNuGowN.s 			page 4


 172              	iqResetI:
 173              		@ args = 0, pretend = 0, frame = 0
 174              		@ frame_needed = 0, uses_anonymous_args = 0
 175              		@ link register save eliminated.
 176 0000 C268     		ldr	r2, [r0, #12]
 177 0002 0021     		movs	r1, #0
 178 0004 8160     		str	r1, [r0, #8]
 179 0006 C0E90522 		strd	r2, r2, [r0, #20]
 180 000a 6FF00101 		mvn	r1, #1
 181 000e FFF7FEBF 		b	chThdDequeueAllI
 182              		.size	iqResetI, .-iqResetI
 183 0012 00BF     		.section	.text.iqPutI,"ax",%progbits
 184              		.align	1
 185              		.p2align 4,,15
 186              		.global	iqPutI
 187              		.syntax unified
 188              		.thumb
 189              		.thumb_func
 190              		.fpu fpv4-sp-d16
 191              		.type	iqPutI, %function
 192              	iqPutI:
 193              		@ args = 0, pretend = 0, frame = 0
 194              		@ frame_needed = 0, uses_anonymous_args = 0
 195 0000 D0E90532 		ldrd	r3, r2, [r0, #20]
 196 0004 9342     		cmp	r3, r2
 197 0006 11D0     		beq	.L32
 198              	.L24:
 199 0008 8268     		ldr	r2, [r0, #8]
 200 000a 10B5     		push	{r4, lr}
 201 000c 0132     		adds	r2, r2, #1
 202 000e 5C1C     		adds	r4, r3, #1
 203 0010 4461     		str	r4, [r0, #20]
 204 0012 8260     		str	r2, [r0, #8]
 205 0014 1970     		strb	r1, [r3]
 206 0016 D0E90432 		ldrd	r3, r2, [r0, #16]
 207 001a 9A42     		cmp	r2, r3
 208 001c 01D3     		bcc	.L27
 209 001e C368     		ldr	r3, [r0, #12]
 210 0020 4361     		str	r3, [r0, #20]
 211              	.L27:
 212 0022 0021     		movs	r1, #0
 213 0024 FFF7FEFF 		bl	chThdDequeueNextI
 214 0028 0020     		movs	r0, #0
 215 002a 10BD     		pop	{r4, pc}
 216              	.L32:
 217 002c 8268     		ldr	r2, [r0, #8]
 218 002e 002A     		cmp	r2, #0
 219 0030 EAD0     		beq	.L24
 220 0032 4FF0FF30 		mov	r0, #-1
 221 0036 7047     		bx	lr
 222              		.size	iqPutI, .-iqPutI
 223              		.section	.text.iqGetI,"ax",%progbits
 224              		.align	1
 225              		.p2align 4,,15
 226              		.global	iqGetI
 227              		.syntax unified
 228              		.thumb
ARM GAS  /tmp/ccNuGowN.s 			page 5


 229              		.thumb_func
 230              		.fpu fpv4-sp-d16
 231              		.type	iqGetI, %function
 232              	iqGetI:
 233              		@ args = 0, pretend = 0, frame = 0
 234              		@ frame_needed = 0, uses_anonymous_args = 0
 235 0000 8368     		ldr	r3, [r0, #8]
 236 0002 93B1     		cbz	r3, .L37
 237 0004 8368     		ldr	r3, [r0, #8]
 238 0006 8169     		ldr	r1, [r0, #24]
 239 0008 10B5     		push	{r4, lr}
 240 000a 013B     		subs	r3, r3, #1
 241 000c 8360     		str	r3, [r0, #8]
 242 000e 0369     		ldr	r3, [r0, #16]
 243 0010 4A1C     		adds	r2, r1, #1
 244 0012 9A42     		cmp	r2, r3
 245 0014 28BF     		it	cs
 246 0016 C368     		ldrcs	r3, [r0, #12]
 247 0018 8261     		str	r2, [r0, #24]
 248 001a 0C78     		ldrb	r4, [r1]	@ zero_extendqisi2
 249 001c 28BF     		it	cs
 250 001e 8361     		strcs	r3, [r0, #24]
 251 0020 C369     		ldr	r3, [r0, #28]
 252 0022 03B1     		cbz	r3, .L36
 253 0024 9847     		blx	r3
 254              	.L36:
 255 0026 2046     		mov	r0, r4
 256 0028 10BD     		pop	{r4, pc}
 257              	.L37:
 258 002a 4FF0FF30 		mov	r0, #-1
 259 002e 7047     		bx	lr
 260              		.size	iqGetI, .-iqGetI
 261              		.section	.text.iqGetTimeout,"ax",%progbits
 262              		.align	1
 263              		.p2align 4,,15
 264              		.global	iqGetTimeout
 265              		.syntax unified
 266              		.thumb
 267              		.thumb_func
 268              		.fpu fpv4-sp-d16
 269              		.type	iqGetTimeout, %function
 270              	iqGetTimeout:
 271              		@ args = 0, pretend = 0, frame = 0
 272              		@ frame_needed = 0, uses_anonymous_args = 0
 273 0000 F8B5     		push	{r3, r4, r5, r6, r7, lr}
 274 0002 0546     		mov	r5, r0
 275 0004 0F46     		mov	r7, r1
 276 0006 3023     		movs	r3, #48
 277              		.syntax unified
 278              	@ 493 "/home/argroos/paparazzi/sw/ext/chibios/os/common/ext/ARM/CMSIS/Core/Include/cmsis_gcc.h" 1
 279 0008 83F31188 		MSR basepri, r3
 280              	@ 0 "" 2
 281              		.thumb
 282              		.syntax unified
 283 000c FFF7FEFF 		bl	__stats_start_measure_crit_thd
 284 0010 03E0     		b	.L46
 285              	.L48:
ARM GAS  /tmp/ccNuGowN.s 			page 6


 286 0012 FFF7FEFF 		bl	chThdEnqueueTimeoutS
 287 0016 041E     		subs	r4, r0, #0
 288 0018 1BDB     		blt	.L56
 289              	.L46:
 290 001a AE68     		ldr	r6, [r5, #8]
 291 001c 3946     		mov	r1, r7
 292 001e 2846     		mov	r0, r5
 293 0020 002E     		cmp	r6, #0
 294 0022 F6D0     		beq	.L48
 295 0024 AB68     		ldr	r3, [r5, #8]
 296 0026 A969     		ldr	r1, [r5, #24]
 297 0028 013B     		subs	r3, r3, #1
 298 002a AB60     		str	r3, [r5, #8]
 299 002c 2B69     		ldr	r3, [r5, #16]
 300 002e 4A1C     		adds	r2, r1, #1
 301 0030 9A42     		cmp	r2, r3
 302 0032 28BF     		it	cs
 303 0034 EB68     		ldrcs	r3, [r5, #12]
 304 0036 AA61     		str	r2, [r5, #24]
 305 0038 0C78     		ldrb	r4, [r1]	@ zero_extendqisi2
 306 003a 28BF     		it	cs
 307 003c AB61     		strcs	r3, [r5, #24]
 308 003e EB69     		ldr	r3, [r5, #28]
 309 0040 03B1     		cbz	r3, .L50
 310 0042 9847     		blx	r3
 311              	.L50:
 312 0044 FFF7FEFF 		bl	__stats_stop_measure_crit_thd
 313 0048 0023     		movs	r3, #0
 314              		.syntax unified
 315              	@ 493 "/home/argroos/paparazzi/sw/ext/chibios/os/common/ext/ARM/CMSIS/Core/Include/cmsis_gcc.h" 1
 316 004a 83F31188 		MSR basepri, r3
 317              	@ 0 "" 2
 318              		.thumb
 319              		.syntax unified
 320 004e 2046     		mov	r0, r4
 321 0050 F8BD     		pop	{r3, r4, r5, r6, r7, pc}
 322              	.L56:
 323 0052 FFF7FEFF 		bl	__stats_stop_measure_crit_thd
 324              		.syntax unified
 325              	@ 493 "/home/argroos/paparazzi/sw/ext/chibios/os/common/ext/ARM/CMSIS/Core/Include/cmsis_gcc.h" 1
 326 0056 86F31188 		MSR basepri, r6
 327              	@ 0 "" 2
 328              		.thumb
 329              		.syntax unified
 330 005a 2046     		mov	r0, r4
 331 005c F8BD     		pop	{r3, r4, r5, r6, r7, pc}
 332              		.size	iqGetTimeout, .-iqGetTimeout
 333 005e 00BF     		.section	.text.iqReadI,"ax",%progbits
 334              		.align	1
 335              		.p2align 4,,15
 336              		.global	iqReadI
 337              		.syntax unified
 338              		.thumb
 339              		.thumb_func
 340              		.fpu fpv4-sp-d16
 341              		.type	iqReadI, %function
 342              	iqReadI:
ARM GAS  /tmp/ccNuGowN.s 			page 7


 343              		@ args = 0, pretend = 0, frame = 0
 344              		@ frame_needed = 0, uses_anonymous_args = 0
 345 0000 70B5     		push	{r4, r5, r6, lr}
 346 0002 C669     		ldr	r6, [r0, #28]
 347 0004 0546     		mov	r5, r0
 348 0006 FFF7FEFF 		bl	iq_read
 349 000a 0446     		mov	r4, r0
 350 000c 10B1     		cbz	r0, .L57
 351 000e 0EB1     		cbz	r6, .L57
 352 0010 2846     		mov	r0, r5
 353 0012 B047     		blx	r6
 354              	.L57:
 355 0014 2046     		mov	r0, r4
 356 0016 70BD     		pop	{r4, r5, r6, pc}
 357              		.size	iqReadI, .-iqReadI
 358              		.section	.text.iqReadTimeout,"ax",%progbits
 359              		.align	1
 360              		.p2align 4,,15
 361              		.global	iqReadTimeout
 362              		.syntax unified
 363              		.thumb
 364              		.thumb_func
 365              		.fpu fpv4-sp-d16
 366              		.type	iqReadTimeout, %function
 367              	iqReadTimeout:
 368              		@ args = 0, pretend = 0, frame = 8
 369              		@ frame_needed = 0, uses_anonymous_args = 0
 370 0000 2DE9F04F 		push	{r4, r5, r6, r7, r8, r9, r10, fp, lr}
 371 0004 83B0     		sub	sp, sp, #12
 372 0006 C769     		ldr	r7, [r0, #28]
 373 0008 0192     		str	r2, [sp, #4]
 374 000a 0546     		mov	r5, r0
 375 000c 0E46     		mov	r6, r1
 376 000e 1446     		mov	r4, r2
 377 0010 9B46     		mov	fp, r3
 378 0012 4FF03008 		mov	r8, #48
 379              		.syntax unified
 380              	@ 493 "/home/argroos/paparazzi/sw/ext/chibios/os/common/ext/ARM/CMSIS/Core/Include/cmsis_gcc.h" 1
 381 0016 88F31188 		MSR basepri, r8
 382              	@ 0 "" 2
 383              		.thumb
 384              		.syntax unified
 385 001a FFF7FEFF 		bl	__stats_start_measure_crit_thd
 386 001e DCB1     		cbz	r4, .L72
 387 0020 019C     		ldr	r4, [sp, #4]
 388 0022 4FF00009 		mov	r9, #0
 389              	.L67:
 390 0026 2246     		mov	r2, r4
 391 0028 3146     		mov	r1, r6
 392 002a 2846     		mov	r0, r5
 393 002c FFF7FEFF 		bl	iq_read
 394 0030 8246     		mov	r10, r0
 395 0032 2846     		mov	r0, r5
 396 0034 BAF1000F 		cmp	r10, #0
 397 0038 19D0     		beq	.L84
 398 003a 07B1     		cbz	r7, .L71
 399 003c B847     		blx	r7
ARM GAS  /tmp/ccNuGowN.s 			page 8


 400              	.L71:
 401 003e FFF7FEFF 		bl	__stats_stop_measure_crit_thd
 402              		.syntax unified
 403              	@ 493 "/home/argroos/paparazzi/sw/ext/chibios/os/common/ext/ARM/CMSIS/Core/Include/cmsis_gcc.h" 1
 404 0042 89F31188 		MSR basepri, r9
 405              	@ 0 "" 2
 406              		.thumb
 407              		.syntax unified
 408 0046 A4EB0A04 		sub	r4, r4, r10
 409 004a 5644     		add	r6, r6, r10
 410              		.syntax unified
 411              	@ 493 "/home/argroos/paparazzi/sw/ext/chibios/os/common/ext/ARM/CMSIS/Core/Include/cmsis_gcc.h" 1
 412 004c 88F31188 		MSR basepri, r8
 413              	@ 0 "" 2
 414              		.thumb
 415              		.syntax unified
 416 0050 FFF7FEFF 		bl	__stats_start_measure_crit_thd
 417 0054 002C     		cmp	r4, #0
 418 0056 E6D1     		bne	.L67
 419              	.L72:
 420 0058 0198     		ldr	r0, [sp, #4]
 421              	.L68:
 422 005a 0190     		str	r0, [sp, #4]
 423 005c FFF7FEFF 		bl	__stats_stop_measure_crit_thd
 424 0060 0023     		movs	r3, #0
 425              		.syntax unified
 426              	@ 493 "/home/argroos/paparazzi/sw/ext/chibios/os/common/ext/ARM/CMSIS/Core/Include/cmsis_gcc.h" 1
 427 0062 83F31188 		MSR basepri, r3
 428              	@ 0 "" 2
 429              		.thumb
 430              		.syntax unified
 431 0066 0198     		ldr	r0, [sp, #4]
 432 0068 03B0     		add	sp, sp, #12
 433              		@ sp needed
 434 006a BDE8F08F 		pop	{r4, r5, r6, r7, r8, r9, r10, fp, pc}
 435              	.L84:
 436 006e 5946     		mov	r1, fp
 437 0070 FFF7FEFF 		bl	chThdEnqueueTimeoutS
 438 0074 0028     		cmp	r0, #0
 439 0076 D6D0     		beq	.L67
 440 0078 019B     		ldr	r3, [sp, #4]
 441 007a 181B     		subs	r0, r3, r4
 442 007c EDE7     		b	.L68
 443              		.size	iqReadTimeout, .-iqReadTimeout
 444 007e 00BF     		.section	.text.oqObjectInit,"ax",%progbits
 445              		.align	1
 446              		.p2align 4,,15
 447              		.global	oqObjectInit
 448              		.syntax unified
 449              		.thumb
 450              		.thumb_func
 451              		.fpu fpv4-sp-d16
 452              		.type	oqObjectInit, %function
 453              	oqObjectInit:
 454              		@ args = 4, pretend = 0, frame = 0
 455              		@ frame_needed = 0, uses_anonymous_args = 0
 456 0000 F8B5     		push	{r3, r4, r5, r6, r7, lr}
ARM GAS  /tmp/ccNuGowN.s 			page 9


 457 0002 0446     		mov	r4, r0
 458 0004 0D46     		mov	r5, r1
 459 0006 1646     		mov	r6, r2
 460 0008 1F46     		mov	r7, r3
 461 000a FFF7FEFF 		bl	chThdQueueObjectInit
 462 000e 069B     		ldr	r3, [sp, #24]
 463 0010 A660     		str	r6, [r4, #8]
 464 0012 2E44     		add	r6, r6, r5
 465 0014 C4E90356 		strd	r5, r6, [r4, #12]
 466 0018 C4E90555 		strd	r5, r5, [r4, #20]
 467 001c E761     		str	r7, [r4, #28]
 468 001e 2362     		str	r3, [r4, #32]
 469 0020 F8BD     		pop	{r3, r4, r5, r6, r7, pc}
 470              		.size	oqObjectInit, .-oqObjectInit
 471 0022 00BF     		.section	.text.oqResetI,"ax",%progbits
 472              		.align	1
 473              		.p2align 4,,15
 474              		.global	oqResetI
 475              		.syntax unified
 476              		.thumb
 477              		.thumb_func
 478              		.fpu fpv4-sp-d16
 479              		.type	oqResetI, %function
 480              	oqResetI:
 481              		@ args = 0, pretend = 0, frame = 0
 482              		@ frame_needed = 0, uses_anonymous_args = 0
 483              		@ link register save eliminated.
 484 0000 10B4     		push	{r4}
 485 0002 D0E90342 		ldrd	r4, r2, [r0, #12]
 486 0006 121B     		subs	r2, r2, r4
 487 0008 8461     		str	r4, [r0, #24]
 488 000a 4461     		str	r4, [r0, #20]
 489 000c 6FF00101 		mvn	r1, #1
 490 0010 5DF8044B 		ldr	r4, [sp], #4
 491 0014 8260     		str	r2, [r0, #8]
 492 0016 FFF7FEBF 		b	chThdDequeueAllI
 493              		.size	oqResetI, .-oqResetI
 494 001a 00BF     		.section	.text.oqPutI,"ax",%progbits
 495              		.align	1
 496              		.p2align 4,,15
 497              		.global	oqPutI
 498              		.syntax unified
 499              		.thumb
 500              		.thumb_func
 501              		.fpu fpv4-sp-d16
 502              		.type	oqPutI, %function
 503              	oqPutI:
 504              		@ args = 0, pretend = 0, frame = 0
 505              		@ frame_needed = 0, uses_anonymous_args = 0
 506 0000 8368     		ldr	r3, [r0, #8]
 507 0002 A3B1     		cbz	r3, .L92
 508 0004 4269     		ldr	r2, [r0, #20]
 509 0006 8368     		ldr	r3, [r0, #8]
 510 0008 10B5     		push	{r4, lr}
 511 000a 013B     		subs	r3, r3, #1
 512 000c 541C     		adds	r4, r2, #1
 513 000e 4461     		str	r4, [r0, #20]
ARM GAS  /tmp/ccNuGowN.s 			page 10


 514 0010 8360     		str	r3, [r0, #8]
 515 0012 1170     		strb	r1, [r2]
 516 0014 D0E90432 		ldrd	r3, r2, [r0, #16]
 517 0018 9A42     		cmp	r2, r3
 518 001a 24BF     		itt	cs
 519 001c C368     		ldrcs	r3, [r0, #12]
 520 001e 4361     		strcs	r3, [r0, #20]
 521 0020 C369     		ldr	r3, [r0, #28]
 522 0022 13B1     		cbz	r3, .L93
 523 0024 9847     		blx	r3
 524 0026 0020     		movs	r0, #0
 525 0028 10BD     		pop	{r4, pc}
 526              	.L93:
 527 002a 1846     		mov	r0, r3
 528 002c 10BD     		pop	{r4, pc}
 529              	.L92:
 530 002e 4FF0FF30 		mov	r0, #-1
 531 0032 7047     		bx	lr
 532              		.size	oqPutI, .-oqPutI
 533              		.section	.text.oqPutTimeout,"ax",%progbits
 534              		.align	1
 535              		.p2align 4,,15
 536              		.global	oqPutTimeout
 537              		.syntax unified
 538              		.thumb
 539              		.thumb_func
 540              		.fpu fpv4-sp-d16
 541              		.type	oqPutTimeout, %function
 542              	oqPutTimeout:
 543              		@ args = 0, pretend = 0, frame = 0
 544              		@ frame_needed = 0, uses_anonymous_args = 0
 545 0000 2DE9F041 		push	{r4, r5, r6, r7, r8, lr}
 546 0004 3023     		movs	r3, #48
 547 0006 0546     		mov	r5, r0
 548 0008 8846     		mov	r8, r1
 549 000a 1746     		mov	r7, r2
 550              		.syntax unified
 551              	@ 493 "/home/argroos/paparazzi/sw/ext/chibios/os/common/ext/ARM/CMSIS/Core/Include/cmsis_gcc.h" 1
 552 000c 83F31188 		MSR basepri, r3
 553              	@ 0 "" 2
 554              		.thumb
 555              		.syntax unified
 556 0010 FFF7FEFF 		bl	__stats_start_measure_crit_thd
 557 0014 03E0     		b	.L99
 558              	.L101:
 559 0016 FFF7FEFF 		bl	chThdEnqueueTimeoutS
 560 001a 041E     		subs	r4, r0, #0
 561 001c 1EDB     		blt	.L109
 562              	.L99:
 563 001e AE68     		ldr	r6, [r5, #8]
 564 0020 3946     		mov	r1, r7
 565 0022 2846     		mov	r0, r5
 566 0024 002E     		cmp	r6, #0
 567 0026 F6D0     		beq	.L101
 568 0028 6A69     		ldr	r2, [r5, #20]
 569 002a AB68     		ldr	r3, [r5, #8]
 570 002c 511C     		adds	r1, r2, #1
ARM GAS  /tmp/ccNuGowN.s 			page 11


 571 002e 013B     		subs	r3, r3, #1
 572 0030 6961     		str	r1, [r5, #20]
 573 0032 AB60     		str	r3, [r5, #8]
 574 0034 82F80080 		strb	r8, [r2]
 575 0038 D5E90432 		ldrd	r3, r2, [r5, #16]
 576 003c 9A42     		cmp	r2, r3
 577 003e 24BF     		itt	cs
 578 0040 EB68     		ldrcs	r3, [r5, #12]
 579 0042 6B61     		strcs	r3, [r5, #20]
 580 0044 EB69     		ldr	r3, [r5, #28]
 581 0046 03B1     		cbz	r3, .L103
 582 0048 9847     		blx	r3
 583              	.L103:
 584 004a FFF7FEFF 		bl	__stats_stop_measure_crit_thd
 585 004e 0020     		movs	r0, #0
 586              		.syntax unified
 587              	@ 493 "/home/argroos/paparazzi/sw/ext/chibios/os/common/ext/ARM/CMSIS/Core/Include/cmsis_gcc.h" 1
 588 0050 80F31188 		MSR basepri, r0
 589              	@ 0 "" 2
 590              		.thumb
 591              		.syntax unified
 592 0054 0446     		mov	r4, r0
 593 0056 2046     		mov	r0, r4
 594 0058 BDE8F081 		pop	{r4, r5, r6, r7, r8, pc}
 595              	.L109:
 596 005c FFF7FEFF 		bl	__stats_stop_measure_crit_thd
 597              		.syntax unified
 598              	@ 493 "/home/argroos/paparazzi/sw/ext/chibios/os/common/ext/ARM/CMSIS/Core/Include/cmsis_gcc.h" 1
 599 0060 86F31188 		MSR basepri, r6
 600              	@ 0 "" 2
 601              		.thumb
 602              		.syntax unified
 603 0064 2046     		mov	r0, r4
 604 0066 BDE8F081 		pop	{r4, r5, r6, r7, r8, pc}
 605              		.size	oqPutTimeout, .-oqPutTimeout
 606 006a 00BF     		.section	.text.oqGetI,"ax",%progbits
 607              		.align	1
 608              		.p2align 4,,15
 609              		.global	oqGetI
 610              		.syntax unified
 611              		.thumb
 612              		.thumb_func
 613              		.fpu fpv4-sp-d16
 614              		.type	oqGetI, %function
 615              	oqGetI:
 616              		@ args = 0, pretend = 0, frame = 0
 617              		@ frame_needed = 0, uses_anonymous_args = 0
 618 0000 D0E90523 		ldrd	r2, r3, [r0, #20]
 619 0004 9A42     		cmp	r2, r3
 620 0006 10D0     		beq	.L119
 621              	.L111:
 622 0008 10B5     		push	{r4, lr}
 623 000a 8268     		ldr	r2, [r0, #8]
 624 000c 591C     		adds	r1, r3, #1
 625 000e 0132     		adds	r2, r2, #1
 626 0010 8260     		str	r2, [r0, #8]
 627 0012 8161     		str	r1, [r0, #24]
ARM GAS  /tmp/ccNuGowN.s 			page 12


 628 0014 1C78     		ldrb	r4, [r3]	@ zero_extendqisi2
 629 0016 0369     		ldr	r3, [r0, #16]
 630 0018 9942     		cmp	r1, r3
 631 001a 01D3     		bcc	.L114
 632 001c C368     		ldr	r3, [r0, #12]
 633 001e 8361     		str	r3, [r0, #24]
 634              	.L114:
 635 0020 0021     		movs	r1, #0
 636 0022 FFF7FEFF 		bl	chThdDequeueNextI
 637 0026 2046     		mov	r0, r4
 638 0028 10BD     		pop	{r4, pc}
 639              	.L119:
 640 002a 8268     		ldr	r2, [r0, #8]
 641 002c 002A     		cmp	r2, #0
 642 002e EBD0     		beq	.L111
 643 0030 4FF0FF30 		mov	r0, #-1
 644 0034 7047     		bx	lr
 645              		.size	oqGetI, .-oqGetI
 646 0036 00BF     		.section	.text.oqWriteI,"ax",%progbits
 647              		.align	1
 648              		.p2align 4,,15
 649              		.global	oqWriteI
 650              		.syntax unified
 651              		.thumb
 652              		.thumb_func
 653              		.fpu fpv4-sp-d16
 654              		.type	oqWriteI, %function
 655              	oqWriteI:
 656              		@ args = 0, pretend = 0, frame = 0
 657              		@ frame_needed = 0, uses_anonymous_args = 0
 658 0000 70B5     		push	{r4, r5, r6, lr}
 659 0002 C669     		ldr	r6, [r0, #28]
 660 0004 0546     		mov	r5, r0
 661 0006 FFF7FEFF 		bl	oq_write
 662 000a 0446     		mov	r4, r0
 663 000c 10B1     		cbz	r0, .L120
 664 000e 0EB1     		cbz	r6, .L120
 665 0010 2846     		mov	r0, r5
 666 0012 B047     		blx	r6
 667              	.L120:
 668 0014 2046     		mov	r0, r4
 669 0016 70BD     		pop	{r4, r5, r6, pc}
 670              		.size	oqWriteI, .-oqWriteI
 671              		.section	.text.oqWriteTimeout,"ax",%progbits
 672              		.align	1
 673              		.p2align 4,,15
 674              		.global	oqWriteTimeout
 675              		.syntax unified
 676              		.thumb
 677              		.thumb_func
 678              		.fpu fpv4-sp-d16
 679              		.type	oqWriteTimeout, %function
 680              	oqWriteTimeout:
 681              		@ args = 0, pretend = 0, frame = 8
 682              		@ frame_needed = 0, uses_anonymous_args = 0
 683 0000 2DE9F04F 		push	{r4, r5, r6, r7, r8, r9, r10, fp, lr}
 684 0004 83B0     		sub	sp, sp, #12
ARM GAS  /tmp/ccNuGowN.s 			page 13


 685 0006 C769     		ldr	r7, [r0, #28]
 686 0008 0192     		str	r2, [sp, #4]
 687 000a 0546     		mov	r5, r0
 688 000c 0E46     		mov	r6, r1
 689 000e 1446     		mov	r4, r2
 690 0010 9B46     		mov	fp, r3
 691 0012 4FF03008 		mov	r8, #48
 692              		.syntax unified
 693              	@ 493 "/home/argroos/paparazzi/sw/ext/chibios/os/common/ext/ARM/CMSIS/Core/Include/cmsis_gcc.h" 1
 694 0016 88F31188 		MSR basepri, r8
 695              	@ 0 "" 2
 696              		.thumb
 697              		.syntax unified
 698 001a FFF7FEFF 		bl	__stats_start_measure_crit_thd
 699 001e DCB1     		cbz	r4, .L135
 700 0020 019C     		ldr	r4, [sp, #4]
 701 0022 4FF00009 		mov	r9, #0
 702              	.L130:
 703 0026 2246     		mov	r2, r4
 704 0028 3146     		mov	r1, r6
 705 002a 2846     		mov	r0, r5
 706 002c FFF7FEFF 		bl	oq_write
 707 0030 8246     		mov	r10, r0
 708 0032 2846     		mov	r0, r5
 709 0034 BAF1000F 		cmp	r10, #0
 710 0038 19D0     		beq	.L147
 711 003a 07B1     		cbz	r7, .L134
 712 003c B847     		blx	r7
 713              	.L134:
 714 003e FFF7FEFF 		bl	__stats_stop_measure_crit_thd
 715              		.syntax unified
 716              	@ 493 "/home/argroos/paparazzi/sw/ext/chibios/os/common/ext/ARM/CMSIS/Core/Include/cmsis_gcc.h" 1
 717 0042 89F31188 		MSR basepri, r9
 718              	@ 0 "" 2
 719              		.thumb
 720              		.syntax unified
 721 0046 A4EB0A04 		sub	r4, r4, r10
 722 004a 5644     		add	r6, r6, r10
 723              		.syntax unified
 724              	@ 493 "/home/argroos/paparazzi/sw/ext/chibios/os/common/ext/ARM/CMSIS/Core/Include/cmsis_gcc.h" 1
 725 004c 88F31188 		MSR basepri, r8
 726              	@ 0 "" 2
 727              		.thumb
 728              		.syntax unified
 729 0050 FFF7FEFF 		bl	__stats_start_measure_crit_thd
 730 0054 002C     		cmp	r4, #0
 731 0056 E6D1     		bne	.L130
 732              	.L135:
 733 0058 0198     		ldr	r0, [sp, #4]
 734              	.L131:
 735 005a 0190     		str	r0, [sp, #4]
 736 005c FFF7FEFF 		bl	__stats_stop_measure_crit_thd
 737 0060 0023     		movs	r3, #0
 738              		.syntax unified
 739              	@ 493 "/home/argroos/paparazzi/sw/ext/chibios/os/common/ext/ARM/CMSIS/Core/Include/cmsis_gcc.h" 1
 740 0062 83F31188 		MSR basepri, r3
 741              	@ 0 "" 2
ARM GAS  /tmp/ccNuGowN.s 			page 14


 742              		.thumb
 743              		.syntax unified
 744 0066 0198     		ldr	r0, [sp, #4]
 745 0068 03B0     		add	sp, sp, #12
 746              		@ sp needed
 747 006a BDE8F08F 		pop	{r4, r5, r6, r7, r8, r9, r10, fp, pc}
 748              	.L147:
 749 006e 5946     		mov	r1, fp
 750 0070 FFF7FEFF 		bl	chThdEnqueueTimeoutS
 751 0074 0028     		cmp	r0, #0
 752 0076 D6D0     		beq	.L130
 753 0078 019B     		ldr	r3, [sp, #4]
 754 007a 181B     		subs	r0, r3, r4
 755 007c EDE7     		b	.L131
 756              		.size	oqWriteTimeout, .-oqWriteTimeout
 757 007e 00BF     		.ident	"GCC: (15:10.3-2021.07-4) 10.3.1 20210621 (release)"
ARM GAS  /tmp/ccNuGowN.s 			page 15

