ARM GAS  /tmp/ccPhj4hQ.s 			page 1


   1              		.cpu cortex-m4
   2              		.eabi_attribute 27, 1
   3              		.eabi_attribute 20, 1
   4              		.eabi_attribute 21, 1
   5              		.eabi_attribute 23, 3
   6              		.eabi_attribute 24, 1
   7              		.eabi_attribute 25, 1
   8              		.eabi_attribute 26, 1
   9              		.eabi_attribute 30, 2
  10              		.eabi_attribute 34, 1
  11              		.eabi_attribute 18, 4
  12              		.file	"hal_i2c.c"
  13              		.text
  14              		.section	.text.i2cInit,"ax",%progbits
  15              		.align	1
  16              		.p2align 4,,15
  17              		.global	i2cInit
  18              		.arch armv7e-m
  19              		.syntax unified
  20              		.thumb
  21              		.thumb_func
  22              		.fpu fpv4-sp-d16
  23              		.type	i2cInit, %function
  24              	i2cInit:
  25              		@ args = 0, pretend = 0, frame = 0
  26              		@ frame_needed = 0, uses_anonymous_args = 0
  27              		@ link register save eliminated.
  28 0000 FFF7FEBF 		b	i2c_lld_init
  29              		.size	i2cInit, .-i2cInit
  30              		.section	.text.i2cObjectInit,"ax",%progbits
  31              		.align	1
  32              		.p2align 4,,15
  33              		.global	i2cObjectInit
  34              		.syntax unified
  35              		.thumb
  36              		.thumb_func
  37              		.fpu fpv4-sp-d16
  38              		.type	i2cObjectInit, %function
  39              	i2cObjectInit:
  40              		@ args = 0, pretend = 0, frame = 0
  41              		@ frame_needed = 0, uses_anonymous_args = 0
  42              		@ link register save eliminated.
  43 0000 0122     		movs	r2, #1
  44 0002 0023     		movs	r3, #0
  45 0004 0270     		strb	r2, [r0]
  46 0006 4360     		str	r3, [r0, #4]
  47 0008 0C30     		adds	r0, r0, #12
  48 000a FFF7FEBF 		b	chMtxObjectInit
  49              		.size	i2cObjectInit, .-i2cObjectInit
  50 000e 00BF     		.section	.text.i2cStart,"ax",%progbits
  51              		.align	1
  52              		.p2align 4,,15
  53              		.global	i2cStart
  54              		.syntax unified
  55              		.thumb
  56              		.thumb_func
  57              		.fpu fpv4-sp-d16
ARM GAS  /tmp/ccPhj4hQ.s 			page 2


  58              		.type	i2cStart, %function
  59              	i2cStart:
  60              		@ args = 0, pretend = 0, frame = 0
  61              		@ frame_needed = 0, uses_anonymous_args = 0
  62 0000 38B5     		push	{r3, r4, r5, lr}
  63 0002 0446     		mov	r4, r0
  64 0004 0D46     		mov	r5, r1
  65 0006 3023     		movs	r3, #48
  66              		.syntax unified
  67              	@ 493 "/home/argroos/paparazzi/sw/ext/chibios/os/common/ext/ARM/CMSIS/Core/Include/cmsis_gcc.h" 1
  68 0008 83F31188 		MSR basepri, r3
  69              	@ 0 "" 2
  70              		.thumb
  71              		.syntax unified
  72 000c FFF7FEFF 		bl	__stats_start_measure_crit_thd
  73 0010 2046     		mov	r0, r4
  74 0012 6560     		str	r5, [r4, #4]
  75 0014 FFF7FEFF 		bl	i2c_lld_start
  76 0018 0223     		movs	r3, #2
  77 001a 2370     		strb	r3, [r4]
  78 001c FFF7FEFF 		bl	__stats_stop_measure_crit_thd
  79 0020 0020     		movs	r0, #0
  80              		.syntax unified
  81              	@ 493 "/home/argroos/paparazzi/sw/ext/chibios/os/common/ext/ARM/CMSIS/Core/Include/cmsis_gcc.h" 1
  82 0022 80F31188 		MSR basepri, r0
  83              	@ 0 "" 2
  84              		.thumb
  85              		.syntax unified
  86 0026 38BD     		pop	{r3, r4, r5, pc}
  87              		.size	i2cStart, .-i2cStart
  88              		.section	.text.i2cStop,"ax",%progbits
  89              		.align	1
  90              		.p2align 4,,15
  91              		.global	i2cStop
  92              		.syntax unified
  93              		.thumb
  94              		.thumb_func
  95              		.fpu fpv4-sp-d16
  96              		.type	i2cStop, %function
  97              	i2cStop:
  98              		@ args = 0, pretend = 0, frame = 0
  99              		@ frame_needed = 0, uses_anonymous_args = 0
 100 0000 38B5     		push	{r3, r4, r5, lr}
 101 0002 0446     		mov	r4, r0
 102 0004 3023     		movs	r3, #48
 103              		.syntax unified
 104              	@ 493 "/home/argroos/paparazzi/sw/ext/chibios/os/common/ext/ARM/CMSIS/Core/Include/cmsis_gcc.h" 1
 105 0006 83F31188 		MSR basepri, r3
 106              	@ 0 "" 2
 107              		.thumb
 108              		.syntax unified
 109 000a FFF7FEFF 		bl	__stats_start_measure_crit_thd
 110 000e 2046     		mov	r0, r4
 111 0010 FFF7FEFF 		bl	i2c_lld_stop
 112 0014 0025     		movs	r5, #0
 113 0016 0123     		movs	r3, #1
 114 0018 6560     		str	r5, [r4, #4]
ARM GAS  /tmp/ccPhj4hQ.s 			page 3


 115 001a 2370     		strb	r3, [r4]
 116 001c FFF7FEFF 		bl	__stats_stop_measure_crit_thd
 117              		.syntax unified
 118              	@ 493 "/home/argroos/paparazzi/sw/ext/chibios/os/common/ext/ARM/CMSIS/Core/Include/cmsis_gcc.h" 1
 119 0020 85F31188 		MSR basepri, r5
 120              	@ 0 "" 2
 121              		.thumb
 122              		.syntax unified
 123 0024 38BD     		pop	{r3, r4, r5, pc}
 124              		.size	i2cStop, .-i2cStop
 125 0026 00BF     		.section	.text.i2cGetErrors,"ax",%progbits
 126              		.align	1
 127              		.p2align 4,,15
 128              		.global	i2cGetErrors
 129              		.syntax unified
 130              		.thumb
 131              		.thumb_func
 132              		.fpu fpv4-sp-d16
 133              		.type	i2cGetErrors, %function
 134              	i2cGetErrors:
 135              		@ args = 0, pretend = 0, frame = 0
 136              		@ frame_needed = 0, uses_anonymous_args = 0
 137              		@ link register save eliminated.
 138 0000 8068     		ldr	r0, [r0, #8]
 139 0002 7047     		bx	lr
 140              		.size	i2cGetErrors, .-i2cGetErrors
 141              		.section	.text.i2cMasterTransmitTimeout,"ax",%progbits
 142              		.align	1
 143              		.p2align 4,,15
 144              		.global	i2cMasterTransmitTimeout
 145              		.syntax unified
 146              		.thumb
 147              		.thumb_func
 148              		.fpu fpv4-sp-d16
 149              		.type	i2cMasterTransmitTimeout, %function
 150              	i2cMasterTransmitTimeout:
 151              		@ args = 12, pretend = 0, frame = 16
 152              		@ frame_needed = 0, uses_anonymous_args = 0
 153 0000 70B5     		push	{r4, r5, r6, lr}
 154 0002 88B0     		sub	sp, sp, #32
 155 0004 0446     		mov	r4, r0
 156 0006 CDE90621 		strd	r2, r1, [sp, #24]
 157 000a 0C9D     		ldr	r5, [sp, #48]
 158 000c 0593     		str	r3, [sp, #20]
 159 000e 3020     		movs	r0, #48
 160              		.syntax unified
 161              	@ 493 "/home/argroos/paparazzi/sw/ext/chibios/os/common/ext/ARM/CMSIS/Core/Include/cmsis_gcc.h" 1
 162 0010 80F31188 		MSR basepri, r0
 163              	@ 0 "" 2
 164              		.thumb
 165              		.syntax unified
 166 0014 FFF7FEFF 		bl	__stats_start_measure_crit_thd
 167 0018 0E9B     		ldr	r3, [sp, #56]
 168 001a 0293     		str	r3, [sp, #8]
 169 001c 0095     		str	r5, [sp]
 170 001e 0D9B     		ldr	r3, [sp, #52]
 171 0020 0193     		str	r3, [sp, #4]
ARM GAS  /tmp/ccPhj4hQ.s 			page 4


 172 0022 0026     		movs	r6, #0
 173 0024 0325     		movs	r5, #3
 174 0026 DDE90532 		ldrd	r3, r2, [sp, #20]
 175 002a 0799     		ldr	r1, [sp, #28]
 176 002c 2570     		strb	r5, [r4]
 177 002e 2046     		mov	r0, r4
 178 0030 A660     		str	r6, [r4, #8]
 179 0032 FFF7FEFF 		bl	i2c_lld_master_transmit_timeout
 180 0036 431C     		adds	r3, r0, #1
 181 0038 14BF     		ite	ne
 182 003a 0223     		movne	r3, #2
 183 003c 0523     		moveq	r3, #5
 184 003e 2370     		strb	r3, [r4]
 185 0040 0546     		mov	r5, r0
 186 0042 FFF7FEFF 		bl	__stats_stop_measure_crit_thd
 187              		.syntax unified
 188              	@ 493 "/home/argroos/paparazzi/sw/ext/chibios/os/common/ext/ARM/CMSIS/Core/Include/cmsis_gcc.h" 1
 189 0046 86F31188 		MSR basepri, r6
 190              	@ 0 "" 2
 191              		.thumb
 192              		.syntax unified
 193 004a 2846     		mov	r0, r5
 194 004c 08B0     		add	sp, sp, #32
 195              		@ sp needed
 196 004e 70BD     		pop	{r4, r5, r6, pc}
 197              		.size	i2cMasterTransmitTimeout, .-i2cMasterTransmitTimeout
 198              		.section	.text.i2cMasterReceiveTimeout,"ax",%progbits
 199              		.align	1
 200              		.p2align 4,,15
 201              		.global	i2cMasterReceiveTimeout
 202              		.syntax unified
 203              		.thumb
 204              		.thumb_func
 205              		.fpu fpv4-sp-d16
 206              		.type	i2cMasterReceiveTimeout, %function
 207              	i2cMasterReceiveTimeout:
 208              		@ args = 4, pretend = 0, frame = 16
 209              		@ frame_needed = 0, uses_anonymous_args = 0
 210 0000 70B5     		push	{r4, r5, r6, lr}
 211 0002 86B0     		sub	sp, sp, #24
 212 0004 0446     		mov	r4, r0
 213 0006 CDE90421 		strd	r2, r1, [sp, #16]
 214 000a 0A9D     		ldr	r5, [sp, #40]
 215 000c 0393     		str	r3, [sp, #12]
 216 000e 3020     		movs	r0, #48
 217              		.syntax unified
 218              	@ 493 "/home/argroos/paparazzi/sw/ext/chibios/os/common/ext/ARM/CMSIS/Core/Include/cmsis_gcc.h" 1
 219 0010 80F31188 		MSR basepri, r0
 220              	@ 0 "" 2
 221              		.thumb
 222              		.syntax unified
 223 0014 FFF7FEFF 		bl	__stats_start_measure_crit_thd
 224 0018 0026     		movs	r6, #0
 225 001a 0095     		str	r5, [sp]
 226 001c 0425     		movs	r5, #4
 227 001e DDE90332 		ldrd	r3, r2, [sp, #12]
 228 0022 0599     		ldr	r1, [sp, #20]
ARM GAS  /tmp/ccPhj4hQ.s 			page 5


 229 0024 2570     		strb	r5, [r4]
 230 0026 2046     		mov	r0, r4
 231 0028 A660     		str	r6, [r4, #8]
 232 002a FFF7FEFF 		bl	i2c_lld_master_receive_timeout
 233 002e 431C     		adds	r3, r0, #1
 234 0030 14BF     		ite	ne
 235 0032 0223     		movne	r3, #2
 236 0034 0523     		moveq	r3, #5
 237 0036 2370     		strb	r3, [r4]
 238 0038 0546     		mov	r5, r0
 239 003a FFF7FEFF 		bl	__stats_stop_measure_crit_thd
 240              		.syntax unified
 241              	@ 493 "/home/argroos/paparazzi/sw/ext/chibios/os/common/ext/ARM/CMSIS/Core/Include/cmsis_gcc.h" 1
 242 003e 86F31188 		MSR basepri, r6
 243              	@ 0 "" 2
 244              		.thumb
 245              		.syntax unified
 246 0042 2846     		mov	r0, r5
 247 0044 06B0     		add	sp, sp, #24
 248              		@ sp needed
 249 0046 70BD     		pop	{r4, r5, r6, pc}
 250              		.size	i2cMasterReceiveTimeout, .-i2cMasterReceiveTimeout
 251              		.section	.text.i2cAcquireBus,"ax",%progbits
 252              		.align	1
 253              		.p2align 4,,15
 254              		.global	i2cAcquireBus
 255              		.syntax unified
 256              		.thumb
 257              		.thumb_func
 258              		.fpu fpv4-sp-d16
 259              		.type	i2cAcquireBus, %function
 260              	i2cAcquireBus:
 261              		@ args = 0, pretend = 0, frame = 0
 262              		@ frame_needed = 0, uses_anonymous_args = 0
 263              		@ link register save eliminated.
 264 0000 0C30     		adds	r0, r0, #12
 265 0002 FFF7FEBF 		b	chMtxLock
 266              		.size	i2cAcquireBus, .-i2cAcquireBus
 267 0006 00BF     		.section	.text.i2cReleaseBus,"ax",%progbits
 268              		.align	1
 269              		.p2align 4,,15
 270              		.global	i2cReleaseBus
 271              		.syntax unified
 272              		.thumb
 273              		.thumb_func
 274              		.fpu fpv4-sp-d16
 275              		.type	i2cReleaseBus, %function
 276              	i2cReleaseBus:
 277              		@ args = 0, pretend = 0, frame = 0
 278              		@ frame_needed = 0, uses_anonymous_args = 0
 279              		@ link register save eliminated.
 280 0000 0C30     		adds	r0, r0, #12
 281 0002 FFF7FEBF 		b	chMtxUnlock
 282              		.size	i2cReleaseBus, .-i2cReleaseBus
 283 0006 00BF     		.ident	"GCC: (15:10.3-2021.07-4) 10.3.1 20210621 (release)"
ARM GAS  /tmp/ccPhj4hQ.s 			page 6

