ARM GAS  /tmp/cc5yeKlP.s 			page 1


   1              		.cpu cortex-m4
   2              		.eabi_attribute 27, 1
   3              		.eabi_attribute 20, 1
   4              		.eabi_attribute 21, 1
   5              		.eabi_attribute 23, 3
   6              		.eabi_attribute 24, 1
   7              		.eabi_attribute 25, 1
   8              		.eabi_attribute 26, 1
   9              		.eabi_attribute 30, 2
  10              		.eabi_attribute 34, 1
  11              		.eabi_attribute 18, 4
  12              		.file	"hal_st_lld.c"
  13              		.text
  14              		.section	.text.SysTick_Handler,"ax",%progbits
  15              		.align	1
  16              		.p2align 4,,15
  17              		.global	SysTick_Handler
  18              		.arch armv7e-m
  19              		.syntax unified
  20              		.thumb
  21              		.thumb_func
  22              		.fpu fpv4-sp-d16
  23              		.type	SysTick_Handler, %function
  24              	SysTick_Handler:
  25              		@ args = 0, pretend = 0, frame = 0
  26              		@ frame_needed = 0, uses_anonymous_args = 0
  27 0000 08B5     		push	{r3, lr}
  28 0002 FFF7FEFF 		bl	__stats_increase_irq
  29 0006 3023     		movs	r3, #48
  30              		.syntax unified
  31              	@ 493 "/home/argroos/paparazzi/sw/ext/chibios/os/common/ext/ARM/CMSIS/Core/Include/cmsis_gcc.h" 1
  32 0008 83F31188 		MSR basepri, r3
  33              	@ 0 "" 2
  34              		.thumb
  35              		.syntax unified
  36 000c FFF7FEFF 		bl	__stats_start_measure_crit_isr
  37 0010 FFF7FEFF 		bl	chSysTimerHandlerI
  38 0014 FFF7FEFF 		bl	__stats_stop_measure_crit_isr
  39 0018 0023     		movs	r3, #0
  40              		.syntax unified
  41              	@ 493 "/home/argroos/paparazzi/sw/ext/chibios/os/common/ext/ARM/CMSIS/Core/Include/cmsis_gcc.h" 1
  42 001a 83F31188 		MSR basepri, r3
  43              	@ 0 "" 2
  44              		.thumb
  45              		.syntax unified
  46 001e BDE80840 		pop	{r3, lr}
  47 0022 FFF7FEBF 		b	__port_irq_epilogue
  48              		.size	SysTick_Handler, .-SysTick_Handler
  49 0026 00BF     		.section	.text.st_lld_init,"ax",%progbits
  50              		.align	1
  51              		.p2align 4,,15
  52              		.global	st_lld_init
  53              		.syntax unified
  54              		.thumb
  55              		.thumb_func
  56              		.fpu fpv4-sp-d16
  57              		.type	st_lld_init, %function
ARM GAS  /tmp/cc5yeKlP.s 			page 2


  58              	st_lld_init:
  59              		@ args = 0, pretend = 0, frame = 0
  60              		@ frame_needed = 0, uses_anonymous_args = 0
  61              		@ link register save eliminated.
  62 0000 4FF0E023 		mov	r3, #-536813568
  63 0004 44F29F11 		movw	r1, #16799
  64 0008 0020     		movs	r0, #0
  65 000a 0722     		movs	r2, #7
  66 000c 5961     		str	r1, [r3, #20]
  67 000e 9861     		str	r0, [r3, #24]
  68 0010 0821     		movs	r1, #8
  69 0012 0B20     		movs	r0, #11
  70 0014 1A61     		str	r2, [r3, #16]
  71 0016 FFF7FEBF 		b	nvicSetSystemHandlerPriority
  72              		.size	st_lld_init, .-st_lld_init
  73 001a 00BF     		.section	.text.st_lld_serve_interrupt,"ax",%progbits
  74              		.align	1
  75              		.p2align 4,,15
  76              		.global	st_lld_serve_interrupt
  77              		.syntax unified
  78              		.thumb
  79              		.thumb_func
  80              		.fpu fpv4-sp-d16
  81              		.type	st_lld_serve_interrupt, %function
  82              	st_lld_serve_interrupt:
  83              		@ args = 0, pretend = 0, frame = 0
  84              		@ frame_needed = 0, uses_anonymous_args = 0
  85 0000 08B5     		push	{r3, lr}
  86 0002 3023     		movs	r3, #48
  87              		.syntax unified
  88              	@ 493 "/home/argroos/paparazzi/sw/ext/chibios/os/common/ext/ARM/CMSIS/Core/Include/cmsis_gcc.h" 1
  89 0004 83F31188 		MSR basepri, r3
  90              	@ 0 "" 2
  91              		.thumb
  92              		.syntax unified
  93 0008 FFF7FEFF 		bl	__stats_start_measure_crit_isr
  94 000c FFF7FEFF 		bl	chSysTimerHandlerI
  95 0010 FFF7FEFF 		bl	__stats_stop_measure_crit_isr
  96 0014 0023     		movs	r3, #0
  97              		.syntax unified
  98              	@ 493 "/home/argroos/paparazzi/sw/ext/chibios/os/common/ext/ARM/CMSIS/Core/Include/cmsis_gcc.h" 1
  99 0016 83F31188 		MSR basepri, r3
 100              	@ 0 "" 2
 101              		.thumb
 102              		.syntax unified
 103 001a 08BD     		pop	{r3, pc}
 104              		.size	st_lld_serve_interrupt, .-st_lld_serve_interrupt
 105              		.ident	"GCC: (15:10.3-2021.07-4) 10.3.1 20210621 (release)"
ARM GAS  /tmp/cc5yeKlP.s 			page 3

