ARM GAS  /tmp/ccQJQF6d.s 			page 1


   1              		.cpu cortex-m4
   2              		.eabi_attribute 27, 1
   3              		.eabi_attribute 20, 1
   4              		.eabi_attribute 21, 1
   5              		.eabi_attribute 23, 3
   6              		.eabi_attribute 24, 1
   7              		.eabi_attribute 25, 1
   8              		.eabi_attribute 26, 1
   9              		.eabi_attribute 30, 2
  10              		.eabi_attribute 34, 1
  11              		.eabi_attribute 18, 4
  12              		.file	"hal_buffers.c"
  13              		.text
  14              		.section	.text.ibqObjectInit,"ax",%progbits
  15              		.align	1
  16              		.p2align 4,,15
  17              		.global	ibqObjectInit
  18              		.arch armv7e-m
  19              		.syntax unified
  20              		.thumb
  21              		.thumb_func
  22              		.fpu fpv4-sp-d16
  23              		.type	ibqObjectInit, %function
  24              	ibqObjectInit:
  25              		@ args = 12, pretend = 0, frame = 0
  26              		@ frame_needed = 0, uses_anonymous_args = 0
  27 0000 2DE9F041 		push	{r4, r5, r6, r7, r8, lr}
  28 0004 0446     		mov	r4, r0
  29 0006 1646     		mov	r6, r2
  30 0008 069F     		ldr	r7, [sp, #24]
  31 000a 1D46     		mov	r5, r3
  32 000c 8846     		mov	r8, r1
  33 000e FFF7FEFF 		bl	chThdQueueObjectInit
  34 0012 079B     		ldr	r3, [sp, #28]
  35 0014 2363     		str	r3, [r4, #48]
  36 0016 2B1D     		adds	r3, r5, #4
  37 0018 E361     		str	r3, [r4, #28]
  38 001a 07FB0363 		mla	r3, r7, r3, r6
  39 001e A361     		str	r3, [r4, #24]
  40 0020 089B     		ldr	r3, [sp, #32]
  41 0022 6363     		str	r3, [r4, #52]
  42 0024 0023     		movs	r3, #0
  43 0026 C4E90466 		strd	r6, r6, [r4, #16]
  44 002a C4E90876 		strd	r7, r6, [r4, #32]
  45 002e C4E90A33 		strd	r3, r3, [r4, #40]
  46 0032 84F80880 		strb	r8, [r4, #8]
  47 0036 E360     		str	r3, [r4, #12]
  48 0038 BDE8F081 		pop	{r4, r5, r6, r7, r8, pc}
  49              		.size	ibqObjectInit, .-ibqObjectInit
  50              		.section	.text.ibqResetI,"ax",%progbits
  51              		.align	1
  52              		.p2align 4,,15
  53              		.global	ibqResetI
  54              		.syntax unified
  55              		.thumb
  56              		.thumb_func
  57              		.fpu fpv4-sp-d16
ARM GAS  /tmp/ccQJQF6d.s 			page 2


  58              		.type	ibqResetI, %function
  59              	ibqResetI:
  60              		@ args = 0, pretend = 0, frame = 0
  61              		@ frame_needed = 0, uses_anonymous_args = 0
  62              		@ link register save eliminated.
  63 0000 416A     		ldr	r1, [r0, #36]
  64 0002 0022     		movs	r2, #0
  65 0004 C0E90411 		strd	r1, r1, [r0, #16]
  66 0008 C0E90A22 		strd	r2, r2, [r0, #40]
  67 000c C260     		str	r2, [r0, #12]
  68 000e 6FF00101 		mvn	r1, #1
  69 0012 FFF7FEBF 		b	chThdDequeueAllI
  70              		.size	ibqResetI, .-ibqResetI
  71 0016 00BF     		.section	.text.ibqGetEmptyBufferI,"ax",%progbits
  72              		.align	1
  73              		.p2align 4,,15
  74              		.global	ibqGetEmptyBufferI
  75              		.syntax unified
  76              		.thumb
  77              		.thumb_func
  78              		.fpu fpv4-sp-d16
  79              		.type	ibqGetEmptyBufferI, %function
  80              	ibqGetEmptyBufferI:
  81              		@ args = 0, pretend = 0, frame = 0
  82              		@ frame_needed = 0, uses_anonymous_args = 0
  83              		@ link register save eliminated.
  84 0000 D0E90432 		ldrd	r3, r2, [r0, #16]
  85 0004 9342     		cmp	r3, r2
  86 0006 01D0     		beq	.L11
  87              	.L6:
  88 0008 181D     		adds	r0, r3, #4
  89 000a 7047     		bx	lr
  90              	.L11:
  91 000c C268     		ldr	r2, [r0, #12]
  92 000e 002A     		cmp	r2, #0
  93 0010 FAD0     		beq	.L6
  94 0012 0020     		movs	r0, #0
  95 0014 7047     		bx	lr
  96              		.size	ibqGetEmptyBufferI, .-ibqGetEmptyBufferI
  97              		.section	.text.ibqPostFullBufferI,"ax",%progbits
  98              		.align	1
  99              		.p2align 4,,15
 100              		.global	ibqPostFullBufferI
 101              		.syntax unified
 102              		.thumb
 103              		.thumb_func
 104              		.fpu fpv4-sp-d16
 105              		.type	ibqPostFullBufferI, %function
 106              	ibqPostFullBufferI:
 107              		@ args = 0, pretend = 0, frame = 0
 108              		@ frame_needed = 0, uses_anonymous_args = 0
 109              		@ link register save eliminated.
 110 0000 0369     		ldr	r3, [r0, #16]
 111 0002 10B4     		push	{r4}
 112 0004 8469     		ldr	r4, [r0, #24]
 113 0006 1960     		str	r1, [r3]
 114 0008 C169     		ldr	r1, [r0, #28]
ARM GAS  /tmp/ccQJQF6d.s 			page 3


 115 000a C268     		ldr	r2, [r0, #12]
 116 000c 0B44     		add	r3, r3, r1
 117 000e A342     		cmp	r3, r4
 118 0010 0361     		str	r3, [r0, #16]
 119 0012 02F10102 		add	r2, r2, #1
 120 0016 28BF     		it	cs
 121 0018 436A     		ldrcs	r3, [r0, #36]
 122 001a 5DF8044B 		ldr	r4, [sp], #4
 123 001e C260     		str	r2, [r0, #12]
 124 0020 28BF     		it	cs
 125 0022 0361     		strcs	r3, [r0, #16]
 126 0024 0021     		movs	r1, #0
 127 0026 FFF7FEBF 		b	chThdDequeueNextI
 128              		.size	ibqPostFullBufferI, .-ibqPostFullBufferI
 129 002a 00BF     		.section	.text.ibqGetFullBufferTimeout,"ax",%progbits
 130              		.align	1
 131              		.p2align 4,,15
 132              		.global	ibqGetFullBufferTimeout
 133              		.syntax unified
 134              		.thumb
 135              		.thumb_func
 136              		.fpu fpv4-sp-d16
 137              		.type	ibqGetFullBufferTimeout, %function
 138              	ibqGetFullBufferTimeout:
 139              		@ args = 0, pretend = 0, frame = 0
 140              		@ frame_needed = 0, uses_anonymous_args = 0
 141 0000 70B5     		push	{r4, r5, r6, lr}
 142 0002 3023     		movs	r3, #48
 143 0004 0546     		mov	r5, r0
 144 0006 0E46     		mov	r6, r1
 145              		.syntax unified
 146              	@ 493 "/home/argroos/paparazzi/sw/ext/chibios/os/common/ext/ARM/CMSIS/Core/Include/cmsis_gcc.h" 1
 147 0008 83F31188 		MSR basepri, r3
 148              	@ 0 "" 2
 149              		.thumb
 150              		.syntax unified
 151 000c FFF7FEFF 		bl	__stats_start_measure_crit_thd
 152 0010 05E0     		b	.L16
 153              	.L18:
 154 0012 2B7A     		ldrb	r3, [r5, #8]	@ zero_extendqisi2
 155 0014 B3B9     		cbnz	r3, .L19
 156 0016 FFF7FEFF 		bl	chThdEnqueueTimeoutS
 157 001a 041E     		subs	r4, r0, #0
 158 001c 0BDB     		blt	.L17
 159              	.L16:
 160 001e EB68     		ldr	r3, [r5, #12]
 161 0020 3146     		mov	r1, r6
 162 0022 2846     		mov	r0, r5
 163 0024 002B     		cmp	r3, #0
 164 0026 F4D0     		beq	.L18
 165 0028 6B69     		ldr	r3, [r5, #20]
 166 002a 1A68     		ldr	r2, [r3]
 167 002c 0433     		adds	r3, r3, #4
 168 002e 1A44     		add	r2, r2, r3
 169 0030 C5E90A32 		strd	r3, r2, [r5, #40]
 170 0034 0024     		movs	r4, #0
 171              	.L17:
ARM GAS  /tmp/ccQJQF6d.s 			page 4


 172 0036 FFF7FEFF 		bl	__stats_stop_measure_crit_thd
 173 003a 0023     		movs	r3, #0
 174              		.syntax unified
 175              	@ 493 "/home/argroos/paparazzi/sw/ext/chibios/os/common/ext/ARM/CMSIS/Core/Include/cmsis_gcc.h" 1
 176 003c 83F31188 		MSR basepri, r3
 177              	@ 0 "" 2
 178              		.thumb
 179              		.syntax unified
 180 0040 2046     		mov	r0, r4
 181 0042 70BD     		pop	{r4, r5, r6, pc}
 182              	.L19:
 183 0044 FFF7FEFF 		bl	__stats_stop_measure_crit_thd
 184 0048 6FF00104 		mvn	r4, #1
 185 004c 0023     		movs	r3, #0
 186              		.syntax unified
 187              	@ 493 "/home/argroos/paparazzi/sw/ext/chibios/os/common/ext/ARM/CMSIS/Core/Include/cmsis_gcc.h" 1
 188 004e 83F31188 		MSR basepri, r3
 189              	@ 0 "" 2
 190              		.thumb
 191              		.syntax unified
 192 0052 2046     		mov	r0, r4
 193 0054 70BD     		pop	{r4, r5, r6, pc}
 194              		.size	ibqGetFullBufferTimeout, .-ibqGetFullBufferTimeout
 195 0056 00BF     		.section	.text.ibqGetFullBufferTimeoutS,"ax",%progbits
 196              		.align	1
 197              		.p2align 4,,15
 198              		.global	ibqGetFullBufferTimeoutS
 199              		.syntax unified
 200              		.thumb
 201              		.thumb_func
 202              		.fpu fpv4-sp-d16
 203              		.type	ibqGetFullBufferTimeoutS, %function
 204              	ibqGetFullBufferTimeoutS:
 205              		@ args = 0, pretend = 0, frame = 0
 206              		@ frame_needed = 0, uses_anonymous_args = 0
 207 0000 38B5     		push	{r3, r4, r5, lr}
 208 0002 0446     		mov	r4, r0
 209 0004 0D46     		mov	r5, r1
 210 0006 05E0     		b	.L22
 211              	.L24:
 212 0008 237A     		ldrb	r3, [r4, #8]	@ zero_extendqisi2
 213 000a 83B9     		cbnz	r3, .L25
 214 000c FFF7FEFF 		bl	chThdEnqueueTimeoutS
 215 0010 0028     		cmp	r0, #0
 216 0012 0BDB     		blt	.L21
 217              	.L22:
 218 0014 E368     		ldr	r3, [r4, #12]
 219 0016 2946     		mov	r1, r5
 220 0018 2046     		mov	r0, r4
 221 001a 002B     		cmp	r3, #0
 222 001c F4D0     		beq	.L24
 223 001e 6369     		ldr	r3, [r4, #20]
 224 0020 1A68     		ldr	r2, [r3]
 225 0022 0433     		adds	r3, r3, #4
 226 0024 1A44     		add	r2, r2, r3
 227 0026 C4E90A32 		strd	r3, r2, [r4, #40]
 228 002a 0020     		movs	r0, #0
ARM GAS  /tmp/ccQJQF6d.s 			page 5


 229              	.L21:
 230 002c 38BD     		pop	{r3, r4, r5, pc}
 231              	.L25:
 232 002e 6FF00100 		mvn	r0, #1
 233 0032 38BD     		pop	{r3, r4, r5, pc}
 234              		.size	ibqGetFullBufferTimeoutS, .-ibqGetFullBufferTimeoutS
 235              		.section	.text.ibqReleaseEmptyBuffer,"ax",%progbits
 236              		.align	1
 237              		.p2align 4,,15
 238              		.global	ibqReleaseEmptyBuffer
 239              		.syntax unified
 240              		.thumb
 241              		.thumb_func
 242              		.fpu fpv4-sp-d16
 243              		.type	ibqReleaseEmptyBuffer, %function
 244              	ibqReleaseEmptyBuffer:
 245              		@ args = 0, pretend = 0, frame = 0
 246              		@ frame_needed = 0, uses_anonymous_args = 0
 247 0000 10B5     		push	{r4, lr}
 248 0002 3023     		movs	r3, #48
 249 0004 0446     		mov	r4, r0
 250              		.syntax unified
 251              	@ 493 "/home/argroos/paparazzi/sw/ext/chibios/os/common/ext/ARM/CMSIS/Core/Include/cmsis_gcc.h" 1
 252 0006 83F31188 		MSR basepri, r3
 253              	@ 0 "" 2
 254              		.thumb
 255              		.syntax unified
 256 000a FFF7FEFF 		bl	__stats_start_measure_crit_thd
 257 000e D4E90610 		ldrd	r1, r0, [r4, #24]
 258 0012 6369     		ldr	r3, [r4, #20]
 259 0014 E268     		ldr	r2, [r4, #12]
 260 0016 0344     		add	r3, r3, r0
 261 0018 8B42     		cmp	r3, r1
 262 001a 6361     		str	r3, [r4, #20]
 263 001c 24BF     		itt	cs
 264 001e 636A     		ldrcs	r3, [r4, #36]
 265 0020 6361     		strcs	r3, [r4, #20]
 266 0022 013A     		subs	r2, r2, #1
 267 0024 236B     		ldr	r3, [r4, #48]
 268 0026 E260     		str	r2, [r4, #12]
 269 0028 0022     		movs	r2, #0
 270 002a A262     		str	r2, [r4, #40]
 271 002c 0BB1     		cbz	r3, .L29
 272 002e 2046     		mov	r0, r4
 273 0030 9847     		blx	r3
 274              	.L29:
 275 0032 FFF7FEFF 		bl	__stats_stop_measure_crit_thd
 276 0036 0023     		movs	r3, #0
 277              		.syntax unified
 278              	@ 493 "/home/argroos/paparazzi/sw/ext/chibios/os/common/ext/ARM/CMSIS/Core/Include/cmsis_gcc.h" 1
 279 0038 83F31188 		MSR basepri, r3
 280              	@ 0 "" 2
 281              		.thumb
 282              		.syntax unified
 283 003c 10BD     		pop	{r4, pc}
 284              		.size	ibqReleaseEmptyBuffer, .-ibqReleaseEmptyBuffer
 285 003e 00BF     		.section	.text.ibqReleaseEmptyBufferS,"ax",%progbits
ARM GAS  /tmp/ccQJQF6d.s 			page 6


 286              		.align	1
 287              		.p2align 4,,15
 288              		.global	ibqReleaseEmptyBufferS
 289              		.syntax unified
 290              		.thumb
 291              		.thumb_func
 292              		.fpu fpv4-sp-d16
 293              		.type	ibqReleaseEmptyBufferS, %function
 294              	ibqReleaseEmptyBufferS:
 295              		@ args = 0, pretend = 0, frame = 0
 296              		@ frame_needed = 0, uses_anonymous_args = 0
 297              		@ link register save eliminated.
 298 0000 D0E90531 		ldrd	r3, r1, [r0, #20]
 299 0004 10B4     		push	{r4}
 300 0006 C469     		ldr	r4, [r0, #28]
 301 0008 C268     		ldr	r2, [r0, #12]
 302 000a 2344     		add	r3, r3, r4
 303 000c 8B42     		cmp	r3, r1
 304 000e 4361     		str	r3, [r0, #20]
 305 0010 24BF     		itt	cs
 306 0012 436A     		ldrcs	r3, [r0, #36]
 307 0014 4361     		strcs	r3, [r0, #20]
 308 0016 013A     		subs	r2, r2, #1
 309 0018 036B     		ldr	r3, [r0, #48]
 310 001a C260     		str	r2, [r0, #12]
 311 001c 0022     		movs	r2, #0
 312 001e 8262     		str	r2, [r0, #40]
 313 0020 13B1     		cbz	r3, .L34
 314 0022 5DF8044B 		ldr	r4, [sp], #4
 315 0026 1847     		bx	r3	@ indirect register sibling call
 316              	.L34:
 317 0028 5DF8044B 		ldr	r4, [sp], #4
 318 002c 7047     		bx	lr
 319              		.size	ibqReleaseEmptyBufferS, .-ibqReleaseEmptyBufferS
 320 002e 00BF     		.section	.text.ibqGetTimeout,"ax",%progbits
 321              		.align	1
 322              		.p2align 4,,15
 323              		.global	ibqGetTimeout
 324              		.syntax unified
 325              		.thumb
 326              		.thumb_func
 327              		.fpu fpv4-sp-d16
 328              		.type	ibqGetTimeout, %function
 329              	ibqGetTimeout:
 330              		@ args = 0, pretend = 0, frame = 0
 331              		@ frame_needed = 0, uses_anonymous_args = 0
 332 0000 70B5     		push	{r4, r5, r6, lr}
 333 0002 3023     		movs	r3, #48
 334 0004 0446     		mov	r4, r0
 335 0006 0D46     		mov	r5, r1
 336              		.syntax unified
 337              	@ 493 "/home/argroos/paparazzi/sw/ext/chibios/os/common/ext/ARM/CMSIS/Core/Include/cmsis_gcc.h" 1
 338 0008 83F31188 		MSR basepri, r3
 339              	@ 0 "" 2
 340              		.thumb
 341              		.syntax unified
 342 000c FFF7FEFF 		bl	__stats_start_measure_crit_thd
ARM GAS  /tmp/ccQJQF6d.s 			page 7


 343 0010 A36A     		ldr	r3, [r4, #40]
 344 0012 93B1     		cbz	r3, .L39
 345 0014 E26A     		ldr	r2, [r4, #44]
 346              	.L40:
 347 0016 13F8016B 		ldrb	r6, [r3], #1	@ zero_extendqisi2
 348 001a A362     		str	r3, [r4, #40]
 349 001c 9342     		cmp	r3, r2
 350 001e 18D2     		bcs	.L55
 351              	.L41:
 352 0020 FFF7FEFF 		bl	__stats_stop_measure_crit_thd
 353 0024 0023     		movs	r3, #0
 354              		.syntax unified
 355              	@ 493 "/home/argroos/paparazzi/sw/ext/chibios/os/common/ext/ARM/CMSIS/Core/Include/cmsis_gcc.h" 1
 356 0026 83F31188 		MSR basepri, r3
 357              	@ 0 "" 2
 358              		.thumb
 359              		.syntax unified
 360 002a 3046     		mov	r0, r6
 361 002c 70BD     		pop	{r4, r5, r6, pc}
 362              	.L42:
 363 002e 237A     		ldrb	r3, [r4, #8]	@ zero_extendqisi2
 364 0030 4BBB     		cbnz	r3, .L48
 365 0032 FFF7FEFF 		bl	chThdEnqueueTimeoutS
 366 0036 061E     		subs	r6, r0, #0
 367 0038 F2DB     		blt	.L41
 368              	.L39:
 369 003a E368     		ldr	r3, [r4, #12]
 370 003c 2946     		mov	r1, r5
 371 003e 2046     		mov	r0, r4
 372 0040 002B     		cmp	r3, #0
 373 0042 F4D0     		beq	.L42
 374 0044 6369     		ldr	r3, [r4, #20]
 375 0046 1A68     		ldr	r2, [r3]
 376 0048 0433     		adds	r3, r3, #4
 377 004a 1A44     		add	r2, r2, r3
 378 004c C4E90A32 		strd	r3, r2, [r4, #40]
 379 0050 E1E7     		b	.L40
 380              	.L55:
 381 0052 6369     		ldr	r3, [r4, #20]
 382 0054 E169     		ldr	r1, [r4, #28]
 383 0056 E268     		ldr	r2, [r4, #12]
 384 0058 0B44     		add	r3, r3, r1
 385 005a A169     		ldr	r1, [r4, #24]
 386 005c 6361     		str	r3, [r4, #20]
 387 005e 8B42     		cmp	r3, r1
 388 0060 24BF     		itt	cs
 389 0062 636A     		ldrcs	r3, [r4, #36]
 390 0064 6361     		strcs	r3, [r4, #20]
 391 0066 013A     		subs	r2, r2, #1
 392 0068 236B     		ldr	r3, [r4, #48]
 393 006a E260     		str	r2, [r4, #12]
 394 006c 0022     		movs	r2, #0
 395 006e A262     		str	r2, [r4, #40]
 396 0070 002B     		cmp	r3, #0
 397 0072 D5D0     		beq	.L41
 398 0074 2046     		mov	r0, r4
 399 0076 9847     		blx	r3
ARM GAS  /tmp/ccQJQF6d.s 			page 8


 400 0078 FFF7FEFF 		bl	__stats_stop_measure_crit_thd
 401 007c 0023     		movs	r3, #0
 402              		.syntax unified
 403              	@ 493 "/home/argroos/paparazzi/sw/ext/chibios/os/common/ext/ARM/CMSIS/Core/Include/cmsis_gcc.h" 1
 404 007e 83F31188 		MSR basepri, r3
 405              	@ 0 "" 2
 406              		.thumb
 407              		.syntax unified
 408 0082 3046     		mov	r0, r6
 409 0084 70BD     		pop	{r4, r5, r6, pc}
 410              	.L48:
 411 0086 6FF00106 		mvn	r6, #1
 412 008a C9E7     		b	.L41
 413              		.size	ibqGetTimeout, .-ibqGetTimeout
 414              		.section	.text.ibqReadTimeout,"ax",%progbits
 415              		.align	1
 416              		.p2align 4,,15
 417              		.global	ibqReadTimeout
 418              		.syntax unified
 419              		.thumb
 420              		.thumb_func
 421              		.fpu fpv4-sp-d16
 422              		.type	ibqReadTimeout, %function
 423              	ibqReadTimeout:
 424              		@ args = 0, pretend = 0, frame = 0
 425              		@ frame_needed = 0, uses_anonymous_args = 0
 426 0000 2DE9F84F 		push	{r3, r4, r5, r6, r7, r8, r9, r10, fp, lr}
 427 0004 8246     		mov	r10, r0
 428 0006 0D46     		mov	r5, r1
 429 0008 1646     		mov	r6, r2
 430 000a 1F46     		mov	r7, r3
 431 000c 4FF03009 		mov	r9, #48
 432              		.syntax unified
 433              	@ 493 "/home/argroos/paparazzi/sw/ext/chibios/os/common/ext/ARM/CMSIS/Core/Include/cmsis_gcc.h" 1
 434 0010 89F31188 		MSR basepri, r9
 435              	@ 0 "" 2
 436              		.thumb
 437              		.syntax unified
 438 0014 FFF7FEFF 		bl	__stats_start_measure_crit_thd
 439 0018 0024     		movs	r4, #0
 440 001a A046     		mov	r8, r4
 441              	.L69:
 442 001c DAF82810 		ldr	r1, [r10, #40]
 443 0020 0029     		cmp	r1, #0
 444 0022 3ED0     		beq	.L57
 445 0024 DAF82C20 		ldr	r2, [r10, #44]
 446              	.L58:
 447 0028 A6EB040B 		sub	fp, r6, r4
 448 002c 521A     		subs	r2, r2, r1
 449 002e 9345     		cmp	fp, r2
 450 0030 28BF     		it	cs
 451 0032 9346     		movcs	fp, r2
 452 0034 BBF1400F 		cmp	fp, #64
 453 0038 41D9     		bls	.L61
 454 003a 2B46     		mov	r3, r5
 455 003c 01F1400B 		add	fp, r1, #64
 456              	.L62:
ARM GAS  /tmp/ccQJQF6d.s 			page 9


 457 0040 D1F800C0 		ldr	ip, [r1]	@ unaligned
 458 0044 4868     		ldr	r0, [r1, #4]	@ unaligned
 459 0046 8A68     		ldr	r2, [r1, #8]	@ unaligned
 460 0048 D1F80CE0 		ldr	lr, [r1, #12]	@ unaligned
 461 004c C3F80CE0 		str	lr, [r3, #12]	@ unaligned
 462 0050 1031     		adds	r1, r1, #16
 463 0052 5945     		cmp	r1, fp
 464 0054 C3F800C0 		str	ip, [r3]	@ unaligned
 465 0058 5860     		str	r0, [r3, #4]	@ unaligned
 466 005a 9A60     		str	r2, [r3, #8]	@ unaligned
 467 005c 03F11003 		add	r3, r3, #16
 468 0060 EED1     		bne	.L62
 469 0062 DAF82830 		ldr	r3, [r10, #40]
 470 0066 DAF82C20 		ldr	r2, [r10, #44]
 471 006a 4033     		adds	r3, r3, #64
 472 006c 9A42     		cmp	r2, r3
 473 006e 05F14005 		add	r5, r5, #64
 474 0072 CAF82830 		str	r3, [r10, #40]
 475 0076 04F14004 		add	r4, r4, #64
 476 007a 2FD9     		bls	.L77
 477              	.L65:
 478 007c FFF7FEFF 		bl	__stats_stop_measure_crit_thd
 479              		.syntax unified
 480              	@ 493 "/home/argroos/paparazzi/sw/ext/chibios/os/common/ext/ARM/CMSIS/Core/Include/cmsis_gcc.h" 1
 481 0080 88F31188 		MSR basepri, r8
 482              	@ 0 "" 2
 483              		.thumb
 484              		.syntax unified
 485 0084 B442     		cmp	r4, r6
 486 0086 49D2     		bcs	.L56
 487              		.syntax unified
 488              	@ 493 "/home/argroos/paparazzi/sw/ext/chibios/os/common/ext/ARM/CMSIS/Core/Include/cmsis_gcc.h" 1
 489 0088 89F31188 		MSR basepri, r9
 490              	@ 0 "" 2
 491              		.thumb
 492              		.syntax unified
 493 008c FFF7FEFF 		bl	__stats_start_measure_crit_thd
 494 0090 C4E7     		b	.L69
 495              	.L60:
 496 0092 9AF80830 		ldrb	r3, [r10, #8]	@ zero_extendqisi2
 497 0096 002B     		cmp	r3, #0
 498 0098 3BD1     		bne	.L59
 499 009a FFF7FEFF 		bl	chThdEnqueueTimeoutS
 500 009e 0028     		cmp	r0, #0
 501 00a0 37DB     		blt	.L59
 502              	.L57:
 503 00a2 DAF80C30 		ldr	r3, [r10, #12]
 504 00a6 3946     		mov	r1, r7
 505 00a8 5046     		mov	r0, r10
 506 00aa 002B     		cmp	r3, #0
 507 00ac F1D0     		beq	.L60
 508 00ae DAF81410 		ldr	r1, [r10, #20]
 509 00b2 0A68     		ldr	r2, [r1]
 510 00b4 0431     		adds	r1, r1, #4
 511 00b6 0A44     		add	r2, r2, r1
 512 00b8 CAE90A12 		strd	r1, r2, [r10, #40]
 513 00bc B4E7     		b	.L58
ARM GAS  /tmp/ccQJQF6d.s 			page 10


 514              	.L61:
 515 00be 2846     		mov	r0, r5
 516 00c0 5A46     		mov	r2, fp
 517 00c2 FFF7FEFF 		bl	memcpy
 518 00c6 DAF82830 		ldr	r3, [r10, #40]
 519 00ca DAF82C20 		ldr	r2, [r10, #44]
 520 00ce 5B44     		add	r3, r3, fp
 521 00d0 9A42     		cmp	r2, r3
 522 00d2 5D44     		add	r5, r5, fp
 523 00d4 CAF82830 		str	r3, [r10, #40]
 524 00d8 5C44     		add	r4, r4, fp
 525 00da CFD8     		bhi	.L65
 526              	.L77:
 527 00dc DAE90621 		ldrd	r2, r1, [r10, #24]
 528 00e0 DAF81430 		ldr	r3, [r10, #20]
 529 00e4 DAF80C00 		ldr	r0, [r10, #12]
 530 00e8 CAF82880 		str	r8, [r10, #40]
 531 00ec 0B44     		add	r3, r3, r1
 532 00ee 9342     		cmp	r3, r2
 533 00f0 CAF81430 		str	r3, [r10, #20]
 534 00f4 24BF     		itt	cs
 535 00f6 DAF82430 		ldrcs	r3, [r10, #36]
 536 00fa CAF81430 		strcs	r3, [r10, #20]
 537 00fe DAF83030 		ldr	r3, [r10, #48]
 538 0102 0138     		subs	r0, r0, #1
 539 0104 CAF80C00 		str	r0, [r10, #12]
 540 0108 002B     		cmp	r3, #0
 541 010a B7D0     		beq	.L65
 542 010c 5046     		mov	r0, r10
 543 010e 9847     		blx	r3
 544 0110 B4E7     		b	.L65
 545              	.L59:
 546 0112 FFF7FEFF 		bl	__stats_stop_measure_crit_thd
 547 0116 0023     		movs	r3, #0
 548              		.syntax unified
 549              	@ 493 "/home/argroos/paparazzi/sw/ext/chibios/os/common/ext/ARM/CMSIS/Core/Include/cmsis_gcc.h" 1
 550 0118 83F31188 		MSR basepri, r3
 551              	@ 0 "" 2
 552              		.thumb
 553              		.syntax unified
 554              	.L56:
 555 011c 2046     		mov	r0, r4
 556 011e BDE8F88F 		pop	{r3, r4, r5, r6, r7, r8, r9, r10, fp, pc}
 557              		.size	ibqReadTimeout, .-ibqReadTimeout
 558 0122 00BF     		.section	.text.obqObjectInit,"ax",%progbits
 559              		.align	1
 560              		.p2align 4,,15
 561              		.global	obqObjectInit
 562              		.syntax unified
 563              		.thumb
 564              		.thumb_func
 565              		.fpu fpv4-sp-d16
 566              		.type	obqObjectInit, %function
 567              	obqObjectInit:
 568              		@ args = 12, pretend = 0, frame = 0
 569              		@ frame_needed = 0, uses_anonymous_args = 0
 570 0000 2DE9F041 		push	{r4, r5, r6, r7, r8, lr}
ARM GAS  /tmp/ccQJQF6d.s 			page 11


 571 0004 0446     		mov	r4, r0
 572 0006 069F     		ldr	r7, [sp, #24]
 573 0008 1646     		mov	r6, r2
 574 000a 1D46     		mov	r5, r3
 575 000c 8846     		mov	r8, r1
 576 000e FFF7FEFF 		bl	chThdQueueObjectInit
 577 0012 079B     		ldr	r3, [sp, #28]
 578 0014 2363     		str	r3, [r4, #48]
 579 0016 2B1D     		adds	r3, r5, #4
 580 0018 E361     		str	r3, [r4, #28]
 581 001a 03FB0763 		mla	r3, r3, r7, r6
 582 001e A361     		str	r3, [r4, #24]
 583 0020 0023     		movs	r3, #0
 584 0022 C4E90A33 		strd	r3, r3, [r4, #40]
 585 0026 089B     		ldr	r3, [sp, #32]
 586 0028 84F80880 		strb	r8, [r4, #8]
 587 002c C4E90466 		strd	r6, r6, [r4, #16]
 588 0030 C4E90876 		strd	r7, r6, [r4, #32]
 589 0034 E760     		str	r7, [r4, #12]
 590 0036 6363     		str	r3, [r4, #52]
 591 0038 BDE8F081 		pop	{r4, r5, r6, r7, r8, pc}
 592              		.size	obqObjectInit, .-obqObjectInit
 593              		.section	.text.obqResetI,"ax",%progbits
 594              		.align	1
 595              		.p2align 4,,15
 596              		.global	obqResetI
 597              		.syntax unified
 598              		.thumb
 599              		.thumb_func
 600              		.fpu fpv4-sp-d16
 601              		.type	obqResetI, %function
 602              	obqResetI:
 603              		@ args = 0, pretend = 0, frame = 0
 604              		@ frame_needed = 0, uses_anonymous_args = 0
 605              		@ link register save eliminated.
 606 0000 10B4     		push	{r4}
 607 0002 D0E90841 		ldrd	r4, r1, [r0, #32]
 608 0006 0022     		movs	r2, #0
 609 0008 C0E90411 		strd	r1, r1, [r0, #16]
 610 000c C460     		str	r4, [r0, #12]
 611 000e C0E90A22 		strd	r2, r2, [r0, #40]
 612 0012 5DF8044B 		ldr	r4, [sp], #4
 613 0016 6FF00101 		mvn	r1, #1
 614 001a FFF7FEBF 		b	chThdDequeueAllI
 615              		.size	obqResetI, .-obqResetI
 616 001e 00BF     		.section	.text.obqGetFullBufferI,"ax",%progbits
 617              		.align	1
 618              		.p2align 4,,15
 619              		.global	obqGetFullBufferI
 620              		.syntax unified
 621              		.thumb
 622              		.thumb_func
 623              		.fpu fpv4-sp-d16
 624              		.type	obqGetFullBufferI, %function
 625              	obqGetFullBufferI:
 626              		@ args = 0, pretend = 0, frame = 0
 627              		@ frame_needed = 0, uses_anonymous_args = 0
ARM GAS  /tmp/ccQJQF6d.s 			page 12


 628              		@ link register save eliminated.
 629 0000 D0E90423 		ldrd	r2, r3, [r0, #16]
 630 0004 9A42     		cmp	r2, r3
 631 0006 04D0     		beq	.L88
 632              	.L83:
 633 0008 1846     		mov	r0, r3
 634 000a 50F8043B 		ldr	r3, [r0], #4
 635 000e 0B60     		str	r3, [r1]
 636 0010 7047     		bx	lr
 637              	.L88:
 638 0012 C268     		ldr	r2, [r0, #12]
 639 0014 002A     		cmp	r2, #0
 640 0016 F7D0     		beq	.L83
 641 0018 0020     		movs	r0, #0
 642 001a 7047     		bx	lr
 643              		.size	obqGetFullBufferI, .-obqGetFullBufferI
 644              		.section	.text.obqReleaseEmptyBufferI,"ax",%progbits
 645              		.align	1
 646              		.p2align 4,,15
 647              		.global	obqReleaseEmptyBufferI
 648              		.syntax unified
 649              		.thumb
 650              		.thumb_func
 651              		.fpu fpv4-sp-d16
 652              		.type	obqReleaseEmptyBufferI, %function
 653              	obqReleaseEmptyBufferI:
 654              		@ args = 0, pretend = 0, frame = 0
 655              		@ frame_needed = 0, uses_anonymous_args = 0
 656              		@ link register save eliminated.
 657 0000 D0E90531 		ldrd	r3, r1, [r0, #20]
 658 0004 10B4     		push	{r4}
 659 0006 C469     		ldr	r4, [r0, #28]
 660 0008 C268     		ldr	r2, [r0, #12]
 661 000a 2344     		add	r3, r3, r4
 662 000c 8B42     		cmp	r3, r1
 663 000e 4361     		str	r3, [r0, #20]
 664 0010 02F10102 		add	r2, r2, #1
 665 0014 28BF     		it	cs
 666 0016 436A     		ldrcs	r3, [r0, #36]
 667 0018 5DF8044B 		ldr	r4, [sp], #4
 668 001c C260     		str	r2, [r0, #12]
 669 001e 28BF     		it	cs
 670 0020 4361     		strcs	r3, [r0, #20]
 671 0022 0021     		movs	r1, #0
 672 0024 FFF7FEBF 		b	chThdDequeueNextI
 673              		.size	obqReleaseEmptyBufferI, .-obqReleaseEmptyBufferI
 674              		.section	.text.obqGetEmptyBufferTimeout,"ax",%progbits
 675              		.align	1
 676              		.p2align 4,,15
 677              		.global	obqGetEmptyBufferTimeout
 678              		.syntax unified
 679              		.thumb
 680              		.thumb_func
 681              		.fpu fpv4-sp-d16
 682              		.type	obqGetEmptyBufferTimeout, %function
 683              	obqGetEmptyBufferTimeout:
 684              		@ args = 0, pretend = 0, frame = 0
ARM GAS  /tmp/ccQJQF6d.s 			page 13


 685              		@ frame_needed = 0, uses_anonymous_args = 0
 686 0000 70B5     		push	{r4, r5, r6, lr}
 687 0002 3023     		movs	r3, #48
 688 0004 0546     		mov	r5, r0
 689 0006 0E46     		mov	r6, r1
 690              		.syntax unified
 691              	@ 493 "/home/argroos/paparazzi/sw/ext/chibios/os/common/ext/ARM/CMSIS/Core/Include/cmsis_gcc.h" 1
 692 0008 83F31188 		MSR basepri, r3
 693              	@ 0 "" 2
 694              		.thumb
 695              		.syntax unified
 696 000c FFF7FEFF 		bl	__stats_start_measure_crit_thd
 697 0010 05E0     		b	.L93
 698              	.L95:
 699 0012 2B7A     		ldrb	r3, [r5, #8]	@ zero_extendqisi2
 700 0014 B3B9     		cbnz	r3, .L96
 701 0016 FFF7FEFF 		bl	chThdEnqueueTimeoutS
 702 001a 041E     		subs	r4, r0, #0
 703 001c 0BDB     		blt	.L94
 704              	.L93:
 705 001e EB68     		ldr	r3, [r5, #12]
 706 0020 3146     		mov	r1, r6
 707 0022 2846     		mov	r0, r5
 708 0024 002B     		cmp	r3, #0
 709 0026 F4D0     		beq	.L95
 710 0028 2B69     		ldr	r3, [r5, #16]
 711 002a E969     		ldr	r1, [r5, #28]
 712 002c 1A1D     		adds	r2, r3, #4
 713 002e 0B44     		add	r3, r3, r1
 714 0030 C5E90A23 		strd	r2, r3, [r5, #40]
 715 0034 0024     		movs	r4, #0
 716              	.L94:
 717 0036 FFF7FEFF 		bl	__stats_stop_measure_crit_thd
 718 003a 0023     		movs	r3, #0
 719              		.syntax unified
 720              	@ 493 "/home/argroos/paparazzi/sw/ext/chibios/os/common/ext/ARM/CMSIS/Core/Include/cmsis_gcc.h" 1
 721 003c 83F31188 		MSR basepri, r3
 722              	@ 0 "" 2
 723              		.thumb
 724              		.syntax unified
 725 0040 2046     		mov	r0, r4
 726 0042 70BD     		pop	{r4, r5, r6, pc}
 727              	.L96:
 728 0044 FFF7FEFF 		bl	__stats_stop_measure_crit_thd
 729 0048 6FF00104 		mvn	r4, #1
 730 004c 0023     		movs	r3, #0
 731              		.syntax unified
 732              	@ 493 "/home/argroos/paparazzi/sw/ext/chibios/os/common/ext/ARM/CMSIS/Core/Include/cmsis_gcc.h" 1
 733 004e 83F31188 		MSR basepri, r3
 734              	@ 0 "" 2
 735              		.thumb
 736              		.syntax unified
 737 0052 2046     		mov	r0, r4
 738 0054 70BD     		pop	{r4, r5, r6, pc}
 739              		.size	obqGetEmptyBufferTimeout, .-obqGetEmptyBufferTimeout
 740 0056 00BF     		.section	.text.obqGetEmptyBufferTimeoutS,"ax",%progbits
 741              		.align	1
ARM GAS  /tmp/ccQJQF6d.s 			page 14


 742              		.p2align 4,,15
 743              		.global	obqGetEmptyBufferTimeoutS
 744              		.syntax unified
 745              		.thumb
 746              		.thumb_func
 747              		.fpu fpv4-sp-d16
 748              		.type	obqGetEmptyBufferTimeoutS, %function
 749              	obqGetEmptyBufferTimeoutS:
 750              		@ args = 0, pretend = 0, frame = 0
 751              		@ frame_needed = 0, uses_anonymous_args = 0
 752 0000 38B5     		push	{r3, r4, r5, lr}
 753 0002 0446     		mov	r4, r0
 754 0004 0D46     		mov	r5, r1
 755 0006 05E0     		b	.L99
 756              	.L101:
 757 0008 237A     		ldrb	r3, [r4, #8]	@ zero_extendqisi2
 758 000a 83B9     		cbnz	r3, .L102
 759 000c FFF7FEFF 		bl	chThdEnqueueTimeoutS
 760 0010 0028     		cmp	r0, #0
 761 0012 0BDB     		blt	.L98
 762              	.L99:
 763 0014 E368     		ldr	r3, [r4, #12]
 764 0016 2946     		mov	r1, r5
 765 0018 2046     		mov	r0, r4
 766 001a 002B     		cmp	r3, #0
 767 001c F4D0     		beq	.L101
 768 001e 2369     		ldr	r3, [r4, #16]
 769 0020 E169     		ldr	r1, [r4, #28]
 770 0022 1A1D     		adds	r2, r3, #4
 771 0024 0B44     		add	r3, r3, r1
 772 0026 C4E90A23 		strd	r2, r3, [r4, #40]
 773 002a 0020     		movs	r0, #0
 774              	.L98:
 775 002c 38BD     		pop	{r3, r4, r5, pc}
 776              	.L102:
 777 002e 6FF00100 		mvn	r0, #1
 778 0032 38BD     		pop	{r3, r4, r5, pc}
 779              		.size	obqGetEmptyBufferTimeoutS, .-obqGetEmptyBufferTimeoutS
 780              		.section	.text.obqPostFullBuffer,"ax",%progbits
 781              		.align	1
 782              		.p2align 4,,15
 783              		.global	obqPostFullBuffer
 784              		.syntax unified
 785              		.thumb
 786              		.thumb_func
 787              		.fpu fpv4-sp-d16
 788              		.type	obqPostFullBuffer, %function
 789              	obqPostFullBuffer:
 790              		@ args = 0, pretend = 0, frame = 0
 791              		@ frame_needed = 0, uses_anonymous_args = 0
 792 0000 38B5     		push	{r3, r4, r5, lr}
 793 0002 0446     		mov	r4, r0
 794 0004 0D46     		mov	r5, r1
 795 0006 3023     		movs	r3, #48
 796              		.syntax unified
 797              	@ 493 "/home/argroos/paparazzi/sw/ext/chibios/os/common/ext/ARM/CMSIS/Core/Include/cmsis_gcc.h" 1
 798 0008 83F31188 		MSR basepri, r3
ARM GAS  /tmp/ccQJQF6d.s 			page 15


 799              	@ 0 "" 2
 800              		.thumb
 801              		.syntax unified
 802 000c FFF7FEFF 		bl	__stats_start_measure_crit_thd
 803 0010 2369     		ldr	r3, [r4, #16]
 804 0012 A169     		ldr	r1, [r4, #24]
 805 0014 1D60     		str	r5, [r3]
 806 0016 E069     		ldr	r0, [r4, #28]
 807 0018 E268     		ldr	r2, [r4, #12]
 808 001a 0344     		add	r3, r3, r0
 809 001c 8B42     		cmp	r3, r1
 810 001e 2361     		str	r3, [r4, #16]
 811 0020 24BF     		itt	cs
 812 0022 636A     		ldrcs	r3, [r4, #36]
 813 0024 2361     		strcs	r3, [r4, #16]
 814 0026 013A     		subs	r2, r2, #1
 815 0028 236B     		ldr	r3, [r4, #48]
 816 002a E260     		str	r2, [r4, #12]
 817 002c 0022     		movs	r2, #0
 818 002e A262     		str	r2, [r4, #40]
 819 0030 0BB1     		cbz	r3, .L106
 820 0032 2046     		mov	r0, r4
 821 0034 9847     		blx	r3
 822              	.L106:
 823 0036 FFF7FEFF 		bl	__stats_stop_measure_crit_thd
 824 003a 0023     		movs	r3, #0
 825              		.syntax unified
 826              	@ 493 "/home/argroos/paparazzi/sw/ext/chibios/os/common/ext/ARM/CMSIS/Core/Include/cmsis_gcc.h" 1
 827 003c 83F31188 		MSR basepri, r3
 828              	@ 0 "" 2
 829              		.thumb
 830              		.syntax unified
 831 0040 38BD     		pop	{r3, r4, r5, pc}
 832              		.size	obqPostFullBuffer, .-obqPostFullBuffer
 833 0042 00BF     		.section	.text.obqPostFullBufferS,"ax",%progbits
 834              		.align	1
 835              		.p2align 4,,15
 836              		.global	obqPostFullBufferS
 837              		.syntax unified
 838              		.thumb
 839              		.thumb_func
 840              		.fpu fpv4-sp-d16
 841              		.type	obqPostFullBufferS, %function
 842              	obqPostFullBufferS:
 843              		@ args = 0, pretend = 0, frame = 0
 844              		@ frame_needed = 0, uses_anonymous_args = 0
 845              		@ link register save eliminated.
 846 0000 0369     		ldr	r3, [r0, #16]
 847 0002 10B4     		push	{r4}
 848 0004 8469     		ldr	r4, [r0, #24]
 849 0006 1960     		str	r1, [r3]
 850 0008 C169     		ldr	r1, [r0, #28]
 851 000a C268     		ldr	r2, [r0, #12]
 852 000c 0B44     		add	r3, r3, r1
 853 000e A342     		cmp	r3, r4
 854 0010 0361     		str	r3, [r0, #16]
 855 0012 24BF     		itt	cs
ARM GAS  /tmp/ccQJQF6d.s 			page 16


 856 0014 436A     		ldrcs	r3, [r0, #36]
 857 0016 0361     		strcs	r3, [r0, #16]
 858 0018 013A     		subs	r2, r2, #1
 859 001a 036B     		ldr	r3, [r0, #48]
 860 001c C260     		str	r2, [r0, #12]
 861 001e 0022     		movs	r2, #0
 862 0020 8262     		str	r2, [r0, #40]
 863 0022 13B1     		cbz	r3, .L111
 864 0024 5DF8044B 		ldr	r4, [sp], #4
 865 0028 1847     		bx	r3	@ indirect register sibling call
 866              	.L111:
 867 002a 5DF8044B 		ldr	r4, [sp], #4
 868 002e 7047     		bx	lr
 869              		.size	obqPostFullBufferS, .-obqPostFullBufferS
 870              		.section	.text.obqPutTimeout,"ax",%progbits
 871              		.align	1
 872              		.p2align 4,,15
 873              		.global	obqPutTimeout
 874              		.syntax unified
 875              		.thumb
 876              		.thumb_func
 877              		.fpu fpv4-sp-d16
 878              		.type	obqPutTimeout, %function
 879              	obqPutTimeout:
 880              		@ args = 0, pretend = 0, frame = 8
 881              		@ frame_needed = 0, uses_anonymous_args = 0
 882 0000 70B5     		push	{r4, r5, r6, lr}
 883 0002 3023     		movs	r3, #48
 884 0004 82B0     		sub	sp, sp, #8
 885 0006 0446     		mov	r4, r0
 886 0008 0E46     		mov	r6, r1
 887 000a 1546     		mov	r5, r2
 888              		.syntax unified
 889              	@ 493 "/home/argroos/paparazzi/sw/ext/chibios/os/common/ext/ARM/CMSIS/Core/Include/cmsis_gcc.h" 1
 890 000c 83F31188 		MSR basepri, r3
 891              	@ 0 "" 2
 892              		.thumb
 893              		.syntax unified
 894 0010 FFF7FEFF 		bl	__stats_start_measure_crit_thd
 895 0014 A36A     		ldr	r3, [r4, #40]
 896 0016 9BB1     		cbz	r3, .L116
 897              	.L117:
 898 0018 1E70     		strb	r6, [r3]
 899 001a D4E90A32 		ldrd	r3, r2, [r4, #40]
 900 001e 0133     		adds	r3, r3, #1
 901 0020 9342     		cmp	r3, r2
 902 0022 A362     		str	r3, [r4, #40]
 903 0024 18D2     		bcs	.L132
 904              	.L121:
 905 0026 FFF7FEFF 		bl	__stats_stop_measure_crit_thd
 906 002a 0020     		movs	r0, #0
 907              		.syntax unified
 908              	@ 493 "/home/argroos/paparazzi/sw/ext/chibios/os/common/ext/ARM/CMSIS/Core/Include/cmsis_gcc.h" 1
 909 002c 80F31188 		MSR basepri, r0
 910              	@ 0 "" 2
 911              		.thumb
 912              		.syntax unified
ARM GAS  /tmp/ccQJQF6d.s 			page 17


 913              	.L115:
 914 0030 02B0     		add	sp, sp, #8
 915              		@ sp needed
 916 0032 70BD     		pop	{r4, r5, r6, pc}
 917              	.L119:
 918 0034 237A     		ldrb	r3, [r4, #8]	@ zero_extendqisi2
 919 0036 33BB     		cbnz	r3, .L125
 920 0038 FFF7FEFF 		bl	chThdEnqueueTimeoutS
 921 003c 0028     		cmp	r0, #0
 922 003e 24DB     		blt	.L118
 923              	.L116:
 924 0040 E368     		ldr	r3, [r4, #12]
 925 0042 2946     		mov	r1, r5
 926 0044 2046     		mov	r0, r4
 927 0046 002B     		cmp	r3, #0
 928 0048 F4D0     		beq	.L119
 929 004a 2269     		ldr	r2, [r4, #16]
 930 004c E169     		ldr	r1, [r4, #28]
 931 004e 131D     		adds	r3, r2, #4
 932 0050 0A44     		add	r2, r2, r1
 933 0052 C4E90A32 		strd	r3, r2, [r4, #40]
 934 0056 DFE7     		b	.L117
 935              	.L132:
 936 0058 E269     		ldr	r2, [r4, #28]
 937 005a 2369     		ldr	r3, [r4, #16]
 938 005c 043A     		subs	r2, r2, #4
 939 005e 1A60     		str	r2, [r3]
 940 0060 D4E90610 		ldrd	r1, r0, [r4, #24]
 941 0064 0344     		add	r3, r3, r0
 942 0066 8B42     		cmp	r3, r1
 943 0068 E268     		ldr	r2, [r4, #12]
 944 006a 2361     		str	r3, [r4, #16]
 945 006c 24BF     		itt	cs
 946 006e 636A     		ldrcs	r3, [r4, #36]
 947 0070 2361     		strcs	r3, [r4, #16]
 948 0072 013A     		subs	r2, r2, #1
 949 0074 236B     		ldr	r3, [r4, #48]
 950 0076 E260     		str	r2, [r4, #12]
 951 0078 0022     		movs	r2, #0
 952 007a A262     		str	r2, [r4, #40]
 953 007c 002B     		cmp	r3, #0
 954 007e D2D0     		beq	.L121
 955 0080 2046     		mov	r0, r4
 956 0082 9847     		blx	r3
 957 0084 CFE7     		b	.L121
 958              	.L125:
 959 0086 6FF00100 		mvn	r0, #1
 960              	.L118:
 961 008a 0190     		str	r0, [sp, #4]
 962 008c FFF7FEFF 		bl	__stats_stop_measure_crit_thd
 963 0090 0023     		movs	r3, #0
 964              		.syntax unified
 965              	@ 493 "/home/argroos/paparazzi/sw/ext/chibios/os/common/ext/ARM/CMSIS/Core/Include/cmsis_gcc.h" 1
 966 0092 83F31188 		MSR basepri, r3
 967              	@ 0 "" 2
 968              		.thumb
 969              		.syntax unified
ARM GAS  /tmp/ccQJQF6d.s 			page 18


 970 0096 0198     		ldr	r0, [sp, #4]
 971 0098 CAE7     		b	.L115
 972              		.size	obqPutTimeout, .-obqPutTimeout
 973 009a 00BF     		.section	.text.obqWriteTimeout,"ax",%progbits
 974              		.align	1
 975              		.p2align 4,,15
 976              		.global	obqWriteTimeout
 977              		.syntax unified
 978              		.thumb
 979              		.thumb_func
 980              		.fpu fpv4-sp-d16
 981              		.type	obqWriteTimeout, %function
 982              	obqWriteTimeout:
 983              		@ args = 0, pretend = 0, frame = 0
 984              		@ frame_needed = 0, uses_anonymous_args = 0
 985 0000 2DE9F84F 		push	{r3, r4, r5, r6, r7, r8, r9, r10, fp, lr}
 986 0004 8146     		mov	r9, r0
 987 0006 8A46     		mov	r10, r1
 988 0008 1546     		mov	r5, r2
 989 000a 1E46     		mov	r6, r3
 990 000c 4FF03008 		mov	r8, #48
 991              		.syntax unified
 992              	@ 493 "/home/argroos/paparazzi/sw/ext/chibios/os/common/ext/ARM/CMSIS/Core/Include/cmsis_gcc.h" 1
 993 0010 88F31188 		MSR basepri, r8
 994              	@ 0 "" 2
 995              		.thumb
 996              		.syntax unified
 997 0014 FFF7FEFF 		bl	__stats_start_measure_crit_thd
 998 0018 0024     		movs	r4, #0
 999 001a 2746     		mov	r7, r4
 1000              	.L146:
 1001 001c D9F82800 		ldr	r0, [r9, #40]
 1002 0020 E8B3     		cbz	r0, .L134
 1003 0022 D9F82C20 		ldr	r2, [r9, #44]
 1004              	.L135:
 1005 0026 A5EB040B 		sub	fp, r5, r4
 1006 002a 121A     		subs	r2, r2, r0
 1007 002c 9345     		cmp	fp, r2
 1008 002e 28BF     		it	cs
 1009 0030 9346     		movcs	fp, r2
 1010 0032 BBF1400F 		cmp	fp, #64
 1011 0036 5146     		mov	r1, r10
 1012 0038 40D9     		bls	.L138
 1013 003a 0AF1400A 		add	r10, r10, #64
 1014              	.L139:
 1015 003e D1F800E0 		ldr	lr, [r1]	@ unaligned
 1016 0042 D1F804C0 		ldr	ip, [r1, #4]	@ unaligned
 1017 0046 8A68     		ldr	r2, [r1, #8]	@ unaligned
 1018 0048 CB68     		ldr	r3, [r1, #12]	@ unaligned
 1019 004a C360     		str	r3, [r0, #12]	@ unaligned
 1020 004c 1031     		adds	r1, r1, #16
 1021 004e 5145     		cmp	r1, r10
 1022 0050 C0F800E0 		str	lr, [r0]	@ unaligned
 1023 0054 C0F804C0 		str	ip, [r0, #4]	@ unaligned
 1024 0058 8260     		str	r2, [r0, #8]	@ unaligned
 1025 005a 00F11000 		add	r0, r0, #16
 1026 005e EED1     		bne	.L139
ARM GAS  /tmp/ccQJQF6d.s 			page 19


 1027 0060 D9F82830 		ldr	r3, [r9, #40]
 1028 0064 D9F82C20 		ldr	r2, [r9, #44]
 1029 0068 4033     		adds	r3, r3, #64
 1030 006a 9A42     		cmp	r2, r3
 1031 006c 8A46     		mov	r10, r1
 1032 006e C9F82830 		str	r3, [r9, #40]
 1033 0072 04F14004 		add	r4, r4, #64
 1034 0076 2FD9     		bls	.L154
 1035              	.L142:
 1036 0078 FFF7FEFF 		bl	__stats_stop_measure_crit_thd
 1037              		.syntax unified
 1038              	@ 493 "/home/argroos/paparazzi/sw/ext/chibios/os/common/ext/ARM/CMSIS/Core/Include/cmsis_gcc.h" 1
 1039 007c 87F31188 		MSR basepri, r7
 1040              	@ 0 "" 2
 1041              		.thumb
 1042              		.syntax unified
 1043 0080 AC42     		cmp	r4, r5
 1044 0082 4DD2     		bcs	.L133
 1045              		.syntax unified
 1046              	@ 493 "/home/argroos/paparazzi/sw/ext/chibios/os/common/ext/ARM/CMSIS/Core/Include/cmsis_gcc.h" 1
 1047 0084 88F31188 		MSR basepri, r8
 1048              	@ 0 "" 2
 1049              		.thumb
 1050              		.syntax unified
 1051 0088 FFF7FEFF 		bl	__stats_start_measure_crit_thd
 1052 008c C6E7     		b	.L146
 1053              	.L137:
 1054 008e 99F80830 		ldrb	r3, [r9, #8]	@ zero_extendqisi2
 1055 0092 002B     		cmp	r3, #0
 1056 0094 3FD1     		bne	.L136
 1057 0096 FFF7FEFF 		bl	chThdEnqueueTimeoutS
 1058 009a 0028     		cmp	r0, #0
 1059 009c 3BDB     		blt	.L136
 1060              	.L134:
 1061 009e D9F80C30 		ldr	r3, [r9, #12]
 1062 00a2 3146     		mov	r1, r6
 1063 00a4 4846     		mov	r0, r9
 1064 00a6 002B     		cmp	r3, #0
 1065 00a8 F1D0     		beq	.L137
 1066 00aa D9F81000 		ldr	r0, [r9, #16]
 1067 00ae D9F81C20 		ldr	r2, [r9, #28]
 1068 00b2 0244     		add	r2, r2, r0
 1069 00b4 0430     		adds	r0, r0, #4
 1070 00b6 C9E90A02 		strd	r0, r2, [r9, #40]
 1071 00ba B4E7     		b	.L135
 1072              	.L138:
 1073 00bc 5A46     		mov	r2, fp
 1074 00be FFF7FEFF 		bl	memcpy
 1075 00c2 D9F82830 		ldr	r3, [r9, #40]
 1076 00c6 D9F82C20 		ldr	r2, [r9, #44]
 1077 00ca 5B44     		add	r3, r3, fp
 1078 00cc 9A42     		cmp	r2, r3
 1079 00ce DA44     		add	r10, r10, fp
 1080 00d0 C9F82830 		str	r3, [r9, #40]
 1081 00d4 5C44     		add	r4, r4, fp
 1082 00d6 CFD8     		bhi	.L142
 1083              	.L154:
ARM GAS  /tmp/ccQJQF6d.s 			page 20


 1084 00d8 D9F81C20 		ldr	r2, [r9, #28]
 1085 00dc D9F81030 		ldr	r3, [r9, #16]
 1086 00e0 043A     		subs	r2, r2, #4
 1087 00e2 1A60     		str	r2, [r3]
 1088 00e4 D9E90621 		ldrd	r2, r1, [r9, #24]
 1089 00e8 0B44     		add	r3, r3, r1
 1090 00ea 9342     		cmp	r3, r2
 1091 00ec C9F81030 		str	r3, [r9, #16]
 1092 00f0 D9F80C00 		ldr	r0, [r9, #12]
 1093 00f4 24BF     		itt	cs
 1094 00f6 D9F82430 		ldrcs	r3, [r9, #36]
 1095 00fa C9F81030 		strcs	r3, [r9, #16]
 1096 00fe D9F83030 		ldr	r3, [r9, #48]
 1097 0102 C9F82870 		str	r7, [r9, #40]
 1098 0106 0138     		subs	r0, r0, #1
 1099 0108 C9F80C00 		str	r0, [r9, #12]
 1100 010c 002B     		cmp	r3, #0
 1101 010e B3D0     		beq	.L142
 1102 0110 4846     		mov	r0, r9
 1103 0112 9847     		blx	r3
 1104 0114 B0E7     		b	.L142
 1105              	.L136:
 1106 0116 FFF7FEFF 		bl	__stats_stop_measure_crit_thd
 1107 011a 0023     		movs	r3, #0
 1108              		.syntax unified
 1109              	@ 493 "/home/argroos/paparazzi/sw/ext/chibios/os/common/ext/ARM/CMSIS/Core/Include/cmsis_gcc.h" 1
 1110 011c 83F31188 		MSR basepri, r3
 1111              	@ 0 "" 2
 1112              		.thumb
 1113              		.syntax unified
 1114              	.L133:
 1115 0120 2046     		mov	r0, r4
 1116 0122 BDE8F88F 		pop	{r3, r4, r5, r6, r7, r8, r9, r10, fp, pc}
 1117              		.size	obqWriteTimeout, .-obqWriteTimeout
 1118 0126 00BF     		.section	.text.obqTryFlushI,"ax",%progbits
 1119              		.align	1
 1120              		.p2align 4,,15
 1121              		.global	obqTryFlushI
 1122              		.syntax unified
 1123              		.thumb
 1124              		.thumb_func
 1125              		.fpu fpv4-sp-d16
 1126              		.type	obqTryFlushI, %function
 1127              	obqTryFlushI:
 1128              		@ args = 0, pretend = 0, frame = 0
 1129              		@ frame_needed = 0, uses_anonymous_args = 0
 1130              		@ link register save eliminated.
 1131 0000 D0E90423 		ldrd	r2, r3, [r0, #16]
 1132 0004 9A42     		cmp	r2, r3
 1133 0006 01D0     		beq	.L168
 1134              	.L160:
 1135 0008 0020     		movs	r0, #0
 1136 000a 7047     		bx	lr
 1137              	.L168:
 1138 000c C368     		ldr	r3, [r0, #12]
 1139 000e 002B     		cmp	r3, #0
 1140 0010 FAD0     		beq	.L160
ARM GAS  /tmp/ccQJQF6d.s 			page 21


 1141 0012 836A     		ldr	r3, [r0, #40]
 1142 0014 002B     		cmp	r3, #0
 1143 0016 F7D0     		beq	.L160
 1144 0018 043B     		subs	r3, r3, #4
 1145 001a 9B1A     		subs	r3, r3, r2
 1146 001c F4D0     		beq	.L160
 1147 001e 10B4     		push	{r4}
 1148 0020 1360     		str	r3, [r2]
 1149 0022 C469     		ldr	r4, [r0, #28]
 1150 0024 C368     		ldr	r3, [r0, #12]
 1151 0026 8169     		ldr	r1, [r0, #24]
 1152 0028 2244     		add	r2, r2, r4
 1153 002a 013B     		subs	r3, r3, #1
 1154 002c 8A42     		cmp	r2, r1
 1155 002e C360     		str	r3, [r0, #12]
 1156 0030 28BF     		it	cs
 1157 0032 436A     		ldrcs	r3, [r0, #36]
 1158 0034 0261     		str	r2, [r0, #16]
 1159 0036 28BF     		it	cs
 1160 0038 0361     		strcs	r3, [r0, #16]
 1161 003a 0023     		movs	r3, #0
 1162 003c 8362     		str	r3, [r0, #40]
 1163 003e 5DF8044B 		ldr	r4, [sp], #4
 1164 0042 0120     		movs	r0, #1
 1165 0044 7047     		bx	lr
 1166              		.size	obqTryFlushI, .-obqTryFlushI
 1167 0046 00BF     		.section	.text.obqFlush,"ax",%progbits
 1168              		.align	1
 1169              		.p2align 4,,15
 1170              		.global	obqFlush
 1171              		.syntax unified
 1172              		.thumb
 1173              		.thumb_func
 1174              		.fpu fpv4-sp-d16
 1175              		.type	obqFlush, %function
 1176              	obqFlush:
 1177              		@ args = 0, pretend = 0, frame = 0
 1178              		@ frame_needed = 0, uses_anonymous_args = 0
 1179 0000 10B5     		push	{r4, lr}
 1180 0002 3023     		movs	r3, #48
 1181 0004 0446     		mov	r4, r0
 1182              		.syntax unified
 1183              	@ 493 "/home/argroos/paparazzi/sw/ext/chibios/os/common/ext/ARM/CMSIS/Core/Include/cmsis_gcc.h" 1
 1184 0006 83F31188 		MSR basepri, r3
 1185              	@ 0 "" 2
 1186              		.thumb
 1187              		.syntax unified
 1188 000a FFF7FEFF 		bl	__stats_start_measure_crit_thd
 1189 000e A36A     		ldr	r3, [r4, #40]
 1190 0010 1BB1     		cbz	r3, .L171
 1191 0012 2269     		ldr	r2, [r4, #16]
 1192 0014 043B     		subs	r3, r3, #4
 1193 0016 9B1A     		subs	r3, r3, r2
 1194 0018 05D1     		bne	.L181
 1195              	.L171:
 1196 001a FFF7FEFF 		bl	__stats_stop_measure_crit_thd
 1197 001e 0023     		movs	r3, #0
ARM GAS  /tmp/ccQJQF6d.s 			page 22


 1198              		.syntax unified
 1199              	@ 493 "/home/argroos/paparazzi/sw/ext/chibios/os/common/ext/ARM/CMSIS/Core/Include/cmsis_gcc.h" 1
 1200 0020 83F31188 		MSR basepri, r3
 1201              	@ 0 "" 2
 1202              		.thumb
 1203              		.syntax unified
 1204 0024 10BD     		pop	{r4, pc}
 1205              	.L181:
 1206 0026 1360     		str	r3, [r2]
 1207 0028 D4E90610 		ldrd	r1, r0, [r4, #24]
 1208 002c E368     		ldr	r3, [r4, #12]
 1209 002e 0244     		add	r2, r2, r0
 1210 0030 013B     		subs	r3, r3, #1
 1211 0032 8A42     		cmp	r2, r1
 1212 0034 E360     		str	r3, [r4, #12]
 1213 0036 28BF     		it	cs
 1214 0038 636A     		ldrcs	r3, [r4, #36]
 1215 003a 2261     		str	r2, [r4, #16]
 1216 003c 28BF     		it	cs
 1217 003e 2361     		strcs	r3, [r4, #16]
 1218 0040 236B     		ldr	r3, [r4, #48]
 1219 0042 0022     		movs	r2, #0
 1220 0044 A262     		str	r2, [r4, #40]
 1221 0046 002B     		cmp	r3, #0
 1222 0048 E7D0     		beq	.L171
 1223 004a 2046     		mov	r0, r4
 1224 004c 9847     		blx	r3
 1225 004e FFF7FEFF 		bl	__stats_stop_measure_crit_thd
 1226 0052 0023     		movs	r3, #0
 1227              		.syntax unified
 1228              	@ 493 "/home/argroos/paparazzi/sw/ext/chibios/os/common/ext/ARM/CMSIS/Core/Include/cmsis_gcc.h" 1
 1229 0054 83F31188 		MSR basepri, r3
 1230              	@ 0 "" 2
 1231              		.thumb
 1232              		.syntax unified
 1233 0058 10BD     		pop	{r4, pc}
 1234              		.size	obqFlush, .-obqFlush
 1235 005a 00BF     		.ident	"GCC: (15:10.3-2021.07-4) 10.3.1 20210621 (release)"
ARM GAS  /tmp/ccQJQF6d.s 			page 23

