ARM GAS  /tmp/ccB6RKBr.s 			page 1


   1              		.cpu cortex-m4
   2              		.eabi_attribute 27, 1
   3              		.eabi_attribute 20, 1
   4              		.eabi_attribute 21, 1
   5              		.eabi_attribute 23, 3
   6              		.eabi_attribute 24, 1
   7              		.eabi_attribute 25, 1
   8              		.eabi_attribute 26, 1
   9              		.eabi_attribute 30, 2
  10              		.eabi_attribute 34, 1
  11              		.eabi_attribute 18, 4
  12              		.file	"hal_flash.c"
  13              		.text
  14              		.global	__aeabi_uldivmod
  15              		.global	__aeabi_ldivmod
  16              		.section	.text.flashWaitErase,"ax",%progbits
  17              		.align	1
  18              		.p2align 4,,15
  19              		.global	flashWaitErase
  20              		.arch armv7e-m
  21              		.syntax unified
  22              		.thumb
  23              		.thumb_func
  24              		.fpu fpv4-sp-d16
  25              		.type	flashWaitErase, %function
  26              	flashWaitErase:
  27              		@ args = 0, pretend = 0, frame = 8
  28              		@ frame_needed = 0, uses_anonymous_args = 0
  29 0000 F0B5     		push	{r4, r5, r6, r7, lr}
  30 0002 0446     		mov	r4, r0
  31 0004 83B0     		sub	sp, sp, #12
  32 0006 42F21076 		movw	r6, #10000
  33 000a 40F2E735 		movw	r5, #999
  34 000e 0027     		movs	r7, #0
  35 0010 09E0     		b	.L3
  36              	.L7:
  37 0012 0199     		ldr	r1, [sp, #4]
  38 0014 2846     		mov	r0, r5
  39 0016 BC46     		mov	ip, r7
  40 0018 E1FB060C 		umlal	r0, ip, r1, r6
  41 001c 6146     		mov	r1, ip
  42 001e FFF7FEFF 		bl	__aeabi_uldivmod
  43 0022 FFF7FEFF 		bl	chThdSleep
  44              	.L3:
  45 0026 2368     		ldr	r3, [r4]
  46 0028 01A9     		add	r1, sp, #4
  47 002a 9B69     		ldr	r3, [r3, #24]
  48 002c 2046     		mov	r0, r4
  49 002e 9847     		blx	r3
  50 0030 0128     		cmp	r0, #1
  51 0032 4FF47A72 		mov	r2, #1000
  52 0036 4FF00003 		mov	r3, #0
  53 003a EAD0     		beq	.L7
  54 003c 03B0     		add	sp, sp, #12
  55              		@ sp needed
  56 003e F0BD     		pop	{r4, r5, r6, r7, pc}
  57              		.size	flashWaitErase, .-flashWaitErase
ARM GAS  /tmp/ccB6RKBr.s 			page 2


  58              		.section	.text.flashGetSectorOffset,"ax",%progbits
  59              		.align	1
  60              		.p2align 4,,15
  61              		.global	flashGetSectorOffset
  62              		.syntax unified
  63              		.thumb
  64              		.thumb_func
  65              		.fpu fpv4-sp-d16
  66              		.type	flashGetSectorOffset, %function
  67              	flashGetSectorOffset:
  68              		@ args = 0, pretend = 0, frame = 0
  69              		@ frame_needed = 0, uses_anonymous_args = 0
  70 0000 0368     		ldr	r3, [r0]
  71 0002 10B5     		push	{r4, lr}
  72 0004 5B68     		ldr	r3, [r3, #4]
  73 0006 0C46     		mov	r4, r1
  74 0008 9847     		blx	r3
  75 000a C368     		ldr	r3, [r0, #12]
  76 000c 13B1     		cbz	r3, .L9
  77 000e 53F83400 		ldr	r0, [r3, r4, lsl #3]
  78 0012 10BD     		pop	{r4, pc}
  79              	.L9:
  80 0014 0069     		ldr	r0, [r0, #16]
  81 0016 04FB00F0 		mul	r0, r4, r0
  82 001a 10BD     		pop	{r4, pc}
  83              		.size	flashGetSectorOffset, .-flashGetSectorOffset
  84              		.section	.text.flashGetSectorSize,"ax",%progbits
  85              		.align	1
  86              		.p2align 4,,15
  87              		.global	flashGetSectorSize
  88              		.syntax unified
  89              		.thumb
  90              		.thumb_func
  91              		.fpu fpv4-sp-d16
  92              		.type	flashGetSectorSize, %function
  93              	flashGetSectorSize:
  94              		@ args = 0, pretend = 0, frame = 0
  95              		@ frame_needed = 0, uses_anonymous_args = 0
  96 0000 0368     		ldr	r3, [r0]
  97 0002 10B5     		push	{r4, lr}
  98 0004 5B68     		ldr	r3, [r3, #4]
  99 0006 0C46     		mov	r4, r1
 100 0008 9847     		blx	r3
 101 000a C368     		ldr	r3, [r0, #12]
 102 000c 1BB1     		cbz	r3, .L13
 103 000e 03EBC403 		add	r3, r3, r4, lsl #3
 104 0012 5868     		ldr	r0, [r3, #4]
 105 0014 10BD     		pop	{r4, pc}
 106              	.L13:
 107 0016 0069     		ldr	r0, [r0, #16]
 108 0018 10BD     		pop	{r4, pc}
 109              		.size	flashGetSectorSize, .-flashGetSectorSize
 110 001a 00BF     		.section	.text.flashGetOffsetSector,"ax",%progbits
 111              		.align	1
 112              		.p2align 4,,15
 113              		.global	flashGetOffsetSector
 114              		.syntax unified
ARM GAS  /tmp/ccB6RKBr.s 			page 3


 115              		.thumb
 116              		.thumb_func
 117              		.fpu fpv4-sp-d16
 118              		.type	flashGetOffsetSector, %function
 119              	flashGetOffsetSector:
 120              		@ args = 0, pretend = 0, frame = 0
 121              		@ frame_needed = 0, uses_anonymous_args = 0
 122 0000 38B5     		push	{r3, r4, r5, lr}
 123 0002 0368     		ldr	r3, [r0]
 124 0004 5B68     		ldr	r3, [r3, #4]
 125 0006 0C46     		mov	r4, r1
 126 0008 9847     		blx	r3
 127 000a C168     		ldr	r1, [r0, #12]
 128 000c A1B1     		cbz	r1, .L17
 129 000e 8568     		ldr	r5, [r0, #8]
 130 0010 B5B1     		cbz	r5, .L21
 131 0012 0020     		movs	r0, #0
 132 0014 01F1040C 		add	ip, r1, #4
 133              	.L20:
 134 0018 51F83020 		ldr	r2, [r1, r0, lsl #3]
 135 001c 5CF83030 		ldr	r3, [ip, r0, lsl #3]
 136 0020 9442     		cmp	r4, r2
 137 0022 1344     		add	r3, r3, r2
 138 0024 03F1FF33 		add	r3, r3, #-1
 139 0028 01D3     		bcc	.L19
 140 002a 9C42     		cmp	r4, r3
 141 002c 03D9     		bls	.L16
 142              	.L19:
 143 002e 0130     		adds	r0, r0, #1
 144 0030 A842     		cmp	r0, r5
 145 0032 F1D1     		bne	.L20
 146 0034 0020     		movs	r0, #0
 147              	.L16:
 148 0036 38BD     		pop	{r3, r4, r5, pc}
 149              	.L17:
 150 0038 0069     		ldr	r0, [r0, #16]
 151 003a B4FBF0F0 		udiv	r0, r4, r0
 152 003e 38BD     		pop	{r3, r4, r5, pc}
 153              	.L21:
 154 0040 2846     		mov	r0, r5
 155 0042 38BD     		pop	{r3, r4, r5, pc}
 156              		.size	flashGetOffsetSector, .-flashGetOffsetSector
 157              		.section	.text.flashGetOffsetAddress,"ax",%progbits
 158              		.align	1
 159              		.p2align 4,,15
 160              		.global	flashGetOffsetAddress
 161              		.syntax unified
 162              		.thumb
 163              		.thumb_func
 164              		.fpu fpv4-sp-d16
 165              		.type	flashGetOffsetAddress, %function
 166              	flashGetOffsetAddress:
 167              		@ args = 0, pretend = 0, frame = 0
 168              		@ frame_needed = 0, uses_anonymous_args = 0
 169 0000 0368     		ldr	r3, [r0]
 170 0002 10B5     		push	{r4, lr}
 171 0004 5B68     		ldr	r3, [r3, #4]
ARM GAS  /tmp/ccB6RKBr.s 			page 4


 172 0006 0C46     		mov	r4, r1
 173 0008 9847     		blx	r3
 174 000a 4069     		ldr	r0, [r0, #20]
 175 000c 2044     		add	r0, r0, r4
 176 000e 10BD     		pop	{r4, pc}
 177              		.size	flashGetOffsetAddress, .-flashGetOffsetAddress
 178              		.section	.text.flashGetAddressOffset,"ax",%progbits
 179              		.align	1
 180              		.p2align 4,,15
 181              		.global	flashGetAddressOffset
 182              		.syntax unified
 183              		.thumb
 184              		.thumb_func
 185              		.fpu fpv4-sp-d16
 186              		.type	flashGetAddressOffset, %function
 187              	flashGetAddressOffset:
 188              		@ args = 0, pretend = 0, frame = 0
 189              		@ frame_needed = 0, uses_anonymous_args = 0
 190 0000 0368     		ldr	r3, [r0]
 191 0002 10B5     		push	{r4, lr}
 192 0004 5B68     		ldr	r3, [r3, #4]
 193 0006 0C46     		mov	r4, r1
 194 0008 9847     		blx	r3
 195 000a 4069     		ldr	r0, [r0, #20]
 196 000c 201A     		subs	r0, r4, r0
 197 000e 10BD     		pop	{r4, pc}
 198              		.size	flashGetAddressOffset, .-flashGetAddressOffset
 199              		.ident	"GCC: (15:10.3-2021.07-4) 10.3.1 20210621 (release)"
ARM GAS  /tmp/ccB6RKBr.s 			page 5

