ARM GAS  /tmp/cceQbz7w.s 			page 1


   1              		.cpu cortex-m4
   2              		.eabi_attribute 27, 1
   3              		.eabi_attribute 20, 1
   4              		.eabi_attribute 21, 1
   5              		.eabi_attribute 23, 3
   6              		.eabi_attribute 24, 1
   7              		.eabi_attribute 25, 1
   8              		.eabi_attribute 26, 1
   9              		.eabi_attribute 30, 2
  10              		.eabi_attribute 34, 1
  11              		.eabi_attribute 18, 4
  12              		.file	"hal_adc.c"
  13              		.text
  14              		.section	.text.adcInit,"ax",%progbits
  15              		.align	1
  16              		.p2align 4,,15
  17              		.global	adcInit
  18              		.arch armv7e-m
  19              		.syntax unified
  20              		.thumb
  21              		.thumb_func
  22              		.fpu fpv4-sp-d16
  23              		.type	adcInit, %function
  24              	adcInit:
  25              		@ args = 0, pretend = 0, frame = 0
  26              		@ frame_needed = 0, uses_anonymous_args = 0
  27              		@ link register save eliminated.
  28 0000 FFF7FEBF 		b	adc_lld_init
  29              		.size	adcInit, .-adcInit
  30              		.section	.text.adcObjectInit,"ax",%progbits
  31              		.align	1
  32              		.p2align 4,,15
  33              		.global	adcObjectInit
  34              		.syntax unified
  35              		.thumb
  36              		.thumb_func
  37              		.fpu fpv4-sp-d16
  38              		.type	adcObjectInit, %function
  39              	adcObjectInit:
  40              		@ args = 0, pretend = 0, frame = 0
  41              		@ frame_needed = 0, uses_anonymous_args = 0
  42              		@ link register save eliminated.
  43 0000 0023     		movs	r3, #0
  44 0002 0122     		movs	r2, #1
  45 0004 C0E90133 		strd	r3, r3, [r0, #4]
  46 0008 C0E90333 		strd	r3, r3, [r0, #12]
  47 000c 0270     		strb	r2, [r0]
  48 000e 4361     		str	r3, [r0, #20]
  49 0010 1830     		adds	r0, r0, #24
  50 0012 FFF7FEBF 		b	chMtxObjectInit
  51              		.size	adcObjectInit, .-adcObjectInit
  52 0016 00BF     		.section	.text.adcStart,"ax",%progbits
  53              		.align	1
  54              		.p2align 4,,15
  55              		.global	adcStart
  56              		.syntax unified
  57              		.thumb
ARM GAS  /tmp/cceQbz7w.s 			page 2


  58              		.thumb_func
  59              		.fpu fpv4-sp-d16
  60              		.type	adcStart, %function
  61              	adcStart:
  62              		@ args = 0, pretend = 0, frame = 0
  63              		@ frame_needed = 0, uses_anonymous_args = 0
  64 0000 38B5     		push	{r3, r4, r5, lr}
  65 0002 0446     		mov	r4, r0
  66 0004 0D46     		mov	r5, r1
  67 0006 3023     		movs	r3, #48
  68              		.syntax unified
  69              	@ 493 "/home/argroos/paparazzi/sw/ext/chibios/os/common/ext/ARM/CMSIS/Core/Include/cmsis_gcc.h" 1
  70 0008 83F31188 		MSR basepri, r3
  71              	@ 0 "" 2
  72              		.thumb
  73              		.syntax unified
  74 000c FFF7FEFF 		bl	__stats_start_measure_crit_thd
  75 0010 2046     		mov	r0, r4
  76 0012 6560     		str	r5, [r4, #4]
  77 0014 FFF7FEFF 		bl	adc_lld_start
  78 0018 0223     		movs	r3, #2
  79 001a 2370     		strb	r3, [r4]
  80 001c FFF7FEFF 		bl	__stats_stop_measure_crit_thd
  81 0020 0020     		movs	r0, #0
  82              		.syntax unified
  83              	@ 493 "/home/argroos/paparazzi/sw/ext/chibios/os/common/ext/ARM/CMSIS/Core/Include/cmsis_gcc.h" 1
  84 0022 80F31188 		MSR basepri, r0
  85              	@ 0 "" 2
  86              		.thumb
  87              		.syntax unified
  88 0026 38BD     		pop	{r3, r4, r5, pc}
  89              		.size	adcStart, .-adcStart
  90              		.section	.text.adcStop,"ax",%progbits
  91              		.align	1
  92              		.p2align 4,,15
  93              		.global	adcStop
  94              		.syntax unified
  95              		.thumb
  96              		.thumb_func
  97              		.fpu fpv4-sp-d16
  98              		.type	adcStop, %function
  99              	adcStop:
 100              		@ args = 0, pretend = 0, frame = 0
 101              		@ frame_needed = 0, uses_anonymous_args = 0
 102 0000 38B5     		push	{r3, r4, r5, lr}
 103 0002 0446     		mov	r4, r0
 104 0004 3023     		movs	r3, #48
 105              		.syntax unified
 106              	@ 493 "/home/argroos/paparazzi/sw/ext/chibios/os/common/ext/ARM/CMSIS/Core/Include/cmsis_gcc.h" 1
 107 0006 83F31188 		MSR basepri, r3
 108              	@ 0 "" 2
 109              		.thumb
 110              		.syntax unified
 111 000a FFF7FEFF 		bl	__stats_start_measure_crit_thd
 112 000e 2046     		mov	r0, r4
 113 0010 FFF7FEFF 		bl	adc_lld_stop
 114 0014 0025     		movs	r5, #0
ARM GAS  /tmp/cceQbz7w.s 			page 3


 115 0016 0123     		movs	r3, #1
 116 0018 6560     		str	r5, [r4, #4]
 117 001a 2370     		strb	r3, [r4]
 118 001c FFF7FEFF 		bl	__stats_stop_measure_crit_thd
 119              		.syntax unified
 120              	@ 493 "/home/argroos/paparazzi/sw/ext/chibios/os/common/ext/ARM/CMSIS/Core/Include/cmsis_gcc.h" 1
 121 0020 85F31188 		MSR basepri, r5
 122              	@ 0 "" 2
 123              		.thumb
 124              		.syntax unified
 125 0024 38BD     		pop	{r3, r4, r5, pc}
 126              		.size	adcStop, .-adcStop
 127 0026 00BF     		.section	.text.adcStartConversion,"ax",%progbits
 128              		.align	1
 129              		.p2align 4,,15
 130              		.global	adcStartConversion
 131              		.syntax unified
 132              		.thumb
 133              		.thumb_func
 134              		.fpu fpv4-sp-d16
 135              		.type	adcStartConversion, %function
 136              	adcStartConversion:
 137              		@ args = 0, pretend = 0, frame = 0
 138              		@ frame_needed = 0, uses_anonymous_args = 0
 139 0000 F8B5     		push	{r3, r4, r5, r6, r7, lr}
 140 0002 1E46     		mov	r6, r3
 141 0004 0446     		mov	r4, r0
 142 0006 0D46     		mov	r5, r1
 143 0008 1746     		mov	r7, r2
 144 000a 3023     		movs	r3, #48
 145              		.syntax unified
 146              	@ 493 "/home/argroos/paparazzi/sw/ext/chibios/os/common/ext/ARM/CMSIS/Core/Include/cmsis_gcc.h" 1
 147 000c 83F31188 		MSR basepri, r3
 148              	@ 0 "" 2
 149              		.thumb
 150              		.syntax unified
 151 0010 FFF7FEFF 		bl	__stats_start_measure_crit_thd
 152 0014 0323     		movs	r3, #3
 153 0016 2370     		strb	r3, [r4]
 154 0018 2046     		mov	r0, r4
 155 001a C4E90276 		strd	r7, r6, [r4, #8]
 156 001e 2561     		str	r5, [r4, #16]
 157 0020 FFF7FEFF 		bl	adc_lld_start_conversion
 158 0024 FFF7FEFF 		bl	__stats_stop_measure_crit_thd
 159 0028 0023     		movs	r3, #0
 160              		.syntax unified
 161              	@ 493 "/home/argroos/paparazzi/sw/ext/chibios/os/common/ext/ARM/CMSIS/Core/Include/cmsis_gcc.h" 1
 162 002a 83F31188 		MSR basepri, r3
 163              	@ 0 "" 2
 164              		.thumb
 165              		.syntax unified
 166 002e F8BD     		pop	{r3, r4, r5, r6, r7, pc}
 167              		.size	adcStartConversion, .-adcStartConversion
 168              		.section	.text.adcStartConversionI,"ax",%progbits
 169              		.align	1
 170              		.p2align 4,,15
 171              		.global	adcStartConversionI
ARM GAS  /tmp/cceQbz7w.s 			page 4


 172              		.syntax unified
 173              		.thumb
 174              		.thumb_func
 175              		.fpu fpv4-sp-d16
 176              		.type	adcStartConversionI, %function
 177              	adcStartConversionI:
 178              		@ args = 0, pretend = 0, frame = 0
 179              		@ frame_needed = 0, uses_anonymous_args = 0
 180              		@ link register save eliminated.
 181 0000 8260     		str	r2, [r0, #8]
 182 0002 0322     		movs	r2, #3
 183 0004 C0E90331 		strd	r3, r1, [r0, #12]
 184 0008 0270     		strb	r2, [r0]
 185 000a FFF7FEBF 		b	adc_lld_start_conversion
 186              		.size	adcStartConversionI, .-adcStartConversionI
 187 000e 00BF     		.section	.text.adcStopConversion,"ax",%progbits
 188              		.align	1
 189              		.p2align 4,,15
 190              		.global	adcStopConversion
 191              		.syntax unified
 192              		.thumb
 193              		.thumb_func
 194              		.fpu fpv4-sp-d16
 195              		.type	adcStopConversion, %function
 196              	adcStopConversion:
 197              		@ args = 0, pretend = 0, frame = 0
 198              		@ frame_needed = 0, uses_anonymous_args = 0
 199 0000 10B5     		push	{r4, lr}
 200 0002 3023     		movs	r3, #48
 201 0004 0446     		mov	r4, r0
 202              		.syntax unified
 203              	@ 493 "/home/argroos/paparazzi/sw/ext/chibios/os/common/ext/ARM/CMSIS/Core/Include/cmsis_gcc.h" 1
 204 0006 83F31188 		MSR basepri, r3
 205              	@ 0 "" 2
 206              		.thumb
 207              		.syntax unified
 208 000a FFF7FEFF 		bl	__stats_start_measure_crit_thd
 209 000e 2378     		ldrb	r3, [r4]	@ zero_extendqisi2
 210 0010 022B     		cmp	r3, #2
 211 0012 0CD0     		beq	.L12
 212 0014 2046     		mov	r0, r4
 213 0016 FFF7FEFF 		bl	adc_lld_stop_conversion
 214 001a 2046     		mov	r0, r4
 215 001c 0022     		movs	r2, #0
 216 001e 0223     		movs	r3, #2
 217 0020 2261     		str	r2, [r4, #16]
 218 0022 6FF00101 		mvn	r1, #1
 219 0026 00F8143B 		strb	r3, [r0], #20
 220 002a FFF7FEFF 		bl	chThdResumeS
 221              	.L12:
 222 002e FFF7FEFF 		bl	__stats_stop_measure_crit_thd
 223 0032 0023     		movs	r3, #0
 224              		.syntax unified
 225              	@ 493 "/home/argroos/paparazzi/sw/ext/chibios/os/common/ext/ARM/CMSIS/Core/Include/cmsis_gcc.h" 1
 226 0034 83F31188 		MSR basepri, r3
 227              	@ 0 "" 2
 228              		.thumb
ARM GAS  /tmp/cceQbz7w.s 			page 5


 229              		.syntax unified
 230 0038 10BD     		pop	{r4, pc}
 231              		.size	adcStopConversion, .-adcStopConversion
 232 003a 00BF     		.section	.text.adcStopConversionI,"ax",%progbits
 233              		.align	1
 234              		.p2align 4,,15
 235              		.global	adcStopConversionI
 236              		.syntax unified
 237              		.thumb
 238              		.thumb_func
 239              		.fpu fpv4-sp-d16
 240              		.type	adcStopConversionI, %function
 241              	adcStopConversionI:
 242              		@ args = 0, pretend = 0, frame = 0
 243              		@ frame_needed = 0, uses_anonymous_args = 0
 244 0000 0378     		ldrb	r3, [r0]	@ zero_extendqisi2
 245 0002 022B     		cmp	r3, #2
 246 0004 00D1     		bne	.L22
 247 0006 7047     		bx	lr
 248              	.L22:
 249 0008 10B5     		push	{r4, lr}
 250 000a 0446     		mov	r4, r0
 251 000c FFF7FEFF 		bl	adc_lld_stop_conversion
 252 0010 2046     		mov	r0, r4
 253 0012 0022     		movs	r2, #0
 254 0014 0223     		movs	r3, #2
 255 0016 2261     		str	r2, [r4, #16]
 256 0018 00F8143B 		strb	r3, [r0], #20
 257 001c 6FF00101 		mvn	r1, #1
 258 0020 BDE81040 		pop	{r4, lr}
 259 0024 FFF7FEBF 		b	chThdResumeI
 260              		.size	adcStopConversionI, .-adcStopConversionI
 261              		.section	.text.adcConvert,"ax",%progbits
 262              		.align	1
 263              		.p2align 4,,15
 264              		.global	adcConvert
 265              		.syntax unified
 266              		.thumb
 267              		.thumb_func
 268              		.fpu fpv4-sp-d16
 269              		.type	adcConvert, %function
 270              	adcConvert:
 271              		@ args = 0, pretend = 0, frame = 8
 272              		@ frame_needed = 0, uses_anonymous_args = 0
 273 0000 F0B5     		push	{r4, r5, r6, r7, lr}
 274 0002 1E46     		mov	r6, r3
 275 0004 83B0     		sub	sp, sp, #12
 276 0006 0446     		mov	r4, r0
 277 0008 0D46     		mov	r5, r1
 278 000a 1746     		mov	r7, r2
 279 000c 3023     		movs	r3, #48
 280              		.syntax unified
 281              	@ 493 "/home/argroos/paparazzi/sw/ext/chibios/os/common/ext/ARM/CMSIS/Core/Include/cmsis_gcc.h" 1
 282 000e 83F31188 		MSR basepri, r3
 283              	@ 0 "" 2
 284              		.thumb
 285              		.syntax unified
ARM GAS  /tmp/cceQbz7w.s 			page 6


 286 0012 FFF7FEFF 		bl	__stats_start_measure_crit_thd
 287 0016 0323     		movs	r3, #3
 288 0018 2370     		strb	r3, [r4]
 289 001a 2046     		mov	r0, r4
 290 001c C4E90276 		strd	r7, r6, [r4, #8]
 291 0020 2561     		str	r5, [r4, #16]
 292 0022 FFF7FEFF 		bl	adc_lld_start_conversion
 293 0026 4FF0FF31 		mov	r1, #-1
 294 002a 04F11400 		add	r0, r4, #20
 295 002e FFF7FEFF 		bl	chThdSuspendTimeoutS
 296 0032 0190     		str	r0, [sp, #4]
 297 0034 FFF7FEFF 		bl	__stats_stop_measure_crit_thd
 298 0038 0023     		movs	r3, #0
 299              		.syntax unified
 300              	@ 493 "/home/argroos/paparazzi/sw/ext/chibios/os/common/ext/ARM/CMSIS/Core/Include/cmsis_gcc.h" 1
 301 003a 83F31188 		MSR basepri, r3
 302              	@ 0 "" 2
 303              		.thumb
 304              		.syntax unified
 305 003e 0198     		ldr	r0, [sp, #4]
 306 0040 03B0     		add	sp, sp, #12
 307              		@ sp needed
 308 0042 F0BD     		pop	{r4, r5, r6, r7, pc}
 309              		.size	adcConvert, .-adcConvert
 310              		.section	.text.adcAcquireBus,"ax",%progbits
 311              		.align	1
 312              		.p2align 4,,15
 313              		.global	adcAcquireBus
 314              		.syntax unified
 315              		.thumb
 316              		.thumb_func
 317              		.fpu fpv4-sp-d16
 318              		.type	adcAcquireBus, %function
 319              	adcAcquireBus:
 320              		@ args = 0, pretend = 0, frame = 0
 321              		@ frame_needed = 0, uses_anonymous_args = 0
 322              		@ link register save eliminated.
 323 0000 1830     		adds	r0, r0, #24
 324 0002 FFF7FEBF 		b	chMtxLock
 325              		.size	adcAcquireBus, .-adcAcquireBus
 326 0006 00BF     		.section	.text.adcReleaseBus,"ax",%progbits
 327              		.align	1
 328              		.p2align 4,,15
 329              		.global	adcReleaseBus
 330              		.syntax unified
 331              		.thumb
 332              		.thumb_func
 333              		.fpu fpv4-sp-d16
 334              		.type	adcReleaseBus, %function
 335              	adcReleaseBus:
 336              		@ args = 0, pretend = 0, frame = 0
 337              		@ frame_needed = 0, uses_anonymous_args = 0
 338              		@ link register save eliminated.
 339 0000 1830     		adds	r0, r0, #24
 340 0002 FFF7FEBF 		b	chMtxUnlock
 341              		.size	adcReleaseBus, .-adcReleaseBus
 342 0006 00BF     		.ident	"GCC: (15:10.3-2021.07-4) 10.3.1 20210621 (release)"
ARM GAS  /tmp/cceQbz7w.s 			page 7


ARM GAS  /tmp/cceQbz7w.s 			page 8

