ARM GAS  /tmp/cc97EVOY.s 			page 1


   1              		.cpu cortex-m4
   2              		.eabi_attribute 27, 1
   3              		.eabi_attribute 20, 1
   4              		.eabi_attribute 21, 1
   5              		.eabi_attribute 23, 3
   6              		.eabi_attribute 24, 1
   7              		.eabi_attribute 25, 1
   8              		.eabi_attribute 26, 1
   9              		.eabi_attribute 30, 2
  10              		.eabi_attribute 34, 1
  11              		.eabi_attribute 18, 4
  12              		.file	"ins.c"
  13              		.text
  14              		.global	__aeabi_f2d
  15              		.global	__aeabi_dmul
  16              		.global	__aeabi_ddiv
  17              		.global	__aeabi_d2f
  18              		.section	.text.ins_init_origin_i_from_flightplan,"ax",%progbits
  19              		.align	1
  20              		.p2align 4,,15
  21              		.global	ins_init_origin_i_from_flightplan
  22              		.arch armv7e-m
  23              		.syntax unified
  24              		.thumb
  25              		.thumb_func
  26              		.fpu fpv4-sp-d16
  27              		.type	ins_init_origin_i_from_flightplan, %function
  28              	ins_init_origin_i_from_flightplan:
  29              		@ args = 0, pretend = 0, frame = 16
  30              		@ frame_needed = 0, uses_anonymous_args = 0
  31 0000 10B5     		push	{r4, lr}
  32 0002 6F4A     		ldr	r2, .L4+16
  33 0004 6F4B     		ldr	r3, .L4+20
  34 0006 84B0     		sub	sp, sp, #16
  35 0008 0446     		mov	r4, r0
  36 000a CDE90123 		strd	r2, r3, [sp, #4]
  37 000e 01A9     		add	r1, sp, #4
  38 0010 6D4B     		ldr	r3, .L4+24
  39 0012 0393     		str	r3, [sp, #12]
  40 0014 FFF7FEFF 		bl	ltp_def_from_lla_i
  41 0018 6C4B     		ldr	r3, .L4+28
  42 001a E363     		str	r3, [r4, #60]
  43 001c A446     		mov	ip, r4
  44 001e BCE80F00 		ldmia	ip!, {r0, r1, r2, r3}
  45 0022 6B4C     		ldr	r4, .L4+32
  46 0024 DFED6B7A 		vldr.32	s15, .L4+36
  47 0028 04F11C0E 		add	lr, r4, #28
  48 002c AEE80F00 		stmia	lr!, {r0, r1, r2, r3}
  49 0030 BCE80F00 		ldmia	ip!, {r0, r1, r2, r3}
  50 0034 AEE80F00 		stmia	lr!, {r0, r1, r2, r3}
  51 0038 BCE80F00 		ldmia	ip!, {r0, r1, r2, r3}
  52 003c AEE80F00 		stmia	lr!, {r0, r1, r2, r3}
  53 0040 9CE80F00 		ldm	ip, {r0, r1, r2, r3}
  54 0044 8EE80F00 		stm	lr, {r0, r1, r2, r3}
  55 0048 94ED077A 		vldr.32	s14, [r4, #28]	@ int
  56 004c B8EEC76A 		vcvt.f32.s32	s12, s14
  57 0050 94ED087A 		vldr.32	s14, [r4, #32]	@ int
ARM GAS  /tmp/cc97EVOY.s 			page 2


  58 0054 F8EEC76A 		vcvt.f32.s32	s13, s14
  59 0058 94ED097A 		vldr.32	s14, [r4, #36]	@ int
  60 005c B8EEC77A 		vcvt.f32.s32	s14, s14
  61 0060 C6EE275A 		vdiv.f32	s11, s12, s15
  62 0064 86EEA76A 		vdiv.f32	s12, s13, s15
  63 0068 C7EE276A 		vdiv.f32	s13, s14, s15
  64 006c D4ED0A7A 		vldr.32	s15, [r4, #40]	@ int
  65 0070 C4ED295A 		vstr.32	s11, [r4, #164]
  66 0074 F8EEE77A 		vcvt.f32.s32	s15, s15
  67 0078 84ED2A6A 		vstr.32	s12, [r4, #168]
  68 007c C4ED2B6A 		vstr.32	s13, [r4, #172]
  69 0080 17EE900A 		vmov	r0, s15
  70 0084 FFF7FEFF 		bl	__aeabi_f2d
  71 0088 49A3     		adr	r3, .L4
  72 008a D3E90023 		ldrd	r2, [r3]
  73 008e FFF7FEFF 		bl	__aeabi_dmul
  74 0092 49A3     		adr	r3, .L4+8
  75 0094 D3E90023 		ldrd	r2, [r3]
  76 0098 FFF7FEFF 		bl	__aeabi_ddiv
  77 009c FFF7FEFF 		bl	__aeabi_d2f
  78 00a0 D4ED0B7A 		vldr.32	s15, [r4, #44]	@ int
  79 00a4 C4F8B000 		str	r0, [r4, #176]	@ float
  80 00a8 F8EEE77A 		vcvt.f32.s32	s15, s15
  81 00ac 17EE900A 		vmov	r0, s15
  82 00b0 FFF7FEFF 		bl	__aeabi_f2d
  83 00b4 3EA3     		adr	r3, .L4
  84 00b6 D3E90023 		ldrd	r2, [r3]
  85 00ba FFF7FEFF 		bl	__aeabi_dmul
  86 00be 3EA3     		adr	r3, .L4+8
  87 00c0 D3E90023 		ldrd	r2, [r3]
  88 00c4 FFF7FEFF 		bl	__aeabi_ddiv
  89 00c8 FFF7FEFF 		bl	__aeabi_d2f
  90 00cc D4ED0C7A 		vldr.32	s15, [r4, #48]	@ int
  91 00d0 9FED417A 		vldr.32	s14, .L4+40
  92 00d4 C4F8B400 		str	r0, [r4, #180]	@ float
  93 00d8 F8EEE77A 		vcvt.f32.s32	s15, s15
  94 00dc 3F48     		ldr	r0, .L4+44
  95 00de 87EE873A 		vdiv.f32	s6, s15, s14
  96 00e2 94ED0D7A 		vldr.32	s14, [r4, #52]	@ int
  97 00e6 DFED3E7A 		vldr.32	s15, .L4+48
  98 00ea 84ED2E3A 		vstr.32	s6, [r4, #184]
  99 00ee F8EEC73A 		vcvt.f32.s32	s7, s14
 100 00f2 94ED0E7A 		vldr.32	s14, [r4, #56]	@ int
 101 00f6 B8EEC74A 		vcvt.f32.s32	s8, s14
 102 00fa 94ED0F7A 		vldr.32	s14, [r4, #60]	@ int
 103 00fe F8EEC74A 		vcvt.f32.s32	s9, s14
 104 0102 94ED107A 		vldr.32	s14, [r4, #64]	@ int
 105 0106 B8EEC75A 		vcvt.f32.s32	s10, s14
 106 010a 94ED117A 		vldr.32	s14, [r4, #68]	@ int
 107 010e F8EEC75A 		vcvt.f32.s32	s11, s14
 108 0112 94ED127A 		vldr.32	s14, [r4, #72]	@ int
 109 0116 B8EEC76A 		vcvt.f32.s32	s12, s14
 110 011a 94ED137A 		vldr.32	s14, [r4, #76]	@ int
 111 011e F8EEC76A 		vcvt.f32.s32	s13, s14
 112 0122 94ED147A 		vldr.32	s14, [r4, #80]	@ int
 113 0126 B8EEC77A 		vcvt.f32.s32	s14, s14
 114 012a 63EEA73A 		vmul.f32	s7, s7, s15
ARM GAS  /tmp/cc97EVOY.s 			page 3


 115 012e 24EE274A 		vmul.f32	s8, s8, s15
 116 0132 64EEA74A 		vmul.f32	s9, s9, s15
 117 0136 25EE275A 		vmul.f32	s10, s10, s15
 118 013a 65EEA75A 		vmul.f32	s11, s11, s15
 119 013e 26EE276A 		vmul.f32	s12, s12, s15
 120 0142 66EEA76A 		vmul.f32	s13, s13, s15
 121 0146 27EE277A 		vmul.f32	s14, s14, s15
 122 014a C4ED2F3A 		vstr.32	s7, [r4, #188]
 123 014e 84ED367A 		vstr.32	s14, [r4, #216]
 124 0152 84ED304A 		vstr.32	s8, [r4, #192]
 125 0156 C4ED314A 		vstr.32	s9, [r4, #196]
 126 015a 84ED325A 		vstr.32	s10, [r4, #200]
 127 015e C4ED335A 		vstr.32	s11, [r4, #204]
 128 0162 84ED346A 		vstr.32	s12, [r4, #208]
 129 0166 C4ED356A 		vstr.32	s13, [r4, #212]
 130 016a 2188     		ldrh	r1, [r4]
 131 016c 94ED157A 		vldr.32	s14, [r4, #84]	@ int
 132 0170 B4F81421 		ldrh	r2, [r4, #276]
 133 0174 94F87031 		ldrb	r3, [r4, #368]	@ zero_extendqisi2
 134 0178 C4F8E000 		str	r0, [r4, #224]	@ float
 135 017c B8EEC77A 		vcvt.f32.s32	s14, s14
 136 0180 21F0C601 		bic	r1, r1, #198
 137 0184 67EE277A 		vmul.f32	s15, s14, s15
 138 0188 22F0C602 		bic	r2, r2, #198
 139 018c 23F00A03 		bic	r3, r3, #10
 140 0190 2180     		strh	r1, [r4]	@ movhi
 141 0192 0121     		movs	r1, #1
 142 0194 C4ED377A 		vstr.32	s15, [r4, #220]
 143 0198 A4F81421 		strh	r2, [r4, #276]	@ movhi
 144 019c 84F87031 		strb	r3, [r4, #368]
 145 01a0 84F85C10 		strb	r1, [r4, #92]
 146 01a4 84F8E410 		strb	r1, [r4, #228]
 147 01a8 04B0     		add	sp, sp, #16
 148              		@ sp needed
 149 01aa 10BD     		pop	{r4, pc}
 150              	.L5:
 151 01ac AFF30080 		.align	3
 152              	.L4:
 153 01b0 399D52A2 		.word	-1571644103
 154 01b4 46DF913F 		.word	1066524486
 155 01b8 00000000 		.word	0
 156 01bc D0126341 		.word	1097011920
 157 01c0 2211731D 		.word	494080290
 158 01c4 128D8706 		.word	109546770
 159 01c8 7E2B0600 		.word	404350
 160 01cc A06E0500 		.word	356000
 161 01d0 00000000 		.word	state
 162 01d4 0000C842 		.word	1120403456
 163 01d8 00007A44 		.word	1148846080
 164 01dc 0000B243 		.word	1135738880
 165 01e0 00008035 		.word	897581056
 166              		.size	ins_init_origin_i_from_flightplan, .-ins_init_origin_i_from_flightplan
 167              		.section	.text.ins_reset_local_origin,"ax",%progbits
 168              		.align	1
 169              		.p2align 4,,15
 170              		.weak	ins_reset_local_origin
 171              		.syntax unified
ARM GAS  /tmp/cc97EVOY.s 			page 4


 172              		.thumb
 173              		.thumb_func
 174              		.fpu fpv4-sp-d16
 175              		.type	ins_reset_local_origin, %function
 176              	ins_reset_local_origin:
 177              		@ args = 0, pretend = 0, frame = 16
 178              		@ frame_needed = 0, uses_anonymous_args = 0
 179 0000 30B5     		push	{r4, r5, lr}
 180 0002 85B0     		sub	sp, sp, #20
 181 0004 6D46     		mov	r5, sp
 182 0006 2846     		mov	r0, r5
 183 0008 0F49     		ldr	r1, .L8
 184 000a 104C     		ldr	r4, .L8+4
 185 000c 0022     		movs	r2, #0
 186 000e FFF7FEFF 		bl	utm_float_from_gps
 187 0012 95E80F00 		ldm	r5, {r0, r1, r2, r3}
 188 0016 04F1E80C 		add	ip, r4, #232
 189 001a 8CE80F00 		stm	ip, {r0, r1, r2, r3}
 190 001e 2188     		ldrh	r1, [r4]
 191 0020 B4F81421 		ldrh	r2, [r4, #276]
 192 0024 94F87031 		ldrb	r3, [r4, #368]	@ zero_extendqisi2
 193 0028 0120     		movs	r0, #1
 194 002a 21F0C601 		bic	r1, r1, #198
 195 002e 22F0C602 		bic	r2, r2, #198
 196 0032 23F00A03 		bic	r3, r3, #10
 197 0036 84F8F800 		strb	r0, [r4, #248]
 198 003a 2180     		strh	r1, [r4]	@ movhi
 199 003c A4F81421 		strh	r2, [r4, #276]	@ movhi
 200 0040 84F87031 		strb	r3, [r4, #368]
 201 0044 05B0     		add	sp, sp, #20
 202              		@ sp needed
 203 0046 30BD     		pop	{r4, r5, pc}
 204              	.L9:
 205              		.align	2
 206              	.L8:
 207 0048 00000000 		.word	gps
 208 004c 00000000 		.word	state
 209              		.size	ins_reset_local_origin, .-ins_reset_local_origin
 210              		.section	.text.ins_reset_altitude_ref,"ax",%progbits
 211              		.align	1
 212              		.p2align 4,,15
 213              		.weak	ins_reset_altitude_ref
 214              		.syntax unified
 215              		.thumb
 216              		.thumb_func
 217              		.fpu fpv4-sp-d16
 218              		.type	ins_reset_altitude_ref, %function
 219              	ins_reset_altitude_ref:
 220              		@ args = 0, pretend = 0, frame = 0
 221              		@ frame_needed = 0, uses_anonymous_args = 0
 222              		@ link register save eliminated.
 223 0000 7047     		bx	lr
 224              		.size	ins_reset_altitude_ref, .-ins_reset_altitude_ref
 225 0002 00BF     		.section	.text.ins_reset_vertical_pos,"ax",%progbits
 226              		.align	1
 227              		.p2align 4,,15
 228              		.weak	ins_reset_vertical_pos
ARM GAS  /tmp/cc97EVOY.s 			page 5


 229              		.syntax unified
 230              		.thumb
 231              		.thumb_func
 232              		.fpu fpv4-sp-d16
 233              		.type	ins_reset_vertical_pos, %function
 234              	ins_reset_vertical_pos:
 235              		@ args = 0, pretend = 0, frame = 0
 236              		@ frame_needed = 0, uses_anonymous_args = 0
 237              		@ link register save eliminated.
 238 0000 7047     		bx	lr
 239              		.size	ins_reset_vertical_pos, .-ins_reset_vertical_pos
 240 0002 00BF     		.section	.text.ins_reset_utm_zone,"ax",%progbits
 241              		.align	1
 242              		.p2align 4,,15
 243              		.weak	ins_reset_utm_zone
 244              		.syntax unified
 245              		.thumb
 246              		.thumb_func
 247              		.fpu fpv4-sp-d16
 248              		.type	ins_reset_utm_zone, %function
 249              	ins_reset_utm_zone:
 250              		@ args = 0, pretend = 0, frame = 16
 251              		@ frame_needed = 0, uses_anonymous_args = 0
 252 0000 30B5     		push	{r4, r5, lr}
 253 0002 85B0     		sub	sp, sp, #20
 254 0004 0446     		mov	r4, r0
 255 0006 0146     		mov	r1, r0
 256 0008 01A8     		add	r0, sp, #4
 257 000a FFF7FEFF 		bl	lla_of_utm_f
 258 000e 1449     		ldr	r1, .L18
 259 0010 144D     		ldr	r5, .L18+4
 260 0012 0B78     		ldrb	r3, [r1]	@ zero_extendqisi2
 261 0014 C3F38002 		ubfx	r2, r3, #2, #1
 262 0018 5B07     		lsls	r3, r3, #29
 263 001a 48BF     		it	mi
 264 001c 91F82820 		ldrbmi	r2, [r1, #40]	@ zero_extendqisi2
 265 0020 2273     		strb	r2, [r4, #12]
 266 0022 01A9     		add	r1, sp, #4
 267 0024 2046     		mov	r0, r4
 268 0026 FFF7FEFF 		bl	utm_of_lla_f
 269 002a 94E80F00 		ldm	r4, {r0, r1, r2, r3}
 270 002e 05F1E80C 		add	ip, r5, #232
 271 0032 8CE80F00 		stm	ip, {r0, r1, r2, r3}
 272 0036 2988     		ldrh	r1, [r5]
 273 0038 B5F81421 		ldrh	r2, [r5, #276]
 274 003c 95F87031 		ldrb	r3, [r5, #368]	@ zero_extendqisi2
 275 0040 0120     		movs	r0, #1
 276 0042 21F0C601 		bic	r1, r1, #198
 277 0046 22F0C602 		bic	r2, r2, #198
 278 004a 23F00A03 		bic	r3, r3, #10
 279 004e 85F8F800 		strb	r0, [r5, #248]
 280 0052 2980     		strh	r1, [r5]	@ movhi
 281 0054 A5F81421 		strh	r2, [r5, #276]	@ movhi
 282 0058 85F87031 		strb	r3, [r5, #368]
 283 005c 05B0     		add	sp, sp, #20
 284              		@ sp needed
 285 005e 30BD     		pop	{r4, r5, pc}
ARM GAS  /tmp/cc97EVOY.s 			page 6


 286              	.L19:
 287              		.align	2
 288              	.L18:
 289 0060 00000000 		.word	gps
 290 0064 00000000 		.word	state
 291              		.size	ins_reset_utm_zone, .-ins_reset_utm_zone
 292              		.ident	"GCC: (15:10.3-2021.07-4) 10.3.1 20210621 (release)"
ARM GAS  /tmp/cc97EVOY.s 			page 7

