ARM GAS  /tmp/ccyb3iH1.s 			page 1


   1              		.cpu cortex-m4
   2              		.eabi_attribute 27, 1
   3              		.eabi_attribute 20, 1
   4              		.eabi_attribute 21, 1
   5              		.eabi_attribute 23, 3
   6              		.eabi_attribute 24, 1
   7              		.eabi_attribute 25, 1
   8              		.eabi_attribute 26, 1
   9              		.eabi_attribute 30, 2
  10              		.eabi_attribute 34, 1
  11              		.eabi_attribute 18, 4
  12              		.file	"pprz_algebra_double.c"
  13              		.text
  14              		.global	__aeabi_dmul
  15              		.global	__aeabi_dsub
  16              		.global	__aeabi_dadd
  17              		.section	.text.double_rmat_of_eulers_321,"ax",%progbits
  18              		.align	1
  19              		.p2align 4,,15
  20              		.global	double_rmat_of_eulers_321
  21              		.arch armv7e-m
  22              		.syntax unified
  23              		.thumb
  24              		.thumb_func
  25              		.fpu fpv4-sp-d16
  26              		.type	double_rmat_of_eulers_321, %function
  27              	double_rmat_of_eulers_321:
  28              		@ args = 0, pretend = 0, frame = 8
  29              		@ frame_needed = 0, uses_anonymous_args = 0
  30 0000 2DE9D04F 		push	{r4, r6, r7, r8, r9, r10, fp, lr}
  31 0004 D1E90067 		ldrd	r6, [r1]
  32 0008 2DED088B 		vpush.64	{d8, d9, d10, d11}
  33 000c 0446     		mov	r4, r0
  34 000e 82B0     		sub	sp, sp, #8
  35 0010 8846     		mov	r8, r1
  36 0012 3046     		mov	r0, r6
  37 0014 3946     		mov	r1, r7
  38 0016 FFF7FEFF 		bl	sin
  39 001a 0246     		mov	r2, r0
  40 001c 0B46     		mov	r3, r1
  41 001e 3046     		mov	r0, r6
  42 0020 3946     		mov	r1, r7
  43 0022 43EC182B 		vmov	d8, r2, r3
  44 0026 FFF7FEFF 		bl	cos
  45 002a D8E90267 		ldrd	r6, [r8, #8]
  46 002e 41EC190B 		vmov	d9, r0, r1
  47 0032 3046     		mov	r0, r6
  48 0034 3946     		mov	r1, r7
  49 0036 FFF7FEFF 		bl	sin
  50 003a 0246     		mov	r2, r0
  51 003c 0B46     		mov	r3, r1
  52 003e 3046     		mov	r0, r6
  53 0040 3946     		mov	r1, r7
  54 0042 CDE90023 		strd	r2, [sp]
  55 0046 FFF7FEFF 		bl	cos
  56 004a D8E90467 		ldrd	r6, [r8, #16]
  57 004e 41EC1A0B 		vmov	d10, r0, r1
ARM GAS  /tmp/ccyb3iH1.s 			page 2


  58 0052 3046     		mov	r0, r6
  59 0054 3946     		mov	r1, r7
  60 0056 FFF7FEFF 		bl	sin
  61 005a 8046     		mov	r8, r0
  62 005c 8946     		mov	r9, r1
  63 005e 3046     		mov	r0, r6
  64 0060 3946     		mov	r1, r7
  65 0062 FFF7FEFF 		bl	cos
  66 0066 8246     		mov	r10, r0
  67 0068 8B46     		mov	fp, r1
  68 006a 5246     		mov	r2, r10
  69 006c 5B46     		mov	r3, fp
  70 006e 51EC1A0B 		vmov	r0, r1, d10
  71 0072 FFF7FEFF 		bl	__aeabi_dmul
  72 0076 4246     		mov	r2, r8
  73 0078 C4E90001 		strd	r0, [r4]
  74 007c 4B46     		mov	r3, r9
  75 007e 51EC1A0B 		vmov	r0, r1, d10
  76 0082 FFF7FEFF 		bl	__aeabi_dmul
  77 0086 C4E90201 		strd	r0, [r4, #8]
  78 008a DDE90012 		ldrd	r1, [sp]
  79 008e 02F10043 		add	r3, r2, #-2147483648
  80 0092 2161     		str	r1, [r4, #16]
  81 0094 6361     		str	r3, [r4, #20]
  82 0096 1346     		mov	r3, r2
  83 0098 0A46     		mov	r2, r1
  84 009a 51EC180B 		vmov	r0, r1, d8
  85 009e FFF7FEFF 		bl	__aeabi_dmul
  86 00a2 5246     		mov	r2, r10
  87 00a4 5B46     		mov	r3, fp
  88 00a6 0646     		mov	r6, r0
  89 00a8 0F46     		mov	r7, r1
  90 00aa FFF7FEFF 		bl	__aeabi_dmul
  91 00ae 4246     		mov	r2, r8
  92 00b0 41EC1B0B 		vmov	d11, r0, r1
  93 00b4 4B46     		mov	r3, r9
  94 00b6 51EC190B 		vmov	r0, r1, d9
  95 00ba FFF7FEFF 		bl	__aeabi_dmul
  96 00be 0246     		mov	r2, r0
  97 00c0 0B46     		mov	r3, r1
  98 00c2 51EC1B0B 		vmov	r0, r1, d11
  99 00c6 FFF7FEFF 		bl	__aeabi_dsub
 100 00ca 4246     		mov	r2, r8
 101 00cc C4E90601 		strd	r0, [r4, #24]
 102 00d0 4B46     		mov	r3, r9
 103 00d2 3046     		mov	r0, r6
 104 00d4 3946     		mov	r1, r7
 105 00d6 FFF7FEFF 		bl	__aeabi_dmul
 106 00da 5246     		mov	r2, r10
 107 00dc 0646     		mov	r6, r0
 108 00de 0F46     		mov	r7, r1
 109 00e0 5B46     		mov	r3, fp
 110 00e2 51EC190B 		vmov	r0, r1, d9
 111 00e6 FFF7FEFF 		bl	__aeabi_dmul
 112 00ea 0246     		mov	r2, r0
 113 00ec 0B46     		mov	r3, r1
 114 00ee 3046     		mov	r0, r6
ARM GAS  /tmp/ccyb3iH1.s 			page 3


 115 00f0 3946     		mov	r1, r7
 116 00f2 FFF7FEFF 		bl	__aeabi_dadd
 117 00f6 53EC1A2B 		vmov	r2, r3, d10
 118 00fa C4E90801 		strd	r0, [r4, #32]
 119 00fe 51EC180B 		vmov	r0, r1, d8
 120 0102 FFF7FEFF 		bl	__aeabi_dmul
 121 0106 DDE90023 		ldrd	r2, [sp]
 122 010a C4E90A01 		strd	r0, [r4, #40]
 123 010e 51EC190B 		vmov	r0, r1, d9
 124 0112 FFF7FEFF 		bl	__aeabi_dmul
 125 0116 5246     		mov	r2, r10
 126 0118 5B46     		mov	r3, fp
 127 011a 0646     		mov	r6, r0
 128 011c 0F46     		mov	r7, r1
 129 011e FFF7FEFF 		bl	__aeabi_dmul
 130 0122 4246     		mov	r2, r8
 131 0124 41EC1B0B 		vmov	d11, r0, r1
 132 0128 4B46     		mov	r3, r9
 133 012a 51EC180B 		vmov	r0, r1, d8
 134 012e FFF7FEFF 		bl	__aeabi_dmul
 135 0132 0246     		mov	r2, r0
 136 0134 0B46     		mov	r3, r1
 137 0136 51EC1B0B 		vmov	r0, r1, d11
 138 013a FFF7FEFF 		bl	__aeabi_dadd
 139 013e 4246     		mov	r2, r8
 140 0140 C4E90C01 		strd	r0, [r4, #48]
 141 0144 4B46     		mov	r3, r9
 142 0146 3046     		mov	r0, r6
 143 0148 3946     		mov	r1, r7
 144 014a FFF7FEFF 		bl	__aeabi_dmul
 145 014e 5246     		mov	r2, r10
 146 0150 5B46     		mov	r3, fp
 147 0152 0646     		mov	r6, r0
 148 0154 0F46     		mov	r7, r1
 149 0156 51EC180B 		vmov	r0, r1, d8
 150 015a FFF7FEFF 		bl	__aeabi_dmul
 151 015e 0246     		mov	r2, r0
 152 0160 0B46     		mov	r3, r1
 153 0162 3046     		mov	r0, r6
 154 0164 3946     		mov	r1, r7
 155 0166 FFF7FEFF 		bl	__aeabi_dsub
 156 016a 53EC1A2B 		vmov	r2, r3, d10
 157 016e C4E90E01 		strd	r0, [r4, #56]
 158 0172 51EC190B 		vmov	r0, r1, d9
 159 0176 FFF7FEFF 		bl	__aeabi_dmul
 160 017a C4E91001 		strd	r0, [r4, #64]
 161 017e 02B0     		add	sp, sp, #8
 162              		@ sp needed
 163 0180 BDEC088B 		vldm	sp!, {d8-d11}
 164 0184 BDE8D08F 		pop	{r4, r6, r7, r8, r9, r10, fp, pc}
 165              		.size	double_rmat_of_eulers_321, .-double_rmat_of_eulers_321
 166              		.section	.text.double_quat_of_eulers,"ax",%progbits
 167              		.align	1
 168              		.p2align 4,,15
 169              		.global	double_quat_of_eulers
 170              		.syntax unified
 171              		.thumb
ARM GAS  /tmp/ccyb3iH1.s 			page 4


 172              		.thumb_func
 173              		.fpu fpv4-sp-d16
 174              		.type	double_quat_of_eulers, %function
 175              	double_quat_of_eulers:
 176              		@ args = 0, pretend = 0, frame = 16
 177              		@ frame_needed = 0, uses_anonymous_args = 0
 178 0000 2DE9F04F 		push	{r4, r5, r6, r7, r8, r9, r10, fp, lr}
 179 0004 2DED088B 		vpush.64	{d8, d9, d10, d11}
 180 0008 85B0     		sub	sp, sp, #20
 181 000a 0C46     		mov	r4, r1
 182 000c 0390     		str	r0, [sp, #12]
 183 000e 624B     		ldr	r3, .L6
 184 0010 D1E90001 		ldrd	r0, [r1]
 185 0014 0022     		movs	r2, #0
 186 0016 FFF7FEFF 		bl	__aeabi_dmul
 187 001a 5F4B     		ldr	r3, .L6
 188 001c 8046     		mov	r8, r0
 189 001e 8946     		mov	r9, r1
 190 0020 0022     		movs	r2, #0
 191 0022 D4E90201 		ldrd	r0, [r4, #8]
 192 0026 FFF7FEFF 		bl	__aeabi_dmul
 193 002a 5B4B     		ldr	r3, .L6
 194 002c 0646     		mov	r6, r0
 195 002e 0F46     		mov	r7, r1
 196 0030 0022     		movs	r2, #0
 197 0032 D4E90401 		ldrd	r0, [r4, #16]
 198 0036 FFF7FEFF 		bl	__aeabi_dmul
 199 003a 0446     		mov	r4, r0
 200 003c 0D46     		mov	r5, r1
 201 003e 4046     		mov	r0, r8
 202 0040 4946     		mov	r1, r9
 203 0042 FFF7FEFF 		bl	sin
 204 0046 0246     		mov	r2, r0
 205 0048 0B46     		mov	r3, r1
 206 004a 4046     		mov	r0, r8
 207 004c 4946     		mov	r1, r9
 208 004e 43EC1B2B 		vmov	d11, r2, r3
 209 0052 FFF7FEFF 		bl	cos
 210 0056 CDE90001 		strd	r0, [sp]
 211 005a 3046     		mov	r0, r6
 212 005c 3946     		mov	r1, r7
 213 005e FFF7FEFF 		bl	sin
 214 0062 0246     		mov	r2, r0
 215 0064 0B46     		mov	r3, r1
 216 0066 3046     		mov	r0, r6
 217 0068 3946     		mov	r1, r7
 218 006a 43EC182B 		vmov	d8, r2, r3
 219 006e FFF7FEFF 		bl	cos
 220 0072 0646     		mov	r6, r0
 221 0074 0F46     		mov	r7, r1
 222 0076 2046     		mov	r0, r4
 223 0078 2946     		mov	r1, r5
 224 007a FFF7FEFF 		bl	sin
 225 007e 8246     		mov	r10, r0
 226 0080 8B46     		mov	fp, r1
 227 0082 2046     		mov	r0, r4
 228 0084 2946     		mov	r1, r5
ARM GAS  /tmp/ccyb3iH1.s 			page 5


 229 0086 FFF7FEFF 		bl	cos
 230 008a 3246     		mov	r2, r6
 231 008c 8046     		mov	r8, r0
 232 008e 8946     		mov	r9, r1
 233 0090 3B46     		mov	r3, r7
 234 0092 DDE90001 		ldrd	r0, [sp]
 235 0096 FFF7FEFF 		bl	__aeabi_dmul
 236 009a 53EC182B 		vmov	r2, r3, d8
 237 009e 41EC1A0B 		vmov	d10, r0, r1
 238 00a2 51EC1B0B 		vmov	r0, r1, d11
 239 00a6 FFF7FEFF 		bl	__aeabi_dmul
 240 00aa 4246     		mov	r2, r8
 241 00ac 41EC190B 		vmov	d9, r0, r1
 242 00b0 4B46     		mov	r3, r9
 243 00b2 51EC1A0B 		vmov	r0, r1, d10
 244 00b6 FFF7FEFF 		bl	__aeabi_dmul
 245 00ba 5246     		mov	r2, r10
 246 00bc 0446     		mov	r4, r0
 247 00be 0D46     		mov	r5, r1
 248 00c0 5B46     		mov	r3, fp
 249 00c2 51EC190B 		vmov	r0, r1, d9
 250 00c6 FFF7FEFF 		bl	__aeabi_dmul
 251 00ca 0246     		mov	r2, r0
 252 00cc 0B46     		mov	r3, r1
 253 00ce 2046     		mov	r0, r4
 254 00d0 2946     		mov	r1, r5
 255 00d2 FFF7FEFF 		bl	__aeabi_dadd
 256 00d6 039B     		ldr	r3, [sp, #12]
 257 00d8 3246     		mov	r2, r6
 258 00da C3E90001 		strd	r0, [r3]
 259 00de 3B46     		mov	r3, r7
 260 00e0 51EC1B0B 		vmov	r0, r1, d11
 261 00e4 FFF7FEFF 		bl	__aeabi_dmul
 262 00e8 DDE90023 		ldrd	r2, [sp]
 263 00ec 0446     		mov	r4, r0
 264 00ee 0D46     		mov	r5, r1
 265 00f0 1046     		mov	r0, r2
 266 00f2 03F10041 		add	r1, r3, #-2147483648
 267 00f6 53EC182B 		vmov	r2, r3, d8
 268 00fa FFF7FEFF 		bl	__aeabi_dmul
 269 00fe 5246     		mov	r2, r10
 270 0100 5B46     		mov	r3, fp
 271 0102 FFF7FEFF 		bl	__aeabi_dmul
 272 0106 4246     		mov	r2, r8
 273 0108 0646     		mov	r6, r0
 274 010a 0F46     		mov	r7, r1
 275 010c 4B46     		mov	r3, r9
 276 010e 2046     		mov	r0, r4
 277 0110 2946     		mov	r1, r5
 278 0112 FFF7FEFF 		bl	__aeabi_dmul
 279 0116 0246     		mov	r2, r0
 280 0118 0B46     		mov	r3, r1
 281 011a 3046     		mov	r0, r6
 282 011c 3946     		mov	r1, r7
 283 011e FFF7FEFF 		bl	__aeabi_dadd
 284 0122 039E     		ldr	r6, [sp, #12]
 285 0124 53EC182B 		vmov	r2, r3, d8
ARM GAS  /tmp/ccyb3iH1.s 			page 6


 286 0128 C6E90201 		strd	r0, [r6, #8]
 287 012c DDE90001 		ldrd	r0, [sp]
 288 0130 FFF7FEFF 		bl	__aeabi_dmul
 289 0134 4246     		mov	r2, r8
 290 0136 4B46     		mov	r3, r9
 291 0138 FFF7FEFF 		bl	__aeabi_dmul
 292 013c 0246     		mov	r2, r0
 293 013e 0B46     		mov	r3, r1
 294 0140 2046     		mov	r0, r4
 295 0142 2946     		mov	r1, r5
 296 0144 1446     		mov	r4, r2
 297 0146 1D46     		mov	r5, r3
 298 0148 5246     		mov	r2, r10
 299 014a 5B46     		mov	r3, fp
 300 014c FFF7FEFF 		bl	__aeabi_dmul
 301 0150 0246     		mov	r2, r0
 302 0152 0B46     		mov	r3, r1
 303 0154 2046     		mov	r0, r4
 304 0156 2946     		mov	r1, r5
 305 0158 FFF7FEFF 		bl	__aeabi_dadd
 306 015c 5246     		mov	r2, r10
 307 015e C6E90401 		strd	r0, [r6, #16]
 308 0162 5B46     		mov	r3, fp
 309 0164 51EC1A0B 		vmov	r0, r1, d10
 310 0168 FFF7FEFF 		bl	__aeabi_dmul
 311 016c 4246     		mov	r2, r8
 312 016e 4B46     		mov	r3, r9
 313 0170 0446     		mov	r4, r0
 314 0172 0D46     		mov	r5, r1
 315 0174 51EC190B 		vmov	r0, r1, d9
 316 0178 FFF7FEFF 		bl	__aeabi_dmul
 317 017c 0246     		mov	r2, r0
 318 017e 0B46     		mov	r3, r1
 319 0180 2046     		mov	r0, r4
 320 0182 2946     		mov	r1, r5
 321 0184 FFF7FEFF 		bl	__aeabi_dsub
 322 0188 C6E90601 		strd	r0, [r6, #24]
 323 018c 05B0     		add	sp, sp, #20
 324              		@ sp needed
 325 018e BDEC088B 		vldm	sp!, {d8-d11}
 326 0192 BDE8F08F 		pop	{r4, r5, r6, r7, r8, r9, r10, fp, pc}
 327              	.L7:
 328 0196 00BF     		.align	2
 329              	.L6:
 330 0198 0000E03F 		.word	1071644672
 331              		.size	double_quat_of_eulers, .-double_quat_of_eulers
 332              		.section	.text.double_eulers_of_quat,"ax",%progbits
 333              		.align	1
 334              		.p2align 4,,15
 335              		.global	double_eulers_of_quat
 336              		.syntax unified
 337              		.thumb
 338              		.thumb_func
 339              		.fpu fpv4-sp-d16
 340              		.type	double_eulers_of_quat, %function
 341              	double_eulers_of_quat:
 342              		@ args = 0, pretend = 0, frame = 8
ARM GAS  /tmp/ccyb3iH1.s 			page 7


 343              		@ frame_needed = 0, uses_anonymous_args = 0
 344 0000 2DE9F04F 		push	{r4, r5, r6, r7, r8, r9, r10, fp, lr}
 345 0004 2DED068B 		vpush.64	{d8, d9, d10}
 346 0008 D1E904AB 		ldrd	r10, [r1, #16]
 347 000c 83B0     		sub	sp, sp, #12
 348 000e D1E90245 		ldrd	r4, [r1, #8]
 349 0012 0E46     		mov	r6, r1
 350 0014 0190     		str	r0, [sp, #4]
 351 0016 5246     		mov	r2, r10
 352 0018 5B46     		mov	r3, fp
 353 001a 5046     		mov	r0, r10
 354 001c 5946     		mov	r1, fp
 355 001e FFF7FEFF 		bl	__aeabi_dmul
 356 0022 41EC190B 		vmov	d9, r0, r1
 357 0026 2246     		mov	r2, r4
 358 0028 2B46     		mov	r3, r5
 359 002a 2046     		mov	r0, r4
 360 002c 2946     		mov	r1, r5
 361 002e FFF7FEFF 		bl	__aeabi_dmul
 362 0032 53EC192B 		vmov	r2, r3, d9
 363 0036 FFF7FEFF 		bl	__aeabi_dadd
 364 003a 0246     		mov	r2, r0
 365 003c 0B46     		mov	r3, r1
 366 003e FFF7FEFF 		bl	__aeabi_dadd
 367 0042 0246     		mov	r2, r0
 368 0044 0B46     		mov	r3, r1
 369 0046 0020     		movs	r0, #0
 370 0048 4049     		ldr	r1, .L10
 371 004a FFF7FEFF 		bl	__aeabi_dsub
 372 004e 96ED008B 		vldr.64	d8, [r6]
 373 0052 41EC1A0B 		vmov	d10, r0, r1
 374 0056 53EC182B 		vmov	r2, r3, d8
 375 005a 2046     		mov	r0, r4
 376 005c 2946     		mov	r1, r5
 377 005e D6E90689 		ldrd	r8, [r6, #24]
 378 0062 FFF7FEFF 		bl	__aeabi_dmul
 379 0066 4246     		mov	r2, r8
 380 0068 0646     		mov	r6, r0
 381 006a 0F46     		mov	r7, r1
 382 006c 4B46     		mov	r3, r9
 383 006e 5046     		mov	r0, r10
 384 0070 5946     		mov	r1, fp
 385 0072 FFF7FEFF 		bl	__aeabi_dmul
 386 0076 0246     		mov	r2, r0
 387 0078 0B46     		mov	r3, r1
 388 007a 3046     		mov	r0, r6
 389 007c 3946     		mov	r1, r7
 390 007e FFF7FEFF 		bl	__aeabi_dadd
 391 0082 0246     		mov	r2, r0
 392 0084 0B46     		mov	r3, r1
 393 0086 FFF7FEFF 		bl	__aeabi_dadd
 394 008a 53EC1A2B 		vmov	r2, r3, d10
 395 008e FFF7FEFF 		bl	atan2
 396 0092 019B     		ldr	r3, [sp, #4]
 397 0094 4246     		mov	r2, r8
 398 0096 C3E90001 		strd	r0, [r3]
 399 009a 4B46     		mov	r3, r9
ARM GAS  /tmp/ccyb3iH1.s 			page 8


 400 009c 2046     		mov	r0, r4
 401 009e 2946     		mov	r1, r5
 402 00a0 FFF7FEFF 		bl	__aeabi_dmul
 403 00a4 53EC182B 		vmov	r2, r3, d8
 404 00a8 0646     		mov	r6, r0
 405 00aa 0F46     		mov	r7, r1
 406 00ac 5046     		mov	r0, r10
 407 00ae 5946     		mov	r1, fp
 408 00b0 FFF7FEFF 		bl	__aeabi_dmul
 409 00b4 0246     		mov	r2, r0
 410 00b6 0B46     		mov	r3, r1
 411 00b8 3046     		mov	r0, r6
 412 00ba 3946     		mov	r1, r7
 413 00bc FFF7FEFF 		bl	__aeabi_dsub
 414 00c0 0246     		mov	r2, r0
 415 00c2 0B46     		mov	r3, r1
 416 00c4 FFF7FEFF 		bl	__aeabi_dadd
 417 00c8 FFF7FEFF 		bl	asin
 418 00cc 01F10043 		add	r3, r1, #-2147483648
 419 00d0 0199     		ldr	r1, [sp, #4]
 420 00d2 0246     		mov	r2, r0
 421 00d4 C1E90223 		strd	r2, r3, [r1, #8]
 422 00d8 4046     		mov	r0, r8
 423 00da 4246     		mov	r2, r8
 424 00dc 4B46     		mov	r3, r9
 425 00de 4946     		mov	r1, r9
 426 00e0 FFF7FEFF 		bl	__aeabi_dmul
 427 00e4 53EC192B 		vmov	r2, r3, d9
 428 00e8 FFF7FEFF 		bl	__aeabi_dadd
 429 00ec 0246     		mov	r2, r0
 430 00ee 0B46     		mov	r3, r1
 431 00f0 FFF7FEFF 		bl	__aeabi_dadd
 432 00f4 0246     		mov	r2, r0
 433 00f6 0B46     		mov	r3, r1
 434 00f8 0020     		movs	r0, #0
 435 00fa 1449     		ldr	r1, .L10
 436 00fc FFF7FEFF 		bl	__aeabi_dsub
 437 0100 53EC182B 		vmov	r2, r3, d8
 438 0104 0646     		mov	r6, r0
 439 0106 0F46     		mov	r7, r1
 440 0108 4046     		mov	r0, r8
 441 010a 4946     		mov	r1, r9
 442 010c FFF7FEFF 		bl	__aeabi_dmul
 443 0110 5246     		mov	r2, r10
 444 0112 5B46     		mov	r3, fp
 445 0114 8046     		mov	r8, r0
 446 0116 8946     		mov	r9, r1
 447 0118 2046     		mov	r0, r4
 448 011a 2946     		mov	r1, r5
 449 011c FFF7FEFF 		bl	__aeabi_dmul
 450 0120 0246     		mov	r2, r0
 451 0122 0B46     		mov	r3, r1
 452 0124 4046     		mov	r0, r8
 453 0126 4946     		mov	r1, r9
 454 0128 FFF7FEFF 		bl	__aeabi_dadd
 455 012c 0246     		mov	r2, r0
 456 012e 0B46     		mov	r3, r1
ARM GAS  /tmp/ccyb3iH1.s 			page 9


 457 0130 FFF7FEFF 		bl	__aeabi_dadd
 458 0134 3B46     		mov	r3, r7
 459 0136 3246     		mov	r2, r6
 460 0138 FFF7FEFF 		bl	atan2
 461 013c 019B     		ldr	r3, [sp, #4]
 462 013e C3E90401 		strd	r0, [r3, #16]
 463 0142 03B0     		add	sp, sp, #12
 464              		@ sp needed
 465 0144 BDEC068B 		vldm	sp!, {d8-d10}
 466 0148 BDE8F08F 		pop	{r4, r5, r6, r7, r8, r9, r10, fp, pc}
 467              	.L11:
 468              		.align	2
 469              	.L10:
 470 014c 0000F03F 		.word	1072693248
 471              		.size	double_eulers_of_quat, .-double_eulers_of_quat
 472              		.section	.text.double_quat_vmult,"ax",%progbits
 473              		.align	1
 474              		.p2align 4,,15
 475              		.global	double_quat_vmult
 476              		.syntax unified
 477              		.thumb
 478              		.thumb_func
 479              		.fpu fpv4-sp-d16
 480              		.type	double_quat_vmult, %function
 481              	double_quat_vmult:
 482              		@ args = 0, pretend = 0, frame = 8
 483              		@ frame_needed = 0, uses_anonymous_args = 0
 484 0000 2DE9F04F 		push	{r4, r5, r6, r7, r8, r9, r10, fp, lr}
 485 0004 D1E90067 		ldrd	r6, [r1]
 486 0008 2DED108B 		vpush.64	{d8, d9, d10, d11, d12, d13, d14, d15}
 487 000c 1546     		mov	r5, r2
 488 000e 83B0     		sub	sp, sp, #12
 489 0010 0446     		mov	r4, r0
 490 0012 8A46     		mov	r10, r1
 491 0014 3246     		mov	r2, r6
 492 0016 3B46     		mov	r3, r7
 493 0018 3046     		mov	r0, r6
 494 001a 3946     		mov	r1, r7
 495 001c FFF7FEFF 		bl	__aeabi_dmul
 496 0020 7B4B     		ldr	r3, .L14
 497 0022 0022     		movs	r2, #0
 498 0024 FFF7FEFF 		bl	__aeabi_dsub
 499 0028 DAE90289 		ldrd	r8, [r10, #8]
 500 002c 41EC1A0B 		vmov	d10, r0, r1
 501 0030 4246     		mov	r2, r8
 502 0032 4B46     		mov	r3, r9
 503 0034 3046     		mov	r0, r6
 504 0036 3946     		mov	r1, r7
 505 0038 FFF7FEFF 		bl	__aeabi_dmul
 506 003c 9AED047B 		vldr.64	d7, [r10, #16]
 507 0040 41EC1B0B 		vmov	d11, r0, r1
 508 0044 B0EE479A 		vmov.f32	s18, s14
 509 0048 F0EE679A 		vmov.f32	s19, s15
 510 004c 53EC172B 		vmov	r2, r3, d7
 511 0050 3046     		mov	r0, r6
 512 0052 3946     		mov	r1, r7
 513 0054 FFF7FEFF 		bl	__aeabi_dmul
ARM GAS  /tmp/ccyb3iH1.s 			page 10


 514 0058 DAE906AB 		ldrd	r10, [r10, #24]
 515 005c 0246     		mov	r2, r0
 516 005e 0B46     		mov	r3, r1
 517 0060 43EC1E2B 		vmov	d14, r2, r3
 518 0064 3046     		mov	r0, r6
 519 0066 5246     		mov	r2, r10
 520 0068 5B46     		mov	r3, fp
 521 006a 3946     		mov	r1, r7
 522 006c FFF7FEFF 		bl	__aeabi_dmul
 523 0070 53EC192B 		vmov	r2, r3, d9
 524 0074 41EC1F0B 		vmov	d15, r0, r1
 525 0078 4046     		mov	r0, r8
 526 007a 4946     		mov	r1, r9
 527 007c FFF7FEFF 		bl	__aeabi_dmul
 528 0080 5246     		mov	r2, r10
 529 0082 41EC180B 		vmov	d8, r0, r1
 530 0086 5B46     		mov	r3, fp
 531 0088 4046     		mov	r0, r8
 532 008a 4946     		mov	r1, r9
 533 008c FFF7FEFF 		bl	__aeabi_dmul
 534 0090 5246     		mov	r2, r10
 535 0092 41EC1D0B 		vmov	d13, r0, r1
 536 0096 5B46     		mov	r3, fp
 537 0098 51EC190B 		vmov	r0, r1, d9
 538 009c FFF7FEFF 		bl	__aeabi_dmul
 539 00a0 4246     		mov	r2, r8
 540 00a2 41EC1C0B 		vmov	d12, r0, r1
 541 00a6 4B46     		mov	r3, r9
 542 00a8 4046     		mov	r0, r8
 543 00aa 4946     		mov	r1, r9
 544 00ac FFF7FEFF 		bl	__aeabi_dmul
 545 00b0 53EC1A2B 		vmov	r2, r3, d10
 546 00b4 FFF7FEFF 		bl	__aeabi_dadd
 547 00b8 D5E90023 		ldrd	r2, [r5]
 548 00bc FFF7FEFF 		bl	__aeabi_dmul
 549 00c0 D5E90289 		ldrd	r8, [r5, #8]
 550 00c4 53EC182B 		vmov	r2, r3, d8
 551 00c8 0646     		mov	r6, r0
 552 00ca 0F46     		mov	r7, r1
 553 00cc 51EC1F0B 		vmov	r0, r1, d15
 554 00d0 8DED008B 		vstr.64	d8, [sp]
 555 00d4 FFF7FEFF 		bl	__aeabi_dadd
 556 00d8 4246     		mov	r2, r8
 557 00da 4B46     		mov	r3, r9
 558 00dc FFF7FEFF 		bl	__aeabi_dmul
 559 00e0 0246     		mov	r2, r0
 560 00e2 0B46     		mov	r3, r1
 561 00e4 3046     		mov	r0, r6
 562 00e6 3946     		mov	r1, r7
 563 00e8 FFF7FEFF 		bl	__aeabi_dadd
 564 00ec 95ED048B 		vldr.64	d8, [r5, #16]
 565 00f0 53EC1E2B 		vmov	r2, r3, d14
 566 00f4 0646     		mov	r6, r0
 567 00f6 0F46     		mov	r7, r1
 568 00f8 51EC1D0B 		vmov	r0, r1, d13
 569 00fc FFF7FEFF 		bl	__aeabi_dsub
 570 0100 53EC182B 		vmov	r2, r3, d8
ARM GAS  /tmp/ccyb3iH1.s 			page 11


 571 0104 FFF7FEFF 		bl	__aeabi_dmul
 572 0108 0246     		mov	r2, r0
 573 010a 0B46     		mov	r3, r1
 574 010c 3046     		mov	r0, r6
 575 010e 3946     		mov	r1, r7
 576 0110 FFF7FEFF 		bl	__aeabi_dadd
 577 0114 0246     		mov	r2, r0
 578 0116 0B46     		mov	r3, r1
 579 0118 FFF7FEFF 		bl	__aeabi_dadd
 580 011c 53EC192B 		vmov	r2, r3, d9
 581 0120 C4E90001 		strd	r0, [r4]
 582 0124 19EE100A 		vmov	r0, s18	@ int
 583 0128 1946     		mov	r1, r3
 584 012a FFF7FEFF 		bl	__aeabi_dmul
 585 012e 53EC1A2B 		vmov	r2, r3, d10
 586 0132 FFF7FEFF 		bl	__aeabi_dadd
 587 0136 4246     		mov	r2, r8
 588 0138 4B46     		mov	r3, r9
 589 013a FFF7FEFF 		bl	__aeabi_dmul
 590 013e D5E90089 		ldrd	r8, [r5]
 591 0142 53EC1F2B 		vmov	r2, r3, d15
 592 0146 0646     		mov	r6, r0
 593 0148 0F46     		mov	r7, r1
 594 014a DDE90001 		ldrd	r0, [sp]
 595 014e FFF7FEFF 		bl	__aeabi_dsub
 596 0152 4246     		mov	r2, r8
 597 0154 4B46     		mov	r3, r9
 598 0156 FFF7FEFF 		bl	__aeabi_dmul
 599 015a 0246     		mov	r2, r0
 600 015c 0B46     		mov	r3, r1
 601 015e 3046     		mov	r0, r6
 602 0160 3946     		mov	r1, r7
 603 0162 FFF7FEFF 		bl	__aeabi_dadd
 604 0166 53EC1C2B 		vmov	r2, r3, d12
 605 016a 0646     		mov	r6, r0
 606 016c 0F46     		mov	r7, r1
 607 016e 51EC1B0B 		vmov	r0, r1, d11
 608 0172 FFF7FEFF 		bl	__aeabi_dadd
 609 0176 53EC182B 		vmov	r2, r3, d8
 610 017a FFF7FEFF 		bl	__aeabi_dmul
 611 017e 0246     		mov	r2, r0
 612 0180 0B46     		mov	r3, r1
 613 0182 3046     		mov	r0, r6
 614 0184 3946     		mov	r1, r7
 615 0186 FFF7FEFF 		bl	__aeabi_dadd
 616 018a 0246     		mov	r2, r0
 617 018c 0B46     		mov	r3, r1
 618 018e FFF7FEFF 		bl	__aeabi_dadd
 619 0192 53EC1B2B 		vmov	r2, r3, d11
 620 0196 C4E90201 		strd	r0, [r4, #8]
 621 019a 51EC1C0B 		vmov	r0, r1, d12
 622 019e FFF7FEFF 		bl	__aeabi_dsub
 623 01a2 D5E90223 		ldrd	r2, [r5, #8]
 624 01a6 FFF7FEFF 		bl	__aeabi_dmul
 625 01aa 53EC1D2B 		vmov	r2, r3, d13
 626 01ae 0646     		mov	r6, r0
 627 01b0 0F46     		mov	r7, r1
ARM GAS  /tmp/ccyb3iH1.s 			page 12


 628 01b2 51EC1E0B 		vmov	r0, r1, d14
 629 01b6 FFF7FEFF 		bl	__aeabi_dadd
 630 01ba 4246     		mov	r2, r8
 631 01bc 4B46     		mov	r3, r9
 632 01be FFF7FEFF 		bl	__aeabi_dmul
 633 01c2 0246     		mov	r2, r0
 634 01c4 0B46     		mov	r3, r1
 635 01c6 3046     		mov	r0, r6
 636 01c8 3946     		mov	r1, r7
 637 01ca FFF7FEFF 		bl	__aeabi_dadd
 638 01ce 5246     		mov	r2, r10
 639 01d0 0646     		mov	r6, r0
 640 01d2 0F46     		mov	r7, r1
 641 01d4 5B46     		mov	r3, fp
 642 01d6 5046     		mov	r0, r10
 643 01d8 5946     		mov	r1, fp
 644 01da FFF7FEFF 		bl	__aeabi_dmul
 645 01de 53EC1A2B 		vmov	r2, r3, d10
 646 01e2 FFF7FEFF 		bl	__aeabi_dadd
 647 01e6 53EC182B 		vmov	r2, r3, d8
 648 01ea FFF7FEFF 		bl	__aeabi_dmul
 649 01ee 0246     		mov	r2, r0
 650 01f0 0B46     		mov	r3, r1
 651 01f2 3046     		mov	r0, r6
 652 01f4 3946     		mov	r1, r7
 653 01f6 FFF7FEFF 		bl	__aeabi_dadd
 654 01fa 0246     		mov	r2, r0
 655 01fc 0B46     		mov	r3, r1
 656 01fe FFF7FEFF 		bl	__aeabi_dadd
 657 0202 C4E90401 		strd	r0, [r4, #16]
 658 0206 03B0     		add	sp, sp, #12
 659              		@ sp needed
 660 0208 BDEC108B 		vldm	sp!, {d8-d15}
 661 020c BDE8F08F 		pop	{r4, r5, r6, r7, r8, r9, r10, fp, pc}
 662              	.L15:
 663              		.align	2
 664              	.L14:
 665 0210 0000E03F 		.word	1071644672
 666              		.size	double_quat_vmult, .-double_quat_vmult
 667              		.section	.text.double_quat_comp,"ax",%progbits
 668              		.align	1
 669              		.p2align 4,,15
 670              		.global	double_quat_comp
 671              		.syntax unified
 672              		.thumb
 673              		.thumb_func
 674              		.fpu fpv4-sp-d16
 675              		.type	double_quat_comp, %function
 676              	double_quat_comp:
 677              		@ args = 0, pretend = 0, frame = 8
 678              		@ frame_needed = 0, uses_anonymous_args = 0
 679 0000 2DE9F04F 		push	{r4, r5, r6, r7, r8, r9, r10, fp, lr}
 680 0004 2DED0A8B 		vpush.64	{d8, d9, d10, d11, d12}
 681 0008 83B0     		sub	sp, sp, #12
 682 000a D2E90289 		ldrd	r8, [r2, #8]
 683 000e 91ED028B 		vldr.64	d8, [r1, #8]
 684 0012 0C46     		mov	r4, r1
ARM GAS  /tmp/ccyb3iH1.s 			page 13


 685 0014 1546     		mov	r5, r2
 686 0016 0190     		str	r0, [sp, #4]
 687 0018 D2E90023 		ldrd	r2, [r2]
 688 001c B0EE48CA 		vmov.f32	s24, s16
 689 0020 F0EE68CA 		vmov.f32	s25, s17
 690 0024 D1E90001 		ldrd	r0, [r1]
 691 0028 FFF7FEFF 		bl	__aeabi_dmul
 692 002c 4246     		mov	r2, r8
 693 002e 0646     		mov	r6, r0
 694 0030 0F46     		mov	r7, r1
 695 0032 4B46     		mov	r3, r9
 696 0034 51EC180B 		vmov	r0, r1, d8
 697 0038 FFF7FEFF 		bl	__aeabi_dmul
 698 003c 0246     		mov	r2, r0
 699 003e 0B46     		mov	r3, r1
 700 0040 3046     		mov	r0, r6
 701 0042 3946     		mov	r1, r7
 702 0044 FFF7FEFF 		bl	__aeabi_dsub
 703 0048 94ED047B 		vldr.64	d7, [r4, #16]
 704 004c 95ED046B 		vldr.64	d6, [r5, #16]
 705 0050 B0EE47BA 		vmov.f32	s22, s14
 706 0054 F0EE67BA 		vmov.f32	s23, s15
 707 0058 53EC162B 		vmov	r2, r3, d6
 708 005c B0EE468A 		vmov.f32	s16, s12
 709 0060 F0EE668A 		vmov.f32	s17, s13
 710 0064 0646     		mov	r6, r0
 711 0066 0F46     		mov	r7, r1
 712 0068 51EC170B 		vmov	r0, r1, d7
 713 006c FFF7FEFF 		bl	__aeabi_dmul
 714 0070 0246     		mov	r2, r0
 715 0072 0B46     		mov	r3, r1
 716 0074 3046     		mov	r0, r6
 717 0076 3946     		mov	r1, r7
 718 0078 FFF7FEFF 		bl	__aeabi_dsub
 719 007c D4E906AB 		ldrd	r10, [r4, #24]
 720 0080 95ED065B 		vldr.64	d5, [r5, #24]
 721 0084 0646     		mov	r6, r0
 722 0086 53EC152B 		vmov	r2, r3, d5
 723 008a B0EE459A 		vmov.f32	s18, s10
 724 008e F0EE659A 		vmov.f32	s19, s11
 725 0092 0F46     		mov	r7, r1
 726 0094 5046     		mov	r0, r10
 727 0096 5946     		mov	r1, fp
 728 0098 FFF7FEFF 		bl	__aeabi_dmul
 729 009c 0246     		mov	r2, r0
 730 009e 0B46     		mov	r3, r1
 731 00a0 3046     		mov	r0, r6
 732 00a2 3946     		mov	r1, r7
 733 00a4 FFF7FEFF 		bl	__aeabi_dsub
 734 00a8 019B     		ldr	r3, [sp, #4]
 735 00aa C3E90001 		strd	r0, [r3]
 736 00ae 94ED004B 		vldr.64	d4, [r4]
 737 00b2 4046     		mov	r0, r8
 738 00b4 53EC142B 		vmov	r2, r3, d4
 739 00b8 B0EE44AA 		vmov.f32	s20, s8
 740 00bc F0EE64AA 		vmov.f32	s21, s9
 741 00c0 4946     		mov	r1, r9
ARM GAS  /tmp/ccyb3iH1.s 			page 14


 742 00c2 FFF7FEFF 		bl	__aeabi_dmul
 743 00c6 D5E90089 		ldrd	r8, [r5]
 744 00ca 0646     		mov	r6, r0
 745 00cc 0F46     		mov	r7, r1
 746 00ce 4246     		mov	r2, r8
 747 00d0 4B46     		mov	r3, r9
 748 00d2 51EC1C0B 		vmov	r0, r1, d12
 749 00d6 FFF7FEFF 		bl	__aeabi_dmul
 750 00da 0246     		mov	r2, r0
 751 00dc 0B46     		mov	r3, r1
 752 00de 3046     		mov	r0, r6
 753 00e0 3946     		mov	r1, r7
 754 00e2 FFF7FEFF 		bl	__aeabi_dadd
 755 00e6 53EC192B 		vmov	r2, r3, d9
 756 00ea 0646     		mov	r6, r0
 757 00ec 0F46     		mov	r7, r1
 758 00ee 51EC1B0B 		vmov	r0, r1, d11
 759 00f2 FFF7FEFF 		bl	__aeabi_dmul
 760 00f6 0246     		mov	r2, r0
 761 00f8 0B46     		mov	r3, r1
 762 00fa 3046     		mov	r0, r6
 763 00fc 3946     		mov	r1, r7
 764 00fe FFF7FEFF 		bl	__aeabi_dadd
 765 0102 5246     		mov	r2, r10
 766 0104 0646     		mov	r6, r0
 767 0106 0F46     		mov	r7, r1
 768 0108 5B46     		mov	r3, fp
 769 010a 51EC180B 		vmov	r0, r1, d8
 770 010e FFF7FEFF 		bl	__aeabi_dmul
 771 0112 0246     		mov	r2, r0
 772 0114 0B46     		mov	r3, r1
 773 0116 3046     		mov	r0, r6
 774 0118 3946     		mov	r1, r7
 775 011a FFF7FEFF 		bl	__aeabi_dsub
 776 011e 019B     		ldr	r3, [sp, #4]
 777 0120 C3E90201 		strd	r0, [r3, #8]
 778 0124 53EC1A2B 		vmov	r2, r3, d10
 779 0128 51EC180B 		vmov	r0, r1, d8
 780 012c FFF7FEFF 		bl	__aeabi_dmul
 781 0130 94ED026B 		vldr.64	d6, [r4, #8]
 782 0134 0646     		mov	r6, r0
 783 0136 53EC162B 		vmov	r2, r3, d6
 784 013a B0EE46CA 		vmov.f32	s24, s12
 785 013e F0EE66CA 		vmov.f32	s25, s13
 786 0142 0F46     		mov	r7, r1
 787 0144 51EC190B 		vmov	r0, r1, d9
 788 0148 FFF7FEFF 		bl	__aeabi_dmul
 789 014c 0246     		mov	r2, r0
 790 014e 0B46     		mov	r3, r1
 791 0150 3046     		mov	r0, r6
 792 0152 3946     		mov	r1, r7
 793 0154 FFF7FEFF 		bl	__aeabi_dsub
 794 0158 4246     		mov	r2, r8
 795 015a 0646     		mov	r6, r0
 796 015c 0F46     		mov	r7, r1
 797 015e 4B46     		mov	r3, r9
 798 0160 51EC1B0B 		vmov	r0, r1, d11
ARM GAS  /tmp/ccyb3iH1.s 			page 15


 799 0164 FFF7FEFF 		bl	__aeabi_dmul
 800 0168 0246     		mov	r2, r0
 801 016a 0B46     		mov	r3, r1
 802 016c 3046     		mov	r0, r6
 803 016e 3946     		mov	r1, r7
 804 0170 95ED028B 		vldr.64	d8, [r5, #8]
 805 0174 FFF7FEFF 		bl	__aeabi_dadd
 806 0178 53EC182B 		vmov	r2, r3, d8
 807 017c 0646     		mov	r6, r0
 808 017e 0F46     		mov	r7, r1
 809 0180 5046     		mov	r0, r10
 810 0182 5946     		mov	r1, fp
 811 0184 FFF7FEFF 		bl	__aeabi_dmul
 812 0188 0246     		mov	r2, r0
 813 018a 0B46     		mov	r3, r1
 814 018c 3046     		mov	r0, r6
 815 018e 3946     		mov	r1, r7
 816 0190 FFF7FEFF 		bl	__aeabi_dadd
 817 0194 019B     		ldr	r3, [sp, #4]
 818 0196 C3E90401 		strd	r0, [r3, #16]
 819 019a 51EC1C0B 		vmov	r0, r1, d12
 820 019e D5E90423 		ldrd	r2, [r5, #16]
 821 01a2 FFF7FEFF 		bl	__aeabi_dmul
 822 01a6 53EC1A2B 		vmov	r2, r3, d10
 823 01aa 0646     		mov	r6, r0
 824 01ac 0F46     		mov	r7, r1
 825 01ae 51EC190B 		vmov	r0, r1, d9
 826 01b2 FFF7FEFF 		bl	__aeabi_dmul
 827 01b6 0246     		mov	r2, r0
 828 01b8 0B46     		mov	r3, r1
 829 01ba 3046     		mov	r0, r6
 830 01bc 3946     		mov	r1, r7
 831 01be FFF7FEFF 		bl	__aeabi_dadd
 832 01c2 D4E90423 		ldrd	r2, [r4, #16]
 833 01c6 0646     		mov	r6, r0
 834 01c8 0F46     		mov	r7, r1
 835 01ca 51EC180B 		vmov	r0, r1, d8
 836 01ce FFF7FEFF 		bl	__aeabi_dmul
 837 01d2 0246     		mov	r2, r0
 838 01d4 0B46     		mov	r3, r1
 839 01d6 3046     		mov	r0, r6
 840 01d8 3946     		mov	r1, r7
 841 01da FFF7FEFF 		bl	__aeabi_dsub
 842 01de 4246     		mov	r2, r8
 843 01e0 4B46     		mov	r3, r9
 844 01e2 0646     		mov	r6, r0
 845 01e4 0F46     		mov	r7, r1
 846 01e6 5046     		mov	r0, r10
 847 01e8 5946     		mov	r1, fp
 848 01ea FFF7FEFF 		bl	__aeabi_dmul
 849 01ee 0246     		mov	r2, r0
 850 01f0 0B46     		mov	r3, r1
 851 01f2 3046     		mov	r0, r6
 852 01f4 3946     		mov	r1, r7
 853 01f6 FFF7FEFF 		bl	__aeabi_dadd
 854 01fa 019B     		ldr	r3, [sp, #4]
 855 01fc C3E90601 		strd	r0, [r3, #24]
ARM GAS  /tmp/ccyb3iH1.s 			page 16


 856 0200 03B0     		add	sp, sp, #12
 857              		@ sp needed
 858 0202 BDEC0A8B 		vldm	sp!, {d8-d12}
 859 0206 BDE8F08F 		pop	{r4, r5, r6, r7, r8, r9, r10, fp, pc}
 860              		.size	double_quat_comp, .-double_quat_comp
 861 020a 00BF     		.section	.text.double_rmat_inv,"ax",%progbits
 862              		.align	1
 863              		.p2align 4,,15
 864              		.global	double_rmat_inv
 865              		.syntax unified
 866              		.thumb
 867              		.thumb_func
 868              		.fpu fpv4-sp-d16
 869              		.type	double_rmat_inv, %function
 870              	double_rmat_inv:
 871              		@ args = 0, pretend = 0, frame = 0
 872              		@ frame_needed = 0, uses_anonymous_args = 0
 873              		@ link register save eliminated.
 874 0000 D1E90623 		ldrd	r2, [r1, #24]
 875 0004 C0E90223 		strd	r2, [r0, #8]
 876 0008 D1E90C23 		ldrd	r2, [r1, #48]
 877 000c C0E90423 		strd	r2, [r0, #16]
 878 0010 D1E90223 		ldrd	r2, [r1, #8]
 879 0014 C0E90623 		strd	r2, [r0, #24]
 880 0018 D1E90E23 		ldrd	r2, [r1, #56]
 881 001c C0E90A23 		strd	r2, [r0, #40]
 882 0020 91ED047B 		vldr.64	d7, [r1, #16]
 883 0024 D1E90A23 		ldrd	r2, [r1, #40]
 884 0028 80ED0C7B 		vstr.64	d7, [r0, #48]
 885 002c C0E90E23 		strd	r2, [r0, #56]
 886 0030 7047     		bx	lr
 887              		.size	double_rmat_inv, .-double_rmat_inv
 888 0032 00BF     		.section	.text.double_rmat_comp,"ax",%progbits
 889              		.align	1
 890              		.p2align 4,,15
 891              		.global	double_rmat_comp
 892              		.syntax unified
 893              		.thumb
 894              		.thumb_func
 895              		.fpu fpv4-sp-d16
 896              		.type	double_rmat_comp, %function
 897              	double_rmat_comp:
 898              		@ args = 0, pretend = 0, frame = 16
 899              		@ frame_needed = 0, uses_anonymous_args = 0
 900 0000 2DE9F04F 		push	{r4, r5, r6, r7, r8, r9, r10, fp, lr}
 901 0004 2DED108B 		vpush.64	{d8, d9, d10, d11, d12, d13, d14, d15}
 902 0008 85B0     		sub	sp, sp, #20
 903 000a 1446     		mov	r4, r2
 904 000c 0D46     		mov	r5, r1
 905 000e D2E902AB 		ldrd	r10, [r2, #8]
 906 0012 91ED068B 		vldr.64	d8, [r1, #24]
 907 0016 D1E90023 		ldrd	r2, [r1]
 908 001a B0EE48CA 		vmov.f32	s24, s16
 909 001e F0EE68CA 		vmov.f32	s25, s17
 910 0022 0190     		str	r0, [sp, #4]
 911 0024 D4E90001 		ldrd	r0, [r4]
 912 0028 FFF7FEFF 		bl	__aeabi_dmul
ARM GAS  /tmp/ccyb3iH1.s 			page 17


 913 002c 53EC182B 		vmov	r2, r3, d8
 914 0030 0646     		mov	r6, r0
 915 0032 0F46     		mov	r7, r1
 916 0034 5046     		mov	r0, r10
 917 0036 5946     		mov	r1, fp
 918 0038 FFF7FEFF 		bl	__aeabi_dmul
 919 003c 0246     		mov	r2, r0
 920 003e 0B46     		mov	r3, r1
 921 0040 3046     		mov	r0, r6
 922 0042 3946     		mov	r1, r7
 923 0044 FFF7FEFF 		bl	__aeabi_dadd
 924 0048 95ED0C7B 		vldr.64	d7, [r5, #48]
 925 004c D4E90489 		ldrd	r8, [r4, #16]
 926 0050 B0EE47AA 		vmov.f32	s20, s14
 927 0054 F0EE67AA 		vmov.f32	s21, s15
 928 0058 53EC172B 		vmov	r2, r3, d7
 929 005c 0646     		mov	r6, r0
 930 005e 0F46     		mov	r7, r1
 931 0060 4046     		mov	r0, r8
 932 0062 4946     		mov	r1, r9
 933 0064 FFF7FEFF 		bl	__aeabi_dmul
 934 0068 0246     		mov	r2, r0
 935 006a 0B46     		mov	r3, r1
 936 006c 3046     		mov	r0, r6
 937 006e 3946     		mov	r1, r7
 938 0070 FFF7FEFF 		bl	__aeabi_dadd
 939 0074 019B     		ldr	r3, [sp, #4]
 940 0076 95ED086B 		vldr.64	d6, [r5, #32]
 941 007a C3E90001 		strd	r0, [r3]
 942 007e B0EE468A 		vmov.f32	s16, s12
 943 0082 F0EE668A 		vmov.f32	s17, s13
 944 0086 94ED006B 		vldr.64	d6, [r4]
 945 008a D5E90223 		ldrd	r2, [r5, #8]
 946 008e B0EE46BA 		vmov.f32	s22, s12
 947 0092 F0EE66BA 		vmov.f32	s23, s13
 948 0096 51EC160B 		vmov	r0, r1, d6
 949 009a FFF7FEFF 		bl	__aeabi_dmul
 950 009e 53EC182B 		vmov	r2, r3, d8
 951 00a2 0646     		mov	r6, r0
 952 00a4 0F46     		mov	r7, r1
 953 00a6 5046     		mov	r0, r10
 954 00a8 5946     		mov	r1, fp
 955 00aa 8DED028B 		vstr.64	d8, [sp, #8]
 956 00ae FFF7FEFF 		bl	__aeabi_dmul
 957 00b2 0246     		mov	r2, r0
 958 00b4 0B46     		mov	r3, r1
 959 00b6 3046     		mov	r0, r6
 960 00b8 3946     		mov	r1, r7
 961 00ba FFF7FEFF 		bl	__aeabi_dadd
 962 00be 95ED0E9B 		vldr.64	d9, [r5, #56]
 963 00c2 0646     		mov	r6, r0
 964 00c4 53EC192B 		vmov	r2, r3, d9
 965 00c8 B0EE498A 		vmov.f32	s16, s18
 966 00cc F0EE698A 		vmov.f32	s17, s19
 967 00d0 0F46     		mov	r7, r1
 968 00d2 4046     		mov	r0, r8
 969 00d4 4946     		mov	r1, r9
ARM GAS  /tmp/ccyb3iH1.s 			page 18


 970 00d6 FFF7FEFF 		bl	__aeabi_dmul
 971 00da 0246     		mov	r2, r0
 972 00dc 0B46     		mov	r3, r1
 973 00de 3046     		mov	r0, r6
 974 00e0 3946     		mov	r1, r7
 975 00e2 FFF7FEFF 		bl	__aeabi_dadd
 976 00e6 95ED0A6B 		vldr.64	d6, [r5, #40]
 977 00ea 019B     		ldr	r3, [sp, #4]
 978 00ec B0EE46FA 		vmov.f32	s30, s12
 979 00f0 F0EE66FA 		vmov.f32	s31, s13
 980 00f4 C3E90201 		strd	r0, [r3, #8]
 981 00f8 D5E90423 		ldrd	r2, [r5, #16]
 982 00fc 51EC1B0B 		vmov	r0, r1, d11
 983 0100 B0EE4ABA 		vmov.f32	s22, s20
 984 0104 F0EE6ABA 		vmov.f32	s23, s21
 985 0108 FFF7FEFF 		bl	__aeabi_dmul
 986 010c D4E90223 		ldrd	r2, [r4, #8]
 987 0110 0646     		mov	r6, r0
 988 0112 0F46     		mov	r7, r1
 989 0114 51EC1F0B 		vmov	r0, r1, d15
 990 0118 FFF7FEFF 		bl	__aeabi_dmul
 991 011c 0246     		mov	r2, r0
 992 011e 0B46     		mov	r3, r1
 993 0120 3046     		mov	r0, r6
 994 0122 3946     		mov	r1, r7
 995 0124 FFF7FEFF 		bl	__aeabi_dadd
 996 0128 95ED106B 		vldr.64	d6, [r5, #64]
 997 012c 0646     		mov	r6, r0
 998 012e 53EC162B 		vmov	r2, r3, d6
 999 0132 B0EE469A 		vmov.f32	s18, s12
 1000 0136 F0EE669A 		vmov.f32	s19, s13
 1001 013a 0F46     		mov	r7, r1
 1002 013c 4046     		mov	r0, r8
 1003 013e 4946     		mov	r1, r9
 1004 0140 FFF7FEFF 		bl	__aeabi_dmul
 1005 0144 0246     		mov	r2, r0
 1006 0146 0B46     		mov	r3, r1
 1007 0148 3046     		mov	r0, r6
 1008 014a 3946     		mov	r1, r7
 1009 014c FFF7FEFF 		bl	__aeabi_dadd
 1010 0150 019B     		ldr	r3, [sp, #4]
 1011 0152 C3E90401 		strd	r0, [r3, #16]
 1012 0156 95ED005B 		vldr.64	d5, [r5]
 1013 015a D4E90623 		ldrd	r2, [r4, #24]
 1014 015e B0EE45EA 		vmov.f32	s28, s10
 1015 0162 F0EE65EA 		vmov.f32	s29, s11
 1016 0166 51EC150B 		vmov	r0, r1, d5
 1017 016a FFF7FEFF 		bl	__aeabi_dmul
 1018 016e D4E908AB 		ldrd	r10, [r4, #32]
 1019 0172 0646     		mov	r6, r0
 1020 0174 0F46     		mov	r7, r1
 1021 0176 5246     		mov	r2, r10
 1022 0178 5B46     		mov	r3, fp
 1023 017a 51EC1C0B 		vmov	r0, r1, d12
 1024 017e FFF7FEFF 		bl	__aeabi_dmul
 1025 0182 0246     		mov	r2, r0
 1026 0184 0B46     		mov	r3, r1
ARM GAS  /tmp/ccyb3iH1.s 			page 19


 1027 0186 3046     		mov	r0, r6
 1028 0188 3946     		mov	r1, r7
 1029 018a FFF7FEFF 		bl	__aeabi_dadd
 1030 018e D4E90A89 		ldrd	r8, [r4, #40]
 1031 0192 0646     		mov	r6, r0
 1032 0194 0F46     		mov	r7, r1
 1033 0196 4246     		mov	r2, r8
 1034 0198 4B46     		mov	r3, r9
 1035 019a 51EC1A0B 		vmov	r0, r1, d10
 1036 019e B0EE48AA 		vmov.f32	s20, s16
 1037 01a2 F0EE68AA 		vmov.f32	s21, s17
 1038 01a6 FFF7FEFF 		bl	__aeabi_dmul
 1039 01aa 0246     		mov	r2, r0
 1040 01ac 0B46     		mov	r3, r1
 1041 01ae 3046     		mov	r0, r6
 1042 01b0 3946     		mov	r1, r7
 1043 01b2 FFF7FEFF 		bl	__aeabi_dadd
 1044 01b6 019B     		ldr	r3, [sp, #4]
 1045 01b8 C3E90601 		strd	r0, [r3, #24]
 1046 01bc 95ED024B 		vldr.64	d4, [r5, #8]
 1047 01c0 94ED063B 		vldr.64	d3, [r4, #24]
 1048 01c4 B0EE44DA 		vmov.f32	s26, s8
 1049 01c8 F0EE64DA 		vmov.f32	s27, s9
 1050 01cc 53EC142B 		vmov	r2, r3, d4
 1051 01d0 B0EE43CA 		vmov.f32	s24, s6
 1052 01d4 F0EE63CA 		vmov.f32	s25, s7
 1053 01d8 51EC130B 		vmov	r0, r1, d3
 1054 01dc FFF7FEFF 		bl	__aeabi_dmul
 1055 01e0 5246     		mov	r2, r10
 1056 01e2 5B46     		mov	r3, fp
 1057 01e4 0646     		mov	r6, r0
 1058 01e6 0F46     		mov	r7, r1
 1059 01e8 DDE90201 		ldrd	r0, [sp, #8]
 1060 01ec FFF7FEFF 		bl	__aeabi_dmul
 1061 01f0 0246     		mov	r2, r0
 1062 01f2 0B46     		mov	r3, r1
 1063 01f4 3046     		mov	r0, r6
 1064 01f6 3946     		mov	r1, r7
 1065 01f8 FFF7FEFF 		bl	__aeabi_dadd
 1066 01fc 4246     		mov	r2, r8
 1067 01fe 0646     		mov	r6, r0
 1068 0200 0F46     		mov	r7, r1
 1069 0202 4B46     		mov	r3, r9
 1070 0204 51EC180B 		vmov	r0, r1, d8
 1071 0208 FFF7FEFF 		bl	__aeabi_dmul
 1072 020c 0246     		mov	r2, r0
 1073 020e 0B46     		mov	r3, r1
 1074 0210 3046     		mov	r0, r6
 1075 0212 3946     		mov	r1, r7
 1076 0214 FFF7FEFF 		bl	__aeabi_dadd
 1077 0218 019B     		ldr	r3, [sp, #4]
 1078 021a C3E90801 		strd	r0, [r3, #32]
 1079 021e 51EC1F0B 		vmov	r0, r1, d15
 1080 0222 D4E90823 		ldrd	r2, [r4, #32]
 1081 0226 FFF7FEFF 		bl	__aeabi_dmul
 1082 022a 95ED048B 		vldr.64	d8, [r5, #16]
 1083 022e 0646     		mov	r6, r0
ARM GAS  /tmp/ccyb3iH1.s 			page 20


 1084 0230 53EC182B 		vmov	r2, r3, d8
 1085 0234 0F46     		mov	r7, r1
 1086 0236 51EC1C0B 		vmov	r0, r1, d12
 1087 023a FFF7FEFF 		bl	__aeabi_dmul
 1088 023e 0246     		mov	r2, r0
 1089 0240 0B46     		mov	r3, r1
 1090 0242 3046     		mov	r0, r6
 1091 0244 3946     		mov	r1, r7
 1092 0246 FFF7FEFF 		bl	__aeabi_dadd
 1093 024a 4246     		mov	r2, r8
 1094 024c 4B46     		mov	r3, r9
 1095 024e 0646     		mov	r6, r0
 1096 0250 0F46     		mov	r7, r1
 1097 0252 51EC190B 		vmov	r0, r1, d9
 1098 0256 FFF7FEFF 		bl	__aeabi_dmul
 1099 025a 0246     		mov	r2, r0
 1100 025c 0B46     		mov	r3, r1
 1101 025e 3046     		mov	r0, r6
 1102 0260 3946     		mov	r1, r7
 1103 0262 FFF7FEFF 		bl	__aeabi_dadd
 1104 0266 019B     		ldr	r3, [sp, #4]
 1105 0268 C3E90A01 		strd	r0, [r3, #40]
 1106 026c D4E90C23 		ldrd	r2, [r4, #48]
 1107 0270 51EC1E0B 		vmov	r0, r1, d14
 1108 0274 FFF7FEFF 		bl	__aeabi_dmul
 1109 0278 D4E90E89 		ldrd	r8, [r4, #56]
 1110 027c D5E90623 		ldrd	r2, [r5, #24]
 1111 0280 0646     		mov	r6, r0
 1112 0282 0F46     		mov	r7, r1
 1113 0284 4046     		mov	r0, r8
 1114 0286 4946     		mov	r1, r9
 1115 0288 FFF7FEFF 		bl	__aeabi_dmul
 1116 028c 0246     		mov	r2, r0
 1117 028e 0B46     		mov	r3, r1
 1118 0290 3046     		mov	r0, r6
 1119 0292 3946     		mov	r1, r7
 1120 0294 FFF7FEFF 		bl	__aeabi_dadd
 1121 0298 D4E910AB 		ldrd	r10, [r4, #64]
 1122 029c 0646     		mov	r6, r0
 1123 029e 0F46     		mov	r7, r1
 1124 02a0 5246     		mov	r2, r10
 1125 02a2 5B46     		mov	r3, fp
 1126 02a4 51EC1B0B 		vmov	r0, r1, d11
 1127 02a8 FFF7FEFF 		bl	__aeabi_dmul
 1128 02ac 0246     		mov	r2, r0
 1129 02ae 0B46     		mov	r3, r1
 1130 02b0 3046     		mov	r0, r6
 1131 02b2 3946     		mov	r1, r7
 1132 02b4 FFF7FEFF 		bl	__aeabi_dadd
 1133 02b8 019B     		ldr	r3, [sp, #4]
 1134 02ba C3E90C01 		strd	r0, [r3, #48]
 1135 02be D5E90823 		ldrd	r2, [r5, #32]
 1136 02c2 4046     		mov	r0, r8
 1137 02c4 4946     		mov	r1, r9
 1138 02c6 FFF7FEFF 		bl	__aeabi_dmul
 1139 02ca D4E90C89 		ldrd	r8, [r4, #48]
 1140 02ce 0646     		mov	r6, r0
ARM GAS  /tmp/ccyb3iH1.s 			page 21


 1141 02d0 0F46     		mov	r7, r1
 1142 02d2 4246     		mov	r2, r8
 1143 02d4 4B46     		mov	r3, r9
 1144 02d6 51EC1D0B 		vmov	r0, r1, d13
 1145 02da FFF7FEFF 		bl	__aeabi_dmul
 1146 02de 0246     		mov	r2, r0
 1147 02e0 0B46     		mov	r3, r1
 1148 02e2 3046     		mov	r0, r6
 1149 02e4 3946     		mov	r1, r7
 1150 02e6 FFF7FEFF 		bl	__aeabi_dadd
 1151 02ea 5246     		mov	r2, r10
 1152 02ec 0646     		mov	r6, r0
 1153 02ee 0F46     		mov	r7, r1
 1154 02f0 5B46     		mov	r3, fp
 1155 02f2 51EC1A0B 		vmov	r0, r1, d10
 1156 02f6 FFF7FEFF 		bl	__aeabi_dmul
 1157 02fa 0246     		mov	r2, r0
 1158 02fc 0B46     		mov	r3, r1
 1159 02fe 3046     		mov	r0, r6
 1160 0300 3946     		mov	r1, r7
 1161 0302 FFF7FEFF 		bl	__aeabi_dadd
 1162 0306 019B     		ldr	r3, [sp, #4]
 1163 0308 C3E90E01 		strd	r0, [r3, #56]
 1164 030c D5E90A23 		ldrd	r2, [r5, #40]
 1165 0310 D4E90E01 		ldrd	r0, [r4, #56]
 1166 0314 FFF7FEFF 		bl	__aeabi_dmul
 1167 0318 4246     		mov	r2, r8
 1168 031a 4B46     		mov	r3, r9
 1169 031c 0646     		mov	r6, r0
 1170 031e 0F46     		mov	r7, r1
 1171 0320 51EC180B 		vmov	r0, r1, d8
 1172 0324 FFF7FEFF 		bl	__aeabi_dmul
 1173 0328 0246     		mov	r2, r0
 1174 032a 0B46     		mov	r3, r1
 1175 032c 3046     		mov	r0, r6
 1176 032e 3946     		mov	r1, r7
 1177 0330 FFF7FEFF 		bl	__aeabi_dadd
 1178 0334 5246     		mov	r2, r10
 1179 0336 5B46     		mov	r3, fp
 1180 0338 0646     		mov	r6, r0
 1181 033a 0F46     		mov	r7, r1
 1182 033c 51EC190B 		vmov	r0, r1, d9
 1183 0340 FFF7FEFF 		bl	__aeabi_dmul
 1184 0344 0246     		mov	r2, r0
 1185 0346 0B46     		mov	r3, r1
 1186 0348 3046     		mov	r0, r6
 1187 034a 3946     		mov	r1, r7
 1188 034c FFF7FEFF 		bl	__aeabi_dadd
 1189 0350 019B     		ldr	r3, [sp, #4]
 1190 0352 C3E91001 		strd	r0, [r3, #64]
 1191 0356 05B0     		add	sp, sp, #20
 1192              		@ sp needed
 1193 0358 BDEC108B 		vldm	sp!, {d8-d15}
 1194 035c BDE8F08F 		pop	{r4, r5, r6, r7, r8, r9, r10, fp, pc}
 1195              		.size	double_rmat_comp, .-double_rmat_comp
 1196              		.section	.text.double_rmat_vmult,"ax",%progbits
 1197              		.align	1
ARM GAS  /tmp/ccyb3iH1.s 			page 22


 1198              		.p2align 4,,15
 1199              		.global	double_rmat_vmult
 1200              		.syntax unified
 1201              		.thumb
 1202              		.thumb_func
 1203              		.fpu fpv4-sp-d16
 1204              		.type	double_rmat_vmult, %function
 1205              	double_rmat_vmult:
 1206              		@ args = 0, pretend = 0, frame = 8
 1207              		@ frame_needed = 0, uses_anonymous_args = 0
 1208 0000 2DE9F04F 		push	{r4, r5, r6, r7, r8, r9, r10, fp, lr}
 1209 0004 2DED028B 		vpush.64	{d8}
 1210 0008 83B0     		sub	sp, sp, #12
 1211 000a 0C46     		mov	r4, r1
 1212 000c D2E902AB 		ldrd	r10, [r2, #8]
 1213 0010 1546     		mov	r5, r2
 1214 0012 0190     		str	r0, [sp, #4]
 1215 0014 D2E90023 		ldrd	r2, [r2]
 1216 0018 D1E90001 		ldrd	r0, [r1]
 1217 001c FFF7FEFF 		bl	__aeabi_dmul
 1218 0020 D4E90223 		ldrd	r2, [r4, #8]
 1219 0024 8046     		mov	r8, r0
 1220 0026 8946     		mov	r9, r1
 1221 0028 5046     		mov	r0, r10
 1222 002a 5946     		mov	r1, fp
 1223 002c FFF7FEFF 		bl	__aeabi_dmul
 1224 0030 0246     		mov	r2, r0
 1225 0032 0B46     		mov	r3, r1
 1226 0034 4046     		mov	r0, r8
 1227 0036 4946     		mov	r1, r9
 1228 0038 FFF7FEFF 		bl	__aeabi_dadd
 1229 003c D5E90467 		ldrd	r6, [r5, #16]
 1230 0040 D4E90423 		ldrd	r2, [r4, #16]
 1231 0044 8046     		mov	r8, r0
 1232 0046 8946     		mov	r9, r1
 1233 0048 3046     		mov	r0, r6
 1234 004a 3946     		mov	r1, r7
 1235 004c FFF7FEFF 		bl	__aeabi_dmul
 1236 0050 0246     		mov	r2, r0
 1237 0052 0B46     		mov	r3, r1
 1238 0054 4046     		mov	r0, r8
 1239 0056 4946     		mov	r1, r9
 1240 0058 FFF7FEFF 		bl	__aeabi_dadd
 1241 005c 019B     		ldr	r3, [sp, #4]
 1242 005e C3E90001 		strd	r0, [r3]
 1243 0062 95ED007B 		vldr.64	d7, [r5]
 1244 0066 D4E90623 		ldrd	r2, [r4, #24]
 1245 006a B0EE478A 		vmov.f32	s16, s14
 1246 006e F0EE678A 		vmov.f32	s17, s15
 1247 0072 51EC170B 		vmov	r0, r1, d7
 1248 0076 FFF7FEFF 		bl	__aeabi_dmul
 1249 007a D4E90823 		ldrd	r2, [r4, #32]
 1250 007e 8046     		mov	r8, r0
 1251 0080 8946     		mov	r9, r1
 1252 0082 5046     		mov	r0, r10
 1253 0084 5946     		mov	r1, fp
 1254 0086 FFF7FEFF 		bl	__aeabi_dmul
ARM GAS  /tmp/ccyb3iH1.s 			page 23


 1255 008a 0246     		mov	r2, r0
 1256 008c 0B46     		mov	r3, r1
 1257 008e 4046     		mov	r0, r8
 1258 0090 4946     		mov	r1, r9
 1259 0092 FFF7FEFF 		bl	__aeabi_dadd
 1260 0096 D4E90A23 		ldrd	r2, [r4, #40]
 1261 009a 8046     		mov	r8, r0
 1262 009c 8946     		mov	r9, r1
 1263 009e 3046     		mov	r0, r6
 1264 00a0 3946     		mov	r1, r7
 1265 00a2 FFF7FEFF 		bl	__aeabi_dmul
 1266 00a6 0246     		mov	r2, r0
 1267 00a8 0B46     		mov	r3, r1
 1268 00aa 4046     		mov	r0, r8
 1269 00ac 4946     		mov	r1, r9
 1270 00ae FFF7FEFF 		bl	__aeabi_dadd
 1271 00b2 019B     		ldr	r3, [sp, #4]
 1272 00b4 C3E90201 		strd	r0, [r3, #8]
 1273 00b8 D4E90E01 		ldrd	r0, [r4, #56]
 1274 00bc D5E90223 		ldrd	r2, [r5, #8]
 1275 00c0 FFF7FEFF 		bl	__aeabi_dmul
 1276 00c4 D4E90C23 		ldrd	r2, [r4, #48]
 1277 00c8 8046     		mov	r8, r0
 1278 00ca 8946     		mov	r9, r1
 1279 00cc 51EC180B 		vmov	r0, r1, d8
 1280 00d0 FFF7FEFF 		bl	__aeabi_dmul
 1281 00d4 0246     		mov	r2, r0
 1282 00d6 0B46     		mov	r3, r1
 1283 00d8 4046     		mov	r0, r8
 1284 00da 4946     		mov	r1, r9
 1285 00dc FFF7FEFF 		bl	__aeabi_dadd
 1286 00e0 D4E91023 		ldrd	r2, [r4, #64]
 1287 00e4 8046     		mov	r8, r0
 1288 00e6 8946     		mov	r9, r1
 1289 00e8 3046     		mov	r0, r6
 1290 00ea 3946     		mov	r1, r7
 1291 00ec FFF7FEFF 		bl	__aeabi_dmul
 1292 00f0 0246     		mov	r2, r0
 1293 00f2 0B46     		mov	r3, r1
 1294 00f4 4046     		mov	r0, r8
 1295 00f6 4946     		mov	r1, r9
 1296 00f8 FFF7FEFF 		bl	__aeabi_dadd
 1297 00fc 019B     		ldr	r3, [sp, #4]
 1298 00fe C3E90401 		strd	r0, [r3, #16]
 1299 0102 03B0     		add	sp, sp, #12
 1300              		@ sp needed
 1301 0104 BDEC028B 		vldm	sp!, {d8}
 1302 0108 BDE8F08F 		pop	{r4, r5, r6, r7, r8, r9, r10, fp, pc}
 1303              		.size	double_rmat_vmult, .-double_rmat_vmult
 1304              		.section	.text.double_rmat_transp_vmult,"ax",%progbits
 1305              		.align	1
 1306              		.p2align 4,,15
 1307              		.global	double_rmat_transp_vmult
 1308              		.syntax unified
 1309              		.thumb
 1310              		.thumb_func
 1311              		.fpu fpv4-sp-d16
ARM GAS  /tmp/ccyb3iH1.s 			page 24


 1312              		.type	double_rmat_transp_vmult, %function
 1313              	double_rmat_transp_vmult:
 1314              		@ args = 0, pretend = 0, frame = 8
 1315              		@ frame_needed = 0, uses_anonymous_args = 0
 1316 0000 2DE9F04F 		push	{r4, r5, r6, r7, r8, r9, r10, fp, lr}
 1317 0004 2DED028B 		vpush.64	{d8}
 1318 0008 83B0     		sub	sp, sp, #12
 1319 000a 0C46     		mov	r4, r1
 1320 000c D2E902AB 		ldrd	r10, [r2, #8]
 1321 0010 1546     		mov	r5, r2
 1322 0012 0190     		str	r0, [sp, #4]
 1323 0014 D2E90023 		ldrd	r2, [r2]
 1324 0018 D1E90001 		ldrd	r0, [r1]
 1325 001c FFF7FEFF 		bl	__aeabi_dmul
 1326 0020 D4E90623 		ldrd	r2, [r4, #24]
 1327 0024 8046     		mov	r8, r0
 1328 0026 8946     		mov	r9, r1
 1329 0028 5046     		mov	r0, r10
 1330 002a 5946     		mov	r1, fp
 1331 002c FFF7FEFF 		bl	__aeabi_dmul
 1332 0030 0246     		mov	r2, r0
 1333 0032 0B46     		mov	r3, r1
 1334 0034 4046     		mov	r0, r8
 1335 0036 4946     		mov	r1, r9
 1336 0038 FFF7FEFF 		bl	__aeabi_dadd
 1337 003c D5E90467 		ldrd	r6, [r5, #16]
 1338 0040 D4E90C23 		ldrd	r2, [r4, #48]
 1339 0044 8046     		mov	r8, r0
 1340 0046 8946     		mov	r9, r1
 1341 0048 3046     		mov	r0, r6
 1342 004a 3946     		mov	r1, r7
 1343 004c FFF7FEFF 		bl	__aeabi_dmul
 1344 0050 0246     		mov	r2, r0
 1345 0052 0B46     		mov	r3, r1
 1346 0054 4046     		mov	r0, r8
 1347 0056 4946     		mov	r1, r9
 1348 0058 FFF7FEFF 		bl	__aeabi_dadd
 1349 005c 019B     		ldr	r3, [sp, #4]
 1350 005e C3E90001 		strd	r0, [r3]
 1351 0062 95ED007B 		vldr.64	d7, [r5]
 1352 0066 D4E90223 		ldrd	r2, [r4, #8]
 1353 006a B0EE478A 		vmov.f32	s16, s14
 1354 006e F0EE678A 		vmov.f32	s17, s15
 1355 0072 51EC170B 		vmov	r0, r1, d7
 1356 0076 FFF7FEFF 		bl	__aeabi_dmul
 1357 007a D4E90823 		ldrd	r2, [r4, #32]
 1358 007e 8046     		mov	r8, r0
 1359 0080 8946     		mov	r9, r1
 1360 0082 5046     		mov	r0, r10
 1361 0084 5946     		mov	r1, fp
 1362 0086 FFF7FEFF 		bl	__aeabi_dmul
 1363 008a 0246     		mov	r2, r0
 1364 008c 0B46     		mov	r3, r1
 1365 008e 4046     		mov	r0, r8
 1366 0090 4946     		mov	r1, r9
 1367 0092 FFF7FEFF 		bl	__aeabi_dadd
 1368 0096 D4E90E23 		ldrd	r2, [r4, #56]
ARM GAS  /tmp/ccyb3iH1.s 			page 25


 1369 009a 8046     		mov	r8, r0
 1370 009c 8946     		mov	r9, r1
 1371 009e 3046     		mov	r0, r6
 1372 00a0 3946     		mov	r1, r7
 1373 00a2 FFF7FEFF 		bl	__aeabi_dmul
 1374 00a6 0246     		mov	r2, r0
 1375 00a8 0B46     		mov	r3, r1
 1376 00aa 4046     		mov	r0, r8
 1377 00ac 4946     		mov	r1, r9
 1378 00ae FFF7FEFF 		bl	__aeabi_dadd
 1379 00b2 019B     		ldr	r3, [sp, #4]
 1380 00b4 C3E90201 		strd	r0, [r3, #8]
 1381 00b8 D4E90A01 		ldrd	r0, [r4, #40]
 1382 00bc D5E90223 		ldrd	r2, [r5, #8]
 1383 00c0 FFF7FEFF 		bl	__aeabi_dmul
 1384 00c4 D4E90423 		ldrd	r2, [r4, #16]
 1385 00c8 8046     		mov	r8, r0
 1386 00ca 8946     		mov	r9, r1
 1387 00cc 51EC180B 		vmov	r0, r1, d8
 1388 00d0 FFF7FEFF 		bl	__aeabi_dmul
 1389 00d4 0246     		mov	r2, r0
 1390 00d6 0B46     		mov	r3, r1
 1391 00d8 4046     		mov	r0, r8
 1392 00da 4946     		mov	r1, r9
 1393 00dc FFF7FEFF 		bl	__aeabi_dadd
 1394 00e0 D4E91023 		ldrd	r2, [r4, #64]
 1395 00e4 8046     		mov	r8, r0
 1396 00e6 8946     		mov	r9, r1
 1397 00e8 3046     		mov	r0, r6
 1398 00ea 3946     		mov	r1, r7
 1399 00ec FFF7FEFF 		bl	__aeabi_dmul
 1400 00f0 0246     		mov	r2, r0
 1401 00f2 0B46     		mov	r3, r1
 1402 00f4 4046     		mov	r0, r8
 1403 00f6 4946     		mov	r1, r9
 1404 00f8 FFF7FEFF 		bl	__aeabi_dadd
 1405 00fc 019B     		ldr	r3, [sp, #4]
 1406 00fe C3E90401 		strd	r0, [r3, #16]
 1407 0102 03B0     		add	sp, sp, #12
 1408              		@ sp needed
 1409 0104 BDEC028B 		vldm	sp!, {d8}
 1410 0108 BDE8F08F 		pop	{r4, r5, r6, r7, r8, r9, r10, fp, pc}
 1411              		.size	double_rmat_transp_vmult, .-double_rmat_transp_vmult
 1412              		.section	.text.double_rmat_of_quat,"ax",%progbits
 1413              		.align	1
 1414              		.p2align 4,,15
 1415              		.global	double_rmat_of_quat
 1416              		.syntax unified
 1417              		.thumb
 1418              		.thumb_func
 1419              		.fpu fpv4-sp-d16
 1420              		.type	double_rmat_of_quat, %function
 1421              	double_rmat_of_quat:
 1422              		@ args = 0, pretend = 0, frame = 0
 1423              		@ frame_needed = 0, uses_anonymous_args = 0
 1424 0000 2DE9F84F 		push	{r3, r4, r5, r6, r7, r8, r9, r10, fp, lr}
 1425 0004 8246     		mov	r10, r0
ARM GAS  /tmp/ccyb3iH1.s 			page 26


 1426 0006 2DED0E8B 		vpush.64	{d8, d9, d10, d11, d12, d13, d14}
 1427 000a 8B46     		mov	fp, r1
 1428 000c 5FA3     		adr	r3, .L27+4
 1429 000e D3E90023 		ldrd	r2, [r3]
 1430 0012 D1E90001 		ldrd	r0, [r1]
 1431 0016 FFF7FEFF 		bl	__aeabi_dmul
 1432 001a 5CA3     		adr	r3, .L27+4
 1433 001c D3E90023 		ldrd	r2, [r3]
 1434 0020 0446     		mov	r4, r0
 1435 0022 0D46     		mov	r5, r1
 1436 0024 DBE90201 		ldrd	r0, [fp, #8]
 1437 0028 FFF7FEFF 		bl	__aeabi_dmul
 1438 002c 57A3     		adr	r3, .L27+4
 1439 002e D3E90023 		ldrd	r2, [r3]
 1440 0032 8046     		mov	r8, r0
 1441 0034 8946     		mov	r9, r1
 1442 0036 DBE90401 		ldrd	r0, [fp, #16]
 1443 003a FFF7FEFF 		bl	__aeabi_dmul
 1444 003e 53A3     		adr	r3, .L27+4
 1445 0040 D3E90023 		ldrd	r2, [r3]
 1446 0044 0646     		mov	r6, r0
 1447 0046 0F46     		mov	r7, r1
 1448 0048 DBE90601 		ldrd	r0, [fp, #24]
 1449 004c FFF7FEFF 		bl	__aeabi_dmul
 1450 0050 2246     		mov	r2, r4
 1451 0052 41EC180B 		vmov	d8, r0, r1
 1452 0056 2B46     		mov	r3, r5
 1453 0058 2046     		mov	r0, r4
 1454 005a 2946     		mov	r1, r5
 1455 005c FFF7FEFF 		bl	__aeabi_dmul
 1456 0060 494B     		ldr	r3, .L27
 1457 0062 0022     		movs	r2, #0
 1458 0064 FFF7FEFF 		bl	__aeabi_dsub
 1459 0068 4246     		mov	r2, r8
 1460 006a 41EC190B 		vmov	d9, r0, r1
 1461 006e 4B46     		mov	r3, r9
 1462 0070 2046     		mov	r0, r4
 1463 0072 2946     		mov	r1, r5
 1464 0074 FFF7FEFF 		bl	__aeabi_dmul
 1465 0078 3246     		mov	r2, r6
 1466 007a 41EC1A0B 		vmov	d10, r0, r1
 1467 007e 3B46     		mov	r3, r7
 1468 0080 2046     		mov	r0, r4
 1469 0082 2946     		mov	r1, r5
 1470 0084 FFF7FEFF 		bl	__aeabi_dmul
 1471 0088 0246     		mov	r2, r0
 1472 008a 0B46     		mov	r3, r1
 1473 008c 43EC1D2B 		vmov	d13, r2, r3
 1474 0090 2046     		mov	r0, r4
 1475 0092 53EC182B 		vmov	r2, r3, d8
 1476 0096 2946     		mov	r1, r5
 1477 0098 FFF7FEFF 		bl	__aeabi_dmul
 1478 009c 3246     		mov	r2, r6
 1479 009e 41EC1E0B 		vmov	d14, r0, r1
 1480 00a2 3B46     		mov	r3, r7
 1481 00a4 4046     		mov	r0, r8
 1482 00a6 4946     		mov	r1, r9
ARM GAS  /tmp/ccyb3iH1.s 			page 27


 1483 00a8 FFF7FEFF 		bl	__aeabi_dmul
 1484 00ac 53EC182B 		vmov	r2, r3, d8
 1485 00b0 0446     		mov	r4, r0
 1486 00b2 0D46     		mov	r5, r1
 1487 00b4 4046     		mov	r0, r8
 1488 00b6 4946     		mov	r1, r9
 1489 00b8 FFF7FEFF 		bl	__aeabi_dmul
 1490 00bc 53EC182B 		vmov	r2, r3, d8
 1491 00c0 41EC1C0B 		vmov	d12, r0, r1
 1492 00c4 3046     		mov	r0, r6
 1493 00c6 3946     		mov	r1, r7
 1494 00c8 FFF7FEFF 		bl	__aeabi_dmul
 1495 00cc 4246     		mov	r2, r8
 1496 00ce 41EC1B0B 		vmov	d11, r0, r1
 1497 00d2 4B46     		mov	r3, r9
 1498 00d4 4046     		mov	r0, r8
 1499 00d6 4946     		mov	r1, r9
 1500 00d8 FFF7FEFF 		bl	__aeabi_dmul
 1501 00dc 53EC192B 		vmov	r2, r3, d9
 1502 00e0 FFF7FEFF 		bl	__aeabi_dadd
 1503 00e4 2246     		mov	r2, r4
 1504 00e6 CAE90001 		strd	r0, [r10]
 1505 00ea 2B46     		mov	r3, r5
 1506 00ec 51EC1E0B 		vmov	r0, r1, d14
 1507 00f0 FFF7FEFF 		bl	__aeabi_dadd
 1508 00f4 53EC1D2B 		vmov	r2, r3, d13
 1509 00f8 CAE90201 		strd	r0, [r10, #8]
 1510 00fc 51EC1C0B 		vmov	r0, r1, d12
 1511 0100 FFF7FEFF 		bl	__aeabi_dsub
 1512 0104 53EC1E2B 		vmov	r2, r3, d14
 1513 0108 CAE90401 		strd	r0, [r10, #16]
 1514 010c 2046     		mov	r0, r4
 1515 010e 2946     		mov	r1, r5
 1516 0110 FFF7FEFF 		bl	__aeabi_dsub
 1517 0114 3246     		mov	r2, r6
 1518 0116 CAE90601 		strd	r0, [r10, #24]
 1519 011a 3B46     		mov	r3, r7
 1520 011c 3046     		mov	r0, r6
 1521 011e 3946     		mov	r1, r7
 1522 0120 FFF7FEFF 		bl	__aeabi_dmul
 1523 0124 53EC192B 		vmov	r2, r3, d9
 1524 0128 FFF7FEFF 		bl	__aeabi_dadd
 1525 012c 53EC1B2B 		vmov	r2, r3, d11
 1526 0130 CAE90801 		strd	r0, [r10, #32]
 1527 0134 51EC1A0B 		vmov	r0, r1, d10
 1528 0138 FFF7FEFF 		bl	__aeabi_dadd
 1529 013c 53EC1C2B 		vmov	r2, r3, d12
 1530 0140 CAE90A01 		strd	r0, [r10, #40]
 1531 0144 51EC1D0B 		vmov	r0, r1, d13
 1532 0148 FFF7FEFF 		bl	__aeabi_dadd
 1533 014c 53EC1A2B 		vmov	r2, r3, d10
 1534 0150 CAE90C01 		strd	r0, [r10, #48]
 1535 0154 51EC1B0B 		vmov	r0, r1, d11
 1536 0158 FFF7FEFF 		bl	__aeabi_dsub
 1537 015c 53EC182B 		vmov	r2, r3, d8
 1538 0160 CAE90E01 		strd	r0, [r10, #56]
 1539 0164 18EE100A 		vmov	r0, s16	@ int
ARM GAS  /tmp/ccyb3iH1.s 			page 28


 1540 0168 1946     		mov	r1, r3
 1541 016a FFF7FEFF 		bl	__aeabi_dmul
 1542 016e 53EC192B 		vmov	r2, r3, d9
 1543 0172 FFF7FEFF 		bl	__aeabi_dadd
 1544 0176 CAE91001 		strd	r0, [r10, #64]
 1545 017a BDEC0E8B 		vldm	sp!, {d8-d14}
 1546 017e BDE8F88F 		pop	{r3, r4, r5, r6, r7, r8, r9, r10, fp, pc}
 1547              	.L28:
 1548 0182 00BFAFF3 		.align	3
 1548      0080
 1549              	.L27:
 1550 0188 0000F03F 		.word	1072693248
 1551 018c CD3B7F66 		.word	1719614413
 1552 0190 9EA0F63F 		.word	1073127582
 1553              		.size	double_rmat_of_quat, .-double_rmat_of_quat
 1554              		.ident	"GCC: (15:10.3-2021.07-4) 10.3.1 20210621 (release)"
ARM GAS  /tmp/ccyb3iH1.s 			page 29

