ARM GAS  /tmp/ccbUEg52.s 			page 1


   1              		.cpu cortex-m4
   2              		.eabi_attribute 27, 1
   3              		.eabi_attribute 20, 1
   4              		.eabi_attribute 21, 1
   5              		.eabi_attribute 23, 3
   6              		.eabi_attribute 24, 1
   7              		.eabi_attribute 25, 1
   8              		.eabi_attribute 26, 1
   9              		.eabi_attribute 30, 2
  10              		.eabi_attribute 34, 1
  11              		.eabi_attribute 18, 4
  12              		.file	"pprz_algebra_int.c"
  13              		.text
  14              		.section	.text.int32_sqrt,"ax",%progbits
  15              		.align	1
  16              		.p2align 4,,15
  17              		.global	int32_sqrt
  18              		.arch armv7e-m
  19              		.syntax unified
  20              		.thumb
  21              		.thumb_func
  22              		.fpu fpv4-sp-d16
  23              		.type	int32_sqrt, %function
  24              	int32_sqrt:
  25              		@ args = 0, pretend = 0, frame = 0
  26              		@ frame_needed = 0, uses_anonymous_args = 0
  27              		@ link register save eliminated.
  28 0000 8446     		mov	ip, r0
  29 0002 80B1     		cbz	r0, .L1
  30 0004 2823     		movs	r3, #40
  31 0006 02E0     		b	.L3
  32              	.L8:
  33 0008 13F0FF03 		ands	r3, r3, #255
  34 000c 0CD0     		beq	.L7
  35              	.L3:
  36 000e BCFBF0F1 		udiv	r1, ip, r0
  37 0012 0246     		mov	r2, r0
  38 0014 0844     		add	r0, r0, r1
  39 0016 A2EB5002 		sub	r2, r2, r0, lsr #1
  40 001a 012A     		cmp	r2, #1
  41 001c 03F1FF33 		add	r3, r3, #-1
  42 0020 4FEA5000 		lsr	r0, r0, #1
  43 0024 F0D8     		bhi	.L8
  44              	.L1:
  45 0026 7047     		bx	lr
  46              	.L7:
  47 0028 7047     		bx	lr
  48              		.size	int32_sqrt, .-int32_sqrt
  49 002a 00BF     		.section	.text.int32_gcd,"ax",%progbits
  50              		.align	1
  51              		.p2align 4,,15
  52              		.global	int32_gcd
  53              		.syntax unified
  54              		.thumb
  55              		.thumb_func
  56              		.fpu fpv4-sp-d16
  57              		.type	int32_gcd, %function
ARM GAS  /tmp/ccbUEg52.s 			page 2


  58              	int32_gcd:
  59              		@ args = 0, pretend = 0, frame = 0
  60              		@ frame_needed = 0, uses_anonymous_args = 0
  61              		@ link register save eliminated.
  62 0000 49B1     		cbz	r1, .L12
  63              	.L11:
  64 0002 B0FBF1F2 		udiv	r2, r0, r1
  65 0006 0B46     		mov	r3, r1
  66 0008 01FB1201 		mls	r1, r1, r2, r0
  67 000c 1846     		mov	r0, r3
  68 000e 0029     		cmp	r1, #0
  69 0010 F7D1     		bne	.L11
  70 0012 1846     		mov	r0, r3
  71 0014 7047     		bx	lr
  72              	.L12:
  73 0016 0346     		mov	r3, r0
  74 0018 1846     		mov	r0, r3
  75 001a 7047     		bx	lr
  76              		.size	int32_gcd, .-int32_gcd
  77              		.section	.text.int32_rmat_comp,"ax",%progbits
  78              		.align	1
  79              		.p2align 4,,15
  80              		.global	int32_rmat_comp
  81              		.syntax unified
  82              		.thumb
  83              		.thumb_func
  84              		.fpu fpv4-sp-d16
  85              		.type	int32_rmat_comp, %function
  86              	int32_rmat_comp:
  87              		@ args = 0, pretend = 0, frame = 8
  88              		@ frame_needed = 0, uses_anonymous_args = 0
  89 0000 2DE9F04F 		push	{r4, r5, r6, r7, r8, r9, r10, fp, lr}
  90 0004 D2E90043 		ldrd	r4, r3, [r2]
  91 0008 CF68     		ldr	r7, [r1, #12]
  92 000a 0D68     		ldr	r5, [r1]
  93 000c D2F808C0 		ldr	ip, [r2, #8]
  94 0010 8E69     		ldr	r6, [r1, #24]
  95 0012 D1F814A0 		ldr	r10, [r1, #20]
  96 0016 D2F81490 		ldr	r9, [r2, #20]
  97 001a 07FB03FE 		mul	lr, r7, r3
  98 001e 05FB04E4 		mla	r4, r5, r4, lr
  99 0022 06FB0C44 		mla	r4, r6, ip, r4
 100 0026 A413     		asrs	r4, r4, #14
 101 0028 0460     		str	r4, [r0]
 102 002a 0C69     		ldr	r4, [r1, #16]
 103 002c D2F800E0 		ldr	lr, [r2]
 104 0030 4D68     		ldr	r5, [r1, #4]
 105 0032 D1F800B0 		ldr	fp, [r1]
 106 0036 04FB03F3 		mul	r3, r4, r3
 107 003a 05FB0E33 		mla	r3, r5, lr, r3
 108 003e CD69     		ldr	r5, [r1, #28]
 109 0040 05FB0C33 		mla	r3, r5, ip, r3
 110 0044 9B13     		asrs	r3, r3, #14
 111 0046 4360     		str	r3, [r0, #4]
 112 0048 1369     		ldr	r3, [r2, #16]
 113 004a 03FB07F8 		mul	r8, r3, r7
 114 004e 03FB04F7 		mul	r7, r3, r4
ARM GAS  /tmp/ccbUEg52.s 			page 3


 115 0052 D468     		ldr	r4, [r2, #12]
 116 0054 5368     		ldr	r3, [r2, #4]
 117 0056 83B0     		sub	sp, sp, #12
 118 0058 04FB0B88 		mla	r8, r4, fp, r8
 119 005c 0C6A     		ldr	r4, [r1, #32]
 120 005e 0194     		str	r4, [sp, #4]
 121 0060 8C68     		ldr	r4, [r1, #8]
 122 0062 03FB0AF3 		mul	r3, r3, r10
 123 0066 04FB0E33 		mla	r3, r4, lr, r3
 124 006a 019C     		ldr	r4, [sp, #4]
 125 006c 09FB0688 		mla	r8, r9, r6, r8
 126 0070 04FB0C33 		mla	r3, r4, ip, r3
 127 0074 4FEAA838 		asr	r8, r8, #14
 128 0078 C0F80C80 		str	r8, [r0, #12]
 129 007c 9B13     		asrs	r3, r3, #14
 130 007e D2F80CC0 		ldr	ip, [r2, #12]
 131 0082 8360     		str	r3, [r0, #8]
 132 0084 4B68     		ldr	r3, [r1, #4]
 133 0086 CC68     		ldr	r4, [r1, #12]
 134 0088 D1F80880 		ldr	r8, [r1, #8]
 135 008c 03FB0C77 		mla	r7, r3, ip, r7
 136 0090 09FB0577 		mla	r7, r9, r5, r7
 137 0094 BF13     		asrs	r7, r7, #14
 138 0096 0761     		str	r7, [r0, #16]
 139 0098 D769     		ldr	r7, [r2, #28]
 140 009a 04FB07FE 		mul	lr, r4, r7
 141 009e 1469     		ldr	r4, [r2, #16]
 142 00a0 08FB0CFC 		mul	ip, r8, ip
 143 00a4 04FB0ACA 		mla	r10, r4, r10, ip
 144 00a8 019C     		ldr	r4, [sp, #4]
 145 00aa D2F820C0 		ldr	ip, [r2, #32]
 146 00ae 09FB04A9 		mla	r9, r9, r4, r10
 147 00b2 9469     		ldr	r4, [r2, #24]
 148 00b4 04FB0BEE 		mla	lr, r4, fp, lr
 149 00b8 0CFB06E6 		mla	r6, ip, r6, lr
 150 00bc B613     		asrs	r6, r6, #14
 151 00be 8661     		str	r6, [r0, #24]
 152 00c0 9669     		ldr	r6, [r2, #24]
 153 00c2 06FB03F3 		mul	r3, r6, r3
 154 00c6 06FB08F8 		mul	r8, r6, r8
 155 00ca 0E69     		ldr	r6, [r1, #16]
 156 00cc 06FB0737 		mla	r7, r6, r7, r3
 157 00d0 0CFB0575 		mla	r5, ip, r5, r7
 158 00d4 4FEAA939 		asr	r9, r9, #14
 159 00d8 AD13     		asrs	r5, r5, #14
 160 00da C0F81490 		str	r9, [r0, #20]
 161 00de C561     		str	r5, [r0, #28]
 162 00e0 D369     		ldr	r3, [r2, #28]
 163 00e2 4A69     		ldr	r2, [r1, #20]
 164 00e4 02FB0388 		mla	r8, r2, r3, r8
 165 00e8 019B     		ldr	r3, [sp, #4]
 166 00ea 0CFB0384 		mla	r4, ip, r3, r8
 167 00ee A413     		asrs	r4, r4, #14
 168 00f0 0462     		str	r4, [r0, #32]
 169 00f2 03B0     		add	sp, sp, #12
 170              		@ sp needed
 171 00f4 BDE8F08F 		pop	{r4, r5, r6, r7, r8, r9, r10, fp, pc}
ARM GAS  /tmp/ccbUEg52.s 			page 4


 172              		.size	int32_rmat_comp, .-int32_rmat_comp
 173              		.section	.text.int32_rmat_comp_inv,"ax",%progbits
 174              		.align	1
 175              		.p2align 4,,15
 176              		.global	int32_rmat_comp_inv
 177              		.syntax unified
 178              		.thumb
 179              		.thumb_func
 180              		.fpu fpv4-sp-d16
 181              		.type	int32_rmat_comp_inv, %function
 182              	int32_rmat_comp_inv:
 183              		@ args = 0, pretend = 0, frame = 0
 184              		@ frame_needed = 0, uses_anonymous_args = 0
 185 0000 D368     		ldr	r3, [r2, #12]
 186 0002 D1F818C0 		ldr	ip, [r1, #24]
 187 0006 2DE9F04F 		push	{r4, r5, r6, r7, r8, r9, r10, fp, lr}
 188 000a D1F80CE0 		ldr	lr, [r1, #12]
 189 000e 1568     		ldr	r5, [r2]
 190 0010 0E68     		ldr	r6, [r1]
 191 0012 9469     		ldr	r4, [r2, #24]
 192 0014 0EFB03F7 		mul	r7, lr, r3
 193 0018 06FB0575 		mla	r5, r6, r5, r7
 194 001c 0CFB0455 		mla	r5, ip, r4, r5
 195 0020 AD13     		asrs	r5, r5, #14
 196 0022 0E69     		ldr	r6, [r1, #16]
 197 0024 0560     		str	r5, [r0]
 198 0026 D2F80080 		ldr	r8, [r2]
 199 002a 4D68     		ldr	r5, [r1, #4]
 200 002c CF69     		ldr	r7, [r1, #28]
 201 002e 06FB03F9 		mul	r9, r6, r3
 202 0032 05FB0895 		mla	r5, r5, r8, r9
 203 0036 07FB0455 		mla	r5, r7, r4, r5
 204 003a D1F81490 		ldr	r9, [r1, #20]
 205 003e AD13     		asrs	r5, r5, #14
 206 0040 4560     		str	r5, [r0, #4]
 207 0042 8D68     		ldr	r5, [r1, #8]
 208 0044 D1F804B0 		ldr	fp, [r1, #4]
 209 0048 09FB03F3 		mul	r3, r9, r3
 210 004c 05FB0833 		mla	r3, r5, r8, r3
 211 0050 1569     		ldr	r5, [r2, #16]
 212 0052 05FB06F8 		mul	r8, r5, r6
 213 0056 0E6A     		ldr	r6, [r1, #32]
 214 0058 06FB0433 		mla	r3, r6, r4, r3
 215 005c 9B13     		asrs	r3, r3, #14
 216 005e 8360     		str	r3, [r0, #8]
 217 0060 5368     		ldr	r3, [r2, #4]
 218 0062 05FB0EFE 		mul	lr, r5, lr
 219 0066 0D68     		ldr	r5, [r1]
 220 0068 0BFB038A 		mla	r10, fp, r3, r8
 221 006c D2F81C80 		ldr	r8, [r2, #28]
 222 0070 05FB03EE 		mla	lr, r5, r3, lr
 223 0074 08FB07AA 		mla	r10, r8, r7, r10
 224 0078 08FB0CEE 		mla	lr, r8, ip, lr
 225 007c 4FEAAE3E 		asr	lr, lr, #14
 226 0080 4FEAAA3A 		asr	r10, r10, #14
 227 0084 C0F80CE0 		str	lr, [r0, #12]
 228 0088 C0F810A0 		str	r10, [r0, #16]
ARM GAS  /tmp/ccbUEg52.s 			page 5


 229 008c D1F808E0 		ldr	lr, [r1, #8]
 230 0090 1469     		ldr	r4, [r2, #16]
 231 0092 0EFB03F3 		mul	r3, lr, r3
 232 0096 04FB0933 		mla	r3, r4, r9, r3
 233 009a 08FB0633 		mla	r3, r8, r6, r3
 234 009e 9B13     		asrs	r3, r3, #14
 235 00a0 4361     		str	r3, [r0, #20]
 236 00a2 9368     		ldr	r3, [r2, #8]
 237 00a4 03FB05F8 		mul	r8, r3, r5
 238 00a8 03FB0BF4 		mul	r4, r3, fp
 239 00ac 5569     		ldr	r5, [r2, #20]
 240 00ae 03FB0EFE 		mul	lr, r3, lr
 241 00b2 136A     		ldr	r3, [r2, #32]
 242 00b4 CA68     		ldr	r2, [r1, #12]
 243 00b6 02FB0582 		mla	r2, r2, r5, r8
 244 00ba 03FB0C22 		mla	r2, r3, ip, r2
 245 00be 9213     		asrs	r2, r2, #14
 246 00c0 8261     		str	r2, [r0, #24]
 247 00c2 0A69     		ldr	r2, [r1, #16]
 248 00c4 02FB0544 		mla	r4, r2, r5, r4
 249 00c8 4A69     		ldr	r2, [r1, #20]
 250 00ca 02FB05EE 		mla	lr, r2, r5, lr
 251 00ce 03FB0747 		mla	r7, r3, r7, r4
 252 00d2 03FB06E6 		mla	r6, r3, r6, lr
 253 00d6 BF13     		asrs	r7, r7, #14
 254 00d8 B613     		asrs	r6, r6, #14
 255 00da C761     		str	r7, [r0, #28]
 256 00dc 0662     		str	r6, [r0, #32]
 257 00de BDE8F08F 		pop	{r4, r5, r6, r7, r8, r9, r10, fp, pc}
 258              		.size	int32_rmat_comp_inv, .-int32_rmat_comp_inv
 259 00e2 00BF     		.section	.text.int32_rmat_vmult,"ax",%progbits
 260              		.align	1
 261              		.p2align 4,,15
 262              		.global	int32_rmat_vmult
 263              		.syntax unified
 264              		.thumb
 265              		.thumb_func
 266              		.fpu fpv4-sp-d16
 267              		.type	int32_rmat_vmult, %function
 268              	int32_rmat_vmult:
 269              		@ args = 0, pretend = 0, frame = 0
 270              		@ frame_needed = 0, uses_anonymous_args = 0
 271              		@ link register save eliminated.
 272 0000 F0B4     		push	{r4, r5, r6, r7}
 273 0002 D2E90146 		ldrd	r4, r6, [r2, #4]
 274 0006 4D68     		ldr	r5, [r1, #4]
 275 0008 1768     		ldr	r7, [r2]
 276 000a 0B68     		ldr	r3, [r1]
 277 000c 04FB05F5 		mul	r5, r4, r5
 278 0010 07FB0355 		mla	r5, r7, r3, r5
 279 0014 8B68     		ldr	r3, [r1, #8]
 280 0016 03FB0655 		mla	r5, r3, r6, r5
 281 001a AD13     		asrs	r5, r5, #14
 282 001c 0B69     		ldr	r3, [r1, #16]
 283 001e 0560     		str	r5, [r0]
 284 0020 03FB04F4 		mul	r4, r3, r4
 285 0024 CD68     		ldr	r5, [r1, #12]
ARM GAS  /tmp/ccbUEg52.s 			page 6


 286 0026 1368     		ldr	r3, [r2]
 287 0028 05FB0344 		mla	r4, r5, r3, r4
 288 002c 4D69     		ldr	r5, [r1, #20]
 289 002e 05FB0644 		mla	r4, r5, r6, r4
 290 0032 A413     		asrs	r4, r4, #14
 291 0034 4460     		str	r4, [r0, #4]
 292 0036 5568     		ldr	r5, [r2, #4]
 293 0038 8A69     		ldr	r2, [r1, #24]
 294 003a 02FB03F3 		mul	r3, r2, r3
 295 003e D1E90742 		ldrd	r4, r2, [r1, #28]
 296 0042 05FB0433 		mla	r3, r5, r4, r3
 297 0046 02FB0633 		mla	r3, r2, r6, r3
 298 004a 9B13     		asrs	r3, r3, #14
 299 004c F0BC     		pop	{r4, r5, r6, r7}
 300 004e 8360     		str	r3, [r0, #8]
 301 0050 7047     		bx	lr
 302              		.size	int32_rmat_vmult, .-int32_rmat_vmult
 303 0052 00BF     		.section	.text.int32_rmat_transp_vmult,"ax",%progbits
 304              		.align	1
 305              		.p2align 4,,15
 306              		.global	int32_rmat_transp_vmult
 307              		.syntax unified
 308              		.thumb
 309              		.thumb_func
 310              		.fpu fpv4-sp-d16
 311              		.type	int32_rmat_transp_vmult, %function
 312              	int32_rmat_transp_vmult:
 313              		@ args = 0, pretend = 0, frame = 0
 314              		@ frame_needed = 0, uses_anonymous_args = 0
 315              		@ link register save eliminated.
 316 0000 F0B4     		push	{r4, r5, r6, r7}
 317 0002 D2E90146 		ldrd	r4, r6, [r2, #4]
 318 0006 CD68     		ldr	r5, [r1, #12]
 319 0008 1768     		ldr	r7, [r2]
 320 000a 0B68     		ldr	r3, [r1]
 321 000c 04FB05F5 		mul	r5, r4, r5
 322 0010 07FB0355 		mla	r5, r7, r3, r5
 323 0014 8B69     		ldr	r3, [r1, #24]
 324 0016 03FB0655 		mla	r5, r3, r6, r5
 325 001a AD13     		asrs	r5, r5, #14
 326 001c 0B69     		ldr	r3, [r1, #16]
 327 001e 0560     		str	r5, [r0]
 328 0020 03FB04F4 		mul	r4, r3, r4
 329 0024 4D68     		ldr	r5, [r1, #4]
 330 0026 1368     		ldr	r3, [r2]
 331 0028 05FB0344 		mla	r4, r5, r3, r4
 332 002c CD69     		ldr	r5, [r1, #28]
 333 002e 05FB0644 		mla	r4, r5, r6, r4
 334 0032 A413     		asrs	r4, r4, #14
 335 0034 4460     		str	r4, [r0, #4]
 336 0036 5568     		ldr	r5, [r2, #4]
 337 0038 8A68     		ldr	r2, [r1, #8]
 338 003a 4C69     		ldr	r4, [r1, #20]
 339 003c 02FB03F3 		mul	r3, r2, r3
 340 0040 0A6A     		ldr	r2, [r1, #32]
 341 0042 05FB0433 		mla	r3, r5, r4, r3
 342 0046 02FB0633 		mla	r3, r2, r6, r3
ARM GAS  /tmp/ccbUEg52.s 			page 7


 343 004a 9B13     		asrs	r3, r3, #14
 344 004c F0BC     		pop	{r4, r5, r6, r7}
 345 004e 8360     		str	r3, [r0, #8]
 346 0050 7047     		bx	lr
 347              		.size	int32_rmat_transp_vmult, .-int32_rmat_transp_vmult
 348 0052 00BF     		.section	.text.int32_rmat_ratemult,"ax",%progbits
 349              		.align	1
 350              		.p2align 4,,15
 351              		.global	int32_rmat_ratemult
 352              		.syntax unified
 353              		.thumb
 354              		.thumb_func
 355              		.fpu fpv4-sp-d16
 356              		.type	int32_rmat_ratemult, %function
 357              	int32_rmat_ratemult:
 358              		@ args = 0, pretend = 0, frame = 0
 359              		@ frame_needed = 0, uses_anonymous_args = 0
 360              		@ link register save eliminated.
 361 0000 F0B4     		push	{r4, r5, r6, r7}
 362 0002 D2E90146 		ldrd	r4, r6, [r2, #4]
 363 0006 4D68     		ldr	r5, [r1, #4]
 364 0008 1768     		ldr	r7, [r2]
 365 000a 0B68     		ldr	r3, [r1]
 366 000c 04FB05F5 		mul	r5, r4, r5
 367 0010 07FB0355 		mla	r5, r7, r3, r5
 368 0014 8B68     		ldr	r3, [r1, #8]
 369 0016 03FB0655 		mla	r5, r3, r6, r5
 370 001a AD13     		asrs	r5, r5, #14
 371 001c 0B69     		ldr	r3, [r1, #16]
 372 001e 0560     		str	r5, [r0]
 373 0020 03FB04F4 		mul	r4, r3, r4
 374 0024 CD68     		ldr	r5, [r1, #12]
 375 0026 1368     		ldr	r3, [r2]
 376 0028 05FB0344 		mla	r4, r5, r3, r4
 377 002c 4D69     		ldr	r5, [r1, #20]
 378 002e 05FB0644 		mla	r4, r5, r6, r4
 379 0032 A413     		asrs	r4, r4, #14
 380 0034 4460     		str	r4, [r0, #4]
 381 0036 5568     		ldr	r5, [r2, #4]
 382 0038 8A69     		ldr	r2, [r1, #24]
 383 003a 02FB03F3 		mul	r3, r2, r3
 384 003e D1E90742 		ldrd	r4, r2, [r1, #28]
 385 0042 05FB0433 		mla	r3, r5, r4, r3
 386 0046 02FB0633 		mla	r3, r2, r6, r3
 387 004a 9B13     		asrs	r3, r3, #14
 388 004c F0BC     		pop	{r4, r5, r6, r7}
 389 004e 8360     		str	r3, [r0, #8]
 390 0050 7047     		bx	lr
 391              		.size	int32_rmat_ratemult, .-int32_rmat_ratemult
 392 0052 00BF     		.section	.text.int32_rmat_transp_ratemult,"ax",%progbits
 393              		.align	1
 394              		.p2align 4,,15
 395              		.global	int32_rmat_transp_ratemult
 396              		.syntax unified
 397              		.thumb
 398              		.thumb_func
 399              		.fpu fpv4-sp-d16
ARM GAS  /tmp/ccbUEg52.s 			page 8


 400              		.type	int32_rmat_transp_ratemult, %function
 401              	int32_rmat_transp_ratemult:
 402              		@ args = 0, pretend = 0, frame = 0
 403              		@ frame_needed = 0, uses_anonymous_args = 0
 404              		@ link register save eliminated.
 405 0000 F0B4     		push	{r4, r5, r6, r7}
 406 0002 D2E90146 		ldrd	r4, r6, [r2, #4]
 407 0006 CD68     		ldr	r5, [r1, #12]
 408 0008 1768     		ldr	r7, [r2]
 409 000a 0B68     		ldr	r3, [r1]
 410 000c 04FB05F5 		mul	r5, r4, r5
 411 0010 07FB0355 		mla	r5, r7, r3, r5
 412 0014 8B69     		ldr	r3, [r1, #24]
 413 0016 03FB0655 		mla	r5, r3, r6, r5
 414 001a AD13     		asrs	r5, r5, #14
 415 001c 0B69     		ldr	r3, [r1, #16]
 416 001e 0560     		str	r5, [r0]
 417 0020 03FB04F4 		mul	r4, r3, r4
 418 0024 4D68     		ldr	r5, [r1, #4]
 419 0026 1368     		ldr	r3, [r2]
 420 0028 05FB0344 		mla	r4, r5, r3, r4
 421 002c CD69     		ldr	r5, [r1, #28]
 422 002e 05FB0644 		mla	r4, r5, r6, r4
 423 0032 A413     		asrs	r4, r4, #14
 424 0034 4460     		str	r4, [r0, #4]
 425 0036 5568     		ldr	r5, [r2, #4]
 426 0038 8A68     		ldr	r2, [r1, #8]
 427 003a 4C69     		ldr	r4, [r1, #20]
 428 003c 02FB03F3 		mul	r3, r2, r3
 429 0040 0A6A     		ldr	r2, [r1, #32]
 430 0042 05FB0433 		mla	r3, r5, r4, r3
 431 0046 02FB0633 		mla	r3, r2, r6, r3
 432 004a 9B13     		asrs	r3, r3, #14
 433 004c F0BC     		pop	{r4, r5, r6, r7}
 434 004e 8360     		str	r3, [r0, #8]
 435 0050 7047     		bx	lr
 436              		.size	int32_rmat_transp_ratemult, .-int32_rmat_transp_ratemult
 437 0052 00BF     		.section	.text.int32_rmat_of_quat,"ax",%progbits
 438              		.align	1
 439              		.p2align 4,,15
 440              		.global	int32_rmat_of_quat
 441              		.syntax unified
 442              		.thumb
 443              		.thumb_func
 444              		.fpu fpv4-sp-d16
 445              		.type	int32_rmat_of_quat, %function
 446              	int32_rmat_of_quat:
 447              		@ args = 0, pretend = 0, frame = 0
 448              		@ frame_needed = 0, uses_anonymous_args = 0
 449 0000 F0B5     		push	{r4, r5, r6, r7, lr}
 450 0002 D1E90054 		ldrd	r5, r4, [r1]
 451 0006 D1E90221 		ldrd	r2, r1, [r1, #8]
 452 000a 05FB05F3 		mul	r3, r5, r5
 453 000e DB13     		asrs	r3, r3, #15
 454 0010 A3F58043 		sub	r3, r3, #16384
 455 0014 04FB05F7 		mul	r7, r4, r5
 456 0018 02FB04F6 		mul	r6, r2, r4
ARM GAS  /tmp/ccbUEg52.s 			page 9


 457 001c 01FB04FE 		mul	lr, r1, r4
 458 0020 04FB04F4 		mul	r4, r4, r4
 459 0024 03EBE434 		add	r4, r3, r4, asr #15
 460 0028 01FB02FC 		mul	ip, r1, r2
 461 002c 0460     		str	r4, [r0]
 462 002e 02FB05F4 		mul	r4, r2, r5
 463 0032 02FB02F2 		mul	r2, r2, r2
 464 0036 03EBE232 		add	r2, r3, r2, asr #15
 465 003a 4FEAEE3E 		asr	lr, lr, #15
 466 003e 01FB05F5 		mul	r5, r1, r5
 467 0042 F613     		asrs	r6, r6, #15
 468 0044 4FEAEC3C 		asr	ip, ip, #15
 469 0048 01FB01F1 		mul	r1, r1, r1
 470 004c 0261     		str	r2, [r0, #16]
 471 004e 0EEBE432 		add	r2, lr, r4, asr #15
 472 0052 03EBE131 		add	r1, r3, r1, asr #15
 473 0056 AEEBE434 		sub	r4, lr, r4, asr #15
 474 005a A6EBE533 		sub	r3, r6, r5, asr #15
 475 005e 8261     		str	r2, [r0, #24]
 476 0060 06EBE536 		add	r6, r6, r5, asr #15
 477 0064 ACEBE732 		sub	r2, ip, r7, asr #15
 478 0068 0CEBE737 		add	r7, ip, r7, asr #15
 479 006c 0162     		str	r1, [r0, #32]
 480 006e C360     		str	r3, [r0, #12]
 481 0070 4660     		str	r6, [r0, #4]
 482 0072 C261     		str	r2, [r0, #28]
 483 0074 8460     		str	r4, [r0, #8]
 484 0076 4761     		str	r7, [r0, #20]
 485 0078 F0BD     		pop	{r4, r5, r6, r7, pc}
 486              		.size	int32_rmat_of_quat, .-int32_rmat_of_quat
 487 007a 00BF     		.section	.text.int32_rmat_of_eulers_321,"ax",%progbits
 488              		.align	1
 489              		.p2align 4,,15
 490              		.global	int32_rmat_of_eulers_321
 491              		.syntax unified
 492              		.thumb
 493              		.thumb_func
 494              		.fpu fpv4-sp-d16
 495              		.type	int32_rmat_of_eulers_321, %function
 496              	int32_rmat_of_eulers_321:
 497              		@ args = 0, pretend = 0, frame = 0
 498              		@ frame_needed = 0, uses_anonymous_args = 0
 499 0000 2DE9F843 		push	{r3, r4, r5, r6, r7, r8, r9, lr}
 500 0004 0446     		mov	r4, r0
 501 0006 0868     		ldr	r0, [r1]
 502 0008 0F46     		mov	r7, r1
 503 000a FFF7FEFF 		bl	pprz_itrig_sin
 504 000e 8046     		mov	r8, r0
 505 0010 3868     		ldr	r0, [r7]
 506 0012 FFF7FEFF 		bl	pprz_itrig_cos
 507 0016 0646     		mov	r6, r0
 508 0018 7868     		ldr	r0, [r7, #4]
 509 001a FFF7FEFF 		bl	pprz_itrig_sin
 510 001e 8146     		mov	r9, r0
 511 0020 7868     		ldr	r0, [r7, #4]
 512 0022 FFF7FEFF 		bl	pprz_itrig_cos
 513 0026 0546     		mov	r5, r0
ARM GAS  /tmp/ccbUEg52.s 			page 10


 514 0028 B868     		ldr	r0, [r7, #8]
 515 002a FFF7FEFF 		bl	pprz_itrig_sin
 516 002e 0346     		mov	r3, r0
 517 0030 B868     		ldr	r0, [r7, #8]
 518 0032 1F46     		mov	r7, r3
 519 0034 FFF7FEFF 		bl	pprz_itrig_cos
 520 0038 09FB08F1 		mul	r1, r9, r8
 521 003c 0346     		mov	r3, r0
 522 003e C9F10000 		rsb	r0, r9, #0
 523 0042 8913     		asrs	r1, r1, #14
 524 0044 A060     		str	r0, [r4, #8]
 525 0046 07FB06F0 		mul	r0, r7, r6
 526 004a 01FB07FC 		mul	ip, r1, r7
 527 004e 09FB06F2 		mul	r2, r9, r6
 528 0052 8013     		asrs	r0, r0, #14
 529 0054 03FB01F1 		mul	r1, r3, r1
 530 0058 9213     		asrs	r2, r2, #14
 531 005a C0EBA131 		rsb	r1, r0, r1, asr #14
 532 005e E160     		str	r1, [r4, #12]
 533 0060 4FEAAC30 		asr	r0, ip, #14
 534 0064 02FB03F1 		mul	r1, r2, r3
 535 0068 02FB07FC 		mul	ip, r2, r7
 536 006c 03FB08F2 		mul	r2, r3, r8
 537 0070 9213     		asrs	r2, r2, #14
 538 0072 C2EBAC32 		rsb	r2, r2, ip, asr #14
 539 0076 E261     		str	r2, [r4, #28]
 540 0078 03FB05F2 		mul	r2, r3, r5
 541 007c 06FB03F3 		mul	r3, r6, r3
 542 0080 00EBA333 		add	r3, r0, r3, asr #14
 543 0084 05FB06F6 		mul	r6, r5, r6
 544 0088 8913     		asrs	r1, r1, #14
 545 008a 2361     		str	r3, [r4, #16]
 546 008c 07FB05F3 		mul	r3, r7, r5
 547 0090 05FB08F5 		mul	r5, r5, r8
 548 0094 07FB08F7 		mul	r7, r7, r8
 549 0098 9213     		asrs	r2, r2, #14
 550 009a B613     		asrs	r6, r6, #14
 551 009c 01EBA737 		add	r7, r1, r7, asr #14
 552 00a0 9B13     		asrs	r3, r3, #14
 553 00a2 AD13     		asrs	r5, r5, #14
 554 00a4 C4E90557 		strd	r5, r7, [r4, #20]
 555 00a8 2260     		str	r2, [r4]
 556 00aa 2662     		str	r6, [r4, #32]
 557 00ac 6360     		str	r3, [r4, #4]
 558 00ae BDE8F883 		pop	{r3, r4, r5, r6, r7, r8, r9, pc}
 559              		.size	int32_rmat_of_eulers_321, .-int32_rmat_of_eulers_321
 560 00b2 00BF     		.section	.text.int32_rmat_of_eulers_312,"ax",%progbits
 561              		.align	1
 562              		.p2align 4,,15
 563              		.global	int32_rmat_of_eulers_312
 564              		.syntax unified
 565              		.thumb
 566              		.thumb_func
 567              		.fpu fpv4-sp-d16
 568              		.type	int32_rmat_of_eulers_312, %function
 569              	int32_rmat_of_eulers_312:
 570              		@ args = 0, pretend = 0, frame = 0
ARM GAS  /tmp/ccbUEg52.s 			page 11


 571              		@ frame_needed = 0, uses_anonymous_args = 0
 572 0000 2DE9F047 		push	{r4, r5, r6, r7, r8, r9, r10, lr}
 573 0004 0646     		mov	r6, r0
 574 0006 0868     		ldr	r0, [r1]
 575 0008 0C46     		mov	r4, r1
 576 000a FFF7FEFF 		bl	pprz_itrig_sin
 577 000e 0546     		mov	r5, r0
 578 0010 2068     		ldr	r0, [r4]
 579 0012 FFF7FEFF 		bl	pprz_itrig_cos
 580 0016 0746     		mov	r7, r0
 581 0018 6068     		ldr	r0, [r4, #4]
 582 001a FFF7FEFF 		bl	pprz_itrig_sin
 583 001e 8146     		mov	r9, r0
 584 0020 6068     		ldr	r0, [r4, #4]
 585 0022 FFF7FEFF 		bl	pprz_itrig_cos
 586 0026 8046     		mov	r8, r0
 587 0028 A068     		ldr	r0, [r4, #8]
 588 002a FFF7FEFF 		bl	pprz_itrig_sin
 589 002e 8246     		mov	r10, r0
 590 0030 A068     		ldr	r0, [r4, #8]
 591 0032 FFF7FEFF 		bl	pprz_itrig_cos
 592 0036 09FB07F1 		mul	r1, r9, r7
 593 003a 8913     		asrs	r1, r1, #14
 594 003c 4942     		rsbs	r1, r1, #0
 595 003e B160     		str	r1, [r6, #8]
 596 0040 0AFB07F1 		mul	r1, r10, r7
 597 0044 09FB05F4 		mul	r4, r9, r5
 598 0048 7561     		str	r5, [r6, #20]
 599 004a 8913     		asrs	r1, r1, #14
 600 004c 08FB05F5 		mul	r5, r8, r5
 601 0050 A413     		asrs	r4, r4, #14
 602 0052 AD13     		asrs	r5, r5, #14
 603 0054 4942     		rsbs	r1, r1, #0
 604 0056 0346     		mov	r3, r0
 605 0058 04FB0AF2 		mul	r2, r4, r10
 606 005c F160     		str	r1, [r6, #12]
 607 005e 05FB0AF1 		mul	r1, r5, r10
 608 0062 00FB04F4 		mul	r4, r0, r4
 609 0066 00FB05F5 		mul	r5, r0, r5
 610 006a 9213     		asrs	r2, r2, #14
 611 006c 8813     		asrs	r0, r1, #14
 612 006e 03FB08F1 		mul	r1, r3, r8
 613 0072 C2EBA132 		rsb	r2, r2, r1, asr #14
 614 0076 A413     		asrs	r4, r4, #14
 615 0078 0AFB09F1 		mul	r1, r10, r9
 616 007c AD13     		asrs	r5, r5, #14
 617 007e 3260     		str	r2, [r6]
 618 0080 0AFB08F2 		mul	r2, r10, r8
 619 0084 04EBA234 		add	r4, r4, r2, asr #14
 620 0088 C5EBA135 		rsb	r5, r5, r1, asr #14
 621 008c 08FB07F2 		mul	r2, r8, r7
 622 0090 03FB09F1 		mul	r1, r3, r9
 623 0094 07FB03F3 		mul	r3, r7, r3
 624 0098 00EBA131 		add	r1, r0, r1, asr #14
 625 009c 9B13     		asrs	r3, r3, #14
 626 009e 9213     		asrs	r2, r2, #14
 627 00a0 7460     		str	r4, [r6, #4]
ARM GAS  /tmp/ccbUEg52.s 			page 12


 628 00a2 F561     		str	r5, [r6, #28]
 629 00a4 3361     		str	r3, [r6, #16]
 630 00a6 B161     		str	r1, [r6, #24]
 631 00a8 3262     		str	r2, [r6, #32]
 632 00aa BDE8F087 		pop	{r4, r5, r6, r7, r8, r9, r10, pc}
 633              		.size	int32_rmat_of_eulers_312, .-int32_rmat_of_eulers_312
 634 00ae 00BF     		.section	.text.int32_quat_comp,"ax",%progbits
 635              		.align	1
 636              		.p2align 4,,15
 637              		.global	int32_quat_comp
 638              		.syntax unified
 639              		.thumb
 640              		.thumb_func
 641              		.fpu fpv4-sp-d16
 642              		.type	int32_quat_comp, %function
 643              	int32_quat_comp:
 644              		@ args = 0, pretend = 0, frame = 0
 645              		@ frame_needed = 0, uses_anonymous_args = 0
 646 0000 2DE9F041 		push	{r4, r5, r6, r7, r8, lr}
 647 0004 0C68     		ldr	r4, [r1]
 648 0006 1568     		ldr	r5, [r2]
 649 0008 4B68     		ldr	r3, [r1, #4]
 650 000a D2F80480 		ldr	r8, [r2, #4]
 651 000e D1F808C0 		ldr	ip, [r1, #8]
 652 0012 D2F80CE0 		ldr	lr, [r2, #12]
 653 0016 CE68     		ldr	r6, [r1, #12]
 654 0018 04FB05F5 		mul	r5, r4, r5
 655 001c 9468     		ldr	r4, [r2, #8]
 656 001e 08FB1355 		mls	r5, r8, r3, r5
 657 0022 04FB1C55 		mls	r5, r4, ip, r5
 658 0026 0EFB1655 		mls	r5, lr, r6, r5
 659 002a ED13     		asrs	r5, r5, #15
 660 002c 0560     		str	r5, [r0]
 661 002e 1768     		ldr	r7, [r2]
 662 0030 07FB03F5 		mul	r5, r7, r3
 663 0034 0B68     		ldr	r3, [r1]
 664 0036 03FB0855 		mla	r5, r3, r8, r5
 665 003a 0EFB0C55 		mla	r5, lr, ip, r5
 666 003e 06FB1455 		mls	r5, r6, r4, r5
 667 0042 ED13     		asrs	r5, r5, #15
 668 0044 4560     		str	r5, [r0, #4]
 669 0046 4D68     		ldr	r5, [r1, #4]
 670 0048 03FB04F4 		mul	r4, r3, r4
 671 004c 05FB1E44 		mls	r4, r5, lr, r4
 672 0050 07FB0C44 		mla	r4, r7, ip, r4
 673 0054 D2F804C0 		ldr	ip, [r2, #4]
 674 0058 0CFB0644 		mla	r4, ip, r6, r4
 675 005c E413     		asrs	r4, r4, #15
 676 005e 8460     		str	r4, [r0, #8]
 677 0060 9268     		ldr	r2, [r2, #8]
 678 0062 03FB0EF3 		mul	r3, r3, lr
 679 0066 02FB0533 		mla	r3, r2, r5, r3
 680 006a 8A68     		ldr	r2, [r1, #8]
 681 006c 02FB1C33 		mls	r3, r2, ip, r3
 682 0070 07FB0636 		mla	r6, r7, r6, r3
 683 0074 F613     		asrs	r6, r6, #15
 684 0076 C660     		str	r6, [r0, #12]
ARM GAS  /tmp/ccbUEg52.s 			page 13


 685 0078 BDE8F081 		pop	{r4, r5, r6, r7, r8, pc}
 686              		.size	int32_quat_comp, .-int32_quat_comp
 687              		.section	.text.int32_quat_comp_inv,"ax",%progbits
 688              		.align	1
 689              		.p2align 4,,15
 690              		.global	int32_quat_comp_inv
 691              		.syntax unified
 692              		.thumb
 693              		.thumb_func
 694              		.fpu fpv4-sp-d16
 695              		.type	int32_quat_comp_inv, %function
 696              	int32_quat_comp_inv:
 697              		@ args = 0, pretend = 0, frame = 0
 698              		@ frame_needed = 0, uses_anonymous_args = 0
 699 0000 2DE9F043 		push	{r4, r5, r6, r7, r8, r9, lr}
 700 0004 D2F80480 		ldr	r8, [r2, #4]
 701 0008 4C68     		ldr	r4, [r1, #4]
 702 000a 1568     		ldr	r5, [r2]
 703 000c 0B68     		ldr	r3, [r1]
 704 000e D2F808E0 		ldr	lr, [r2, #8]
 705 0012 D1F808C0 		ldr	ip, [r1, #8]
 706 0016 08FB04F6 		mul	r6, r8, r4
 707 001a 05FB0366 		mla	r6, r5, r3, r6
 708 001e D368     		ldr	r3, [r2, #12]
 709 0020 CD68     		ldr	r5, [r1, #12]
 710 0022 0EFB0C66 		mla	r6, lr, ip, r6
 711 0026 03FB0566 		mla	r6, r3, r5, r6
 712 002a F613     		asrs	r6, r6, #15
 713 002c 0660     		str	r6, [r0]
 714 002e 1668     		ldr	r6, [r2]
 715 0030 0F68     		ldr	r7, [r1]
 716 0032 06FB04F4 		mul	r4, r6, r4
 717 0036 07FB1844 		mls	r4, r7, r8, r4
 718 003a 03FB1C44 		mls	r4, r3, ip, r4
 719 003e 05FB0E44 		mla	r4, r5, lr, r4
 720 0042 E413     		asrs	r4, r4, #15
 721 0044 4460     		str	r4, [r0, #4]
 722 0046 D1F80490 		ldr	r9, [r1, #4]
 723 004a D2F80480 		ldr	r8, [r2, #4]
 724 004e 09FB03F4 		mul	r4, r9, r3
 725 0052 07FB1E44 		mls	r4, r7, lr, r4
 726 0056 06FB0C44 		mla	r4, r6, ip, r4
 727 005a 08FB1544 		mls	r4, r8, r5, r4
 728 005e E413     		asrs	r4, r4, #15
 729 0060 8460     		str	r4, [r0, #8]
 730 0062 9268     		ldr	r2, [r2, #8]
 731 0064 7F42     		rsbs	r7, r7, #0
 732 0066 07FB03F3 		mul	r3, r7, r3
 733 006a 02FB1933 		mls	r3, r2, r9, r3
 734 006e 8A68     		ldr	r2, [r1, #8]
 735 0070 02FB0833 		mla	r3, r2, r8, r3
 736 0074 06FB0533 		mla	r3, r6, r5, r3
 737 0078 DB13     		asrs	r3, r3, #15
 738 007a C360     		str	r3, [r0, #12]
 739 007c BDE8F083 		pop	{r4, r5, r6, r7, r8, r9, pc}
 740              		.size	int32_quat_comp_inv, .-int32_quat_comp_inv
 741              		.section	.text.int32_quat_inv_comp,"ax",%progbits
ARM GAS  /tmp/ccbUEg52.s 			page 14


 742              		.align	1
 743              		.p2align 4,,15
 744              		.global	int32_quat_inv_comp
 745              		.syntax unified
 746              		.thumb
 747              		.thumb_func
 748              		.fpu fpv4-sp-d16
 749              		.type	int32_quat_inv_comp, %function
 750              	int32_quat_inv_comp:
 751              		@ args = 0, pretend = 0, frame = 0
 752              		@ frame_needed = 0, uses_anonymous_args = 0
 753 0000 2DE9F043 		push	{r4, r5, r6, r7, r8, r9, lr}
 754 0004 D1F80480 		ldr	r8, [r1, #4]
 755 0008 5468     		ldr	r4, [r2, #4]
 756 000a 1568     		ldr	r5, [r2]
 757 000c 0B68     		ldr	r3, [r1]
 758 000e D2F808E0 		ldr	lr, [r2, #8]
 759 0012 D1F808C0 		ldr	ip, [r1, #8]
 760 0016 04FB08F6 		mul	r6, r4, r8
 761 001a 05FB0366 		mla	r6, r5, r3, r6
 762 001e D368     		ldr	r3, [r2, #12]
 763 0020 CD68     		ldr	r5, [r1, #12]
 764 0022 0EFB0C66 		mla	r6, lr, ip, r6
 765 0026 03FB0566 		mla	r6, r3, r5, r6
 766 002a F613     		asrs	r6, r6, #15
 767 002c 0660     		str	r6, [r0]
 768 002e 0F68     		ldr	r7, [r1]
 769 0030 1668     		ldr	r6, [r2]
 770 0032 07FB04F4 		mul	r4, r7, r4
 771 0036 06FB1844 		mls	r4, r6, r8, r4
 772 003a 03FB1C44 		mls	r4, r3, ip, r4
 773 003e 05FB0E44 		mla	r4, r5, lr, r4
 774 0042 E413     		asrs	r4, r4, #15
 775 0044 4460     		str	r4, [r0, #4]
 776 0046 D1F80490 		ldr	r9, [r1, #4]
 777 004a D2F80480 		ldr	r8, [r2, #4]
 778 004e 09FB03F4 		mul	r4, r9, r3
 779 0052 07FB0E44 		mla	r4, r7, lr, r4
 780 0056 06FB1C44 		mls	r4, r6, ip, r4
 781 005a 08FB1544 		mls	r4, r8, r5, r4
 782 005e E413     		asrs	r4, r4, #15
 783 0060 8460     		str	r4, [r0, #8]
 784 0062 9268     		ldr	r2, [r2, #8]
 785 0064 07FB03F3 		mul	r3, r7, r3
 786 0068 02FB1933 		mls	r3, r2, r9, r3
 787 006c 8A68     		ldr	r2, [r1, #8]
 788 006e 02FB0833 		mla	r3, r2, r8, r3
 789 0072 06FB1533 		mls	r3, r6, r5, r3
 790 0076 DB13     		asrs	r3, r3, #15
 791 0078 C360     		str	r3, [r0, #12]
 792 007a BDE8F083 		pop	{r4, r5, r6, r7, r8, r9, pc}
 793              		.size	int32_quat_inv_comp, .-int32_quat_inv_comp
 794 007e 00BF     		.section	.text.int32_quat_comp_norm_shortest,"ax",%progbits
 795              		.align	1
 796              		.p2align 4,,15
 797              		.global	int32_quat_comp_norm_shortest
 798              		.syntax unified
ARM GAS  /tmp/ccbUEg52.s 			page 15


 799              		.thumb
 800              		.thumb_func
 801              		.fpu fpv4-sp-d16
 802              		.type	int32_quat_comp_norm_shortest, %function
 803              	int32_quat_comp_norm_shortest:
 804              		@ args = 0, pretend = 0, frame = 0
 805              		@ frame_needed = 0, uses_anonymous_args = 0
 806 0000 F8B5     		push	{r3, r4, r5, r6, r7, lr}
 807 0002 FFF7FEFF 		bl	int32_quat_comp
 808 0006 0368     		ldr	r3, [r0]
 809 0008 002B     		cmp	r3, #0
 810 000a D0E90176 		ldrd	r7, r6, [r0, #4]
 811 000e 0546     		mov	r5, r0
 812 0010 0ADB     		blt	.L39
 813 0012 07FB07F4 		mul	r4, r7, r7
 814 0016 C068     		ldr	r0, [r0, #12]
 815 0018 03FB0344 		mla	r4, r3, r3, r4
 816 001c 06FB0644 		mla	r4, r6, r6, r4
 817 0020 00FB0044 		mla	r4, r0, r0, r4
 818 0024 C4BB     		cbnz	r4, .L52
 819              	.L38:
 820 0026 F8BD     		pop	{r3, r4, r5, r6, r7, pc}
 821              	.L39:
 822 0028 03FB03F4 		mul	r4, r3, r3
 823 002c 07FB0744 		mla	r4, r7, r7, r4
 824 0030 06FB0644 		mla	r4, r6, r6, r4
 825 0034 C3F1000E 		rsb	lr, r3, #0
 826 0038 7F42     		rsbs	r7, r7, #0
 827 003a 7642     		rsbs	r6, r6, #0
 828 003c C0E900E7 		strd	lr, r7, [r0]
 829 0040 8660     		str	r6, [r0, #8]
 830 0042 C068     		ldr	r0, [r0, #12]
 831 0044 00FB0044 		mla	r4, r0, r0, r4
 832 0048 4042     		rsbs	r0, r0, #0
 833 004a E860     		str	r0, [r5, #12]
 834              	.L41:
 835 004c 2146     		mov	r1, r4
 836 004e 2822     		movs	r2, #40
 837 0050 02E0     		b	.L43
 838              	.L53:
 839 0052 12F0FF02 		ands	r2, r2, #255
 840 0056 0BD0     		beq	.L42
 841              	.L43:
 842 0058 B4FBF1F3 		udiv	r3, r4, r1
 843 005c 0B44     		add	r3, r3, r1
 844 005e A1EB530C 		sub	ip, r1, r3, lsr #1
 845 0062 BCF1010F 		cmp	ip, #1
 846 0066 02F1FF32 		add	r2, r2, #-1
 847 006a 4FEA5301 		lsr	r1, r3, #1
 848 006e F0D8     		bhi	.L53
 849              	.L42:
 850 0070 0029     		cmp	r1, #0
 851 0072 D8D0     		beq	.L38
 852 0074 4FEACE3E 		lsl	lr, lr, #15
 853 0078 FF03     		lsls	r7, r7, #15
 854 007a F603     		lsls	r6, r6, #15
 855 007c C303     		lsls	r3, r0, #15
ARM GAS  /tmp/ccbUEg52.s 			page 16


 856 007e BEFBF1F2 		udiv	r2, lr, r1
 857 0082 97FBF1F7 		sdiv	r7, r7, r1
 858 0086 96FBF1F6 		sdiv	r6, r6, r1
 859 008a 93FBF1F3 		sdiv	r3, r3, r1
 860 008e C5E90176 		strd	r7, r6, [r5, #4]
 861 0092 2A60     		str	r2, [r5]
 862 0094 EB60     		str	r3, [r5, #12]
 863 0096 F8BD     		pop	{r3, r4, r5, r6, r7, pc}
 864              	.L52:
 865 0098 9E46     		mov	lr, r3
 866 009a D7E7     		b	.L41
 867              		.size	int32_quat_comp_norm_shortest, .-int32_quat_comp_norm_shortest
 868              		.section	.text.int32_quat_comp_inv_norm_shortest,"ax",%progbits
 869              		.align	1
 870              		.p2align 4,,15
 871              		.global	int32_quat_comp_inv_norm_shortest
 872              		.syntax unified
 873              		.thumb
 874              		.thumb_func
 875              		.fpu fpv4-sp-d16
 876              		.type	int32_quat_comp_inv_norm_shortest, %function
 877              	int32_quat_comp_inv_norm_shortest:
 878              		@ args = 0, pretend = 0, frame = 0
 879              		@ frame_needed = 0, uses_anonymous_args = 0
 880 0000 F8B5     		push	{r3, r4, r5, r6, r7, lr}
 881 0002 FFF7FEFF 		bl	int32_quat_comp_inv
 882 0006 0368     		ldr	r3, [r0]
 883 0008 002B     		cmp	r3, #0
 884 000a D0E90176 		ldrd	r7, r6, [r0, #4]
 885 000e 0546     		mov	r5, r0
 886 0010 0ADB     		blt	.L55
 887 0012 07FB07F4 		mul	r4, r7, r7
 888 0016 C068     		ldr	r0, [r0, #12]
 889 0018 03FB0344 		mla	r4, r3, r3, r4
 890 001c 06FB0644 		mla	r4, r6, r6, r4
 891 0020 00FB0044 		mla	r4, r0, r0, r4
 892 0024 C4BB     		cbnz	r4, .L68
 893              	.L54:
 894 0026 F8BD     		pop	{r3, r4, r5, r6, r7, pc}
 895              	.L55:
 896 0028 03FB03F4 		mul	r4, r3, r3
 897 002c 07FB0744 		mla	r4, r7, r7, r4
 898 0030 06FB0644 		mla	r4, r6, r6, r4
 899 0034 C3F1000E 		rsb	lr, r3, #0
 900 0038 7F42     		rsbs	r7, r7, #0
 901 003a 7642     		rsbs	r6, r6, #0
 902 003c C0E900E7 		strd	lr, r7, [r0]
 903 0040 8660     		str	r6, [r0, #8]
 904 0042 C068     		ldr	r0, [r0, #12]
 905 0044 00FB0044 		mla	r4, r0, r0, r4
 906 0048 4042     		rsbs	r0, r0, #0
 907 004a E860     		str	r0, [r5, #12]
 908              	.L57:
 909 004c 2146     		mov	r1, r4
 910 004e 2822     		movs	r2, #40
 911 0050 02E0     		b	.L59
 912              	.L69:
ARM GAS  /tmp/ccbUEg52.s 			page 17


 913 0052 12F0FF02 		ands	r2, r2, #255
 914 0056 0BD0     		beq	.L58
 915              	.L59:
 916 0058 B4FBF1F3 		udiv	r3, r4, r1
 917 005c 0B44     		add	r3, r3, r1
 918 005e A1EB530C 		sub	ip, r1, r3, lsr #1
 919 0062 BCF1010F 		cmp	ip, #1
 920 0066 02F1FF32 		add	r2, r2, #-1
 921 006a 4FEA5301 		lsr	r1, r3, #1
 922 006e F0D8     		bhi	.L69
 923              	.L58:
 924 0070 0029     		cmp	r1, #0
 925 0072 D8D0     		beq	.L54
 926 0074 4FEACE3E 		lsl	lr, lr, #15
 927 0078 FF03     		lsls	r7, r7, #15
 928 007a F603     		lsls	r6, r6, #15
 929 007c C303     		lsls	r3, r0, #15
 930 007e BEFBF1F2 		udiv	r2, lr, r1
 931 0082 97FBF1F7 		sdiv	r7, r7, r1
 932 0086 96FBF1F6 		sdiv	r6, r6, r1
 933 008a 93FBF1F3 		sdiv	r3, r3, r1
 934 008e C5E90176 		strd	r7, r6, [r5, #4]
 935 0092 2A60     		str	r2, [r5]
 936 0094 EB60     		str	r3, [r5, #12]
 937 0096 F8BD     		pop	{r3, r4, r5, r6, r7, pc}
 938              	.L68:
 939 0098 9E46     		mov	lr, r3
 940 009a D7E7     		b	.L57
 941              		.size	int32_quat_comp_inv_norm_shortest, .-int32_quat_comp_inv_norm_shortest
 942              		.section	.text.int32_quat_inv_comp_norm_shortest,"ax",%progbits
 943              		.align	1
 944              		.p2align 4,,15
 945              		.global	int32_quat_inv_comp_norm_shortest
 946              		.syntax unified
 947              		.thumb
 948              		.thumb_func
 949              		.fpu fpv4-sp-d16
 950              		.type	int32_quat_inv_comp_norm_shortest, %function
 951              	int32_quat_inv_comp_norm_shortest:
 952              		@ args = 0, pretend = 0, frame = 0
 953              		@ frame_needed = 0, uses_anonymous_args = 0
 954 0000 F8B5     		push	{r3, r4, r5, r6, r7, lr}
 955 0002 FFF7FEFF 		bl	int32_quat_inv_comp
 956 0006 0368     		ldr	r3, [r0]
 957 0008 002B     		cmp	r3, #0
 958 000a D0E90176 		ldrd	r7, r6, [r0, #4]
 959 000e 0546     		mov	r5, r0
 960 0010 0ADB     		blt	.L71
 961 0012 07FB07F4 		mul	r4, r7, r7
 962 0016 C068     		ldr	r0, [r0, #12]
 963 0018 03FB0344 		mla	r4, r3, r3, r4
 964 001c 06FB0644 		mla	r4, r6, r6, r4
 965 0020 00FB0044 		mla	r4, r0, r0, r4
 966 0024 C4BB     		cbnz	r4, .L84
 967              	.L70:
 968 0026 F8BD     		pop	{r3, r4, r5, r6, r7, pc}
 969              	.L71:
ARM GAS  /tmp/ccbUEg52.s 			page 18


 970 0028 03FB03F4 		mul	r4, r3, r3
 971 002c 07FB0744 		mla	r4, r7, r7, r4
 972 0030 06FB0644 		mla	r4, r6, r6, r4
 973 0034 C3F1000E 		rsb	lr, r3, #0
 974 0038 7F42     		rsbs	r7, r7, #0
 975 003a 7642     		rsbs	r6, r6, #0
 976 003c C0E900E7 		strd	lr, r7, [r0]
 977 0040 8660     		str	r6, [r0, #8]
 978 0042 C068     		ldr	r0, [r0, #12]
 979 0044 00FB0044 		mla	r4, r0, r0, r4
 980 0048 4042     		rsbs	r0, r0, #0
 981 004a E860     		str	r0, [r5, #12]
 982              	.L73:
 983 004c 2146     		mov	r1, r4
 984 004e 2822     		movs	r2, #40
 985 0050 02E0     		b	.L75
 986              	.L85:
 987 0052 12F0FF02 		ands	r2, r2, #255
 988 0056 0BD0     		beq	.L74
 989              	.L75:
 990 0058 B4FBF1F3 		udiv	r3, r4, r1
 991 005c 0B44     		add	r3, r3, r1
 992 005e A1EB530C 		sub	ip, r1, r3, lsr #1
 993 0062 BCF1010F 		cmp	ip, #1
 994 0066 02F1FF32 		add	r2, r2, #-1
 995 006a 4FEA5301 		lsr	r1, r3, #1
 996 006e F0D8     		bhi	.L85
 997              	.L74:
 998 0070 0029     		cmp	r1, #0
 999 0072 D8D0     		beq	.L70
 1000 0074 4FEACE3E 		lsl	lr, lr, #15
 1001 0078 FF03     		lsls	r7, r7, #15
 1002 007a F603     		lsls	r6, r6, #15
 1003 007c C303     		lsls	r3, r0, #15
 1004 007e BEFBF1F2 		udiv	r2, lr, r1
 1005 0082 97FBF1F7 		sdiv	r7, r7, r1
 1006 0086 96FBF1F6 		sdiv	r6, r6, r1
 1007 008a 93FBF1F3 		sdiv	r3, r3, r1
 1008 008e C5E90176 		strd	r7, r6, [r5, #4]
 1009 0092 2A60     		str	r2, [r5]
 1010 0094 EB60     		str	r3, [r5, #12]
 1011 0096 F8BD     		pop	{r3, r4, r5, r6, r7, pc}
 1012              	.L84:
 1013 0098 9E46     		mov	lr, r3
 1014 009a D7E7     		b	.L73
 1015              		.size	int32_quat_inv_comp_norm_shortest, .-int32_quat_inv_comp_norm_shortest
 1016              		.section	.text.int32_quat_derivative,"ax",%progbits
 1017              		.align	1
 1018              		.p2align 4,,15
 1019              		.global	int32_quat_derivative
 1020              		.syntax unified
 1021              		.thumb
 1022              		.thumb_func
 1023              		.fpu fpv4-sp-d16
 1024              		.type	int32_quat_derivative, %function
 1025              	int32_quat_derivative:
 1026              		@ args = 0, pretend = 0, frame = 0
ARM GAS  /tmp/ccbUEg52.s 			page 19


 1027              		@ frame_needed = 0, uses_anonymous_args = 0
 1028 0000 F0B5     		push	{r4, r5, r6, r7, lr}
 1029 0002 4E68     		ldr	r6, [r1, #4]
 1030 0004 D2F808E0 		ldr	lr, [r2, #8]
 1031 0008 0D68     		ldr	r5, [r1]
 1032 000a 5368     		ldr	r3, [r2, #4]
 1033 000c D1F808C0 		ldr	ip, [r1, #8]
 1034 0010 D468     		ldr	r4, [r2, #12]
 1035 0012 0EFB06F1 		mul	r1, lr, r6
 1036 0016 03FB0513 		mla	r3, r3, r5, r1
 1037 001a 04FB0C33 		mla	r3, r4, ip, r3
 1038 001e 5B42     		rsbs	r3, r3, #0
 1039 0020 5B13     		asrs	r3, r3, #13
 1040 0022 0360     		str	r3, [r0]
 1041 0024 1768     		ldr	r7, [r2]
 1042 0026 6942     		rsbs	r1, r5, #0
 1043 0028 07FB01F1 		mul	r1, r7, r1
 1044 002c 0CFB1E11 		mls	r1, ip, lr, r1
 1045 0030 04FB0611 		mla	r1, r4, r6, r1
 1046 0034 4942     		rsbs	r1, r1, #0
 1047 0036 4913     		asrs	r1, r1, #13
 1048 0038 4160     		str	r1, [r0, #4]
 1049 003a 5168     		ldr	r1, [r2, #4]
 1050 003c CCF10003 		rsb	r3, ip, #0
 1051 0040 01FB0CFC 		mul	ip, r1, ip
 1052 0044 05FB04F4 		mul	r4, r5, r4
 1053 0048 06FB17CC 		mls	ip, r6, r7, ip
 1054 004c A4EB0C04 		sub	r4, r4, ip
 1055 0050 6413     		asrs	r4, r4, #13
 1056 0052 8460     		str	r4, [r0, #8]
 1057 0054 9268     		ldr	r2, [r2, #8]
 1058 0056 07FB03F3 		mul	r3, r7, r3
 1059 005a 01FB1633 		mls	r3, r1, r6, r3
 1060 005e 02FB0533 		mla	r3, r2, r5, r3
 1061 0062 5B42     		rsbs	r3, r3, #0
 1062 0064 5B13     		asrs	r3, r3, #13
 1063 0066 C360     		str	r3, [r0, #12]
 1064 0068 F0BD     		pop	{r4, r5, r6, r7, pc}
 1065              		.size	int32_quat_derivative, .-int32_quat_derivative
 1066 006a 00BF     		.section	.text.int32_quat_integrate_fi,"ax",%progbits
 1067              		.align	1
 1068              		.p2align 4,,15
 1069              		.global	int32_quat_integrate_fi
 1070              		.syntax unified
 1071              		.thumb
 1072              		.thumb_func
 1073              		.fpu fpv4-sp-d16
 1074              		.type	int32_quat_integrate_fi, %function
 1075              	int32_quat_integrate_fi:
 1076              		@ args = 0, pretend = 0, frame = 64
 1077              		@ frame_needed = 0, uses_anonymous_args = 0
 1078 0000 2DE9F04F 		push	{r4, r5, r6, r7, r8, r9, r10, fp, lr}
 1079 0004 D2F80080 		ldr	r8, [r2]
 1080 0008 4668     		ldr	r6, [r0, #4]
 1081 000a D0F808A0 		ldr	r10, [r0, #8]
 1082 000e 0768     		ldr	r7, [r0]
 1083 0010 0C46     		mov	r4, r1
ARM GAS  /tmp/ccbUEg52.s 			page 20


 1084 0012 D8F1000C 		rsbs	ip, r8, #0
 1085 0016 4FEAE871 		asr	r1, r8, #31
 1086 001a D2E901E9 		ldrd	lr, r9, [r2, #4]
 1087 001e 61EB4102 		sbc	r2, r1, r1, lsl #1
 1088 0022 F117     		asrs	r1, r6, #31
 1089 0024 93B0     		sub	sp, sp, #76
 1090 0026 0CFB01F1 		mul	r1, ip, r1
 1091 002a 06FB0211 		mla	r1, r6, r2, r1
 1092 002e C268     		ldr	r2, [r0, #12]
 1093 0030 0292     		str	r2, [sp, #8]
 1094 0032 0546     		mov	r5, r0
 1095 0034 D4E90020 		ldrd	r2, r0, [r4]
 1096 0038 0390     		str	r0, [sp, #12]
 1097 003a A068     		ldr	r0, [r4, #8]
 1098 003c 0690     		str	r0, [sp, #24]
 1099 003e E068     		ldr	r0, [r4, #12]
 1100 0040 0790     		str	r0, [sp, #28]
 1101 0042 2069     		ldr	r0, [r4, #16]
 1102 0044 0890     		str	r0, [sp, #32]
 1103 0046 6069     		ldr	r0, [r4, #20]
 1104 0048 0990     		str	r0, [sp, #36]
 1105 004a A069     		ldr	r0, [r4, #24]
 1106 004c 0C90     		str	r0, [sp, #48]
 1107 004e ACFB06BC 		umull	fp, ip, ip, r6
 1108 0052 E069     		ldr	r0, [r4, #28]
 1109 0054 0D90     		str	r0, [sp, #52]
 1110 0056 6144     		add	r1, r1, ip
 1111 0058 5803     		lsls	r0, r3, #13
 1112 005a 0DF1380C 		add	ip, sp, #56
 1113 005e 43F38043 		sbfx	r3, r3, #18, #1
 1114 0062 0090     		str	r0, [sp]
 1115 0064 0193     		str	r3, [sp, #4]
 1116 0066 0490     		str	r0, [sp, #16]
 1117 0068 0593     		str	r3, [sp, #20]
 1118 006a 6046     		mov	r0, ip
 1119 006c 8EFB0AC3 		smull	ip, r3, lr, r10
 1120 0070 BBEB0C0C 		subs	ip, fp, ip
 1121 0074 61EB0301 		sbc	r1, r1, r3
 1122 0078 029B     		ldr	r3, [sp, #8]
 1123 007a 89FB033B 		smull	r3, fp, r9, r3
 1124 007e BCEB030C 		subs	ip, ip, r3
 1125 0082 039B     		ldr	r3, [sp, #12]
 1126 0084 61EB0B01 		sbc	r1, r1, fp
 1127 0088 1CEB0202 		adds	r2, ip, r2
 1128 008c 41EB0303 		adc	r3, r1, r3
 1129 0090 8AFB091B 		smull	r1, fp, r10, r9
 1130 0094 C4E90023 		strd	r2, r3, [r4]
 1131 0098 C8FB071B 		smlal	r1, fp, r8, r7
 1132 009c 0397     		str	r7, [sp, #12]
 1133 009e 029F     		ldr	r7, [sp, #8]
 1134 00a0 88FB0ACA 		smull	ip, r10, r8, r10
 1135 00a4 CDF82CA0 		str	r10, [sp, #44]
 1136 00a8 CDF828C0 		str	ip, [sp, #40]
 1137 00ac 8EFB07AC 		smull	r10, ip, lr, r7
 1138 00b0 069F     		ldr	r7, [sp, #24]
 1139 00b2 B1EB0A01 		subs	r1, r1, r10
 1140 00b6 6BEB0C0C 		sbc	ip, fp, ip
ARM GAS  /tmp/ccbUEg52.s 			page 21


 1141 00ba 7918     		adds	r1, r7, r1
 1142 00bc 079F     		ldr	r7, [sp, #28]
 1143 00be 4CEB070C 		adc	ip, ip, r7
 1144 00c2 039F     		ldr	r7, [sp, #12]
 1145 00c4 C4E9021C 		strd	r1, ip, [r4, #8]
 1146 00c8 8EFB071C 		smull	r1, ip, lr, r7
 1147 00cc 86FB0EEA 		smull	lr, r10, r6, lr
 1148 00d0 F346     		mov	fp, lr
 1149 00d2 D646     		mov	lr, r10
 1150 00d4 C9FB07BE 		smlal	fp, lr, r9, r7
 1151 00d8 86FB0969 		smull	r6, r9, r6, r9
 1152 00dc 029F     		ldr	r7, [sp, #8]
 1153 00de 8E1B     		subs	r6, r1, r6
 1154 00e0 6CEB090C 		sbc	ip, ip, r9
 1155 00e4 0899     		ldr	r1, [sp, #32]
 1156 00e6 C8FB076C 		smlal	r6, ip, r8, r7
 1157 00ea 8E19     		adds	r6, r1, r6
 1158 00ec 0A9F     		ldr	r7, [sp, #40]
 1159 00ee 0999     		ldr	r1, [sp, #36]
 1160 00f0 4CEB0101 		adc	r1, ip, r1
 1161 00f4 BBEB070C 		subs	ip, fp, r7
 1162 00f8 0B9F     		ldr	r7, [sp, #44]
 1163 00fa 6EEB070A 		sbc	r10, lr, r7
 1164 00fe 0C9F     		ldr	r7, [sp, #48]
 1165 0100 17EB0C0C 		adds	ip, r7, ip
 1166 0104 0D9F     		ldr	r7, [sp, #52]
 1167 0106 4AEB070A 		adc	r10, r10, r7
 1168 010a C4E90461 		strd	r6, r1, [r4, #16]
 1169 010e C4E906CA 		strd	ip, r10, [r4, #24]
 1170 0112 FFF7FEFF 		bl	lldiv
 1171 0116 049E     		ldr	r6, [sp, #16]
 1172 0118 059F     		ldr	r7, [sp, #20]
 1173 011a 0096     		str	r6, [sp]
 1174 011c 0197     		str	r7, [sp, #4]
 1175 011e 2B68     		ldr	r3, [r5]
 1176 0120 0E9A     		ldr	r2, [sp, #56]
 1177 0122 1344     		add	r3, r3, r2
 1178 0124 2B60     		str	r3, [r5]
 1179 0126 DDE91023 		ldrd	r2, [sp, #64]
 1180 012a 0EA8     		add	r0, sp, #56
 1181 012c C4E90023 		strd	r2, [r4]
 1182 0130 D4E90223 		ldrd	r2, [r4, #8]
 1183 0134 FFF7FEFF 		bl	lldiv
 1184 0138 CDE90067 		strd	r6, r7, [sp]
 1185 013c 0E9A     		ldr	r2, [sp, #56]
 1186 013e 6B68     		ldr	r3, [r5, #4]
 1187 0140 1344     		add	r3, r3, r2
 1188 0142 6B60     		str	r3, [r5, #4]
 1189 0144 DDE91023 		ldrd	r2, [sp, #64]
 1190 0148 0EA8     		add	r0, sp, #56
 1191 014a C4E90223 		strd	r2, [r4, #8]
 1192 014e D4E90423 		ldrd	r2, [r4, #16]
 1193 0152 FFF7FEFF 		bl	lldiv
 1194 0156 CDE90067 		strd	r6, r7, [sp]
 1195 015a 0E9E     		ldr	r6, [sp, #56]
 1196 015c A968     		ldr	r1, [r5, #8]
 1197 015e 3144     		add	r1, r1, r6
ARM GAS  /tmp/ccbUEg52.s 			page 22


 1198 0160 DDE91067 		ldrd	r6, [sp, #64]
 1199 0164 D4E90623 		ldrd	r2, [r4, #24]
 1200 0168 0EA8     		add	r0, sp, #56
 1201 016a A960     		str	r1, [r5, #8]
 1202 016c C4E90467 		strd	r6, [r4, #16]
 1203 0170 FFF7FEFF 		bl	lldiv
 1204 0174 EB68     		ldr	r3, [r5, #12]
 1205 0176 0E9A     		ldr	r2, [sp, #56]
 1206 0178 DDE91001 		ldrd	r0, [sp, #64]
 1207 017c 1344     		add	r3, r3, r2
 1208 017e EB60     		str	r3, [r5, #12]
 1209 0180 C4E90601 		strd	r0, [r4, #24]
 1210 0184 13B0     		add	sp, sp, #76
 1211              		@ sp needed
 1212 0186 BDE8F08F 		pop	{r4, r5, r6, r7, r8, r9, r10, fp, pc}
 1213              		.size	int32_quat_integrate_fi, .-int32_quat_integrate_fi
 1214 018a 00BF     		.section	.text.int32_quat_vmult,"ax",%progbits
 1215              		.align	1
 1216              		.p2align 4,,15
 1217              		.global	int32_quat_vmult
 1218              		.syntax unified
 1219              		.thumb
 1220              		.thumb_func
 1221              		.fpu fpv4-sp-d16
 1222              		.type	int32_quat_vmult, %function
 1223              	int32_quat_vmult:
 1224              		@ args = 0, pretend = 0, frame = 72
 1225              		@ frame_needed = 0, uses_anonymous_args = 0
 1226 0000 2DE9F04F 		push	{r4, r5, r6, r7, r8, r9, r10, fp, lr}
 1227 0004 0E68     		ldr	r6, [r1]
 1228 0006 4F68     		ldr	r7, [r1, #4]
 1229 0008 D2F80480 		ldr	r8, [r2, #4]
 1230 000c D2F80090 		ldr	r9, [r2]
 1231 0010 06FB06F3 		mul	r3, r6, r6
 1232 0014 93B0     		sub	sp, sp, #76
 1233 0016 9B13     		asrs	r3, r3, #14
 1234 0018 A3F50043 		sub	r3, r3, #32768
 1235 001c 0193     		str	r3, [sp, #4]
 1236 001e 0390     		str	r0, [sp, #12]
 1237 0020 D1E90230 		ldrd	r3, r0, [r1, #8]
 1238 0024 00FB07FE 		mul	lr, r0, r7
 1239 0028 0293     		str	r3, [sp, #8]
 1240 002a 4FEAAE31 		asr	r1, lr, #14
 1241 002e 0691     		str	r1, [sp, #24]
 1242 0030 0299     		ldr	r1, [sp, #8]
 1243 0032 0492     		str	r2, [sp, #16]
 1244 0034 4FEAEE74 		asr	r4, lr, #31
 1245 0038 00FB01FE 		mul	lr, r0, r1
 1246 003c 0794     		str	r4, [sp, #28]
 1247 003e 9468     		ldr	r4, [r2, #8]
 1248 0040 4FEAAE32 		asr	r2, lr, #14
 1249 0044 4FEAEE7E 		asr	lr, lr, #31
 1250 0048 CDF824E0 		str	lr, [sp, #36]
 1251 004c 80FB06BE 		smull	fp, lr, r0, r6
 1252 0050 4FEA9B3B 		lsr	fp, fp, #14
 1253 0054 4BEA8E4B 		orr	fp, fp, lr, lsl #18
 1254 0058 03FB07F5 		mul	r5, r3, r7
ARM GAS  /tmp/ccbUEg52.s 			page 23


 1255 005c 4FEAE871 		asr	r1, r8, #31
 1256 0060 0591     		str	r1, [sp, #20]
 1257 0062 AB13     		asrs	r3, r5, #14
 1258 0064 5946     		mov	r1, fp
 1259 0066 5B18     		adds	r3, r3, r1
 1260 0068 4FEAE575 		asr	r5, r5, #31
 1261 006c 0599     		ldr	r1, [sp, #20]
 1262 006e CDF834B0 		str	fp, [sp, #52]
 1263 0072 45EBAE35 		adc	r5, r5, lr, asr #14
 1264 0076 4FEAAE3E 		asr	lr, lr, #14
 1265 007a CDE90EE5 		strd	lr, r5, [sp, #56]
 1266 007e 08FB05F5 		mul	r5, r8, r5
 1267 0082 03FB015E 		mla	lr, r3, r1, r5
 1268 0086 80FB0050 		smull	r5, r0, r0, r0
 1269 008a AD0B     		lsrs	r5, r5, #14
 1270 008c 4FEAE47A 		asr	r10, r4, #31
 1271 0090 45EA8045 		orr	r5, r5, r0, lsl #18
 1272 0094 CDF828E0 		str	lr, [sp, #40]
 1273 0098 8013     		asrs	r0, r0, #14
 1274 009a 05FB0AFE 		mul	lr, r5, r10
 1275 009e 04FB00E0 		mla	r0, r4, r0, lr
 1276 00a2 A5FB04E5 		umull	lr, r5, r5, r4
 1277 00a6 2844     		add	r0, r0, r5
 1278 00a8 87FB075B 		smull	r5, fp, r7, r7
 1279 00ac AD0B     		lsrs	r5, r5, #14
 1280 00ae 4FEAE97C 		asr	ip, r9, #31
 1281 00b2 45EA8B45 		orr	r5, r5, fp, lsl #18
 1282 00b6 0B90     		str	r0, [sp, #44]
 1283 00b8 4FEAAB30 		asr	r0, fp, #14
 1284 00bc 05FB0CFB 		mul	fp, r5, ip
 1285 00c0 09FB00BB 		mla	fp, r9, r0, fp
 1286 00c4 87FB0607 		smull	r0, r7, r7, r6
 1287 00c8 800B     		lsrs	r0, r0, #14
 1288 00ca 40EA874C 		orr	ip, r0, r7, lsl #18
 1289 00ce 0298     		ldr	r0, [sp, #8]
 1290 00d0 0892     		str	r2, [sp, #32]
 1291 00d2 80FB0606 		smull	r0, r6, r0, r6
 1292 00d6 6146     		mov	r1, ip
 1293 00d8 4FEA903C 		lsr	ip, r0, #14
 1294 00dc 0698     		ldr	r0, [sp, #24]
 1295 00de 079A     		ldr	r2, [sp, #28]
 1296 00e0 CDF844E0 		str	lr, [sp, #68]
 1297 00e4 4CEA864C 		orr	ip, ip, r6, lsl #18
 1298 00e8 B0EB0C00 		subs	r0, r0, ip
 1299 00ec 62EBA63E 		sbc	lr, r2, r6, asr #14
 1300 00f0 089A     		ldr	r2, [sp, #32]
 1301 00f2 0891     		str	r1, [sp, #32]
 1302 00f4 5118     		adds	r1, r2, r1
 1303 00f6 099A     		ldr	r2, [sp, #36]
 1304 00f8 0691     		str	r1, [sp, #24]
 1305 00fa 42EBA732 		adc	r2, r2, r7, asr #14
 1306 00fe B613     		asrs	r6, r6, #14
 1307 0100 0792     		str	r2, [sp, #28]
 1308 0102 0C96     		str	r6, [sp, #48]
 1309 0104 BE13     		asrs	r6, r7, #14
 1310 0106 0996     		str	r6, [sp, #36]
 1311 0108 A5FB0956 		umull	r5, r6, r5, r9
ARM GAS  /tmp/ccbUEg52.s 			page 24


 1312 010c 0299     		ldr	r1, [sp, #8]
 1313 010e B344     		add	fp, fp, r6
 1314 0110 019E     		ldr	r6, [sp, #4]
 1315 0112 2F46     		mov	r7, r5
 1316 0114 C9FB067B 		smlal	r7, fp, r9, r6
 1317 0118 81FB0115 		smull	r1, r5, r1, r1
 1318 011c 3A46     		mov	r2, r7
 1319 011e 890B     		lsrs	r1, r1, #14
 1320 0120 059F     		ldr	r7, [sp, #20]
 1321 0122 41EA8541 		orr	r1, r1, r5, lsl #18
 1322 0126 01FB07F6 		mul	r6, r1, r7
 1323 012a AD13     		asrs	r5, r5, #14
 1324 012c 08FB0565 		mla	r5, r8, r5, r6
 1325 0130 A1FB0816 		umull	r1, r6, r1, r8
 1326 0134 AF19     		adds	r7, r5, r6
 1327 0136 0297     		str	r7, [sp, #8]
 1328 0138 079F     		ldr	r7, [sp, #28]
 1329 013a 069E     		ldr	r6, [sp, #24]
 1330 013c 1091     		str	r1, [sp, #64]
 1331 013e 04FB0EF9 		mul	r9, r4, lr
 1332 0142 04FB07F5 		mul	r5, r4, r7
 1333 0146 00FB0A99 		mla	r9, r0, r10, r9
 1334 014a 06FB0A5A 		mla	r10, r6, r10, r5
 1335 014e A8FB0375 		umull	r7, r5, r8, r3
 1336 0152 D719     		adds	r7, r2, r7
 1337 0154 0A9A     		ldr	r2, [sp, #40]
 1338 0156 CDF814A0 		str	r10, [sp, #20]
 1339 015a 1544     		add	r5, r5, r2
 1340 015c 45EB0B0B 		adc	fp, r5, fp
 1341 0160 A4FB0056 		umull	r5, r6, r4, r0
 1342 0164 7D19     		adds	r5, r7, r5
 1343 0166 4E44     		add	r6, r6, r9
 1344 0168 039F     		ldr	r7, [sp, #12]
 1345 016a 049A     		ldr	r2, [sp, #16]
 1346 016c 0199     		ldr	r1, [sp, #4]
 1347 016e 46EB0B06 		adc	r6, r6, fp
 1348 0172 ED0B     		lsrs	r5, r5, #15
 1349 0174 45EA4645 		orr	r5, r5, r6, lsl #17
 1350 0178 3D60     		str	r5, [r7]
 1351 017a 1768     		ldr	r7, [r2]
 1352 017c 0E9A     		ldr	r2, [sp, #56]
 1353 017e 0F9D     		ldr	r5, [sp, #60]
 1354 0180 07FB02F9 		mul	r9, r7, r2
 1355 0184 0C9A     		ldr	r2, [sp, #48]
 1356 0186 07FB02F6 		mul	r6, r7, r2
 1357 018a 0D9A     		ldr	r2, [sp, #52]
 1358 018c 4FEAE77A 		asr	r10, r7, #31
 1359 0190 07FB05F5 		mul	r5, r7, r5
 1360 0194 07FB0EFE 		mul	lr, r7, lr
 1361 0198 02FB0A99 		mla	r9, r2, r10, r9
 1362 019c 00FB0AEE 		mla	lr, r0, r10, lr
 1363 01a0 0CFB0A66 		mla	r6, ip, r10, r6
 1364 01a4 03FB0A55 		mla	r5, r3, r10, r5
 1365 01a8 A7FB033A 		umull	r3, r10, r7, r3
 1366 01ac 5544     		add	r5, r5, r10
 1367 01ae C8FB0135 		smlal	r3, r5, r8, r1
 1368 01b2 A7FB02B8 		umull	fp, r8, r7, r2
ARM GAS  /tmp/ccbUEg52.s 			page 25


 1369 01b6 C144     		add	r9, r9, r8
 1370 01b8 1BEB0B0B 		adds	fp, fp, fp
 1371 01bc 49EB0909 		adc	r9, r9, r9
 1372 01c0 B3EB0B0B 		subs	fp, r3, fp
 1373 01c4 109B     		ldr	r3, [sp, #64]
 1374 01c6 029A     		ldr	r2, [sp, #8]
 1375 01c8 0199     		ldr	r1, [sp, #4]
 1376 01ca 65EB0909 		sbc	r9, r5, r9
 1377 01ce 1BEB030B 		adds	fp, fp, r3
 1378 01d2 A7FB0003 		umull	r0, r3, r7, r0
 1379 01d6 9E44     		add	lr, lr, r3
 1380 01d8 069B     		ldr	r3, [sp, #24]
 1381 01da 42EB0909 		adc	r9, r2, r9
 1382 01de 059A     		ldr	r2, [sp, #20]
 1383 01e0 C4FB010E 		smlal	r0, lr, r4, r1
 1384 01e4 A4FB0345 		umull	r4, r5, r4, r3
 1385 01e8 1BEB040B 		adds	fp, fp, r4
 1386 01ec 1544     		add	r5, r5, r2
 1387 01ee 45EB0905 		adc	r5, r5, r9
 1388 01f2 4FEADB34 		lsr	r4, fp, #15
 1389 01f6 44EA4544 		orr	r4, r4, r5, lsl #17
 1390 01fa 039D     		ldr	r5, [sp, #12]
 1391 01fc 049A     		ldr	r2, [sp, #16]
 1392 01fe 6C60     		str	r4, [r5, #4]
 1393 0200 A7FB0C87 		umull	r8, r7, r7, ip
 1394 0204 5268     		ldr	r2, [r2, #4]
 1395 0206 3E44     		add	r6, r6, r7
 1396 0208 079F     		ldr	r7, [sp, #28]
 1397 020a 18EB0808 		adds	r8, r8, r8
 1398 020e 02FB07F4 		mul	r4, r2, r7
 1399 0212 4FEAE271 		asr	r1, r2, #31
 1400 0216 099F     		ldr	r7, [sp, #36]
 1401 0218 7641     		adcs	r6, r6, r6
 1402 021a 10EB0800 		adds	r0, r0, r8
 1403 021e 4EEB0606 		adc	r6, lr, r6
 1404 0222 03FB014E 		mla	lr, r3, r1, r4
 1405 0226 089C     		ldr	r4, [sp, #32]
 1406 0228 A2FB03C3 		umull	ip, r3, r2, r3
 1407 022c 02FB07F7 		mul	r7, r2, r7
 1408 0230 10EB0C00 		adds	r0, r0, ip
 1409 0234 04FB0171 		mla	r1, r4, r1, r7
 1410 0238 9E44     		add	lr, lr, r3
 1411 023a A2FB0427 		umull	r2, r7, r2, r4
 1412 023e 119B     		ldr	r3, [sp, #68]
 1413 0240 4EEB060E 		adc	lr, lr, r6
 1414 0244 0F44     		add	r7, r7, r1
 1415 0246 9218     		adds	r2, r2, r2
 1416 0248 7F41     		adcs	r7, r7, r7
 1417 024a 821A     		subs	r2, r0, r2
 1418 024c 0B98     		ldr	r0, [sp, #44]
 1419 024e 6EEB070E 		sbc	lr, lr, r7
 1420 0252 D218     		adds	r2, r2, r3
 1421 0254 40EB0E00 		adc	r0, r0, lr
 1422 0258 D20B     		lsrs	r2, r2, #15
 1423 025a 42EA4042 		orr	r2, r2, r0, lsl #17
 1424 025e AA60     		str	r2, [r5, #8]
 1425 0260 13B0     		add	sp, sp, #76
ARM GAS  /tmp/ccbUEg52.s 			page 26


 1426              		@ sp needed
 1427 0262 BDE8F08F 		pop	{r4, r5, r6, r7, r8, r9, r10, fp, pc}
 1428              		.size	int32_quat_vmult, .-int32_quat_vmult
 1429 0266 00BF     		.section	.text.int32_quat_of_eulers,"ax",%progbits
 1430              		.align	1
 1431              		.p2align 4,,15
 1432              		.global	int32_quat_of_eulers
 1433              		.syntax unified
 1434              		.thumb
 1435              		.thumb_func
 1436              		.fpu fpv4-sp-d16
 1437              		.type	int32_quat_of_eulers, %function
 1438              	int32_quat_of_eulers:
 1439              		@ args = 0, pretend = 0, frame = 0
 1440              		@ frame_needed = 0, uses_anonymous_args = 0
 1441 0000 2DE9F047 		push	{r4, r5, r6, r7, r8, r9, r10, lr}
 1442 0004 D1E90074 		ldrd	r7, r4, [r1]
 1443 0008 07EBD777 		add	r7, r7, r7, lsr #31
 1444 000c 7F10     		asrs	r7, r7, #1
 1445 000e 0646     		mov	r6, r0
 1446 0010 3846     		mov	r0, r7
 1447 0012 8D68     		ldr	r5, [r1, #8]
 1448 0014 FFF7FEFF 		bl	pprz_itrig_sin
 1449 0018 8146     		mov	r9, r0
 1450 001a 3846     		mov	r0, r7
 1451 001c FFF7FEFF 		bl	pprz_itrig_cos
 1452 0020 04EBD474 		add	r4, r4, r4, lsr #31
 1453 0024 6410     		asrs	r4, r4, #1
 1454 0026 8046     		mov	r8, r0
 1455 0028 2046     		mov	r0, r4
 1456 002a FFF7FEFF 		bl	pprz_itrig_sin
 1457 002e 8246     		mov	r10, r0
 1458 0030 2046     		mov	r0, r4
 1459 0032 FFF7FEFF 		bl	pprz_itrig_cos
 1460 0036 05EBD575 		add	r5, r5, r5, lsr #31
 1461 003a 6D10     		asrs	r5, r5, #1
 1462 003c 0746     		mov	r7, r0
 1463 003e 2846     		mov	r0, r5
 1464 0040 FFF7FEFF 		bl	pprz_itrig_sin
 1465 0044 0446     		mov	r4, r0
 1466 0046 2846     		mov	r0, r5
 1467 0048 FFF7FEFF 		bl	pprz_itrig_cos
 1468 004c 04FB07F3 		mul	r3, r4, r7
 1469 0050 00FB07F2 		mul	r2, r0, r7
 1470 0054 04FB0AF4 		mul	r4, r4, r10
 1471 0058 A413     		asrs	r4, r4, #14
 1472 005a 00FB0AF1 		mul	r1, r0, r10
 1473 005e C8F10005 		rsb	r5, r8, #0
 1474 0062 9013     		asrs	r0, r2, #14
 1475 0064 04FB05F5 		mul	r5, r4, r5
 1476 0068 04FB09F2 		mul	r2, r4, r9
 1477 006c 00FB09F4 		mul	r4, r0, r9
 1478 0070 5213     		asrs	r2, r2, #13
 1479 0072 00FB08F0 		mul	r0, r0, r8
 1480 0076 6413     		asrs	r4, r4, #13
 1481 0078 02EB6032 		add	r2, r2, r0, asr #13
 1482 007c 9B13     		asrs	r3, r3, #14
ARM GAS  /tmp/ccbUEg52.s 			page 27


 1483 007e 04EB6534 		add	r4, r4, r5, asr #13
 1484 0082 8913     		asrs	r1, r1, #14
 1485 0084 3260     		str	r2, [r6]
 1486 0086 7460     		str	r4, [r6, #4]
 1487 0088 C9F10002 		rsb	r2, r9, #0
 1488 008c 03FB09F4 		mul	r4, r3, r9
 1489 0090 03FB08F3 		mul	r3, r3, r8
 1490 0094 01FB08F0 		mul	r0, r1, r8
 1491 0098 01FB02F2 		mul	r2, r1, r2
 1492 009c 5B13     		asrs	r3, r3, #13
 1493 009e 6113     		asrs	r1, r4, #13
 1494 00a0 01EB6030 		add	r0, r1, r0, asr #13
 1495 00a4 03EB6233 		add	r3, r3, r2, asr #13
 1496 00a8 C6E90203 		strd	r0, r3, [r6, #8]
 1497 00ac BDE8F087 		pop	{r4, r5, r6, r7, r8, r9, r10, pc}
 1498              		.size	int32_quat_of_eulers, .-int32_quat_of_eulers
 1499              		.section	.text.int32_quat_of_axis_angle,"ax",%progbits
 1500              		.align	1
 1501              		.p2align 4,,15
 1502              		.global	int32_quat_of_axis_angle
 1503              		.syntax unified
 1504              		.thumb
 1505              		.thumb_func
 1506              		.fpu fpv4-sp-d16
 1507              		.type	int32_quat_of_axis_angle, %function
 1508              	int32_quat_of_axis_angle:
 1509              		@ args = 0, pretend = 0, frame = 0
 1510              		@ frame_needed = 0, uses_anonymous_args = 0
 1511 0000 02EBD272 		add	r2, r2, r2, lsr #31
 1512 0004 70B5     		push	{r4, r5, r6, lr}
 1513 0006 5410     		asrs	r4, r2, #1
 1514 0008 0546     		mov	r5, r0
 1515 000a 2046     		mov	r0, r4
 1516 000c 0E46     		mov	r6, r1
 1517 000e FFF7FEFF 		bl	pprz_itrig_sin
 1518 0012 0346     		mov	r3, r0
 1519 0014 2046     		mov	r0, r4
 1520 0016 1C46     		mov	r4, r3
 1521 0018 FFF7FEFF 		bl	pprz_itrig_cos
 1522 001c 4000     		lsls	r0, r0, #1
 1523 001e 2860     		str	r0, [r5]
 1524 0020 D6E90001 		ldrd	r0, r1, [r6]
 1525 0024 B268     		ldr	r2, [r6, #8]
 1526 0026 6300     		lsls	r3, r4, #1
 1527 0028 03FB00F0 		mul	r0, r3, r0
 1528 002c 03FB01F1 		mul	r1, r3, r1
 1529 0030 02FB03F3 		mul	r3, r2, r3
 1530 0034 C5E90101 		strd	r0, r1, [r5, #4]
 1531 0038 EB60     		str	r3, [r5, #12]
 1532 003a 70BD     		pop	{r4, r5, r6, pc}
 1533              		.size	int32_quat_of_axis_angle, .-int32_quat_of_axis_angle
 1534              		.global	__aeabi_i2d
 1535              		.global	__aeabi_dadd
 1536              		.global	__aeabi_d2iz
 1537              		.section	.text.int32_quat_of_rmat,"ax",%progbits
 1538              		.align	1
 1539              		.p2align 4,,15
ARM GAS  /tmp/ccbUEg52.s 			page 28


 1540              		.global	int32_quat_of_rmat
 1541              		.syntax unified
 1542              		.thumb
 1543              		.thumb_func
 1544              		.fpu fpv4-sp-d16
 1545              		.type	int32_quat_of_rmat, %function
 1546              	int32_quat_of_rmat:
 1547              		@ args = 0, pretend = 0, frame = 0
 1548              		@ frame_needed = 0, uses_anonymous_args = 0
 1549 0000 70B5     		push	{r4, r5, r6, lr}
 1550 0002 0D46     		mov	r5, r1
 1551 0004 0968     		ldr	r1, [r1]
 1552 0006 2B69     		ldr	r3, [r5, #16]
 1553 0008 2A6A     		ldr	r2, [r5, #32]
 1554 000a 0646     		mov	r6, r0
 1555 000c C818     		adds	r0, r1, r3
 1556 000e 1044     		add	r0, r0, r2
 1557 0010 0028     		cmp	r0, #0
 1558 0012 34DD     		ble	.L97
 1559 0014 FFF7FEFF 		bl	__aeabi_i2d
 1560 0018 6B4B     		ldr	r3, .L143
 1561 001a 0022     		movs	r2, #0
 1562 001c FFF7FEFF 		bl	__aeabi_dadd
 1563 0020 FFF7FEFF 		bl	__aeabi_d2iz
 1564 0024 8003     		lsls	r0, r0, #14
 1565 0026 29D0     		beq	.L96
 1566 0028 0446     		mov	r4, r0
 1567 002a 2822     		movs	r2, #40
 1568 002c 02E0     		b	.L100
 1569              	.L139:
 1570 002e 12F0FF02 		ands	r2, r2, #255
 1571 0032 0AD0     		beq	.L99
 1572              	.L100:
 1573 0034 B0FBF4F3 		udiv	r3, r0, r4
 1574 0038 2344     		add	r3, r3, r4
 1575 003a A4EB5301 		sub	r1, r4, r3, lsr #1
 1576 003e 0129     		cmp	r1, #1
 1577 0040 02F1FF32 		add	r2, r2, #-1
 1578 0044 4FEA5304 		lsr	r4, r3, #1
 1579 0048 F1D8     		bhi	.L139
 1580              	.L99:
 1581 004a 33F00103 		bics	r3, r3, #1
 1582 004e 15D0     		beq	.L96
 1583 0050 6A69     		ldr	r2, [r5, #20]
 1584 0052 E969     		ldr	r1, [r5, #28]
 1585 0054 E868     		ldr	r0, [r5, #12]
 1586 0056 3460     		str	r4, [r6]
 1587 0058 521A     		subs	r2, r2, r1
 1588 005a D203     		lsls	r2, r2, #15
 1589 005c A969     		ldr	r1, [r5, #24]
 1590 005e B2FBF3F2 		udiv	r2, r2, r3
 1591 0062 7260     		str	r2, [r6, #4]
 1592 0064 AA68     		ldr	r2, [r5, #8]
 1593 0066 891A     		subs	r1, r1, r2
 1594 0068 6A68     		ldr	r2, [r5, #4]
 1595 006a 121A     		subs	r2, r2, r0
 1596              	.L138:
ARM GAS  /tmp/ccbUEg52.s 			page 29


 1597 006c C903     		lsls	r1, r1, #15
 1598 006e D203     		lsls	r2, r2, #15
 1599 0070 B1FBF3F1 		udiv	r1, r1, r3
 1600 0074 B2FBF3F3 		udiv	r3, r2, r3
 1601 0078 C6E90213 		strd	r1, r3, [r6, #8]
 1602              	.L96:
 1603 007c 70BD     		pop	{r4, r5, r6, pc}
 1604              	.L97:
 1605 007e 9942     		cmp	r1, r3
 1606 0080 30DD     		ble	.L101
 1607 0082 9142     		cmp	r1, r2
 1608 0084 2EDD     		ble	.L101
 1609 0086 C81A     		subs	r0, r1, r3
 1610 0088 801A     		subs	r0, r0, r2
 1611 008a FFF7FEFF 		bl	__aeabi_i2d
 1612 008e 4E4B     		ldr	r3, .L143
 1613 0090 0022     		movs	r2, #0
 1614 0092 FFF7FEFF 		bl	__aeabi_dadd
 1615 0096 FFF7FEFF 		bl	__aeabi_d2iz
 1616 009a 8003     		lsls	r0, r0, #14
 1617 009c EED0     		beq	.L96
 1618 009e 0146     		mov	r1, r0
 1619 00a0 2822     		movs	r2, #40
 1620 00a2 02E0     		b	.L103
 1621              	.L140:
 1622 00a4 12F0FF02 		ands	r2, r2, #255
 1623 00a8 0AD0     		beq	.L102
 1624              	.L103:
 1625 00aa B0FBF1F3 		udiv	r3, r0, r1
 1626 00ae 0B44     		add	r3, r3, r1
 1627 00b0 A1EB5304 		sub	r4, r1, r3, lsr #1
 1628 00b4 012C     		cmp	r4, #1
 1629 00b6 02F1FF32 		add	r2, r2, #-1
 1630 00ba 4FEA5301 		lsr	r1, r3, #1
 1631 00be F1D8     		bhi	.L140
 1632              	.L102:
 1633 00c0 33F00103 		bics	r3, r3, #1
 1634 00c4 DAD0     		beq	.L96
 1635 00c6 E869     		ldr	r0, [r5, #28]
 1636 00c8 6A69     		ldr	r2, [r5, #20]
 1637 00ca 7160     		str	r1, [r6, #4]
 1638 00cc 121A     		subs	r2, r2, r0
 1639 00ce 6968     		ldr	r1, [r5, #4]
 1640 00d0 A868     		ldr	r0, [r5, #8]
 1641 00d2 D203     		lsls	r2, r2, #15
 1642 00d4 B2FBF3F2 		udiv	r2, r2, r3
 1643 00d8 3260     		str	r2, [r6]
 1644 00da EA68     		ldr	r2, [r5, #12]
 1645 00dc 1144     		add	r1, r1, r2
 1646 00de AA69     		ldr	r2, [r5, #24]
 1647 00e0 0244     		add	r2, r2, r0
 1648 00e2 C3E7     		b	.L138
 1649              	.L101:
 1650 00e4 9342     		cmp	r3, r2
 1651 00e6 36DD     		ble	.L104
 1652 00e8 5B1A     		subs	r3, r3, r1
 1653 00ea 981A     		subs	r0, r3, r2
ARM GAS  /tmp/ccbUEg52.s 			page 30


 1654 00ec FFF7FEFF 		bl	__aeabi_i2d
 1655 00f0 354B     		ldr	r3, .L143
 1656 00f2 0022     		movs	r2, #0
 1657 00f4 FFF7FEFF 		bl	__aeabi_dadd
 1658 00f8 FFF7FEFF 		bl	__aeabi_d2iz
 1659 00fc 8003     		lsls	r0, r0, #14
 1660 00fe BDD0     		beq	.L96
 1661 0100 0146     		mov	r1, r0
 1662 0102 2822     		movs	r2, #40
 1663 0104 02E0     		b	.L106
 1664              	.L141:
 1665 0106 12F0FF02 		ands	r2, r2, #255
 1666 010a 0AD0     		beq	.L105
 1667              	.L106:
 1668 010c B0FBF1F3 		udiv	r3, r0, r1
 1669 0110 0B44     		add	r3, r3, r1
 1670 0112 A1EB5304 		sub	r4, r1, r3, lsr #1
 1671 0116 012C     		cmp	r4, #1
 1672 0118 02F1FF32 		add	r2, r2, #-1
 1673 011c 4FEA5301 		lsr	r1, r3, #1
 1674 0120 F1D8     		bhi	.L141
 1675              	.L105:
 1676 0122 33F00103 		bics	r3, r3, #1
 1677 0126 A9D0     		beq	.L96
 1678 0128 A868     		ldr	r0, [r5, #8]
 1679 012a AA69     		ldr	r2, [r5, #24]
 1680 012c 121A     		subs	r2, r2, r0
 1681 012e D203     		lsls	r2, r2, #15
 1682 0130 E868     		ldr	r0, [r5, #12]
 1683 0132 B2FBF3F2 		udiv	r2, r2, r3
 1684 0136 3260     		str	r2, [r6]
 1685 0138 6A68     		ldr	r2, [r5, #4]
 1686 013a B160     		str	r1, [r6, #8]
 1687 013c 1118     		adds	r1, r2, r0
 1688 013e 6A69     		ldr	r2, [r5, #20]
 1689 0140 E869     		ldr	r0, [r5, #28]
 1690 0142 0244     		add	r2, r2, r0
 1691 0144 C903     		lsls	r1, r1, #15
 1692 0146 D203     		lsls	r2, r2, #15
 1693 0148 B1FBF3F1 		udiv	r1, r1, r3
 1694 014c B2FBF3F3 		udiv	r3, r2, r3
 1695 0150 7160     		str	r1, [r6, #4]
 1696 0152 F360     		str	r3, [r6, #12]
 1697 0154 70BD     		pop	{r4, r5, r6, pc}
 1698              	.L104:
 1699 0156 501A     		subs	r0, r2, r1
 1700 0158 C01A     		subs	r0, r0, r3
 1701 015a FFF7FEFF 		bl	__aeabi_i2d
 1702 015e 1A4B     		ldr	r3, .L143
 1703 0160 0022     		movs	r2, #0
 1704 0162 FFF7FEFF 		bl	__aeabi_dadd
 1705 0166 FFF7FEFF 		bl	__aeabi_d2iz
 1706 016a 8003     		lsls	r0, r0, #14
 1707 016c 86D0     		beq	.L96
 1708 016e 0146     		mov	r1, r0
 1709 0170 2822     		movs	r2, #40
 1710 0172 02E0     		b	.L108
ARM GAS  /tmp/ccbUEg52.s 			page 31


 1711              	.L142:
 1712 0174 12F0FF02 		ands	r2, r2, #255
 1713 0178 0AD0     		beq	.L107
 1714              	.L108:
 1715 017a B0FBF1F3 		udiv	r3, r0, r1
 1716 017e 0B44     		add	r3, r3, r1
 1717 0180 A1EB5304 		sub	r4, r1, r3, lsr #1
 1718 0184 012C     		cmp	r4, #1
 1719 0186 02F1FF32 		add	r2, r2, #-1
 1720 018a 4FEA5301 		lsr	r1, r3, #1
 1721 018e F1D8     		bhi	.L142
 1722              	.L107:
 1723 0190 33F00103 		bics	r3, r3, #1
 1724 0194 3FF472AF 		beq	.L96
 1725 0198 E868     		ldr	r0, [r5, #12]
 1726 019a 6A68     		ldr	r2, [r5, #4]
 1727 019c 121A     		subs	r2, r2, r0
 1728 019e D203     		lsls	r2, r2, #15
 1729 01a0 A868     		ldr	r0, [r5, #8]
 1730 01a2 B2FBF3F2 		udiv	r2, r2, r3
 1731 01a6 3260     		str	r2, [r6]
 1732 01a8 AA69     		ldr	r2, [r5, #24]
 1733 01aa 0244     		add	r2, r2, r0
 1734 01ac D203     		lsls	r2, r2, #15
 1735 01ae E869     		ldr	r0, [r5, #28]
 1736 01b0 B2FBF3F2 		udiv	r2, r2, r3
 1737 01b4 7260     		str	r2, [r6, #4]
 1738 01b6 6A69     		ldr	r2, [r5, #20]
 1739 01b8 F160     		str	r1, [r6, #12]
 1740 01ba 0244     		add	r2, r2, r0
 1741 01bc D203     		lsls	r2, r2, #15
 1742 01be B2FBF3F3 		udiv	r3, r2, r3
 1743 01c2 B360     		str	r3, [r6, #8]
 1744 01c4 70BD     		pop	{r4, r5, r6, pc}
 1745              	.L144:
 1746 01c6 00BF     		.align	2
 1747              	.L143:
 1748 01c8 0000D040 		.word	1087373312
 1749              		.size	int32_quat_of_rmat, .-int32_quat_of_rmat
 1750              		.section	.text.int32_eulers_of_rmat,"ax",%progbits
 1751              		.align	1
 1752              		.p2align 4,,15
 1753              		.global	int32_eulers_of_rmat
 1754              		.syntax unified
 1755              		.thumb
 1756              		.thumb_func
 1757              		.fpu fpv4-sp-d16
 1758              		.type	int32_eulers_of_rmat, %function
 1759              	int32_eulers_of_rmat:
 1760              		@ args = 0, pretend = 0, frame = 0
 1761              		@ frame_needed = 0, uses_anonymous_args = 0
 1762 0000 10B5     		push	{r4, lr}
 1763 0002 D1ED027A 		vldr.32	s15, [r1, #8]	@ int
 1764 0006 DFED306A 		vldr.32	s13, .L152
 1765 000a 91ED087A 		vldr.32	s14, [r1, #32]	@ int
 1766 000e 2DED048B 		vpush.64	{d8, d9}
 1767 0012 B8EEE78A 		vcvt.f32.s32	s16, s15
ARM GAS  /tmp/ccbUEg52.s 			page 32


 1768 0016 D1ED057A 		vldr.32	s15, [r1, #20]	@ int
 1769 001a D1ED009A 		vldr.32	s19, [r1]	@ int
 1770 001e 91ED019A 		vldr.32	s18, [r1, #4]	@ int
 1771 0022 F8EEE77A 		vcvt.f32.s32	s15, s15
 1772 0026 B8EEC77A 		vcvt.f32.s32	s14, s14
 1773 002a 67EEA67A 		vmul.f32	s15, s15, s13
 1774 002e 28EE268A 		vmul.f32	s16, s16, s13
 1775 0032 BFEE006A 		vmov.f32	s12, #-1.0e+0
 1776 0036 F8EEE99A 		vcvt.f32.s32	s19, s19
 1777 003a B8EEC99A 		vcvt.f32.s32	s18, s18
 1778 003e 0446     		mov	r4, r0
 1779 0040 B4EEC68A 		vcmpe.f32	s16, s12
 1780 0044 17EE900A 		vmov	r0, s15
 1781 0048 67EE267A 		vmul.f32	s15, s14, s13
 1782 004c F1EE10FA 		vmrs	APSR_nzcv, FPSCR
 1783 0050 69EEA69A 		vmul.f32	s19, s19, s13
 1784 0054 29EE269A 		vmul.f32	s18, s18, s13
 1785 0058 17EE901A 		vmov	r1, s15
 1786 005c 31DD     		ble	.L150
 1787 005e F7EE007A 		vmov.f32	s15, #1.0e+0
 1788 0062 B4EEE78A 		vcmpe.f32	s16, s15
 1789 0066 F1EE10FA 		vmrs	APSR_nzcv, FPSCR
 1790 006a 58BF     		it	pl
 1791 006c B0EE678A 		vmovpl.f32	s16, s15
 1792              	.L146:
 1793 0070 FFF7FEFF 		bl	atan2f
 1794 0074 0346     		mov	r3, r0	@ float
 1795 0076 18EE100A 		vmov	r0, s16
 1796 007a 08EE903A 		vmov	s17, r3
 1797 007e FFF7FEFF 		bl	asinf
 1798 0082 19EE901A 		vmov	r1, s19
 1799 0086 0346     		mov	r3, r0	@ float
 1800 0088 19EE100A 		vmov	r0, s18
 1801 008c 08EE103A 		vmov	s16, r3
 1802 0090 FFF7FEFF 		bl	atan2f
 1803 0094 DFED0D7A 		vldr.32	s15, .L152+4
 1804 0098 28EE678A 		vnmul.f32	s16, s16, s15
 1805 009c FEEECA8A 		vcvt.s32.f32	s17, s17, #12
 1806 00a0 BDEEC88A 		vcvt.s32.f32	s16, s16
 1807 00a4 07EE100A 		vmov	s14, r0
 1808 00a8 C4ED008A 		vstr.32	s17, [r4]	@ int
 1809 00ac 84ED018A 		vstr.32	s16, [r4, #4]	@ int
 1810 00b0 BDEC048B 		vldm	sp!, {d8-d9}
 1811 00b4 67EE277A 		vmul.f32	s15, s14, s15
 1812 00b8 FDEEE77A 		vcvt.s32.f32	s15, s15
 1813 00bc C4ED027A 		vstr.32	s15, [r4, #8]	@ int
 1814 00c0 10BD     		pop	{r4, pc}
 1815              	.L150:
 1816 00c2 B0EE468A 		vmov.f32	s16, s12
 1817 00c6 D3E7     		b	.L146
 1818              	.L153:
 1819              		.align	2
 1820              	.L152:
 1821 00c8 00008038 		.word	947912704
 1822 00cc 00008045 		.word	1166016512
 1823              		.size	int32_eulers_of_rmat, .-int32_eulers_of_rmat
 1824              		.section	.text.int32_eulers_of_quat,"ax",%progbits
ARM GAS  /tmp/ccbUEg52.s 			page 33


 1825              		.align	1
 1826              		.p2align 4,,15
 1827              		.global	int32_eulers_of_quat
 1828              		.syntax unified
 1829              		.thumb
 1830              		.thumb_func
 1831              		.fpu fpv4-sp-d16
 1832              		.type	int32_eulers_of_quat, %function
 1833              	int32_eulers_of_quat:
 1834              		@ args = 0, pretend = 0, frame = 0
 1835              		@ frame_needed = 0, uses_anonymous_args = 0
 1836 0000 70B5     		push	{r4, r5, r6, lr}
 1837 0002 D1E90153 		ldrd	r5, r3, [r1, #4]
 1838 0006 0446     		mov	r4, r0
 1839 0008 C868     		ldr	r0, [r1, #12]
 1840 000a 0E68     		ldr	r6, [r1]
 1841 000c DFED486A 		vldr.32	s13, .L161
 1842 0010 00FB00F1 		mul	r1, r0, r0
 1843 0014 03FB03FC 		mul	ip, r3, r3
 1844 0018 C913     		asrs	r1, r1, #15
 1845 001a 01EBEC31 		add	r1, r1, ip, asr #15
 1846 001e 41F31001 		sbfx	r1, r1, #0, #17
 1847 0022 06FB03F2 		mul	r2, r6, r3
 1848 0026 C1F58041 		rsb	r1, r1, #16384
 1849 002a 2DED048B 		vpush.64	{d8, d9}
 1850 002e D213     		asrs	r2, r2, #15
 1851 0030 08EE901A 		vmov	s17, r1	@ int
 1852 0034 00FB05F1 		mul	r1, r0, r5
 1853 0038 C2EBE132 		rsb	r2, r2, r1, asr #15
 1854 003c 42F31002 		sbfx	r2, r2, #0, #17
 1855 0040 08EE102A 		vmov	s16, r2	@ int
 1856 0044 05FB05F2 		mul	r2, r5, r5
 1857 0048 D213     		asrs	r2, r2, #15
 1858 004a 02EBEC3C 		add	ip, r2, ip, asr #15
 1859 004e 4CF3100C 		sbfx	ip, ip, #0, #17
 1860 0052 03FB05F2 		mul	r2, r3, r5
 1861 0056 00FB03F3 		mul	r3, r0, r3
 1862 005a CCF5804C 		rsb	ip, ip, #16384
 1863 005e 06FB05F5 		mul	r5, r6, r5
 1864 0062 DB13     		asrs	r3, r3, #15
 1865 0064 07EE90CA 		vmov	s15, ip	@ int
 1866 0068 03EBE533 		add	r3, r3, r5, asr #15
 1867 006c 43F31003 		sbfx	r3, r3, #0, #17
 1868 0070 B8EEE77A 		vcvt.f32.s32	s14, s15
 1869 0074 07EE903A 		vmov	s15, r3	@ int
 1870 0078 06FB00F1 		mul	r1, r6, r0
 1871 007c D013     		asrs	r0, r2, #15
 1872 007e 00EBE130 		add	r0, r0, r1, asr #15
 1873 0082 B8EEC88A 		vcvt.f32.s32	s16, s16
 1874 0086 F8EEE77A 		vcvt.f32.s32	s15, s15
 1875 008a 40F31002 		sbfx	r2, r0, #0, #17
 1876 008e 67EEA67A 		vmul.f32	s15, s15, s13
 1877 0092 28EE268A 		vmul.f32	s16, s16, s13
 1878 0096 09EE102A 		vmov	s18, r2	@ int
 1879 009a BFEE006A 		vmov.f32	s12, #-1.0e+0
 1880 009e F8EEE88A 		vcvt.f32.s32	s17, s17
 1881 00a2 B8EEC99A 		vcvt.f32.s32	s18, s18
ARM GAS  /tmp/ccbUEg52.s 			page 34


 1882 00a6 17EE900A 		vmov	r0, s15
 1883 00aa B4EEC68A 		vcmpe.f32	s16, s12
 1884 00ae 67EE267A 		vmul.f32	s15, s14, s13
 1885 00b2 F1EE10FA 		vmrs	APSR_nzcv, FPSCR
 1886 00b6 29EE269A 		vmul.f32	s18, s18, s13
 1887 00ba 17EE901A 		vmov	r1, s15
 1888 00be 68EEA68A 		vmul.f32	s17, s17, s13
 1889 00c2 31DD     		ble	.L159
 1890 00c4 F7EE007A 		vmov.f32	s15, #1.0e+0
 1891 00c8 B4EEE78A 		vcmpe.f32	s16, s15
 1892 00cc F1EE10FA 		vmrs	APSR_nzcv, FPSCR
 1893 00d0 58BF     		it	pl
 1894 00d2 B0EE678A 		vmovpl.f32	s16, s15
 1895              	.L155:
 1896 00d6 FFF7FEFF 		bl	atan2f
 1897 00da 0346     		mov	r3, r0	@ float
 1898 00dc 18EE100A 		vmov	r0, s16
 1899 00e0 09EE903A 		vmov	s19, r3
 1900 00e4 FFF7FEFF 		bl	asinf
 1901 00e8 18EE901A 		vmov	r1, s17
 1902 00ec 0346     		mov	r3, r0	@ float
 1903 00ee 19EE100A 		vmov	r0, s18
 1904 00f2 08EE103A 		vmov	s16, r3
 1905 00f6 FFF7FEFF 		bl	atan2f
 1906 00fa DFED0E7A 		vldr.32	s15, .L161+4
 1907 00fe 28EE678A 		vnmul.f32	s16, s16, s15
 1908 0102 FEEECA9A 		vcvt.s32.f32	s19, s19, #12
 1909 0106 BDEEC88A 		vcvt.s32.f32	s16, s16
 1910 010a 07EE100A 		vmov	s14, r0
 1911 010e C4ED009A 		vstr.32	s19, [r4]	@ int
 1912 0112 84ED018A 		vstr.32	s16, [r4, #4]	@ int
 1913 0116 BDEC048B 		vldm	sp!, {d8-d9}
 1914 011a 67EE277A 		vmul.f32	s15, s14, s15
 1915 011e FDEEE77A 		vcvt.s32.f32	s15, s15
 1916 0122 C4ED027A 		vstr.32	s15, [r4, #8]	@ int
 1917 0126 70BD     		pop	{r4, r5, r6, pc}
 1918              	.L159:
 1919 0128 B0EE468A 		vmov.f32	s16, s12
 1920 012c D3E7     		b	.L155
 1921              	.L162:
 1922 012e 00BF     		.align	2
 1923              	.L161:
 1924 0130 00008038 		.word	947912704
 1925 0134 00008045 		.word	1166016512
 1926              		.size	int32_eulers_of_quat, .-int32_eulers_of_quat
 1927              		.section	.text.int32_rates_of_eulers_dot_321,"ax",%progbits
 1928              		.align	1
 1929              		.p2align 4,,15
 1930              		.global	int32_rates_of_eulers_dot_321
 1931              		.syntax unified
 1932              		.thumb
 1933              		.thumb_func
 1934              		.fpu fpv4-sp-d16
 1935              		.type	int32_rates_of_eulers_dot_321, %function
 1936              	int32_rates_of_eulers_dot_321:
 1937              		@ args = 0, pretend = 0, frame = 0
 1938              		@ frame_needed = 0, uses_anonymous_args = 0
ARM GAS  /tmp/ccbUEg52.s 			page 35


 1939 0000 2DE9F041 		push	{r4, r5, r6, r7, r8, lr}
 1940 0004 0546     		mov	r5, r0
 1941 0006 0868     		ldr	r0, [r1]
 1942 0008 0E46     		mov	r6, r1
 1943 000a 9046     		mov	r8, r2
 1944 000c FFF7FEFF 		bl	pprz_itrig_sin
 1945 0010 0746     		mov	r7, r0
 1946 0012 3068     		ldr	r0, [r6]
 1947 0014 FFF7FEFF 		bl	pprz_itrig_cos
 1948 0018 0446     		mov	r4, r0
 1949 001a 7068     		ldr	r0, [r6, #4]
 1950 001c FFF7FEFF 		bl	pprz_itrig_sin
 1951 0020 0346     		mov	r3, r0
 1952 0022 7068     		ldr	r0, [r6, #4]
 1953 0024 1E46     		mov	r6, r3
 1954 0026 FFF7FEFF 		bl	pprz_itrig_cos
 1955 002a 0346     		mov	r3, r0
 1956 002c D8E90110 		ldrd	r1, r0, [r8, #4]
 1957 0030 D8F80020 		ldr	r2, [r8]
 1958 0034 00FB06F6 		mul	r6, r0, r6
 1959 0038 A2EBA636 		sub	r6, r2, r6, asr #14
 1960 003c 03FB07F2 		mul	r2, r3, r7
 1961 0040 04FB03F3 		mul	r3, r4, r3
 1962 0044 9213     		asrs	r2, r2, #14
 1963 0046 01FB04F4 		mul	r4, r1, r4
 1964 004a 9B13     		asrs	r3, r3, #14
 1965 004c 07FB01F1 		mul	r1, r7, r1
 1966 0050 00FB02F2 		mul	r2, r0, r2
 1967 0054 00FB03F3 		mul	r3, r0, r3
 1968 0058 A413     		asrs	r4, r4, #14
 1969 005a 8913     		asrs	r1, r1, #14
 1970 005c 04EBA234 		add	r4, r4, r2, asr #14
 1971 0060 C1EBA333 		rsb	r3, r1, r3, asr #14
 1972 0064 C5E90143 		strd	r4, r3, [r5, #4]
 1973 0068 2E60     		str	r6, [r5]
 1974 006a BDE8F081 		pop	{r4, r5, r6, r7, r8, pc}
 1975              		.size	int32_rates_of_eulers_dot_321, .-int32_rates_of_eulers_dot_321
 1976              		.global	__aeabi_ldivmod
 1977 006e 00BF     		.section	.text.int32_eulers_dot_321_of_rates,"ax",%progbits
 1978              		.align	1
 1979              		.p2align 4,,15
 1980              		.global	int32_eulers_dot_321_of_rates
 1981              		.syntax unified
 1982              		.thumb
 1983              		.thumb_func
 1984              		.fpu fpv4-sp-d16
 1985              		.type	int32_eulers_dot_321_of_rates, %function
 1986              	int32_eulers_dot_321_of_rates:
 1987              		@ args = 0, pretend = 0, frame = 8
 1988              		@ frame_needed = 0, uses_anonymous_args = 0
 1989 0000 2DE9F047 		push	{r4, r5, r6, r7, r8, r9, r10, lr}
 1990 0004 0646     		mov	r6, r0
 1991 0006 82B0     		sub	sp, sp, #8
 1992 0008 0868     		ldr	r0, [r1]
 1993 000a 0C46     		mov	r4, r1
 1994 000c 9146     		mov	r9, r2
 1995 000e FFF7FEFF 		bl	pprz_itrig_sin
ARM GAS  /tmp/ccbUEg52.s 			page 36


 1996 0012 8046     		mov	r8, r0
 1997 0014 2068     		ldr	r0, [r4]
 1998 0016 FFF7FEFF 		bl	pprz_itrig_cos
 1999 001a 0746     		mov	r7, r0
 2000 001c 6068     		ldr	r0, [r4, #4]
 2001 001e FFF7FEFF 		bl	pprz_itrig_sin
 2002 0022 0546     		mov	r5, r0
 2003 0024 6068     		ldr	r0, [r4, #4]
 2004 0026 FFF7FEFF 		bl	pprz_itrig_cos
 2005 002a 50EAE072 		orrs	r2, r0, r0, asr #31
 2006 002e 38D0     		beq	.L166
 2007 0030 D9F804A0 		ldr	r10, [r9, #4]
 2008 0034 05FB08F1 		mul	r1, r5, r8
 2009 0038 0446     		mov	r4, r0
 2010 003a 8913     		asrs	r1, r1, #14
 2011 003c C317     		asrs	r3, r0, #31
 2012 003e 2246     		mov	r2, r4
 2013 0040 81FB0A01 		smull	r0, r1, r1, r10
 2014 0044 0193     		str	r3, [sp, #4]
 2015 0046 FFF7FEFF 		bl	__aeabi_ldivmod
 2016 004a D9F80020 		ldr	r2, [r9]
 2017 004e 019B     		ldr	r3, [sp, #4]
 2018 0050 05FB07F1 		mul	r1, r5, r7
 2019 0054 D9F80850 		ldr	r5, [r9, #8]
 2020 0058 8913     		asrs	r1, r1, #14
 2021 005a 02EB0009 		add	r9, r2, r0
 2022 005e 2246     		mov	r2, r4
 2023 0060 81FB0501 		smull	r0, r1, r1, r5
 2024 0064 FFF7FEFF 		bl	__aeabi_ldivmod
 2025 0068 08FB05F2 		mul	r2, r8, r5
 2026 006c 07FB0AF1 		mul	r1, r7, r10
 2027 0070 9213     		asrs	r2, r2, #14
 2028 0072 4844     		add	r0, r0, r9
 2029 0074 C2EBA132 		rsb	r2, r2, r1, asr #14
 2030 0078 019B     		ldr	r3, [sp, #4]
 2031 007a 3060     		str	r0, [r6]
 2032 007c 7260     		str	r2, [r6, #4]
 2033 007e 8AFB0801 		smull	r0, r1, r10, r8
 2034 0082 2246     		mov	r2, r4
 2035 0084 FFF7FEFF 		bl	__aeabi_ldivmod
 2036 0088 2246     		mov	r2, r4
 2037 008a 8446     		mov	ip, r0
 2038 008c 019B     		ldr	r3, [sp, #4]
 2039 008e 85FB0701 		smull	r0, r1, r5, r7
 2040 0092 6446     		mov	r4, ip
 2041 0094 FFF7FEFF 		bl	__aeabi_ldivmod
 2042 0098 2044     		add	r0, r0, r4
 2043 009a B060     		str	r0, [r6, #8]
 2044 009c 02B0     		add	sp, sp, #8
 2045              		@ sp needed
 2046 009e BDE8F087 		pop	{r4, r5, r6, r7, r8, r9, r10, pc}
 2047              	.L166:
 2048 00a2 0023     		movs	r3, #0
 2049 00a4 C6E90033 		strd	r3, r3, [r6]
 2050 00a8 B360     		str	r3, [r6, #8]
 2051 00aa 02B0     		add	sp, sp, #8
 2052              		@ sp needed
ARM GAS  /tmp/ccbUEg52.s 			page 37


 2053 00ac BDE8F087 		pop	{r4, r5, r6, r7, r8, r9, r10, pc}
 2054              		.size	int32_eulers_dot_321_of_rates, .-int32_eulers_dot_321_of_rates
 2055              		.ident	"GCC: (15:10.3-2021.07-4) 10.3.1 20210621 (release)"
ARM GAS  /tmp/ccbUEg52.s 			page 38

