ARM GAS  /tmp/ccsQ5YPV.s 			page 1


   1              		.cpu cortex-m4
   2              		.eabi_attribute 27, 1
   3              		.eabi_attribute 20, 1
   4              		.eabi_attribute 21, 1
   5              		.eabi_attribute 23, 3
   6              		.eabi_attribute 24, 1
   7              		.eabi_attribute 25, 1
   8              		.eabi_attribute 26, 1
   9              		.eabi_attribute 30, 2
  10              		.eabi_attribute 34, 1
  11              		.eabi_attribute 18, 4
  12              		.file	"pprz_stat.c"
  13              		.text
  14              		.section	.text.covariance_i.part.0,"ax",%progbits
  15              		.align	1
  16              		.p2align 4,,15
  17              		.arch armv7e-m
  18              		.syntax unified
  19              		.thumb
  20              		.thumb_func
  21              		.fpu fpv4-sp-d16
  22              		.type	covariance_i.part.0, %function
  23              	covariance_i.part.0:
  24              		@ args = 0, pretend = 0, frame = 0
  25              		@ frame_needed = 0, uses_anonymous_args = 0
  26              		@ link register save eliminated.
  27 0000 A2B3     		cbz	r2, .L4
  28 0002 9FED1D6A 		vldr.32	s12, .L7
  29 0006 00EB8203 		add	r3, r0, r2, lsl #2
  30 000a F0EE465A 		vmov.f32	s11, s12
  31 000e F0EE466A 		vmov.f32	s13, s12
  32 0012 0438     		subs	r0, r0, #4
  33 0014 0439     		subs	r1, r1, #4
  34 0016 043B     		subs	r3, r3, #4
  35              	.L3:
  36 0018 90ED017A 		vldr.32	s14, [r0, #4]	@ int
  37 001c D1ED017A 		vldr.32	s15, [r1, #4]	@ int
  38 0020 B8EEC77A 		vcvt.f32.s32	s14, s14
  39 0024 F8EEE77A 		vcvt.f32.s32	s15, s15
  40 0028 0430     		adds	r0, r0, #4
  41 002a 8342     		cmp	r3, r0
  42 002c 01F10401 		add	r1, r1, #4
  43 0030 A7EE276A 		vfma.f32	s12, s14, s15
  44 0034 76EE876A 		vadd.f32	s13, s13, s14
  45 0038 75EEA75A 		vadd.f32	s11, s11, s15
  46 003c ECD1     		bne	.L3
  47 003e 66EEA56A 		vmul.f32	s13, s13, s11
  48              	.L2:
  49 0042 02FB02F3 		mul	r3, r2, r2
  50 0046 05EE903A 		vmov	s11, r3	@ int
  51 004a 07EE902A 		vmov	s15, r2	@ int
  52 004e F8EE655A 		vcvt.f32.u32	s11, s11
  53 0052 F8EEE77A 		vcvt.f32.s32	s15, s15
  54 0056 86EE277A 		vdiv.f32	s14, s12, s15
  55 005a C6EEA57A 		vdiv.f32	s15, s13, s11
  56 005e 77EE677A 		vsub.f32	s15, s14, s15
  57 0062 FDEEE77A 		vcvt.s32.f32	s15, s15
ARM GAS  /tmp/ccsQ5YPV.s 			page 2


  58 0066 17EE900A 		vmov	r0, s15	@ int
  59 006a 7047     		bx	lr
  60              	.L4:
  61 006c DFED026A 		vldr.32	s13, .L7
  62 0070 B0EE666A 		vmov.f32	s12, s13
  63 0074 E5E7     		b	.L2
  64              	.L8:
  65 0076 00BF     		.align	2
  66              	.L7:
  67 0078 00000000 		.word	0
  68              		.size	covariance_i.part.0, .-covariance_i.part.0
  69              		.section	.text.mean_i,"ax",%progbits
  70              		.align	1
  71              		.p2align 4,,15
  72              		.global	mean_i
  73              		.syntax unified
  74              		.thumb
  75              		.thumb_func
  76              		.fpu fpv4-sp-d16
  77              		.type	mean_i, %function
  78              	mean_i:
  79              		@ args = 0, pretend = 0, frame = 0
  80              		@ frame_needed = 0, uses_anonymous_args = 0
  81              		@ link register save eliminated.
  82 0000 C1B1     		cbz	r1, .L12
  83 0002 031F     		subs	r3, r0, #4
  84 0004 9FED0C7A 		vldr.32	s14, .L14
  85 0008 03EB8102 		add	r2, r3, r1, lsl #2
  86              	.L11:
  87 000c D3ED017A 		vldr.32	s15, [r3, #4]	@ int
  88 0010 0433     		adds	r3, r3, #4
  89 0012 F8EEE77A 		vcvt.f32.s32	s15, s15
  90 0016 9A42     		cmp	r2, r3
  91 0018 37EE277A 		vadd.f32	s14, s14, s15
  92 001c F6D1     		bne	.L11
  93 001e 07EE901A 		vmov	s15, r1	@ int
  94 0022 F8EEE77A 		vcvt.f32.s32	s15, s15
  95 0026 C7EE276A 		vdiv.f32	s13, s14, s15
  96 002a FDEEE67A 		vcvt.s32.f32	s15, s13
  97 002e 17EE900A 		vmov	r0, s15	@ int
  98 0032 7047     		bx	lr
  99              	.L12:
 100 0034 0846     		mov	r0, r1
 101 0036 7047     		bx	lr
 102              	.L15:
 103              		.align	2
 104              	.L14:
 105 0038 00000000 		.word	0
 106              		.size	mean_i, .-mean_i
 107              		.section	.text.variance_i,"ax",%progbits
 108              		.align	1
 109              		.p2align 4,,15
 110              		.global	variance_i
 111              		.syntax unified
 112              		.thumb
 113              		.thumb_func
 114              		.fpu fpv4-sp-d16
ARM GAS  /tmp/ccsQ5YPV.s 			page 3


 115              		.type	variance_i, %function
 116              	variance_i:
 117              		@ args = 0, pretend = 0, frame = 0
 118              		@ frame_needed = 0, uses_anonymous_args = 0
 119              		@ link register save eliminated.
 120 0000 0A46     		mov	r2, r1
 121 0002 11B1     		cbz	r1, .L17
 122 0004 0146     		mov	r1, r0
 123 0006 FFF7FEBF 		b	covariance_i.part.0
 124              	.L17:
 125 000a 0846     		mov	r0, r1
 126 000c 7047     		bx	lr
 127              		.size	variance_i, .-variance_i
 128 000e 00BF     		.section	.text.covariance_i,"ax",%progbits
 129              		.align	1
 130              		.p2align 4,,15
 131              		.global	covariance_i
 132              		.syntax unified
 133              		.thumb
 134              		.thumb_func
 135              		.fpu fpv4-sp-d16
 136              		.type	covariance_i, %function
 137              	covariance_i:
 138              		@ args = 0, pretend = 0, frame = 0
 139              		@ frame_needed = 0, uses_anonymous_args = 0
 140              		@ link register save eliminated.
 141 0000 0AB1     		cbz	r2, .L19
 142 0002 FFF7FEBF 		b	covariance_i.part.0
 143              	.L19:
 144 0006 1046     		mov	r0, r2
 145 0008 7047     		bx	lr
 146              		.size	covariance_i, .-covariance_i
 147 000a 00BF     		.section	.text.sum_f,"ax",%progbits
 148              		.align	1
 149              		.p2align 4,,15
 150              		.global	sum_f
 151              		.syntax unified
 152              		.thumb
 153              		.thumb_func
 154              		.fpu fpv4-sp-d16
 155              		.type	sum_f, %function
 156              	sum_f:
 157              		@ args = 0, pretend = 0, frame = 0
 158              		@ frame_needed = 0, uses_anonymous_args = 0
 159              		@ link register save eliminated.
 160 0000 DFED067A 		vldr.32	s15, .L25
 161 0004 39B1     		cbz	r1, .L20
 162 0006 00EB8101 		add	r1, r0, r1, lsl #2
 163              	.L22:
 164 000a B0EC017A 		vldmia.32	r0!, {s14}
 165 000e 8842     		cmp	r0, r1
 166 0010 77EE877A 		vadd.f32	s15, s15, s14
 167 0014 F9D1     		bne	.L22
 168              	.L20:
 169 0016 17EE900A 		vmov	r0, s15
 170 001a 7047     		bx	lr
 171              	.L26:
ARM GAS  /tmp/ccsQ5YPV.s 			page 4


 172              		.align	2
 173              	.L25:
 174 001c 00000000 		.word	0
 175              		.size	sum_f, .-sum_f
 176              		.section	.text.mean_f,"ax",%progbits
 177              		.align	1
 178              		.p2align 4,,15
 179              		.global	mean_f
 180              		.syntax unified
 181              		.thumb
 182              		.thumb_func
 183              		.fpu fpv4-sp-d16
 184              		.type	mean_f, %function
 185              	mean_f:
 186              		@ args = 0, pretend = 0, frame = 0
 187              		@ frame_needed = 0, uses_anonymous_args = 0
 188              		@ link register save eliminated.
 189 0000 91B1     		cbz	r1, .L30
 190 0002 DFED0A7A 		vldr.32	s15, .L32
 191 0006 00EB8103 		add	r3, r0, r1, lsl #2
 192              	.L29:
 193 000a B0EC017A 		vldmia.32	r0!, {s14}
 194 000e 9842     		cmp	r0, r3
 195 0010 77EE877A 		vadd.f32	s15, s15, s14
 196 0014 F9D1     		bne	.L29
 197 0016 07EE101A 		vmov	s14, r1	@ int
 198 001a B8EEC77A 		vcvt.f32.s32	s14, s14
 199 001e C7EE877A 		vdiv.f32	s15, s15, s14
 200 0022 17EE900A 		vmov	r0, s15
 201 0026 7047     		bx	lr
 202              	.L30:
 203 0028 0020     		movs	r0, #0
 204 002a 7047     		bx	lr
 205              	.L33:
 206              		.align	2
 207              	.L32:
 208 002c 00000000 		.word	0
 209              		.size	mean_f, .-mean_f
 210              		.section	.text.variance_f,"ax",%progbits
 211              		.align	1
 212              		.p2align 4,,15
 213              		.global	variance_f
 214              		.syntax unified
 215              		.thumb
 216              		.thumb_func
 217              		.fpu fpv4-sp-d16
 218              		.type	variance_f, %function
 219              	variance_f:
 220              		@ args = 0, pretend = 0, frame = 0
 221              		@ frame_needed = 0, uses_anonymous_args = 0
 222              		@ link register save eliminated.
 223 0000 11B3     		cbz	r1, .L37
 224 0002 DFED126A 		vldr.32	s13, .L39
 225 0006 00EB8103 		add	r3, r0, r1, lsl #2
 226 000a B0EE667A 		vmov.f32	s14, s13
 227              	.L36:
 228 000e F0EC017A 		vldmia.32	r0!, {s15}
ARM GAS  /tmp/ccsQ5YPV.s 			page 5


 229 0012 8342     		cmp	r3, r0
 230 0014 E7EEA76A 		vfma.f32	s13, s15, s15
 231 0018 37EE277A 		vadd.f32	s14, s14, s15
 232 001c F7D1     		bne	.L36
 233 001e 01FB01F3 		mul	r3, r1, r1
 234 0022 05EE903A 		vmov	s11, r3	@ int
 235 0026 07EE901A 		vmov	s15, r1	@ int
 236 002a 27EE077A 		vmul.f32	s14, s14, s14
 237 002e F8EEE77A 		vcvt.f32.s32	s15, s15
 238 0032 F8EE655A 		vcvt.f32.u32	s11, s11
 239 0036 86EEA76A 		vdiv.f32	s12, s13, s15
 240 003a C7EE257A 		vdiv.f32	s15, s14, s11
 241 003e 76EE677A 		vsub.f32	s15, s12, s15
 242 0042 17EE900A 		vmov	r0, s15
 243 0046 7047     		bx	lr
 244              	.L37:
 245 0048 0020     		movs	r0, #0
 246 004a 7047     		bx	lr
 247              	.L40:
 248              		.align	2
 249              	.L39:
 250 004c 00000000 		.word	0
 251              		.size	variance_f, .-variance_f
 252              		.section	.text.covariance_f,"ax",%progbits
 253              		.align	1
 254              		.p2align 4,,15
 255              		.global	covariance_f
 256              		.syntax unified
 257              		.thumb
 258              		.thumb_func
 259              		.fpu fpv4-sp-d16
 260              		.type	covariance_f, %function
 261              	covariance_f:
 262              		@ args = 0, pretend = 0, frame = 0
 263              		@ frame_needed = 0, uses_anonymous_args = 0
 264              		@ link register save eliminated.
 265 0000 42B3     		cbz	r2, .L44
 266 0002 9FED156A 		vldr.32	s12, .L46
 267 0006 00EB8203 		add	r3, r0, r2, lsl #2
 268 000a F0EE465A 		vmov.f32	s11, s12
 269 000e F0EE466A 		vmov.f32	s13, s12
 270              	.L43:
 271 0012 B0EC017A 		vldmia.32	r0!, {s14}
 272 0016 F1EC017A 		vldmia.32	r1!, {s15}
 273 001a 8342     		cmp	r3, r0
 274 001c A7EE276A 		vfma.f32	s12, s14, s15
 275 0020 76EE876A 		vadd.f32	s13, s13, s14
 276 0024 75EEA75A 		vadd.f32	s11, s11, s15
 277 0028 F3D1     		bne	.L43
 278 002a 02FB02F3 		mul	r3, r2, r2
 279 002e 07EE103A 		vmov	s14, r3	@ int
 280 0032 07EE902A 		vmov	s15, r2	@ int
 281 0036 66EEA56A 		vmul.f32	s13, s13, s11
 282 003a F8EEE77A 		vcvt.f32.s32	s15, s15
 283 003e F8EE475A 		vcvt.f32.u32	s11, s14
 284 0042 86EE277A 		vdiv.f32	s14, s12, s15
 285 0046 C6EEA57A 		vdiv.f32	s15, s13, s11
ARM GAS  /tmp/ccsQ5YPV.s 			page 6


 286 004a 77EE677A 		vsub.f32	s15, s14, s15
 287 004e 17EE900A 		vmov	r0, s15
 288 0052 7047     		bx	lr
 289              	.L44:
 290 0054 0020     		movs	r0, #0
 291 0056 7047     		bx	lr
 292              	.L47:
 293              		.align	2
 294              	.L46:
 295 0058 00000000 		.word	0
 296              		.size	covariance_f, .-covariance_f
 297              		.ident	"GCC: (15:10.3-2021.07-4) 10.3.1 20210621 (release)"
ARM GAS  /tmp/ccsQ5YPV.s 			page 7

