ARM GAS  /tmp/ccpoaJl1.s 			page 1


   1              		.cpu cortex-m4
   2              		.eabi_attribute 27, 1
   3              		.eabi_attribute 20, 1
   4              		.eabi_attribute 21, 1
   5              		.eabi_attribute 23, 3
   6              		.eabi_attribute 24, 1
   7              		.eabi_attribute 25, 1
   8              		.eabi_attribute 26, 1
   9              		.eabi_attribute 30, 2
  10              		.eabi_attribute 34, 1
  11              		.eabi_attribute 18, 4
  12              		.file	"pprz_geodetic_int.c"
  13              		.text
  14              		.global	__aeabi_i2d
  15              		.global	__aeabi_dmul
  16              		.global	__aeabi_ddiv
  17              		.global	__aeabi_d2iz
  18              		.section	.text.ltp_of_ecef_rmat_from_lla_i,"ax",%progbits
  19              		.align	1
  20              		.p2align 4,,15
  21              		.global	ltp_of_ecef_rmat_from_lla_i
  22              		.arch armv7e-m
  23              		.syntax unified
  24              		.thumb
  25              		.thumb_func
  26              		.fpu fpv4-sp-d16
  27              		.type	ltp_of_ecef_rmat_from_lla_i, %function
  28              	ltp_of_ecef_rmat_from_lla_i:
  29              		@ args = 0, pretend = 0, frame = 0
  30              		@ frame_needed = 0, uses_anonymous_args = 0
  31 0000 2DE9F84F 		push	{r3, r4, r5, r6, r7, r8, r9, r10, fp, lr}
  32 0004 0546     		mov	r5, r0
  33 0006 0868     		ldr	r0, [r1]
  34 0008 8846     		mov	r8, r1
  35 000a FFF7FEFF 		bl	__aeabi_i2d
  36 000e 40A3     		adr	r3, .L4
  37 0010 D3E90023 		ldrd	r2, [r3]
  38 0014 FFF7FEFF 		bl	__aeabi_dmul
  39 0018 3FA3     		adr	r3, .L4+8
  40 001a D3E90023 		ldrd	r2, [r3]
  41 001e FFF7FEFF 		bl	__aeabi_ddiv
  42 0022 8246     		mov	r10, r0
  43 0024 8B46     		mov	fp, r1
  44 0026 FFF7FEFF 		bl	sin
  45 002a 3D4B     		ldr	r3, .L4+16
  46 002c 0022     		movs	r2, #0
  47 002e FFF7FEFF 		bl	__aeabi_dmul
  48 0032 FFF7FEFF 		bl	rint
  49 0036 FFF7FEFF 		bl	__aeabi_d2iz
  50 003a 5946     		mov	r1, fp
  51 003c 0646     		mov	r6, r0
  52 003e 5046     		mov	r0, r10
  53 0040 FFF7FEFF 		bl	cos
  54 0044 364B     		ldr	r3, .L4+16
  55 0046 0022     		movs	r2, #0
  56 0048 FFF7FEFF 		bl	__aeabi_dmul
  57 004c FFF7FEFF 		bl	rint
ARM GAS  /tmp/ccpoaJl1.s 			page 2


  58 0050 FFF7FEFF 		bl	__aeabi_d2iz
  59 0054 0746     		mov	r7, r0
  60 0056 D8F80400 		ldr	r0, [r8, #4]
  61 005a FFF7FEFF 		bl	__aeabi_i2d
  62 005e 2CA3     		adr	r3, .L4
  63 0060 D3E90023 		ldrd	r2, [r3]
  64 0064 FFF7FEFF 		bl	__aeabi_dmul
  65 0068 2BA3     		adr	r3, .L4+8
  66 006a D3E90023 		ldrd	r2, [r3]
  67 006e FFF7FEFF 		bl	__aeabi_ddiv
  68 0072 8046     		mov	r8, r0
  69 0074 8946     		mov	r9, r1
  70 0076 FFF7FEFF 		bl	sin
  71 007a 294B     		ldr	r3, .L4+16
  72 007c 0022     		movs	r2, #0
  73 007e FFF7FEFF 		bl	__aeabi_dmul
  74 0082 FFF7FEFF 		bl	rint
  75 0086 FFF7FEFF 		bl	__aeabi_d2iz
  76 008a 4946     		mov	r1, r9
  77 008c 0446     		mov	r4, r0
  78 008e 4046     		mov	r0, r8
  79 0090 FFF7FEFF 		bl	cos
  80 0094 224B     		ldr	r3, .L4+16
  81 0096 0022     		movs	r2, #0
  82 0098 FFF7FEFF 		bl	__aeabi_dmul
  83 009c FFF7FEFF 		bl	rint
  84 00a0 FFF7FEFF 		bl	__aeabi_d2iz
  85 00a4 7242     		negs	r2, r6
  86 00a6 4FEAE671 		asr	r1, r6, #31
  87 00aa 0346     		mov	r3, r0
  88 00ac 61EB4101 		sbc	r1, r1, r1, lsl #1
  89 00b0 03FB01FC 		mul	ip, r3, r1
  90 00b4 6860     		str	r0, [r5, #4]
  91 00b6 C017     		asrs	r0, r0, #31
  92 00b8 02FB00CC 		mla	ip, r2, r0, ip
  93 00bc 04FB01F1 		mul	r1, r4, r1
  94 00c0 E017     		asrs	r0, r4, #31
  95 00c2 02FB0011 		mla	r1, r2, r0, r1
  96 00c6 6042     		rsbs	r0, r4, #0
  97 00c8 2860     		str	r0, [r5]
  98 00ca 0020     		movs	r0, #0
  99 00cc A860     		str	r0, [r5, #8]
 100 00ce A3FB020E 		umull	r0, lr, r3, r2
 101 00d2 F444     		add	ip, ip, lr
 102 00d4 000D     		lsrs	r0, r0, #20
 103 00d6 40EA0C30 		orr	r0, r0, ip, lsl #12
 104 00da E860     		str	r0, [r5, #12]
 105 00dc A4FB0220 		umull	r2, r0, r4, r2
 106 00e0 6F61     		str	r7, [r5, #20]
 107 00e2 0144     		add	r1, r1, r0
 108 00e4 83FB0730 		smull	r3, r0, r3, r7
 109 00e8 84FB0747 		smull	r4, r7, r4, r7
 110 00ec 120D     		lsrs	r2, r2, #20
 111 00ee 1B0D     		lsrs	r3, r3, #20
 112 00f0 240D     		lsrs	r4, r4, #20
 113 00f2 42EA0132 		orr	r2, r2, r1, lsl #12
 114 00f6 43EA0033 		orr	r3, r3, r0, lsl #12
ARM GAS  /tmp/ccpoaJl1.s 			page 3


 115 00fa 44EA0734 		orr	r4, r4, r7, lsl #12
 116 00fe C5E90634 		strd	r3, r4, [r5, #24]
 117 0102 2A61     		str	r2, [r5, #16]
 118 0104 2E62     		str	r6, [r5, #32]
 119 0106 BDE8F88F 		pop	{r3, r4, r5, r6, r7, r8, r9, r10, fp, pc}
 120              	.L5:
 121 010a 00BFAFF3 		.align	3
 121      0080
 122              	.L4:
 123 0110 399D52A2 		.word	-1571644103
 124 0114 46DF913F 		.word	1066524486
 125 0118 00000000 		.word	0
 126 011c D0126341 		.word	1097011920
 127 0120 00003041 		.word	1093664768
 128              		.size	ltp_of_ecef_rmat_from_lla_i, .-ltp_of_ecef_rmat_from_lla_i
 129              		.section	.text.enu_of_ecef_point_i,"ax",%progbits
 130              		.align	1
 131              		.p2align 4,,15
 132              		.global	enu_of_ecef_point_i
 133              		.syntax unified
 134              		.thumb
 135              		.thumb_func
 136              		.fpu fpv4-sp-d16
 137              		.type	enu_of_ecef_point_i, %function
 138              	enu_of_ecef_point_i:
 139              		@ args = 0, pretend = 0, frame = 0
 140              		@ frame_needed = 0, uses_anonymous_args = 0
 141 0000 2DE9F047 		push	{r4, r5, r6, r7, r8, r9, r10, lr}
 142 0004 D2E90054 		ldrd	r5, r4, [r2]
 143 0008 0B68     		ldr	r3, [r1]
 144 000a D1F82880 		ldr	r8, [r1, #40]
 145 000e D1F824A0 		ldr	r10, [r1, #36]
 146 0012 0F6B     		ldr	r7, [r1, #48]
 147 0014 D1F82C90 		ldr	r9, [r1, #44]
 148 0018 8E6B     		ldr	r6, [r1, #56]
 149 001a A5EB030C 		sub	ip, r5, r3
 150 001e 4B68     		ldr	r3, [r1, #4]
 151 0020 9568     		ldr	r5, [r2, #8]
 152 0022 8A68     		ldr	r2, [r1, #8]
 153 0024 E31A     		subs	r3, r4, r3
 154 0026 A5EB020E 		sub	lr, r5, r2
 155 002a 4C6B     		ldr	r4, [r1, #52]
 156 002c CA69     		ldr	r2, [r1, #28]
 157 002e 8D69     		ldr	r5, [r1, #24]
 158 0030 83FB0818 		smull	r1, r8, r3, r8
 159 0034 CCFB0A18 		smlal	r1, r8, ip, r10
 160 0038 C9FB0E18 		smlal	r1, r8, r9, lr
 161 003c 090D     		lsrs	r1, r1, #20
 162 003e 41EA0831 		orr	r1, r1, r8, lsl #12
 163 0042 4160     		str	r1, [r0, #4]
 164 0044 83FB0414 		smull	r1, r4, r3, r4
 165 0048 CCFB0714 		smlal	r1, r4, ip, r7
 166 004c 83FB0223 		smull	r2, r3, r3, r2
 167 0050 CEFB0614 		smlal	r1, r4, lr, r6
 168 0054 C5FB0C23 		smlal	r2, r3, r5, ip
 169 0058 120D     		lsrs	r2, r2, #20
 170 005a 090D     		lsrs	r1, r1, #20
ARM GAS  /tmp/ccpoaJl1.s 			page 4


 171 005c 41EA0431 		orr	r1, r1, r4, lsl #12
 172 0060 42EA0332 		orr	r2, r2, r3, lsl #12
 173 0064 0260     		str	r2, [r0]
 174 0066 8160     		str	r1, [r0, #8]
 175 0068 BDE8F087 		pop	{r4, r5, r6, r7, r8, r9, r10, pc}
 176              		.size	enu_of_ecef_point_i, .-enu_of_ecef_point_i
 177              		.section	.text.ned_of_ecef_point_i,"ax",%progbits
 178              		.align	1
 179              		.p2align 4,,15
 180              		.global	ned_of_ecef_point_i
 181              		.syntax unified
 182              		.thumb
 183              		.thumb_func
 184              		.fpu fpv4-sp-d16
 185              		.type	ned_of_ecef_point_i, %function
 186              	ned_of_ecef_point_i:
 187              		@ args = 0, pretend = 0, frame = 0
 188              		@ frame_needed = 0, uses_anonymous_args = 0
 189 0000 2DE9F043 		push	{r4, r5, r6, r7, r8, r9, lr}
 190 0004 D2E90054 		ldrd	r5, r4, [r2]
 191 0008 0B68     		ldr	r3, [r1]
 192 000a D1F82890 		ldr	r9, [r1, #40]
 193 000e 4E6A     		ldr	r6, [r1, #36]
 194 0010 D1F82C80 		ldr	r8, [r1, #44]
 195 0014 A5EB030C 		sub	ip, r5, r3
 196 0018 4B68     		ldr	r3, [r1, #4]
 197 001a 9568     		ldr	r5, [r2, #8]
 198 001c 4A6B     		ldr	r2, [r1, #52]
 199 001e E31A     		subs	r3, r4, r3
 200 0020 8C68     		ldr	r4, [r1, #8]
 201 0022 A5EB040E 		sub	lr, r5, r4
 202 0026 0C6B     		ldr	r4, [r1, #48]
 203 0028 CD69     		ldr	r5, [r1, #28]
 204 002a 83FB0227 		smull	r2, r7, r3, r2
 205 002e CCFB0427 		smlal	r2, r7, ip, r4
 206 0032 8C6B     		ldr	r4, [r1, #56]
 207 0034 CEFB0427 		smlal	r2, r7, lr, r4
 208 0038 120D     		lsrs	r2, r2, #20
 209 003a 42EA0732 		orr	r2, r2, r7, lsl #12
 210 003e 5242     		rsbs	r2, r2, #0
 211 0040 8F69     		ldr	r7, [r1, #24]
 212 0042 8260     		str	r2, [r0, #8]
 213 0044 83FB0914 		smull	r1, r4, r3, r9
 214 0048 CCFB0614 		smlal	r1, r4, ip, r6
 215 004c 83FB0525 		smull	r2, r5, r3, r5
 216 0050 C8FB0E14 		smlal	r1, r4, r8, lr
 217 0054 C7FB0C25 		smlal	r2, r5, r7, ip
 218 0058 120D     		lsrs	r2, r2, #20
 219 005a 090D     		lsrs	r1, r1, #20
 220 005c 41EA0431 		orr	r1, r1, r4, lsl #12
 221 0060 42EA0532 		orr	r2, r2, r5, lsl #12
 222 0064 C0E90012 		strd	r1, r2, [r0]
 223 0068 BDE8F083 		pop	{r4, r5, r6, r7, r8, r9, pc}
 224              		.size	ned_of_ecef_point_i, .-ned_of_ecef_point_i
 225              		.section	.text.enu_of_ecef_pos_i,"ax",%progbits
 226              		.align	1
 227              		.p2align 4,,15
ARM GAS  /tmp/ccpoaJl1.s 			page 5


 228              		.global	enu_of_ecef_pos_i
 229              		.syntax unified
 230              		.thumb
 231              		.thumb_func
 232              		.fpu fpv4-sp-d16
 233              		.type	enu_of_ecef_pos_i, %function
 234              	enu_of_ecef_pos_i:
 235              		@ args = 0, pretend = 0, frame = 0
 236              		@ frame_needed = 0, uses_anonymous_args = 0
 237 0000 2DE9F047 		push	{r4, r5, r6, r7, r8, r9, r10, lr}
 238 0004 D2E90054 		ldrd	r5, r4, [r2]
 239 0008 0B68     		ldr	r3, [r1]
 240 000a 9668     		ldr	r6, [r2, #8]
 241 000c D1F828C0 		ldr	ip, [r1, #40]
 242 0010 8A68     		ldr	r2, [r1, #8]
 243 0012 D1F824A0 		ldr	r10, [r1, #36]
 244 0016 D1F83080 		ldr	r8, [r1, #48]
 245 001a D1F82C90 		ldr	r9, [r1, #44]
 246 001e 8F6B     		ldr	r7, [r1, #56]
 247 0020 A5EB030E 		sub	lr, r5, r3
 248 0024 4B68     		ldr	r3, [r1, #4]
 249 0026 8D69     		ldr	r5, [r1, #24]
 250 0028 E31A     		subs	r3, r4, r3
 251 002a B61A     		subs	r6, r6, r2
 252 002c 4C6B     		ldr	r4, [r1, #52]
 253 002e CA69     		ldr	r2, [r1, #28]
 254 0030 83FB0CC1 		smull	ip, r1, r3, ip
 255 0034 CEFB0AC1 		smlal	ip, r1, lr, r10
 256 0038 C9FB06C1 		smlal	ip, r1, r9, r6
 257 003c 4FEA1C5C 		lsr	ip, ip, #20
 258 0040 4CEA013C 		orr	ip, ip, r1, lsl #12
 259 0044 83FB0414 		smull	r1, r4, r3, r4
 260 0048 CEFB0814 		smlal	r1, r4, lr, r8
 261 004c 83FB0223 		smull	r2, r3, r3, r2
 262 0050 C6FB0714 		smlal	r1, r4, r6, r7
 263 0054 C5FB0E23 		smlal	r2, r3, r5, lr
 264 0058 090D     		lsrs	r1, r1, #20
 265 005a 120D     		lsrs	r2, r2, #20
 266 005c 41EA0431 		orr	r1, r1, r4, lsl #12
 267 0060 42EA0332 		orr	r2, r2, r3, lsl #12
 268 0064 0C4C     		ldr	r4, .L12
 269 0066 9201     		lsls	r2, r2, #6
 270 0068 84FB0253 		smull	r5, r3, r4, r2
 271 006c D217     		asrs	r2, r2, #31
 272 006e C2EBE302 		rsb	r2, r2, r3, asr #3
 273 0072 4FEA8C1C 		lsl	ip, ip, #6
 274 0076 8901     		lsls	r1, r1, #6
 275 0078 0260     		str	r2, [r0]
 276 007a 84FB0C23 		smull	r2, r3, r4, ip
 277 007e 84FB0124 		smull	r2, r4, r4, r1
 278 0082 4FEAEC7C 		asr	ip, ip, #31
 279 0086 C917     		asrs	r1, r1, #31
 280 0088 CCEBE303 		rsb	r3, ip, r3, asr #3
 281 008c C1EBE401 		rsb	r1, r1, r4, asr #3
 282 0090 C0E90131 		strd	r3, r1, [r0, #4]
 283 0094 BDE8F087 		pop	{r4, r5, r6, r7, r8, r9, r10, pc}
 284              	.L13:
ARM GAS  /tmp/ccpoaJl1.s 			page 6


 285              		.align	2
 286              	.L12:
 287 0098 1F85EB51 		.word	1374389535
 288              		.size	enu_of_ecef_pos_i, .-enu_of_ecef_pos_i
 289              		.section	.text.ned_of_ecef_pos_i,"ax",%progbits
 290              		.align	1
 291              		.p2align 4,,15
 292              		.global	ned_of_ecef_pos_i
 293              		.syntax unified
 294              		.thumb
 295              		.thumb_func
 296              		.fpu fpv4-sp-d16
 297              		.type	ned_of_ecef_pos_i, %function
 298              	ned_of_ecef_pos_i:
 299              		@ args = 0, pretend = 0, frame = 0
 300              		@ frame_needed = 0, uses_anonymous_args = 0
 301 0000 2DE9F047 		push	{r4, r5, r6, r7, r8, r9, r10, lr}
 302 0004 D2E90054 		ldrd	r5, r4, [r2]
 303 0008 0B68     		ldr	r3, [r1]
 304 000a 9668     		ldr	r6, [r2, #8]
 305 000c 8A68     		ldr	r2, [r1, #8]
 306 000e D1F830A0 		ldr	r10, [r1, #48]
 307 0012 D1F82480 		ldr	r8, [r1, #36]
 308 0016 D1F83890 		ldr	r9, [r1, #56]
 309 001a CF6A     		ldr	r7, [r1, #44]
 310 001c A5EB030C 		sub	ip, r5, r3
 311 0020 4B68     		ldr	r3, [r1, #4]
 312 0022 4D6B     		ldr	r5, [r1, #52]
 313 0024 E31A     		subs	r3, r4, r3
 314 0026 A6EB020E 		sub	lr, r6, r2
 315 002a 8C6A     		ldr	r4, [r1, #40]
 316 002c 8E69     		ldr	r6, [r1, #24]
 317 002e CA69     		ldr	r2, [r1, #28]
 318 0030 83FB0515 		smull	r1, r5, r3, r5
 319 0034 CCFB0A15 		smlal	r1, r5, ip, r10
 320 0038 CEFB0915 		smlal	r1, r5, lr, r9
 321 003c 090D     		lsrs	r1, r1, #20
 322 003e 41EA0531 		orr	r1, r1, r5, lsl #12
 323 0042 83FB0445 		smull	r4, r5, r3, r4
 324 0046 83FB0223 		smull	r2, r3, r3, r2
 325 004a C6FB0C23 		smlal	r2, r3, r6, ip
 326 004e CCFB0845 		smlal	r4, r5, ip, r8
 327 0052 C7FB0E45 		smlal	r4, r5, r7, lr
 328 0056 120D     		lsrs	r2, r2, #20
 329 0058 42EA0332 		orr	r2, r2, r3, lsl #12
 330 005c 230D     		lsrs	r3, r4, #20
 331 005e 43EA0533 		orr	r3, r3, r5, lsl #12
 332 0062 0C4C     		ldr	r4, .L16
 333 0064 9B01     		lsls	r3, r3, #6
 334 0066 84FB0365 		smull	r6, r5, r4, r3
 335 006a DB17     		asrs	r3, r3, #31
 336 006c 9201     		lsls	r2, r2, #6
 337 006e C3EBE503 		rsb	r3, r3, r5, asr #3
 338 0072 8901     		lsls	r1, r1, #6
 339 0074 0360     		str	r3, [r0]
 340 0076 84FB0253 		smull	r5, r3, r4, r2
 341 007a D217     		asrs	r2, r2, #31
ARM GAS  /tmp/ccpoaJl1.s 			page 7


 342 007c C2EBE302 		rsb	r2, r2, r3, asr #3
 343 0080 84FB0134 		smull	r3, r4, r4, r1
 344 0084 C917     		asrs	r1, r1, #31
 345 0086 A1EBE401 		sub	r1, r1, r4, asr #3
 346 008a C0E90121 		strd	r2, r1, [r0, #4]
 347 008e BDE8F087 		pop	{r4, r5, r6, r7, r8, r9, r10, pc}
 348              	.L17:
 349 0092 00BF     		.align	2
 350              	.L16:
 351 0094 1F85EB51 		.word	1374389535
 352              		.size	ned_of_ecef_pos_i, .-ned_of_ecef_pos_i
 353              		.section	.text.enu_of_ecef_vect_i,"ax",%progbits
 354              		.align	1
 355              		.p2align 4,,15
 356              		.global	enu_of_ecef_vect_i
 357              		.syntax unified
 358              		.thumb
 359              		.thumb_func
 360              		.fpu fpv4-sp-d16
 361              		.type	enu_of_ecef_vect_i, %function
 362              	enu_of_ecef_vect_i:
 363              		@ args = 0, pretend = 0, frame = 0
 364              		@ frame_needed = 0, uses_anonymous_args = 0
 365 0000 2DE9F047 		push	{r4, r5, r6, r7, r8, r9, r10, lr}
 366 0004 D2E90053 		ldrd	r5, r3, [r2]
 367 0008 D1F82880 		ldr	r8, [r1, #40]
 368 000c D1F824A0 		ldr	r10, [r1, #36]
 369 0010 9768     		ldr	r7, [r2, #8]
 370 0012 4C6B     		ldr	r4, [r1, #52]
 371 0014 CA69     		ldr	r2, [r1, #28]
 372 0016 D1F830E0 		ldr	lr, [r1, #48]
 373 001a 8E69     		ldr	r6, [r1, #24]
 374 001c D1F82C90 		ldr	r9, [r1, #44]
 375 0020 D1F838C0 		ldr	ip, [r1, #56]
 376 0024 83FB0818 		smull	r1, r8, r3, r8
 377 0028 C5FB0A18 		smlal	r1, r8, r5, r10
 378 002c C9FB0718 		smlal	r1, r8, r9, r7
 379 0030 090D     		lsrs	r1, r1, #20
 380 0032 41EA0831 		orr	r1, r1, r8, lsl #12
 381 0036 4160     		str	r1, [r0, #4]
 382 0038 83FB0414 		smull	r1, r4, r3, r4
 383 003c C5FB0E14 		smlal	r1, r4, r5, lr
 384 0040 83FB0223 		smull	r2, r3, r3, r2
 385 0044 C7FB0C14 		smlal	r1, r4, r7, ip
 386 0048 C6FB0523 		smlal	r2, r3, r6, r5
 387 004c 120D     		lsrs	r2, r2, #20
 388 004e 090D     		lsrs	r1, r1, #20
 389 0050 41EA0431 		orr	r1, r1, r4, lsl #12
 390 0054 42EA0332 		orr	r2, r2, r3, lsl #12
 391 0058 8160     		str	r1, [r0, #8]
 392 005a 0260     		str	r2, [r0]
 393 005c BDE8F087 		pop	{r4, r5, r6, r7, r8, r9, r10, pc}
 394              		.size	enu_of_ecef_vect_i, .-enu_of_ecef_vect_i
 395              		.section	.text.ned_of_ecef_vect_i,"ax",%progbits
 396              		.align	1
 397              		.p2align 4,,15
 398              		.global	ned_of_ecef_vect_i
ARM GAS  /tmp/ccpoaJl1.s 			page 8


 399              		.syntax unified
 400              		.thumb
 401              		.thumb_func
 402              		.fpu fpv4-sp-d16
 403              		.type	ned_of_ecef_vect_i, %function
 404              	ned_of_ecef_vect_i:
 405              		@ args = 0, pretend = 0, frame = 0
 406              		@ frame_needed = 0, uses_anonymous_args = 0
 407 0000 2DE9F043 		push	{r4, r5, r6, r7, r8, r9, lr}
 408 0004 D2E90064 		ldrd	r6, r4, [r2]
 409 0008 4B6B     		ldr	r3, [r1, #52]
 410 000a 9768     		ldr	r7, [r2, #8]
 411 000c 0A6B     		ldr	r2, [r1, #48]
 412 000e D1F82890 		ldr	r9, [r1, #40]
 413 0012 CD69     		ldr	r5, [r1, #28]
 414 0014 D1F824C0 		ldr	ip, [r1, #36]
 415 0018 D1F82C80 		ldr	r8, [r1, #44]
 416 001c 84FB033E 		smull	r3, lr, r4, r3
 417 0020 C6FB023E 		smlal	r3, lr, r6, r2
 418 0024 8A6B     		ldr	r2, [r1, #56]
 419 0026 C7FB023E 		smlal	r3, lr, r7, r2
 420 002a 1B0D     		lsrs	r3, r3, #20
 421 002c 43EA0E33 		orr	r3, r3, lr, lsl #12
 422 0030 5B42     		rsbs	r3, r3, #0
 423 0032 D1F818E0 		ldr	lr, [r1, #24]
 424 0036 8360     		str	r3, [r0, #8]
 425 0038 84FB0912 		smull	r1, r2, r4, r9
 426 003c C6FB0C12 		smlal	r1, r2, r6, ip
 427 0040 84FB0535 		smull	r3, r5, r4, r5
 428 0044 C8FB0712 		smlal	r1, r2, r8, r7
 429 0048 CEFB0635 		smlal	r3, r5, lr, r6
 430 004c 1B0D     		lsrs	r3, r3, #20
 431 004e 090D     		lsrs	r1, r1, #20
 432 0050 41EA0231 		orr	r1, r1, r2, lsl #12
 433 0054 43EA0533 		orr	r3, r3, r5, lsl #12
 434 0058 C0E90013 		strd	r1, r3, [r0]
 435 005c BDE8F083 		pop	{r4, r5, r6, r7, r8, r9, pc}
 436              		.size	ned_of_ecef_vect_i, .-ned_of_ecef_vect_i
 437              		.section	.text.ecef_of_enu_vect_i,"ax",%progbits
 438              		.align	1
 439              		.p2align 4,,15
 440              		.global	ecef_of_enu_vect_i
 441              		.syntax unified
 442              		.thumb
 443              		.thumb_func
 444              		.fpu fpv4-sp-d16
 445              		.type	ecef_of_enu_vect_i, %function
 446              	ecef_of_enu_vect_i:
 447              		@ args = 0, pretend = 0, frame = 0
 448              		@ frame_needed = 0, uses_anonymous_args = 0
 449 0000 2DE9F047 		push	{r4, r5, r6, r7, r8, r9, r10, lr}
 450 0004 D2E90153 		ldrd	r5, r3, [r2, #4]
 451 0008 D1E90984 		ldrd	r8, r4, [r1, #36]
 452 000c D1E906AE 		ldrd	r10, lr, [r1, #24]
 453 0010 D1E90C9C 		ldrd	r9, ip, [r1, #48]
 454 0014 1768     		ldr	r7, [r2]
 455 0016 CE6A     		ldr	r6, [r1, #44]
ARM GAS  /tmp/ccpoaJl1.s 			page 9


 456 0018 8A6B     		ldr	r2, [r1, #56]
 457 001a 85FB0818 		smull	r1, r8, r5, r8
 458 001e CAFB0718 		smlal	r1, r8, r10, r7
 459 0022 C9FB0318 		smlal	r1, r8, r9, r3
 460 0026 090D     		lsrs	r1, r1, #20
 461 0028 41EA0831 		orr	r1, r1, r8, lsl #12
 462 002c 0160     		str	r1, [r0]
 463 002e 85FB0414 		smull	r1, r4, r5, r4
 464 0032 C7FB0E14 		smlal	r1, r4, r7, lr
 465 0036 C3FB0C14 		smlal	r1, r4, r3, ip
 466 003a 83FB0223 		smull	r2, r3, r3, r2
 467 003e C5FB0623 		smlal	r2, r3, r5, r6
 468 0042 090D     		lsrs	r1, r1, #20
 469 0044 120D     		lsrs	r2, r2, #20
 470 0046 41EA0431 		orr	r1, r1, r4, lsl #12
 471 004a 42EA0332 		orr	r2, r2, r3, lsl #12
 472 004e C0E90112 		strd	r1, r2, [r0, #4]
 473 0052 BDE8F087 		pop	{r4, r5, r6, r7, r8, r9, r10, pc}
 474              		.size	ecef_of_enu_vect_i, .-ecef_of_enu_vect_i
 475 0056 00BF     		.section	.text.ecef_of_ned_vect_i,"ax",%progbits
 476              		.align	1
 477              		.p2align 4,,15
 478              		.global	ecef_of_ned_vect_i
 479              		.syntax unified
 480              		.thumb
 481              		.thumb_func
 482              		.fpu fpv4-sp-d16
 483              		.type	ecef_of_ned_vect_i, %function
 484              	ecef_of_ned_vect_i:
 485              		@ args = 0, pretend = 0, frame = 0
 486              		@ frame_needed = 0, uses_anonymous_args = 0
 487 0000 2DE9F047 		push	{r4, r5, r6, r7, r8, r9, r10, lr}
 488 0004 D1E90984 		ldrd	r8, r4, [r1, #36]
 489 0008 D2E90173 		ldrd	r7, r3, [r2, #4]
 490 000c 1568     		ldr	r5, [r2]
 491 000e CE6A     		ldr	r6, [r1, #44]
 492 0010 8A6B     		ldr	r2, [r1, #56]
 493 0012 D1E906AE 		ldrd	r10, lr, [r1, #24]
 494 0016 D1E90C9C 		ldrd	r9, ip, [r1, #48]
 495 001a 85FB0818 		smull	r1, r8, r5, r8
 496 001e 5B42     		rsbs	r3, r3, #0
 497 0020 CAFB0718 		smlal	r1, r8, r10, r7
 498 0024 C9FB0318 		smlal	r1, r8, r9, r3
 499 0028 090D     		lsrs	r1, r1, #20
 500 002a 41EA0831 		orr	r1, r1, r8, lsl #12
 501 002e 0160     		str	r1, [r0]
 502 0030 85FB0414 		smull	r1, r4, r5, r4
 503 0034 C7FB0E14 		smlal	r1, r4, r7, lr
 504 0038 C3FB0C14 		smlal	r1, r4, r3, ip
 505 003c 83FB0223 		smull	r2, r3, r3, r2
 506 0040 C5FB0623 		smlal	r2, r3, r5, r6
 507 0044 090D     		lsrs	r1, r1, #20
 508 0046 120D     		lsrs	r2, r2, #20
 509 0048 41EA0431 		orr	r1, r1, r4, lsl #12
 510 004c 42EA0332 		orr	r2, r2, r3, lsl #12
 511 0050 C0E90112 		strd	r1, r2, [r0, #4]
 512 0054 BDE8F087 		pop	{r4, r5, r6, r7, r8, r9, r10, pc}
ARM GAS  /tmp/ccpoaJl1.s 			page 10


 513              		.size	ecef_of_ned_vect_i, .-ecef_of_ned_vect_i
 514              		.section	.text.ecef_of_enu_point_i,"ax",%progbits
 515              		.align	1
 516              		.p2align 4,,15
 517              		.global	ecef_of_enu_point_i
 518              		.syntax unified
 519              		.thumb
 520              		.thumb_func
 521              		.fpu fpv4-sp-d16
 522              		.type	ecef_of_enu_point_i, %function
 523              	ecef_of_enu_point_i:
 524              		@ args = 0, pretend = 0, frame = 0
 525              		@ frame_needed = 0, uses_anonymous_args = 0
 526 0000 2DE9F047 		push	{r4, r5, r6, r7, r8, r9, r10, lr}
 527 0004 D2E90163 		ldrd	r6, r3, [r2, #4]
 528 0008 D1E90954 		ldrd	r5, r4, [r1, #36]
 529 000c 1768     		ldr	r7, [r2]
 530 000e 8A69     		ldr	r2, [r1, #24]
 531 0010 D1F81C80 		ldr	r8, [r1, #28]
 532 0014 D1F82CC0 		ldr	ip, [r1, #44]
 533 0018 86FB0559 		smull	r5, r9, r6, r5
 534 001c C2FB0759 		smlal	r5, r9, r2, r7
 535 0020 0A6B     		ldr	r2, [r1, #48]
 536 0022 C2FB0359 		smlal	r5, r9, r2, r3
 537 0026 2D0D     		lsrs	r5, r5, #20
 538 0028 D1E90DEA 		ldrd	lr, r10, [r1, #52]
 539 002c 45EA0935 		orr	r5, r5, r9, lsl #12
 540 0030 86FB0449 		smull	r4, r9, r6, r4
 541 0034 C7FB0849 		smlal	r4, r9, r7, r8
 542 0038 4F46     		mov	r7, r9
 543 003a C3FB0E47 		smlal	r4, r7, r3, lr
 544 003e 83FB0A23 		smull	r2, r3, r3, r10
 545 0042 C6FB0C23 		smlal	r2, r3, r6, ip
 546 0046 240D     		lsrs	r4, r4, #20
 547 0048 120D     		lsrs	r2, r2, #20
 548 004a 0560     		str	r5, [r0]
 549 004c 42EA0332 		orr	r2, r2, r3, lsl #12
 550 0050 44EA0734 		orr	r4, r4, r7, lsl #12
 551 0054 C0E90142 		strd	r4, r2, [r0, #4]
 552 0058 0B68     		ldr	r3, [r1]
 553 005a 2B44     		add	r3, r3, r5
 554 005c 0360     		str	r3, [r0]
 555 005e D1E90153 		ldrd	r5, r3, [r1, #4]
 556 0062 2C44     		add	r4, r4, r5
 557 0064 1A44     		add	r2, r2, r3
 558 0066 C0E90142 		strd	r4, r2, [r0, #4]
 559 006a BDE8F087 		pop	{r4, r5, r6, r7, r8, r9, r10, pc}
 560              		.size	ecef_of_enu_point_i, .-ecef_of_enu_point_i
 561 006e 00BF     		.section	.text.ecef_of_ned_point_i,"ax",%progbits
 562              		.align	1
 563              		.p2align 4,,15
 564              		.global	ecef_of_ned_point_i
 565              		.syntax unified
 566              		.thumb
 567              		.thumb_func
 568              		.fpu fpv4-sp-d16
 569              		.type	ecef_of_ned_point_i, %function
ARM GAS  /tmp/ccpoaJl1.s 			page 11


 570              	ecef_of_ned_point_i:
 571              		@ args = 0, pretend = 0, frame = 0
 572              		@ frame_needed = 0, uses_anonymous_args = 0
 573 0000 2DE9F047 		push	{r4, r5, r6, r7, r8, r9, r10, lr}
 574 0004 D1E90954 		ldrd	r5, r4, [r1, #36]
 575 0008 D2E90173 		ldrd	r7, r3, [r2, #4]
 576 000c 1668     		ldr	r6, [r2]
 577 000e 8A69     		ldr	r2, [r1, #24]
 578 0010 D1F81C80 		ldr	r8, [r1, #28]
 579 0014 D1F82CC0 		ldr	ip, [r1, #44]
 580 0018 86FB0559 		smull	r5, r9, r6, r5
 581 001c C2FB0759 		smlal	r5, r9, r2, r7
 582 0020 0A6B     		ldr	r2, [r1, #48]
 583 0022 5B42     		rsbs	r3, r3, #0
 584 0024 C2FB0359 		smlal	r5, r9, r2, r3
 585 0028 2D0D     		lsrs	r5, r5, #20
 586 002a D1E90DEA 		ldrd	lr, r10, [r1, #52]
 587 002e 45EA0935 		orr	r5, r5, r9, lsl #12
 588 0032 86FB0449 		smull	r4, r9, r6, r4
 589 0036 C7FB0849 		smlal	r4, r9, r7, r8
 590 003a 4F46     		mov	r7, r9
 591 003c C3FB0E47 		smlal	r4, r7, r3, lr
 592 0040 83FB0A23 		smull	r2, r3, r3, r10
 593 0044 C6FB0C23 		smlal	r2, r3, r6, ip
 594 0048 240D     		lsrs	r4, r4, #20
 595 004a 120D     		lsrs	r2, r2, #20
 596 004c 0560     		str	r5, [r0]
 597 004e 42EA0332 		orr	r2, r2, r3, lsl #12
 598 0052 44EA0734 		orr	r4, r4, r7, lsl #12
 599 0056 C0E90142 		strd	r4, r2, [r0, #4]
 600 005a 0B68     		ldr	r3, [r1]
 601 005c 2B44     		add	r3, r3, r5
 602 005e 0360     		str	r3, [r0]
 603 0060 D1E90153 		ldrd	r5, r3, [r1, #4]
 604 0064 2C44     		add	r4, r4, r5
 605 0066 1A44     		add	r2, r2, r3
 606 0068 C0E90142 		strd	r4, r2, [r0, #4]
 607 006c BDE8F087 		pop	{r4, r5, r6, r7, r8, r9, r10, pc}
 608              		.size	ecef_of_ned_point_i, .-ecef_of_ned_point_i
 609              		.section	.text.ecef_of_enu_pos_i,"ax",%progbits
 610              		.align	1
 611              		.p2align 4,,15
 612              		.global	ecef_of_enu_pos_i
 613              		.syntax unified
 614              		.thumb
 615              		.thumb_func
 616              		.fpu fpv4-sp-d16
 617              		.type	ecef_of_enu_pos_i, %function
 618              	ecef_of_enu_pos_i:
 619              		@ args = 0, pretend = 0, frame = 0
 620              		@ frame_needed = 0, uses_anonymous_args = 0
 621 0000 2DE9F047 		push	{r4, r5, r6, r7, r8, r9, r10, lr}
 622 0004 D2E90045 		ldrd	r4, r5, [r2]
 623 0008 05EB8505 		add	r5, r5, r5, lsl #2
 624 000c 05EB8505 		add	r5, r5, r5, lsl #2
 625 0010 4FEAA51C 		asr	ip, r5, #6
 626 0014 04EB840E 		add	lr, r4, r4, lsl #2
ARM GAS  /tmp/ccpoaJl1.s 			page 12


 627 0018 D1E90954 		ldrd	r5, r4, [r1, #36]
 628 001c 9368     		ldr	r3, [r2, #8]
 629 001e 8A69     		ldr	r2, [r1, #24]
 630 0020 D1F81C80 		ldr	r8, [r1, #28]
 631 0024 CE6A     		ldr	r6, [r1, #44]
 632 0026 0EEB8E0E 		add	lr, lr, lr, lsl #2
 633 002a 4FEAAE1E 		asr	lr, lr, #6
 634 002e 03EB8303 		add	r3, r3, r3, lsl #2
 635 0032 8CFB0559 		smull	r5, r9, ip, r5
 636 0036 C2FB0E59 		smlal	r5, r9, r2, lr
 637 003a 03EB8303 		add	r3, r3, r3, lsl #2
 638 003e 0A6B     		ldr	r2, [r1, #48]
 639 0040 9B11     		asrs	r3, r3, #6
 640 0042 C2FB0359 		smlal	r5, r9, r2, r3
 641 0046 2D0D     		lsrs	r5, r5, #20
 642 0048 D1E90D7A 		ldrd	r7, r10, [r1, #52]
 643 004c 45EA0935 		orr	r5, r5, r9, lsl #12
 644 0050 8CFB0449 		smull	r4, r9, ip, r4
 645 0054 CEFB0849 		smlal	r4, r9, lr, r8
 646 0058 CE46     		mov	lr, r9
 647 005a C3FB074E 		smlal	r4, lr, r3, r7
 648 005e 83FB0A23 		smull	r2, r3, r3, r10
 649 0062 CCFB0623 		smlal	r2, r3, ip, r6
 650 0066 240D     		lsrs	r4, r4, #20
 651 0068 120D     		lsrs	r2, r2, #20
 652 006a 0560     		str	r5, [r0]
 653 006c 42EA0332 		orr	r2, r2, r3, lsl #12
 654 0070 44EA0E34 		orr	r4, r4, lr, lsl #12
 655 0074 C0E90142 		strd	r4, r2, [r0, #4]
 656 0078 0B68     		ldr	r3, [r1]
 657 007a 2B44     		add	r3, r3, r5
 658 007c 0360     		str	r3, [r0]
 659 007e D1E90153 		ldrd	r5, r3, [r1, #4]
 660 0082 2C44     		add	r4, r4, r5
 661 0084 1A44     		add	r2, r2, r3
 662 0086 C0E90142 		strd	r4, r2, [r0, #4]
 663 008a BDE8F087 		pop	{r4, r5, r6, r7, r8, r9, r10, pc}
 664              		.size	ecef_of_enu_pos_i, .-ecef_of_enu_pos_i
 665 008e 00BF     		.section	.text.ecef_of_ned_pos_i,"ax",%progbits
 666              		.align	1
 667              		.p2align 4,,15
 668              		.global	ecef_of_ned_pos_i
 669              		.syntax unified
 670              		.thumb
 671              		.thumb_func
 672              		.fpu fpv4-sp-d16
 673              		.type	ecef_of_ned_pos_i, %function
 674              	ecef_of_ned_pos_i:
 675              		@ args = 0, pretend = 0, frame = 0
 676              		@ frame_needed = 0, uses_anonymous_args = 0
 677 0000 2DE9F047 		push	{r4, r5, r6, r7, r8, r9, r10, lr}
 678 0004 D2E90054 		ldrd	r5, r4, [r2]
 679 0008 05EB8505 		add	r5, r5, r5, lsl #2
 680 000c 05EB8505 		add	r5, r5, r5, lsl #2
 681 0010 9368     		ldr	r3, [r2, #8]
 682 0012 D1F81C80 		ldr	r8, [r1, #28]
 683 0016 CE6A     		ldr	r6, [r1, #44]
ARM GAS  /tmp/ccpoaJl1.s 			page 13


 684 0018 4FEAA51C 		asr	ip, r5, #6
 685 001c 04EB840E 		add	lr, r4, r4, lsl #2
 686 0020 D1E90954 		ldrd	r5, r4, [r1, #36]
 687 0024 6FF01802 		mvn	r2, #24
 688 0028 02FB03F3 		mul	r3, r2, r3
 689 002c 0EEB8E0E 		add	lr, lr, lr, lsl #2
 690 0030 8A69     		ldr	r2, [r1, #24]
 691 0032 4FEAAE1E 		asr	lr, lr, #6
 692 0036 8CFB0559 		smull	r5, r9, ip, r5
 693 003a C2FB0E59 		smlal	r5, r9, r2, lr
 694 003e 0A6B     		ldr	r2, [r1, #48]
 695 0040 9B11     		asrs	r3, r3, #6
 696 0042 C2FB0359 		smlal	r5, r9, r2, r3
 697 0046 2D0D     		lsrs	r5, r5, #20
 698 0048 D1E90D7A 		ldrd	r7, r10, [r1, #52]
 699 004c 45EA0935 		orr	r5, r5, r9, lsl #12
 700 0050 8CFB0449 		smull	r4, r9, ip, r4
 701 0054 CEFB0849 		smlal	r4, r9, lr, r8
 702 0058 CE46     		mov	lr, r9
 703 005a C3FB074E 		smlal	r4, lr, r3, r7
 704 005e 83FB0A23 		smull	r2, r3, r3, r10
 705 0062 CCFB0623 		smlal	r2, r3, ip, r6
 706 0066 240D     		lsrs	r4, r4, #20
 707 0068 120D     		lsrs	r2, r2, #20
 708 006a 0560     		str	r5, [r0]
 709 006c 42EA0332 		orr	r2, r2, r3, lsl #12
 710 0070 44EA0E34 		orr	r4, r4, lr, lsl #12
 711 0074 C0E90142 		strd	r4, r2, [r0, #4]
 712 0078 0B68     		ldr	r3, [r1]
 713 007a 2B44     		add	r3, r3, r5
 714 007c 0360     		str	r3, [r0]
 715 007e D1E90153 		ldrd	r5, r3, [r1, #4]
 716 0082 2C44     		add	r4, r4, r5
 717 0084 1A44     		add	r2, r2, r3
 718 0086 C0E90142 		strd	r4, r2, [r0, #4]
 719 008a BDE8F087 		pop	{r4, r5, r6, r7, r8, r9, r10, pc}
 720              		.size	ecef_of_ned_pos_i, .-ecef_of_ned_pos_i
 721 008e 00BF     		.section	.text.lla_of_ecef_i,"ax",%progbits
 722              		.align	1
 723              		.p2align 4,,15
 724              		.global	lla_of_ecef_i
 725              		.syntax unified
 726              		.thumb
 727              		.thumb_func
 728              		.fpu fpv4-sp-d16
 729              		.type	lla_of_ecef_i, %function
 730              	lla_of_ecef_i:
 731              		@ args = 0, pretend = 0, frame = 48
 732              		@ frame_needed = 0, uses_anonymous_args = 0
 733 0000 30B5     		push	{r4, r5, lr}
 734 0002 0446     		mov	r4, r0
 735 0004 8DB0     		sub	sp, sp, #52
 736 0006 0868     		ldr	r0, [r1]
 737 0008 0D46     		mov	r5, r1
 738 000a FFF7FEFF 		bl	__aeabi_i2d
 739 000e 2A4B     		ldr	r3, .L36+16
 740 0010 0022     		movs	r2, #0
ARM GAS  /tmp/ccpoaJl1.s 			page 14


 741 0012 FFF7FEFF 		bl	__aeabi_ddiv
 742 0016 0246     		mov	r2, r0
 743 0018 0B46     		mov	r3, r1
 744 001a 6868     		ldr	r0, [r5, #4]
 745 001c CDE90023 		strd	r2, [sp]
 746 0020 FFF7FEFF 		bl	__aeabi_i2d
 747 0024 244B     		ldr	r3, .L36+16
 748 0026 0022     		movs	r2, #0
 749 0028 FFF7FEFF 		bl	__aeabi_ddiv
 750 002c 0246     		mov	r2, r0
 751 002e 0B46     		mov	r3, r1
 752 0030 A868     		ldr	r0, [r5, #8]
 753 0032 CDE90223 		strd	r2, [sp, #8]
 754 0036 FFF7FEFF 		bl	__aeabi_i2d
 755 003a 1F4B     		ldr	r3, .L36+16
 756 003c 0022     		movs	r2, #0
 757 003e FFF7FEFF 		bl	__aeabi_ddiv
 758 0042 0246     		mov	r2, r0
 759 0044 0B46     		mov	r3, r1
 760 0046 06A8     		add	r0, sp, #24
 761 0048 6946     		mov	r1, sp
 762 004a CDE90423 		strd	r2, [sp, #16]
 763 004e FFF7FEFF 		bl	lla_of_ecef_d
 764 0052 15A3     		adr	r3, .L36
 765 0054 D3E90023 		ldrd	r2, [r3]
 766 0058 DDE90601 		ldrd	r0, [sp, #24]
 767 005c FFF7FEFF 		bl	__aeabi_dmul
 768 0060 13A3     		adr	r3, .L36+8
 769 0062 D3E90023 		ldrd	r2, [r3]
 770 0066 FFF7FEFF 		bl	__aeabi_dmul
 771 006a FFF7FEFF 		bl	__aeabi_d2iz
 772 006e 0EA3     		adr	r3, .L36
 773 0070 D3E90023 		ldrd	r2, [r3]
 774 0074 2060     		str	r0, [r4]
 775 0076 DDE90801 		ldrd	r0, [sp, #32]
 776 007a FFF7FEFF 		bl	__aeabi_dmul
 777 007e 0CA3     		adr	r3, .L36+8
 778 0080 D3E90023 		ldrd	r2, [r3]
 779 0084 FFF7FEFF 		bl	__aeabi_dmul
 780 0088 FFF7FEFF 		bl	__aeabi_d2iz
 781 008c 0B4B     		ldr	r3, .L36+20
 782 008e 6060     		str	r0, [r4, #4]
 783 0090 0022     		movs	r2, #0
 784 0092 DDE90A01 		ldrd	r0, [sp, #40]
 785 0096 FFF7FEFF 		bl	__aeabi_dmul
 786 009a FFF7FEFF 		bl	__aeabi_d2iz
 787 009e A060     		str	r0, [r4, #8]
 788 00a0 0DB0     		add	sp, sp, #52
 789              		@ sp needed
 790 00a2 30BD     		pop	{r4, r5, pc}
 791              	.L37:
 792 00a4 AFF30080 		.align	3
 793              	.L36:
 794 00a8 F8C1631A 		.word	442745336
 795 00ac DCA54C40 		.word	1078765020
 796 00b0 00000000 		.word	0
 797 00b4 D0126341 		.word	1097011920
ARM GAS  /tmp/ccpoaJl1.s 			page 15


 798 00b8 00005940 		.word	1079574528
 799 00bc 00408F40 		.word	1083129856
 800              		.size	lla_of_ecef_i, .-lla_of_ecef_i
 801              		.section	.text.ltp_def_from_ecef_i,"ax",%progbits
 802              		.align	1
 803              		.p2align 4,,15
 804              		.global	ltp_def_from_ecef_i
 805              		.syntax unified
 806              		.thumb
 807              		.thumb_func
 808              		.fpu fpv4-sp-d16
 809              		.type	ltp_def_from_ecef_i, %function
 810              	ltp_def_from_ecef_i:
 811              		@ args = 0, pretend = 0, frame = 0
 812              		@ frame_needed = 0, uses_anonymous_args = 0
 813 0000 38B5     		push	{r3, r4, r5, lr}
 814 0002 0446     		mov	r4, r0
 815 0004 D1E90002 		ldrd	r0, r2, [r1]
 816 0008 8B68     		ldr	r3, [r1, #8]
 817 000a A360     		str	r3, [r4, #8]
 818 000c 04F10C05 		add	r5, r4, #12
 819 0010 C4E90002 		strd	r0, r2, [r4]
 820 0014 2146     		mov	r1, r4
 821 0016 2846     		mov	r0, r5
 822 0018 FFF7FEFF 		bl	lla_of_ecef_i
 823 001c 2946     		mov	r1, r5
 824 001e 04F11800 		add	r0, r4, #24
 825 0022 BDE83840 		pop	{r3, r4, r5, lr}
 826 0026 FFF7FEBF 		b	ltp_of_ecef_rmat_from_lla_i
 827              		.size	ltp_def_from_ecef_i, .-ltp_def_from_ecef_i
 828 002a 00BF     		.section	.text.ecef_of_lla_i,"ax",%progbits
 829              		.align	1
 830              		.p2align 4,,15
 831              		.global	ecef_of_lla_i
 832              		.syntax unified
 833              		.thumb
 834              		.thumb_func
 835              		.fpu fpv4-sp-d16
 836              		.type	ecef_of_lla_i, %function
 837              	ecef_of_lla_i:
 838              		@ args = 0, pretend = 0, frame = 48
 839              		@ frame_needed = 0, uses_anonymous_args = 0
 840 0000 30B5     		push	{r4, r5, lr}
 841 0002 0446     		mov	r4, r0
 842 0004 8DB0     		sub	sp, sp, #52
 843 0006 0868     		ldr	r0, [r1]
 844 0008 0D46     		mov	r5, r1
 845 000a FFF7FEFF 		bl	__aeabi_i2d
 846 000e 28A3     		adr	r3, .L42+8
 847 0010 D3E90023 		ldrd	r2, [r3]
 848 0014 FFF7FEFF 		bl	__aeabi_dmul
 849 0018 27A3     		adr	r3, .L42+16
 850 001a D3E90023 		ldrd	r2, [r3]
 851 001e FFF7FEFF 		bl	__aeabi_ddiv
 852 0022 0246     		mov	r2, r0
 853 0024 0B46     		mov	r3, r1
 854 0026 6868     		ldr	r0, [r5, #4]
ARM GAS  /tmp/ccpoaJl1.s 			page 16


 855 0028 CDE90023 		strd	r2, [sp]
 856 002c FFF7FEFF 		bl	__aeabi_i2d
 857 0030 1FA3     		adr	r3, .L42+8
 858 0032 D3E90023 		ldrd	r2, [r3]
 859 0036 FFF7FEFF 		bl	__aeabi_dmul
 860 003a 1FA3     		adr	r3, .L42+16
 861 003c D3E90023 		ldrd	r2, [r3]
 862 0040 FFF7FEFF 		bl	__aeabi_ddiv
 863 0044 0246     		mov	r2, r0
 864 0046 0B46     		mov	r3, r1
 865 0048 A868     		ldr	r0, [r5, #8]
 866 004a CDE90223 		strd	r2, [sp, #8]
 867 004e FFF7FEFF 		bl	__aeabi_i2d
 868 0052 154B     		ldr	r3, .L42
 869 0054 0022     		movs	r2, #0
 870 0056 FFF7FEFF 		bl	__aeabi_ddiv
 871 005a 0246     		mov	r2, r0
 872 005c 0B46     		mov	r3, r1
 873 005e 06A8     		add	r0, sp, #24
 874 0060 6946     		mov	r1, sp
 875 0062 CDE90423 		strd	r2, [sp, #16]
 876 0066 FFF7FEFF 		bl	ecef_of_lla_d
 877 006a 104B     		ldr	r3, .L42+4
 878 006c 0022     		movs	r2, #0
 879 006e DDE90601 		ldrd	r0, [sp, #24]
 880 0072 FFF7FEFF 		bl	__aeabi_dmul
 881 0076 FFF7FEFF 		bl	__aeabi_d2iz
 882 007a 0C4B     		ldr	r3, .L42+4
 883 007c 2060     		str	r0, [r4]
 884 007e 0022     		movs	r2, #0
 885 0080 DDE90801 		ldrd	r0, [sp, #32]
 886 0084 FFF7FEFF 		bl	__aeabi_dmul
 887 0088 FFF7FEFF 		bl	__aeabi_d2iz
 888 008c 074B     		ldr	r3, .L42+4
 889 008e 6060     		str	r0, [r4, #4]
 890 0090 0022     		movs	r2, #0
 891 0092 DDE90A01 		ldrd	r0, [sp, #40]
 892 0096 FFF7FEFF 		bl	__aeabi_dmul
 893 009a FFF7FEFF 		bl	__aeabi_d2iz
 894 009e A060     		str	r0, [r4, #8]
 895 00a0 0DB0     		add	sp, sp, #52
 896              		@ sp needed
 897 00a2 30BD     		pop	{r4, r5, pc}
 898              	.L43:
 899 00a4 AFF30080 		.align	3
 900              	.L42:
 901 00a8 00408F40 		.word	1083129856
 902 00ac 00005940 		.word	1079574528
 903 00b0 399D52A2 		.word	-1571644103
 904 00b4 46DF913F 		.word	1066524486
 905 00b8 00000000 		.word	0
 906 00bc D0126341 		.word	1097011920
 907              		.size	ecef_of_lla_i, .-ecef_of_lla_i
 908              		.section	.text.ltp_def_from_lla_i,"ax",%progbits
 909              		.align	1
 910              		.p2align 4,,15
 911              		.global	ltp_def_from_lla_i
ARM GAS  /tmp/ccpoaJl1.s 			page 17


 912              		.syntax unified
 913              		.thumb
 914              		.thumb_func
 915              		.fpu fpv4-sp-d16
 916              		.type	ltp_def_from_lla_i, %function
 917              	ltp_def_from_lla_i:
 918              		@ args = 0, pretend = 0, frame = 8
 919              		@ frame_needed = 0, uses_anonymous_args = 0
 920 0000 30B5     		push	{r4, r5, lr}
 921 0002 D1E90052 		ldrd	r5, r2, [r1]
 922 0006 83B0     		sub	sp, sp, #12
 923 0008 8B68     		ldr	r3, [r1, #8]
 924 000a 4361     		str	r3, [r0, #20]
 925 000c 00F10C01 		add	r1, r0, #12
 926 0010 C0E90352 		strd	r5, r2, [r0, #12]
 927 0014 0446     		mov	r4, r0
 928 0016 0191     		str	r1, [sp, #4]
 929 0018 FFF7FEFF 		bl	ecef_of_lla_i
 930 001c 0199     		ldr	r1, [sp, #4]
 931 001e 04F11800 		add	r0, r4, #24
 932 0022 03B0     		add	sp, sp, #12
 933              		@ sp needed
 934 0024 BDE83040 		pop	{r4, r5, lr}
 935 0028 FFF7FEBF 		b	ltp_of_ecef_rmat_from_lla_i
 936              		.size	ltp_def_from_lla_i, .-ltp_def_from_lla_i
 937              		.section	.text.enu_of_lla_point_i,"ax",%progbits
 938              		.align	1
 939              		.p2align 4,,15
 940              		.global	enu_of_lla_point_i
 941              		.syntax unified
 942              		.thumb
 943              		.thumb_func
 944              		.fpu fpv4-sp-d16
 945              		.type	enu_of_lla_point_i, %function
 946              	enu_of_lla_point_i:
 947              		@ args = 0, pretend = 0, frame = 16
 948              		@ frame_needed = 0, uses_anonymous_args = 0
 949 0000 2DE9F04F 		push	{r4, r5, r6, r7, r8, r9, r10, fp, lr}
 950 0004 0E46     		mov	r6, r1
 951 0006 85B0     		sub	sp, sp, #20
 952 0008 0546     		mov	r5, r0
 953 000a 1146     		mov	r1, r2
 954 000c 01A8     		add	r0, sp, #4
 955 000e FFF7FEFF 		bl	ecef_of_lla_i
 956 0012 7368     		ldr	r3, [r6, #4]
 957 0014 0299     		ldr	r1, [sp, #8]
 958 0016 3268     		ldr	r2, [r6]
 959 0018 0198     		ldr	r0, [sp, #4]
 960 001a D6F82480 		ldr	r8, [r6, #36]
 961 001e 039F     		ldr	r7, [sp, #12]
 962 0020 D6F82C90 		ldr	r9, [r6, #44]
 963 0024 746B     		ldr	r4, [r6, #52]
 964 0026 D6F81CB0 		ldr	fp, [r6, #28]
 965 002a D6F830C0 		ldr	ip, [r6, #48]
 966 002e CB1A     		subs	r3, r1, r3
 967 0030 B16A     		ldr	r1, [r6, #40]
 968 0032 801A     		subs	r0, r0, r2
ARM GAS  /tmp/ccpoaJl1.s 			page 18


 969 0034 83FB011A 		smull	r1, r10, r3, r1
 970 0038 B268     		ldr	r2, [r6, #8]
 971 003a C0FB081A 		smlal	r1, r10, r0, r8
 972 003e A7EB020E 		sub	lr, r7, r2
 973 0042 D046     		mov	r8, r10
 974 0044 C9FB0E18 		smlal	r1, r8, r9, lr
 975 0048 090D     		lsrs	r1, r1, #20
 976 004a 41EA0831 		orr	r1, r1, r8, lsl #12
 977 004e B769     		ldr	r7, [r6, #24]
 978 0050 B66B     		ldr	r6, [r6, #56]
 979 0052 6960     		str	r1, [r5, #4]
 980 0054 83FB0414 		smull	r1, r4, r3, r4
 981 0058 C0FB0C14 		smlal	r1, r4, r0, ip
 982 005c 83FB0B23 		smull	r2, r3, r3, fp
 983 0060 CEFB0614 		smlal	r1, r4, lr, r6
 984 0064 C7FB0023 		smlal	r2, r3, r7, r0
 985 0068 120D     		lsrs	r2, r2, #20
 986 006a 090D     		lsrs	r1, r1, #20
 987 006c 41EA0431 		orr	r1, r1, r4, lsl #12
 988 0070 42EA0332 		orr	r2, r2, r3, lsl #12
 989 0074 2A60     		str	r2, [r5]
 990 0076 A960     		str	r1, [r5, #8]
 991 0078 05B0     		add	sp, sp, #20
 992              		@ sp needed
 993 007a BDE8F08F 		pop	{r4, r5, r6, r7, r8, r9, r10, fp, pc}
 994              		.size	enu_of_lla_point_i, .-enu_of_lla_point_i
 995 007e 00BF     		.section	.text.ned_of_lla_point_i,"ax",%progbits
 996              		.align	1
 997              		.p2align 4,,15
 998              		.global	ned_of_lla_point_i
 999              		.syntax unified
 1000              		.thumb
 1001              		.thumb_func
 1002              		.fpu fpv4-sp-d16
 1003              		.type	ned_of_lla_point_i, %function
 1004              	ned_of_lla_point_i:
 1005              		@ args = 0, pretend = 0, frame = 24
 1006              		@ frame_needed = 0, uses_anonymous_args = 0
 1007 0000 2DE9F041 		push	{r4, r5, r6, r7, r8, lr}
 1008 0004 0D46     		mov	r5, r1
 1009 0006 86B0     		sub	sp, sp, #24
 1010 0008 0646     		mov	r6, r0
 1011 000a 1146     		mov	r1, r2
 1012 000c 03A8     		add	r0, sp, #12
 1013 000e FFF7FEFF 		bl	ecef_of_lla_i
 1014 0012 2A68     		ldr	r2, [r5]
 1015 0014 6B68     		ldr	r3, [r5, #4]
 1016 0016 0498     		ldr	r0, [sp, #16]
 1017 0018 0399     		ldr	r1, [sp, #12]
 1018 001a AC6A     		ldr	r4, [r5, #40]
 1019 001c EF69     		ldr	r7, [r5, #28]
 1020 001e D5F824E0 		ldr	lr, [r5, #36]
 1021 0022 A1EB020C 		sub	ip, r1, r2
 1022 0026 C31A     		subs	r3, r0, r3
 1023 0028 A968     		ldr	r1, [r5, #8]
 1024 002a 0598     		ldr	r0, [sp, #20]
 1025 002c 6A6B     		ldr	r2, [r5, #52]
ARM GAS  /tmp/ccpoaJl1.s 			page 19


 1026 002e 401A     		subs	r0, r0, r1
 1027 0030 A96B     		ldr	r1, [r5, #56]
 1028 0032 0191     		str	r1, [sp, #4]
 1029 0034 296B     		ldr	r1, [r5, #48]
 1030 0036 83FB0228 		smull	r2, r8, r3, r2
 1031 003a CCFB0128 		smlal	r2, r8, ip, r1
 1032 003e 0199     		ldr	r1, [sp, #4]
 1033 0040 C0FB0128 		smlal	r2, r8, r0, r1
 1034 0044 120D     		lsrs	r2, r2, #20
 1035 0046 42EA0832 		orr	r2, r2, r8, lsl #12
 1036 004a 5242     		rsbs	r2, r2, #0
 1037 004c D5F81880 		ldr	r8, [r5, #24]
 1038 0050 ED6A     		ldr	r5, [r5, #44]
 1039 0052 B260     		str	r2, [r6, #8]
 1040 0054 83FB0414 		smull	r1, r4, r3, r4
 1041 0058 CCFB0E14 		smlal	r1, r4, ip, lr
 1042 005c 83FB0727 		smull	r2, r7, r3, r7
 1043 0060 C5FB0014 		smlal	r1, r4, r5, r0
 1044 0064 C8FB0C27 		smlal	r2, r7, r8, ip
 1045 0068 120D     		lsrs	r2, r2, #20
 1046 006a 090D     		lsrs	r1, r1, #20
 1047 006c 41EA0431 		orr	r1, r1, r4, lsl #12
 1048 0070 42EA0732 		orr	r2, r2, r7, lsl #12
 1049 0074 C6E90012 		strd	r1, r2, [r6]
 1050 0078 06B0     		add	sp, sp, #24
 1051              		@ sp needed
 1052 007a BDE8F081 		pop	{r4, r5, r6, r7, r8, pc}
 1053              		.size	ned_of_lla_point_i, .-ned_of_lla_point_i
 1054 007e 00BF     		.section	.text.enu_of_lla_pos_i,"ax",%progbits
 1055              		.align	1
 1056              		.p2align 4,,15
 1057              		.global	enu_of_lla_pos_i
 1058              		.syntax unified
 1059              		.thumb
 1060              		.thumb_func
 1061              		.fpu fpv4-sp-d16
 1062              		.type	enu_of_lla_pos_i, %function
 1063              	enu_of_lla_pos_i:
 1064              		@ args = 0, pretend = 0, frame = 16
 1065              		@ frame_needed = 0, uses_anonymous_args = 0
 1066 0000 2DE9F047 		push	{r4, r5, r6, r7, r8, r9, r10, lr}
 1067 0004 0D46     		mov	r5, r1
 1068 0006 84B0     		sub	sp, sp, #16
 1069 0008 0446     		mov	r4, r0
 1070 000a 1146     		mov	r1, r2
 1071 000c 01A8     		add	r0, sp, #4
 1072 000e FFF7FEFF 		bl	ecef_of_lla_i
 1073 0012 2A68     		ldr	r2, [r5]
 1074 0014 6B68     		ldr	r3, [r5, #4]
 1075 0016 0298     		ldr	r0, [sp, #8]
 1076 0018 0199     		ldr	r1, [sp, #4]
 1077 001a D5F828C0 		ldr	ip, [r5, #40]
 1078 001e D5F82490 		ldr	r9, [r5, #36]
 1079 0022 AE68     		ldr	r6, [r5, #8]
 1080 0024 2F6B     		ldr	r7, [r5, #48]
 1081 0026 D5F83880 		ldr	r8, [r5, #56]
 1082 002a A1EB020E 		sub	lr, r1, r2
ARM GAS  /tmp/ccpoaJl1.s 			page 20


 1083 002e C31A     		subs	r3, r0, r3
 1084 0030 0399     		ldr	r1, [sp, #12]
 1085 0032 686B     		ldr	r0, [r5, #52]
 1086 0034 EA69     		ldr	r2, [r5, #28]
 1087 0036 83FB0CCA 		smull	ip, r10, r3, ip
 1088 003a 8E1B     		subs	r6, r1, r6
 1089 003c CEFB09CA 		smlal	ip, r10, lr, r9
 1090 0040 E96A     		ldr	r1, [r5, #44]
 1091 0042 AD69     		ldr	r5, [r5, #24]
 1092 0044 D146     		mov	r9, r10
 1093 0046 C1FB06C9 		smlal	ip, r9, r1, r6
 1094 004a 83FB0010 		smull	r1, r0, r3, r0
 1095 004e CEFB0710 		smlal	r1, r0, lr, r7
 1096 0052 83FB0223 		smull	r2, r3, r3, r2
 1097 0056 C6FB0810 		smlal	r1, r0, r6, r8
 1098 005a C5FB0E23 		smlal	r2, r3, r5, lr
 1099 005e 090D     		lsrs	r1, r1, #20
 1100 0060 120D     		lsrs	r2, r2, #20
 1101 0062 41EA0031 		orr	r1, r1, r0, lsl #12
 1102 0066 42EA0332 		orr	r2, r2, r3, lsl #12
 1103 006a 0F48     		ldr	r0, .L52
 1104 006c 9201     		lsls	r2, r2, #6
 1105 006e 4FEA1C5C 		lsr	ip, ip, #20
 1106 0072 80FB0253 		smull	r5, r3, r0, r2
 1107 0076 4CEA093C 		orr	ip, ip, r9, lsl #12
 1108 007a D217     		asrs	r2, r2, #31
 1109 007c C2EBE302 		rsb	r2, r2, r3, asr #3
 1110 0080 4FEA8C1C 		lsl	ip, ip, #6
 1111 0084 8901     		lsls	r1, r1, #6
 1112 0086 2260     		str	r2, [r4]
 1113 0088 80FB0C23 		smull	r2, r3, r0, ip
 1114 008c 80FB0120 		smull	r2, r0, r0, r1
 1115 0090 4FEAEC7C 		asr	ip, ip, #31
 1116 0094 C917     		asrs	r1, r1, #31
 1117 0096 CCEBE303 		rsb	r3, ip, r3, asr #3
 1118 009a C1EBE001 		rsb	r1, r1, r0, asr #3
 1119 009e C4E90131 		strd	r3, r1, [r4, #4]
 1120 00a2 04B0     		add	sp, sp, #16
 1121              		@ sp needed
 1122 00a4 BDE8F087 		pop	{r4, r5, r6, r7, r8, r9, r10, pc}
 1123              	.L53:
 1124              		.align	2
 1125              	.L52:
 1126 00a8 1F85EB51 		.word	1374389535
 1127              		.size	enu_of_lla_pos_i, .-enu_of_lla_pos_i
 1128              		.section	.text.ned_of_lla_pos_i,"ax",%progbits
 1129              		.align	1
 1130              		.p2align 4,,15
 1131              		.global	ned_of_lla_pos_i
 1132              		.syntax unified
 1133              		.thumb
 1134              		.thumb_func
 1135              		.fpu fpv4-sp-d16
 1136              		.type	ned_of_lla_pos_i, %function
 1137              	ned_of_lla_pos_i:
 1138              		@ args = 0, pretend = 0, frame = 16
 1139              		@ frame_needed = 0, uses_anonymous_args = 0
ARM GAS  /tmp/ccpoaJl1.s 			page 21


 1140 0000 2DE9F047 		push	{r4, r5, r6, r7, r8, r9, r10, lr}
 1141 0004 0E46     		mov	r6, r1
 1142 0006 84B0     		sub	sp, sp, #16
 1143 0008 0446     		mov	r4, r0
 1144 000a 1146     		mov	r1, r2
 1145 000c 01A8     		add	r0, sp, #4
 1146 000e FFF7FEFF 		bl	ecef_of_lla_i
 1147 0012 3268     		ldr	r2, [r6]
 1148 0014 7368     		ldr	r3, [r6, #4]
 1149 0016 0298     		ldr	r0, [sp, #8]
 1150 0018 0199     		ldr	r1, [sp, #4]
 1151 001a 039F     		ldr	r7, [sp, #12]
 1152 001c D6F83090 		ldr	r9, [r6, #48]
 1153 0020 D6F838A0 		ldr	r10, [r6, #56]
 1154 0024 B56A     		ldr	r5, [r6, #40]
 1155 0026 D6F824E0 		ldr	lr, [r6, #36]
 1156 002a A1EB020C 		sub	ip, r1, r2
 1157 002e C31A     		subs	r3, r0, r3
 1158 0030 B168     		ldr	r1, [r6, #8]
 1159 0032 706B     		ldr	r0, [r6, #52]
 1160 0034 F269     		ldr	r2, [r6, #28]
 1161 0036 A7EB0108 		sub	r8, r7, r1
 1162 003a 83FB0010 		smull	r1, r0, r3, r0
 1163 003e CCFB0910 		smlal	r1, r0, ip, r9
 1164 0042 C8FB0A10 		smlal	r1, r0, r8, r10
 1165 0046 B769     		ldr	r7, [r6, #24]
 1166 0048 F66A     		ldr	r6, [r6, #44]
 1167 004a 090D     		lsrs	r1, r1, #20
 1168 004c 41EA0031 		orr	r1, r1, r0, lsl #12
 1169 0050 83FB0550 		smull	r5, r0, r3, r5
 1170 0054 83FB0223 		smull	r2, r3, r3, r2
 1171 0058 C7FB0C23 		smlal	r2, r3, r7, ip
 1172 005c CCFB0E50 		smlal	r5, r0, ip, lr
 1173 0060 C6FB0850 		smlal	r5, r0, r6, r8
 1174 0064 120D     		lsrs	r2, r2, #20
 1175 0066 42EA0332 		orr	r2, r2, r3, lsl #12
 1176 006a 2B0D     		lsrs	r3, r5, #20
 1177 006c 43EA0033 		orr	r3, r3, r0, lsl #12
 1178 0070 0C48     		ldr	r0, .L56
 1179 0072 9B01     		lsls	r3, r3, #6
 1180 0074 80FB0365 		smull	r6, r5, r0, r3
 1181 0078 DB17     		asrs	r3, r3, #31
 1182 007a C3EBE503 		rsb	r3, r3, r5, asr #3
 1183 007e 9201     		lsls	r2, r2, #6
 1184 0080 8901     		lsls	r1, r1, #6
 1185 0082 2360     		str	r3, [r4]
 1186 0084 80FB0253 		smull	r5, r3, r0, r2
 1187 0088 D217     		asrs	r2, r2, #31
 1188 008a C2EBE302 		rsb	r2, r2, r3, asr #3
 1189 008e 80FB0130 		smull	r3, r0, r0, r1
 1190 0092 C917     		asrs	r1, r1, #31
 1191 0094 A1EBE001 		sub	r1, r1, r0, asr #3
 1192 0098 C4E90121 		strd	r2, r1, [r4, #4]
 1193 009c 04B0     		add	sp, sp, #16
 1194              		@ sp needed
 1195 009e BDE8F087 		pop	{r4, r5, r6, r7, r8, r9, r10, pc}
 1196              	.L57:
ARM GAS  /tmp/ccpoaJl1.s 			page 22


 1197 00a2 00BF     		.align	2
 1198              	.L56:
 1199 00a4 1F85EB51 		.word	1374389535
 1200              		.size	ned_of_lla_pos_i, .-ned_of_lla_pos_i
 1201              		.section	.text.enu_of_lla_vect_i,"ax",%progbits
 1202              		.align	1
 1203              		.p2align 4,,15
 1204              		.global	enu_of_lla_vect_i
 1205              		.syntax unified
 1206              		.thumb
 1207              		.thumb_func
 1208              		.fpu fpv4-sp-d16
 1209              		.type	enu_of_lla_vect_i, %function
 1210              	enu_of_lla_vect_i:
 1211              		@ args = 0, pretend = 0, frame = 16
 1212              		@ frame_needed = 0, uses_anonymous_args = 0
 1213 0000 2DE9F047 		push	{r4, r5, r6, r7, r8, r9, r10, lr}
 1214 0004 0F46     		mov	r7, r1
 1215 0006 84B0     		sub	sp, sp, #16
 1216 0008 0546     		mov	r5, r0
 1217 000a 1146     		mov	r1, r2
 1218 000c 01A8     		add	r0, sp, #4
 1219 000e FFF7FEFF 		bl	ecef_of_lla_i
 1220 0012 B96A     		ldr	r1, [r7, #40]
 1221 0014 029B     		ldr	r3, [sp, #8]
 1222 0016 D7F82490 		ldr	r9, [r7, #36]
 1223 001a 0198     		ldr	r0, [sp, #4]
 1224 001c FA69     		ldr	r2, [r7, #28]
 1225 001e 7C6B     		ldr	r4, [r7, #52]
 1226 0020 D7F830E0 		ldr	lr, [r7, #48]
 1227 0024 BE69     		ldr	r6, [r7, #24]
 1228 0026 D7F82C80 		ldr	r8, [r7, #44]
 1229 002a D7F838C0 		ldr	ip, [r7, #56]
 1230 002e 039F     		ldr	r7, [sp, #12]
 1231 0030 83FB011A 		smull	r1, r10, r3, r1
 1232 0034 C0FB091A 		smlal	r1, r10, r0, r9
 1233 0038 D146     		mov	r9, r10
 1234 003a C8FB0719 		smlal	r1, r9, r8, r7
 1235 003e 090D     		lsrs	r1, r1, #20
 1236 0040 41EA0931 		orr	r1, r1, r9, lsl #12
 1237 0044 6960     		str	r1, [r5, #4]
 1238 0046 83FB0414 		smull	r1, r4, r3, r4
 1239 004a C0FB0E14 		smlal	r1, r4, r0, lr
 1240 004e 83FB0223 		smull	r2, r3, r3, r2
 1241 0052 C7FB0C14 		smlal	r1, r4, r7, ip
 1242 0056 C6FB0023 		smlal	r2, r3, r6, r0
 1243 005a 120D     		lsrs	r2, r2, #20
 1244 005c 090D     		lsrs	r1, r1, #20
 1245 005e 41EA0431 		orr	r1, r1, r4, lsl #12
 1246 0062 42EA0332 		orr	r2, r2, r3, lsl #12
 1247 0066 A960     		str	r1, [r5, #8]
 1248 0068 2A60     		str	r2, [r5]
 1249 006a 04B0     		add	sp, sp, #16
 1250              		@ sp needed
 1251 006c BDE8F087 		pop	{r4, r5, r6, r7, r8, r9, r10, pc}
 1252              		.size	enu_of_lla_vect_i, .-enu_of_lla_vect_i
 1253              		.section	.text.ned_of_lla_vect_i,"ax",%progbits
ARM GAS  /tmp/ccpoaJl1.s 			page 23


 1254              		.align	1
 1255              		.p2align 4,,15
 1256              		.global	ned_of_lla_vect_i
 1257              		.syntax unified
 1258              		.thumb
 1259              		.thumb_func
 1260              		.fpu fpv4-sp-d16
 1261              		.type	ned_of_lla_vect_i, %function
 1262              	ned_of_lla_vect_i:
 1263              		@ args = 0, pretend = 0, frame = 24
 1264              		@ frame_needed = 0, uses_anonymous_args = 0
 1265 0000 2DE9F041 		push	{r4, r5, r6, r7, r8, lr}
 1266 0004 86B0     		sub	sp, sp, #24
 1267 0006 0D46     		mov	r5, r1
 1268 0008 0646     		mov	r6, r0
 1269 000a 1146     		mov	r1, r2
 1270 000c 03A8     		add	r0, sp, #12
 1271 000e FFF7FEFF 		bl	ecef_of_lla_i
 1272 0012 DDE90372 		ldrd	r7, r2, [sp, #12]
 1273 0016 A96B     		ldr	r1, [r5, #56]
 1274 0018 6B6B     		ldr	r3, [r5, #52]
 1275 001a 0191     		str	r1, [sp, #4]
 1276 001c 296B     		ldr	r1, [r5, #48]
 1277 001e DDF814C0 		ldr	ip, [sp, #20]
 1278 0022 AC6A     		ldr	r4, [r5, #40]
 1279 0024 E869     		ldr	r0, [r5, #28]
 1280 0026 D5F824E0 		ldr	lr, [r5, #36]
 1281 002a 82FB0338 		smull	r3, r8, r2, r3
 1282 002e C7FB0138 		smlal	r3, r8, r7, r1
 1283 0032 0199     		ldr	r1, [sp, #4]
 1284 0034 CCFB0138 		smlal	r3, r8, ip, r1
 1285 0038 1B0D     		lsrs	r3, r3, #20
 1286 003a 43EA0833 		orr	r3, r3, r8, lsl #12
 1287 003e 5B42     		rsbs	r3, r3, #0
 1288 0040 D5F81880 		ldr	r8, [r5, #24]
 1289 0044 ED6A     		ldr	r5, [r5, #44]
 1290 0046 B360     		str	r3, [r6, #8]
 1291 0048 82FB0414 		smull	r1, r4, r2, r4
 1292 004c C7FB0E14 		smlal	r1, r4, r7, lr
 1293 0050 82FB0030 		smull	r3, r0, r2, r0
 1294 0054 C5FB0C14 		smlal	r1, r4, r5, ip
 1295 0058 C8FB0730 		smlal	r3, r0, r8, r7
 1296 005c 1B0D     		lsrs	r3, r3, #20
 1297 005e 090D     		lsrs	r1, r1, #20
 1298 0060 41EA0431 		orr	r1, r1, r4, lsl #12
 1299 0064 43EA0033 		orr	r3, r3, r0, lsl #12
 1300 0068 C6E90013 		strd	r1, r3, [r6]
 1301 006c 06B0     		add	sp, sp, #24
 1302              		@ sp needed
 1303 006e BDE8F081 		pop	{r4, r5, r6, r7, r8, pc}
 1304              		.size	ned_of_lla_vect_i, .-ned_of_lla_vect_i
 1305 0072 00BF     		.section	.text.utm_of_lla_i,"ax",%progbits
 1306              		.align	1
 1307              		.p2align 4,,15
 1308              		.global	utm_of_lla_i
 1309              		.syntax unified
 1310              		.thumb
ARM GAS  /tmp/ccpoaJl1.s 			page 24


 1311              		.thumb_func
 1312              		.fpu fpv4-sp-d16
 1313              		.type	utm_of_lla_i, %function
 1314              	utm_of_lla_i:
 1315              		@ args = 0, pretend = 0, frame = 56
 1316              		@ frame_needed = 0, uses_anonymous_args = 0
 1317 0000 F0B5     		push	{r4, r5, r6, r7, lr}
 1318 0002 0446     		mov	r4, r0
 1319 0004 8FB0     		sub	sp, sp, #60
 1320 0006 0868     		ldr	r0, [r1]
 1321 0008 0D46     		mov	r5, r1
 1322 000a FFF7FEFF 		bl	__aeabi_i2d
 1323 000e 2AA3     		adr	r3, .L64+8
 1324 0010 D3E90023 		ldrd	r2, [r3]
 1325 0014 FFF7FEFF 		bl	__aeabi_dmul
 1326 0018 29A3     		adr	r3, .L64+16
 1327 001a D3E90023 		ldrd	r2, [r3]
 1328 001e FFF7FEFF 		bl	__aeabi_ddiv
 1329 0022 0246     		mov	r2, r0
 1330 0024 0B46     		mov	r3, r1
 1331 0026 6868     		ldr	r0, [r5, #4]
 1332 0028 CDE90023 		strd	r2, [sp]
 1333 002c FFF7FEFF 		bl	__aeabi_i2d
 1334 0030 21A3     		adr	r3, .L64+8
 1335 0032 D3E90023 		ldrd	r2, [r3]
 1336 0036 FFF7FEFF 		bl	__aeabi_dmul
 1337 003a 21A3     		adr	r3, .L64+16
 1338 003c D3E90023 		ldrd	r2, [r3]
 1339 0040 FFF7FEFF 		bl	__aeabi_ddiv
 1340 0044 0246     		mov	r2, r0
 1341 0046 0B46     		mov	r3, r1
 1342 0048 A868     		ldr	r0, [r5, #8]
 1343 004a CDE90223 		strd	r2, [sp, #8]
 1344 004e FFF7FEFF 		bl	__aeabi_i2d
 1345 0052 0022     		movs	r2, #0
 1346 0054 164B     		ldr	r3, .L64
 1347 0056 FFF7FEFF 		bl	__aeabi_ddiv
 1348 005a 237B     		ldrb	r3, [r4, #12]	@ zero_extendqisi2
 1349 005c 8DF83030 		strb	r3, [sp, #48]
 1350 0060 0646     		mov	r6, r0
 1351 0062 0F46     		mov	r7, r1
 1352 0064 06A8     		add	r0, sp, #24
 1353 0066 6946     		mov	r1, sp
 1354 0068 CDE90467 		strd	r6, [sp, #16]
 1355 006c FFF7FEFF 		bl	utm_of_lla_d
 1356 0070 104B     		ldr	r3, .L64+4
 1357 0072 0022     		movs	r2, #0
 1358 0074 DDE90801 		ldrd	r0, [sp, #32]
 1359 0078 FFF7FEFF 		bl	__aeabi_dmul
 1360 007c FFF7FEFF 		bl	__aeabi_d2iz
 1361 0080 0C4B     		ldr	r3, .L64+4
 1362 0082 6060     		str	r0, [r4, #4]
 1363 0084 0022     		movs	r2, #0
 1364 0086 DDE90601 		ldrd	r0, [sp, #24]
 1365 008a FFF7FEFF 		bl	__aeabi_dmul
 1366 008e FFF7FEFF 		bl	__aeabi_d2iz
 1367 0092 074B     		ldr	r3, .L64
ARM GAS  /tmp/ccpoaJl1.s 			page 25


 1368 0094 2060     		str	r0, [r4]
 1369 0096 0022     		movs	r2, #0
 1370 0098 DDE90A01 		ldrd	r0, [sp, #40]
 1371 009c FFF7FEFF 		bl	__aeabi_dmul
 1372 00a0 FFF7FEFF 		bl	__aeabi_d2iz
 1373 00a4 9DF83030 		ldrb	r3, [sp, #48]	@ zero_extendqisi2
 1374 00a8 A060     		str	r0, [r4, #8]
 1375 00aa 2373     		strb	r3, [r4, #12]
 1376 00ac 0FB0     		add	sp, sp, #60
 1377              		@ sp needed
 1378 00ae F0BD     		pop	{r4, r5, r6, r7, pc}
 1379              	.L65:
 1380              		.align	3
 1381              	.L64:
 1382 00b0 00408F40 		.word	1083129856
 1383 00b4 00005940 		.word	1079574528
 1384 00b8 399D52A2 		.word	-1571644103
 1385 00bc 46DF913F 		.word	1066524486
 1386 00c0 00000000 		.word	0
 1387 00c4 D0126341 		.word	1097011920
 1388              		.size	utm_of_lla_i, .-utm_of_lla_i
 1389              		.section	.text.lla_of_utm_i,"ax",%progbits
 1390              		.align	1
 1391              		.p2align 4,,15
 1392              		.global	lla_of_utm_i
 1393              		.syntax unified
 1394              		.thumb
 1395              		.thumb_func
 1396              		.fpu fpv4-sp-d16
 1397              		.type	lla_of_utm_i, %function
 1398              	lla_of_utm_i:
 1399              		@ args = 0, pretend = 0, frame = 56
 1400              		@ frame_needed = 0, uses_anonymous_args = 0
 1401 0000 F0B5     		push	{r4, r5, r6, r7, lr}
 1402 0002 0546     		mov	r5, r0
 1403 0004 8FB0     		sub	sp, sp, #60
 1404 0006 4868     		ldr	r0, [r1, #4]
 1405 0008 0C46     		mov	r4, r1
 1406 000a FFF7FEFF 		bl	__aeabi_i2d
 1407 000e 2C4B     		ldr	r3, .L68+16
 1408 0010 0022     		movs	r2, #0
 1409 0012 FFF7FEFF 		bl	__aeabi_ddiv
 1410 0016 0246     		mov	r2, r0
 1411 0018 0B46     		mov	r3, r1
 1412 001a 2068     		ldr	r0, [r4]
 1413 001c CDE90823 		strd	r2, [sp, #32]
 1414 0020 FFF7FEFF 		bl	__aeabi_i2d
 1415 0024 264B     		ldr	r3, .L68+16
 1416 0026 0022     		movs	r2, #0
 1417 0028 FFF7FEFF 		bl	__aeabi_ddiv
 1418 002c 0246     		mov	r2, r0
 1419 002e 0B46     		mov	r3, r1
 1420 0030 A068     		ldr	r0, [r4, #8]
 1421 0032 CDE90623 		strd	r2, [sp, #24]
 1422 0036 FFF7FEFF 		bl	__aeabi_i2d
 1423 003a 0022     		movs	r2, #0
 1424 003c 214B     		ldr	r3, .L68+20
ARM GAS  /tmp/ccpoaJl1.s 			page 26


 1425 003e FFF7FEFF 		bl	__aeabi_ddiv
 1426 0042 237B     		ldrb	r3, [r4, #12]	@ zero_extendqisi2
 1427 0044 8DF83030 		strb	r3, [sp, #48]
 1428 0048 0646     		mov	r6, r0
 1429 004a 0F46     		mov	r7, r1
 1430 004c 6846     		mov	r0, sp
 1431 004e 06A9     		add	r1, sp, #24
 1432 0050 CDE90A67 		strd	r6, [sp, #40]
 1433 0054 FFF7FEFF 		bl	lla_of_utm_d
 1434 0058 15A3     		adr	r3, .L68
 1435 005a D3E90023 		ldrd	r2, [r3]
 1436 005e DDE90001 		ldrd	r0, [sp]
 1437 0062 FFF7FEFF 		bl	__aeabi_dmul
 1438 0066 14A3     		adr	r3, .L68+8
 1439 0068 D3E90023 		ldrd	r2, [r3]
 1440 006c FFF7FEFF 		bl	__aeabi_dmul
 1441 0070 FFF7FEFF 		bl	__aeabi_d2iz
 1442 0074 0EA3     		adr	r3, .L68
 1443 0076 D3E90023 		ldrd	r2, [r3]
 1444 007a 2860     		str	r0, [r5]
 1445 007c DDE90201 		ldrd	r0, [sp, #8]
 1446 0080 FFF7FEFF 		bl	__aeabi_dmul
 1447 0084 0CA3     		adr	r3, .L68+8
 1448 0086 D3E90023 		ldrd	r2, [r3]
 1449 008a FFF7FEFF 		bl	__aeabi_dmul
 1450 008e FFF7FEFF 		bl	__aeabi_d2iz
 1451 0092 0C4B     		ldr	r3, .L68+20
 1452 0094 6860     		str	r0, [r5, #4]
 1453 0096 0022     		movs	r2, #0
 1454 0098 DDE90401 		ldrd	r0, [sp, #16]
 1455 009c FFF7FEFF 		bl	__aeabi_dmul
 1456 00a0 FFF7FEFF 		bl	__aeabi_d2iz
 1457 00a4 A860     		str	r0, [r5, #8]
 1458 00a6 0FB0     		add	sp, sp, #60
 1459              		@ sp needed
 1460 00a8 F0BD     		pop	{r4, r5, r6, r7, pc}
 1461              	.L69:
 1462 00aa 00BFAFF3 		.align	3
 1462      0080
 1463              	.L68:
 1464 00b0 F8C1631A 		.word	442745336
 1465 00b4 DCA54C40 		.word	1078765020
 1466 00b8 00000000 		.word	0
 1467 00bc D0126341 		.word	1097011920
 1468 00c0 00005940 		.word	1079574528
 1469 00c4 00408F40 		.word	1083129856
 1470              		.size	lla_of_utm_i, .-lla_of_utm_i
 1471              		.ident	"GCC: (15:10.3-2021.07-4) 10.3.1 20210621 (release)"
ARM GAS  /tmp/ccpoaJl1.s 			page 27

