ARM GAS  /tmp/cczJEq9f.s 			page 1


   1              		.cpu cortex-m4
   2              		.eabi_attribute 27, 1
   3              		.eabi_attribute 20, 1
   4              		.eabi_attribute 21, 1
   5              		.eabi_attribute 23, 3
   6              		.eabi_attribute 24, 1
   7              		.eabi_attribute 25, 1
   8              		.eabi_attribute 26, 1
   9              		.eabi_attribute 30, 2
  10              		.eabi_attribute 34, 1
  11              		.eabi_attribute 18, 4
  12              		.file	"pprz_geodetic_double.c"
  13              		.text
  14              		.global	__aeabi_dmul
  15              		.global	__aeabi_dadd
  16              		.global	__aeabi_dsub
  17              		.global	__aeabi_ddiv
  18              		.section	.text.lla_of_ecef_d,"ax",%progbits
  19              		.align	1
  20              		.p2align 4,,15
  21              		.global	lla_of_ecef_d
  22              		.arch armv7e-m
  23              		.syntax unified
  24              		.thumb
  25              		.thumb_func
  26              		.fpu fpv4-sp-d16
  27              		.type	lla_of_ecef_d, %function
  28              	lla_of_ecef_d:
  29              		@ args = 0, pretend = 0, frame = 0
  30              		@ frame_needed = 0, uses_anonymous_args = 0
  31 0000 2DE9F84F 		push	{r3, r4, r5, r6, r7, r8, r9, r10, fp, lr}
  32 0004 D1E90423 		ldrd	r2, [r1, #16]
  33 0008 2DED0A8B 		vpush.64	{d8, d9, d10, d11, d12}
  34 000c 8A46     		mov	r10, r1
  35 000e 8346     		mov	fp, r0
  36 0010 1946     		mov	r1, r3
  37 0012 1046     		mov	r0, r2
  38 0014 FFF7FEFF 		bl	__aeabi_dmul
  39 0018 DAE90023 		ldrd	r2, [r10]
  40 001c 41EC180B 		vmov	d8, r0, r1
  41 0020 1046     		mov	r0, r2
  42 0022 1946     		mov	r1, r3
  43 0024 FFF7FEFF 		bl	__aeabi_dmul
  44 0028 DAE90267 		ldrd	r6, [r10, #8]
  45 002c 0446     		mov	r4, r0
  46 002e 0D46     		mov	r5, r1
  47 0030 3246     		mov	r2, r6
  48 0032 3B46     		mov	r3, r7
  49 0034 3046     		mov	r0, r6
  50 0036 3946     		mov	r1, r7
  51 0038 FFF7FEFF 		bl	__aeabi_dmul
  52 003c 0246     		mov	r2, r0
  53 003e 0B46     		mov	r3, r1
  54 0040 2046     		mov	r0, r4
  55 0042 2946     		mov	r1, r5
  56 0044 FFF7FEFF 		bl	__aeabi_dadd
  57 0048 0246     		mov	r2, r0
ARM GAS  /tmp/cczJEq9f.s 			page 2


  58 004a 0B46     		mov	r3, r1
  59 004c 43EC1A2B 		vmov	d10, r2, r3
  60 0050 FFF7FEFF 		bl	sqrt
  61 0054 C9A3     		adr	r3, .L4+76
  62 0056 D3E90023 		ldrd	r2, [r3]
  63 005a 41EC190B 		vmov	d9, r0, r1
  64 005e 51EC180B 		vmov	r0, r1, d8
  65 0062 FFF7FEFF 		bl	__aeabi_dmul
  66 0066 B8A3     		adr	r3, .L4+24
  67 0068 D3E90023 		ldrd	r2, [r3]
  68 006c 41EC1B0B 		vmov	d11, r0, r1
  69 0070 51EC180B 		vmov	r0, r1, d8
  70 0074 FFF7FEFF 		bl	__aeabi_dmul
  71 0078 0246     		mov	r2, r0
  72 007a 0B46     		mov	r3, r1
  73 007c 43EC1C2B 		vmov	d12, r2, r3
  74 0080 53EC1A2B 		vmov	r2, r3, d10
  75 0084 FFF7FEFF 		bl	__aeabi_dadd
  76 0088 BEA3     		adr	r3, .L4+84
  77 008a D3E90023 		ldrd	r2, [r3]
  78 008e FFF7FEFF 		bl	__aeabi_dsub
  79 0092 BEA3     		adr	r3, .L4+92
  80 0094 D3E90023 		ldrd	r2, [r3]
  81 0098 0446     		mov	r4, r0
  82 009a 0D46     		mov	r5, r1
  83 009c 51EC1B0B 		vmov	r0, r1, d11
  84 00a0 FFF7FEFF 		bl	__aeabi_dmul
  85 00a4 53EC1A2B 		vmov	r2, r3, d10
  86 00a8 FFF7FEFF 		bl	__aeabi_dmul
  87 00ac 2246     		mov	r2, r4
  88 00ae 0646     		mov	r6, r0
  89 00b0 0F46     		mov	r7, r1
  90 00b2 2B46     		mov	r3, r5
  91 00b4 2046     		mov	r0, r4
  92 00b6 2946     		mov	r1, r5
  93 00b8 FFF7FEFF 		bl	__aeabi_dmul
  94 00bc 2246     		mov	r2, r4
  95 00be 2B46     		mov	r3, r5
  96 00c0 FFF7FEFF 		bl	__aeabi_dmul
  97 00c4 0246     		mov	r2, r0
  98 00c6 0B46     		mov	r3, r1
  99 00c8 3046     		mov	r0, r6
 100 00ca 3946     		mov	r1, r7
 101 00cc FFF7FEFF 		bl	__aeabi_ddiv
 102 00d0 0246     		mov	r2, r0
 103 00d2 0B46     		mov	r3, r1
 104 00d4 0646     		mov	r6, r0
 105 00d6 0F46     		mov	r7, r1
 106 00d8 FFF7FEFF 		bl	__aeabi_dmul
 107 00dc 3246     		mov	r2, r6
 108 00de 8046     		mov	r8, r0
 109 00e0 8946     		mov	r9, r1
 110 00e2 3B46     		mov	r3, r7
 111 00e4 3046     		mov	r0, r6
 112 00e6 3946     		mov	r1, r7
 113 00e8 FFF7FEFF 		bl	__aeabi_dadd
 114 00ec 0246     		mov	r2, r0
ARM GAS  /tmp/cczJEq9f.s 			page 3


 115 00ee 0B46     		mov	r3, r1
 116 00f0 4046     		mov	r0, r8
 117 00f2 4946     		mov	r1, r9
 118 00f4 FFF7FEFF 		bl	__aeabi_dadd
 119 00f8 FFF7FEFF 		bl	sqrt
 120 00fc 0246     		mov	r2, r0
 121 00fe 0B46     		mov	r3, r1
 122 0100 3046     		mov	r0, r6
 123 0102 3946     		mov	r1, r7
 124 0104 1646     		mov	r6, r2
 125 0106 1F46     		mov	r7, r3
 126 0108 0022     		movs	r2, #0
 127 010a 994B     		ldr	r3, .L4+64
 128 010c FFF7FEFF 		bl	__aeabi_dadd
 129 0110 3246     		mov	r2, r6
 130 0112 3B46     		mov	r3, r7
 131 0114 FFF7FEFF 		bl	__aeabi_dadd
 132 0118 85A3     		adr	r3, .L4
 133 011a D3E90023 		ldrd	r2, [r3]
 134 011e FFF7FEFF 		bl	pow
 135 0122 934B     		ldr	r3, .L4+64
 136 0124 0022     		movs	r2, #0
 137 0126 8046     		mov	r8, r0
 138 0128 8946     		mov	r9, r1
 139 012a FFF7FEFF 		bl	__aeabi_dadd
 140 012e 4246     		mov	r2, r8
 141 0130 4B46     		mov	r3, r9
 142 0132 0646     		mov	r6, r0
 143 0134 0F46     		mov	r7, r1
 144 0136 0020     		movs	r0, #0
 145 0138 8D49     		ldr	r1, .L4+64
 146 013a FFF7FEFF 		bl	__aeabi_ddiv
 147 013e 0246     		mov	r2, r0
 148 0140 0B46     		mov	r3, r1
 149 0142 3046     		mov	r0, r6
 150 0144 3946     		mov	r1, r7
 151 0146 FFF7FEFF 		bl	__aeabi_dadd
 152 014a 8A4B     		ldr	r3, .L4+68
 153 014c 0646     		mov	r6, r0
 154 014e 0F46     		mov	r7, r1
 155 0150 0022     		movs	r2, #0
 156 0152 FFF7FEFF 		bl	__aeabi_dmul
 157 0156 3246     		mov	r2, r6
 158 0158 3B46     		mov	r3, r7
 159 015a FFF7FEFF 		bl	__aeabi_dmul
 160 015e 2246     		mov	r2, r4
 161 0160 2B46     		mov	r3, r5
 162 0162 FFF7FEFF 		bl	__aeabi_dmul
 163 0166 2246     		mov	r2, r4
 164 0168 2B46     		mov	r3, r5
 165 016a FFF7FEFF 		bl	__aeabi_dmul
 166 016e 0246     		mov	r2, r0
 167 0170 0B46     		mov	r3, r1
 168 0172 51EC1B0B 		vmov	r0, r1, d11
 169 0176 FFF7FEFF 		bl	__aeabi_ddiv
 170 017a 6FA3     		adr	r3, .L4+8
 171 017c D3E90023 		ldrd	r2, [r3]
ARM GAS  /tmp/cczJEq9f.s 			page 4


 172 0180 8046     		mov	r8, r0
 173 0182 8946     		mov	r9, r1
 174 0184 FFF7FEFF 		bl	__aeabi_dmul
 175 0188 794B     		ldr	r3, .L4+64
 176 018a 0022     		movs	r2, #0
 177 018c FFF7FEFF 		bl	__aeabi_dadd
 178 0190 FFF7FEFF 		bl	sqrt
 179 0194 764B     		ldr	r3, .L4+64
 180 0196 0022     		movs	r2, #0
 181 0198 0446     		mov	r4, r0
 182 019a 0D46     		mov	r5, r1
 183 019c FFF7FEFF 		bl	__aeabi_dadd
 184 01a0 2246     		mov	r2, r4
 185 01a2 0646     		mov	r6, r0
 186 01a4 0F46     		mov	r7, r1
 187 01a6 2B46     		mov	r3, r5
 188 01a8 7149     		ldr	r1, .L4+64
 189 01aa 0020     		movs	r0, #0
 190 01ac FFF7FEFF 		bl	__aeabi_ddiv
 191 01b0 6F4B     		ldr	r3, .L4+64
 192 01b2 0022     		movs	r2, #0
 193 01b4 FFF7FEFF 		bl	__aeabi_dadd
 194 01b8 61A3     		adr	r3, .L4+16
 195 01ba D3E90023 		ldrd	r2, [r3]
 196 01be FFF7FEFF 		bl	__aeabi_dmul
 197 01c2 61A3     		adr	r3, .L4+24
 198 01c4 D3E90023 		ldrd	r2, [r3]
 199 01c8 41EC1B0B 		vmov	d11, r0, r1
 200 01cc 4046     		mov	r0, r8
 201 01ce 4946     		mov	r1, r9
 202 01d0 FFF7FEFF 		bl	__aeabi_dmul
 203 01d4 53EC182B 		vmov	r2, r3, d8
 204 01d8 FFF7FEFF 		bl	__aeabi_dmul
 205 01dc 2246     		mov	r2, r4
 206 01de 2B46     		mov	r3, r5
 207 01e0 0446     		mov	r4, r0
 208 01e2 0D46     		mov	r5, r1
 209 01e4 3046     		mov	r0, r6
 210 01e6 3946     		mov	r1, r7
 211 01e8 FFF7FEFF 		bl	__aeabi_dmul
 212 01ec 0246     		mov	r2, r0
 213 01ee 0B46     		mov	r3, r1
 214 01f0 2046     		mov	r0, r4
 215 01f2 2946     		mov	r1, r5
 216 01f4 FFF7FEFF 		bl	__aeabi_ddiv
 217 01f8 0246     		mov	r2, r0
 218 01fa 0B46     		mov	r3, r1
 219 01fc 51EC1B0B 		vmov	r0, r1, d11
 220 0200 FFF7FEFF 		bl	__aeabi_dsub
 221 0204 4246     		mov	r2, r8
 222 0206 0446     		mov	r4, r0
 223 0208 0D46     		mov	r5, r1
 224 020a 4B46     		mov	r3, r9
 225 020c 51EC1A0B 		vmov	r0, r1, d10
 226 0210 FFF7FEFF 		bl	__aeabi_dmul
 227 0214 584B     		ldr	r3, .L4+72
 228 0216 0022     		movs	r2, #0
ARM GAS  /tmp/cczJEq9f.s 			page 5


 229 0218 FFF7FEFF 		bl	__aeabi_dmul
 230 021c 0246     		mov	r2, r0
 231 021e 0B46     		mov	r3, r1
 232 0220 2046     		mov	r0, r4
 233 0222 2946     		mov	r1, r5
 234 0224 FFF7FEFF 		bl	__aeabi_dsub
 235 0228 FFF7FEFF 		bl	sqrt
 236 022c 48A3     		adr	r3, .L4+32
 237 022e D3E90023 		ldrd	r2, [r3]
 238 0232 0446     		mov	r4, r0
 239 0234 0D46     		mov	r5, r1
 240 0236 4046     		mov	r0, r8
 241 0238 4946     		mov	r1, r9
 242 023a FFF7FEFF 		bl	__aeabi_dmul
 243 023e 53EC192B 		vmov	r2, r3, d9
 244 0242 FFF7FEFF 		bl	__aeabi_dmul
 245 0246 3B46     		mov	r3, r7
 246 0248 01F10047 		add	r7, r1, #-2147483648
 247 024c 3246     		mov	r2, r6
 248 024e 3946     		mov	r1, r7
 249 0250 FFF7FEFF 		bl	__aeabi_ddiv
 250 0254 2246     		mov	r2, r4
 251 0256 2B46     		mov	r3, r5
 252 0258 FFF7FEFF 		bl	__aeabi_dadd
 253 025c 3CA3     		adr	r3, .L4+32
 254 025e D3E90023 		ldrd	r2, [r3]
 255 0262 FFF7FEFF 		bl	__aeabi_dmul
 256 0266 0246     		mov	r2, r0
 257 0268 0B46     		mov	r3, r1
 258 026a 51EC190B 		vmov	r0, r1, d9
 259 026e FFF7FEFF 		bl	__aeabi_dsub
 260 0272 0246     		mov	r2, r0
 261 0274 0B46     		mov	r3, r1
 262 0276 FFF7FEFF 		bl	__aeabi_dmul
 263 027a 0446     		mov	r4, r0
 264 027c 0D46     		mov	r5, r1
 265 027e 2246     		mov	r2, r4
 266 0280 2B46     		mov	r3, r5
 267 0282 51EC180B 		vmov	r0, r1, d8
 268 0286 FFF7FEFF 		bl	__aeabi_dadd
 269 028a FFF7FEFF 		bl	sqrt
 270 028e 2246     		mov	r2, r4
 271 0290 2B46     		mov	r3, r5
 272 0292 0646     		mov	r6, r0
 273 0294 0F46     		mov	r7, r1
 274 0296 51EC1C0B 		vmov	r0, r1, d12
 275 029a FFF7FEFF 		bl	__aeabi_dadd
 276 029e FFF7FEFF 		bl	sqrt
 277 02a2 2DA3     		adr	r3, .L4+40
 278 02a4 D3E90023 		ldrd	r2, [r3]
 279 02a8 FFF7FEFF 		bl	__aeabi_dmul
 280 02ac 0446     		mov	r4, r0
 281 02ae 0D46     		mov	r5, r1
 282 02b0 2246     		mov	r2, r4
 283 02b2 2B46     		mov	r3, r5
 284 02b4 2AA1     		adr	r1, .L4+48
 285 02b6 D1E90001 		ldrd	r0, [r1]
ARM GAS  /tmp/cczJEq9f.s 			page 6


 286 02ba FFF7FEFF 		bl	__aeabi_ddiv
 287 02be 0246     		mov	r2, r0
 288 02c0 0B46     		mov	r3, r1
 289 02c2 0020     		movs	r0, #0
 290 02c4 2A49     		ldr	r1, .L4+64
 291 02c6 FFF7FEFF 		bl	__aeabi_dsub
 292 02ca 3246     		mov	r2, r6
 293 02cc 3B46     		mov	r3, r7
 294 02ce FFF7FEFF 		bl	__aeabi_dmul
 295 02d2 DAE90467 		ldrd	r6, [r10, #16]
 296 02d6 22A3     		adr	r3, .L4+48
 297 02d8 D3E90023 		ldrd	r2, [r3]
 298 02dc CBE90401 		strd	r0, [fp, #16]
 299 02e0 3046     		mov	r0, r6
 300 02e2 3946     		mov	r1, r7
 301 02e4 FFF7FEFF 		bl	__aeabi_dmul
 302 02e8 2246     		mov	r2, r4
 303 02ea 2B46     		mov	r3, r5
 304 02ec FFF7FEFF 		bl	__aeabi_ddiv
 305 02f0 1DA3     		adr	r3, .L4+56
 306 02f2 D3E90023 		ldrd	r2, [r3]
 307 02f6 FFF7FEFF 		bl	__aeabi_dmul
 308 02fa 3246     		mov	r2, r6
 309 02fc 3B46     		mov	r3, r7
 310 02fe FFF7FEFF 		bl	__aeabi_dadd
 311 0302 53EC192B 		vmov	r2, r3, d9
 312 0306 FFF7FEFF 		bl	__aeabi_ddiv
 313 030a FFF7FEFF 		bl	atan
 314 030e DAE90023 		ldrd	r2, [r10]
 315 0312 CBE90001 		strd	r0, [fp]
 316 0316 DAE90201 		ldrd	r0, [r10, #8]
 317 031a FFF7FEFF 		bl	atan2
 318 031e BDEC0A8B 		vldm	sp!, {d8-d12}
 319 0322 CBE90201 		strd	r0, [fp, #8]
 320 0326 BDE8F88F 		pop	{r3, r4, r5, r6, r7, r8, r9, r10, fp, pc}
 321              	.L5:
 322 032a 00BFAFF3 		.align	3
 322      0080
 323              	.L4:
 324 0330 55555555 		.word	1431655765
 325 0334 5555D53F 		.word	1070945621
 326 0338 F27A402C 		.word	742423282
 327 033c EE7E173F 		.word	1058504430
 328 0340 80B82F4C 		.word	1278195840
 329 0344 D97FB242 		.word	1118994393
 330 0348 D6021CDE 		.word	-568589610
 331 034c 28C9EF3F 		.word	1072679208
 332 0350 F094FEF1 		.word	-234973968
 333 0354 906B7B3F 		.word	1065053072
 334 0358 00000040 		.word	1073741824
 335 035c A6545841 		.word	1096307878
 336 0360 B98AEB2E 		.word	787188409
 337 0364 2560C242 		.word	1120034853
 338 0368 D2DC97E1 		.word	-510141230
 339 036c DF9A7B3F 		.word	1065065183
 340 0370 0000F03F 		.word	1072693248
 341 0374 00000840 		.word	1074266112
ARM GAS  /tmp/cczJEq9f.s 			page 7


 342 0378 0000E03F 		.word	1071644672
 343 037c 187A2DBF 		.word	-1087538664
 344 0380 3E021F43 		.word	1126105662
 345 0384 6801A78D 		.word	-1918434968
 346 0388 8A2ADB41 		.word	1104882314
 347 038c F27A402C 		.word	742423282
 348 0390 EE7E073F 		.word	1057455854
 349              		.size	lla_of_ecef_d, .-lla_of_ecef_d
 350              		.section	.text.ltp_def_from_ecef_d,"ax",%progbits
 351              		.align	1
 352              		.p2align 4,,15
 353              		.global	ltp_def_from_ecef_d
 354              		.syntax unified
 355              		.thumb
 356              		.thumb_func
 357              		.fpu fpv4-sp-d16
 358              		.type	ltp_def_from_ecef_d, %function
 359              	ltp_def_from_ecef_d:
 360              		@ args = 0, pretend = 0, frame = 8
 361              		@ frame_needed = 0, uses_anonymous_args = 0
 362 0000 2DE9D04F 		push	{r4, r6, r7, r8, r9, r10, fp, lr}
 363 0004 D1E90067 		ldrd	r6, [r1]
 364 0008 0B46     		mov	r3, r1
 365 000a 2DED028B 		vpush.64	{d8}
 366 000e C0E90067 		strd	r6, [r0]
 367 0012 D3E90267 		ldrd	r6, [r3, #8]
 368 0016 D3E90423 		ldrd	r2, [r3, #16]
 369 001a 0446     		mov	r4, r0
 370 001c 82B0     		sub	sp, sp, #8
 371 001e C0E90267 		strd	r6, [r0, #8]
 372 0022 0146     		mov	r1, r0
 373 0024 C4E90423 		strd	r2, [r4, #16]
 374 0028 1830     		adds	r0, r0, #24
 375 002a FFF7FEFF 		bl	lla_of_ecef_d
 376 002e D4E90667 		ldrd	r6, [r4, #24]
 377 0032 3046     		mov	r0, r6
 378 0034 3946     		mov	r1, r7
 379 0036 FFF7FEFF 		bl	sin
 380 003a 0246     		mov	r2, r0
 381 003c 0B46     		mov	r3, r1
 382 003e 3046     		mov	r0, r6
 383 0040 3946     		mov	r1, r7
 384 0042 1646     		mov	r6, r2
 385 0044 1F46     		mov	r7, r3
 386 0046 FFF7FEFF 		bl	cos
 387 004a D4E90889 		ldrd	r8, [r4, #32]
 388 004e 41EC180B 		vmov	d8, r0, r1
 389 0052 4046     		mov	r0, r8
 390 0054 4946     		mov	r1, r9
 391 0056 CDE90067 		strd	r6, [sp]
 392 005a FFF7FEFF 		bl	sin
 393 005e B246     		mov	r10, r6
 394 0060 07F1004B 		add	fp, r7, #-2147483648
 395 0064 0646     		mov	r6, r0
 396 0066 0F46     		mov	r7, r1
 397 0068 4046     		mov	r0, r8
 398 006a 4946     		mov	r1, r9
ARM GAS  /tmp/cczJEq9f.s 			page 8


 399 006c FFF7FEFF 		bl	cos
 400 0070 07F10043 		add	r3, r7, #-2147483648
 401 0074 8046     		mov	r8, r0
 402 0076 8946     		mov	r9, r1
 403 0078 6363     		str	r3, [r4, #52]
 404 007a 0022     		movs	r2, #0
 405 007c 0023     		movs	r3, #0
 406 007e C4E91023 		strd	r2, [r4, #64]
 407 0082 C4E90E89 		strd	r8, [r4, #56]
 408 0086 0246     		mov	r2, r0
 409 0088 0B46     		mov	r3, r1
 410 008a 2663     		str	r6, [r4, #48]
 411 008c 5046     		mov	r0, r10
 412 008e 5946     		mov	r1, fp
 413 0090 FFF7FEFF 		bl	__aeabi_dmul
 414 0094 3246     		mov	r2, r6
 415 0096 C4E91201 		strd	r0, [r4, #72]
 416 009a 3B46     		mov	r3, r7
 417 009c 5046     		mov	r0, r10
 418 009e 5946     		mov	r1, fp
 419 00a0 FFF7FEFF 		bl	__aeabi_dmul
 420 00a4 4246     		mov	r2, r8
 421 00a6 4B46     		mov	r3, r9
 422 00a8 59EC188B 		vmov	r8, r9, d8
 423 00ac C4E91401 		strd	r0, [r4, #80]
 424 00b0 84ED168B 		vstr.64	d8, [r4, #88]
 425 00b4 18EE100A 		vmov	r0, s16	@ int
 426 00b8 4946     		mov	r1, r9
 427 00ba FFF7FEFF 		bl	__aeabi_dmul
 428 00be 3246     		mov	r2, r6
 429 00c0 C4E91801 		strd	r0, [r4, #96]
 430 00c4 3B46     		mov	r3, r7
 431 00c6 18EE100A 		vmov	r0, s16	@ int
 432 00ca 4946     		mov	r1, r9
 433 00cc FFF7FEFF 		bl	__aeabi_dmul
 434 00d0 9DED007B 		vldr.64	d7, [sp]
 435 00d4 C4E91A01 		strd	r0, [r4, #104]
 436 00d8 84ED1C7B 		vstr.64	d7, [r4, #112]
 437 00dc 02B0     		add	sp, sp, #8
 438              		@ sp needed
 439 00de BDEC028B 		vldm	sp!, {d8}
 440 00e2 BDE8D08F 		pop	{r4, r6, r7, r8, r9, r10, fp, pc}
 441              		.size	ltp_def_from_ecef_d, .-ltp_def_from_ecef_d
 442 00e6 00BF     		.section	.text.ecef_of_lla_d,"ax",%progbits
 443              		.align	1
 444              		.p2align 4,,15
 445              		.global	ecef_of_lla_d
 446              		.syntax unified
 447              		.thumb
 448              		.thumb_func
 449              		.fpu fpv4-sp-d16
 450              		.type	ecef_of_lla_d, %function
 451              	ecef_of_lla_d:
 452              		@ args = 0, pretend = 0, frame = 8
 453              		@ frame_needed = 0, uses_anonymous_args = 0
 454 0000 2DE9F04F 		push	{r4, r5, r6, r7, r8, r9, r10, fp, lr}
 455 0004 2DED048B 		vpush.64	{d8, d9}
ARM GAS  /tmp/cczJEq9f.s 			page 9


 456 0008 D1E90067 		ldrd	r6, [r1]
 457 000c 83B0     		sub	sp, sp, #12
 458 000e 0D46     		mov	r5, r1
 459 0010 0190     		str	r0, [sp, #4]
 460 0012 3946     		mov	r1, r7
 461 0014 3046     		mov	r0, r6
 462 0016 FFF7FEFF 		bl	sin
 463 001a 8246     		mov	r10, r0
 464 001c 8B46     		mov	fp, r1
 465 001e 3046     		mov	r0, r6
 466 0020 3946     		mov	r1, r7
 467 0022 FFF7FEFF 		bl	cos
 468 0026 D5E90289 		ldrd	r8, [r5, #8]
 469 002a 0646     		mov	r6, r0
 470 002c 0F46     		mov	r7, r1
 471 002e 4046     		mov	r0, r8
 472 0030 4946     		mov	r1, r9
 473 0032 FFF7FEFF 		bl	sin
 474 0036 0246     		mov	r2, r0
 475 0038 0B46     		mov	r3, r1
 476 003a 4046     		mov	r0, r8
 477 003c 4946     		mov	r1, r9
 478 003e 43EC192B 		vmov	d9, r2, r3
 479 0042 FFF7FEFF 		bl	cos
 480 0046 2FA3     		adr	r3, .L10+20
 481 0048 D3E90023 		ldrd	r2, [r3]
 482 004c 41EC180B 		vmov	d8, r0, r1
 483 0050 5046     		mov	r0, r10
 484 0052 5946     		mov	r1, fp
 485 0054 FFF7FEFF 		bl	__aeabi_dmul
 486 0058 5246     		mov	r2, r10
 487 005a 5B46     		mov	r3, fp
 488 005c FFF7FEFF 		bl	__aeabi_dmul
 489 0060 0246     		mov	r2, r0
 490 0062 0B46     		mov	r3, r1
 491 0064 0020     		movs	r0, #0
 492 0066 2649     		ldr	r1, .L10+16
 493 0068 FFF7FEFF 		bl	__aeabi_dsub
 494 006c FFF7FEFF 		bl	sqrt
 495 0070 0246     		mov	r2, r0
 496 0072 0B46     		mov	r3, r1
 497 0074 1EA1     		adr	r1, .L10
 498 0076 D1E90001 		ldrd	r0, [r1]
 499 007a FFF7FEFF 		bl	__aeabi_ddiv
 500 007e D5E90445 		ldrd	r4, [r5, #16]
 501 0082 8046     		mov	r8, r0
 502 0084 8946     		mov	r9, r1
 503 0086 0246     		mov	r2, r0
 504 0088 0B46     		mov	r3, r1
 505 008a 2046     		mov	r0, r4
 506 008c 2946     		mov	r1, r5
 507 008e FFF7FEFF 		bl	__aeabi_dadd
 508 0092 3246     		mov	r2, r6
 509 0094 3B46     		mov	r3, r7
 510 0096 FFF7FEFF 		bl	__aeabi_dmul
 511 009a 53EC182B 		vmov	r2, r3, d8
 512 009e 0646     		mov	r6, r0
ARM GAS  /tmp/cczJEq9f.s 			page 10


 513 00a0 0F46     		mov	r7, r1
 514 00a2 FFF7FEFF 		bl	__aeabi_dmul
 515 00a6 019B     		ldr	r3, [sp, #4]
 516 00a8 C3E90001 		strd	r0, [r3]
 517 00ac 53EC192B 		vmov	r2, r3, d9
 518 00b0 3046     		mov	r0, r6
 519 00b2 3946     		mov	r1, r7
 520 00b4 FFF7FEFF 		bl	__aeabi_dmul
 521 00b8 019E     		ldr	r6, [sp, #4]
 522 00ba 0FA3     		adr	r3, .L10+8
 523 00bc D3E90023 		ldrd	r2, [r3]
 524 00c0 C6E90201 		strd	r0, [r6, #8]
 525 00c4 4046     		mov	r0, r8
 526 00c6 4946     		mov	r1, r9
 527 00c8 FFF7FEFF 		bl	__aeabi_dmul
 528 00cc 2246     		mov	r2, r4
 529 00ce 2B46     		mov	r3, r5
 530 00d0 FFF7FEFF 		bl	__aeabi_dadd
 531 00d4 5246     		mov	r2, r10
 532 00d6 5B46     		mov	r3, fp
 533 00d8 FFF7FEFF 		bl	__aeabi_dmul
 534 00dc C6E90401 		strd	r0, [r6, #16]
 535 00e0 03B0     		add	sp, sp, #12
 536              		@ sp needed
 537 00e2 BDEC048B 		vldm	sp!, {d8-d9}
 538 00e6 BDE8F08F 		pop	{r4, r5, r6, r7, r8, r9, r10, fp, pc}
 539              	.L11:
 540 00ea 00BFAFF3 		.align	3
 540      0080
 541              	.L10:
 542 00f0 00000040 		.word	1073741824
 543 00f4 A6545841 		.word	1096307878
 544 00f8 D6021CDE 		.word	-568589610
 545 00fc 28C9EF3F 		.word	1072679208
 546 0100 0000F03F 		.word	1072693248
 547 0104 F094FEF1 		.word	-234973968
 548 0108 906B7B3F 		.word	1065053072
 549              		.size	ecef_of_lla_d, .-ecef_of_lla_d
 550              		.section	.text.ltp_def_from_lla_d,"ax",%progbits
 551              		.align	1
 552              		.p2align 4,,15
 553              		.global	ltp_def_from_lla_d
 554              		.syntax unified
 555              		.thumb
 556              		.thumb_func
 557              		.fpu fpv4-sp-d16
 558              		.type	ltp_def_from_lla_d, %function
 559              	ltp_def_from_lla_d:
 560              		@ args = 0, pretend = 0, frame = 8
 561              		@ frame_needed = 0, uses_anonymous_args = 0
 562 0000 2DE9D04F 		push	{r4, r6, r7, r8, r9, r10, fp, lr}
 563 0004 D1E90023 		ldrd	r2, [r1]
 564 0008 2DED028B 		vpush.64	{d8}
 565 000c C0E90623 		strd	r2, [r0, #24]
 566 0010 D1E90223 		ldrd	r2, [r1, #8]
 567 0014 C0E90823 		strd	r2, [r0, #32]
 568 0018 D1E90423 		ldrd	r2, [r1, #16]
ARM GAS  /tmp/cczJEq9f.s 			page 11


 569 001c 82B0     		sub	sp, sp, #8
 570 001e 0446     		mov	r4, r0
 571 0020 C0E90A23 		strd	r2, [r0, #40]
 572 0024 00F11801 		add	r1, r0, #24
 573 0028 FFF7FEFF 		bl	ecef_of_lla_d
 574 002c D4E90667 		ldrd	r6, [r4, #24]
 575 0030 3046     		mov	r0, r6
 576 0032 3946     		mov	r1, r7
 577 0034 FFF7FEFF 		bl	sin
 578 0038 0246     		mov	r2, r0
 579 003a 0B46     		mov	r3, r1
 580 003c 3046     		mov	r0, r6
 581 003e 3946     		mov	r1, r7
 582 0040 1646     		mov	r6, r2
 583 0042 1F46     		mov	r7, r3
 584 0044 FFF7FEFF 		bl	cos
 585 0048 D4E90889 		ldrd	r8, [r4, #32]
 586 004c 41EC180B 		vmov	d8, r0, r1
 587 0050 4046     		mov	r0, r8
 588 0052 4946     		mov	r1, r9
 589 0054 CDE90067 		strd	r6, [sp]
 590 0058 FFF7FEFF 		bl	sin
 591 005c B246     		mov	r10, r6
 592 005e 07F1004B 		add	fp, r7, #-2147483648
 593 0062 0646     		mov	r6, r0
 594 0064 0F46     		mov	r7, r1
 595 0066 4046     		mov	r0, r8
 596 0068 4946     		mov	r1, r9
 597 006a FFF7FEFF 		bl	cos
 598 006e 07F10043 		add	r3, r7, #-2147483648
 599 0072 8046     		mov	r8, r0
 600 0074 8946     		mov	r9, r1
 601 0076 6363     		str	r3, [r4, #52]
 602 0078 0022     		movs	r2, #0
 603 007a 0023     		movs	r3, #0
 604 007c C4E91023 		strd	r2, [r4, #64]
 605 0080 C4E90E89 		strd	r8, [r4, #56]
 606 0084 0246     		mov	r2, r0
 607 0086 0B46     		mov	r3, r1
 608 0088 2663     		str	r6, [r4, #48]
 609 008a 5046     		mov	r0, r10
 610 008c 5946     		mov	r1, fp
 611 008e FFF7FEFF 		bl	__aeabi_dmul
 612 0092 3246     		mov	r2, r6
 613 0094 C4E91201 		strd	r0, [r4, #72]
 614 0098 3B46     		mov	r3, r7
 615 009a 5046     		mov	r0, r10
 616 009c 5946     		mov	r1, fp
 617 009e FFF7FEFF 		bl	__aeabi_dmul
 618 00a2 4246     		mov	r2, r8
 619 00a4 4B46     		mov	r3, r9
 620 00a6 59EC188B 		vmov	r8, r9, d8
 621 00aa C4E91401 		strd	r0, [r4, #80]
 622 00ae 84ED168B 		vstr.64	d8, [r4, #88]
 623 00b2 18EE100A 		vmov	r0, s16	@ int
 624 00b6 4946     		mov	r1, r9
 625 00b8 FFF7FEFF 		bl	__aeabi_dmul
ARM GAS  /tmp/cczJEq9f.s 			page 12


 626 00bc 3246     		mov	r2, r6
 627 00be C4E91801 		strd	r0, [r4, #96]
 628 00c2 3B46     		mov	r3, r7
 629 00c4 18EE100A 		vmov	r0, s16	@ int
 630 00c8 4946     		mov	r1, r9
 631 00ca FFF7FEFF 		bl	__aeabi_dmul
 632 00ce 9DED007B 		vldr.64	d7, [sp]
 633 00d2 C4E91A01 		strd	r0, [r4, #104]
 634 00d6 84ED1C7B 		vstr.64	d7, [r4, #112]
 635 00da 02B0     		add	sp, sp, #8
 636              		@ sp needed
 637 00dc BDEC028B 		vldm	sp!, {d8}
 638 00e0 BDE8D08F 		pop	{r4, r6, r7, r8, r9, r10, fp, pc}
 639              		.size	ltp_def_from_lla_d, .-ltp_def_from_lla_d
 640              		.section	.text.enu_of_ecef_point_d,"ax",%progbits
 641              		.align	1
 642              		.p2align 4,,15
 643              		.global	enu_of_ecef_point_d
 644              		.syntax unified
 645              		.thumb
 646              		.thumb_func
 647              		.fpu fpv4-sp-d16
 648              		.type	enu_of_ecef_point_d, %function
 649              	enu_of_ecef_point_d:
 650              		@ args = 0, pretend = 0, frame = 0
 651              		@ frame_needed = 0, uses_anonymous_args = 0
 652 0000 2DE9F84F 		push	{r3, r4, r5, r6, r7, r8, r9, r10, fp, lr}
 653 0004 1646     		mov	r6, r2
 654 0006 2DED028B 		vpush.64	{d8}
 655 000a 0C46     		mov	r4, r1
 656 000c D1E90023 		ldrd	r2, [r1]
 657 0010 0546     		mov	r5, r0
 658 0012 D6E90001 		ldrd	r0, [r6]
 659 0016 FFF7FEFF 		bl	__aeabi_dsub
 660 001a D4E90223 		ldrd	r2, [r4, #8]
 661 001e 8046     		mov	r8, r0
 662 0020 8946     		mov	r9, r1
 663 0022 D6E90201 		ldrd	r0, [r6, #8]
 664 0026 FFF7FEFF 		bl	__aeabi_dsub
 665 002a D4E90423 		ldrd	r2, [r4, #16]
 666 002e 8246     		mov	r10, r0
 667 0030 8B46     		mov	fp, r1
 668 0032 D6E90401 		ldrd	r0, [r6, #16]
 669 0036 FFF7FEFF 		bl	__aeabi_dsub
 670 003a D4E90C23 		ldrd	r2, [r4, #48]
 671 003e 41EC180B 		vmov	d8, r0, r1
 672 0042 4046     		mov	r0, r8
 673 0044 4946     		mov	r1, r9
 674 0046 FFF7FEFF 		bl	__aeabi_dmul
 675 004a D4E90E23 		ldrd	r2, [r4, #56]
 676 004e 0646     		mov	r6, r0
 677 0050 0F46     		mov	r7, r1
 678 0052 5046     		mov	r0, r10
 679 0054 5946     		mov	r1, fp
 680 0056 FFF7FEFF 		bl	__aeabi_dmul
 681 005a 0246     		mov	r2, r0
 682 005c 0B46     		mov	r3, r1
ARM GAS  /tmp/cczJEq9f.s 			page 13


 683 005e 3046     		mov	r0, r6
 684 0060 3946     		mov	r1, r7
 685 0062 FFF7FEFF 		bl	__aeabi_dadd
 686 0066 D4E91023 		ldrd	r2, [r4, #64]
 687 006a 0646     		mov	r6, r0
 688 006c 0F46     		mov	r7, r1
 689 006e 51EC180B 		vmov	r0, r1, d8
 690 0072 FFF7FEFF 		bl	__aeabi_dmul
 691 0076 0246     		mov	r2, r0
 692 0078 0B46     		mov	r3, r1
 693 007a 3046     		mov	r0, r6
 694 007c 3946     		mov	r1, r7
 695 007e FFF7FEFF 		bl	__aeabi_dadd
 696 0082 D4E91223 		ldrd	r2, [r4, #72]
 697 0086 C5E90001 		strd	r0, [r5]
 698 008a 4046     		mov	r0, r8
 699 008c 4946     		mov	r1, r9
 700 008e FFF7FEFF 		bl	__aeabi_dmul
 701 0092 D4E91423 		ldrd	r2, [r4, #80]
 702 0096 0646     		mov	r6, r0
 703 0098 0F46     		mov	r7, r1
 704 009a 5046     		mov	r0, r10
 705 009c 5946     		mov	r1, fp
 706 009e FFF7FEFF 		bl	__aeabi_dmul
 707 00a2 0246     		mov	r2, r0
 708 00a4 0B46     		mov	r3, r1
 709 00a6 3046     		mov	r0, r6
 710 00a8 3946     		mov	r1, r7
 711 00aa FFF7FEFF 		bl	__aeabi_dadd
 712 00ae D4E91623 		ldrd	r2, [r4, #88]
 713 00b2 0646     		mov	r6, r0
 714 00b4 0F46     		mov	r7, r1
 715 00b6 51EC180B 		vmov	r0, r1, d8
 716 00ba FFF7FEFF 		bl	__aeabi_dmul
 717 00be 0246     		mov	r2, r0
 718 00c0 0B46     		mov	r3, r1
 719 00c2 3046     		mov	r0, r6
 720 00c4 3946     		mov	r1, r7
 721 00c6 FFF7FEFF 		bl	__aeabi_dadd
 722 00ca D4E91823 		ldrd	r2, [r4, #96]
 723 00ce C5E90201 		strd	r0, [r5, #8]
 724 00d2 4046     		mov	r0, r8
 725 00d4 4946     		mov	r1, r9
 726 00d6 FFF7FEFF 		bl	__aeabi_dmul
 727 00da D4E91A23 		ldrd	r2, [r4, #104]
 728 00de 0646     		mov	r6, r0
 729 00e0 0F46     		mov	r7, r1
 730 00e2 5046     		mov	r0, r10
 731 00e4 5946     		mov	r1, fp
 732 00e6 FFF7FEFF 		bl	__aeabi_dmul
 733 00ea 0246     		mov	r2, r0
 734 00ec 0B46     		mov	r3, r1
 735 00ee 3046     		mov	r0, r6
 736 00f0 3946     		mov	r1, r7
 737 00f2 FFF7FEFF 		bl	__aeabi_dadd
 738 00f6 D4E91C23 		ldrd	r2, [r4, #112]
 739 00fa 0646     		mov	r6, r0
ARM GAS  /tmp/cczJEq9f.s 			page 14


 740 00fc 0F46     		mov	r7, r1
 741 00fe 51EC180B 		vmov	r0, r1, d8
 742 0102 FFF7FEFF 		bl	__aeabi_dmul
 743 0106 0246     		mov	r2, r0
 744 0108 0B46     		mov	r3, r1
 745 010a 3046     		mov	r0, r6
 746 010c 3946     		mov	r1, r7
 747 010e FFF7FEFF 		bl	__aeabi_dadd
 748 0112 BDEC028B 		vldm	sp!, {d8}
 749 0116 C5E90401 		strd	r0, [r5, #16]
 750 011a BDE8F88F 		pop	{r3, r4, r5, r6, r7, r8, r9, r10, fp, pc}
 751              		.size	enu_of_ecef_point_d, .-enu_of_ecef_point_d
 752 011e 00BF     		.section	.text.ned_of_ecef_point_d,"ax",%progbits
 753              		.align	1
 754              		.p2align 4,,15
 755              		.global	ned_of_ecef_point_d
 756              		.syntax unified
 757              		.thumb
 758              		.thumb_func
 759              		.fpu fpv4-sp-d16
 760              		.type	ned_of_ecef_point_d, %function
 761              	ned_of_ecef_point_d:
 762              		@ args = 0, pretend = 0, frame = 24
 763              		@ frame_needed = 0, uses_anonymous_args = 0
 764 0000 10B5     		push	{r4, lr}
 765 0002 86B0     		sub	sp, sp, #24
 766 0004 0446     		mov	r4, r0
 767 0006 6846     		mov	r0, sp
 768 0008 FFF7FEFF 		bl	enu_of_ecef_point_d
 769 000c DDE90201 		ldrd	r0, [sp, #8]
 770 0010 C4E90001 		strd	r0, [r4]
 771 0014 DDE90001 		ldrd	r0, [sp]
 772 0018 C4E90201 		strd	r0, [r4, #8]
 773 001c 0599     		ldr	r1, [sp, #20]
 774 001e 049A     		ldr	r2, [sp, #16]
 775 0020 01F10043 		add	r3, r1, #-2147483648
 776 0024 C4E90423 		strd	r2, [r4, #16]
 777 0028 06B0     		add	sp, sp, #24
 778              		@ sp needed
 779 002a 10BD     		pop	{r4, pc}
 780              		.size	ned_of_ecef_point_d, .-ned_of_ecef_point_d
 781              		.section	.text.enu_of_ecef_vect_d,"ax",%progbits
 782              		.align	1
 783              		.p2align 4,,15
 784              		.global	enu_of_ecef_vect_d
 785              		.syntax unified
 786              		.thumb
 787              		.thumb_func
 788              		.fpu fpv4-sp-d16
 789              		.type	enu_of_ecef_vect_d, %function
 790              	enu_of_ecef_vect_d:
 791              		@ args = 0, pretend = 0, frame = 0
 792              		@ frame_needed = 0, uses_anonymous_args = 0
 793 0000 2DE9F84F 		push	{r3, r4, r5, r6, r7, r8, r9, r10, fp, lr}
 794 0004 D2E90089 		ldrd	r8, [r2]
 795 0008 2DED028B 		vpush.64	{d8}
 796 000c D2E902AB 		ldrd	r10, [r2, #8]
ARM GAS  /tmp/cczJEq9f.s 			page 15


 797 0010 0C46     		mov	r4, r1
 798 0012 92ED048B 		vldr.64	d8, [r2, #16]
 799 0016 0546     		mov	r5, r0
 800 0018 D1E90C23 		ldrd	r2, [r1, #48]
 801 001c 4046     		mov	r0, r8
 802 001e 4946     		mov	r1, r9
 803 0020 FFF7FEFF 		bl	__aeabi_dmul
 804 0024 D4E90E23 		ldrd	r2, [r4, #56]
 805 0028 0646     		mov	r6, r0
 806 002a 0F46     		mov	r7, r1
 807 002c 5046     		mov	r0, r10
 808 002e 5946     		mov	r1, fp
 809 0030 FFF7FEFF 		bl	__aeabi_dmul
 810 0034 0246     		mov	r2, r0
 811 0036 0B46     		mov	r3, r1
 812 0038 3046     		mov	r0, r6
 813 003a 3946     		mov	r1, r7
 814 003c FFF7FEFF 		bl	__aeabi_dadd
 815 0040 D4E91023 		ldrd	r2, [r4, #64]
 816 0044 0646     		mov	r6, r0
 817 0046 0F46     		mov	r7, r1
 818 0048 51EC180B 		vmov	r0, r1, d8
 819 004c FFF7FEFF 		bl	__aeabi_dmul
 820 0050 0246     		mov	r2, r0
 821 0052 0B46     		mov	r3, r1
 822 0054 3046     		mov	r0, r6
 823 0056 3946     		mov	r1, r7
 824 0058 FFF7FEFF 		bl	__aeabi_dadd
 825 005c D4E91223 		ldrd	r2, [r4, #72]
 826 0060 C5E90001 		strd	r0, [r5]
 827 0064 4046     		mov	r0, r8
 828 0066 4946     		mov	r1, r9
 829 0068 FFF7FEFF 		bl	__aeabi_dmul
 830 006c D4E91423 		ldrd	r2, [r4, #80]
 831 0070 0646     		mov	r6, r0
 832 0072 0F46     		mov	r7, r1
 833 0074 5046     		mov	r0, r10
 834 0076 5946     		mov	r1, fp
 835 0078 FFF7FEFF 		bl	__aeabi_dmul
 836 007c 0246     		mov	r2, r0
 837 007e 0B46     		mov	r3, r1
 838 0080 3046     		mov	r0, r6
 839 0082 3946     		mov	r1, r7
 840 0084 FFF7FEFF 		bl	__aeabi_dadd
 841 0088 D4E91623 		ldrd	r2, [r4, #88]
 842 008c 0646     		mov	r6, r0
 843 008e 0F46     		mov	r7, r1
 844 0090 51EC180B 		vmov	r0, r1, d8
 845 0094 FFF7FEFF 		bl	__aeabi_dmul
 846 0098 0246     		mov	r2, r0
 847 009a 0B46     		mov	r3, r1
 848 009c 3046     		mov	r0, r6
 849 009e 3946     		mov	r1, r7
 850 00a0 FFF7FEFF 		bl	__aeabi_dadd
 851 00a4 D4E91823 		ldrd	r2, [r4, #96]
 852 00a8 C5E90201 		strd	r0, [r5, #8]
 853 00ac 4046     		mov	r0, r8
ARM GAS  /tmp/cczJEq9f.s 			page 16


 854 00ae 4946     		mov	r1, r9
 855 00b0 FFF7FEFF 		bl	__aeabi_dmul
 856 00b4 D4E91A23 		ldrd	r2, [r4, #104]
 857 00b8 0646     		mov	r6, r0
 858 00ba 0F46     		mov	r7, r1
 859 00bc 5046     		mov	r0, r10
 860 00be 5946     		mov	r1, fp
 861 00c0 FFF7FEFF 		bl	__aeabi_dmul
 862 00c4 0246     		mov	r2, r0
 863 00c6 0B46     		mov	r3, r1
 864 00c8 3046     		mov	r0, r6
 865 00ca 3946     		mov	r1, r7
 866 00cc FFF7FEFF 		bl	__aeabi_dadd
 867 00d0 D4E91C23 		ldrd	r2, [r4, #112]
 868 00d4 0646     		mov	r6, r0
 869 00d6 0F46     		mov	r7, r1
 870 00d8 51EC180B 		vmov	r0, r1, d8
 871 00dc FFF7FEFF 		bl	__aeabi_dmul
 872 00e0 0246     		mov	r2, r0
 873 00e2 0B46     		mov	r3, r1
 874 00e4 3046     		mov	r0, r6
 875 00e6 3946     		mov	r1, r7
 876 00e8 FFF7FEFF 		bl	__aeabi_dadd
 877 00ec BDEC028B 		vldm	sp!, {d8}
 878 00f0 C5E90401 		strd	r0, [r5, #16]
 879 00f4 BDE8F88F 		pop	{r3, r4, r5, r6, r7, r8, r9, r10, fp, pc}
 880              		.size	enu_of_ecef_vect_d, .-enu_of_ecef_vect_d
 881              		.section	.text.ned_of_ecef_vect_d,"ax",%progbits
 882              		.align	1
 883              		.p2align 4,,15
 884              		.global	ned_of_ecef_vect_d
 885              		.syntax unified
 886              		.thumb
 887              		.thumb_func
 888              		.fpu fpv4-sp-d16
 889              		.type	ned_of_ecef_vect_d, %function
 890              	ned_of_ecef_vect_d:
 891              		@ args = 0, pretend = 0, frame = 8
 892              		@ frame_needed = 0, uses_anonymous_args = 0
 893 0000 2DE9F04F 		push	{r4, r5, r6, r7, r8, r9, r10, fp, lr}
 894 0004 D2E90089 		ldrd	r8, [r2]
 895 0008 2DED028B 		vpush.64	{d8}
 896 000c D2E902AB 		ldrd	r10, [r2, #8]
 897 0010 83B0     		sub	sp, sp, #12
 898 0012 0C46     		mov	r4, r1
 899 0014 92ED048B 		vldr.64	d8, [r2, #16]
 900 0018 0546     		mov	r5, r0
 901 001a D1E90C23 		ldrd	r2, [r1, #48]
 902 001e 4046     		mov	r0, r8
 903 0020 4946     		mov	r1, r9
 904 0022 FFF7FEFF 		bl	__aeabi_dmul
 905 0026 D4E90E23 		ldrd	r2, [r4, #56]
 906 002a 0646     		mov	r6, r0
 907 002c 0F46     		mov	r7, r1
 908 002e 5046     		mov	r0, r10
 909 0030 5946     		mov	r1, fp
 910 0032 FFF7FEFF 		bl	__aeabi_dmul
ARM GAS  /tmp/cczJEq9f.s 			page 17


 911 0036 0246     		mov	r2, r0
 912 0038 0B46     		mov	r3, r1
 913 003a 3046     		mov	r0, r6
 914 003c 3946     		mov	r1, r7
 915 003e FFF7FEFF 		bl	__aeabi_dadd
 916 0042 D4E91023 		ldrd	r2, [r4, #64]
 917 0046 0646     		mov	r6, r0
 918 0048 0F46     		mov	r7, r1
 919 004a 51EC180B 		vmov	r0, r1, d8
 920 004e FFF7FEFF 		bl	__aeabi_dmul
 921 0052 0246     		mov	r2, r0
 922 0054 0B46     		mov	r3, r1
 923 0056 3046     		mov	r0, r6
 924 0058 3946     		mov	r1, r7
 925 005a FFF7FEFF 		bl	__aeabi_dadd
 926 005e D4E91823 		ldrd	r2, [r4, #96]
 927 0062 CDE90001 		strd	r0, [sp]
 928 0066 4046     		mov	r0, r8
 929 0068 4946     		mov	r1, r9
 930 006a FFF7FEFF 		bl	__aeabi_dmul
 931 006e D4E91A23 		ldrd	r2, [r4, #104]
 932 0072 0646     		mov	r6, r0
 933 0074 0F46     		mov	r7, r1
 934 0076 5046     		mov	r0, r10
 935 0078 5946     		mov	r1, fp
 936 007a FFF7FEFF 		bl	__aeabi_dmul
 937 007e 0246     		mov	r2, r0
 938 0080 0B46     		mov	r3, r1
 939 0082 3046     		mov	r0, r6
 940 0084 3946     		mov	r1, r7
 941 0086 FFF7FEFF 		bl	__aeabi_dadd
 942 008a D4E91C23 		ldrd	r2, [r4, #112]
 943 008e 0646     		mov	r6, r0
 944 0090 0F46     		mov	r7, r1
 945 0092 51EC180B 		vmov	r0, r1, d8
 946 0096 FFF7FEFF 		bl	__aeabi_dmul
 947 009a 0246     		mov	r2, r0
 948 009c 0B46     		mov	r3, r1
 949 009e 3046     		mov	r0, r6
 950 00a0 3946     		mov	r1, r7
 951 00a2 FFF7FEFF 		bl	__aeabi_dadd
 952 00a6 D4E91223 		ldrd	r2, [r4, #72]
 953 00aa 0646     		mov	r6, r0
 954 00ac 0F46     		mov	r7, r1
 955 00ae 4046     		mov	r0, r8
 956 00b0 4946     		mov	r1, r9
 957 00b2 FFF7FEFF 		bl	__aeabi_dmul
 958 00b6 D4E91423 		ldrd	r2, [r4, #80]
 959 00ba 8046     		mov	r8, r0
 960 00bc 8946     		mov	r9, r1
 961 00be 5046     		mov	r0, r10
 962 00c0 5946     		mov	r1, fp
 963 00c2 FFF7FEFF 		bl	__aeabi_dmul
 964 00c6 0246     		mov	r2, r0
 965 00c8 0B46     		mov	r3, r1
 966 00ca 4046     		mov	r0, r8
 967 00cc 4946     		mov	r1, r9
ARM GAS  /tmp/cczJEq9f.s 			page 18


 968 00ce FFF7FEFF 		bl	__aeabi_dadd
 969 00d2 D4E91623 		ldrd	r2, [r4, #88]
 970 00d6 8046     		mov	r8, r0
 971 00d8 8946     		mov	r9, r1
 972 00da 51EC180B 		vmov	r0, r1, d8
 973 00de FFF7FEFF 		bl	__aeabi_dmul
 974 00e2 0246     		mov	r2, r0
 975 00e4 0B46     		mov	r3, r1
 976 00e6 4046     		mov	r0, r8
 977 00e8 4946     		mov	r1, r9
 978 00ea FFF7FEFF 		bl	__aeabi_dadd
 979 00ee 9DED007B 		vldr.64	d7, [sp]
 980 00f2 07F10043 		add	r3, r7, #-2147483648
 981 00f6 85ED027B 		vstr.64	d7, [r5, #8]
 982 00fa C5E90001 		strd	r0, [r5]
 983 00fe C5E90463 		strd	r6, r3, [r5, #16]
 984 0102 03B0     		add	sp, sp, #12
 985              		@ sp needed
 986 0104 BDEC028B 		vldm	sp!, {d8}
 987 0108 BDE8F08F 		pop	{r4, r5, r6, r7, r8, r9, r10, fp, pc}
 988              		.size	ned_of_ecef_vect_d, .-ned_of_ecef_vect_d
 989              		.section	.text.ecef_of_enu_point_d,"ax",%progbits
 990              		.align	1
 991              		.p2align 4,,15
 992              		.global	ecef_of_enu_point_d
 993              		.syntax unified
 994              		.thumb
 995              		.thumb_func
 996              		.fpu fpv4-sp-d16
 997              		.type	ecef_of_enu_point_d, %function
 998              	ecef_of_enu_point_d:
 999              		@ args = 0, pretend = 0, frame = 8
 1000              		@ frame_needed = 0, uses_anonymous_args = 0
 1001 0000 2DE9F04F 		push	{r4, r5, r6, r7, r8, r9, r10, fp, lr}
 1002 0004 D2E900AB 		ldrd	r10, [r2]
 1003 0008 2DED048B 		vpush.64	{d8, d9}
 1004 000c 0C46     		mov	r4, r1
 1005 000e 83B0     		sub	sp, sp, #12
 1006 0010 92ED028B 		vldr.64	d8, [r2, #8]
 1007 0014 92ED049B 		vldr.64	d9, [r2, #16]
 1008 0018 0546     		mov	r5, r0
 1009 001a D1E90C23 		ldrd	r2, [r1, #48]
 1010 001e 5046     		mov	r0, r10
 1011 0020 5946     		mov	r1, fp
 1012 0022 FFF7FEFF 		bl	__aeabi_dmul
 1013 0026 D4E91223 		ldrd	r2, [r4, #72]
 1014 002a 0646     		mov	r6, r0
 1015 002c 0F46     		mov	r7, r1
 1016 002e 51EC180B 		vmov	r0, r1, d8
 1017 0032 FFF7FEFF 		bl	__aeabi_dmul
 1018 0036 0246     		mov	r2, r0
 1019 0038 0B46     		mov	r3, r1
 1020 003a 3046     		mov	r0, r6
 1021 003c 3946     		mov	r1, r7
 1022 003e FFF7FEFF 		bl	__aeabi_dadd
 1023 0042 D4E91823 		ldrd	r2, [r4, #96]
 1024 0046 0646     		mov	r6, r0
ARM GAS  /tmp/cczJEq9f.s 			page 19


 1025 0048 0F46     		mov	r7, r1
 1026 004a 51EC190B 		vmov	r0, r1, d9
 1027 004e FFF7FEFF 		bl	__aeabi_dmul
 1028 0052 0246     		mov	r2, r0
 1029 0054 0B46     		mov	r3, r1
 1030 0056 3046     		mov	r0, r6
 1031 0058 3946     		mov	r1, r7
 1032 005a FFF7FEFF 		bl	__aeabi_dadd
 1033 005e D4E90E23 		ldrd	r2, [r4, #56]
 1034 0062 CDE90001 		strd	r0, [sp]
 1035 0066 C5E90001 		strd	r0, [r5]
 1036 006a 5046     		mov	r0, r10
 1037 006c 5946     		mov	r1, fp
 1038 006e FFF7FEFF 		bl	__aeabi_dmul
 1039 0072 D4E91423 		ldrd	r2, [r4, #80]
 1040 0076 0646     		mov	r6, r0
 1041 0078 0F46     		mov	r7, r1
 1042 007a 51EC180B 		vmov	r0, r1, d8
 1043 007e FFF7FEFF 		bl	__aeabi_dmul
 1044 0082 0246     		mov	r2, r0
 1045 0084 0B46     		mov	r3, r1
 1046 0086 3046     		mov	r0, r6
 1047 0088 3946     		mov	r1, r7
 1048 008a FFF7FEFF 		bl	__aeabi_dadd
 1049 008e D4E91A23 		ldrd	r2, [r4, #104]
 1050 0092 0646     		mov	r6, r0
 1051 0094 0F46     		mov	r7, r1
 1052 0096 51EC190B 		vmov	r0, r1, d9
 1053 009a FFF7FEFF 		bl	__aeabi_dmul
 1054 009e 0246     		mov	r2, r0
 1055 00a0 0B46     		mov	r3, r1
 1056 00a2 3046     		mov	r0, r6
 1057 00a4 3946     		mov	r1, r7
 1058 00a6 FFF7FEFF 		bl	__aeabi_dadd
 1059 00aa 8046     		mov	r8, r0
 1060 00ac 8946     		mov	r9, r1
 1061 00ae D4E91023 		ldrd	r2, [r4, #64]
 1062 00b2 C5E90289 		strd	r8, [r5, #8]
 1063 00b6 5046     		mov	r0, r10
 1064 00b8 5946     		mov	r1, fp
 1065 00ba FFF7FEFF 		bl	__aeabi_dmul
 1066 00be D4E91623 		ldrd	r2, [r4, #88]
 1067 00c2 0646     		mov	r6, r0
 1068 00c4 0F46     		mov	r7, r1
 1069 00c6 51EC180B 		vmov	r0, r1, d8
 1070 00ca FFF7FEFF 		bl	__aeabi_dmul
 1071 00ce 0246     		mov	r2, r0
 1072 00d0 0B46     		mov	r3, r1
 1073 00d2 3046     		mov	r0, r6
 1074 00d4 3946     		mov	r1, r7
 1075 00d6 FFF7FEFF 		bl	__aeabi_dadd
 1076 00da D4E91C23 		ldrd	r2, [r4, #112]
 1077 00de 0646     		mov	r6, r0
 1078 00e0 0F46     		mov	r7, r1
 1079 00e2 51EC190B 		vmov	r0, r1, d9
 1080 00e6 FFF7FEFF 		bl	__aeabi_dmul
 1081 00ea 0246     		mov	r2, r0
ARM GAS  /tmp/cczJEq9f.s 			page 20


 1082 00ec 0B46     		mov	r3, r1
 1083 00ee 3046     		mov	r0, r6
 1084 00f0 3946     		mov	r1, r7
 1085 00f2 FFF7FEFF 		bl	__aeabi_dadd
 1086 00f6 0646     		mov	r6, r0
 1087 00f8 0F46     		mov	r7, r1
 1088 00fa DDE90023 		ldrd	r2, [sp]
 1089 00fe D4E90001 		ldrd	r0, [r4]
 1090 0102 C5E90467 		strd	r6, [r5, #16]
 1091 0106 FFF7FEFF 		bl	__aeabi_dadd
 1092 010a 4246     		mov	r2, r8
 1093 010c C5E90001 		strd	r0, [r5]
 1094 0110 4B46     		mov	r3, r9
 1095 0112 D4E90201 		ldrd	r0, [r4, #8]
 1096 0116 FFF7FEFF 		bl	__aeabi_dadd
 1097 011a 3246     		mov	r2, r6
 1098 011c C5E90201 		strd	r0, [r5, #8]
 1099 0120 3B46     		mov	r3, r7
 1100 0122 D4E90401 		ldrd	r0, [r4, #16]
 1101 0126 FFF7FEFF 		bl	__aeabi_dadd
 1102 012a C5E90401 		strd	r0, [r5, #16]
 1103 012e 03B0     		add	sp, sp, #12
 1104              		@ sp needed
 1105 0130 BDEC048B 		vldm	sp!, {d8-d9}
 1106 0134 BDE8F08F 		pop	{r4, r5, r6, r7, r8, r9, r10, fp, pc}
 1107              		.size	ecef_of_enu_point_d, .-ecef_of_enu_point_d
 1108              		.section	.text.ecef_of_ned_point_d,"ax",%progbits
 1109              		.align	1
 1110              		.p2align 4,,15
 1111              		.global	ecef_of_ned_point_d
 1112              		.syntax unified
 1113              		.thumb
 1114              		.thumb_func
 1115              		.fpu fpv4-sp-d16
 1116              		.type	ecef_of_ned_point_d, %function
 1117              	ecef_of_ned_point_d:
 1118              		@ args = 0, pretend = 0, frame = 24
 1119              		@ frame_needed = 0, uses_anonymous_args = 0
 1120 0000 30B5     		push	{r4, r5, lr}
 1121 0002 D2E90245 		ldrd	r4, [r2, #8]
 1122 0006 87B0     		sub	sp, sp, #28
 1123 0008 CDE90045 		strd	r4, [sp]
 1124 000c D2E90045 		ldrd	r4, [r2]
 1125 0010 CDE90245 		strd	r4, [sp, #8]
 1126 0014 D2E90443 		ldrd	r4, r3, [r2, #16]
 1127 0018 6A46     		mov	r2, sp
 1128 001a 03F10045 		add	r5, r3, #-2147483648
 1129 001e CDE90445 		strd	r4, [sp, #16]
 1130 0022 FFF7FEFF 		bl	ecef_of_enu_point_d
 1131 0026 07B0     		add	sp, sp, #28
 1132              		@ sp needed
 1133 0028 30BD     		pop	{r4, r5, pc}
 1134              		.size	ecef_of_ned_point_d, .-ecef_of_ned_point_d
 1135 002a 00BF     		.section	.text.ecef_of_enu_vect_d,"ax",%progbits
 1136              		.align	1
 1137              		.p2align 4,,15
 1138              		.global	ecef_of_enu_vect_d
ARM GAS  /tmp/cczJEq9f.s 			page 21


 1139              		.syntax unified
 1140              		.thumb
 1141              		.thumb_func
 1142              		.fpu fpv4-sp-d16
 1143              		.type	ecef_of_enu_vect_d, %function
 1144              	ecef_of_enu_vect_d:
 1145              		@ args = 0, pretend = 0, frame = 0
 1146              		@ frame_needed = 0, uses_anonymous_args = 0
 1147 0000 2DE9F84F 		push	{r3, r4, r5, r6, r7, r8, r9, r10, fp, lr}
 1148 0004 D2E90089 		ldrd	r8, [r2]
 1149 0008 2DED028B 		vpush.64	{d8}
 1150 000c D2E902AB 		ldrd	r10, [r2, #8]
 1151 0010 0C46     		mov	r4, r1
 1152 0012 92ED048B 		vldr.64	d8, [r2, #16]
 1153 0016 0546     		mov	r5, r0
 1154 0018 D1E90C23 		ldrd	r2, [r1, #48]
 1155 001c 4046     		mov	r0, r8
 1156 001e 4946     		mov	r1, r9
 1157 0020 FFF7FEFF 		bl	__aeabi_dmul
 1158 0024 D4E91223 		ldrd	r2, [r4, #72]
 1159 0028 0646     		mov	r6, r0
 1160 002a 0F46     		mov	r7, r1
 1161 002c 5046     		mov	r0, r10
 1162 002e 5946     		mov	r1, fp
 1163 0030 FFF7FEFF 		bl	__aeabi_dmul
 1164 0034 0246     		mov	r2, r0
 1165 0036 0B46     		mov	r3, r1
 1166 0038 3046     		mov	r0, r6
 1167 003a 3946     		mov	r1, r7
 1168 003c FFF7FEFF 		bl	__aeabi_dadd
 1169 0040 D4E91823 		ldrd	r2, [r4, #96]
 1170 0044 0646     		mov	r6, r0
 1171 0046 0F46     		mov	r7, r1
 1172 0048 51EC180B 		vmov	r0, r1, d8
 1173 004c FFF7FEFF 		bl	__aeabi_dmul
 1174 0050 0246     		mov	r2, r0
 1175 0052 0B46     		mov	r3, r1
 1176 0054 3046     		mov	r0, r6
 1177 0056 3946     		mov	r1, r7
 1178 0058 FFF7FEFF 		bl	__aeabi_dadd
 1179 005c D4E90E23 		ldrd	r2, [r4, #56]
 1180 0060 C5E90001 		strd	r0, [r5]
 1181 0064 4046     		mov	r0, r8
 1182 0066 4946     		mov	r1, r9
 1183 0068 FFF7FEFF 		bl	__aeabi_dmul
 1184 006c D4E91423 		ldrd	r2, [r4, #80]
 1185 0070 0646     		mov	r6, r0
 1186 0072 0F46     		mov	r7, r1
 1187 0074 5046     		mov	r0, r10
 1188 0076 5946     		mov	r1, fp
 1189 0078 FFF7FEFF 		bl	__aeabi_dmul
 1190 007c 0246     		mov	r2, r0
 1191 007e 0B46     		mov	r3, r1
 1192 0080 3046     		mov	r0, r6
 1193 0082 3946     		mov	r1, r7
 1194 0084 FFF7FEFF 		bl	__aeabi_dadd
 1195 0088 D4E91A23 		ldrd	r2, [r4, #104]
ARM GAS  /tmp/cczJEq9f.s 			page 22


 1196 008c 0646     		mov	r6, r0
 1197 008e 0F46     		mov	r7, r1
 1198 0090 51EC180B 		vmov	r0, r1, d8
 1199 0094 FFF7FEFF 		bl	__aeabi_dmul
 1200 0098 0246     		mov	r2, r0
 1201 009a 0B46     		mov	r3, r1
 1202 009c 3046     		mov	r0, r6
 1203 009e 3946     		mov	r1, r7
 1204 00a0 FFF7FEFF 		bl	__aeabi_dadd
 1205 00a4 D4E91023 		ldrd	r2, [r4, #64]
 1206 00a8 C5E90201 		strd	r0, [r5, #8]
 1207 00ac 4046     		mov	r0, r8
 1208 00ae 4946     		mov	r1, r9
 1209 00b0 FFF7FEFF 		bl	__aeabi_dmul
 1210 00b4 D4E91623 		ldrd	r2, [r4, #88]
 1211 00b8 0646     		mov	r6, r0
 1212 00ba 0F46     		mov	r7, r1
 1213 00bc 5046     		mov	r0, r10
 1214 00be 5946     		mov	r1, fp
 1215 00c0 FFF7FEFF 		bl	__aeabi_dmul
 1216 00c4 0246     		mov	r2, r0
 1217 00c6 0B46     		mov	r3, r1
 1218 00c8 3046     		mov	r0, r6
 1219 00ca 3946     		mov	r1, r7
 1220 00cc FFF7FEFF 		bl	__aeabi_dadd
 1221 00d0 D4E91C23 		ldrd	r2, [r4, #112]
 1222 00d4 0646     		mov	r6, r0
 1223 00d6 0F46     		mov	r7, r1
 1224 00d8 51EC180B 		vmov	r0, r1, d8
 1225 00dc FFF7FEFF 		bl	__aeabi_dmul
 1226 00e0 0246     		mov	r2, r0
 1227 00e2 0B46     		mov	r3, r1
 1228 00e4 3046     		mov	r0, r6
 1229 00e6 3946     		mov	r1, r7
 1230 00e8 FFF7FEFF 		bl	__aeabi_dadd
 1231 00ec BDEC028B 		vldm	sp!, {d8}
 1232 00f0 C5E90401 		strd	r0, [r5, #16]
 1233 00f4 BDE8F88F 		pop	{r3, r4, r5, r6, r7, r8, r9, r10, fp, pc}
 1234              		.size	ecef_of_enu_vect_d, .-ecef_of_enu_vect_d
 1235              		.section	.text.ecef_of_ned_vect_d,"ax",%progbits
 1236              		.align	1
 1237              		.p2align 4,,15
 1238              		.global	ecef_of_ned_vect_d
 1239              		.syntax unified
 1240              		.thumb
 1241              		.thumb_func
 1242              		.fpu fpv4-sp-d16
 1243              		.type	ecef_of_ned_vect_d, %function
 1244              	ecef_of_ned_vect_d:
 1245              		@ args = 0, pretend = 0, frame = 0
 1246              		@ frame_needed = 0, uses_anonymous_args = 0
 1247 0000 2DE9F84F 		push	{r3, r4, r5, r6, r7, r8, r9, r10, fp, lr}
 1248 0004 D2E902AB 		ldrd	r10, [r2, #8]
 1249 0008 5369     		ldr	r3, [r2, #20]
 1250 000a D2F81080 		ldr	r8, [r2, #16]
 1251 000e 2DED028B 		vpush.64	{d8}
 1252 0012 0C46     		mov	r4, r1
ARM GAS  /tmp/cczJEq9f.s 			page 23


 1253 0014 92ED008B 		vldr.64	d8, [r2]
 1254 0018 0546     		mov	r5, r0
 1255 001a 03F10049 		add	r9, r3, #-2147483648
 1256 001e 5046     		mov	r0, r10
 1257 0020 D1E90C23 		ldrd	r2, [r1, #48]
 1258 0024 5946     		mov	r1, fp
 1259 0026 FFF7FEFF 		bl	__aeabi_dmul
 1260 002a D4E91223 		ldrd	r2, [r4, #72]
 1261 002e 0646     		mov	r6, r0
 1262 0030 0F46     		mov	r7, r1
 1263 0032 51EC180B 		vmov	r0, r1, d8
 1264 0036 FFF7FEFF 		bl	__aeabi_dmul
 1265 003a 0246     		mov	r2, r0
 1266 003c 0B46     		mov	r3, r1
 1267 003e 3046     		mov	r0, r6
 1268 0040 3946     		mov	r1, r7
 1269 0042 FFF7FEFF 		bl	__aeabi_dadd
 1270 0046 D4E91823 		ldrd	r2, [r4, #96]
 1271 004a 0646     		mov	r6, r0
 1272 004c 0F46     		mov	r7, r1
 1273 004e 4046     		mov	r0, r8
 1274 0050 4946     		mov	r1, r9
 1275 0052 FFF7FEFF 		bl	__aeabi_dmul
 1276 0056 0246     		mov	r2, r0
 1277 0058 0B46     		mov	r3, r1
 1278 005a 3046     		mov	r0, r6
 1279 005c 3946     		mov	r1, r7
 1280 005e FFF7FEFF 		bl	__aeabi_dadd
 1281 0062 D4E90E23 		ldrd	r2, [r4, #56]
 1282 0066 C5E90001 		strd	r0, [r5]
 1283 006a 5046     		mov	r0, r10
 1284 006c 5946     		mov	r1, fp
 1285 006e FFF7FEFF 		bl	__aeabi_dmul
 1286 0072 D4E91423 		ldrd	r2, [r4, #80]
 1287 0076 0646     		mov	r6, r0
 1288 0078 0F46     		mov	r7, r1
 1289 007a 51EC180B 		vmov	r0, r1, d8
 1290 007e FFF7FEFF 		bl	__aeabi_dmul
 1291 0082 0246     		mov	r2, r0
 1292 0084 0B46     		mov	r3, r1
 1293 0086 3046     		mov	r0, r6
 1294 0088 3946     		mov	r1, r7
 1295 008a FFF7FEFF 		bl	__aeabi_dadd
 1296 008e D4E91A23 		ldrd	r2, [r4, #104]
 1297 0092 0646     		mov	r6, r0
 1298 0094 0F46     		mov	r7, r1
 1299 0096 4046     		mov	r0, r8
 1300 0098 4946     		mov	r1, r9
 1301 009a FFF7FEFF 		bl	__aeabi_dmul
 1302 009e 0246     		mov	r2, r0
 1303 00a0 0B46     		mov	r3, r1
 1304 00a2 3046     		mov	r0, r6
 1305 00a4 3946     		mov	r1, r7
 1306 00a6 FFF7FEFF 		bl	__aeabi_dadd
 1307 00aa D4E91023 		ldrd	r2, [r4, #64]
 1308 00ae C5E90201 		strd	r0, [r5, #8]
 1309 00b2 5046     		mov	r0, r10
ARM GAS  /tmp/cczJEq9f.s 			page 24


 1310 00b4 5946     		mov	r1, fp
 1311 00b6 FFF7FEFF 		bl	__aeabi_dmul
 1312 00ba D4E91623 		ldrd	r2, [r4, #88]
 1313 00be 0646     		mov	r6, r0
 1314 00c0 0F46     		mov	r7, r1
 1315 00c2 51EC180B 		vmov	r0, r1, d8
 1316 00c6 FFF7FEFF 		bl	__aeabi_dmul
 1317 00ca 0246     		mov	r2, r0
 1318 00cc 0B46     		mov	r3, r1
 1319 00ce 3046     		mov	r0, r6
 1320 00d0 3946     		mov	r1, r7
 1321 00d2 FFF7FEFF 		bl	__aeabi_dadd
 1322 00d6 D4E91C23 		ldrd	r2, [r4, #112]
 1323 00da 0646     		mov	r6, r0
 1324 00dc 0F46     		mov	r7, r1
 1325 00de 4046     		mov	r0, r8
 1326 00e0 4946     		mov	r1, r9
 1327 00e2 FFF7FEFF 		bl	__aeabi_dmul
 1328 00e6 0246     		mov	r2, r0
 1329 00e8 0B46     		mov	r3, r1
 1330 00ea 3046     		mov	r0, r6
 1331 00ec 3946     		mov	r1, r7
 1332 00ee FFF7FEFF 		bl	__aeabi_dadd
 1333 00f2 BDEC028B 		vldm	sp!, {d8}
 1334 00f6 C5E90401 		strd	r0, [r5, #16]
 1335 00fa BDE8F88F 		pop	{r3, r4, r5, r6, r7, r8, r9, r10, fp, pc}
 1336              		.size	ecef_of_ned_vect_d, .-ecef_of_ned_vect_d
 1337 00fe 00BF     		.section	.text.enu_of_lla_point_d,"ax",%progbits
 1338              		.align	1
 1339              		.p2align 4,,15
 1340              		.global	enu_of_lla_point_d
 1341              		.syntax unified
 1342              		.thumb
 1343              		.thumb_func
 1344              		.fpu fpv4-sp-d16
 1345              		.type	enu_of_lla_point_d, %function
 1346              	enu_of_lla_point_d:
 1347              		@ args = 0, pretend = 0, frame = 24
 1348              		@ frame_needed = 0, uses_anonymous_args = 0
 1349 0000 30B5     		push	{r4, r5, lr}
 1350 0002 87B0     		sub	sp, sp, #28
 1351 0004 0446     		mov	r4, r0
 1352 0006 0D46     		mov	r5, r1
 1353 0008 6846     		mov	r0, sp
 1354 000a 1146     		mov	r1, r2
 1355 000c FFF7FEFF 		bl	ecef_of_lla_d
 1356 0010 6A46     		mov	r2, sp
 1357 0012 2946     		mov	r1, r5
 1358 0014 2046     		mov	r0, r4
 1359 0016 FFF7FEFF 		bl	enu_of_ecef_point_d
 1360 001a 07B0     		add	sp, sp, #28
 1361              		@ sp needed
 1362 001c 30BD     		pop	{r4, r5, pc}
 1363              		.size	enu_of_lla_point_d, .-enu_of_lla_point_d
 1364 001e 00BF     		.section	.text.ned_of_lla_point_d,"ax",%progbits
 1365              		.align	1
 1366              		.p2align 4,,15
ARM GAS  /tmp/cczJEq9f.s 			page 25


 1367              		.global	ned_of_lla_point_d
 1368              		.syntax unified
 1369              		.thumb
 1370              		.thumb_func
 1371              		.fpu fpv4-sp-d16
 1372              		.type	ned_of_lla_point_d, %function
 1373              	ned_of_lla_point_d:
 1374              		@ args = 0, pretend = 0, frame = 48
 1375              		@ frame_needed = 0, uses_anonymous_args = 0
 1376 0000 30B5     		push	{r4, r5, lr}
 1377 0002 8DB0     		sub	sp, sp, #52
 1378 0004 0446     		mov	r4, r0
 1379 0006 0D46     		mov	r5, r1
 1380 0008 6846     		mov	r0, sp
 1381 000a 1146     		mov	r1, r2
 1382 000c FFF7FEFF 		bl	ecef_of_lla_d
 1383 0010 6A46     		mov	r2, sp
 1384 0012 2946     		mov	r1, r5
 1385 0014 06A8     		add	r0, sp, #24
 1386 0016 FFF7FEFF 		bl	enu_of_ecef_point_d
 1387 001a DDE90801 		ldrd	r0, [sp, #32]
 1388 001e C4E90001 		strd	r0, [r4]
 1389 0022 DDE90601 		ldrd	r0, [sp, #24]
 1390 0026 C4E90201 		strd	r0, [r4, #8]
 1391 002a 0B99     		ldr	r1, [sp, #44]
 1392 002c 0A9A     		ldr	r2, [sp, #40]
 1393 002e 01F10043 		add	r3, r1, #-2147483648
 1394 0032 C4E90423 		strd	r2, [r4, #16]
 1395 0036 0DB0     		add	sp, sp, #52
 1396              		@ sp needed
 1397 0038 30BD     		pop	{r4, r5, pc}
 1398              		.size	ned_of_lla_point_d, .-ned_of_lla_point_d
 1399 003a 00BF     		.section	.text.gc_of_gd_lat_d,"ax",%progbits
 1400              		.align	1
 1401              		.p2align 4,,15
 1402              		.global	gc_of_gd_lat_d
 1403              		.syntax unified
 1404              		.thumb
 1405              		.thumb_func
 1406              		.fpu fpv4-sp-d16
 1407              		.type	gc_of_gd_lat_d, %function
 1408              	gc_of_gd_lat_d:
 1409              		@ args = 0, pretend = 0, frame = 0
 1410              		@ frame_needed = 0, uses_anonymous_args = 0
 1411 0000 2DE9F04F 		push	{r4, r5, r6, r7, r8, r9, r10, fp, lr}
 1412 0004 2DED028B 		vpush.64	{d8}
 1413 0008 81B0     		sub	sp, sp, #4
 1414 000a 1446     		mov	r4, r2
 1415 000c 1D46     		mov	r5, r3
 1416 000e 8046     		mov	r8, r0
 1417 0010 8946     		mov	r9, r1
 1418 0012 FFF7FEFF 		bl	tan
 1419 0016 2EA3     		adr	r3, .L36
 1420 0018 D3E90023 		ldrd	r2, [r3]
 1421 001c FFF7FEFF 		bl	__aeabi_dmul
 1422 0020 FFF7FEFF 		bl	atan
 1423 0024 0646     		mov	r6, r0
ARM GAS  /tmp/cczJEq9f.s 			page 26


 1424 0026 0F46     		mov	r7, r1
 1425 0028 4046     		mov	r0, r8
 1426 002a 4946     		mov	r1, r9
 1427 002c FFF7FEFF 		bl	sin
 1428 0030 8246     		mov	r10, r0
 1429 0032 8B46     		mov	fp, r1
 1430 0034 3046     		mov	r0, r6
 1431 0036 3946     		mov	r1, r7
 1432 0038 FFF7FEFF 		bl	sin
 1433 003c 0246     		mov	r2, r0
 1434 003e 0B46     		mov	r3, r1
 1435 0040 4046     		mov	r0, r8
 1436 0042 4946     		mov	r1, r9
 1437 0044 43EC182B 		vmov	d8, r2, r3
 1438 0048 FFF7FEFF 		bl	cos
 1439 004c 0246     		mov	r2, r0
 1440 004e 0B46     		mov	r3, r1
 1441 0050 3046     		mov	r0, r6
 1442 0052 3946     		mov	r1, r7
 1443 0054 1646     		mov	r6, r2
 1444 0056 1F46     		mov	r7, r3
 1445 0058 FFF7FEFF 		bl	cos
 1446 005c 2246     		mov	r2, r4
 1447 005e 8046     		mov	r8, r0
 1448 0060 8946     		mov	r9, r1
 1449 0062 2B46     		mov	r3, r5
 1450 0064 3046     		mov	r0, r6
 1451 0066 3946     		mov	r1, r7
 1452 0068 FFF7FEFF 		bl	__aeabi_dmul
 1453 006c 1AA3     		adr	r3, .L36+8
 1454 006e D3E90023 		ldrd	r2, [r3]
 1455 0072 0646     		mov	r6, r0
 1456 0074 0F46     		mov	r7, r1
 1457 0076 4046     		mov	r0, r8
 1458 0078 4946     		mov	r1, r9
 1459 007a FFF7FEFF 		bl	__aeabi_dmul
 1460 007e 0246     		mov	r2, r0
 1461 0080 0B46     		mov	r3, r1
 1462 0082 3046     		mov	r0, r6
 1463 0084 3946     		mov	r1, r7
 1464 0086 FFF7FEFF 		bl	__aeabi_dadd
 1465 008a 2246     		mov	r2, r4
 1466 008c 0646     		mov	r6, r0
 1467 008e 0F46     		mov	r7, r1
 1468 0090 2B46     		mov	r3, r5
 1469 0092 5046     		mov	r0, r10
 1470 0094 5946     		mov	r1, fp
 1471 0096 FFF7FEFF 		bl	__aeabi_dmul
 1472 009a 0FA3     		adr	r3, .L36+8
 1473 009c D3E90023 		ldrd	r2, [r3]
 1474 00a0 0446     		mov	r4, r0
 1475 00a2 0D46     		mov	r5, r1
 1476 00a4 51EC180B 		vmov	r0, r1, d8
 1477 00a8 FFF7FEFF 		bl	__aeabi_dmul
 1478 00ac 0246     		mov	r2, r0
 1479 00ae 0B46     		mov	r3, r1
 1480 00b0 2046     		mov	r0, r4
ARM GAS  /tmp/cczJEq9f.s 			page 27


 1481 00b2 2946     		mov	r1, r5
 1482 00b4 FFF7FEFF 		bl	__aeabi_dadd
 1483 00b8 3246     		mov	r2, r6
 1484 00ba 3B46     		mov	r3, r7
 1485 00bc 01B0     		add	sp, sp, #4
 1486              		@ sp needed
 1487 00be BDEC028B 		vldm	sp!, {d8}
 1488 00c2 BDE8F04F 		pop	{r4, r5, r6, r7, r8, r9, r10, fp, lr}
 1489 00c6 FFF7FEBF 		b	atan2
 1490              	.L37:
 1491 00ca 00BFAFF3 		.align	3
 1491      0080
 1492              	.L36:
 1493 00d0 D6021CDE 		.word	-568589610
 1494 00d4 28C9EF3F 		.word	1072679208
 1495 00d8 00000040 		.word	1073741824
 1496 00dc A6545841 		.word	1096307878
 1497              		.size	gc_of_gd_lat_d, .-gc_of_gd_lat_d
 1498              		.global	__aeabi_d2uiz
 1499              		.global	__aeabi_i2d
 1500              		.global	__aeabi_f2d
 1501              		.section	.text.utm_of_lla_d,"ax",%progbits
 1502              		.align	1
 1503              		.p2align 4,,15
 1504              		.global	utm_of_lla_d
 1505              		.syntax unified
 1506              		.thumb
 1507              		.thumb_func
 1508              		.fpu fpv4-sp-d16
 1509              		.type	utm_of_lla_d, %function
 1510              	utm_of_lla_d:
 1511              		@ args = 0, pretend = 0, frame = 48
 1512              		@ frame_needed = 0, uses_anonymous_args = 0
 1513 0000 2DE9F04F 		push	{r4, r5, r6, r7, r8, r9, r10, fp, lr}
 1514 0004 2DED0A8B 		vpush.64	{d8, d9, d10, d11, d12}
 1515 0008 8DB0     		sub	sp, sp, #52
 1516 000a 90F818A0 		ldrb	r10, [r0, #24]	@ zero_extendqisi2
 1517 000e 0B90     		str	r0, [sp, #44]
 1518 0010 0A91     		str	r1, [sp, #40]
 1519 0012 BAF1000F 		cmp	r10, #0
 1520 0016 1BD1     		bne	.L39
 1521 0018 D5A3     		adr	r3, .L43+80
 1522 001a D3E90023 		ldrd	r2, [r3]
 1523 001e 0446     		mov	r4, r0
 1524 0020 D1E90201 		ldrd	r0, [r1, #8]
 1525 0024 FFF7FEFF 		bl	__aeabi_dmul
 1526 0028 CB4B     		ldr	r3, .L43+56
 1527 002a 0022     		movs	r2, #0
 1528 002c FFF7FEFF 		bl	__aeabi_dadd
 1529 0030 FFF7FEFF 		bl	floor
 1530 0034 C94B     		ldr	r3, .L43+60
 1531 0036 0022     		movs	r2, #0
 1532 0038 FFF7FEFF 		bl	__aeabi_ddiv
 1533 003c C84B     		ldr	r3, .L43+64
 1534 003e 0022     		movs	r2, #0
 1535 0040 FFF7FEFF 		bl	__aeabi_dadd
 1536 0044 FFF7FEFF 		bl	__aeabi_d2uiz
ARM GAS  /tmp/cczJEq9f.s 			page 28


 1537 0048 5FFA80FA 		uxtb	r10, r0
 1538 004c 84F818A0 		strb	r10, [r4, #24]
 1539              	.L39:
 1540 0050 0A9B     		ldr	r3, [sp, #40]
 1541 0052 C44A     		ldr	r2, .L43+68
 1542 0054 0992     		str	r2, [sp, #36]
 1543 0056 D3E90067 		ldrd	r6, [r3]
 1544 005a 0122     		movs	r2, #1
 1545 005c C24B     		ldr	r3, .L43+72
 1546 005e 0892     		str	r2, [sp, #32]
 1547 0060 3046     		mov	r0, r6
 1548 0062 0022     		movs	r2, #0
 1549 0064 3946     		mov	r1, r7
 1550 0066 FFF7FEFF 		bl	__aeabi_dmul
 1551 006a ADA3     		adr	r3, .L43
 1552 006c D3E90023 		ldrd	r2, [r3]
 1553 0070 FFF7FEFF 		bl	__aeabi_dadd
 1554 0074 FFF7FEFF 		bl	tan
 1555 0078 FFF7FEFF 		bl	log
 1556 007c 0446     		mov	r4, r0
 1557 007e 0D46     		mov	r5, r1
 1558 0080 3046     		mov	r0, r6
 1559 0082 3946     		mov	r1, r7
 1560 0084 FFF7FEFF 		bl	sin
 1561 0088 A7A3     		adr	r3, .L43+8
 1562 008a D3E90023 		ldrd	r2, [r3]
 1563 008e FFF7FEFF 		bl	__aeabi_dmul
 1564 0092 B34B     		ldr	r3, .L43+64
 1565 0094 0022     		movs	r2, #0
 1566 0096 8046     		mov	r8, r0
 1567 0098 8946     		mov	r9, r1
 1568 009a FFF7FEFF 		bl	__aeabi_dadd
 1569 009e 4246     		mov	r2, r8
 1570 00a0 4B46     		mov	r3, r9
 1571 00a2 0646     		mov	r6, r0
 1572 00a4 0F46     		mov	r7, r1
 1573 00a6 0020     		movs	r0, #0
 1574 00a8 AD49     		ldr	r1, .L43+64
 1575 00aa FFF7FEFF 		bl	__aeabi_dsub
 1576 00ae 0246     		mov	r2, r0
 1577 00b0 0B46     		mov	r3, r1
 1578 00b2 3046     		mov	r0, r6
 1579 00b4 3946     		mov	r1, r7
 1580 00b6 FFF7FEFF 		bl	__aeabi_ddiv
 1581 00ba FFF7FEFF 		bl	log
 1582 00be 9CA3     		adr	r3, .L43+16
 1583 00c0 D3E90023 		ldrd	r2, [r3]
 1584 00c4 FFF7FEFF 		bl	__aeabi_dmul
 1585 00c8 0246     		mov	r2, r0
 1586 00ca 0B46     		mov	r3, r1
 1587 00cc 2046     		mov	r0, r4
 1588 00ce 2946     		mov	r1, r5
 1589 00d0 FFF7FEFF 		bl	__aeabi_dsub
 1590 00d4 0AF1FF3A 		add	r10, r10, #-1
 1591 00d8 0AEB4A0A 		add	r10, r10, r10, lsl #1
 1592 00dc 0446     		mov	r4, r0
 1593 00de 4FEA4A00 		lsl	r0, r10, #1
ARM GAS  /tmp/cczJEq9f.s 			page 29


 1594 00e2 B138     		subs	r0, r0, #177
 1595 00e4 0D46     		mov	r5, r1
 1596 00e6 FFF7FEFF 		bl	__aeabi_i2d
 1597 00ea 93A3     		adr	r3, .L43+24
 1598 00ec D3E90023 		ldrd	r2, [r3]
 1599 00f0 FFF7FEFF 		bl	__aeabi_dmul
 1600 00f4 0B46     		mov	r3, r1
 1601 00f6 0A99     		ldr	r1, [sp, #40]
 1602 00f8 0246     		mov	r2, r0
 1603 00fa D1E90201 		ldrd	r0, [r1, #8]
 1604 00fe FFF7FEFF 		bl	__aeabi_dsub
 1605 0102 0646     		mov	r6, r0
 1606 0104 0F46     		mov	r7, r1
 1607 0106 FFF7FEFF 		bl	sin
 1608 010a 8046     		mov	r8, r0
 1609 010c 8946     		mov	r9, r1
 1610 010e 2046     		mov	r0, r4
 1611 0110 2946     		mov	r1, r5
 1612 0112 FFF7FEFF 		bl	cosh
 1613 0116 0246     		mov	r2, r0
 1614 0118 0B46     		mov	r3, r1
 1615 011a 4046     		mov	r0, r8
 1616 011c 4946     		mov	r1, r9
 1617 011e FFF7FEFF 		bl	__aeabi_ddiv
 1618 0122 FFF7FEFF 		bl	asin
 1619 0126 904B     		ldr	r3, .L43+72
 1620 0128 0022     		movs	r2, #0
 1621 012a FFF7FEFF 		bl	__aeabi_dmul
 1622 012e 7CA3     		adr	r3, .L43
 1623 0130 D3E90023 		ldrd	r2, [r3]
 1624 0134 FFF7FEFF 		bl	__aeabi_dadd
 1625 0138 FFF7FEFF 		bl	tan
 1626 013c FFF7FEFF 		bl	log
 1627 0140 0246     		mov	r2, r0
 1628 0142 0B46     		mov	r3, r1
 1629 0144 2046     		mov	r0, r4
 1630 0146 2946     		mov	r1, r5
 1631 0148 9046     		mov	r8, r2
 1632 014a 9946     		mov	r9, r3
 1633 014c FFF7FEFF 		bl	sinh
 1634 0150 0446     		mov	r4, r0
 1635 0152 0D46     		mov	r5, r1
 1636 0154 3046     		mov	r0, r6
 1637 0156 3946     		mov	r1, r7
 1638 0158 FFF7FEFF 		bl	cos
 1639 015c 0246     		mov	r2, r0
 1640 015e 0B46     		mov	r3, r1
 1641 0160 2046     		mov	r0, r4
 1642 0162 2946     		mov	r1, r5
 1643 0164 FFF7FEFF 		bl	__aeabi_ddiv
 1644 0168 FFF7FEFF 		bl	atan
 1645 016c 0246     		mov	r2, r0
 1646 016e 0B46     		mov	r3, r1
 1647 0170 43EC1B2B 		vmov	d11, r2, r3
 1648 0174 72A3     		adr	r3, .L43+32
 1649 0176 D3E90023 		ldrd	r2, [r3]
 1650 017a FFF7FEFF 		bl	__aeabi_dmul
ARM GAS  /tmp/cczJEq9f.s 			page 30


 1651 017e 70A3     		adr	r3, .L43+32
 1652 0180 D3E90023 		ldrd	r2, [r3]
 1653 0184 41EC1A0B 		vmov	d10, r0, r1
 1654 0188 4046     		mov	r0, r8
 1655 018a 4946     		mov	r1, r9
 1656 018c FFF7FEFF 		bl	__aeabi_dmul
 1657 0190 CDE90601 		strd	r0, [sp, #24]
 1658 0194 49EC1C8B 		vmov	d12, r8, r9
 1659              	.L40:
 1660 0198 0898     		ldr	r0, [sp, #32]
 1661 019a FFF7FEFF 		bl	__aeabi_i2d
 1662 019e 0246     		mov	r2, r0
 1663 01a0 0B46     		mov	r3, r1
 1664 01a2 FFF7FEFF 		bl	__aeabi_dadd
 1665 01a6 53EC1B2B 		vmov	r2, r3, d11
 1666 01aa 0646     		mov	r6, r0
 1667 01ac 0F46     		mov	r7, r1
 1668 01ae FFF7FEFF 		bl	__aeabi_dmul
 1669 01b2 0D46     		mov	r5, r1
 1670 01b4 05F10043 		add	r3, r5, #-2147483648
 1671 01b8 0446     		mov	r4, r0
 1672 01ba 3946     		mov	r1, r7
 1673 01bc 3046     		mov	r0, r6
 1674 01be 0393     		str	r3, [sp, #12]
 1675 01c0 53EC1C2B 		vmov	r2, r3, d12
 1676 01c4 0294     		str	r4, [sp, #8]
 1677 01c6 FFF7FEFF 		bl	__aeabi_dmul
 1678 01ca 01F10043 		add	r3, r1, #-2147483648
 1679 01ce 0193     		str	r3, [sp, #4]
 1680 01d0 0090     		str	r0, [sp]
 1681 01d2 0646     		mov	r6, r0
 1682 01d4 0F46     		mov	r7, r1
 1683 01d6 DDE90001 		ldrd	r0, [sp]
 1684 01da FFF7FEFF 		bl	exp
 1685 01de 41EC180B 		vmov	d8, r0, r1
 1686 01e2 2046     		mov	r0, r4
 1687 01e4 2946     		mov	r1, r5
 1688 01e6 FFF7FEFF 		bl	cos
 1689 01ea 8246     		mov	r10, r0
 1690 01ec 8B46     		mov	fp, r1
 1691 01ee 2046     		mov	r0, r4
 1692 01f0 2946     		mov	r1, r5
 1693 01f2 FFF7FEFF 		bl	sin
 1694 01f6 8046     		mov	r8, r0
 1695 01f8 8946     		mov	r9, r1
 1696 01fa 3046     		mov	r0, r6
 1697 01fc 3946     		mov	r1, r7
 1698 01fe FFF7FEFF 		bl	exp
 1699 0202 0646     		mov	r6, r0
 1700 0204 0F46     		mov	r7, r1
 1701 0206 DDE90201 		ldrd	r0, [sp, #8]
 1702 020a FFF7FEFF 		bl	sin
 1703 020e 099B     		ldr	r3, [sp, #36]
 1704 0210 41EC190B 		vmov	d9, r0, r1
 1705 0214 53F8040B 		ldr	r0, [r3], #4	@ float
 1706 0218 0993     		str	r3, [sp, #36]
 1707 021a FFF7FEFF 		bl	__aeabi_f2d
ARM GAS  /tmp/cczJEq9f.s 			page 31


 1708 021e 53EC182B 		vmov	r2, r3, d8
 1709 0222 0446     		mov	r4, r0
 1710 0224 0D46     		mov	r5, r1
 1711 0226 4046     		mov	r0, r8
 1712 0228 4946     		mov	r1, r9
 1713 022a FFF7FEFF 		bl	__aeabi_dmul
 1714 022e 3246     		mov	r2, r6
 1715 0230 8046     		mov	r8, r0
 1716 0232 8946     		mov	r9, r1
 1717 0234 3B46     		mov	r3, r7
 1718 0236 51EC190B 		vmov	r0, r1, d9
 1719 023a FFF7FEFF 		bl	__aeabi_dmul
 1720 023e 0246     		mov	r2, r0
 1721 0240 0B46     		mov	r3, r1
 1722 0242 4046     		mov	r0, r8
 1723 0244 4946     		mov	r1, r9
 1724 0246 FFF7FEFF 		bl	__aeabi_dsub
 1725 024a 484B     		ldr	r3, .L43+76
 1726 024c 0022     		movs	r2, #0
 1727 024e FFF7FEFF 		bl	__aeabi_dmul
 1728 0252 01F10043 		add	r3, r1, #-2147483648
 1729 0256 0593     		str	r3, [sp, #20]
 1730 0258 0490     		str	r0, [sp, #16]
 1731 025a 2246     		mov	r2, r4
 1732 025c 2B46     		mov	r3, r5
 1733 025e DDE90401 		ldrd	r0, [sp, #16]
 1734 0262 FFF7FEFF 		bl	__aeabi_dmul
 1735 0266 0246     		mov	r2, r0
 1736 0268 0B46     		mov	r3, r1
 1737 026a 51EC1A0B 		vmov	r0, r1, d10
 1738 026e FFF7FEFF 		bl	__aeabi_dadd
 1739 0272 53EC182B 		vmov	r2, r3, d8
 1740 0276 8046     		mov	r8, r0
 1741 0278 8946     		mov	r9, r1
 1742 027a 5046     		mov	r0, r10
 1743 027c 5946     		mov	r1, fp
 1744 027e FFF7FEFF 		bl	__aeabi_dmul
 1745 0282 3246     		mov	r2, r6
 1746 0284 3B46     		mov	r3, r7
 1747 0286 0646     		mov	r6, r0
 1748 0288 0F46     		mov	r7, r1
 1749 028a 5046     		mov	r0, r10
 1750 028c 5946     		mov	r1, fp
 1751 028e FFF7FEFF 		bl	__aeabi_dmul
 1752 0292 0246     		mov	r2, r0
 1753 0294 0B46     		mov	r3, r1
 1754 0296 3046     		mov	r0, r6
 1755 0298 3946     		mov	r1, r7
 1756 029a FFF7FEFF 		bl	__aeabi_dsub
 1757 029e 334B     		ldr	r3, .L43+76
 1758 02a0 0022     		movs	r2, #0
 1759 02a2 FFF7FEFF 		bl	__aeabi_dmul
 1760 02a6 2246     		mov	r2, r4
 1761 02a8 2B46     		mov	r3, r5
 1762 02aa FFF7FEFF 		bl	__aeabi_dmul
 1763 02ae 0246     		mov	r2, r0
 1764 02b0 0B46     		mov	r3, r1
ARM GAS  /tmp/cczJEq9f.s 			page 32


 1765 02b2 DDE90601 		ldrd	r0, [sp, #24]
 1766 02b6 FFF7FEFF 		bl	__aeabi_dadd
 1767 02ba 0B46     		mov	r3, r1
 1768 02bc 0246     		mov	r2, r0
 1769 02be CDE90623 		strd	r2, [sp, #24]
 1770 02c2 089B     		ldr	r3, [sp, #32]
 1771 02c4 022B     		cmp	r3, #2
 1772 02c6 49EC1A8B 		vmov	d10, r8, r9
 1773 02ca 23D1     		bne	.L41
 1774 02cc 1EA3     		adr	r3, .L43+40
 1775 02ce D3E90023 		ldrd	r2, [r3]
 1776 02d2 FFF7FEFF 		bl	__aeabi_dmul
 1777 02d6 1EA3     		adr	r3, .L43+48
 1778 02d8 D3E90023 		ldrd	r2, [r3]
 1779 02dc FFF7FEFF 		bl	__aeabi_dadd
 1780 02e0 0B9C     		ldr	r4, [sp, #44]
 1781 02e2 19A3     		adr	r3, .L43+40
 1782 02e4 D3E90023 		ldrd	r2, [r3]
 1783 02e8 C4E90201 		strd	r0, [r4, #8]
 1784 02ec 4046     		mov	r0, r8
 1785 02ee 4946     		mov	r1, r9
 1786 02f0 FFF7FEFF 		bl	__aeabi_dmul
 1787 02f4 0022     		movs	r2, #0
 1788 02f6 0023     		movs	r3, #0
 1789 02f8 FFF7FEFF 		bl	__aeabi_dadd
 1790 02fc 0A9B     		ldr	r3, [sp, #40]
 1791 02fe D3E90423 		ldrd	r2, [r3, #16]
 1792 0302 C4E90001 		strd	r0, [r4]
 1793 0306 C4E90423 		strd	r2, [r4, #16]
 1794 030a 0DB0     		add	sp, sp, #52
 1795              		@ sp needed
 1796 030c BDEC0A8B 		vldm	sp!, {d8-d12}
 1797 0310 BDE8F08F 		pop	{r4, r5, r6, r7, r8, r9, r10, fp, pc}
 1798              	.L41:
 1799 0314 0223     		movs	r3, #2
 1800 0316 0893     		str	r3, [sp, #32]
 1801 0318 3EE7     		b	.L40
 1802              	.L44:
 1803 031a 00BFAFF3 		.align	3
 1803      0080
 1804              	.L43:
 1805 0320 182D4454 		.word	1413754136
 1806 0324 FB21E93F 		.word	1072243195
 1807 0328 37B2C93D 		.word	1036628535
 1808 032c 1AF2B43F 		.word	1068823066
 1809 0330 37B2C93D 		.word	1036628535
 1810 0334 1AF2A43F 		.word	1067774490
 1811 0338 399D52A2 		.word	-1571644103
 1812 033c 46DF913F 		.word	1066524486
 1813 0340 000000C0 		.word	-1073741824
 1814 0344 45F2EF3F 		.word	1072689733
 1815 0348 585BB16F 		.word	1873894232
 1816 034c 28525841 		.word	1096307240
 1817 0350 00000000 		.word	0
 1818 0354 80841E41 		.word	1092519040
 1819 0358 00806640 		.word	1080459264
 1820 035c 00001840 		.word	1075314688
ARM GAS  /tmp/cczJEq9f.s 			page 33


 1821 0360 0000F03F 		.word	1072693248
 1822 0364 04000000 		.word	.LANCHOR0+4
 1823 0368 0000E03F 		.word	1071644672
 1824 036c 0000E0BF 		.word	-1075838976
 1825 0370 F8C1631A 		.word	442745336
 1826 0374 DCA54C40 		.word	1078765020
 1827              		.size	utm_of_lla_d, .-utm_of_lla_d
 1828              		.global	__aeabi_dcmpgt
 1829              		.section	.text.lla_of_utm_d,"ax",%progbits
 1830              		.align	1
 1831              		.p2align 4,,15
 1832              		.global	lla_of_utm_d
 1833              		.syntax unified
 1834              		.thumb
 1835              		.thumb_func
 1836              		.fpu fpv4-sp-d16
 1837              		.type	lla_of_utm_d, %function
 1838              	lla_of_utm_d:
 1839              		@ args = 0, pretend = 0, frame = 24
 1840              		@ frame_needed = 0, uses_anonymous_args = 0
 1841 0000 2DE9F04F 		push	{r4, r5, r6, r7, r8, r9, r10, fp, lr}
 1842 0004 2DED068B 		vpush.64	{d8, d9, d10}
 1843 0008 87B0     		sub	sp, sp, #28
 1844 000a 0C46     		mov	r4, r1
 1845 000c D3A3     		adr	r3, .L55+68
 1846 000e D3E90023 		ldrd	r2, [r3]
 1847 0012 0290     		str	r0, [sp, #8]
 1848 0014 D1E90001 		ldrd	r0, [r1]
 1849 0018 FFF7FEFF 		bl	__aeabi_dmul
 1850 001c 8946     		mov	r9, r1
 1851 001e 0221     		movs	r1, #2
 1852 0020 8046     		mov	r8, r0
 1853 0022 D0A3     		adr	r3, .L55+76
 1854 0024 D3E90023 		ldrd	r2, [r3]
 1855 0028 0191     		str	r1, [sp, #4]
 1856 002a D4E90201 		ldrd	r0, [r4, #8]
 1857 002e 0394     		str	r4, [sp, #12]
 1858 0030 FFF7FEFF 		bl	__aeabi_dsub
 1859 0034 C9A3     		adr	r3, .L55+68
 1860 0036 D3E90023 		ldrd	r2, [r3]
 1861 003a FFF7FEFF 		bl	__aeabi_dmul
 1862 003e 4246     		mov	r2, r8
 1863 0040 41EC180B 		vmov	d8, r0, r1
 1864 0044 4B46     		mov	r3, r9
 1865 0046 4046     		mov	r0, r8
 1866 0048 4946     		mov	r1, r9
 1867 004a FFF7FEFF 		bl	__aeabi_dadd
 1868 004e 53EC182B 		vmov	r2, r3, d8
 1869 0052 0446     		mov	r4, r0
 1870 0054 0D46     		mov	r5, r1
 1871 0056 51EC180B 		vmov	r0, r1, d8
 1872 005a FFF7FEFF 		bl	__aeabi_dadd
 1873 005e 0F46     		mov	r7, r1
 1874 0060 01F10041 		add	r1, r1, #-2147483648
 1875 0064 0646     		mov	r6, r0
 1876 0066 FFF7FEFF 		bl	exp
 1877 006a 41EC1A0B 		vmov	d10, r0, r1
ARM GAS  /tmp/cczJEq9f.s 			page 34


 1878 006e 2046     		mov	r0, r4
 1879 0070 2946     		mov	r1, r5
 1880 0072 FFF7FEFF 		bl	cos
 1881 0076 41EC190B 		vmov	d9, r0, r1
 1882 007a 2046     		mov	r0, r4
 1883 007c 2946     		mov	r1, r5
 1884 007e FFF7FEFF 		bl	sin
 1885 0082 8246     		mov	r10, r0
 1886 0084 8B46     		mov	fp, r1
 1887 0086 3046     		mov	r0, r6
 1888 0088 3946     		mov	r1, r7
 1889 008a FFF7FEFF 		bl	exp
 1890 008e 0646     		mov	r6, r0
 1891 0090 0F46     		mov	r7, r1
 1892 0092 2046     		mov	r0, r4
 1893 0094 05F10041 		add	r1, r5, #-2147483648
 1894 0098 FFF7FEFF 		bl	sin
 1895 009c 0246     		mov	r2, r0
 1896 009e 0B46     		mov	r3, r1
 1897 00a0 5046     		mov	r0, r10
 1898 00a2 5946     		mov	r1, fp
 1899 00a4 9246     		mov	r10, r2
 1900 00a6 9B46     		mov	fp, r3
 1901 00a8 53EC1A2B 		vmov	r2, r3, d10
 1902 00ac FFF7FEFF 		bl	__aeabi_dmul
 1903 00b0 3246     		mov	r2, r6
 1904 00b2 0446     		mov	r4, r0
 1905 00b4 0D46     		mov	r5, r1
 1906 00b6 3B46     		mov	r3, r7
 1907 00b8 5046     		mov	r0, r10
 1908 00ba 5946     		mov	r1, fp
 1909 00bc FFF7FEFF 		bl	__aeabi_dmul
 1910 00c0 0246     		mov	r2, r0
 1911 00c2 0B46     		mov	r3, r1
 1912 00c4 2046     		mov	r0, r4
 1913 00c6 2946     		mov	r1, r5
 1914 00c8 FFF7FEFF 		bl	__aeabi_dsub
 1915 00cc A04B     		ldr	r3, .L55+56
 1916 00ce 0022     		movs	r2, #0
 1917 00d0 FFF7FEFF 		bl	__aeabi_dmul
 1918 00d4 01F10043 		add	r3, r1, #-2147483648
 1919 00d8 1946     		mov	r1, r3
 1920 00da 8FA3     		adr	r3, .L55
 1921 00dc D3E90023 		ldrd	r2, [r3]
 1922 00e0 FFF7FEFF 		bl	__aeabi_dmul
 1923 00e4 0246     		mov	r2, r0
 1924 00e6 0B46     		mov	r3, r1
 1925 00e8 4046     		mov	r0, r8
 1926 00ea 4946     		mov	r1, r9
 1927 00ec FFF7FEFF 		bl	__aeabi_dsub
 1928 00f0 53EC1A2B 		vmov	r2, r3, d10
 1929 00f4 8246     		mov	r10, r0
 1930 00f6 8B46     		mov	fp, r1
 1931 00f8 51EC190B 		vmov	r0, r1, d9
 1932 00fc FFF7FEFF 		bl	__aeabi_dmul
 1933 0100 3246     		mov	r2, r6
 1934 0102 3B46     		mov	r3, r7
ARM GAS  /tmp/cczJEq9f.s 			page 35


 1935 0104 0446     		mov	r4, r0
 1936 0106 0D46     		mov	r5, r1
 1937 0108 51EC190B 		vmov	r0, r1, d9
 1938 010c FFF7FEFF 		bl	__aeabi_dmul
 1939 0110 0246     		mov	r2, r0
 1940 0112 0B46     		mov	r3, r1
 1941 0114 2046     		mov	r0, r4
 1942 0116 2946     		mov	r1, r5
 1943 0118 FFF7FEFF 		bl	__aeabi_dsub
 1944 011c 8C4B     		ldr	r3, .L55+56
 1945 011e 0022     		movs	r2, #0
 1946 0120 FFF7FEFF 		bl	__aeabi_dmul
 1947 0124 7CA3     		adr	r3, .L55
 1948 0126 D3E90023 		ldrd	r2, [r3]
 1949 012a FFF7FEFF 		bl	__aeabi_dmul
 1950 012e 0246     		mov	r2, r0
 1951 0130 0B46     		mov	r3, r1
 1952 0132 51EC180B 		vmov	r0, r1, d8
 1953 0136 FFF7FEFF 		bl	__aeabi_dsub
 1954 013a 039B     		ldr	r3, [sp, #12]
 1955 013c 0446     		mov	r4, r0
 1956 013e 187E     		ldrb	r0, [r3, #24]	@ zero_extendqisi2
 1957 0140 0138     		subs	r0, r0, #1
 1958 0142 00EB4000 		add	r0, r0, r0, lsl #1
 1959 0146 4000     		lsls	r0, r0, #1
 1960 0148 B138     		subs	r0, r0, #177
 1961 014a 0D46     		mov	r5, r1
 1962 014c FFF7FEFF 		bl	__aeabi_i2d
 1963 0150 73A3     		adr	r3, .L55+8
 1964 0152 D3E90023 		ldrd	r2, [r3]
 1965 0156 FFF7FEFF 		bl	__aeabi_dmul
 1966 015a 0646     		mov	r6, r0
 1967 015c 0F46     		mov	r7, r1
 1968 015e 2046     		mov	r0, r4
 1969 0160 2946     		mov	r1, r5
 1970 0162 FFF7FEFF 		bl	sinh
 1971 0166 8046     		mov	r8, r0
 1972 0168 8946     		mov	r9, r1
 1973 016a 5046     		mov	r0, r10
 1974 016c 5946     		mov	r1, fp
 1975 016e FFF7FEFF 		bl	cos
 1976 0172 0246     		mov	r2, r0
 1977 0174 0B46     		mov	r3, r1
 1978 0176 4046     		mov	r0, r8
 1979 0178 4946     		mov	r1, r9
 1980 017a FFF7FEFF 		bl	__aeabi_ddiv
 1981 017e FFF7FEFF 		bl	atan
 1982 0182 3246     		mov	r2, r6
 1983 0184 3B46     		mov	r3, r7
 1984 0186 FFF7FEFF 		bl	__aeabi_dadd
 1985 018a 029B     		ldr	r3, [sp, #8]
 1986 018c C3E90201 		strd	r0, [r3, #8]
 1987 0190 5046     		mov	r0, r10
 1988 0192 5946     		mov	r1, fp
 1989 0194 FFF7FEFF 		bl	sin
 1990 0198 0246     		mov	r2, r0
 1991 019a 0B46     		mov	r3, r1
ARM GAS  /tmp/cczJEq9f.s 			page 36


 1992 019c 2046     		mov	r0, r4
 1993 019e 2946     		mov	r1, r5
 1994 01a0 1446     		mov	r4, r2
 1995 01a2 1D46     		mov	r5, r3
 1996 01a4 FFF7FEFF 		bl	cosh
 1997 01a8 0246     		mov	r2, r0
 1998 01aa 0B46     		mov	r3, r1
 1999 01ac 2046     		mov	r0, r4
 2000 01ae 2946     		mov	r1, r5
 2001 01b0 FFF7FEFF 		bl	__aeabi_ddiv
 2002 01b4 FFF7FEFF 		bl	asin
 2003 01b8 664B     		ldr	r3, .L55+60
 2004 01ba 0022     		movs	r2, #0
 2005 01bc FFF7FEFF 		bl	__aeabi_dmul
 2006 01c0 59A3     		adr	r3, .L55+16
 2007 01c2 D3E90023 		ldrd	r2, [r3]
 2008 01c6 FFF7FEFF 		bl	__aeabi_dadd
 2009 01ca FFF7FEFF 		bl	tan
 2010 01ce FFF7FEFF 		bl	log
 2011 01d2 FFF7FEFF 		bl	exp
 2012 01d6 8246     		mov	r10, r0
 2013 01d8 8B46     		mov	fp, r1
 2014 01da FFF7FEFF 		bl	atan
 2015 01de 0246     		mov	r2, r0
 2016 01e0 0B46     		mov	r3, r1
 2017 01e2 FFF7FEFF 		bl	__aeabi_dadd
 2018 01e6 52A3     		adr	r3, .L55+24
 2019 01e8 D3E90023 		ldrd	r2, [r3]
 2020 01ec FFF7FEFF 		bl	__aeabi_dsub
 2021 01f0 0646     		mov	r6, r0
 2022 01f2 0F46     		mov	r7, r1
 2023 01f4 FFF7FEFF 		bl	sin
 2024 01f8 4FA3     		adr	r3, .L55+32
 2025 01fa D3E90023 		ldrd	r2, [r3]
 2026 01fe FFF7FEFF 		bl	__aeabi_dmul
 2027 0202 554B     		ldr	r3, .L55+64
 2028 0204 0022     		movs	r2, #0
 2029 0206 8046     		mov	r8, r0
 2030 0208 8946     		mov	r9, r1
 2031 020a FFF7FEFF 		bl	__aeabi_dadd
 2032 020e 4246     		mov	r2, r8
 2033 0210 0446     		mov	r4, r0
 2034 0212 0D46     		mov	r5, r1
 2035 0214 4B46     		mov	r3, r9
 2036 0216 5049     		ldr	r1, .L55+64
 2037 0218 0020     		movs	r0, #0
 2038 021a FFF7FEFF 		bl	__aeabi_dsub
 2039 021e 0246     		mov	r2, r0
 2040 0220 0B46     		mov	r3, r1
 2041 0222 2046     		mov	r0, r4
 2042 0224 2946     		mov	r1, r5
 2043 0226 FFF7FEFF 		bl	__aeabi_ddiv
 2044 022a 45A3     		adr	r3, .L55+40
 2045 022c D3E90023 		ldrd	r2, [r3]
 2046 0230 FFF7FEFF 		bl	pow
 2047 0234 5246     		mov	r2, r10
 2048 0236 5B46     		mov	r3, fp
ARM GAS  /tmp/cczJEq9f.s 			page 37


 2049 0238 FFF7FEFF 		bl	__aeabi_dmul
 2050 023c FFF7FEFF 		bl	atan
 2051 0240 0246     		mov	r2, r0
 2052 0242 0B46     		mov	r3, r1
 2053 0244 FFF7FEFF 		bl	__aeabi_dadd
 2054 0248 39A3     		adr	r3, .L55+24
 2055 024a D3E90023 		ldrd	r2, [r3]
 2056 024e FFF7FEFF 		bl	__aeabi_dsub
 2057 0252 4BEC18AB 		vmov	d8, r10, fp
 2058 0256 DFF800B1 		ldr	fp, .L55+64
 2059 025a 0446     		mov	r4, r0
 2060 025c 0D46     		mov	r5, r1
 2061 025e 4FF0000A 		mov	r10, #0
 2062              	.L46:
 2063 0262 2246     		mov	r2, r4
 2064 0264 2B46     		mov	r3, r5
 2065 0266 3046     		mov	r0, r6
 2066 0268 3946     		mov	r1, r7
 2067 026a FFF7FEFF 		bl	__aeabi_dsub
 2068 026e 21F00049 		bic	r9, r1, #-2147483648
 2069 0272 35A3     		adr	r3, .L55+48
 2070 0274 D3E90023 		ldrd	r2, [r3]
 2071 0278 4946     		mov	r1, r9
 2072 027a FFF7FEFF 		bl	__aeabi_dcmpgt
 2073 027e C8B3     		cbz	r0, .L47
 2074 0280 2046     		mov	r0, r4
 2075 0282 2946     		mov	r1, r5
 2076 0284 FFF7FEFF 		bl	sin
 2077 0288 2BA3     		adr	r3, .L55+32
 2078 028a D3E90023 		ldrd	r2, [r3]
 2079 028e FFF7FEFF 		bl	__aeabi_dmul
 2080 0292 5246     		mov	r2, r10
 2081 0294 5B46     		mov	r3, fp
 2082 0296 2646     		mov	r6, r4
 2083 0298 2F46     		mov	r7, r5
 2084 029a 0446     		mov	r4, r0
 2085 029c 0D46     		mov	r5, r1
 2086 029e FFF7FEFF 		bl	__aeabi_dadd
 2087 02a2 2246     		mov	r2, r4
 2088 02a4 2B46     		mov	r3, r5
 2089 02a6 0446     		mov	r4, r0
 2090 02a8 0D46     		mov	r5, r1
 2091 02aa 5046     		mov	r0, r10
 2092 02ac 5946     		mov	r1, fp
 2093 02ae FFF7FEFF 		bl	__aeabi_dsub
 2094 02b2 0246     		mov	r2, r0
 2095 02b4 0B46     		mov	r3, r1
 2096 02b6 2046     		mov	r0, r4
 2097 02b8 2946     		mov	r1, r5
 2098 02ba FFF7FEFF 		bl	__aeabi_ddiv
 2099 02be 20A3     		adr	r3, .L55+40
 2100 02c0 D3E90023 		ldrd	r2, [r3]
 2101 02c4 FFF7FEFF 		bl	pow
 2102 02c8 0246     		mov	r2, r0
 2103 02ca 0B46     		mov	r3, r1
 2104 02cc 51EC180B 		vmov	r0, r1, d8
 2105 02d0 FFF7FEFF 		bl	__aeabi_dmul
ARM GAS  /tmp/cczJEq9f.s 			page 38


 2106 02d4 FFF7FEFF 		bl	atan
 2107 02d8 0246     		mov	r2, r0
 2108 02da 0B46     		mov	r3, r1
 2109 02dc FFF7FEFF 		bl	__aeabi_dadd
 2110 02e0 13A3     		adr	r3, .L55+24
 2111 02e2 D3E90023 		ldrd	r2, [r3]
 2112 02e6 FFF7FEFF 		bl	__aeabi_dsub
 2113 02ea 019B     		ldr	r3, [sp, #4]
 2114 02ec 012B     		cmp	r3, #1
 2115 02ee 0446     		mov	r4, r0
 2116 02f0 0D46     		mov	r5, r1
 2117 02f2 0CD1     		bne	.L54
 2118              	.L47:
 2119 02f4 039B     		ldr	r3, [sp, #12]
 2120 02f6 0299     		ldr	r1, [sp, #8]
 2121 02f8 D3E90423 		ldrd	r2, [r3, #16]
 2122 02fc C1E90045 		strd	r4, [r1]
 2123 0300 C1E90423 		strd	r2, [r1, #16]
 2124 0304 07B0     		add	sp, sp, #28
 2125              		@ sp needed
 2126 0306 BDEC068B 		vldm	sp!, {d8-d10}
 2127 030a BDE8F08F 		pop	{r4, r5, r6, r7, r8, r9, r10, fp, pc}
 2128              	.L54:
 2129 030e 0123     		movs	r3, #1
 2130 0310 0193     		str	r3, [sp, #4]
 2131 0312 A6E7     		b	.L46
 2132              	.L56:
 2133 0314 AFF30080 		.align	3
 2134              	.L55:
 2135 0318 00000020 		.word	536870912
 2136 031c 68734B3F 		.word	1061909352
 2137 0320 399D52A2 		.word	-1571644103
 2138 0324 46DF913F 		.word	1066524486
 2139 0328 182D4454 		.word	1413754136
 2140 032c FB21E93F 		.word	1072243195
 2141 0330 182D4454 		.word	1413754136
 2142 0334 FB21F93F 		.word	1073291771
 2143 0338 37B2C93D 		.word	1036628535
 2144 033c 1AF2B43F 		.word	1068823066
 2145 0340 37B2C93D 		.word	1036628535
 2146 0344 1AF2A43F 		.word	1067774490
 2147 0348 3A8C30E2 		.word	-500134854
 2148 034c 8E79453E 		.word	1044740494
 2149 0350 0000E0BF 		.word	-1075838976
 2150 0354 0000E03F 		.word	1071644672
 2151 0358 0000F03F 		.word	1072693248
 2152 035c 3E72EF54 		.word	1424978494
 2153 0360 5016853E 		.word	1048909392
 2154 0364 00000000 		.word	0
 2155 0368 80841E41 		.word	1092519040
 2156              		.size	lla_of_utm_d, .-lla_of_utm_d
 2157              		.section	.rodata.serie_coeff_proj_mercator,"a"
 2158              		.align	2
 2159              		.set	.LANCHOR0,. + 0
 2160              		.type	serie_coeff_proj_mercator, %object
 2161              		.size	serie_coeff_proj_mercator, 20
 2162              	serie_coeff_proj_mercator:
ARM GAS  /tmp/cczJEq9f.s 			page 39


 2163 0000 2E927F3F 		.word	1065325102
 2164 0004 063D5B3A 		.word	979057926
 2165 0008 CBE54B35 		.word	894166475
 2166 000c 8A53A430 		.word	816075658
 2167 0010 19A5292C 		.word	740926745
 2168              		.ident	"GCC: (15:10.3-2021.07-4) 10.3.1 20210621 (release)"
ARM GAS  /tmp/cczJEq9f.s 			page 40

