ARM GAS  /tmp/ccjs9pfM.s 			page 1


   1              		.cpu cortex-m4
   2              		.eabi_attribute 27, 1
   3              		.eabi_attribute 20, 1
   4              		.eabi_attribute 21, 1
   5              		.eabi_attribute 23, 3
   6              		.eabi_attribute 24, 1
   7              		.eabi_attribute 25, 1
   8              		.eabi_attribute 26, 1
   9              		.eabi_attribute 30, 2
  10              		.eabi_attribute 34, 1
  11              		.eabi_attribute 18, 4
  12              		.file	"stm32_isr.c"
  13              		.text
  14              		.section	.text.Vector58,"ax",%progbits
  15              		.align	1
  16              		.p2align 4,,15
  17              		.global	Vector58
  18              		.arch armv7e-m
  19              		.syntax unified
  20              		.thumb
  21              		.thumb_func
  22              		.fpu fpv4-sp-d16
  23              		.type	Vector58, %function
  24              	Vector58:
  25              		@ args = 0, pretend = 0, frame = 0
  26              		@ frame_needed = 0, uses_anonymous_args = 0
  27 0000 08B5     		push	{r3, lr}
  28 0002 FFF7FEFF 		bl	__stats_increase_irq
  29 0006 0E4A     		ldr	r2, .L9
  30 0008 5369     		ldr	r3, [r2, #20]
  31 000a 03F00103 		and	r3, r3, #1
  32 000e 5361     		str	r3, [r2, #20]
  33 0010 1BB9     		cbnz	r3, .L8
  34 0012 BDE80840 		pop	{r3, lr}
  35 0016 FFF7FEBF 		b	__port_irq_epilogue
  36              	.L8:
  37 001a 3023     		movs	r3, #48
  38              		.syntax unified
  39              	@ 493 "/home/argroos/paparazzi/sw/ext/chibios/os/common/ext/ARM/CMSIS/Core/Include/cmsis_gcc.h" 1
  40 001c 83F31188 		MSR basepri, r3
  41              	@ 0 "" 2
  42              		.thumb
  43              		.syntax unified
  44 0020 FFF7FEFF 		bl	__stats_start_measure_crit_isr
  45 0024 0748     		ldr	r0, .L9+4
  46 0026 0021     		movs	r1, #0
  47 0028 FFF7FEFF 		bl	chThdDequeueAllI
  48 002c FFF7FEFF 		bl	__stats_stop_measure_crit_isr
  49 0030 0023     		movs	r3, #0
  50              		.syntax unified
  51              	@ 493 "/home/argroos/paparazzi/sw/ext/chibios/os/common/ext/ARM/CMSIS/Core/Include/cmsis_gcc.h" 1
  52 0032 83F31188 		MSR basepri, r3
  53              	@ 0 "" 2
  54              		.thumb
  55              		.syntax unified
  56 0036 BDE80840 		pop	{r3, lr}
  57 003a FFF7FEBF 		b	__port_irq_epilogue
ARM GAS  /tmp/ccjs9pfM.s 			page 2


  58              	.L10:
  59 003e 00BF     		.align	2
  60              	.L9:
  61 0040 003C0140 		.word	1073822720
  62 0044 00000000 		.word	_pal_events
  63              		.size	Vector58, .-Vector58
  64              		.section	.text.Vector5C,"ax",%progbits
  65              		.align	1
  66              		.p2align 4,,15
  67              		.global	Vector5C
  68              		.syntax unified
  69              		.thumb
  70              		.thumb_func
  71              		.fpu fpv4-sp-d16
  72              		.type	Vector5C, %function
  73              	Vector5C:
  74              		@ args = 0, pretend = 0, frame = 0
  75              		@ frame_needed = 0, uses_anonymous_args = 0
  76 0000 08B5     		push	{r3, lr}
  77 0002 FFF7FEFF 		bl	__stats_increase_irq
  78 0006 0E4A     		ldr	r2, .L18
  79 0008 5369     		ldr	r3, [r2, #20]
  80 000a 03F00203 		and	r3, r3, #2
  81 000e 5361     		str	r3, [r2, #20]
  82 0010 1BB9     		cbnz	r3, .L17
  83 0012 BDE80840 		pop	{r3, lr}
  84 0016 FFF7FEBF 		b	__port_irq_epilogue
  85              	.L17:
  86 001a 3023     		movs	r3, #48
  87              		.syntax unified
  88              	@ 493 "/home/argroos/paparazzi/sw/ext/chibios/os/common/ext/ARM/CMSIS/Core/Include/cmsis_gcc.h" 1
  89 001c 83F31188 		MSR basepri, r3
  90              	@ 0 "" 2
  91              		.thumb
  92              		.syntax unified
  93 0020 FFF7FEFF 		bl	__stats_start_measure_crit_isr
  94 0024 0748     		ldr	r0, .L18+4
  95 0026 0021     		movs	r1, #0
  96 0028 FFF7FEFF 		bl	chThdDequeueAllI
  97 002c FFF7FEFF 		bl	__stats_stop_measure_crit_isr
  98 0030 0023     		movs	r3, #0
  99              		.syntax unified
 100              	@ 493 "/home/argroos/paparazzi/sw/ext/chibios/os/common/ext/ARM/CMSIS/Core/Include/cmsis_gcc.h" 1
 101 0032 83F31188 		MSR basepri, r3
 102              	@ 0 "" 2
 103              		.thumb
 104              		.syntax unified
 105 0036 BDE80840 		pop	{r3, lr}
 106 003a FFF7FEBF 		b	__port_irq_epilogue
 107              	.L19:
 108 003e 00BF     		.align	2
 109              	.L18:
 110 0040 003C0140 		.word	1073822720
 111 0044 08000000 		.word	_pal_events+8
 112              		.size	Vector5C, .-Vector5C
 113              		.section	.text.Vector60,"ax",%progbits
 114              		.align	1
ARM GAS  /tmp/ccjs9pfM.s 			page 3


 115              		.p2align 4,,15
 116              		.global	Vector60
 117              		.syntax unified
 118              		.thumb
 119              		.thumb_func
 120              		.fpu fpv4-sp-d16
 121              		.type	Vector60, %function
 122              	Vector60:
 123              		@ args = 0, pretend = 0, frame = 0
 124              		@ frame_needed = 0, uses_anonymous_args = 0
 125 0000 08B5     		push	{r3, lr}
 126 0002 FFF7FEFF 		bl	__stats_increase_irq
 127 0006 0E4A     		ldr	r2, .L27
 128 0008 5369     		ldr	r3, [r2, #20]
 129 000a 03F00403 		and	r3, r3, #4
 130 000e 5361     		str	r3, [r2, #20]
 131 0010 1BB9     		cbnz	r3, .L26
 132 0012 BDE80840 		pop	{r3, lr}
 133 0016 FFF7FEBF 		b	__port_irq_epilogue
 134              	.L26:
 135 001a 3023     		movs	r3, #48
 136              		.syntax unified
 137              	@ 493 "/home/argroos/paparazzi/sw/ext/chibios/os/common/ext/ARM/CMSIS/Core/Include/cmsis_gcc.h" 1
 138 001c 83F31188 		MSR basepri, r3
 139              	@ 0 "" 2
 140              		.thumb
 141              		.syntax unified
 142 0020 FFF7FEFF 		bl	__stats_start_measure_crit_isr
 143 0024 0748     		ldr	r0, .L27+4
 144 0026 0021     		movs	r1, #0
 145 0028 FFF7FEFF 		bl	chThdDequeueAllI
 146 002c FFF7FEFF 		bl	__stats_stop_measure_crit_isr
 147 0030 0023     		movs	r3, #0
 148              		.syntax unified
 149              	@ 493 "/home/argroos/paparazzi/sw/ext/chibios/os/common/ext/ARM/CMSIS/Core/Include/cmsis_gcc.h" 1
 150 0032 83F31188 		MSR basepri, r3
 151              	@ 0 "" 2
 152              		.thumb
 153              		.syntax unified
 154 0036 BDE80840 		pop	{r3, lr}
 155 003a FFF7FEBF 		b	__port_irq_epilogue
 156              	.L28:
 157 003e 00BF     		.align	2
 158              	.L27:
 159 0040 003C0140 		.word	1073822720
 160 0044 10000000 		.word	_pal_events+16
 161              		.size	Vector60, .-Vector60
 162              		.section	.text.Vector64,"ax",%progbits
 163              		.align	1
 164              		.p2align 4,,15
 165              		.global	Vector64
 166              		.syntax unified
 167              		.thumb
 168              		.thumb_func
 169              		.fpu fpv4-sp-d16
 170              		.type	Vector64, %function
 171              	Vector64:
ARM GAS  /tmp/ccjs9pfM.s 			page 4


 172              		@ args = 0, pretend = 0, frame = 0
 173              		@ frame_needed = 0, uses_anonymous_args = 0
 174 0000 08B5     		push	{r3, lr}
 175 0002 FFF7FEFF 		bl	__stats_increase_irq
 176 0006 0E4A     		ldr	r2, .L36
 177 0008 5369     		ldr	r3, [r2, #20]
 178 000a 03F00803 		and	r3, r3, #8
 179 000e 5361     		str	r3, [r2, #20]
 180 0010 1BB9     		cbnz	r3, .L35
 181 0012 BDE80840 		pop	{r3, lr}
 182 0016 FFF7FEBF 		b	__port_irq_epilogue
 183              	.L35:
 184 001a 3023     		movs	r3, #48
 185              		.syntax unified
 186              	@ 493 "/home/argroos/paparazzi/sw/ext/chibios/os/common/ext/ARM/CMSIS/Core/Include/cmsis_gcc.h" 1
 187 001c 83F31188 		MSR basepri, r3
 188              	@ 0 "" 2
 189              		.thumb
 190              		.syntax unified
 191 0020 FFF7FEFF 		bl	__stats_start_measure_crit_isr
 192 0024 0748     		ldr	r0, .L36+4
 193 0026 0021     		movs	r1, #0
 194 0028 FFF7FEFF 		bl	chThdDequeueAllI
 195 002c FFF7FEFF 		bl	__stats_stop_measure_crit_isr
 196 0030 0023     		movs	r3, #0
 197              		.syntax unified
 198              	@ 493 "/home/argroos/paparazzi/sw/ext/chibios/os/common/ext/ARM/CMSIS/Core/Include/cmsis_gcc.h" 1
 199 0032 83F31188 		MSR basepri, r3
 200              	@ 0 "" 2
 201              		.thumb
 202              		.syntax unified
 203 0036 BDE80840 		pop	{r3, lr}
 204 003a FFF7FEBF 		b	__port_irq_epilogue
 205              	.L37:
 206 003e 00BF     		.align	2
 207              	.L36:
 208 0040 003C0140 		.word	1073822720
 209 0044 18000000 		.word	_pal_events+24
 210              		.size	Vector64, .-Vector64
 211              		.section	.text.Vector68,"ax",%progbits
 212              		.align	1
 213              		.p2align 4,,15
 214              		.global	Vector68
 215              		.syntax unified
 216              		.thumb
 217              		.thumb_func
 218              		.fpu fpv4-sp-d16
 219              		.type	Vector68, %function
 220              	Vector68:
 221              		@ args = 0, pretend = 0, frame = 0
 222              		@ frame_needed = 0, uses_anonymous_args = 0
 223 0000 08B5     		push	{r3, lr}
 224 0002 FFF7FEFF 		bl	__stats_increase_irq
 225 0006 0E4A     		ldr	r2, .L45
 226 0008 5369     		ldr	r3, [r2, #20]
 227 000a 03F01003 		and	r3, r3, #16
 228 000e 5361     		str	r3, [r2, #20]
ARM GAS  /tmp/ccjs9pfM.s 			page 5


 229 0010 1BB9     		cbnz	r3, .L44
 230 0012 BDE80840 		pop	{r3, lr}
 231 0016 FFF7FEBF 		b	__port_irq_epilogue
 232              	.L44:
 233 001a 3023     		movs	r3, #48
 234              		.syntax unified
 235              	@ 493 "/home/argroos/paparazzi/sw/ext/chibios/os/common/ext/ARM/CMSIS/Core/Include/cmsis_gcc.h" 1
 236 001c 83F31188 		MSR basepri, r3
 237              	@ 0 "" 2
 238              		.thumb
 239              		.syntax unified
 240 0020 FFF7FEFF 		bl	__stats_start_measure_crit_isr
 241 0024 0748     		ldr	r0, .L45+4
 242 0026 0021     		movs	r1, #0
 243 0028 FFF7FEFF 		bl	chThdDequeueAllI
 244 002c FFF7FEFF 		bl	__stats_stop_measure_crit_isr
 245 0030 0023     		movs	r3, #0
 246              		.syntax unified
 247              	@ 493 "/home/argroos/paparazzi/sw/ext/chibios/os/common/ext/ARM/CMSIS/Core/Include/cmsis_gcc.h" 1
 248 0032 83F31188 		MSR basepri, r3
 249              	@ 0 "" 2
 250              		.thumb
 251              		.syntax unified
 252 0036 BDE80840 		pop	{r3, lr}
 253 003a FFF7FEBF 		b	__port_irq_epilogue
 254              	.L46:
 255 003e 00BF     		.align	2
 256              	.L45:
 257 0040 003C0140 		.word	1073822720
 258 0044 20000000 		.word	_pal_events+32
 259              		.size	Vector68, .-Vector68
 260              		.section	.text.Vector9C,"ax",%progbits
 261              		.align	1
 262              		.p2align 4,,15
 263              		.global	Vector9C
 264              		.syntax unified
 265              		.thumb
 266              		.thumb_func
 267              		.fpu fpv4-sp-d16
 268              		.type	Vector9C, %function
 269              	Vector9C:
 270              		@ args = 0, pretend = 0, frame = 0
 271              		@ frame_needed = 0, uses_anonymous_args = 0
 272 0000 10B5     		push	{r4, lr}
 273 0002 FFF7FEFF 		bl	__stats_increase_irq
 274 0006 324B     		ldr	r3, .L74
 275 0008 5C69     		ldr	r4, [r3, #20]
 276 000a 04F47872 		and	r2, r4, #992
 277 000e 5A61     		str	r2, [r3, #20]
 278 0010 A306     		lsls	r3, r4, #26
 279 0012 0BD4     		bmi	.L69
 280 0014 6006     		lsls	r0, r4, #25
 281 0016 19D4     		bmi	.L70
 282              	.L49:
 283 0018 2106     		lsls	r1, r4, #24
 284 001a 27D4     		bmi	.L71
 285              	.L50:
ARM GAS  /tmp/ccjs9pfM.s 			page 6


 286 001c E205     		lsls	r2, r4, #23
 287 001e 35D4     		bmi	.L72
 288              	.L51:
 289 0020 A305     		lsls	r3, r4, #22
 290 0022 43D4     		bmi	.L73
 291              	.L52:
 292 0024 BDE81040 		pop	{r4, lr}
 293 0028 FFF7FEBF 		b	__port_irq_epilogue
 294              	.L69:
 295 002c 3023     		movs	r3, #48
 296              		.syntax unified
 297              	@ 493 "/home/argroos/paparazzi/sw/ext/chibios/os/common/ext/ARM/CMSIS/Core/Include/cmsis_gcc.h" 1
 298 002e 83F31188 		MSR basepri, r3
 299              	@ 0 "" 2
 300              		.thumb
 301              		.syntax unified
 302 0032 FFF7FEFF 		bl	__stats_start_measure_crit_isr
 303 0036 2748     		ldr	r0, .L74+4
 304 0038 0021     		movs	r1, #0
 305 003a FFF7FEFF 		bl	chThdDequeueAllI
 306 003e FFF7FEFF 		bl	__stats_stop_measure_crit_isr
 307 0042 0023     		movs	r3, #0
 308              		.syntax unified
 309              	@ 493 "/home/argroos/paparazzi/sw/ext/chibios/os/common/ext/ARM/CMSIS/Core/Include/cmsis_gcc.h" 1
 310 0044 83F31188 		MSR basepri, r3
 311              	@ 0 "" 2
 312              		.thumb
 313              		.syntax unified
 314 0048 6006     		lsls	r0, r4, #25
 315 004a E5D5     		bpl	.L49
 316              	.L70:
 317 004c 3023     		movs	r3, #48
 318              		.syntax unified
 319              	@ 493 "/home/argroos/paparazzi/sw/ext/chibios/os/common/ext/ARM/CMSIS/Core/Include/cmsis_gcc.h" 1
 320 004e 83F31188 		MSR basepri, r3
 321              	@ 0 "" 2
 322              		.thumb
 323              		.syntax unified
 324 0052 FFF7FEFF 		bl	__stats_start_measure_crit_isr
 325 0056 2048     		ldr	r0, .L74+8
 326 0058 0021     		movs	r1, #0
 327 005a FFF7FEFF 		bl	chThdDequeueAllI
 328 005e FFF7FEFF 		bl	__stats_stop_measure_crit_isr
 329 0062 0023     		movs	r3, #0
 330              		.syntax unified
 331              	@ 493 "/home/argroos/paparazzi/sw/ext/chibios/os/common/ext/ARM/CMSIS/Core/Include/cmsis_gcc.h" 1
 332 0064 83F31188 		MSR basepri, r3
 333              	@ 0 "" 2
 334              		.thumb
 335              		.syntax unified
 336 0068 2106     		lsls	r1, r4, #24
 337 006a D7D5     		bpl	.L50
 338              	.L71:
 339 006c 3023     		movs	r3, #48
 340              		.syntax unified
 341              	@ 493 "/home/argroos/paparazzi/sw/ext/chibios/os/common/ext/ARM/CMSIS/Core/Include/cmsis_gcc.h" 1
 342 006e 83F31188 		MSR basepri, r3
ARM GAS  /tmp/ccjs9pfM.s 			page 7


 343              	@ 0 "" 2
 344              		.thumb
 345              		.syntax unified
 346 0072 FFF7FEFF 		bl	__stats_start_measure_crit_isr
 347 0076 1948     		ldr	r0, .L74+12
 348 0078 0021     		movs	r1, #0
 349 007a FFF7FEFF 		bl	chThdDequeueAllI
 350 007e FFF7FEFF 		bl	__stats_stop_measure_crit_isr
 351 0082 0023     		movs	r3, #0
 352              		.syntax unified
 353              	@ 493 "/home/argroos/paparazzi/sw/ext/chibios/os/common/ext/ARM/CMSIS/Core/Include/cmsis_gcc.h" 1
 354 0084 83F31188 		MSR basepri, r3
 355              	@ 0 "" 2
 356              		.thumb
 357              		.syntax unified
 358 0088 E205     		lsls	r2, r4, #23
 359 008a C9D5     		bpl	.L51
 360              	.L72:
 361 008c 3023     		movs	r3, #48
 362              		.syntax unified
 363              	@ 493 "/home/argroos/paparazzi/sw/ext/chibios/os/common/ext/ARM/CMSIS/Core/Include/cmsis_gcc.h" 1
 364 008e 83F31188 		MSR basepri, r3
 365              	@ 0 "" 2
 366              		.thumb
 367              		.syntax unified
 368 0092 FFF7FEFF 		bl	__stats_start_measure_crit_isr
 369 0096 1248     		ldr	r0, .L74+16
 370 0098 0021     		movs	r1, #0
 371 009a FFF7FEFF 		bl	chThdDequeueAllI
 372 009e FFF7FEFF 		bl	__stats_stop_measure_crit_isr
 373 00a2 0023     		movs	r3, #0
 374              		.syntax unified
 375              	@ 493 "/home/argroos/paparazzi/sw/ext/chibios/os/common/ext/ARM/CMSIS/Core/Include/cmsis_gcc.h" 1
 376 00a4 83F31188 		MSR basepri, r3
 377              	@ 0 "" 2
 378              		.thumb
 379              		.syntax unified
 380 00a8 A305     		lsls	r3, r4, #22
 381 00aa BBD5     		bpl	.L52
 382              	.L73:
 383 00ac 3023     		movs	r3, #48
 384              		.syntax unified
 385              	@ 493 "/home/argroos/paparazzi/sw/ext/chibios/os/common/ext/ARM/CMSIS/Core/Include/cmsis_gcc.h" 1
 386 00ae 83F31188 		MSR basepri, r3
 387              	@ 0 "" 2
 388              		.thumb
 389              		.syntax unified
 390 00b2 FFF7FEFF 		bl	__stats_start_measure_crit_isr
 391 00b6 0B48     		ldr	r0, .L74+20
 392 00b8 0021     		movs	r1, #0
 393 00ba FFF7FEFF 		bl	chThdDequeueAllI
 394 00be FFF7FEFF 		bl	__stats_stop_measure_crit_isr
 395 00c2 0023     		movs	r3, #0
 396              		.syntax unified
 397              	@ 493 "/home/argroos/paparazzi/sw/ext/chibios/os/common/ext/ARM/CMSIS/Core/Include/cmsis_gcc.h" 1
 398 00c4 83F31188 		MSR basepri, r3
 399              	@ 0 "" 2
ARM GAS  /tmp/ccjs9pfM.s 			page 8


 400              		.thumb
 401              		.syntax unified
 402 00c8 BDE81040 		pop	{r4, lr}
 403 00cc FFF7FEBF 		b	__port_irq_epilogue
 404              	.L75:
 405              		.align	2
 406              	.L74:
 407 00d0 003C0140 		.word	1073822720
 408 00d4 28000000 		.word	_pal_events+40
 409 00d8 30000000 		.word	_pal_events+48
 410 00dc 38000000 		.word	_pal_events+56
 411 00e0 40000000 		.word	_pal_events+64
 412 00e4 48000000 		.word	_pal_events+72
 413              		.size	Vector9C, .-Vector9C
 414              		.section	.text.VectorE0,"ax",%progbits
 415              		.align	1
 416              		.p2align 4,,15
 417              		.global	VectorE0
 418              		.syntax unified
 419              		.thumb
 420              		.thumb_func
 421              		.fpu fpv4-sp-d16
 422              		.type	VectorE0, %function
 423              	VectorE0:
 424              		@ args = 0, pretend = 0, frame = 0
 425              		@ frame_needed = 0, uses_anonymous_args = 0
 426 0000 10B5     		push	{r4, lr}
 427 0002 FFF7FEFF 		bl	__stats_increase_irq
 428 0006 3B4B     		ldr	r3, .L108
 429 0008 5C69     		ldr	r4, [r3, #20]
 430 000a 04F47C42 		and	r2, r4, #64512
 431 000e 5A61     		str	r2, [r3, #20]
 432 0010 6205     		lsls	r2, r4, #21
 433 0012 0DD4     		bmi	.L102
 434 0014 2305     		lsls	r3, r4, #20
 435 0016 1BD4     		bmi	.L103
 436              	.L78:
 437 0018 E004     		lsls	r0, r4, #19
 438 001a 29D4     		bmi	.L104
 439              	.L79:
 440 001c A104     		lsls	r1, r4, #18
 441 001e 37D4     		bmi	.L105
 442              	.L80:
 443 0020 6204     		lsls	r2, r4, #17
 444 0022 45D4     		bmi	.L106
 445              	.L81:
 446 0024 2304     		lsls	r3, r4, #16
 447 0026 53D4     		bmi	.L107
 448              	.L82:
 449 0028 BDE81040 		pop	{r4, lr}
 450 002c FFF7FEBF 		b	__port_irq_epilogue
 451              	.L102:
 452 0030 3023     		movs	r3, #48
 453              		.syntax unified
 454              	@ 493 "/home/argroos/paparazzi/sw/ext/chibios/os/common/ext/ARM/CMSIS/Core/Include/cmsis_gcc.h" 1
 455 0032 83F31188 		MSR basepri, r3
 456              	@ 0 "" 2
ARM GAS  /tmp/ccjs9pfM.s 			page 9


 457              		.thumb
 458              		.syntax unified
 459 0036 FFF7FEFF 		bl	__stats_start_measure_crit_isr
 460 003a 2F48     		ldr	r0, .L108+4
 461 003c 0021     		movs	r1, #0
 462 003e FFF7FEFF 		bl	chThdDequeueAllI
 463 0042 FFF7FEFF 		bl	__stats_stop_measure_crit_isr
 464 0046 0023     		movs	r3, #0
 465              		.syntax unified
 466              	@ 493 "/home/argroos/paparazzi/sw/ext/chibios/os/common/ext/ARM/CMSIS/Core/Include/cmsis_gcc.h" 1
 467 0048 83F31188 		MSR basepri, r3
 468              	@ 0 "" 2
 469              		.thumb
 470              		.syntax unified
 471 004c 2305     		lsls	r3, r4, #20
 472 004e E3D5     		bpl	.L78
 473              	.L103:
 474 0050 3023     		movs	r3, #48
 475              		.syntax unified
 476              	@ 493 "/home/argroos/paparazzi/sw/ext/chibios/os/common/ext/ARM/CMSIS/Core/Include/cmsis_gcc.h" 1
 477 0052 83F31188 		MSR basepri, r3
 478              	@ 0 "" 2
 479              		.thumb
 480              		.syntax unified
 481 0056 FFF7FEFF 		bl	__stats_start_measure_crit_isr
 482 005a 2848     		ldr	r0, .L108+8
 483 005c 0021     		movs	r1, #0
 484 005e FFF7FEFF 		bl	chThdDequeueAllI
 485 0062 FFF7FEFF 		bl	__stats_stop_measure_crit_isr
 486 0066 0023     		movs	r3, #0
 487              		.syntax unified
 488              	@ 493 "/home/argroos/paparazzi/sw/ext/chibios/os/common/ext/ARM/CMSIS/Core/Include/cmsis_gcc.h" 1
 489 0068 83F31188 		MSR basepri, r3
 490              	@ 0 "" 2
 491              		.thumb
 492              		.syntax unified
 493 006c E004     		lsls	r0, r4, #19
 494 006e D5D5     		bpl	.L79
 495              	.L104:
 496 0070 3023     		movs	r3, #48
 497              		.syntax unified
 498              	@ 493 "/home/argroos/paparazzi/sw/ext/chibios/os/common/ext/ARM/CMSIS/Core/Include/cmsis_gcc.h" 1
 499 0072 83F31188 		MSR basepri, r3
 500              	@ 0 "" 2
 501              		.thumb
 502              		.syntax unified
 503 0076 FFF7FEFF 		bl	__stats_start_measure_crit_isr
 504 007a 2148     		ldr	r0, .L108+12
 505 007c 0021     		movs	r1, #0
 506 007e FFF7FEFF 		bl	chThdDequeueAllI
 507 0082 FFF7FEFF 		bl	__stats_stop_measure_crit_isr
 508 0086 0023     		movs	r3, #0
 509              		.syntax unified
 510              	@ 493 "/home/argroos/paparazzi/sw/ext/chibios/os/common/ext/ARM/CMSIS/Core/Include/cmsis_gcc.h" 1
 511 0088 83F31188 		MSR basepri, r3
 512              	@ 0 "" 2
 513              		.thumb
ARM GAS  /tmp/ccjs9pfM.s 			page 10


 514              		.syntax unified
 515 008c A104     		lsls	r1, r4, #18
 516 008e C7D5     		bpl	.L80
 517              	.L105:
 518 0090 3023     		movs	r3, #48
 519              		.syntax unified
 520              	@ 493 "/home/argroos/paparazzi/sw/ext/chibios/os/common/ext/ARM/CMSIS/Core/Include/cmsis_gcc.h" 1
 521 0092 83F31188 		MSR basepri, r3
 522              	@ 0 "" 2
 523              		.thumb
 524              		.syntax unified
 525 0096 FFF7FEFF 		bl	__stats_start_measure_crit_isr
 526 009a 1A48     		ldr	r0, .L108+16
 527 009c 0021     		movs	r1, #0
 528 009e FFF7FEFF 		bl	chThdDequeueAllI
 529 00a2 FFF7FEFF 		bl	__stats_stop_measure_crit_isr
 530 00a6 0023     		movs	r3, #0
 531              		.syntax unified
 532              	@ 493 "/home/argroos/paparazzi/sw/ext/chibios/os/common/ext/ARM/CMSIS/Core/Include/cmsis_gcc.h" 1
 533 00a8 83F31188 		MSR basepri, r3
 534              	@ 0 "" 2
 535              		.thumb
 536              		.syntax unified
 537 00ac 6204     		lsls	r2, r4, #17
 538 00ae B9D5     		bpl	.L81
 539              	.L106:
 540 00b0 3023     		movs	r3, #48
 541              		.syntax unified
 542              	@ 493 "/home/argroos/paparazzi/sw/ext/chibios/os/common/ext/ARM/CMSIS/Core/Include/cmsis_gcc.h" 1
 543 00b2 83F31188 		MSR basepri, r3
 544              	@ 0 "" 2
 545              		.thumb
 546              		.syntax unified
 547 00b6 FFF7FEFF 		bl	__stats_start_measure_crit_isr
 548 00ba 1348     		ldr	r0, .L108+20
 549 00bc 0021     		movs	r1, #0
 550 00be FFF7FEFF 		bl	chThdDequeueAllI
 551 00c2 FFF7FEFF 		bl	__stats_stop_measure_crit_isr
 552 00c6 0023     		movs	r3, #0
 553              		.syntax unified
 554              	@ 493 "/home/argroos/paparazzi/sw/ext/chibios/os/common/ext/ARM/CMSIS/Core/Include/cmsis_gcc.h" 1
 555 00c8 83F31188 		MSR basepri, r3
 556              	@ 0 "" 2
 557              		.thumb
 558              		.syntax unified
 559 00cc 2304     		lsls	r3, r4, #16
 560 00ce ABD5     		bpl	.L82
 561              	.L107:
 562 00d0 3023     		movs	r3, #48
 563              		.syntax unified
 564              	@ 493 "/home/argroos/paparazzi/sw/ext/chibios/os/common/ext/ARM/CMSIS/Core/Include/cmsis_gcc.h" 1
 565 00d2 83F31188 		MSR basepri, r3
 566              	@ 0 "" 2
 567              		.thumb
 568              		.syntax unified
 569 00d6 FFF7FEFF 		bl	__stats_start_measure_crit_isr
 570 00da 0C48     		ldr	r0, .L108+24
ARM GAS  /tmp/ccjs9pfM.s 			page 11


 571 00dc 0021     		movs	r1, #0
 572 00de FFF7FEFF 		bl	chThdDequeueAllI
 573 00e2 FFF7FEFF 		bl	__stats_stop_measure_crit_isr
 574 00e6 0023     		movs	r3, #0
 575              		.syntax unified
 576              	@ 493 "/home/argroos/paparazzi/sw/ext/chibios/os/common/ext/ARM/CMSIS/Core/Include/cmsis_gcc.h" 1
 577 00e8 83F31188 		MSR basepri, r3
 578              	@ 0 "" 2
 579              		.thumb
 580              		.syntax unified
 581 00ec BDE81040 		pop	{r4, lr}
 582 00f0 FFF7FEBF 		b	__port_irq_epilogue
 583              	.L109:
 584              		.align	2
 585              	.L108:
 586 00f4 003C0140 		.word	1073822720
 587 00f8 50000000 		.word	_pal_events+80
 588 00fc 58000000 		.word	_pal_events+88
 589 0100 60000000 		.word	_pal_events+96
 590 0104 68000000 		.word	_pal_events+104
 591 0108 70000000 		.word	_pal_events+112
 592 010c 78000000 		.word	_pal_events+120
 593              		.size	VectorE0, .-VectorE0
 594              		.section	.text.VectorD4,"ax",%progbits
 595              		.align	1
 596              		.p2align 4,,15
 597              		.global	VectorD4
 598              		.syntax unified
 599              		.thumb
 600              		.thumb_func
 601              		.fpu fpv4-sp-d16
 602              		.type	VectorD4, %function
 603              	VectorD4:
 604              		@ args = 0, pretend = 0, frame = 0
 605              		@ frame_needed = 0, uses_anonymous_args = 0
 606 0000 08B5     		push	{r3, lr}
 607 0002 FFF7FEFF 		bl	__stats_increase_irq
 608 0006 0348     		ldr	r0, .L112
 609 0008 FFF7FEFF 		bl	sd_lld_serve_interrupt
 610 000c BDE80840 		pop	{r3, lr}
 611 0010 FFF7FEBF 		b	__port_irq_epilogue
 612              	.L113:
 613              		.align	2
 614              	.L112:
 615 0014 00000000 		.word	SD1
 616              		.size	VectorD4, .-VectorD4
 617              		.section	.text.Vector110,"ax",%progbits
 618              		.align	1
 619              		.p2align 4,,15
 620              		.global	Vector110
 621              		.syntax unified
 622              		.thumb
 623              		.thumb_func
 624              		.fpu fpv4-sp-d16
 625              		.type	Vector110, %function
 626              	Vector110:
 627              		@ args = 0, pretend = 0, frame = 0
ARM GAS  /tmp/ccjs9pfM.s 			page 12


 628              		@ frame_needed = 0, uses_anonymous_args = 0
 629 0000 08B5     		push	{r3, lr}
 630 0002 FFF7FEFF 		bl	__stats_increase_irq
 631 0006 0348     		ldr	r0, .L116
 632 0008 FFF7FEFF 		bl	sd_lld_serve_interrupt
 633 000c BDE80840 		pop	{r3, lr}
 634 0010 FFF7FEBF 		b	__port_irq_epilogue
 635              	.L117:
 636              		.align	2
 637              	.L116:
 638 0014 00000000 		.word	SD4
 639              		.size	Vector110, .-Vector110
 640              		.section	.text.Vector15C,"ax",%progbits
 641              		.align	1
 642              		.p2align 4,,15
 643              		.global	Vector15C
 644              		.syntax unified
 645              		.thumb
 646              		.thumb_func
 647              		.fpu fpv4-sp-d16
 648              		.type	Vector15C, %function
 649              	Vector15C:
 650              		@ args = 0, pretend = 0, frame = 0
 651              		@ frame_needed = 0, uses_anonymous_args = 0
 652 0000 08B5     		push	{r3, lr}
 653 0002 FFF7FEFF 		bl	__stats_increase_irq
 654 0006 0348     		ldr	r0, .L120
 655 0008 FFF7FEFF 		bl	sd_lld_serve_interrupt
 656 000c BDE80840 		pop	{r3, lr}
 657 0010 FFF7FEBF 		b	__port_irq_epilogue
 658              	.L121:
 659              		.align	2
 660              	.L120:
 661 0014 00000000 		.word	SD6
 662              		.size	Vector15C, .-Vector15C
 663              		.section	.text.VectorA0,"ax",%progbits
 664              		.align	1
 665              		.p2align 4,,15
 666              		.global	VectorA0
 667              		.syntax unified
 668              		.thumb
 669              		.thumb_func
 670              		.fpu fpv4-sp-d16
 671              		.type	VectorA0, %function
 672              	VectorA0:
 673              		@ args = 0, pretend = 0, frame = 0
 674              		@ frame_needed = 0, uses_anonymous_args = 0
 675 0000 08B5     		push	{r3, lr}
 676 0002 FFF7FEFF 		bl	__stats_increase_irq
 677 0006 BDE80840 		pop	{r3, lr}
 678 000a FFF7FEBF 		b	__port_irq_epilogue
 679              		.size	VectorA0, .-VectorA0
 680 000e 00BF     		.section	.text.VectorA4,"ax",%progbits
 681              		.align	1
 682              		.p2align 4,,15
 683              		.global	VectorA4
 684              		.syntax unified
ARM GAS  /tmp/ccjs9pfM.s 			page 13


 685              		.thumb
 686              		.thumb_func
 687              		.fpu fpv4-sp-d16
 688              		.type	VectorA4, %function
 689              	VectorA4:
 690              		@ args = 0, pretend = 0, frame = 0
 691              		@ frame_needed = 0, uses_anonymous_args = 0
 692 0000 08B5     		push	{r3, lr}
 693 0002 FFF7FEFF 		bl	__stats_increase_irq
 694 0006 0348     		ldr	r0, .L126
 695 0008 FFF7FEFF 		bl	icu_lld_serve_interrupt
 696 000c BDE80840 		pop	{r3, lr}
 697 0010 FFF7FEBF 		b	__port_irq_epilogue
 698              	.L127:
 699              		.align	2
 700              	.L126:
 701 0014 00000000 		.word	ICUD1
 702              		.size	VectorA4, .-VectorA4
 703              		.section	.text.VectorA8,"ax",%progbits
 704              		.align	1
 705              		.p2align 4,,15
 706              		.global	VectorA8
 707              		.syntax unified
 708              		.thumb
 709              		.thumb_func
 710              		.fpu fpv4-sp-d16
 711              		.type	VectorA8, %function
 712              	VectorA8:
 713              		@ args = 0, pretend = 0, frame = 0
 714              		@ frame_needed = 0, uses_anonymous_args = 0
 715 0000 08B5     		push	{r3, lr}
 716 0002 FFF7FEFF 		bl	__stats_increase_irq
 717 0006 BDE80840 		pop	{r3, lr}
 718 000a FFF7FEBF 		b	__port_irq_epilogue
 719              		.size	VectorA8, .-VectorA8
 720 000e 00BF     		.section	.text.VectorAC,"ax",%progbits
 721              		.align	1
 722              		.p2align 4,,15
 723              		.global	VectorAC
 724              		.syntax unified
 725              		.thumb
 726              		.thumb_func
 727              		.fpu fpv4-sp-d16
 728              		.type	VectorAC, %function
 729              	VectorAC:
 730              		@ args = 0, pretend = 0, frame = 0
 731              		@ frame_needed = 0, uses_anonymous_args = 0
 732 0000 08B5     		push	{r3, lr}
 733 0002 FFF7FEFF 		bl	__stats_increase_irq
 734 0006 0348     		ldr	r0, .L132
 735 0008 FFF7FEFF 		bl	icu_lld_serve_interrupt
 736 000c BDE80840 		pop	{r3, lr}
 737 0010 FFF7FEBF 		b	__port_irq_epilogue
 738              	.L133:
 739              		.align	2
 740              	.L132:
 741 0014 00000000 		.word	ICUD1
ARM GAS  /tmp/ccjs9pfM.s 			page 14


 742              		.size	VectorAC, .-VectorAC
 743              		.section	.text.VectorB0,"ax",%progbits
 744              		.align	1
 745              		.p2align 4,,15
 746              		.global	VectorB0
 747              		.syntax unified
 748              		.thumb
 749              		.thumb_func
 750              		.fpu fpv4-sp-d16
 751              		.type	VectorB0, %function
 752              	VectorB0:
 753              		@ args = 0, pretend = 0, frame = 0
 754              		@ frame_needed = 0, uses_anonymous_args = 0
 755 0000 08B5     		push	{r3, lr}
 756 0002 FFF7FEFF 		bl	__stats_increase_irq
 757 0006 0348     		ldr	r0, .L136
 758 0008 FFF7FEFF 		bl	pwm_lld_serve_interrupt
 759 000c BDE80840 		pop	{r3, lr}
 760 0010 FFF7FEBF 		b	__port_irq_epilogue
 761              	.L137:
 762              		.align	2
 763              	.L136:
 764 0014 00000000 		.word	PWMD2
 765              		.size	VectorB0, .-VectorB0
 766              		.section	.text.VectorB4,"ax",%progbits
 767              		.align	1
 768              		.p2align 4,,15
 769              		.global	VectorB4
 770              		.syntax unified
 771              		.thumb
 772              		.thumb_func
 773              		.fpu fpv4-sp-d16
 774              		.type	VectorB4, %function
 775              	VectorB4:
 776              		@ args = 0, pretend = 0, frame = 0
 777              		@ frame_needed = 0, uses_anonymous_args = 0
 778 0000 08B5     		push	{r3, lr}
 779 0002 FFF7FEFF 		bl	__stats_increase_irq
 780 0006 0348     		ldr	r0, .L140
 781 0008 FFF7FEFF 		bl	pwm_lld_serve_interrupt
 782 000c BDE80840 		pop	{r3, lr}
 783 0010 FFF7FEBF 		b	__port_irq_epilogue
 784              	.L141:
 785              		.align	2
 786              	.L140:
 787 0014 00000000 		.word	PWMD3
 788              		.size	VectorB4, .-VectorB4
 789              		.section	.text.Vector108,"ax",%progbits
 790              		.align	1
 791              		.p2align 4,,15
 792              		.global	Vector108
 793              		.syntax unified
 794              		.thumb
 795              		.thumb_func
 796              		.fpu fpv4-sp-d16
 797              		.type	Vector108, %function
 798              	Vector108:
ARM GAS  /tmp/ccjs9pfM.s 			page 15


 799              		@ args = 0, pretend = 0, frame = 0
 800              		@ frame_needed = 0, uses_anonymous_args = 0
 801 0000 08B5     		push	{r3, lr}
 802 0002 FFF7FEFF 		bl	__stats_increase_irq
 803 0006 0348     		ldr	r0, .L144
 804 0008 FFF7FEFF 		bl	icu_lld_serve_interrupt
 805 000c BDE80840 		pop	{r3, lr}
 806 0010 FFF7FEBF 		b	__port_irq_epilogue
 807              	.L145:
 808              		.align	2
 809              	.L144:
 810 0014 00000000 		.word	ICUD5
 811              		.size	Vector108, .-Vector108
 812              		.section	.text.irqInit,"ax",%progbits
 813              		.align	1
 814              		.p2align 4,,15
 815              		.global	irqInit
 816              		.syntax unified
 817              		.thumb
 818              		.thumb_func
 819              		.fpu fpv4-sp-d16
 820              		.type	irqInit, %function
 821              	irqInit:
 822              		@ args = 0, pretend = 0, frame = 0
 823              		@ frame_needed = 0, uses_anonymous_args = 0
 824 0000 0621     		movs	r1, #6
 825 0002 08B5     		push	{r3, lr}
 826 0004 0846     		mov	r0, r1
 827 0006 FFF7FEFF 		bl	nvicEnableVector
 828 000a 0621     		movs	r1, #6
 829 000c 0720     		movs	r0, #7
 830 000e FFF7FEFF 		bl	nvicEnableVector
 831 0012 0621     		movs	r1, #6
 832 0014 0820     		movs	r0, #8
 833 0016 FFF7FEFF 		bl	nvicEnableVector
 834 001a 0621     		movs	r1, #6
 835 001c 0920     		movs	r0, #9
 836 001e FFF7FEFF 		bl	nvicEnableVector
 837 0022 0621     		movs	r1, #6
 838 0024 0A20     		movs	r0, #10
 839 0026 FFF7FEFF 		bl	nvicEnableVector
 840 002a 0621     		movs	r1, #6
 841 002c 1720     		movs	r0, #23
 842 002e FFF7FEFF 		bl	nvicEnableVector
 843 0032 0621     		movs	r1, #6
 844 0034 2820     		movs	r0, #40
 845 0036 FFF7FEFF 		bl	nvicEnableVector
 846 003a 0721     		movs	r1, #7
 847 003c 1820     		movs	r0, #24
 848 003e FFF7FEFF 		bl	nvicEnableVector
 849 0042 0721     		movs	r1, #7
 850 0044 1920     		movs	r0, #25
 851 0046 FFF7FEFF 		bl	nvicEnableVector
 852 004a 0721     		movs	r1, #7
 853 004c 1A20     		movs	r0, #26
 854 004e FFF7FEFF 		bl	nvicEnableVector
 855 0052 0721     		movs	r1, #7
ARM GAS  /tmp/ccjs9pfM.s 			page 16


 856 0054 1B20     		movs	r0, #27
 857 0056 FFF7FEFF 		bl	nvicEnableVector
 858 005a 0721     		movs	r1, #7
 859 005c 1C20     		movs	r0, #28
 860 005e FFF7FEFF 		bl	nvicEnableVector
 861 0062 0721     		movs	r1, #7
 862 0064 1D20     		movs	r0, #29
 863 0066 FFF7FEFF 		bl	nvicEnableVector
 864 006a 0721     		movs	r1, #7
 865 006c 3220     		movs	r0, #50
 866 006e FFF7FEFF 		bl	nvicEnableVector
 867 0072 0C21     		movs	r1, #12
 868 0074 2520     		movs	r0, #37
 869 0076 FFF7FEFF 		bl	nvicEnableVector
 870 007a 0C21     		movs	r1, #12
 871 007c 3420     		movs	r0, #52
 872 007e FFF7FEFF 		bl	nvicEnableVector
 873 0082 BDE80840 		pop	{r3, lr}
 874 0086 0C21     		movs	r1, #12
 875 0088 4720     		movs	r0, #71
 876 008a FFF7FEBF 		b	nvicEnableVector
 877              		.size	irqInit, .-irqInit
 878 008e 00BF     		.section	.text.irqDeinit,"ax",%progbits
 879              		.align	1
 880              		.p2align 4,,15
 881              		.global	irqDeinit
 882              		.syntax unified
 883              		.thumb
 884              		.thumb_func
 885              		.fpu fpv4-sp-d16
 886              		.type	irqDeinit, %function
 887              	irqDeinit:
 888              		@ args = 0, pretend = 0, frame = 0
 889              		@ frame_needed = 0, uses_anonymous_args = 0
 890 0000 08B5     		push	{r3, lr}
 891 0002 0620     		movs	r0, #6
 892 0004 FFF7FEFF 		bl	nvicDisableVector
 893 0008 0720     		movs	r0, #7
 894 000a FFF7FEFF 		bl	nvicDisableVector
 895 000e 0820     		movs	r0, #8
 896 0010 FFF7FEFF 		bl	nvicDisableVector
 897 0014 0920     		movs	r0, #9
 898 0016 FFF7FEFF 		bl	nvicDisableVector
 899 001a 0A20     		movs	r0, #10
 900 001c FFF7FEFF 		bl	nvicDisableVector
 901 0020 1720     		movs	r0, #23
 902 0022 FFF7FEFF 		bl	nvicDisableVector
 903 0026 2820     		movs	r0, #40
 904 0028 FFF7FEFF 		bl	nvicDisableVector
 905 002c 1820     		movs	r0, #24
 906 002e FFF7FEFF 		bl	nvicDisableVector
 907 0032 1920     		movs	r0, #25
 908 0034 FFF7FEFF 		bl	nvicDisableVector
 909 0038 1A20     		movs	r0, #26
 910 003a FFF7FEFF 		bl	nvicDisableVector
 911 003e 1B20     		movs	r0, #27
 912 0040 FFF7FEFF 		bl	nvicDisableVector
ARM GAS  /tmp/ccjs9pfM.s 			page 17


 913 0044 1C20     		movs	r0, #28
 914 0046 FFF7FEFF 		bl	nvicDisableVector
 915 004a 1D20     		movs	r0, #29
 916 004c FFF7FEFF 		bl	nvicDisableVector
 917 0050 3220     		movs	r0, #50
 918 0052 FFF7FEFF 		bl	nvicDisableVector
 919 0056 2520     		movs	r0, #37
 920 0058 FFF7FEFF 		bl	nvicDisableVector
 921 005c 3420     		movs	r0, #52
 922 005e FFF7FEFF 		bl	nvicDisableVector
 923 0062 BDE80840 		pop	{r3, lr}
 924 0066 4720     		movs	r0, #71
 925 0068 FFF7FEBF 		b	nvicDisableVector
 926              		.size	irqDeinit, .-irqDeinit
 927              		.ident	"GCC: (15:10.3-2021.07-4) 10.3.1 20210621 (release)"
ARM GAS  /tmp/ccjs9pfM.s 			page 18

