ARM GAS  /tmp/cc3o9UFo.s 			page 1


   1              		.cpu cortex-m4
   2              		.eabi_attribute 27, 1
   3              		.eabi_attribute 20, 1
   4              		.eabi_attribute 21, 1
   5              		.eabi_attribute 23, 3
   6              		.eabi_attribute 24, 1
   7              		.eabi_attribute 25, 1
   8              		.eabi_attribute 26, 1
   9              		.eabi_attribute 30, 2
  10              		.eabi_attribute 34, 1
  11              		.eabi_attribute 18, 4
  12              		.file	"sys_time.c"
  13              		.text
  14              		.global	__aeabi_f2d
  15              		.global	__aeabi_dadd
  16              		.global	__aeabi_d2uiz
  17              		.section	.text.sys_time_register_timer,"ax",%progbits
  18              		.align	1
  19              		.p2align 4,,15
  20              		.global	sys_time_register_timer
  21              		.arch armv7e-m
  22              		.syntax unified
  23              		.thumb
  24              		.thumb_func
  25              		.fpu fpv4-sp-d16
  26              		.type	sys_time_register_timer, %function
  27              	sys_time_register_timer:
  28              		@ args = 0, pretend = 0, frame = 0
  29              		@ frame_needed = 0, uses_anonymous_args = 0
  30 0000 F8B5     		push	{r3, r4, r5, r6, r7, lr}
  31 0002 174E     		ldr	r6, .L9
  32 0004 07EE900A 		vmov	s15, r0
  33 0008 B768     		ldr	r7, [r6, #8]
  34 000a 3246     		mov	r2, r6
  35 000c 0023     		movs	r3, #0
  36              	.L4:
  37 000e 107B     		ldrb	r0, [r2, #12]	@ zero_extendqisi2
  38 0010 5DB2     		sxtb	r5, r3
  39 0012 1432     		adds	r2, r2, #20
  40 0014 30B1     		cbz	r0, .L8
  41 0016 0133     		adds	r3, r3, #1
  42 0018 102B     		cmp	r3, #16
  43 001a F8D1     		bne	.L4
  44 001c 4FF0FF35 		mov	r5, #-1
  45 0020 2846     		mov	r0, r5
  46 0022 F8BD     		pop	{r3, r4, r5, r6, r7, pc}
  47              	.L8:
  48 0024 96ED547A 		vldr.32	s14, [r6, #336]	@ int
  49 0028 B8EE477A 		vcvt.f32.u32	s14, s14
  50 002c 03EB8303 		add	r3, r3, r3, lsl #2
  51 0030 06EB8304 		add	r4, r6, r3, lsl #2
  52 0034 67EE277A 		vmul.f32	s15, s14, s15
  53 0038 2075     		strb	r0, [r4, #20]
  54 003a 2161     		str	r1, [r4, #16]
  55 003c 17EE900A 		vmov	r0, s15
  56 0040 FFF7FEFF 		bl	__aeabi_f2d
  57 0044 074B     		ldr	r3, .L9+4
ARM GAS  /tmp/cc3o9UFo.s 			page 2


  58 0046 0022     		movs	r2, #0
  59 0048 FFF7FEFF 		bl	__aeabi_dadd
  60 004c FFF7FEFF 		bl	__aeabi_d2uiz
  61 0050 0123     		movs	r3, #1
  62 0052 0744     		add	r7, r7, r0
  63 0054 C4E90670 		strd	r7, r0, [r4, #24]
  64 0058 2373     		strb	r3, [r4, #12]
  65 005a 2846     		mov	r0, r5
  66 005c F8BD     		pop	{r3, r4, r5, r6, r7, pc}
  67              	.L10:
  68 005e 00BF     		.align	2
  69              	.L9:
  70 0060 00000000 		.word	.LANCHOR0
  71 0064 0000E03F 		.word	1071644672
  72              		.size	sys_time_register_timer, .-sys_time_register_timer
  73              		.section	.text.sys_time_register_timer_offset,"ax",%progbits
  74              		.align	1
  75              		.p2align 4,,15
  76              		.global	sys_time_register_timer_offset
  77              		.syntax unified
  78              		.thumb
  79              		.thumb_func
  80              		.fpu fpv4-sp-d16
  81              		.type	sys_time_register_timer_offset, %function
  82              	sys_time_register_timer_offset:
  83              		@ args = 0, pretend = 0, frame = 0
  84              		@ frame_needed = 0, uses_anonymous_args = 0
  85 0000 C3B2     		uxtb	r3, r0
  86 0002 0F2B     		cmp	r3, #15
  87 0004 2DE9F041 		push	{r4, r5, r6, r7, r8, lr}
  88 0008 0FD8     		bhi	.L15
  89 000a DFF87480 		ldr	r8, .L19+4
  90 000e 07EE901A 		vmov	s15, r1
  91 0012 0746     		mov	r7, r0
  92 0014 0023     		movs	r3, #0
  93 0016 4146     		mov	r1, r8
  94              	.L14:
  95 0018 0D7B     		ldrb	r5, [r1, #12]	@ zero_extendqisi2
  96 001a 5EB2     		sxtb	r6, r3
  97 001c 1431     		adds	r1, r1, #20
  98 001e 0DB9     		cbnz	r5, .L13
  99 0020 B742     		cmp	r7, r6
 100 0022 07DB     		blt	.L18
 101              	.L13:
 102 0024 0133     		adds	r3, r3, #1
 103 0026 102B     		cmp	r3, #16
 104 0028 F6D1     		bne	.L14
 105              	.L15:
 106 002a 4FF0FF36 		mov	r6, #-1
 107 002e 3046     		mov	r0, r6
 108 0030 BDE8F081 		pop	{r4, r5, r6, r7, r8, pc}
 109              	.L18:
 110 0034 98ED547A 		vldr.32	s14, [r8, #336]	@ int
 111 0038 B8EE477A 		vcvt.f32.u32	s14, s14
 112 003c 03EB8303 		add	r3, r3, r3, lsl #2
 113 0040 08EB8304 		add	r4, r8, r3, lsl #2
 114 0044 67EE277A 		vmul.f32	s15, s14, s15
ARM GAS  /tmp/cc3o9UFo.s 			page 3


 115 0048 2261     		str	r2, [r4, #16]
 116 004a 17EE900A 		vmov	r0, s15
 117 004e 2575     		strb	r5, [r4, #20]
 118 0050 FFF7FEFF 		bl	__aeabi_f2d
 119 0054 07EB8707 		add	r7, r7, r7, lsl #2
 120 0058 084B     		ldr	r3, .L19
 121 005a 0022     		movs	r2, #0
 122 005c FFF7FEFF 		bl	__aeabi_dadd
 123 0060 08EB8707 		add	r7, r8, r7, lsl #2
 124 0064 FFF7FEFF 		bl	__aeabi_d2uiz
 125 0068 D7E90632 		ldrd	r3, r2, [r7, #24]
 126 006c 1844     		add	r0, r0, r3
 127 006e 0123     		movs	r3, #1
 128 0070 C4E90602 		strd	r0, r2, [r4, #24]
 129 0074 2373     		strb	r3, [r4, #12]
 130 0076 3046     		mov	r0, r6
 131 0078 BDE8F081 		pop	{r4, r5, r6, r7, r8, pc}
 132              	.L20:
 133              		.align	2
 134              	.L19:
 135 007c 0000E03F 		.word	1071644672
 136 0080 00000000 		.word	.LANCHOR0
 137              		.size	sys_time_register_timer_offset, .-sys_time_register_timer_offset
 138              		.section	.text.sys_time_cancel_timer,"ax",%progbits
 139              		.align	1
 140              		.p2align 4,,15
 141              		.global	sys_time_cancel_timer
 142              		.syntax unified
 143              		.thumb
 144              		.thumb_func
 145              		.fpu fpv4-sp-d16
 146              		.type	sys_time_cancel_timer, %function
 147              	sys_time_cancel_timer:
 148              		@ args = 0, pretend = 0, frame = 0
 149              		@ frame_needed = 0, uses_anonymous_args = 0
 150              		@ link register save eliminated.
 151 0000 054B     		ldr	r3, .L22
 152 0002 00EB8000 		add	r0, r0, r0, lsl #2
 153 0006 03EB8000 		add	r0, r3, r0, lsl #2
 154 000a 0023     		movs	r3, #0
 155 000c C0E90633 		strd	r3, r3, [r0, #24]
 156 0010 0373     		strb	r3, [r0, #12]
 157 0012 0361     		str	r3, [r0, #16]
 158 0014 0375     		strb	r3, [r0, #20]
 159 0016 7047     		bx	lr
 160              	.L23:
 161              		.align	2
 162              	.L22:
 163 0018 00000000 		.word	.LANCHOR0
 164              		.size	sys_time_cancel_timer, .-sys_time_cancel_timer
 165              		.section	.text.sys_time_update_timer,"ax",%progbits
 166              		.align	1
 167              		.p2align 4,,15
 168              		.global	sys_time_update_timer
 169              		.syntax unified
 170              		.thumb
 171              		.thumb_func
ARM GAS  /tmp/cc3o9UFo.s 			page 4


 172              		.fpu fpv4-sp-d16
 173              		.type	sys_time_update_timer, %function
 174              	sys_time_update_timer:
 175              		@ args = 0, pretend = 0, frame = 0
 176              		@ frame_needed = 0, uses_anonymous_args = 0
 177 0000 38B5     		push	{r3, r4, r5, lr}
 178 0002 0F4C     		ldr	r4, .L26
 179 0004 D4ED547A 		vldr.32	s15, [r4, #336]	@ int
 180 0008 07EE101A 		vmov	s14, r1
 181 000c F8EE677A 		vcvt.f32.u32	s15, s15
 182 0010 0546     		mov	r5, r0
 183 0012 67EE877A 		vmul.f32	s15, s15, s14
 184 0016 05EB8505 		add	r5, r5, r5, lsl #2
 185 001a 17EE900A 		vmov	r0, s15
 186 001e FFF7FEFF 		bl	__aeabi_f2d
 187 0022 084B     		ldr	r3, .L26+4
 188 0024 0022     		movs	r2, #0
 189 0026 FFF7FEFF 		bl	__aeabi_dadd
 190 002a FFF7FEFF 		bl	__aeabi_d2uiz
 191 002e 04EB8503 		add	r3, r4, r5, lsl #2
 192 0032 D3E90621 		ldrd	r2, r1, [r3, #24]
 193 0036 0244     		add	r2, r2, r0
 194 0038 521A     		subs	r2, r2, r1
 195 003a C3E90620 		strd	r2, r0, [r3, #24]
 196 003e 38BD     		pop	{r3, r4, r5, pc}
 197              	.L27:
 198              		.align	2
 199              	.L26:
 200 0040 00000000 		.word	.LANCHOR0
 201 0044 0000E03F 		.word	1071644672
 202              		.size	sys_time_update_timer, .-sys_time_update_timer
 203              		.section	.text.sys_time_init,"ax",%progbits
 204              		.align	1
 205              		.p2align 4,,15
 206              		.global	sys_time_init
 207              		.syntax unified
 208              		.thumb
 209              		.thumb_func
 210              		.fpu fpv4-sp-d16
 211              		.type	sys_time_init, %function
 212              	sys_time_init:
 213              		@ args = 0, pretend = 0, frame = 0
 214              		@ frame_needed = 0, uses_anonymous_args = 0
 215              		@ link register save eliminated.
 216 0000 0023     		movs	r3, #0
 217 0002 10B4     		push	{r4}
 218 0004 0F4C     		ldr	r4, .L32
 219 0006 1049     		ldr	r1, .L32+4
 220 0008 2360     		str	r3, [r4]
 221 000a 1A46     		mov	r2, r3
 222 000c C820     		movs	r0, #200
 223 000e 6360     		str	r3, [r4, #4]
 224 0010 C4F84C11 		str	r1, [r4, #332]	@ float
 225 0014 A360     		str	r3, [r4, #8]
 226 0016 C4F85001 		str	r0, [r4, #336]
 227 001a 2346     		mov	r3, r4
 228 001c 1146     		mov	r1, r2
ARM GAS  /tmp/cc3o9UFo.s 			page 5


 229              	.L29:
 230 001e 02EB8200 		add	r0, r2, r2, lsl #2
 231 0022 04EB8000 		add	r0, r4, r0, lsl #2
 232 0026 0132     		adds	r2, r2, #1
 233 0028 1973     		strb	r1, [r3, #12]
 234 002a 1961     		str	r1, [r3, #16]
 235 002c 102A     		cmp	r2, #16
 236 002e 03F11403 		add	r3, r3, #20
 237 0032 0175     		strb	r1, [r0, #20]
 238 0034 C3E90111 		strd	r1, r1, [r3, #4]
 239 0038 F1D1     		bne	.L29
 240 003a 5DF8044B 		ldr	r4, [sp], #4
 241 003e FFF7FEBF 		b	sys_time_arch_init
 242              	.L33:
 243 0042 00BF     		.align	2
 244              	.L32:
 245 0044 00000000 		.word	.LANCHOR0
 246 0048 0AD7A33B 		.word	1000593162
 247              		.size	sys_time_init, .-sys_time_init
 248              		.global	sys_time
 249              		.section	.bss.sys_time,"aw",%nobits
 250              		.align	2
 251              		.set	.LANCHOR0,. + 0
 252              		.type	sys_time, %object
 253              		.size	sys_time, 348
 254              	sys_time:
 255 0000 00000000 		.space	348
 255      00000000 
 255      00000000 
 255      00000000 
 255      00000000 
 256              		.ident	"GCC: (15:10.3-2021.07-4) 10.3.1 20210621 (release)"
ARM GAS  /tmp/cc3o9UFo.s 			page 6

