ARM GAS  /tmp/ccfgJLIU.s 			page 1


   1              		.cpu cortex-m4
   2              		.eabi_attribute 27, 1
   3              		.eabi_attribute 20, 1
   4              		.eabi_attribute 21, 1
   5              		.eabi_attribute 23, 3
   6              		.eabi_attribute 24, 1
   7              		.eabi_attribute 25, 1
   8              		.eabi_attribute 26, 1
   9              		.eabi_attribute 30, 2
  10              		.eabi_attribute 34, 1
  11              		.eabi_attribute 18, 4
  12              		.file	"syscalls.c"
  13              		.text
  14              		.section	.text._read_r,"ax",%progbits
  15              		.align	1
  16              		.p2align 4,,15
  17              		.global	_read_r
  18              		.arch armv7e-m
  19              		.syntax unified
  20              		.thumb
  21              		.thumb_func
  22              		.fpu fpv4-sp-d16
  23              		.type	_read_r, %function
  24              	_read_r:
  25              		@ args = 0, pretend = 0, frame = 0
  26              		@ frame_needed = 0, uses_anonymous_args = 0
  27              		@ link register save eliminated.
  28 0000 1623     		movs	r3, #22
  29 0002 0360     		str	r3, [r0]
  30 0004 4FF0FF30 		mov	r0, #-1
  31 0008 7047     		bx	lr
  32              		.size	_read_r, .-_read_r
  33 000a 00BF     		.section	.text._lseek_r,"ax",%progbits
  34              		.align	1
  35              		.p2align 4,,15
  36              		.global	_lseek_r
  37              		.syntax unified
  38              		.thumb
  39              		.thumb_func
  40              		.fpu fpv4-sp-d16
  41              		.type	_lseek_r, %function
  42              	_lseek_r:
  43              		@ args = 0, pretend = 0, frame = 0
  44              		@ frame_needed = 0, uses_anonymous_args = 0
  45              		@ link register save eliminated.
  46 0000 0020     		movs	r0, #0
  47 0002 7047     		bx	lr
  48              		.size	_lseek_r, .-_lseek_r
  49              		.section	.text._write_r,"ax",%progbits
  50              		.align	1
  51              		.p2align 4,,15
  52              		.global	_write_r
  53              		.syntax unified
  54              		.thumb
  55              		.thumb_func
  56              		.fpu fpv4-sp-d16
  57              		.type	_write_r, %function
ARM GAS  /tmp/ccfgJLIU.s 			page 2


  58              	_write_r:
  59              		@ args = 0, pretend = 0, frame = 0
  60              		@ frame_needed = 0, uses_anonymous_args = 0
  61              		@ link register save eliminated.
  62 0000 1846     		mov	r0, r3
  63 0002 7047     		bx	lr
  64              		.size	_write_r, .-_write_r
  65              		.section	.text._open_r,"ax",%progbits
  66              		.align	1
  67              		.p2align 4,,15
  68              		.global	_open_r
  69              		.syntax unified
  70              		.thumb
  71              		.thumb_func
  72              		.fpu fpv4-sp-d16
  73              		.type	_open_r, %function
  74              	_open_r:
  75              		@ args = 0, pretend = 0, frame = 0
  76              		@ frame_needed = 0, uses_anonymous_args = 0
  77              		@ link register save eliminated.
  78 0000 1623     		movs	r3, #22
  79 0002 0360     		str	r3, [r0]
  80 0004 4FF0FF30 		mov	r0, #-1
  81 0008 7047     		bx	lr
  82              		.size	_open_r, .-_open_r
  83 000a 00BF     		.section	.text._close_r,"ax",%progbits
  84              		.align	1
  85              		.p2align 4,,15
  86              		.global	_close_r
  87              		.syntax unified
  88              		.thumb
  89              		.thumb_func
  90              		.fpu fpv4-sp-d16
  91              		.type	_close_r, %function
  92              	_close_r:
  93              		@ args = 0, pretend = 0, frame = 0
  94              		@ frame_needed = 0, uses_anonymous_args = 0
  95              		@ link register save eliminated.
  96 0000 0020     		movs	r0, #0
  97 0002 7047     		bx	lr
  98              		.size	_close_r, .-_close_r
  99              		.section	.text._sbrk_r,"ax",%progbits
 100              		.align	1
 101              		.p2align 4,,15
 102              		.global	_sbrk_r
 103              		.syntax unified
 104              		.thumb
 105              		.thumb_func
 106              		.fpu fpv4-sp-d16
 107              		.type	_sbrk_r, %function
 108              	_sbrk_r:
 109              		@ args = 0, pretend = 0, frame = 0
 110              		@ frame_needed = 0, uses_anonymous_args = 0
 111 0000 10B5     		push	{r4, lr}
 112 0002 0C46     		mov	r4, r1
 113 0004 0346     		mov	r3, r0
 114 0006 0022     		movs	r2, #0
ARM GAS  /tmp/ccfgJLIU.s 			page 3


 115 0008 2046     		mov	r0, r4
 116 000a 0121     		movs	r1, #1
 117 000c 1C46     		mov	r4, r3
 118 000e FFF7FEFF 		bl	chCoreAllocFromBase
 119 0012 00B1     		cbz	r0, .L10
 120 0014 10BD     		pop	{r4, pc}
 121              	.L10:
 122 0016 0C23     		movs	r3, #12
 123 0018 2360     		str	r3, [r4]
 124 001a 4FF0FF30 		mov	r0, #-1
 125 001e 10BD     		pop	{r4, pc}
 126              		.size	_sbrk_r, .-_sbrk_r
 127              		.section	.text._fstat_r,"ax",%progbits
 128              		.align	1
 129              		.p2align 4,,15
 130              		.global	_fstat_r
 131              		.syntax unified
 132              		.thumb
 133              		.thumb_func
 134              		.fpu fpv4-sp-d16
 135              		.type	_fstat_r, %function
 136              	_fstat_r:
 137              		@ args = 0, pretend = 0, frame = 0
 138              		@ frame_needed = 0, uses_anonymous_args = 0
 139 0000 08B5     		push	{r3, lr}
 140 0002 1346     		mov	r3, r2
 141 0004 0021     		movs	r1, #0
 142 0006 5822     		movs	r2, #88
 143 0008 1846     		mov	r0, r3
 144 000a FFF7FEFF 		bl	memset
 145 000e 4FF40052 		mov	r2, #8192
 146 0012 4260     		str	r2, [r0, #4]
 147 0014 0020     		movs	r0, #0
 148 0016 08BD     		pop	{r3, pc}
 149              		.size	_fstat_r, .-_fstat_r
 150              		.section	.text._isatty_r,"ax",%progbits
 151              		.align	1
 152              		.p2align 4,,15
 153              		.global	_isatty_r
 154              		.syntax unified
 155              		.thumb
 156              		.thumb_func
 157              		.fpu fpv4-sp-d16
 158              		.type	_isatty_r, %function
 159              	_isatty_r:
 160              		@ args = 0, pretend = 0, frame = 0
 161              		@ frame_needed = 0, uses_anonymous_args = 0
 162              		@ link register save eliminated.
 163 0000 0120     		movs	r0, #1
 164 0002 7047     		bx	lr
 165              		.size	_isatty_r, .-_isatty_r
 166              		.section	.rodata._exit.str1.4,"aMS",%progbits,1
 167              		.align	2
 168              	.LC0:
 169 0000 65786974 		.ascii	"exit\000"
 169      00
 170              		.section	.text._exit,"ax",%progbits
ARM GAS  /tmp/ccfgJLIU.s 			page 4


 171              		.align	1
 172              		.p2align 4,,15
 173              		.global	_exit
 174              		.syntax unified
 175              		.thumb
 176              		.thumb_func
 177              		.fpu fpv4-sp-d16
 178              		.type	_exit, %function
 179              	_exit:
 180              		@ Volatile: function does not return.
 181              		@ args = 0, pretend = 0, frame = 0
 182              		@ frame_needed = 0, uses_anonymous_args = 0
 183 0000 08B5     		push	{r3, lr}
 184 0002 0248     		ldr	r0, .L16
 185 0004 FFF7FEFF 		bl	chSysHalt
 186 0008 FFF7FEFF 		bl	abort
 187              	.L17:
 188              		.align	2
 189              	.L16:
 190 000c 00000000 		.word	.LC0
 191              		.size	_exit, .-_exit
 192              		.section	.rodata._kill.str1.4,"aMS",%progbits,1
 193              		.align	2
 194              	.LC1:
 195 0000 6B696C6C 		.ascii	"kill\000"
 195      00
 196              		.section	.text._kill,"ax",%progbits
 197              		.align	1
 198              		.p2align 4,,15
 199              		.global	_kill
 200              		.syntax unified
 201              		.thumb
 202              		.thumb_func
 203              		.fpu fpv4-sp-d16
 204              		.type	_kill, %function
 205              	_kill:
 206              		@ Volatile: function does not return.
 207              		@ args = 0, pretend = 0, frame = 0
 208              		@ frame_needed = 0, uses_anonymous_args = 0
 209 0000 08B5     		push	{r3, lr}
 210 0002 0248     		ldr	r0, .L20
 211 0004 FFF7FEFF 		bl	chSysHalt
 212 0008 FFF7FEFF 		bl	abort
 213              	.L21:
 214              		.align	2
 215              	.L20:
 216 000c 00000000 		.word	.LC1
 217              		.size	_kill, .-_kill
 218              		.section	.text._getpid,"ax",%progbits
 219              		.align	1
 220              		.p2align 4,,15
 221              		.global	_getpid
 222              		.syntax unified
 223              		.thumb
 224              		.thumb_func
 225              		.fpu fpv4-sp-d16
 226              		.type	_getpid, %function
ARM GAS  /tmp/ccfgJLIU.s 			page 5


 227              	_getpid:
 228              		@ args = 0, pretend = 0, frame = 0
 229              		@ frame_needed = 0, uses_anonymous_args = 0
 230              		@ link register save eliminated.
 231 0000 0120     		movs	r0, #1
 232 0002 7047     		bx	lr
 233              		.size	_getpid, .-_getpid
 234              		.ident	"GCC: (15:10.3-2021.07-4) 10.3.1 20210621 (release)"
ARM GAS  /tmp/ccfgJLIU.s 			page 6

