ARM GAS  /tmp/ccUFeFTX.s 			page 1


   1              		.cpu cortex-m4
   2              		.eabi_attribute 27, 1
   3              		.eabi_attribute 20, 1
   4              		.eabi_attribute 21, 1
   5              		.eabi_attribute 23, 3
   6              		.eabi_attribute 24, 1
   7              		.eabi_attribute 25, 1
   8              		.eabi_attribute 26, 1
   9              		.eabi_attribute 30, 6
  10              		.eabi_attribute 34, 1
  11              		.eabi_attribute 18, 4
  12              		.file	"mpl3115.c"
  13              		.text
  14              	.Ltext0:
  15              		.cfi_sections	.debug_frame
  16              		.section	.text.mpl3115_init,"ax",%progbits
  17              		.align	1
  18              		.p2align 4,,15
  19              		.global	mpl3115_init
  20              		.arch armv7e-m
  21              		.syntax unified
  22              		.thumb
  23              		.thumb_func
  24              		.fpu fpv4-sp-d16
  25              		.type	mpl3115_init, %function
  26              	mpl3115_init:
  27              	.LFB24:
  28              		.file 1 "peripherals/mpl3115.c"
  29              		.loc 1 32 1
  30              		.cfi_startproc
  31              		@ args = 0, pretend = 0, frame = 16
  32              		@ frame_needed = 0, uses_anonymous_args = 0
  33              		@ link register save eliminated.
  34 0000 84B0     		sub	sp, sp, #16
  35              		.cfi_def_cfa_offset 16
  36 0002 0390     		str	r0, [sp, #12]
  37 0004 0291     		str	r1, [sp, #8]
  38 0006 1346     		mov	r3, r2
  39 0008 8DF80730 		strb	r3, [sp, #7]
  40              		.loc 1 35 14
  41 000c 039B     		ldr	r3, [sp, #12]
  42 000e 029A     		ldr	r2, [sp, #8]
  43 0010 1A60     		str	r2, [r3]
  44              		.loc 1 38 25
  45 0012 039B     		ldr	r3, [sp, #12]
  46 0014 9DF80720 		ldrb	r2, [sp, #7]
  47 0018 5A71     		strb	r2, [r3, #5]
  48              		.loc 1 40 21
  49 001a 039B     		ldr	r3, [sp, #12]
  50 001c 0422     		movs	r2, #4
  51 001e 83F82920 		strb	r2, [r3, #41]
  52              		.loc 1 41 25
  53 0022 039B     		ldr	r3, [sp, #12]
  54 0024 0422     		movs	r2, #4
  55 0026 83F84F20 		strb	r2, [r3, #79]
  56              		.loc 1 42 20
  57 002a 039B     		ldr	r3, [sp, #12]
ARM GAS  /tmp/ccUFeFTX.s 			page 2


  58 002c 0022     		movs	r2, #0
  59 002e 83F85120 		strb	r2, [r3, #81]
  60              		.loc 1 43 20
  61 0032 039B     		ldr	r3, [sp, #12]
  62 0034 0022     		movs	r2, #0
  63 0036 83F85020 		strb	r2, [r3, #80]
  64              		.loc 1 46 17
  65 003a 039B     		ldr	r3, [sp, #12]
  66 003c 0022     		movs	r2, #0
  67 003e 83F85320 		strb	r2, [r3, #83]
  68              		.loc 1 47 17
  69 0042 039B     		ldr	r3, [sp, #12]
  70 0044 0022     		movs	r2, #0
  71 0046 83F85420 		strb	r2, [r3, #84]
  72              		.loc 1 49 17
  73 004a 039B     		ldr	r3, [sp, #12]
  74 004c 0022     		movs	r2, #0
  75 004e 9A65     		str	r2, [r3, #88]
  76              		.loc 1 50 20
  77 0050 039B     		ldr	r3, [sp, #12]
  78 0052 0022     		movs	r2, #0
  79 0054 A3F85620 		strh	r2, [r3, #86]	@ movhi
  80              		.loc 1 51 17
  81 0058 039B     		ldr	r3, [sp, #12]
  82 005a 4FF00002 		mov	r2, #0
  83 005e DA65     		str	r2, [r3, #92]	@ float
  84              		.loc 1 52 1
  85 0060 00BF     		nop
  86 0062 04B0     		add	sp, sp, #16
  87              		.cfi_def_cfa_offset 0
  88              		@ sp needed
  89 0064 7047     		bx	lr
  90              		.cfi_endproc
  91              	.LFE24:
  92              		.size	mpl3115_init, .-mpl3115_init
  93 0066 00BF     		.section	.text.mpl3115_send_config,"ax",%progbits
  94              		.align	1
  95              		.p2align 4,,15
  96              		.syntax unified
  97              		.thumb
  98              		.thumb_func
  99              		.fpu fpv4-sp-d16
 100              		.type	mpl3115_send_config, %function
 101              	mpl3115_send_config:
 102              	.LFB25:
 103              		.loc 1 56 1
 104              		.cfi_startproc
 105              		@ args = 0, pretend = 0, frame = 8
 106              		@ frame_needed = 0, uses_anonymous_args = 0
 107 0000 00B5     		push	{lr}
 108              		.cfi_def_cfa_offset 4
 109              		.cfi_offset 14, -4
 110 0002 83B0     		sub	sp, sp, #12
 111              		.cfi_def_cfa_offset 16
 112 0004 0190     		str	r0, [sp, #4]
 113              		.loc 1 57 14
 114 0006 019B     		ldr	r3, [sp, #4]
ARM GAS  /tmp/ccUFeFTX.s 			page 3


 115 0008 93F85030 		ldrb	r3, [r3, #80]	@ zero_extendqisi2
 116              		.loc 1 57 3
 117 000c 032B     		cmp	r3, #3
 118 000e 45D0     		beq	.L3
 119 0010 032B     		cmp	r3, #3
 120 0012 4CDC     		bgt	.L8
 121 0014 012B     		cmp	r3, #1
 122 0016 02D0     		beq	.L5
 123 0018 022B     		cmp	r3, #2
 124 001a 18D0     		beq	.L6
 125              		.loc 1 76 7
 126 001c 47E0     		b	.L8
 127              	.L5:
 128              		.loc 1 59 25
 129 001e 019B     		ldr	r3, [sp, #4]
 130 0020 1322     		movs	r2, #19
 131 0022 5A72     		strb	r2, [r3, #9]
 132              		.loc 1 60 25
 133 0024 019B     		ldr	r3, [sp, #4]
 134 0026 0222     		movs	r2, #2
 135 0028 9A72     		strb	r2, [r3, #10]
 136              		.loc 1 61 7
 137 002a 019B     		ldr	r3, [sp, #4]
 138 002c 1868     		ldr	r0, [r3]
 139 002e 019B     		ldr	r3, [sp, #4]
 140 0030 191D     		adds	r1, r3, #4
 141 0032 019B     		ldr	r3, [sp, #4]
 142 0034 5A79     		ldrb	r2, [r3, #5]	@ zero_extendqisi2
 143 0036 0223     		movs	r3, #2
 144 0038 FFF7FEFF 		bl	i2c_transmit
 145              		.loc 1 62 10
 146 003c 019B     		ldr	r3, [sp, #4]
 147 003e 93F85030 		ldrb	r3, [r3, #80]	@ zero_extendqisi2
 148              		.loc 1 62 23
 149 0042 0133     		adds	r3, r3, #1
 150 0044 DAB2     		uxtb	r2, r3
 151 0046 019B     		ldr	r3, [sp, #4]
 152 0048 83F85020 		strb	r2, [r3, #80]
 153              		.loc 1 63 7
 154 004c 30E0     		b	.L7
 155              	.L6:
 156              		.loc 1 65 25
 157 004e 019B     		ldr	r3, [sp, #4]
 158 0050 2622     		movs	r2, #38
 159 0052 5A72     		strb	r2, [r3, #9]
 160              		.loc 1 66 62
 161 0054 019B     		ldr	r3, [sp, #4]
 162 0056 93F85330 		ldrb	r3, [r3, #83]	@ zero_extendqisi2
 163              		.loc 1 66 73
 164 005a 9B01     		lsls	r3, r3, #6
 165              		.loc 1 66 56
 166 005c 5BB2     		sxtb	r3, r3
 167 005e 43F02803 		orr	r3, r3, #40
 168 0062 5AB2     		sxtb	r2, r3
 169              		.loc 1 67 32
 170 0064 019B     		ldr	r3, [sp, #4]
 171 0066 93F85430 		ldrb	r3, [r3, #84]	@ zero_extendqisi2
ARM GAS  /tmp/ccUFeFTX.s 			page 4


 172              		.loc 1 67 43
 173 006a DB01     		lsls	r3, r3, #7
 174              		.loc 1 66 79
 175 006c 5BB2     		sxtb	r3, r3
 176 006e 1343     		orrs	r3, r3, r2
 177 0070 5BB2     		sxtb	r3, r3
 178 0072 DAB2     		uxtb	r2, r3
 179              		.loc 1 66 25
 180 0074 019B     		ldr	r3, [sp, #4]
 181 0076 9A72     		strb	r2, [r3, #10]
 182              		.loc 1 68 7
 183 0078 019B     		ldr	r3, [sp, #4]
 184 007a 1868     		ldr	r0, [r3]
 185 007c 019B     		ldr	r3, [sp, #4]
 186 007e 191D     		adds	r1, r3, #4
 187 0080 019B     		ldr	r3, [sp, #4]
 188 0082 5A79     		ldrb	r2, [r3, #5]	@ zero_extendqisi2
 189 0084 0223     		movs	r3, #2
 190 0086 FFF7FEFF 		bl	i2c_transmit
 191              		.loc 1 69 10
 192 008a 019B     		ldr	r3, [sp, #4]
 193 008c 93F85030 		ldrb	r3, [r3, #80]	@ zero_extendqisi2
 194              		.loc 1 69 23
 195 0090 0133     		adds	r3, r3, #1
 196 0092 DAB2     		uxtb	r2, r3
 197 0094 019B     		ldr	r3, [sp, #4]
 198 0096 83F85020 		strb	r2, [r3, #80]
 199              		.loc 1 70 7
 200 009a 09E0     		b	.L7
 201              	.L3:
 202              		.loc 1 72 24
 203 009c 019B     		ldr	r3, [sp, #4]
 204 009e 0122     		movs	r2, #1
 205 00a0 83F85120 		strb	r2, [r3, #81]
 206              		.loc 1 73 25
 207 00a4 019B     		ldr	r3, [sp, #4]
 208 00a6 0422     		movs	r2, #4
 209 00a8 83F82920 		strb	r2, [r3, #41]
 210              		.loc 1 74 7
 211 00ac 00E0     		b	.L7
 212              	.L8:
 213              		.loc 1 76 7
 214 00ae 00BF     		nop
 215              	.L7:
 216              		.loc 1 78 1
 217 00b0 00BF     		nop
 218 00b2 03B0     		add	sp, sp, #12
 219              		.cfi_def_cfa_offset 4
 220              		@ sp needed
 221 00b4 5DF804FB 		ldr	pc, [sp], #4
 222              		.cfi_endproc
 223              	.LFE25:
 224              		.size	mpl3115_send_config, .-mpl3115_send_config
 225              		.section	.text.mpl3115_configure,"ax",%progbits
 226              		.align	1
 227              		.p2align 4,,15
 228              		.global	mpl3115_configure
ARM GAS  /tmp/ccUFeFTX.s 			page 5


 229              		.syntax unified
 230              		.thumb
 231              		.thumb_func
 232              		.fpu fpv4-sp-d16
 233              		.type	mpl3115_configure, %function
 234              	mpl3115_configure:
 235              	.LFB26:
 236              		.loc 1 82 1
 237              		.cfi_startproc
 238              		@ args = 0, pretend = 0, frame = 8
 239              		@ frame_needed = 0, uses_anonymous_args = 0
 240 0000 00B5     		push	{lr}
 241              		.cfi_def_cfa_offset 4
 242              		.cfi_offset 14, -4
 243 0002 83B0     		sub	sp, sp, #12
 244              		.cfi_def_cfa_offset 16
 245 0004 0190     		str	r0, [sp, #4]
 246              		.loc 1 83 10
 247 0006 019B     		ldr	r3, [sp, #4]
 248 0008 93F85030 		ldrb	r3, [r3, #80]	@ zero_extendqisi2
 249              		.loc 1 83 6
 250 000c 002B     		cmp	r3, #0
 251 000e 16D1     		bne	.L12
 252              		.loc 1 84 8
 253 0010 019B     		ldr	r3, [sp, #4]
 254 0012 93F85030 		ldrb	r3, [r3, #80]	@ zero_extendqisi2
 255              		.loc 1 84 21
 256 0016 0133     		adds	r3, r3, #1
 257 0018 DAB2     		uxtb	r2, r3
 258 001a 019B     		ldr	r3, [sp, #4]
 259 001c 83F85020 		strb	r2, [r3, #80]
 260              		.loc 1 85 19
 261 0020 019B     		ldr	r3, [sp, #4]
 262 0022 93F82930 		ldrb	r3, [r3, #41]
 263 0026 DBB2     		uxtb	r3, r3
 264              		.loc 1 85 8
 265 0028 022B     		cmp	r3, #2
 266 002a 05D0     		beq	.L11
 267              		.loc 1 85 59 discriminator 1
 268 002c 019B     		ldr	r3, [sp, #4]
 269 002e 93F82930 		ldrb	r3, [r3, #41]
 270 0032 DBB2     		uxtb	r3, r3
 271              		.loc 1 85 46 discriminator 1
 272 0034 042B     		cmp	r3, #4
 273 0036 02D1     		bne	.L12
 274              	.L11:
 275              		.loc 1 86 7
 276 0038 0198     		ldr	r0, [sp, #4]
 277 003a FFF7FEFF 		bl	mpl3115_send_config
 278              	.L12:
 279              		.loc 1 89 1
 280 003e 00BF     		nop
 281 0040 03B0     		add	sp, sp, #12
 282              		.cfi_def_cfa_offset 4
 283              		@ sp needed
 284 0042 5DF804FB 		ldr	pc, [sp], #4
 285              		.cfi_endproc
ARM GAS  /tmp/ccUFeFTX.s 			page 6


 286              	.LFE26:
 287              		.size	mpl3115_configure, .-mpl3115_configure
 288 0046 00BF     		.section	.text.mpl3115_read,"ax",%progbits
 289              		.align	1
 290              		.p2align 4,,15
 291              		.global	mpl3115_read
 292              		.syntax unified
 293              		.thumb
 294              		.thumb_func
 295              		.fpu fpv4-sp-d16
 296              		.type	mpl3115_read, %function
 297              	mpl3115_read:
 298              	.LFB27:
 299              		.loc 1 93 1
 300              		.cfi_startproc
 301              		@ args = 0, pretend = 0, frame = 8
 302              		@ frame_needed = 0, uses_anonymous_args = 0
 303 0000 00B5     		push	{lr}
 304              		.cfi_def_cfa_offset 4
 305              		.cfi_offset 14, -4
 306 0002 85B0     		sub	sp, sp, #20
 307              		.cfi_def_cfa_offset 24
 308 0004 0390     		str	r0, [sp, #12]
 309              		.loc 1 95 10
 310 0006 039B     		ldr	r3, [sp, #12]
 311 0008 93F85130 		ldrb	r3, [r3, #81]	@ zero_extendqisi2
 312              		.loc 1 95 6
 313 000c 002B     		cmp	r3, #0
 314 000e 3DD0     		beq	.L15
 315              		.loc 1 95 37 discriminator 1
 316 0010 039B     		ldr	r3, [sp, #12]
 317 0012 93F82930 		ldrb	r3, [r3, #41]
 318 0016 DBB2     		uxtb	r3, r3
 319              		.loc 1 95 24 discriminator 1
 320 0018 042B     		cmp	r3, #4
 321 001a 37D1     		bne	.L15
 322              		.loc 1 96 23
 323 001c 039B     		ldr	r3, [sp, #12]
 324 001e 0022     		movs	r2, #0
 325 0020 5A72     		strb	r2, [r3, #9]
 326              		.loc 1 97 5
 327 0022 039B     		ldr	r3, [sp, #12]
 328 0024 1868     		ldr	r0, [r3]
 329 0026 039B     		ldr	r3, [sp, #12]
 330 0028 191D     		adds	r1, r3, #4
 331 002a 039B     		ldr	r3, [sp, #12]
 332 002c 5A79     		ldrb	r2, [r3, #5]	@ zero_extendqisi2
 333 002e 0623     		movs	r3, #6
 334 0030 0093     		str	r3, [sp]
 335 0032 0123     		movs	r3, #1
 336 0034 FFF7FEFF 		bl	i2c_transceive
 337              		.loc 1 98 23
 338 0038 039B     		ldr	r3, [sp, #12]
 339 003a 93F84F30 		ldrb	r3, [r3, #79]
 340 003e DBB2     		uxtb	r3, r3
 341              		.loc 1 98 8
 342 0040 042B     		cmp	r3, #4
ARM GAS  /tmp/ccUFeFTX.s 			page 7


 343 0042 23D1     		bne	.L15
 344              		.loc 1 99 29
 345 0044 039B     		ldr	r3, [sp, #12]
 346 0046 2622     		movs	r2, #38
 347 0048 83F82F20 		strb	r2, [r3, #47]
 348              		.loc 1 100 66
 349 004c 039B     		ldr	r3, [sp, #12]
 350 004e 93F85330 		ldrb	r3, [r3, #83]	@ zero_extendqisi2
 351              		.loc 1 100 77
 352 0052 9B01     		lsls	r3, r3, #6
 353              		.loc 1 100 60
 354 0054 5BB2     		sxtb	r3, r3
 355 0056 43F02803 		orr	r3, r3, #40
 356 005a 5AB2     		sxtb	r2, r3
 357              		.loc 1 101 36
 358 005c 039B     		ldr	r3, [sp, #12]
 359 005e 93F85430 		ldrb	r3, [r3, #84]	@ zero_extendqisi2
 360              		.loc 1 101 47
 361 0062 DB01     		lsls	r3, r3, #7
 362              		.loc 1 100 83
 363 0064 5BB2     		sxtb	r3, r3
 364 0066 1343     		orrs	r3, r3, r2
 365 0068 5BB2     		sxtb	r3, r3
 366              		.loc 1 101 53
 367 006a 43F00203 		orr	r3, r3, #2
 368 006e 5BB2     		sxtb	r3, r3
 369 0070 DAB2     		uxtb	r2, r3
 370              		.loc 1 100 29
 371 0072 039B     		ldr	r3, [sp, #12]
 372 0074 83F83020 		strb	r2, [r3, #48]
 373              		.loc 1 102 7
 374 0078 039B     		ldr	r3, [sp, #12]
 375 007a 1868     		ldr	r0, [r3]
 376 007c 039B     		ldr	r3, [sp, #12]
 377 007e 03F12A01 		add	r1, r3, #42
 378 0082 039B     		ldr	r3, [sp, #12]
 379 0084 5A79     		ldrb	r2, [r3, #5]	@ zero_extendqisi2
 380 0086 0223     		movs	r3, #2
 381 0088 FFF7FEFF 		bl	i2c_transmit
 382              	.L15:
 383              		.loc 1 105 1
 384 008c 00BF     		nop
 385 008e 05B0     		add	sp, sp, #20
 386              		.cfi_def_cfa_offset 4
 387              		@ sp needed
 388 0090 5DF804FB 		ldr	pc, [sp], #4
 389              		.cfi_endproc
 390              	.LFE27:
 391              		.size	mpl3115_read, .-mpl3115_read
 392              		.section	.text.mpl3115_event,"ax",%progbits
 393              		.align	1
 394              		.p2align 4,,15
 395              		.global	mpl3115_event
 396              		.syntax unified
 397              		.thumb
 398              		.thumb_func
 399              		.fpu fpv4-sp-d16
ARM GAS  /tmp/ccUFeFTX.s 			page 8


 400              		.type	mpl3115_event, %function
 401              	mpl3115_event:
 402              	.LFB28:
 403              		.loc 1 108 1
 404              		.cfi_startproc
 405              		@ args = 0, pretend = 0, frame = 16
 406              		@ frame_needed = 0, uses_anonymous_args = 0
 407 0000 00B5     		push	{lr}
 408              		.cfi_def_cfa_offset 4
 409              		.cfi_offset 14, -4
 410 0002 85B0     		sub	sp, sp, #20
 411              		.cfi_def_cfa_offset 24
 412 0004 0190     		str	r0, [sp, #4]
 413              		.loc 1 109 10
 414 0006 019B     		ldr	r3, [sp, #4]
 415 0008 93F85130 		ldrb	r3, [r3, #81]	@ zero_extendqisi2
 416              		.loc 1 109 6
 417 000c 002B     		cmp	r3, #0
 418 000e 78D0     		beq	.L17
 419              		.loc 1 110 19
 420 0010 019B     		ldr	r3, [sp, #4]
 421 0012 93F82930 		ldrb	r3, [r3, #41]
 422 0016 DBB2     		uxtb	r3, r3
 423              		.loc 1 110 8
 424 0018 032B     		cmp	r3, #3
 425 001a 04D1     		bne	.L18
 426              		.loc 1 111 25
 427 001c 019B     		ldr	r3, [sp, #4]
 428 001e 0422     		movs	r2, #4
 429 0020 83F82920 		strb	r2, [r3, #41]
 430 0024 A2E0     		b	.L19
 431              	.L18:
 432              		.loc 1 112 26
 433 0026 019B     		ldr	r3, [sp, #4]
 434 0028 93F82930 		ldrb	r3, [r3, #41]
 435 002c DBB2     		uxtb	r3, r3
 436              		.loc 1 112 15
 437 002e 022B     		cmp	r3, #2
 438 0030 40F09C80 		bne	.L19
 439              		.loc 1 114 25
 440 0034 019B     		ldr	r3, [sp, #4]
 441 0036 5B7A     		ldrb	r3, [r3, #9]
 442 0038 DBB2     		uxtb	r3, r3
 443              		.loc 1 114 29
 444 003a 03F00403 		and	r3, r3, #4
 445              		.loc 1 114 10
 446 003e 002B     		cmp	r3, #0
 447 0040 5AD0     		beq	.L20
 448              		.loc 1 115 16
 449 0042 019B     		ldr	r3, [sp, #4]
 450 0044 93F85330 		ldrb	r3, [r3, #83]	@ zero_extendqisi2
 451              		.loc 1 115 12
 452 0048 002B     		cmp	r3, #0
 453 004a 1DD0     		beq	.L21
 454              		.loc 1 117 53
 455 004c 019B     		ldr	r3, [sp, #4]
 456 004e 9B7A     		ldrb	r3, [r3, #10]
ARM GAS  /tmp/ccUFeFTX.s 			page 9


 457 0050 DBB2     		uxtb	r3, r3
 458              		.loc 1 117 57
 459 0052 1B04     		lsls	r3, r3, #16
 460              		.loc 1 118 53
 461 0054 019A     		ldr	r2, [sp, #4]
 462 0056 D27A     		ldrb	r2, [r2, #11]
 463 0058 D2B2     		uxtb	r2, r2
 464              		.loc 1 118 57
 465 005a 1202     		lsls	r2, r2, #8
 466              		.loc 1 117 64
 467 005c 1343     		orrs	r3, r3, r2
 468              		.loc 1 119 42
 469 005e 019A     		ldr	r2, [sp, #4]
 470 0060 127B     		ldrb	r2, [r2, #12]
 471 0062 D2B2     		uxtb	r2, r2
 472              		.loc 1 118 63
 473 0064 1A43     		orrs	r2, r2, r3
 474              		.loc 1 117 25
 475 0066 019B     		ldr	r3, [sp, #4]
 476 0068 9A65     		str	r2, [r3, #88]
 477              		.loc 1 120 54
 478 006a 019B     		ldr	r3, [sp, #4]
 479 006c 5B7B     		ldrb	r3, [r3, #13]
 480 006e DBB2     		uxtb	r3, r3
 481              		.loc 1 120 58
 482 0070 1B02     		lsls	r3, r3, #8
 483              		.loc 1 120 64
 484 0072 1AB2     		sxth	r2, r3
 485              		.loc 1 120 80
 486 0074 019B     		ldr	r3, [sp, #4]
 487 0076 9B7B     		ldrb	r3, [r3, #14]
 488 0078 DBB2     		uxtb	r3, r3
 489 007a 1BB2     		sxth	r3, r3
 490              		.loc 1 120 64
 491 007c 1343     		orrs	r3, r3, r2
 492 007e 1AB2     		sxth	r2, r3
 493              		.loc 1 120 28
 494 0080 019B     		ldr	r3, [sp, #4]
 495 0082 A3F85620 		strh	r2, [r3, #86]	@ movhi
 496 0086 33E0     		b	.L22
 497              	.L21:
 498              	.LBB2:
 499              		.loc 1 122 52
 500 0088 019B     		ldr	r3, [sp, #4]
 501 008a 9B7A     		ldrb	r3, [r3, #10]
 502 008c DBB2     		uxtb	r3, r3
 503              		.loc 1 122 56
 504 008e 1B04     		lsls	r3, r3, #16
 505              		.loc 1 123 52
 506 0090 019A     		ldr	r2, [sp, #4]
 507 0092 D27A     		ldrb	r2, [r2, #11]
 508 0094 D2B2     		uxtb	r2, r2
 509              		.loc 1 123 56
 510 0096 1202     		lsls	r2, r2, #8
 511              		.loc 1 122 63
 512 0098 1343     		orrs	r3, r3, r2
 513              		.loc 1 124 41
ARM GAS  /tmp/ccUFeFTX.s 			page 10


 514 009a 019A     		ldr	r2, [sp, #4]
 515 009c 127B     		ldrb	r2, [r2, #12]
 516 009e D2B2     		uxtb	r2, r2
 517              		.loc 1 122 20
 518 00a0 1343     		orrs	r3, r3, r2
 519 00a2 0393     		str	r3, [sp, #12]
 520              		.loc 1 125 18
 521 00a4 019B     		ldr	r3, [sp, #4]
 522 00a6 93F85430 		ldrb	r3, [r3, #84]	@ zero_extendqisi2
 523              		.loc 1 125 14
 524 00aa 002B     		cmp	r3, #0
 525 00ac 0DD0     		beq	.L23
 526              		.loc 1 126 41
 527 00ae 039B     		ldr	r3, [sp, #12]
 528 00b0 1B09     		lsrs	r3, r3, #4
 529              		.loc 1 126 29
 530 00b2 07EE903A 		vmov	s15, r3	@ int
 531 00b6 B8EE677A 		vcvt.f32.u32	s14, s15
 532              		.loc 1 126 47
 533 00ba F3EE006A 		vmov.f32	s13, #1.6e+1
 534 00be C7EE267A 		vdiv.f32	s15, s14, s13
 535              		.loc 1 126 27
 536 00c2 019B     		ldr	r3, [sp, #4]
 537 00c4 C3ED177A 		vstr.32	s15, [r3, #92]
 538 00c8 03E0     		b	.L24
 539              	.L23:
 540              		.loc 1 128 34
 541 00ca 039B     		ldr	r3, [sp, #12]
 542 00cc 1A09     		lsrs	r2, r3, #4
 543              		.loc 1 128 27
 544 00ce 019B     		ldr	r3, [sp, #4]
 545 00d0 9A65     		str	r2, [r3, #88]
 546              	.L24:
 547              		.loc 1 130 41
 548 00d2 019B     		ldr	r3, [sp, #4]
 549 00d4 5B7B     		ldrb	r3, [r3, #13]
 550 00d6 DBB2     		uxtb	r3, r3
 551              		.loc 1 130 45
 552 00d8 1B02     		lsls	r3, r3, #8
 553              		.loc 1 130 67
 554 00da 019A     		ldr	r2, [sp, #4]
 555 00dc 927B     		ldrb	r2, [r2, #14]
 556 00de D2B2     		uxtb	r2, r2
 557              		.loc 1 130 51
 558 00e0 1343     		orrs	r3, r3, r2
 559              		.loc 1 130 15
 560 00e2 0393     		str	r3, [sp, #12]
 561              		.loc 1 131 35
 562 00e4 039B     		ldr	r3, [sp, #12]
 563 00e6 1B09     		lsrs	r3, r3, #4
 564              		.loc 1 131 28
 565 00e8 1AB2     		sxth	r2, r3
 566 00ea 019B     		ldr	r3, [sp, #4]
 567 00ec A3F85620 		strh	r2, [r3, #86]	@ movhi
 568              	.L22:
 569              	.LBE2:
 570              		.loc 1 133 29
ARM GAS  /tmp/ccUFeFTX.s 			page 11


 571 00f0 019B     		ldr	r3, [sp, #4]
 572 00f2 0122     		movs	r2, #1
 573 00f4 83F85220 		strb	r2, [r3, #82]
 574              	.L20:
 575              		.loc 1 135 25
 576 00f8 019B     		ldr	r3, [sp, #4]
 577 00fa 0422     		movs	r2, #4
 578 00fc 83F82920 		strb	r2, [r3, #41]
 579 0100 34E0     		b	.L19
 580              	.L17:
 581              		.loc 1 137 18
 582 0102 019B     		ldr	r3, [sp, #4]
 583 0104 93F85130 		ldrb	r3, [r3, #81]	@ zero_extendqisi2
 584              		.loc 1 137 14
 585 0108 83F00103 		eor	r3, r3, #1
 586 010c DBB2     		uxtb	r3, r3
 587              		.loc 1 137 13
 588 010e 002B     		cmp	r3, #0
 589 0110 2CD0     		beq	.L19
 590              		.loc 1 137 38 discriminator 1
 591 0112 019B     		ldr	r3, [sp, #4]
 592 0114 93F85030 		ldrb	r3, [r3, #80]	@ zero_extendqisi2
 593              		.loc 1 137 32 discriminator 1
 594 0118 002B     		cmp	r3, #0
 595 011a 27D0     		beq	.L19
 596              		.loc 1 138 19
 597 011c 019B     		ldr	r3, [sp, #4]
 598 011e 93F82930 		ldrb	r3, [r3, #41]
 599 0122 DBB2     		uxtb	r3, r3
 600              		.loc 1 138 8
 601 0124 022B     		cmp	r3, #2
 602 0126 05D0     		beq	.L25
 603              		.loc 1 138 59 discriminator 1
 604 0128 019B     		ldr	r3, [sp, #4]
 605 012a 93F82930 		ldrb	r3, [r3, #41]
 606 012e DBB2     		uxtb	r3, r3
 607              		.loc 1 138 46 discriminator 1
 608 0130 042B     		cmp	r3, #4
 609 0132 06D1     		bne	.L26
 610              	.L25:
 611              		.loc 1 139 25
 612 0134 019B     		ldr	r3, [sp, #4]
 613 0136 0422     		movs	r2, #4
 614 0138 83F82920 		strb	r2, [r3, #41]
 615              		.loc 1 140 7
 616 013c 0198     		ldr	r0, [sp, #4]
 617 013e FFF7FEFF 		bl	mpl3115_send_config
 618              	.L26:
 619              		.loc 1 142 19
 620 0142 019B     		ldr	r3, [sp, #4]
 621 0144 93F82930 		ldrb	r3, [r3, #41]
 622 0148 DBB2     		uxtb	r3, r3
 623              		.loc 1 142 8
 624 014a 032B     		cmp	r3, #3
 625 014c 0ED1     		bne	.L19
 626              		.loc 1 143 10
 627 014e 019B     		ldr	r3, [sp, #4]
ARM GAS  /tmp/ccUFeFTX.s 			page 12


 628 0150 93F85030 		ldrb	r3, [r3, #80]	@ zero_extendqisi2
 629              		.loc 1 143 23
 630 0154 013B     		subs	r3, r3, #1
 631 0156 DAB2     		uxtb	r2, r3
 632 0158 019B     		ldr	r3, [sp, #4]
 633 015a 83F85020 		strb	r2, [r3, #80]
 634              		.loc 1 144 25
 635 015e 019B     		ldr	r3, [sp, #4]
 636 0160 0422     		movs	r2, #4
 637 0162 83F82920 		strb	r2, [r3, #41]
 638              		.loc 1 145 7
 639 0166 0198     		ldr	r0, [sp, #4]
 640 0168 FFF7FEFF 		bl	mpl3115_send_config
 641              	.L19:
 642              		.loc 1 148 21
 643 016c 019B     		ldr	r3, [sp, #4]
 644 016e 93F84F30 		ldrb	r3, [r3, #79]
 645 0172 DBB2     		uxtb	r3, r3
 646              		.loc 1 148 6
 647 0174 022B     		cmp	r3, #2
 648 0176 05D0     		beq	.L27
 649              		.loc 1 148 65 discriminator 1
 650 0178 019B     		ldr	r3, [sp, #4]
 651 017a 93F84F30 		ldrb	r3, [r3, #79]
 652 017e DBB2     		uxtb	r3, r3
 653              		.loc 1 148 48 discriminator 1
 654 0180 032B     		cmp	r3, #3
 655 0182 03D1     		bne	.L29
 656              	.L27:
 657              		.loc 1 149 27
 658 0184 019B     		ldr	r3, [sp, #4]
 659 0186 0422     		movs	r2, #4
 660 0188 83F84F20 		strb	r2, [r3, #79]
 661              	.L29:
 662              		.loc 1 151 1
 663 018c 00BF     		nop
 664 018e 05B0     		add	sp, sp, #20
 665              		.cfi_def_cfa_offset 4
 666              		@ sp needed
 667 0190 5DF804FB 		ldr	pc, [sp], #4
 668              		.cfi_endproc
 669              	.LFE28:
 670              		.size	mpl3115_event, .-mpl3115_event
 671              		.section	.text.mpl3115_periodic,"ax",%progbits
 672              		.align	1
 673              		.p2align 4,,15
 674              		.global	mpl3115_periodic
 675              		.syntax unified
 676              		.thumb
 677              		.thumb_func
 678              		.fpu fpv4-sp-d16
 679              		.type	mpl3115_periodic, %function
 680              	mpl3115_periodic:
 681              	.LFB29:
 682              		.loc 1 154 1
 683              		.cfi_startproc
 684              		@ args = 0, pretend = 0, frame = 8
ARM GAS  /tmp/ccUFeFTX.s 			page 13


 685              		@ frame_needed = 0, uses_anonymous_args = 0
 686 0000 00B5     		push	{lr}
 687              		.cfi_def_cfa_offset 4
 688              		.cfi_offset 14, -4
 689 0002 83B0     		sub	sp, sp, #12
 690              		.cfi_def_cfa_offset 16
 691 0004 0190     		str	r0, [sp, #4]
 692              		.loc 1 155 10
 693 0006 019B     		ldr	r3, [sp, #4]
 694 0008 93F85130 		ldrb	r3, [r3, #81]	@ zero_extendqisi2
 695              		.loc 1 155 6
 696 000c 002B     		cmp	r3, #0
 697 000e 03D0     		beq	.L31
 698              		.loc 1 156 5
 699 0010 0198     		ldr	r0, [sp, #4]
 700 0012 FFF7FEFF 		bl	mpl3115_read
 701              		.loc 1 160 1
 702 0016 02E0     		b	.L33
 703              	.L31:
 704              		.loc 1 158 5
 705 0018 0198     		ldr	r0, [sp, #4]
 706 001a FFF7FEFF 		bl	mpl3115_configure
 707              	.L33:
 708              		.loc 1 160 1
 709 001e 00BF     		nop
 710 0020 03B0     		add	sp, sp, #12
 711              		.cfi_def_cfa_offset 4
 712              		@ sp needed
 713 0022 5DF804FB 		ldr	pc, [sp], #4
 714              		.cfi_endproc
 715              	.LFE29:
 716              		.size	mpl3115_periodic, .-mpl3115_periodic
 717 0026 00BF     		.text
 718              	.Letext0:
 719              		.file 2 "/usr/lib/gcc/arm-none-eabi/10.3.1/include/stdint.h"
 720              		.file 3 "./mcu_periph/i2c.h"
 721              		.file 4 "./peripherals/mpl3115.h"