ARM GAS  /tmp/ccKtbbXa.s 			page 1


   1              		.cpu cortex-m4
   2              		.eabi_attribute 27, 1
   3              		.eabi_attribute 20, 1
   4              		.eabi_attribute 21, 1
   5              		.eabi_attribute 23, 3
   6              		.eabi_attribute 24, 1
   7              		.eabi_attribute 25, 1
   8              		.eabi_attribute 26, 1
   9              		.eabi_attribute 30, 6
  10              		.eabi_attribute 34, 1
  11              		.eabi_attribute 18, 4
  12              		.file	"pprz_geodetic_int.c"
  13              		.text
  14              	.Ltext0:
  15              		.cfi_sections	.debug_frame
  16              		.global	__aeabi_i2d
  17              		.global	__aeabi_dmul
  18              		.global	__aeabi_ddiv
  19              		.global	__aeabi_d2iz
  20              		.section	.text.ltp_of_ecef_rmat_from_lla_i,"ax",%progbits
  21              		.align	1
  22              		.p2align 4,,15
  23              		.global	ltp_of_ecef_rmat_from_lla_i
  24              		.arch armv7e-m
  25              		.syntax unified
  26              		.thumb
  27              		.thumb_func
  28              		.fpu fpv4-sp-d16
  29              		.type	ltp_of_ecef_rmat_from_lla_i, %function
  30              	ltp_of_ecef_rmat_from_lla_i:
  31              	.LFB21:
  32              		.file 1 "math/pprz_geodetic_int.c"
  33              		.loc 1 35 1
  34              		.cfi_startproc
  35              		@ args = 0, pretend = 0, frame = 104
  36              		@ frame_needed = 0, uses_anonymous_args = 0
  37 0000 2DE9F04F 		push	{r4, r5, r6, r7, r8, r9, r10, fp, lr}
  38              		.cfi_def_cfa_offset 36
  39              		.cfi_offset 4, -36
  40              		.cfi_offset 5, -32
  41              		.cfi_offset 6, -28
  42              		.cfi_offset 7, -24
  43              		.cfi_offset 8, -20
  44              		.cfi_offset 9, -16
  45              		.cfi_offset 10, -12
  46              		.cfi_offset 11, -8
  47              		.cfi_offset 14, -4
  48 0004 9BB0     		sub	sp, sp, #108
  49              		.cfi_def_cfa_offset 144
  50 0006 1590     		str	r0, [sp, #84]
  51 0008 1491     		str	r1, [sp, #80]
  52              		.loc 1 43 26
  53 000a 149B     		ldr	r3, [sp, #80]
  54 000c 1B68     		ldr	r3, [r3]
  55 000e 1846     		mov	r0, r3
  56 0010 FFF7FEFF 		bl	__aeabi_i2d
  57 0014 B8A3     		adr	r3, .L2
ARM GAS  /tmp/ccKtbbXa.s 			page 2


  58 0016 D3E90023 		ldrd	r2, [r3]
  59 001a FFF7FEFF 		bl	__aeabi_dmul
  60 001e 0246     		mov	r2, r0
  61 0020 0B46     		mov	r3, r1
  62 0022 1046     		mov	r0, r2
  63 0024 1946     		mov	r1, r3
  64 0026 B6A3     		adr	r3, .L2+8
  65 0028 D3E90023 		ldrd	r2, [r3]
  66 002c FFF7FEFF 		bl	__aeabi_ddiv
  67 0030 0246     		mov	r2, r0
  68 0032 0B46     		mov	r3, r1
  69 0034 1046     		mov	r0, r2
  70 0036 1946     		mov	r1, r3
  71 0038 FFF7FEFF 		bl	sin
  72              		.loc 1 43 21
  73 003c 4FF00002 		mov	r2, #0
  74 0040 B14B     		ldr	r3, .L2+16
  75 0042 FFF7FEFF 		bl	__aeabi_dmul
  76 0046 0246     		mov	r2, r0
  77 0048 0B46     		mov	r3, r1
  78 004a 1046     		mov	r0, r2
  79 004c 1946     		mov	r1, r3
  80 004e FFF7FEFF 		bl	rint
  81 0052 0246     		mov	r2, r0
  82 0054 0B46     		mov	r3, r1
  83              		.loc 1 43 11
  84 0056 1046     		mov	r0, r2
  85 0058 1946     		mov	r1, r3
  86 005a FFF7FEFF 		bl	__aeabi_d2iz
  87 005e 0346     		mov	r3, r0
  88 0060 1993     		str	r3, [sp, #100]
  89              		.loc 1 44 26
  90 0062 149B     		ldr	r3, [sp, #80]
  91 0064 1B68     		ldr	r3, [r3]
  92 0066 1846     		mov	r0, r3
  93 0068 FFF7FEFF 		bl	__aeabi_i2d
  94 006c A2A3     		adr	r3, .L2
  95 006e D3E90023 		ldrd	r2, [r3]
  96 0072 FFF7FEFF 		bl	__aeabi_dmul
  97 0076 0246     		mov	r2, r0
  98 0078 0B46     		mov	r3, r1
  99 007a 1046     		mov	r0, r2
 100 007c 1946     		mov	r1, r3
 101 007e A0A3     		adr	r3, .L2+8
 102 0080 D3E90023 		ldrd	r2, [r3]
 103 0084 FFF7FEFF 		bl	__aeabi_ddiv
 104 0088 0246     		mov	r2, r0
 105 008a 0B46     		mov	r3, r1
 106 008c 1046     		mov	r0, r2
 107 008e 1946     		mov	r1, r3
 108 0090 FFF7FEFF 		bl	cos
 109              		.loc 1 44 21
 110 0094 4FF00002 		mov	r2, #0
 111 0098 9B4B     		ldr	r3, .L2+16
 112 009a FFF7FEFF 		bl	__aeabi_dmul
 113 009e 0246     		mov	r2, r0
 114 00a0 0B46     		mov	r3, r1
ARM GAS  /tmp/ccKtbbXa.s 			page 3


 115 00a2 1046     		mov	r0, r2
 116 00a4 1946     		mov	r1, r3
 117 00a6 FFF7FEFF 		bl	rint
 118 00aa 0246     		mov	r2, r0
 119 00ac 0B46     		mov	r3, r1
 120              		.loc 1 44 11
 121 00ae 1046     		mov	r0, r2
 122 00b0 1946     		mov	r1, r3
 123 00b2 FFF7FEFF 		bl	__aeabi_d2iz
 124 00b6 0346     		mov	r3, r0
 125 00b8 1893     		str	r3, [sp, #96]
 126              		.loc 1 45 26
 127 00ba 149B     		ldr	r3, [sp, #80]
 128 00bc 5B68     		ldr	r3, [r3, #4]
 129 00be 1846     		mov	r0, r3
 130 00c0 FFF7FEFF 		bl	__aeabi_i2d
 131 00c4 8CA3     		adr	r3, .L2
 132 00c6 D3E90023 		ldrd	r2, [r3]
 133 00ca FFF7FEFF 		bl	__aeabi_dmul
 134 00ce 0246     		mov	r2, r0
 135 00d0 0B46     		mov	r3, r1
 136 00d2 1046     		mov	r0, r2
 137 00d4 1946     		mov	r1, r3
 138 00d6 8AA3     		adr	r3, .L2+8
 139 00d8 D3E90023 		ldrd	r2, [r3]
 140 00dc FFF7FEFF 		bl	__aeabi_ddiv
 141 00e0 0246     		mov	r2, r0
 142 00e2 0B46     		mov	r3, r1
 143 00e4 1046     		mov	r0, r2
 144 00e6 1946     		mov	r1, r3
 145 00e8 FFF7FEFF 		bl	sin
 146              		.loc 1 45 21
 147 00ec 4FF00002 		mov	r2, #0
 148 00f0 854B     		ldr	r3, .L2+16
 149 00f2 FFF7FEFF 		bl	__aeabi_dmul
 150 00f6 0246     		mov	r2, r0
 151 00f8 0B46     		mov	r3, r1
 152 00fa 1046     		mov	r0, r2
 153 00fc 1946     		mov	r1, r3
 154 00fe FFF7FEFF 		bl	rint
 155 0102 0246     		mov	r2, r0
 156 0104 0B46     		mov	r3, r1
 157              		.loc 1 45 11
 158 0106 1046     		mov	r0, r2
 159 0108 1946     		mov	r1, r3
 160 010a FFF7FEFF 		bl	__aeabi_d2iz
 161 010e 0346     		mov	r3, r0
 162 0110 1793     		str	r3, [sp, #92]
 163              		.loc 1 46 26
 164 0112 149B     		ldr	r3, [sp, #80]
 165 0114 5B68     		ldr	r3, [r3, #4]
 166 0116 1846     		mov	r0, r3
 167 0118 FFF7FEFF 		bl	__aeabi_i2d
 168 011c 76A3     		adr	r3, .L2
 169 011e D3E90023 		ldrd	r2, [r3]
 170 0122 FFF7FEFF 		bl	__aeabi_dmul
 171 0126 0246     		mov	r2, r0
ARM GAS  /tmp/ccKtbbXa.s 			page 4


 172 0128 0B46     		mov	r3, r1
 173 012a 1046     		mov	r0, r2
 174 012c 1946     		mov	r1, r3
 175 012e 74A3     		adr	r3, .L2+8
 176 0130 D3E90023 		ldrd	r2, [r3]
 177 0134 FFF7FEFF 		bl	__aeabi_ddiv
 178 0138 0246     		mov	r2, r0
 179 013a 0B46     		mov	r3, r1
 180 013c 1046     		mov	r0, r2
 181 013e 1946     		mov	r1, r3
 182 0140 FFF7FEFF 		bl	cos
 183              		.loc 1 46 21
 184 0144 4FF00002 		mov	r2, #0
 185 0148 6F4B     		ldr	r3, .L2+16
 186 014a FFF7FEFF 		bl	__aeabi_dmul
 187 014e 0246     		mov	r2, r0
 188 0150 0B46     		mov	r3, r1
 189 0152 1046     		mov	r0, r2
 190 0154 1946     		mov	r1, r3
 191 0156 FFF7FEFF 		bl	rint
 192 015a 0246     		mov	r2, r0
 193 015c 0B46     		mov	r3, r1
 194              		.loc 1 46 11
 195 015e 1046     		mov	r0, r2
 196 0160 1946     		mov	r1, r3
 197 0162 FFF7FEFF 		bl	__aeabi_d2iz
 198 0166 0346     		mov	r3, r0
 199 0168 1693     		str	r3, [sp, #88]
 200              		.loc 1 49 23
 201 016a 179B     		ldr	r3, [sp, #92]
 202 016c 5A42     		rsbs	r2, r3, #0
 203              		.loc 1 49 21
 204 016e 159B     		ldr	r3, [sp, #84]
 205 0170 1A60     		str	r2, [r3]
 206              		.loc 1 50 21
 207 0172 159A     		ldr	r2, [sp, #84]
 208 0174 169B     		ldr	r3, [sp, #88]
 209 0176 5360     		str	r3, [r2, #4]
 210              		.loc 1 51 21
 211 0178 159A     		ldr	r2, [sp, #84]
 212 017a 0023     		movs	r3, #0
 213 017c 9360     		str	r3, [r2, #8]
 214              		.loc 1 52 35
 215 017e 199B     		ldr	r3, [sp, #100]
 216 0180 DA17     		asrs	r2, r3, #31
 217 0182 0693     		str	r3, [sp, #24]
 218 0184 0792     		str	r2, [sp, #28]
 219              		.loc 1 52 34
 220 0186 0023     		movs	r3, #0
 221 0188 DDE90601 		ldrd	r0, [sp, #24]
 222 018c 0246     		mov	r2, r0
 223 018e 5242     		negs	r2, r2
 224 0190 0092     		str	r2, [sp]
 225 0192 0A46     		mov	r2, r1
 226 0194 63EB0203 		sbc	r3, r3, r2
 227 0198 0193     		str	r3, [sp, #4]
 228              		.loc 1 52 54
ARM GAS  /tmp/ccKtbbXa.s 			page 5


 229 019a 169B     		ldr	r3, [sp, #88]
 230 019c DA17     		asrs	r2, r3, #31
 231 019e 0293     		str	r3, [sp, #8]
 232 01a0 0392     		str	r2, [sp, #12]
 233              		.loc 1 52 52
 234 01a2 DDE90001 		ldrd	r0, [sp]
 235 01a6 0B46     		mov	r3, r1
 236 01a8 029A     		ldr	r2, [sp, #8]
 237 01aa 02FB03F2 		mul	r2, r2, r3
 238 01ae 039B     		ldr	r3, [sp, #12]
 239 01b0 CDE90001 		strd	r0, [sp]
 240 01b4 0146     		mov	r1, r0
 241 01b6 01FB03F3 		mul	r3, r1, r3
 242 01ba 1344     		add	r3, r3, r2
 243 01bc 009A     		ldr	r2, [sp]
 244 01be 0299     		ldr	r1, [sp, #8]
 245 01c0 A2FB0145 		umull	r4, r5, r2, r1
 246 01c4 2B44     		add	r3, r3, r5
 247 01c6 1D46     		mov	r5, r3
 248              		.loc 1 52 72
 249 01c8 4FF00002 		mov	r2, #0
 250 01cc 4FF00003 		mov	r3, #0
 251 01d0 220D     		lsrs	r2, r4, #20
 252 01d2 42EA0532 		orr	r2, r2, r5, lsl #12
 253 01d6 2B15     		asrs	r3, r5, #20
 254              		.loc 1 52 21
 255 01d8 159B     		ldr	r3, [sp, #84]
 256 01da DA60     		str	r2, [r3, #12]
 257              		.loc 1 53 35
 258 01dc 199B     		ldr	r3, [sp, #100]
 259 01de DA17     		asrs	r2, r3, #31
 260 01e0 0893     		str	r3, [sp, #32]
 261 01e2 0992     		str	r2, [sp, #36]
 262              		.loc 1 53 34
 263 01e4 0023     		movs	r3, #0
 264 01e6 DDE90801 		ldrd	r0, [sp, #32]
 265 01ea 0246     		mov	r2, r0
 266 01ec 5242     		negs	r2, r2
 267 01ee 0A92     		str	r2, [sp, #40]
 268 01f0 0A46     		mov	r2, r1
 269 01f2 63EB0203 		sbc	r3, r3, r2
 270 01f6 0B93     		str	r3, [sp, #44]
 271              		.loc 1 53 54
 272 01f8 179B     		ldr	r3, [sp, #92]
 273 01fa DA17     		asrs	r2, r3, #31
 274 01fc 0493     		str	r3, [sp, #16]
 275 01fe 0592     		str	r2, [sp, #20]
 276              		.loc 1 53 52
 277 0200 DDE90A01 		ldrd	r0, [sp, #40]
 278 0204 0B46     		mov	r3, r1
 279 0206 DDE90445 		ldrd	r4, [sp, #16]
 280 020a 2246     		mov	r2, r4
 281 020c 02FB03F2 		mul	r2, r2, r3
 282 0210 CDE90445 		strd	r4, [sp, #16]
 283 0214 2B46     		mov	r3, r5
 284 0216 0446     		mov	r4, r0
 285 0218 0D46     		mov	r5, r1
ARM GAS  /tmp/ccKtbbXa.s 			page 6


 286 021a 2146     		mov	r1, r4
 287 021c 01FB03F3 		mul	r3, r1, r3
 288 0220 1344     		add	r3, r3, r2
 289 0222 2246     		mov	r2, r4
 290 0224 0499     		ldr	r1, [sp, #16]
 291 0226 A2FB0167 		umull	r6, r7, r2, r1
 292 022a 3B44     		add	r3, r3, r7
 293 022c 1F46     		mov	r7, r3
 294              		.loc 1 53 72
 295 022e 4FF00002 		mov	r2, #0
 296 0232 4FF00003 		mov	r3, #0
 297 0236 320D     		lsrs	r2, r6, #20
 298 0238 42EA0732 		orr	r2, r2, r7, lsl #12
 299 023c 3B15     		asrs	r3, r7, #20
 300              		.loc 1 53 21
 301 023e 159B     		ldr	r3, [sp, #84]
 302 0240 1A61     		str	r2, [r3, #16]
 303              		.loc 1 54 21
 304 0242 159B     		ldr	r3, [sp, #84]
 305 0244 189A     		ldr	r2, [sp, #96]
 306 0246 5A61     		str	r2, [r3, #20]
 307              		.loc 1 55 34
 308 0248 189B     		ldr	r3, [sp, #96]
 309 024a DA17     		asrs	r2, r3, #31
 310 024c 0C93     		str	r3, [sp, #48]
 311 024e 0D92     		str	r2, [sp, #52]
 312              		.loc 1 55 53
 313 0250 169B     		ldr	r3, [sp, #88]
 314 0252 DA17     		asrs	r2, r3, #31
 315 0254 0E93     		str	r3, [sp, #56]
 316 0256 0F92     		str	r2, [sp, #60]
 317              		.loc 1 55 51
 318 0258 DDE90C45 		ldrd	r4, [sp, #48]
 319 025c 2B46     		mov	r3, r5
 320 025e DDE90E67 		ldrd	r6, [sp, #56]
 321 0262 3246     		mov	r2, r6
 322 0264 02FB03F2 		mul	r2, r2, r3
 323 0268 3B46     		mov	r3, r7
 324 026a 2146     		mov	r1, r4
 325 026c 01FB03F3 		mul	r3, r1, r3
 326 0270 1344     		add	r3, r3, r2
 327 0272 2246     		mov	r2, r4
 328 0274 3146     		mov	r1, r6
 329 0276 A2FB01AB 		umull	r10, fp, r2, r1
 330 027a 5B44     		add	r3, r3, fp
 331 027c 9B46     		mov	fp, r3
 332              		.loc 1 55 71
 333 027e 4FF00002 		mov	r2, #0
 334 0282 4FF00003 		mov	r3, #0
 335 0286 4FEA1A52 		lsr	r2, r10, #20
 336 028a 42EA0B32 		orr	r2, r2, fp, lsl #12
 337 028e 4FEA2B53 		asr	r3, fp, #20
 338              		.loc 1 55 21
 339 0292 159B     		ldr	r3, [sp, #84]
 340 0294 9A61     		str	r2, [r3, #24]
 341              		.loc 1 56 34
 342 0296 189B     		ldr	r3, [sp, #96]
ARM GAS  /tmp/ccKtbbXa.s 			page 7


 343 0298 DA17     		asrs	r2, r3, #31
 344 029a 1093     		str	r3, [sp, #64]
 345 029c 1192     		str	r2, [sp, #68]
 346              		.loc 1 56 53
 347 029e 179B     		ldr	r3, [sp, #92]
 348 02a0 DA17     		asrs	r2, r3, #31
 349 02a2 1293     		str	r3, [sp, #72]
 350 02a4 1392     		str	r2, [sp, #76]
 351              		.loc 1 56 51
 352 02a6 DDE91045 		ldrd	r4, [sp, #64]
 353 02aa 2B46     		mov	r3, r5
 354 02ac DDE91267 		ldrd	r6, [sp, #72]
 355 02b0 3246     		mov	r2, r6
 356 02b2 02FB03F2 		mul	r2, r2, r3
 357 02b6 3B46     		mov	r3, r7
 358 02b8 2146     		mov	r1, r4
 359 02ba 01FB03F3 		mul	r3, r1, r3
 360 02be 1344     		add	r3, r3, r2
 361 02c0 2246     		mov	r2, r4
 362 02c2 3146     		mov	r1, r6
 363 02c4 A2FB0189 		umull	r8, r9, r2, r1
 364 02c8 4B44     		add	r3, r3, r9
 365 02ca 9946     		mov	r9, r3
 366              		.loc 1 56 71
 367 02cc 4FF00002 		mov	r2, #0
 368 02d0 4FF00003 		mov	r3, #0
 369 02d4 4FEA1852 		lsr	r2, r8, #20
 370 02d8 42EA0932 		orr	r2, r2, r9, lsl #12
 371 02dc 4FEA2953 		asr	r3, r9, #20
 372              		.loc 1 56 21
 373 02e0 159B     		ldr	r3, [sp, #84]
 374 02e2 DA61     		str	r2, [r3, #28]
 375              		.loc 1 57 21
 376 02e4 159B     		ldr	r3, [sp, #84]
 377 02e6 199A     		ldr	r2, [sp, #100]
 378 02e8 1A62     		str	r2, [r3, #32]
 379              		.loc 1 58 1
 380 02ea 00BF     		nop
 381 02ec 1BB0     		add	sp, sp, #108
 382              		.cfi_def_cfa_offset 36
 383              		@ sp needed
 384 02ee BDE8F08F 		pop	{r4, r5, r6, r7, r8, r9, r10, fp, pc}
 385              	.L3:
 386 02f2 00BFAFF3 		.align	3
 386      0080
 387              	.L2:
 388 02f8 399D52A2 		.word	-1571644103
 389 02fc 46DF913F 		.word	1066524486
 390 0300 00000000 		.word	0
 391 0304 D0126341 		.word	1097011920
 392 0308 00003041 		.word	1093664768
 393              		.cfi_endproc
 394              	.LFE21:
 395              		.size	ltp_of_ecef_rmat_from_lla_i, .-ltp_of_ecef_rmat_from_lla_i
 396              		.section	.text.ltp_def_from_ecef_i,"ax",%progbits
 397              		.align	1
 398              		.p2align 4,,15
ARM GAS  /tmp/ccKtbbXa.s 			page 8


 399              		.global	ltp_def_from_ecef_i
 400              		.syntax unified
 401              		.thumb
 402              		.thumb_func
 403              		.fpu fpv4-sp-d16
 404              		.type	ltp_def_from_ecef_i, %function
 405              	ltp_def_from_ecef_i:
 406              	.LFB22:
 407              		.loc 1 61 1
 408              		.cfi_startproc
 409              		@ args = 0, pretend = 0, frame = 8
 410              		@ frame_needed = 0, uses_anonymous_args = 0
 411 0000 00B5     		push	{lr}
 412              		.cfi_def_cfa_offset 4
 413              		.cfi_offset 14, -4
 414 0002 83B0     		sub	sp, sp, #12
 415              		.cfi_def_cfa_offset 16
 416 0004 0190     		str	r0, [sp, #4]
 417 0006 0091     		str	r1, [sp]
 418              		.loc 1 64 3
 419 0008 009B     		ldr	r3, [sp]
 420 000a 1A68     		ldr	r2, [r3]
 421 000c 019B     		ldr	r3, [sp, #4]
 422 000e 1A60     		str	r2, [r3]
 423 0010 009B     		ldr	r3, [sp]
 424 0012 5A68     		ldr	r2, [r3, #4]
 425 0014 019B     		ldr	r3, [sp, #4]
 426 0016 5A60     		str	r2, [r3, #4]
 427 0018 009B     		ldr	r3, [sp]
 428 001a 9A68     		ldr	r2, [r3, #8]
 429 001c 019B     		ldr	r3, [sp, #4]
 430 001e 9A60     		str	r2, [r3, #8]
 431              		.loc 1 66 3
 432 0020 019B     		ldr	r3, [sp, #4]
 433 0022 0C33     		adds	r3, r3, #12
 434 0024 019A     		ldr	r2, [sp, #4]
 435 0026 1146     		mov	r1, r2
 436 0028 1846     		mov	r0, r3
 437 002a FFF7FEFF 		bl	lla_of_ecef_i
 438              		.loc 1 68 3
 439 002e 019B     		ldr	r3, [sp, #4]
 440 0030 03F11802 		add	r2, r3, #24
 441 0034 019B     		ldr	r3, [sp, #4]
 442 0036 0C33     		adds	r3, r3, #12
 443 0038 1946     		mov	r1, r3
 444 003a 1046     		mov	r0, r2
 445 003c FFF7FEFF 		bl	ltp_of_ecef_rmat_from_lla_i
 446              		.loc 1 70 1
 447 0040 00BF     		nop
 448 0042 03B0     		add	sp, sp, #12
 449              		.cfi_def_cfa_offset 4
 450              		@ sp needed
 451 0044 5DF804FB 		ldr	pc, [sp], #4
 452              		.cfi_endproc
 453              	.LFE22:
 454              		.size	ltp_def_from_ecef_i, .-ltp_def_from_ecef_i
 455              		.section	.text.ltp_def_from_lla_i,"ax",%progbits
ARM GAS  /tmp/ccKtbbXa.s 			page 9


 456              		.align	1
 457              		.p2align 4,,15
 458              		.global	ltp_def_from_lla_i
 459              		.syntax unified
 460              		.thumb
 461              		.thumb_func
 462              		.fpu fpv4-sp-d16
 463              		.type	ltp_def_from_lla_i, %function
 464              	ltp_def_from_lla_i:
 465              	.LFB23:
 466              		.loc 1 73 1
 467              		.cfi_startproc
 468              		@ args = 0, pretend = 0, frame = 8
 469              		@ frame_needed = 0, uses_anonymous_args = 0
 470 0000 00B5     		push	{lr}
 471              		.cfi_def_cfa_offset 4
 472              		.cfi_offset 14, -4
 473 0002 83B0     		sub	sp, sp, #12
 474              		.cfi_def_cfa_offset 16
 475 0004 0190     		str	r0, [sp, #4]
 476 0006 0091     		str	r1, [sp]
 477              		.loc 1 76 3
 478 0008 009B     		ldr	r3, [sp]
 479 000a 1A68     		ldr	r2, [r3]
 480 000c 019B     		ldr	r3, [sp, #4]
 481 000e DA60     		str	r2, [r3, #12]
 482 0010 009B     		ldr	r3, [sp]
 483 0012 5A68     		ldr	r2, [r3, #4]
 484 0014 019B     		ldr	r3, [sp, #4]
 485 0016 1A61     		str	r2, [r3, #16]
 486 0018 009B     		ldr	r3, [sp]
 487 001a 9A68     		ldr	r2, [r3, #8]
 488 001c 019B     		ldr	r3, [sp, #4]
 489 001e 5A61     		str	r2, [r3, #20]
 490              		.loc 1 78 3
 491 0020 019A     		ldr	r2, [sp, #4]
 492 0022 019B     		ldr	r3, [sp, #4]
 493 0024 0C33     		adds	r3, r3, #12
 494 0026 1946     		mov	r1, r3
 495 0028 1046     		mov	r0, r2
 496 002a FFF7FEFF 		bl	ecef_of_lla_i
 497              		.loc 1 80 3
 498 002e 019B     		ldr	r3, [sp, #4]
 499 0030 03F11802 		add	r2, r3, #24
 500 0034 019B     		ldr	r3, [sp, #4]
 501 0036 0C33     		adds	r3, r3, #12
 502 0038 1946     		mov	r1, r3
 503 003a 1046     		mov	r0, r2
 504 003c FFF7FEFF 		bl	ltp_of_ecef_rmat_from_lla_i
 505              		.loc 1 82 1
 506 0040 00BF     		nop
 507 0042 03B0     		add	sp, sp, #12
 508              		.cfi_def_cfa_offset 4
 509              		@ sp needed
 510 0044 5DF804FB 		ldr	pc, [sp], #4
 511              		.cfi_endproc
 512              	.LFE23:
ARM GAS  /tmp/ccKtbbXa.s 			page 10


 513              		.size	ltp_def_from_lla_i, .-ltp_def_from_lla_i
 514              		.section	.text.enu_of_ecef_point_i,"ax",%progbits
 515              		.align	1
 516              		.p2align 4,,15
 517              		.global	enu_of_ecef_point_i
 518              		.syntax unified
 519              		.thumb
 520              		.thumb_func
 521              		.fpu fpv4-sp-d16
 522              		.type	enu_of_ecef_point_i, %function
 523              	enu_of_ecef_point_i:
 524              	.LFB24:
 525              		.loc 1 91 1
 526              		.cfi_startproc
 527              		@ args = 0, pretend = 0, frame = 256
 528              		@ frame_needed = 0, uses_anonymous_args = 0
 529              		@ link register save eliminated.
 530 0000 2DE9F00F 		push	{r4, r5, r6, r7, r8, r9, r10, fp}
 531              		.cfi_def_cfa_offset 32
 532              		.cfi_offset 4, -32
 533              		.cfi_offset 5, -28
 534              		.cfi_offset 6, -24
 535              		.cfi_offset 7, -20
 536              		.cfi_offset 8, -16
 537              		.cfi_offset 9, -12
 538              		.cfi_offset 10, -8
 539              		.cfi_offset 11, -4
 540 0004 C0B0     		sub	sp, sp, #256
 541              		.cfi_def_cfa_offset 288
 542 0006 3590     		str	r0, [sp, #212]
 543 0008 3491     		str	r1, [sp, #208]
 544 000a 3392     		str	r2, [sp, #204]
 545              		.loc 1 94 3
 546 000c 339B     		ldr	r3, [sp, #204]
 547 000e 1A68     		ldr	r2, [r3]
 548 0010 349B     		ldr	r3, [sp, #208]
 549 0012 1B68     		ldr	r3, [r3]
 550 0014 D31A     		subs	r3, r2, r3
 551 0016 3793     		str	r3, [sp, #220]
 552 0018 339B     		ldr	r3, [sp, #204]
 553 001a 5A68     		ldr	r2, [r3, #4]
 554 001c 349B     		ldr	r3, [sp, #208]
 555 001e 5B68     		ldr	r3, [r3, #4]
 556 0020 D31A     		subs	r3, r2, r3
 557 0022 3893     		str	r3, [sp, #224]
 558 0024 339B     		ldr	r3, [sp, #204]
 559 0026 9A68     		ldr	r2, [r3, #8]
 560 0028 349B     		ldr	r3, [sp, #208]
 561 002a 9B68     		ldr	r3, [r3, #8]
 562 002c D31A     		subs	r3, r2, r3
 563 002e 3993     		str	r3, [sp, #228]
 564              		.loc 1 95 51
 565 0030 349B     		ldr	r3, [sp, #208]
 566 0032 9B69     		ldr	r3, [r3, #24]
 567              		.loc 1 95 24
 568 0034 DA17     		asrs	r2, r3, #31
 569 0036 9A46     		mov	r10, r3
ARM GAS  /tmp/ccKtbbXa.s 			page 11


 570 0038 9346     		mov	fp, r2
 571              		.loc 1 95 62
 572 003a 379B     		ldr	r3, [sp, #220]
 573 003c DA17     		asrs	r2, r3, #31
 574 003e 1E46     		mov	r6, r3
 575 0040 1746     		mov	r7, r2
 576              		.loc 1 95 55
 577 0042 06FB0BF2 		mul	r2, r6, fp
 578 0046 0AFB07F3 		mul	r3, r10, r7
 579 004a 1344     		add	r3, r3, r2
 580 004c AAFB0689 		umull	r8, r9, r10, r6
 581 0050 4B44     		add	r3, r3, r9
 582 0052 9946     		mov	r9, r3
 583              		.loc 1 96 51
 584 0054 349B     		ldr	r3, [sp, #208]
 585 0056 DB69     		ldr	r3, [r3, #28]
 586              		.loc 1 96 24
 587 0058 DA17     		asrs	r2, r3, #31
 588 005a 0C93     		str	r3, [sp, #48]
 589 005c 0D92     		str	r2, [sp, #52]
 590              		.loc 1 96 62
 591 005e 389B     		ldr	r3, [sp, #224]
 592 0060 DA17     		asrs	r2, r3, #31
 593 0062 0E93     		str	r3, [sp, #56]
 594 0064 0F92     		str	r2, [sp, #60]
 595              		.loc 1 96 55
 596 0066 DDE90C67 		ldrd	r6, [sp, #48]
 597 006a 3B46     		mov	r3, r7
 598 006c DDE90EAB 		ldrd	r10, [sp, #56]
 599 0070 5246     		mov	r2, r10
 600 0072 02FB03F2 		mul	r2, r2, r3
 601 0076 5B46     		mov	r3, fp
 602 0078 3146     		mov	r1, r6
 603 007a 01FB03F3 		mul	r3, r1, r3
 604 007e 1344     		add	r3, r3, r2
 605 0080 3246     		mov	r2, r6
 606 0082 5146     		mov	r1, r10
 607 0084 A2FB0145 		umull	r4, r5, r2, r1
 608 0088 2B44     		add	r3, r3, r5
 609 008a 1D46     		mov	r5, r3
 610              		.loc 1 95 17
 611 008c 18EB0403 		adds	r3, r8, r4
 612 0090 2C93     		str	r3, [sp, #176]
 613 0092 49EB0503 		adc	r3, r9, r5
 614 0096 2D93     		str	r3, [sp, #180]
 615 0098 DDE92C34 		ldrd	r3, [sp, #176]
 616 009c CDE93E34 		strd	r3, [sp, #248]
 617              		.loc 1 98 27
 618 00a0 DDE93E23 		ldrd	r2, [sp, #248]
 619 00a4 4FF00000 		mov	r0, #0
 620 00a8 4FF00001 		mov	r1, #0
 621 00ac 100D     		lsrs	r0, r2, #20
 622 00ae 40EA0330 		orr	r0, r0, r3, lsl #12
 623 00b2 1915     		asrs	r1, r3, #20
 624              		.loc 1 98 12
 625 00b4 0246     		mov	r2, r0
 626              		.loc 1 98 10
ARM GAS  /tmp/ccKtbbXa.s 			page 12


 627 00b6 359B     		ldr	r3, [sp, #212]
 628 00b8 1A60     		str	r2, [r3]
 629              		.loc 1 99 51
 630 00ba 349B     		ldr	r3, [sp, #208]
 631 00bc 5B6A     		ldr	r3, [r3, #36]
 632              		.loc 1 99 24
 633 00be DA17     		asrs	r2, r3, #31
 634 00c0 1093     		str	r3, [sp, #64]
 635 00c2 1192     		str	r2, [sp, #68]
 636              		.loc 1 99 62
 637 00c4 379B     		ldr	r3, [sp, #220]
 638 00c6 DA17     		asrs	r2, r3, #31
 639 00c8 1293     		str	r3, [sp, #72]
 640 00ca 1392     		str	r2, [sp, #76]
 641              		.loc 1 99 55
 642 00cc DDE91045 		ldrd	r4, [sp, #64]
 643 00d0 2B46     		mov	r3, r5
 644 00d2 DDE91267 		ldrd	r6, [sp, #72]
 645 00d6 3246     		mov	r2, r6
 646 00d8 02FB03F2 		mul	r2, r2, r3
 647 00dc 3B46     		mov	r3, r7
 648 00de 2146     		mov	r1, r4
 649 00e0 01FB03F3 		mul	r3, r1, r3
 650 00e4 1344     		add	r3, r3, r2
 651 00e6 2246     		mov	r2, r4
 652 00e8 3146     		mov	r1, r6
 653 00ea A2FB0112 		umull	r1, r2, r2, r1
 654 00ee 0192     		str	r2, [sp, #4]
 655 00f0 0A46     		mov	r2, r1
 656 00f2 0092     		str	r2, [sp]
 657 00f4 019A     		ldr	r2, [sp, #4]
 658 00f6 1344     		add	r3, r3, r2
 659 00f8 0193     		str	r3, [sp, #4]
 660              		.loc 1 100 51
 661 00fa 349B     		ldr	r3, [sp, #208]
 662 00fc 9B6A     		ldr	r3, [r3, #40]
 663              		.loc 1 100 24
 664 00fe DA17     		asrs	r2, r3, #31
 665 0100 1493     		str	r3, [sp, #80]
 666 0102 1592     		str	r2, [sp, #84]
 667              		.loc 1 100 62
 668 0104 389B     		ldr	r3, [sp, #224]
 669 0106 DA17     		asrs	r2, r3, #31
 670 0108 1693     		str	r3, [sp, #88]
 671 010a 1792     		str	r2, [sp, #92]
 672              		.loc 1 100 55
 673 010c DDE91445 		ldrd	r4, [sp, #80]
 674 0110 2B46     		mov	r3, r5
 675 0112 DDE91667 		ldrd	r6, [sp, #88]
 676 0116 3246     		mov	r2, r6
 677 0118 02FB03F2 		mul	r2, r2, r3
 678 011c 3B46     		mov	r3, r7
 679 011e 2146     		mov	r1, r4
 680 0120 01FB03F3 		mul	r3, r1, r3
 681 0124 1344     		add	r3, r3, r2
 682 0126 2246     		mov	r2, r4
 683 0128 3146     		mov	r1, r6
ARM GAS  /tmp/ccKtbbXa.s 			page 13


 684 012a A2FB0112 		umull	r1, r2, r2, r1
 685 012e 0392     		str	r2, [sp, #12]
 686 0130 0A46     		mov	r2, r1
 687 0132 0292     		str	r2, [sp, #8]
 688 0134 039A     		ldr	r2, [sp, #12]
 689 0136 1344     		add	r3, r3, r2
 690 0138 0393     		str	r3, [sp, #12]
 691              		.loc 1 99 65
 692 013a DDE90045 		ldrd	r4, [sp]
 693 013e 2346     		mov	r3, r4
 694 0140 DDE90201 		ldrd	r0, [sp, #8]
 695 0144 0246     		mov	r2, r0
 696 0146 9B18     		adds	r3, r3, r2
 697 0148 1893     		str	r3, [sp, #96]
 698 014a 0B46     		mov	r3, r1
 699 014c 2A46     		mov	r2, r5
 700 014e 42EB0303 		adc	r3, r2, r3
 701 0152 1993     		str	r3, [sp, #100]
 702              		.loc 1 101 51
 703 0154 349B     		ldr	r3, [sp, #208]
 704 0156 DB6A     		ldr	r3, [r3, #44]
 705              		.loc 1 101 24
 706 0158 DA17     		asrs	r2, r3, #31
 707 015a 1A93     		str	r3, [sp, #104]
 708 015c 1B92     		str	r2, [sp, #108]
 709              		.loc 1 101 62
 710 015e 399B     		ldr	r3, [sp, #228]
 711 0160 DA17     		asrs	r2, r3, #31
 712 0162 1C93     		str	r3, [sp, #112]
 713 0164 1D92     		str	r2, [sp, #116]
 714              		.loc 1 101 55
 715 0166 DDE91A45 		ldrd	r4, [sp, #104]
 716 016a 2B46     		mov	r3, r5
 717 016c DDE91C67 		ldrd	r6, [sp, #112]
 718 0170 3246     		mov	r2, r6
 719 0172 02FB03F2 		mul	r2, r2, r3
 720 0176 3B46     		mov	r3, r7
 721 0178 2146     		mov	r1, r4
 722 017a 01FB03F3 		mul	r3, r1, r3
 723 017e 1344     		add	r3, r3, r2
 724 0180 2246     		mov	r2, r4
 725 0182 3146     		mov	r1, r6
 726 0184 A2FB0112 		umull	r1, r2, r2, r1
 727 0188 0592     		str	r2, [sp, #20]
 728 018a 0A46     		mov	r2, r1
 729 018c 0492     		str	r2, [sp, #16]
 730 018e 059A     		ldr	r2, [sp, #20]
 731 0190 1344     		add	r3, r3, r2
 732 0192 0593     		str	r3, [sp, #20]
 733              		.loc 1 99 17
 734 0194 DDE91845 		ldrd	r4, [sp, #96]
 735 0198 2346     		mov	r3, r4
 736 019a DDE90401 		ldrd	r0, [sp, #16]
 737 019e 0246     		mov	r2, r0
 738 01a0 9B18     		adds	r3, r3, r2
 739 01a2 2E93     		str	r3, [sp, #184]
 740 01a4 0B46     		mov	r3, r1
ARM GAS  /tmp/ccKtbbXa.s 			page 14


 741 01a6 2A46     		mov	r2, r5
 742 01a8 42EB0303 		adc	r3, r2, r3
 743 01ac 2F93     		str	r3, [sp, #188]
 744 01ae DDE92E34 		ldrd	r3, [sp, #184]
 745 01b2 CDE93C34 		strd	r3, [sp, #240]
 746              		.loc 1 102 27
 747 01b6 DDE93C23 		ldrd	r2, [sp, #240]
 748 01ba 4FF00000 		mov	r0, #0
 749 01be 4FF00001 		mov	r1, #0
 750 01c2 100D     		lsrs	r0, r2, #20
 751 01c4 40EA0330 		orr	r0, r0, r3, lsl #12
 752 01c8 1915     		asrs	r1, r3, #20
 753              		.loc 1 102 12
 754 01ca 0246     		mov	r2, r0
 755              		.loc 1 102 10
 756 01cc 359B     		ldr	r3, [sp, #212]
 757 01ce 5A60     		str	r2, [r3, #4]
 758              		.loc 1 103 51
 759 01d0 349B     		ldr	r3, [sp, #208]
 760 01d2 1B6B     		ldr	r3, [r3, #48]
 761              		.loc 1 103 24
 762 01d4 DA17     		asrs	r2, r3, #31
 763 01d6 1E93     		str	r3, [sp, #120]
 764 01d8 1F92     		str	r2, [sp, #124]
 765              		.loc 1 103 62
 766 01da 379B     		ldr	r3, [sp, #220]
 767 01dc DA17     		asrs	r2, r3, #31
 768 01de 2093     		str	r3, [sp, #128]
 769 01e0 2192     		str	r2, [sp, #132]
 770              		.loc 1 103 55
 771 01e2 DDE91E45 		ldrd	r4, [sp, #120]
 772 01e6 2B46     		mov	r3, r5
 773 01e8 DDE92067 		ldrd	r6, [sp, #128]
 774 01ec 3246     		mov	r2, r6
 775 01ee 02FB03F2 		mul	r2, r2, r3
 776 01f2 3B46     		mov	r3, r7
 777 01f4 2146     		mov	r1, r4
 778 01f6 01FB03F3 		mul	r3, r1, r3
 779 01fa 1344     		add	r3, r3, r2
 780 01fc 2246     		mov	r2, r4
 781 01fe 3146     		mov	r1, r6
 782 0200 A2FB0112 		umull	r1, r2, r2, r1
 783 0204 0792     		str	r2, [sp, #28]
 784 0206 0A46     		mov	r2, r1
 785 0208 0692     		str	r2, [sp, #24]
 786 020a 079A     		ldr	r2, [sp, #28]
 787 020c 1344     		add	r3, r3, r2
 788 020e 0793     		str	r3, [sp, #28]
 789              		.loc 1 104 51
 790 0210 349B     		ldr	r3, [sp, #208]
 791 0212 5B6B     		ldr	r3, [r3, #52]
 792              		.loc 1 104 24
 793 0214 DA17     		asrs	r2, r3, #31
 794 0216 2293     		str	r3, [sp, #136]
 795 0218 2392     		str	r2, [sp, #140]
 796              		.loc 1 104 62
 797 021a 389B     		ldr	r3, [sp, #224]
ARM GAS  /tmp/ccKtbbXa.s 			page 15


 798 021c DA17     		asrs	r2, r3, #31
 799 021e 2493     		str	r3, [sp, #144]
 800 0220 2592     		str	r2, [sp, #148]
 801              		.loc 1 104 55
 802 0222 DDE92245 		ldrd	r4, [sp, #136]
 803 0226 2B46     		mov	r3, r5
 804 0228 DDE92467 		ldrd	r6, [sp, #144]
 805 022c 3246     		mov	r2, r6
 806 022e 02FB03F2 		mul	r2, r2, r3
 807 0232 3B46     		mov	r3, r7
 808 0234 2146     		mov	r1, r4
 809 0236 01FB03F3 		mul	r3, r1, r3
 810 023a 1344     		add	r3, r3, r2
 811 023c 2246     		mov	r2, r4
 812 023e 3146     		mov	r1, r6
 813 0240 A2FB0112 		umull	r1, r2, r2, r1
 814 0244 0992     		str	r2, [sp, #36]
 815 0246 0A46     		mov	r2, r1
 816 0248 0892     		str	r2, [sp, #32]
 817 024a 099A     		ldr	r2, [sp, #36]
 818 024c 1344     		add	r3, r3, r2
 819 024e 0993     		str	r3, [sp, #36]
 820              		.loc 1 103 65
 821 0250 DDE90645 		ldrd	r4, [sp, #24]
 822 0254 2346     		mov	r3, r4
 823 0256 DDE90801 		ldrd	r0, [sp, #32]
 824 025a 0246     		mov	r2, r0
 825 025c 9B18     		adds	r3, r3, r2
 826 025e 2693     		str	r3, [sp, #152]
 827 0260 0B46     		mov	r3, r1
 828 0262 2A46     		mov	r2, r5
 829 0264 42EB0303 		adc	r3, r2, r3
 830 0268 2793     		str	r3, [sp, #156]
 831              		.loc 1 105 51
 832 026a 349B     		ldr	r3, [sp, #208]
 833 026c 9B6B     		ldr	r3, [r3, #56]
 834              		.loc 1 105 24
 835 026e DA17     		asrs	r2, r3, #31
 836 0270 2893     		str	r3, [sp, #160]
 837 0272 2992     		str	r2, [sp, #164]
 838              		.loc 1 105 62
 839 0274 399B     		ldr	r3, [sp, #228]
 840 0276 DA17     		asrs	r2, r3, #31
 841 0278 2A93     		str	r3, [sp, #168]
 842 027a 2B92     		str	r2, [sp, #172]
 843              		.loc 1 105 55
 844 027c DDE92845 		ldrd	r4, [sp, #160]
 845 0280 2B46     		mov	r3, r5
 846 0282 DDE92A67 		ldrd	r6, [sp, #168]
 847 0286 3246     		mov	r2, r6
 848 0288 02FB03F2 		mul	r2, r2, r3
 849 028c 3B46     		mov	r3, r7
 850 028e 2146     		mov	r1, r4
 851 0290 01FB03F3 		mul	r3, r1, r3
 852 0294 1344     		add	r3, r3, r2
 853 0296 2246     		mov	r2, r4
 854 0298 3146     		mov	r1, r6
ARM GAS  /tmp/ccKtbbXa.s 			page 16


 855 029a A2FB0112 		umull	r1, r2, r2, r1
 856 029e 0B92     		str	r2, [sp, #44]
 857 02a0 0A46     		mov	r2, r1
 858 02a2 0A92     		str	r2, [sp, #40]
 859 02a4 0B9A     		ldr	r2, [sp, #44]
 860 02a6 1344     		add	r3, r3, r2
 861 02a8 0B93     		str	r3, [sp, #44]
 862              		.loc 1 103 17
 863 02aa DDE92645 		ldrd	r4, [sp, #152]
 864 02ae 2346     		mov	r3, r4
 865 02b0 DDE90A01 		ldrd	r0, [sp, #40]
 866 02b4 0246     		mov	r2, r0
 867 02b6 9B18     		adds	r3, r3, r2
 868 02b8 3093     		str	r3, [sp, #192]
 869 02ba 0B46     		mov	r3, r1
 870 02bc 2A46     		mov	r2, r5
 871 02be 42EB0303 		adc	r3, r2, r3
 872 02c2 3193     		str	r3, [sp, #196]
 873 02c4 DDE93034 		ldrd	r3, [sp, #192]
 874 02c8 CDE93A34 		strd	r3, [sp, #232]
 875              		.loc 1 106 27
 876 02cc DDE93A01 		ldrd	r0, [sp, #232]
 877 02d0 4FF00002 		mov	r2, #0
 878 02d4 4FF00003 		mov	r3, #0
 879 02d8 020D     		lsrs	r2, r0, #20
 880 02da 42EA0132 		orr	r2, r2, r1, lsl #12
 881 02de 0B15     		asrs	r3, r1, #20
 882              		.loc 1 106 10
 883 02e0 359B     		ldr	r3, [sp, #212]
 884 02e2 9A60     		str	r2, [r3, #8]
 885              		.loc 1 108 1
 886 02e4 00BF     		nop
 887 02e6 40B0     		add	sp, sp, #256
 888              		.cfi_def_cfa_offset 32
 889              		@ sp needed
 890 02e8 BDE8F00F 		pop	{r4, r5, r6, r7, r8, r9, r10, fp}
 891              		.cfi_restore 11
 892              		.cfi_restore 10
 893              		.cfi_restore 9
 894              		.cfi_restore 8
 895              		.cfi_restore 7
 896              		.cfi_restore 6
 897              		.cfi_restore 5
 898              		.cfi_restore 4
 899              		.cfi_def_cfa_offset 0
 900 02ec 7047     		bx	lr
 901              		.cfi_endproc
 902              	.LFE24:
 903              		.size	enu_of_ecef_point_i, .-enu_of_ecef_point_i
 904 02ee 00BF     		.section	.text.ned_of_ecef_point_i,"ax",%progbits
 905              		.align	1
 906              		.p2align 4,,15
 907              		.global	ned_of_ecef_point_i
 908              		.syntax unified
 909              		.thumb
 910              		.thumb_func
 911              		.fpu fpv4-sp-d16
ARM GAS  /tmp/ccKtbbXa.s 			page 17


 912              		.type	ned_of_ecef_point_i, %function
 913              	ned_of_ecef_point_i:
 914              	.LFB25:
 915              		.loc 1 117 1
 916              		.cfi_startproc
 917              		@ args = 0, pretend = 0, frame = 32
 918              		@ frame_needed = 0, uses_anonymous_args = 0
 919 0000 00B5     		push	{lr}
 920              		.cfi_def_cfa_offset 4
 921              		.cfi_offset 14, -4
 922 0002 89B0     		sub	sp, sp, #36
 923              		.cfi_def_cfa_offset 40
 924 0004 0390     		str	r0, [sp, #12]
 925 0006 0291     		str	r1, [sp, #8]
 926 0008 0192     		str	r2, [sp, #4]
 927              		.loc 1 119 3
 928 000a 05AB     		add	r3, sp, #20
 929 000c 019A     		ldr	r2, [sp, #4]
 930 000e 0299     		ldr	r1, [sp, #8]
 931 0010 1846     		mov	r0, r3
 932 0012 FFF7FEFF 		bl	enu_of_ecef_point_i
 933              		.loc 1 120 3
 934 0016 069A     		ldr	r2, [sp, #24]
 935 0018 039B     		ldr	r3, [sp, #12]
 936 001a 1A60     		str	r2, [r3]
 937 001c 059A     		ldr	r2, [sp, #20]
 938 001e 039B     		ldr	r3, [sp, #12]
 939 0020 5A60     		str	r2, [r3, #4]
 940 0022 079B     		ldr	r3, [sp, #28]
 941 0024 5A42     		rsbs	r2, r3, #0
 942 0026 039B     		ldr	r3, [sp, #12]
 943 0028 9A60     		str	r2, [r3, #8]
 944              		.loc 1 121 1
 945 002a 00BF     		nop
 946 002c 09B0     		add	sp, sp, #36
 947              		.cfi_def_cfa_offset 4
 948              		@ sp needed
 949 002e 5DF804FB 		ldr	pc, [sp], #4
 950              		.cfi_endproc
 951              	.LFE25:
 952              		.size	ned_of_ecef_point_i, .-ned_of_ecef_point_i
 953 0032 00BF     		.section	.text.enu_of_ecef_pos_i,"ax",%progbits
 954              		.align	1
 955              		.p2align 4,,15
 956              		.global	enu_of_ecef_pos_i
 957              		.syntax unified
 958              		.thumb
 959              		.thumb_func
 960              		.fpu fpv4-sp-d16
 961              		.type	enu_of_ecef_pos_i, %function
 962              	enu_of_ecef_pos_i:
 963              	.LFB26:
 964              		.loc 1 130 1
 965              		.cfi_startproc
 966              		@ args = 0, pretend = 0, frame = 32
 967              		@ frame_needed = 0, uses_anonymous_args = 0
 968 0000 00B5     		push	{lr}
ARM GAS  /tmp/ccKtbbXa.s 			page 18


 969              		.cfi_def_cfa_offset 4
 970              		.cfi_offset 14, -4
 971 0002 89B0     		sub	sp, sp, #36
 972              		.cfi_def_cfa_offset 40
 973 0004 0390     		str	r0, [sp, #12]
 974 0006 0291     		str	r1, [sp, #8]
 975 0008 0192     		str	r2, [sp, #4]
 976              		.loc 1 132 3
 977 000a 05AB     		add	r3, sp, #20
 978 000c 019A     		ldr	r2, [sp, #4]
 979 000e 0299     		ldr	r1, [sp, #8]
 980 0010 1846     		mov	r0, r3
 981 0012 FFF7FEFF 		bl	enu_of_ecef_point_i
 982              		.loc 1 139 3
 983 0016 059B     		ldr	r3, [sp, #20]
 984 0018 9A01     		lsls	r2, r3, #6
 985 001a 039B     		ldr	r3, [sp, #12]
 986 001c 1A60     		str	r2, [r3]
 987 001e 069B     		ldr	r3, [sp, #24]
 988 0020 9A01     		lsls	r2, r3, #6
 989 0022 039B     		ldr	r3, [sp, #12]
 990 0024 5A60     		str	r2, [r3, #4]
 991 0026 079B     		ldr	r3, [sp, #28]
 992 0028 9A01     		lsls	r2, r3, #6
 993 002a 039B     		ldr	r3, [sp, #12]
 994 002c 9A60     		str	r2, [r3, #8]
 995              		.loc 1 140 3
 996 002e 039B     		ldr	r3, [sp, #12]
 997 0030 1B68     		ldr	r3, [r3]
 998 0032 104A     		ldr	r2, .L9
 999 0034 82FB0312 		smull	r1, r2, r2, r3
 1000 0038 D210     		asrs	r2, r2, #3
 1001 003a DB17     		asrs	r3, r3, #31
 1002 003c D21A     		subs	r2, r2, r3
 1003 003e 039B     		ldr	r3, [sp, #12]
 1004 0040 1A60     		str	r2, [r3]
 1005 0042 039B     		ldr	r3, [sp, #12]
 1006 0044 5B68     		ldr	r3, [r3, #4]
 1007 0046 0B4A     		ldr	r2, .L9
 1008 0048 82FB0312 		smull	r1, r2, r2, r3
 1009 004c D210     		asrs	r2, r2, #3
 1010 004e DB17     		asrs	r3, r3, #31
 1011 0050 D21A     		subs	r2, r2, r3
 1012 0052 039B     		ldr	r3, [sp, #12]
 1013 0054 5A60     		str	r2, [r3, #4]
 1014 0056 039B     		ldr	r3, [sp, #12]
 1015 0058 9B68     		ldr	r3, [r3, #8]
 1016 005a 064A     		ldr	r2, .L9
 1017 005c 82FB0312 		smull	r1, r2, r2, r3
 1018 0060 D210     		asrs	r2, r2, #3
 1019 0062 DB17     		asrs	r3, r3, #31
 1020 0064 D21A     		subs	r2, r2, r3
 1021 0066 039B     		ldr	r3, [sp, #12]
 1022 0068 9A60     		str	r2, [r3, #8]
 1023              		.loc 1 141 1
 1024 006a 00BF     		nop
 1025 006c 09B0     		add	sp, sp, #36
ARM GAS  /tmp/ccKtbbXa.s 			page 19


 1026              		.cfi_def_cfa_offset 4
 1027              		@ sp needed
 1028 006e 5DF804FB 		ldr	pc, [sp], #4
 1029              	.L10:
 1030 0072 00BF     		.align	2
 1031              	.L9:
 1032 0074 1F85EB51 		.word	1374389535
 1033              		.cfi_endproc
 1034              	.LFE26:
 1035              		.size	enu_of_ecef_pos_i, .-enu_of_ecef_pos_i
 1036              		.section	.text.ned_of_ecef_pos_i,"ax",%progbits
 1037              		.align	1
 1038              		.p2align 4,,15
 1039              		.global	ned_of_ecef_pos_i
 1040              		.syntax unified
 1041              		.thumb
 1042              		.thumb_func
 1043              		.fpu fpv4-sp-d16
 1044              		.type	ned_of_ecef_pos_i, %function
 1045              	ned_of_ecef_pos_i:
 1046              	.LFB27:
 1047              		.loc 1 150 1
 1048              		.cfi_startproc
 1049              		@ args = 0, pretend = 0, frame = 32
 1050              		@ frame_needed = 0, uses_anonymous_args = 0
 1051 0000 00B5     		push	{lr}
 1052              		.cfi_def_cfa_offset 4
 1053              		.cfi_offset 14, -4
 1054 0002 89B0     		sub	sp, sp, #36
 1055              		.cfi_def_cfa_offset 40
 1056 0004 0390     		str	r0, [sp, #12]
 1057 0006 0291     		str	r1, [sp, #8]
 1058 0008 0192     		str	r2, [sp, #4]
 1059              		.loc 1 152 3
 1060 000a 05AB     		add	r3, sp, #20
 1061 000c 019A     		ldr	r2, [sp, #4]
 1062 000e 0299     		ldr	r1, [sp, #8]
 1063 0010 1846     		mov	r0, r3
 1064 0012 FFF7FEFF 		bl	enu_of_ecef_pos_i
 1065              		.loc 1 153 3
 1066 0016 069A     		ldr	r2, [sp, #24]
 1067 0018 039B     		ldr	r3, [sp, #12]
 1068 001a 1A60     		str	r2, [r3]
 1069 001c 059A     		ldr	r2, [sp, #20]
 1070 001e 039B     		ldr	r3, [sp, #12]
 1071 0020 5A60     		str	r2, [r3, #4]
 1072 0022 079B     		ldr	r3, [sp, #28]
 1073 0024 5A42     		rsbs	r2, r3, #0
 1074 0026 039B     		ldr	r3, [sp, #12]
 1075 0028 9A60     		str	r2, [r3, #8]
 1076              		.loc 1 154 1
 1077 002a 00BF     		nop
 1078 002c 09B0     		add	sp, sp, #36
 1079              		.cfi_def_cfa_offset 4
 1080              		@ sp needed
 1081 002e 5DF804FB 		ldr	pc, [sp], #4
 1082              		.cfi_endproc
ARM GAS  /tmp/ccKtbbXa.s 			page 20


 1083              	.LFE27:
 1084              		.size	ned_of_ecef_pos_i, .-ned_of_ecef_pos_i
 1085 0032 00BF     		.section	.text.enu_of_ecef_vect_i,"ax",%progbits
 1086              		.align	1
 1087              		.p2align 4,,15
 1088              		.global	enu_of_ecef_vect_i
 1089              		.syntax unified
 1090              		.thumb
 1091              		.thumb_func
 1092              		.fpu fpv4-sp-d16
 1093              		.type	enu_of_ecef_vect_i, %function
 1094              	enu_of_ecef_vect_i:
 1095              	.LFB28:
 1096              		.loc 1 163 1
 1097              		.cfi_startproc
 1098              		@ args = 0, pretend = 0, frame = 240
 1099              		@ frame_needed = 0, uses_anonymous_args = 0
 1100              		@ link register save eliminated.
 1101 0000 2DE9F00F 		push	{r4, r5, r6, r7, r8, r9, r10, fp}
 1102              		.cfi_def_cfa_offset 32
 1103              		.cfi_offset 4, -32
 1104              		.cfi_offset 5, -28
 1105              		.cfi_offset 6, -24
 1106              		.cfi_offset 7, -20
 1107              		.cfi_offset 8, -16
 1108              		.cfi_offset 9, -12
 1109              		.cfi_offset 10, -8
 1110              		.cfi_offset 11, -4
 1111 0004 BCB0     		sub	sp, sp, #240
 1112              		.cfi_def_cfa_offset 272
 1113 0006 3590     		str	r0, [sp, #212]
 1114 0008 3491     		str	r1, [sp, #208]
 1115 000a 3392     		str	r2, [sp, #204]
 1116              		.loc 1 165 51
 1117 000c 349B     		ldr	r3, [sp, #208]
 1118 000e 9B69     		ldr	r3, [r3, #24]
 1119              		.loc 1 165 24
 1120 0010 DA17     		asrs	r2, r3, #31
 1121 0012 1E46     		mov	r6, r3
 1122 0014 1746     		mov	r7, r2
 1123              		.loc 1 165 61
 1124 0016 339B     		ldr	r3, [sp, #204]
 1125 0018 1B68     		ldr	r3, [r3]
 1126 001a DA17     		asrs	r2, r3, #31
 1127 001c 1C46     		mov	r4, r3
 1128 001e 1546     		mov	r5, r2
 1129              		.loc 1 165 55
 1130 0020 04FB07F2 		mul	r2, r4, r7
 1131 0024 06FB05F3 		mul	r3, r6, r5
 1132 0028 1344     		add	r3, r3, r2
 1133 002a A6FB04AB 		umull	r10, fp, r6, r4
 1134 002e 5B44     		add	r3, r3, fp
 1135 0030 9B46     		mov	fp, r3
 1136              		.loc 1 166 51
 1137 0032 349B     		ldr	r3, [sp, #208]
 1138 0034 DB69     		ldr	r3, [r3, #28]
 1139              		.loc 1 166 24
ARM GAS  /tmp/ccKtbbXa.s 			page 21


 1140 0036 DA17     		asrs	r2, r3, #31
 1141 0038 0C93     		str	r3, [sp, #48]
 1142 003a 0D92     		str	r2, [sp, #52]
 1143              		.loc 1 166 61
 1144 003c 339B     		ldr	r3, [sp, #204]
 1145 003e 5B68     		ldr	r3, [r3, #4]
 1146 0040 DA17     		asrs	r2, r3, #31
 1147 0042 0E93     		str	r3, [sp, #56]
 1148 0044 0F92     		str	r2, [sp, #60]
 1149              		.loc 1 166 55
 1150 0046 DDE90C45 		ldrd	r4, [sp, #48]
 1151 004a 2B46     		mov	r3, r5
 1152 004c DDE90E67 		ldrd	r6, [sp, #56]
 1153 0050 3246     		mov	r2, r6
 1154 0052 02FB03F2 		mul	r2, r2, r3
 1155 0056 3B46     		mov	r3, r7
 1156 0058 2146     		mov	r1, r4
 1157 005a 01FB03F3 		mul	r3, r1, r3
 1158 005e 1344     		add	r3, r3, r2
 1159 0060 2246     		mov	r2, r4
 1160 0062 3146     		mov	r1, r6
 1161 0064 A2FB0189 		umull	r8, r9, r2, r1
 1162 0068 4B44     		add	r3, r3, r9
 1163 006a 9946     		mov	r9, r3
 1164              		.loc 1 165 17
 1165 006c 1AEB0803 		adds	r3, r10, r8
 1166 0070 2C93     		str	r3, [sp, #176]
 1167 0072 4BEB0903 		adc	r3, fp, r9
 1168 0076 2D93     		str	r3, [sp, #180]
 1169 0078 DDE92C34 		ldrd	r3, [sp, #176]
 1170 007c CDE93A34 		strd	r3, [sp, #232]
 1171              		.loc 1 168 27
 1172 0080 DDE93A23 		ldrd	r2, [sp, #232]
 1173 0084 4FF00000 		mov	r0, #0
 1174 0088 4FF00001 		mov	r1, #0
 1175 008c 100D     		lsrs	r0, r2, #20
 1176 008e 40EA0330 		orr	r0, r0, r3, lsl #12
 1177 0092 1915     		asrs	r1, r3, #20
 1178              		.loc 1 168 12
 1179 0094 0246     		mov	r2, r0
 1180              		.loc 1 168 10
 1181 0096 359B     		ldr	r3, [sp, #212]
 1182 0098 1A60     		str	r2, [r3]
 1183              		.loc 1 169 51
 1184 009a 349B     		ldr	r3, [sp, #208]
 1185 009c 5B6A     		ldr	r3, [r3, #36]
 1186              		.loc 1 169 24
 1187 009e DA17     		asrs	r2, r3, #31
 1188 00a0 1093     		str	r3, [sp, #64]
 1189 00a2 1192     		str	r2, [sp, #68]
 1190              		.loc 1 169 61
 1191 00a4 339B     		ldr	r3, [sp, #204]
 1192 00a6 1B68     		ldr	r3, [r3]
 1193 00a8 DA17     		asrs	r2, r3, #31
 1194 00aa 1293     		str	r3, [sp, #72]
 1195 00ac 1392     		str	r2, [sp, #76]
 1196              		.loc 1 169 55
ARM GAS  /tmp/ccKtbbXa.s 			page 22


 1197 00ae DDE91045 		ldrd	r4, [sp, #64]
 1198 00b2 2B46     		mov	r3, r5
 1199 00b4 DDE91267 		ldrd	r6, [sp, #72]
 1200 00b8 3246     		mov	r2, r6
 1201 00ba 02FB03F2 		mul	r2, r2, r3
 1202 00be 3B46     		mov	r3, r7
 1203 00c0 2146     		mov	r1, r4
 1204 00c2 01FB03F3 		mul	r3, r1, r3
 1205 00c6 1344     		add	r3, r3, r2
 1206 00c8 2246     		mov	r2, r4
 1207 00ca 3146     		mov	r1, r6
 1208 00cc A2FB0112 		umull	r1, r2, r2, r1
 1209 00d0 0192     		str	r2, [sp, #4]
 1210 00d2 0A46     		mov	r2, r1
 1211 00d4 0092     		str	r2, [sp]
 1212 00d6 019A     		ldr	r2, [sp, #4]
 1213 00d8 1344     		add	r3, r3, r2
 1214 00da 0193     		str	r3, [sp, #4]
 1215              		.loc 1 170 51
 1216 00dc 349B     		ldr	r3, [sp, #208]
 1217 00de 9B6A     		ldr	r3, [r3, #40]
 1218              		.loc 1 170 24
 1219 00e0 DA17     		asrs	r2, r3, #31
 1220 00e2 1493     		str	r3, [sp, #80]
 1221 00e4 1592     		str	r2, [sp, #84]
 1222              		.loc 1 170 61
 1223 00e6 339B     		ldr	r3, [sp, #204]
 1224 00e8 5B68     		ldr	r3, [r3, #4]
 1225 00ea DA17     		asrs	r2, r3, #31
 1226 00ec 1693     		str	r3, [sp, #88]
 1227 00ee 1792     		str	r2, [sp, #92]
 1228              		.loc 1 170 55
 1229 00f0 DDE91445 		ldrd	r4, [sp, #80]
 1230 00f4 2B46     		mov	r3, r5
 1231 00f6 DDE91667 		ldrd	r6, [sp, #88]
 1232 00fa 3246     		mov	r2, r6
 1233 00fc 02FB03F2 		mul	r2, r2, r3
 1234 0100 3B46     		mov	r3, r7
 1235 0102 2146     		mov	r1, r4
 1236 0104 01FB03F3 		mul	r3, r1, r3
 1237 0108 1344     		add	r3, r3, r2
 1238 010a 2246     		mov	r2, r4
 1239 010c 3146     		mov	r1, r6
 1240 010e A2FB0112 		umull	r1, r2, r2, r1
 1241 0112 0392     		str	r2, [sp, #12]
 1242 0114 0A46     		mov	r2, r1
 1243 0116 0292     		str	r2, [sp, #8]
 1244 0118 039A     		ldr	r2, [sp, #12]
 1245 011a 1344     		add	r3, r3, r2
 1246 011c 0393     		str	r3, [sp, #12]
 1247              		.loc 1 169 65
 1248 011e DDE90045 		ldrd	r4, [sp]
 1249 0122 2346     		mov	r3, r4
 1250 0124 DDE90201 		ldrd	r0, [sp, #8]
 1251 0128 0246     		mov	r2, r0
 1252 012a 9B18     		adds	r3, r3, r2
 1253 012c 1893     		str	r3, [sp, #96]
ARM GAS  /tmp/ccKtbbXa.s 			page 23


 1254 012e 0B46     		mov	r3, r1
 1255 0130 2A46     		mov	r2, r5
 1256 0132 42EB0303 		adc	r3, r2, r3
 1257 0136 1993     		str	r3, [sp, #100]
 1258              		.loc 1 171 51
 1259 0138 349B     		ldr	r3, [sp, #208]
 1260 013a DB6A     		ldr	r3, [r3, #44]
 1261              		.loc 1 171 24
 1262 013c DA17     		asrs	r2, r3, #31
 1263 013e 1A93     		str	r3, [sp, #104]
 1264 0140 1B92     		str	r2, [sp, #108]
 1265              		.loc 1 171 61
 1266 0142 339B     		ldr	r3, [sp, #204]
 1267 0144 9B68     		ldr	r3, [r3, #8]
 1268 0146 DA17     		asrs	r2, r3, #31
 1269 0148 1C93     		str	r3, [sp, #112]
 1270 014a 1D92     		str	r2, [sp, #116]
 1271              		.loc 1 171 55
 1272 014c DDE91A45 		ldrd	r4, [sp, #104]
 1273 0150 2B46     		mov	r3, r5
 1274 0152 DDE91C67 		ldrd	r6, [sp, #112]
 1275 0156 3246     		mov	r2, r6
 1276 0158 02FB03F2 		mul	r2, r2, r3
 1277 015c 3B46     		mov	r3, r7
 1278 015e 2146     		mov	r1, r4
 1279 0160 01FB03F3 		mul	r3, r1, r3
 1280 0164 1344     		add	r3, r3, r2
 1281 0166 2246     		mov	r2, r4
 1282 0168 3146     		mov	r1, r6
 1283 016a A2FB0112 		umull	r1, r2, r2, r1
 1284 016e 0592     		str	r2, [sp, #20]
 1285 0170 0A46     		mov	r2, r1
 1286 0172 0492     		str	r2, [sp, #16]
 1287 0174 059A     		ldr	r2, [sp, #20]
 1288 0176 1344     		add	r3, r3, r2
 1289 0178 0593     		str	r3, [sp, #20]
 1290              		.loc 1 169 17
 1291 017a DDE91845 		ldrd	r4, [sp, #96]
 1292 017e 2346     		mov	r3, r4
 1293 0180 DDE90401 		ldrd	r0, [sp, #16]
 1294 0184 0246     		mov	r2, r0
 1295 0186 9B18     		adds	r3, r3, r2
 1296 0188 2E93     		str	r3, [sp, #184]
 1297 018a 0B46     		mov	r3, r1
 1298 018c 2A46     		mov	r2, r5
 1299 018e 42EB0303 		adc	r3, r2, r3
 1300 0192 2F93     		str	r3, [sp, #188]
 1301 0194 DDE92E34 		ldrd	r3, [sp, #184]
 1302 0198 CDE93834 		strd	r3, [sp, #224]
 1303              		.loc 1 172 27
 1304 019c DDE93823 		ldrd	r2, [sp, #224]
 1305 01a0 4FF00000 		mov	r0, #0
 1306 01a4 4FF00001 		mov	r1, #0
 1307 01a8 100D     		lsrs	r0, r2, #20
 1308 01aa 40EA0330 		orr	r0, r0, r3, lsl #12
 1309 01ae 1915     		asrs	r1, r3, #20
 1310              		.loc 1 172 12
ARM GAS  /tmp/ccKtbbXa.s 			page 24


 1311 01b0 0246     		mov	r2, r0
 1312              		.loc 1 172 10
 1313 01b2 359B     		ldr	r3, [sp, #212]
 1314 01b4 5A60     		str	r2, [r3, #4]
 1315              		.loc 1 173 51
 1316 01b6 349B     		ldr	r3, [sp, #208]
 1317 01b8 1B6B     		ldr	r3, [r3, #48]
 1318              		.loc 1 173 24
 1319 01ba DA17     		asrs	r2, r3, #31
 1320 01bc 1E93     		str	r3, [sp, #120]
 1321 01be 1F92     		str	r2, [sp, #124]
 1322              		.loc 1 173 61
 1323 01c0 339B     		ldr	r3, [sp, #204]
 1324 01c2 1B68     		ldr	r3, [r3]
 1325 01c4 DA17     		asrs	r2, r3, #31
 1326 01c6 2093     		str	r3, [sp, #128]
 1327 01c8 2192     		str	r2, [sp, #132]
 1328              		.loc 1 173 55
 1329 01ca DDE91E45 		ldrd	r4, [sp, #120]
 1330 01ce 2B46     		mov	r3, r5
 1331 01d0 DDE92067 		ldrd	r6, [sp, #128]
 1332 01d4 3246     		mov	r2, r6
 1333 01d6 02FB03F2 		mul	r2, r2, r3
 1334 01da 3B46     		mov	r3, r7
 1335 01dc 2146     		mov	r1, r4
 1336 01de 01FB03F3 		mul	r3, r1, r3
 1337 01e2 1344     		add	r3, r3, r2
 1338 01e4 2246     		mov	r2, r4
 1339 01e6 3146     		mov	r1, r6
 1340 01e8 A2FB0112 		umull	r1, r2, r2, r1
 1341 01ec 0792     		str	r2, [sp, #28]
 1342 01ee 0A46     		mov	r2, r1
 1343 01f0 0692     		str	r2, [sp, #24]
 1344 01f2 079A     		ldr	r2, [sp, #28]
 1345 01f4 1344     		add	r3, r3, r2
 1346 01f6 0793     		str	r3, [sp, #28]
 1347              		.loc 1 174 51
 1348 01f8 349B     		ldr	r3, [sp, #208]
 1349 01fa 5B6B     		ldr	r3, [r3, #52]
 1350              		.loc 1 174 24
 1351 01fc DA17     		asrs	r2, r3, #31
 1352 01fe 2293     		str	r3, [sp, #136]
 1353 0200 2392     		str	r2, [sp, #140]
 1354              		.loc 1 174 61
 1355 0202 339B     		ldr	r3, [sp, #204]
 1356 0204 5B68     		ldr	r3, [r3, #4]
 1357 0206 DA17     		asrs	r2, r3, #31
 1358 0208 2493     		str	r3, [sp, #144]
 1359 020a 2592     		str	r2, [sp, #148]
 1360              		.loc 1 174 55
 1361 020c DDE92245 		ldrd	r4, [sp, #136]
 1362 0210 2B46     		mov	r3, r5
 1363 0212 DDE92467 		ldrd	r6, [sp, #144]
 1364 0216 3246     		mov	r2, r6
 1365 0218 02FB03F2 		mul	r2, r2, r3
 1366 021c 3B46     		mov	r3, r7
 1367 021e 2146     		mov	r1, r4
ARM GAS  /tmp/ccKtbbXa.s 			page 25


 1368 0220 01FB03F3 		mul	r3, r1, r3
 1369 0224 1344     		add	r3, r3, r2
 1370 0226 2246     		mov	r2, r4
 1371 0228 3146     		mov	r1, r6
 1372 022a A2FB0112 		umull	r1, r2, r2, r1
 1373 022e 0992     		str	r2, [sp, #36]
 1374 0230 0A46     		mov	r2, r1
 1375 0232 0892     		str	r2, [sp, #32]
 1376 0234 099A     		ldr	r2, [sp, #36]
 1377 0236 1344     		add	r3, r3, r2
 1378 0238 0993     		str	r3, [sp, #36]
 1379              		.loc 1 173 65
 1380 023a DDE90645 		ldrd	r4, [sp, #24]
 1381 023e 2346     		mov	r3, r4
 1382 0240 DDE90801 		ldrd	r0, [sp, #32]
 1383 0244 0246     		mov	r2, r0
 1384 0246 9B18     		adds	r3, r3, r2
 1385 0248 2693     		str	r3, [sp, #152]
 1386 024a 0B46     		mov	r3, r1
 1387 024c 2A46     		mov	r2, r5
 1388 024e 42EB0303 		adc	r3, r2, r3
 1389 0252 2793     		str	r3, [sp, #156]
 1390              		.loc 1 175 51
 1391 0254 349B     		ldr	r3, [sp, #208]
 1392 0256 9B6B     		ldr	r3, [r3, #56]
 1393              		.loc 1 175 24
 1394 0258 DA17     		asrs	r2, r3, #31
 1395 025a 2893     		str	r3, [sp, #160]
 1396 025c 2992     		str	r2, [sp, #164]
 1397              		.loc 1 175 61
 1398 025e 339B     		ldr	r3, [sp, #204]
 1399 0260 9B68     		ldr	r3, [r3, #8]
 1400 0262 DA17     		asrs	r2, r3, #31
 1401 0264 2A93     		str	r3, [sp, #168]
 1402 0266 2B92     		str	r2, [sp, #172]
 1403              		.loc 1 175 55
 1404 0268 DDE92845 		ldrd	r4, [sp, #160]
 1405 026c 2B46     		mov	r3, r5
 1406 026e DDE92A67 		ldrd	r6, [sp, #168]
 1407 0272 3246     		mov	r2, r6
 1408 0274 02FB03F2 		mul	r2, r2, r3
 1409 0278 3B46     		mov	r3, r7
 1410 027a 2146     		mov	r1, r4
 1411 027c 01FB03F3 		mul	r3, r1, r3
 1412 0280 1344     		add	r3, r3, r2
 1413 0282 2246     		mov	r2, r4
 1414 0284 3146     		mov	r1, r6
 1415 0286 A2FB0112 		umull	r1, r2, r2, r1
 1416 028a 0B92     		str	r2, [sp, #44]
 1417 028c 0A46     		mov	r2, r1
 1418 028e 0A92     		str	r2, [sp, #40]
 1419 0290 0B9A     		ldr	r2, [sp, #44]
 1420 0292 1344     		add	r3, r3, r2
 1421 0294 0B93     		str	r3, [sp, #44]
 1422              		.loc 1 173 17
 1423 0296 DDE92645 		ldrd	r4, [sp, #152]
 1424 029a 2346     		mov	r3, r4
ARM GAS  /tmp/ccKtbbXa.s 			page 26


 1425 029c DDE90A01 		ldrd	r0, [sp, #40]
 1426 02a0 0246     		mov	r2, r0
 1427 02a2 9B18     		adds	r3, r3, r2
 1428 02a4 3093     		str	r3, [sp, #192]
 1429 02a6 0B46     		mov	r3, r1
 1430 02a8 2A46     		mov	r2, r5
 1431 02aa 42EB0303 		adc	r3, r2, r3
 1432 02ae 3193     		str	r3, [sp, #196]
 1433 02b0 DDE93034 		ldrd	r3, [sp, #192]
 1434 02b4 CDE93634 		strd	r3, [sp, #216]
 1435              		.loc 1 176 27
 1436 02b8 DDE93601 		ldrd	r0, [sp, #216]
 1437 02bc 4FF00002 		mov	r2, #0
 1438 02c0 4FF00003 		mov	r3, #0
 1439 02c4 020D     		lsrs	r2, r0, #20
 1440 02c6 42EA0132 		orr	r2, r2, r1, lsl #12
 1441 02ca 0B15     		asrs	r3, r1, #20
 1442              		.loc 1 176 10
 1443 02cc 359B     		ldr	r3, [sp, #212]
 1444 02ce 9A60     		str	r2, [r3, #8]
 1445              		.loc 1 178 1
 1446 02d0 00BF     		nop
 1447 02d2 3CB0     		add	sp, sp, #240
 1448              		.cfi_def_cfa_offset 32
 1449              		@ sp needed
 1450 02d4 BDE8F00F 		pop	{r4, r5, r6, r7, r8, r9, r10, fp}
 1451              		.cfi_restore 11
 1452              		.cfi_restore 10
 1453              		.cfi_restore 9
 1454              		.cfi_restore 8
 1455              		.cfi_restore 7
 1456              		.cfi_restore 6
 1457              		.cfi_restore 5
 1458              		.cfi_restore 4
 1459              		.cfi_def_cfa_offset 0
 1460 02d8 7047     		bx	lr
 1461              		.cfi_endproc
 1462              	.LFE28:
 1463              		.size	enu_of_ecef_vect_i, .-enu_of_ecef_vect_i
 1464 02da 00BF     		.section	.text.ned_of_ecef_vect_i,"ax",%progbits
 1465              		.align	1
 1466              		.p2align 4,,15
 1467              		.global	ned_of_ecef_vect_i
 1468              		.syntax unified
 1469              		.thumb
 1470              		.thumb_func
 1471              		.fpu fpv4-sp-d16
 1472              		.type	ned_of_ecef_vect_i, %function
 1473              	ned_of_ecef_vect_i:
 1474              	.LFB29:
 1475              		.loc 1 187 1
 1476              		.cfi_startproc
 1477              		@ args = 0, pretend = 0, frame = 32
 1478              		@ frame_needed = 0, uses_anonymous_args = 0
 1479 0000 00B5     		push	{lr}
 1480              		.cfi_def_cfa_offset 4
 1481              		.cfi_offset 14, -4
ARM GAS  /tmp/ccKtbbXa.s 			page 27


 1482 0002 89B0     		sub	sp, sp, #36
 1483              		.cfi_def_cfa_offset 40
 1484 0004 0390     		str	r0, [sp, #12]
 1485 0006 0291     		str	r1, [sp, #8]
 1486 0008 0192     		str	r2, [sp, #4]
 1487              		.loc 1 189 3
 1488 000a 05AB     		add	r3, sp, #20
 1489 000c 019A     		ldr	r2, [sp, #4]
 1490 000e 0299     		ldr	r1, [sp, #8]
 1491 0010 1846     		mov	r0, r3
 1492 0012 FFF7FEFF 		bl	enu_of_ecef_vect_i
 1493              		.loc 1 190 3
 1494 0016 069A     		ldr	r2, [sp, #24]
 1495 0018 039B     		ldr	r3, [sp, #12]
 1496 001a 1A60     		str	r2, [r3]
 1497 001c 059A     		ldr	r2, [sp, #20]
 1498 001e 039B     		ldr	r3, [sp, #12]
 1499 0020 5A60     		str	r2, [r3, #4]
 1500 0022 079B     		ldr	r3, [sp, #28]
 1501 0024 5A42     		rsbs	r2, r3, #0
 1502 0026 039B     		ldr	r3, [sp, #12]
 1503 0028 9A60     		str	r2, [r3, #8]
 1504              		.loc 1 191 1
 1505 002a 00BF     		nop
 1506 002c 09B0     		add	sp, sp, #36
 1507              		.cfi_def_cfa_offset 4
 1508              		@ sp needed
 1509 002e 5DF804FB 		ldr	pc, [sp], #4
 1510              		.cfi_endproc
 1511              	.LFE29:
 1512              		.size	ned_of_ecef_vect_i, .-ned_of_ecef_vect_i
 1513 0032 00BF     		.section	.text.ecef_of_enu_vect_i,"ax",%progbits
 1514              		.align	1
 1515              		.p2align 4,,15
 1516              		.global	ecef_of_enu_vect_i
 1517              		.syntax unified
 1518              		.thumb
 1519              		.thumb_func
 1520              		.fpu fpv4-sp-d16
 1521              		.type	ecef_of_enu_vect_i, %function
 1522              	ecef_of_enu_vect_i:
 1523              	.LFB30:
 1524              		.loc 1 200 1
 1525              		.cfi_startproc
 1526              		@ args = 0, pretend = 0, frame = 240
 1527              		@ frame_needed = 0, uses_anonymous_args = 0
 1528              		@ link register save eliminated.
 1529 0000 2DE9F00F 		push	{r4, r5, r6, r7, r8, r9, r10, fp}
 1530              		.cfi_def_cfa_offset 32
 1531              		.cfi_offset 4, -32
 1532              		.cfi_offset 5, -28
 1533              		.cfi_offset 6, -24
 1534              		.cfi_offset 7, -20
 1535              		.cfi_offset 8, -16
 1536              		.cfi_offset 9, -12
 1537              		.cfi_offset 10, -8
 1538              		.cfi_offset 11, -4
ARM GAS  /tmp/ccKtbbXa.s 			page 28


 1539 0004 BCB0     		sub	sp, sp, #240
 1540              		.cfi_def_cfa_offset 272
 1541 0006 3590     		str	r0, [sp, #212]
 1542 0008 3491     		str	r1, [sp, #208]
 1543 000a 3392     		str	r2, [sp, #204]
 1544              		.loc 1 202 51
 1545 000c 349B     		ldr	r3, [sp, #208]
 1546 000e 9B69     		ldr	r3, [r3, #24]
 1547              		.loc 1 202 24
 1548 0010 DA17     		asrs	r2, r3, #31
 1549 0012 1E46     		mov	r6, r3
 1550 0014 1746     		mov	r7, r2
 1551              		.loc 1 202 60
 1552 0016 339B     		ldr	r3, [sp, #204]
 1553 0018 1B68     		ldr	r3, [r3]
 1554 001a DA17     		asrs	r2, r3, #31
 1555 001c 1C46     		mov	r4, r3
 1556 001e 1546     		mov	r5, r2
 1557              		.loc 1 202 55
 1558 0020 04FB07F2 		mul	r2, r4, r7
 1559 0024 06FB05F3 		mul	r3, r6, r5
 1560 0028 1344     		add	r3, r3, r2
 1561 002a A6FB04AB 		umull	r10, fp, r6, r4
 1562 002e 5B44     		add	r3, r3, fp
 1563 0030 9B46     		mov	fp, r3
 1564              		.loc 1 203 51
 1565 0032 349B     		ldr	r3, [sp, #208]
 1566 0034 5B6A     		ldr	r3, [r3, #36]
 1567              		.loc 1 203 24
 1568 0036 DA17     		asrs	r2, r3, #31
 1569 0038 0C93     		str	r3, [sp, #48]
 1570 003a 0D92     		str	r2, [sp, #52]
 1571              		.loc 1 203 60
 1572 003c 339B     		ldr	r3, [sp, #204]
 1573 003e 5B68     		ldr	r3, [r3, #4]
 1574 0040 DA17     		asrs	r2, r3, #31
 1575 0042 0E93     		str	r3, [sp, #56]
 1576 0044 0F92     		str	r2, [sp, #60]
 1577              		.loc 1 203 55
 1578 0046 DDE90C45 		ldrd	r4, [sp, #48]
 1579 004a 2B46     		mov	r3, r5
 1580 004c DDE90E67 		ldrd	r6, [sp, #56]
 1581 0050 3246     		mov	r2, r6
 1582 0052 02FB03F2 		mul	r2, r2, r3
 1583 0056 3B46     		mov	r3, r7
 1584 0058 2146     		mov	r1, r4
 1585 005a 01FB03F3 		mul	r3, r1, r3
 1586 005e 1344     		add	r3, r3, r2
 1587 0060 2246     		mov	r2, r4
 1588 0062 3146     		mov	r1, r6
 1589 0064 A2FB0189 		umull	r8, r9, r2, r1
 1590 0068 4B44     		add	r3, r3, r9
 1591 006a 9946     		mov	r9, r3
 1592              		.loc 1 202 64
 1593 006c 1AEB0803 		adds	r3, r10, r8
 1594 0070 1093     		str	r3, [sp, #64]
 1595 0072 4BEB0903 		adc	r3, fp, r9
ARM GAS  /tmp/ccKtbbXa.s 			page 29


 1596 0076 1193     		str	r3, [sp, #68]
 1597              		.loc 1 204 51
 1598 0078 349B     		ldr	r3, [sp, #208]
 1599 007a 1B6B     		ldr	r3, [r3, #48]
 1600              		.loc 1 204 24
 1601 007c DA17     		asrs	r2, r3, #31
 1602 007e 1293     		str	r3, [sp, #72]
 1603 0080 1392     		str	r2, [sp, #76]
 1604              		.loc 1 204 60
 1605 0082 339B     		ldr	r3, [sp, #204]
 1606 0084 9B68     		ldr	r3, [r3, #8]
 1607 0086 DA17     		asrs	r2, r3, #31
 1608 0088 1493     		str	r3, [sp, #80]
 1609 008a 1592     		str	r2, [sp, #84]
 1610              		.loc 1 204 55
 1611 008c DDE91245 		ldrd	r4, [sp, #72]
 1612 0090 2B46     		mov	r3, r5
 1613 0092 DDE91467 		ldrd	r6, [sp, #80]
 1614 0096 3246     		mov	r2, r6
 1615 0098 02FB03F2 		mul	r2, r2, r3
 1616 009c 3B46     		mov	r3, r7
 1617 009e 2146     		mov	r1, r4
 1618 00a0 01FB03F3 		mul	r3, r1, r3
 1619 00a4 1344     		add	r3, r3, r2
 1620 00a6 2246     		mov	r2, r4
 1621 00a8 3146     		mov	r1, r6
 1622 00aa A2FB0112 		umull	r1, r2, r2, r1
 1623 00ae 0192     		str	r2, [sp, #4]
 1624 00b0 0A46     		mov	r2, r1
 1625 00b2 0092     		str	r2, [sp]
 1626 00b4 019A     		ldr	r2, [sp, #4]
 1627 00b6 1344     		add	r3, r3, r2
 1628 00b8 0193     		str	r3, [sp, #4]
 1629              		.loc 1 202 17
 1630 00ba DDE91045 		ldrd	r4, [sp, #64]
 1631 00be 2346     		mov	r3, r4
 1632 00c0 DDE90001 		ldrd	r0, [sp]
 1633 00c4 0246     		mov	r2, r0
 1634 00c6 9B18     		adds	r3, r3, r2
 1635 00c8 2C93     		str	r3, [sp, #176]
 1636 00ca 0B46     		mov	r3, r1
 1637 00cc 2A46     		mov	r2, r5
 1638 00ce 42EB0303 		adc	r3, r2, r3
 1639 00d2 2D93     		str	r3, [sp, #180]
 1640 00d4 DDE92C34 		ldrd	r3, [sp, #176]
 1641 00d8 CDE93A34 		strd	r3, [sp, #232]
 1642              		.loc 1 205 28
 1643 00dc DDE93A23 		ldrd	r2, [sp, #232]
 1644 00e0 4FF00000 		mov	r0, #0
 1645 00e4 4FF00001 		mov	r1, #0
 1646 00e8 100D     		lsrs	r0, r2, #20
 1647 00ea 40EA0330 		orr	r0, r0, r3, lsl #12
 1648 00ee 1915     		asrs	r1, r3, #20
 1649              		.loc 1 205 13
 1650 00f0 0246     		mov	r2, r0
 1651              		.loc 1 205 11
 1652 00f2 359B     		ldr	r3, [sp, #212]
ARM GAS  /tmp/ccKtbbXa.s 			page 30


 1653 00f4 1A60     		str	r2, [r3]
 1654              		.loc 1 207 51
 1655 00f6 349B     		ldr	r3, [sp, #208]
 1656 00f8 DB69     		ldr	r3, [r3, #28]
 1657              		.loc 1 207 24
 1658 00fa DA17     		asrs	r2, r3, #31
 1659 00fc 1693     		str	r3, [sp, #88]
 1660 00fe 1792     		str	r2, [sp, #92]
 1661              		.loc 1 207 60
 1662 0100 339B     		ldr	r3, [sp, #204]
 1663 0102 1B68     		ldr	r3, [r3]
 1664 0104 DA17     		asrs	r2, r3, #31
 1665 0106 1893     		str	r3, [sp, #96]
 1666 0108 1992     		str	r2, [sp, #100]
 1667              		.loc 1 207 55
 1668 010a DDE91645 		ldrd	r4, [sp, #88]
 1669 010e 2B46     		mov	r3, r5
 1670 0110 DDE91867 		ldrd	r6, [sp, #96]
 1671 0114 3246     		mov	r2, r6
 1672 0116 02FB03F2 		mul	r2, r2, r3
 1673 011a 3B46     		mov	r3, r7
 1674 011c 2146     		mov	r1, r4
 1675 011e 01FB03F3 		mul	r3, r1, r3
 1676 0122 1344     		add	r3, r3, r2
 1677 0124 2246     		mov	r2, r4
 1678 0126 3146     		mov	r1, r6
 1679 0128 A2FB0112 		umull	r1, r2, r2, r1
 1680 012c 0392     		str	r2, [sp, #12]
 1681 012e 0A46     		mov	r2, r1
 1682 0130 0292     		str	r2, [sp, #8]
 1683 0132 039A     		ldr	r2, [sp, #12]
 1684 0134 1344     		add	r3, r3, r2
 1685 0136 0393     		str	r3, [sp, #12]
 1686              		.loc 1 208 51
 1687 0138 349B     		ldr	r3, [sp, #208]
 1688 013a 9B6A     		ldr	r3, [r3, #40]
 1689              		.loc 1 208 24
 1690 013c DA17     		asrs	r2, r3, #31
 1691 013e 1A93     		str	r3, [sp, #104]
 1692 0140 1B92     		str	r2, [sp, #108]
 1693              		.loc 1 208 60
 1694 0142 339B     		ldr	r3, [sp, #204]
 1695 0144 5B68     		ldr	r3, [r3, #4]
 1696 0146 DA17     		asrs	r2, r3, #31
 1697 0148 1C93     		str	r3, [sp, #112]
 1698 014a 1D92     		str	r2, [sp, #116]
 1699              		.loc 1 208 55
 1700 014c DDE91A45 		ldrd	r4, [sp, #104]
 1701 0150 2B46     		mov	r3, r5
 1702 0152 DDE91C67 		ldrd	r6, [sp, #112]
 1703 0156 3246     		mov	r2, r6
 1704 0158 02FB03F2 		mul	r2, r2, r3
 1705 015c 3B46     		mov	r3, r7
 1706 015e 2146     		mov	r1, r4
 1707 0160 01FB03F3 		mul	r3, r1, r3
 1708 0164 1344     		add	r3, r3, r2
 1709 0166 2246     		mov	r2, r4
ARM GAS  /tmp/ccKtbbXa.s 			page 31


 1710 0168 3146     		mov	r1, r6
 1711 016a A2FB0112 		umull	r1, r2, r2, r1
 1712 016e 0592     		str	r2, [sp, #20]
 1713 0170 0A46     		mov	r2, r1
 1714 0172 0492     		str	r2, [sp, #16]
 1715 0174 059A     		ldr	r2, [sp, #20]
 1716 0176 1344     		add	r3, r3, r2
 1717 0178 0593     		str	r3, [sp, #20]
 1718              		.loc 1 207 64
 1719 017a DDE90245 		ldrd	r4, [sp, #8]
 1720 017e 2346     		mov	r3, r4
 1721 0180 DDE90401 		ldrd	r0, [sp, #16]
 1722 0184 0246     		mov	r2, r0
 1723 0186 9B18     		adds	r3, r3, r2
 1724 0188 1E93     		str	r3, [sp, #120]
 1725 018a 0B46     		mov	r3, r1
 1726 018c 2A46     		mov	r2, r5
 1727 018e 42EB0303 		adc	r3, r2, r3
 1728 0192 1F93     		str	r3, [sp, #124]
 1729              		.loc 1 209 51
 1730 0194 349B     		ldr	r3, [sp, #208]
 1731 0196 5B6B     		ldr	r3, [r3, #52]
 1732              		.loc 1 209 24
 1733 0198 DA17     		asrs	r2, r3, #31
 1734 019a 2093     		str	r3, [sp, #128]
 1735 019c 2192     		str	r2, [sp, #132]
 1736              		.loc 1 209 60
 1737 019e 339B     		ldr	r3, [sp, #204]
 1738 01a0 9B68     		ldr	r3, [r3, #8]
 1739 01a2 DA17     		asrs	r2, r3, #31
 1740 01a4 2293     		str	r3, [sp, #136]
 1741 01a6 2392     		str	r2, [sp, #140]
 1742              		.loc 1 209 55
 1743 01a8 DDE92045 		ldrd	r4, [sp, #128]
 1744 01ac 2B46     		mov	r3, r5
 1745 01ae DDE92267 		ldrd	r6, [sp, #136]
 1746 01b2 3246     		mov	r2, r6
 1747 01b4 02FB03F2 		mul	r2, r2, r3
 1748 01b8 3B46     		mov	r3, r7
 1749 01ba 2146     		mov	r1, r4
 1750 01bc 01FB03F3 		mul	r3, r1, r3
 1751 01c0 1344     		add	r3, r3, r2
 1752 01c2 2246     		mov	r2, r4
 1753 01c4 3146     		mov	r1, r6
 1754 01c6 A2FB0112 		umull	r1, r2, r2, r1
 1755 01ca 0792     		str	r2, [sp, #28]
 1756 01cc 0A46     		mov	r2, r1
 1757 01ce 0692     		str	r2, [sp, #24]
 1758 01d0 079A     		ldr	r2, [sp, #28]
 1759 01d2 1344     		add	r3, r3, r2
 1760 01d4 0793     		str	r3, [sp, #28]
 1761              		.loc 1 207 17
 1762 01d6 DDE91E45 		ldrd	r4, [sp, #120]
 1763 01da 2346     		mov	r3, r4
 1764 01dc DDE90601 		ldrd	r0, [sp, #24]
 1765 01e0 0246     		mov	r2, r0
 1766 01e2 9B18     		adds	r3, r3, r2
ARM GAS  /tmp/ccKtbbXa.s 			page 32


 1767 01e4 2E93     		str	r3, [sp, #184]
 1768 01e6 0B46     		mov	r3, r1
 1769 01e8 2A46     		mov	r2, r5
 1770 01ea 42EB0303 		adc	r3, r2, r3
 1771 01ee 2F93     		str	r3, [sp, #188]
 1772 01f0 DDE92E34 		ldrd	r3, [sp, #184]
 1773 01f4 CDE93834 		strd	r3, [sp, #224]
 1774              		.loc 1 210 28
 1775 01f8 DDE93823 		ldrd	r2, [sp, #224]
 1776 01fc 4FF00000 		mov	r0, #0
 1777 0200 4FF00001 		mov	r1, #0
 1778 0204 100D     		lsrs	r0, r2, #20
 1779 0206 40EA0330 		orr	r0, r0, r3, lsl #12
 1780 020a 1915     		asrs	r1, r3, #20
 1781              		.loc 1 210 13
 1782 020c 0246     		mov	r2, r0
 1783              		.loc 1 210 11
 1784 020e 359B     		ldr	r3, [sp, #212]
 1785 0210 5A60     		str	r2, [r3, #4]
 1786              		.loc 1 213 51
 1787 0212 349B     		ldr	r3, [sp, #208]
 1788 0214 DB6A     		ldr	r3, [r3, #44]
 1789              		.loc 1 213 24
 1790 0216 DA17     		asrs	r2, r3, #31
 1791 0218 2493     		str	r3, [sp, #144]
 1792 021a 2592     		str	r2, [sp, #148]
 1793              		.loc 1 213 60
 1794 021c 339B     		ldr	r3, [sp, #204]
 1795 021e 5B68     		ldr	r3, [r3, #4]
 1796 0220 DA17     		asrs	r2, r3, #31
 1797 0222 2693     		str	r3, [sp, #152]
 1798 0224 2792     		str	r2, [sp, #156]
 1799              		.loc 1 213 55
 1800 0226 DDE92445 		ldrd	r4, [sp, #144]
 1801 022a 2B46     		mov	r3, r5
 1802 022c DDE92667 		ldrd	r6, [sp, #152]
 1803 0230 3246     		mov	r2, r6
 1804 0232 02FB03F2 		mul	r2, r2, r3
 1805 0236 3B46     		mov	r3, r7
 1806 0238 2146     		mov	r1, r4
 1807 023a 01FB03F3 		mul	r3, r1, r3
 1808 023e 1344     		add	r3, r3, r2
 1809 0240 2246     		mov	r2, r4
 1810 0242 3146     		mov	r1, r6
 1811 0244 A2FB0112 		umull	r1, r2, r2, r1
 1812 0248 0992     		str	r2, [sp, #36]
 1813 024a 0A46     		mov	r2, r1
 1814 024c 0892     		str	r2, [sp, #32]
 1815 024e 099A     		ldr	r2, [sp, #36]
 1816 0250 1344     		add	r3, r3, r2
 1817 0252 0993     		str	r3, [sp, #36]
 1818              		.loc 1 214 51
 1819 0254 349B     		ldr	r3, [sp, #208]
 1820 0256 9B6B     		ldr	r3, [r3, #56]
 1821              		.loc 1 214 24
 1822 0258 DA17     		asrs	r2, r3, #31
 1823 025a 2893     		str	r3, [sp, #160]
ARM GAS  /tmp/ccKtbbXa.s 			page 33


 1824 025c 2992     		str	r2, [sp, #164]
 1825              		.loc 1 214 60
 1826 025e 339B     		ldr	r3, [sp, #204]
 1827 0260 9B68     		ldr	r3, [r3, #8]
 1828 0262 DA17     		asrs	r2, r3, #31
 1829 0264 2A93     		str	r3, [sp, #168]
 1830 0266 2B92     		str	r2, [sp, #172]
 1831              		.loc 1 214 55
 1832 0268 DDE92845 		ldrd	r4, [sp, #160]
 1833 026c 2B46     		mov	r3, r5
 1834 026e DDE92A67 		ldrd	r6, [sp, #168]
 1835 0272 3246     		mov	r2, r6
 1836 0274 02FB03F2 		mul	r2, r2, r3
 1837 0278 3B46     		mov	r3, r7
 1838 027a 2146     		mov	r1, r4
 1839 027c 01FB03F3 		mul	r3, r1, r3
 1840 0280 1344     		add	r3, r3, r2
 1841 0282 2246     		mov	r2, r4
 1842 0284 3146     		mov	r1, r6
 1843 0286 A2FB0112 		umull	r1, r2, r2, r1
 1844 028a 0B92     		str	r2, [sp, #44]
 1845 028c 0A46     		mov	r2, r1
 1846 028e 0A92     		str	r2, [sp, #40]
 1847 0290 0B9A     		ldr	r2, [sp, #44]
 1848 0292 1344     		add	r3, r3, r2
 1849 0294 0B93     		str	r3, [sp, #44]
 1850              		.loc 1 213 17
 1851 0296 DDE90845 		ldrd	r4, [sp, #32]
 1852 029a 2346     		mov	r3, r4
 1853 029c DDE90A01 		ldrd	r0, [sp, #40]
 1854 02a0 0246     		mov	r2, r0
 1855 02a2 9B18     		adds	r3, r3, r2
 1856 02a4 3093     		str	r3, [sp, #192]
 1857 02a6 0B46     		mov	r3, r1
 1858 02a8 2A46     		mov	r2, r5
 1859 02aa 42EB0303 		adc	r3, r2, r3
 1860 02ae 3193     		str	r3, [sp, #196]
 1861 02b0 DDE93034 		ldrd	r3, [sp, #192]
 1862 02b4 CDE93634 		strd	r3, [sp, #216]
 1863              		.loc 1 215 28
 1864 02b8 DDE93601 		ldrd	r0, [sp, #216]
 1865 02bc 4FF00002 		mov	r2, #0
 1866 02c0 4FF00003 		mov	r3, #0
 1867 02c4 020D     		lsrs	r2, r0, #20
 1868 02c6 42EA0132 		orr	r2, r2, r1, lsl #12
 1869 02ca 0B15     		asrs	r3, r1, #20
 1870              		.loc 1 215 11
 1871 02cc 359B     		ldr	r3, [sp, #212]
 1872 02ce 9A60     		str	r2, [r3, #8]
 1873              		.loc 1 217 1
 1874 02d0 00BF     		nop
 1875 02d2 3CB0     		add	sp, sp, #240
 1876              		.cfi_def_cfa_offset 32
 1877              		@ sp needed
 1878 02d4 BDE8F00F 		pop	{r4, r5, r6, r7, r8, r9, r10, fp}
 1879              		.cfi_restore 11
 1880              		.cfi_restore 10
ARM GAS  /tmp/ccKtbbXa.s 			page 34


 1881              		.cfi_restore 9
 1882              		.cfi_restore 8
 1883              		.cfi_restore 7
 1884              		.cfi_restore 6
 1885              		.cfi_restore 5
 1886              		.cfi_restore 4
 1887              		.cfi_def_cfa_offset 0
 1888 02d8 7047     		bx	lr
 1889              		.cfi_endproc
 1890              	.LFE30:
 1891              		.size	ecef_of_enu_vect_i, .-ecef_of_enu_vect_i
 1892 02da 00BF     		.section	.text.ecef_of_ned_vect_i,"ax",%progbits
 1893              		.align	1
 1894              		.p2align 4,,15
 1895              		.global	ecef_of_ned_vect_i
 1896              		.syntax unified
 1897              		.thumb
 1898              		.thumb_func
 1899              		.fpu fpv4-sp-d16
 1900              		.type	ecef_of_ned_vect_i, %function
 1901              	ecef_of_ned_vect_i:
 1902              	.LFB31:
 1903              		.loc 1 226 1
 1904              		.cfi_startproc
 1905              		@ args = 0, pretend = 0, frame = 32
 1906              		@ frame_needed = 0, uses_anonymous_args = 0
 1907 0000 00B5     		push	{lr}
 1908              		.cfi_def_cfa_offset 4
 1909              		.cfi_offset 14, -4
 1910 0002 89B0     		sub	sp, sp, #36
 1911              		.cfi_def_cfa_offset 40
 1912 0004 0390     		str	r0, [sp, #12]
 1913 0006 0291     		str	r1, [sp, #8]
 1914 0008 0192     		str	r2, [sp, #4]
 1915              		.loc 1 228 3
 1916 000a 019B     		ldr	r3, [sp, #4]
 1917 000c 5B68     		ldr	r3, [r3, #4]
 1918 000e 0593     		str	r3, [sp, #20]
 1919 0010 019B     		ldr	r3, [sp, #4]
 1920 0012 1B68     		ldr	r3, [r3]
 1921 0014 0693     		str	r3, [sp, #24]
 1922 0016 019B     		ldr	r3, [sp, #4]
 1923 0018 9B68     		ldr	r3, [r3, #8]
 1924 001a 5B42     		rsbs	r3, r3, #0
 1925 001c 0793     		str	r3, [sp, #28]
 1926              		.loc 1 229 3
 1927 001e 05AB     		add	r3, sp, #20
 1928 0020 1A46     		mov	r2, r3
 1929 0022 0299     		ldr	r1, [sp, #8]
 1930 0024 0398     		ldr	r0, [sp, #12]
 1931 0026 FFF7FEFF 		bl	ecef_of_enu_vect_i
 1932              		.loc 1 230 1
 1933 002a 00BF     		nop
 1934 002c 09B0     		add	sp, sp, #36
 1935              		.cfi_def_cfa_offset 4
 1936              		@ sp needed
 1937 002e 5DF804FB 		ldr	pc, [sp], #4
ARM GAS  /tmp/ccKtbbXa.s 			page 35


 1938              		.cfi_endproc
 1939              	.LFE31:
 1940              		.size	ecef_of_ned_vect_i, .-ecef_of_ned_vect_i
 1941 0032 00BF     		.section	.text.ecef_of_enu_point_i,"ax",%progbits
 1942              		.align	1
 1943              		.p2align 4,,15
 1944              		.global	ecef_of_enu_point_i
 1945              		.syntax unified
 1946              		.thumb
 1947              		.thumb_func
 1948              		.fpu fpv4-sp-d16
 1949              		.type	ecef_of_enu_point_i, %function
 1950              	ecef_of_enu_point_i:
 1951              	.LFB32:
 1952              		.loc 1 239 1
 1953              		.cfi_startproc
 1954              		@ args = 0, pretend = 0, frame = 16
 1955              		@ frame_needed = 0, uses_anonymous_args = 0
 1956 0000 00B5     		push	{lr}
 1957              		.cfi_def_cfa_offset 4
 1958              		.cfi_offset 14, -4
 1959 0002 85B0     		sub	sp, sp, #20
 1960              		.cfi_def_cfa_offset 24
 1961 0004 0390     		str	r0, [sp, #12]
 1962 0006 0291     		str	r1, [sp, #8]
 1963 0008 0192     		str	r2, [sp, #4]
 1964              		.loc 1 240 3
 1965 000a 019A     		ldr	r2, [sp, #4]
 1966 000c 0299     		ldr	r1, [sp, #8]
 1967 000e 0398     		ldr	r0, [sp, #12]
 1968 0010 FFF7FEFF 		bl	ecef_of_enu_vect_i
 1969              		.loc 1 241 3
 1970 0014 039B     		ldr	r3, [sp, #12]
 1971 0016 1A68     		ldr	r2, [r3]
 1972 0018 029B     		ldr	r3, [sp, #8]
 1973 001a 1B68     		ldr	r3, [r3]
 1974 001c 1A44     		add	r2, r2, r3
 1975 001e 039B     		ldr	r3, [sp, #12]
 1976 0020 1A60     		str	r2, [r3]
 1977 0022 039B     		ldr	r3, [sp, #12]
 1978 0024 5A68     		ldr	r2, [r3, #4]
 1979 0026 029B     		ldr	r3, [sp, #8]
 1980 0028 5B68     		ldr	r3, [r3, #4]
 1981 002a 1A44     		add	r2, r2, r3
 1982 002c 039B     		ldr	r3, [sp, #12]
 1983 002e 5A60     		str	r2, [r3, #4]
 1984 0030 039B     		ldr	r3, [sp, #12]
 1985 0032 9A68     		ldr	r2, [r3, #8]
 1986 0034 029B     		ldr	r3, [sp, #8]
 1987 0036 9B68     		ldr	r3, [r3, #8]
 1988 0038 1A44     		add	r2, r2, r3
 1989 003a 039B     		ldr	r3, [sp, #12]
 1990 003c 9A60     		str	r2, [r3, #8]
 1991              		.loc 1 242 1
 1992 003e 00BF     		nop
 1993 0040 05B0     		add	sp, sp, #20
 1994              		.cfi_def_cfa_offset 4
ARM GAS  /tmp/ccKtbbXa.s 			page 36


 1995              		@ sp needed
 1996 0042 5DF804FB 		ldr	pc, [sp], #4
 1997              		.cfi_endproc
 1998              	.LFE32:
 1999              		.size	ecef_of_enu_point_i, .-ecef_of_enu_point_i
 2000 0046 00BF     		.section	.text.ecef_of_ned_point_i,"ax",%progbits
 2001              		.align	1
 2002              		.p2align 4,,15
 2003              		.global	ecef_of_ned_point_i
 2004              		.syntax unified
 2005              		.thumb
 2006              		.thumb_func
 2007              		.fpu fpv4-sp-d16
 2008              		.type	ecef_of_ned_point_i, %function
 2009              	ecef_of_ned_point_i:
 2010              	.LFB33:
 2011              		.loc 1 251 1
 2012              		.cfi_startproc
 2013              		@ args = 0, pretend = 0, frame = 32
 2014              		@ frame_needed = 0, uses_anonymous_args = 0
 2015 0000 00B5     		push	{lr}
 2016              		.cfi_def_cfa_offset 4
 2017              		.cfi_offset 14, -4
 2018 0002 89B0     		sub	sp, sp, #36
 2019              		.cfi_def_cfa_offset 40
 2020 0004 0390     		str	r0, [sp, #12]
 2021 0006 0291     		str	r1, [sp, #8]
 2022 0008 0192     		str	r2, [sp, #4]
 2023              		.loc 1 253 3
 2024 000a 019B     		ldr	r3, [sp, #4]
 2025 000c 5B68     		ldr	r3, [r3, #4]
 2026 000e 0593     		str	r3, [sp, #20]
 2027 0010 019B     		ldr	r3, [sp, #4]
 2028 0012 1B68     		ldr	r3, [r3]
 2029 0014 0693     		str	r3, [sp, #24]
 2030 0016 019B     		ldr	r3, [sp, #4]
 2031 0018 9B68     		ldr	r3, [r3, #8]
 2032 001a 5B42     		rsbs	r3, r3, #0
 2033 001c 0793     		str	r3, [sp, #28]
 2034              		.loc 1 254 3
 2035 001e 05AB     		add	r3, sp, #20
 2036 0020 1A46     		mov	r2, r3
 2037 0022 0299     		ldr	r1, [sp, #8]
 2038 0024 0398     		ldr	r0, [sp, #12]
 2039 0026 FFF7FEFF 		bl	ecef_of_enu_point_i
 2040              		.loc 1 255 1
 2041 002a 00BF     		nop
 2042 002c 09B0     		add	sp, sp, #36
 2043              		.cfi_def_cfa_offset 4
 2044              		@ sp needed
 2045 002e 5DF804FB 		ldr	pc, [sp], #4
 2046              		.cfi_endproc
 2047              	.LFE33:
 2048              		.size	ecef_of_ned_point_i, .-ecef_of_ned_point_i
 2049 0032 00BF     		.section	.text.ecef_of_enu_pos_i,"ax",%progbits
 2050              		.align	1
 2051              		.p2align 4,,15
ARM GAS  /tmp/ccKtbbXa.s 			page 37


 2052              		.global	ecef_of_enu_pos_i
 2053              		.syntax unified
 2054              		.thumb
 2055              		.thumb_func
 2056              		.fpu fpv4-sp-d16
 2057              		.type	ecef_of_enu_pos_i, %function
 2058              	ecef_of_enu_pos_i:
 2059              	.LFB34:
 2060              		.loc 1 264 1
 2061              		.cfi_startproc
 2062              		@ args = 0, pretend = 0, frame = 32
 2063              		@ frame_needed = 0, uses_anonymous_args = 0
 2064 0000 00B5     		push	{lr}
 2065              		.cfi_def_cfa_offset 4
 2066              		.cfi_offset 14, -4
 2067 0002 89B0     		sub	sp, sp, #36
 2068              		.cfi_def_cfa_offset 40
 2069 0004 0390     		str	r0, [sp, #12]
 2070 0006 0291     		str	r1, [sp, #8]
 2071 0008 0192     		str	r2, [sp, #4]
 2072              		.loc 1 271 3
 2073 000a 019B     		ldr	r3, [sp, #4]
 2074 000c 1A68     		ldr	r2, [r3]
 2075 000e 1346     		mov	r3, r2
 2076 0010 9B00     		lsls	r3, r3, #2
 2077 0012 1344     		add	r3, r3, r2
 2078 0014 9A00     		lsls	r2, r3, #2
 2079 0016 1344     		add	r3, r3, r2
 2080 0018 0593     		str	r3, [sp, #20]
 2081 001a 019B     		ldr	r3, [sp, #4]
 2082 001c 5A68     		ldr	r2, [r3, #4]
 2083 001e 1346     		mov	r3, r2
 2084 0020 9B00     		lsls	r3, r3, #2
 2085 0022 1344     		add	r3, r3, r2
 2086 0024 9A00     		lsls	r2, r3, #2
 2087 0026 1344     		add	r3, r3, r2
 2088 0028 0693     		str	r3, [sp, #24]
 2089 002a 019B     		ldr	r3, [sp, #4]
 2090 002c 9A68     		ldr	r2, [r3, #8]
 2091 002e 1346     		mov	r3, r2
 2092 0030 9B00     		lsls	r3, r3, #2
 2093 0032 1344     		add	r3, r3, r2
 2094 0034 9A00     		lsls	r2, r3, #2
 2095 0036 1344     		add	r3, r3, r2
 2096 0038 0793     		str	r3, [sp, #28]
 2097              		.loc 1 272 3
 2098 003a 059B     		ldr	r3, [sp, #20]
 2099 003c 9B11     		asrs	r3, r3, #6
 2100 003e 0593     		str	r3, [sp, #20]
 2101 0040 069B     		ldr	r3, [sp, #24]
 2102 0042 9B11     		asrs	r3, r3, #6
 2103 0044 0693     		str	r3, [sp, #24]
 2104 0046 079B     		ldr	r3, [sp, #28]
 2105 0048 9B11     		asrs	r3, r3, #6
 2106 004a 0793     		str	r3, [sp, #28]
 2107              		.loc 1 273 3
 2108 004c 05AB     		add	r3, sp, #20
ARM GAS  /tmp/ccKtbbXa.s 			page 38


 2109 004e 1A46     		mov	r2, r3
 2110 0050 0299     		ldr	r1, [sp, #8]
 2111 0052 0398     		ldr	r0, [sp, #12]
 2112 0054 FFF7FEFF 		bl	ecef_of_enu_vect_i
 2113              		.loc 1 274 3
 2114 0058 039B     		ldr	r3, [sp, #12]
 2115 005a 1A68     		ldr	r2, [r3]
 2116 005c 029B     		ldr	r3, [sp, #8]
 2117 005e 1B68     		ldr	r3, [r3]
 2118 0060 1A44     		add	r2, r2, r3
 2119 0062 039B     		ldr	r3, [sp, #12]
 2120 0064 1A60     		str	r2, [r3]
 2121 0066 039B     		ldr	r3, [sp, #12]
 2122 0068 5A68     		ldr	r2, [r3, #4]
 2123 006a 029B     		ldr	r3, [sp, #8]
 2124 006c 5B68     		ldr	r3, [r3, #4]
 2125 006e 1A44     		add	r2, r2, r3
 2126 0070 039B     		ldr	r3, [sp, #12]
 2127 0072 5A60     		str	r2, [r3, #4]
 2128 0074 039B     		ldr	r3, [sp, #12]
 2129 0076 9A68     		ldr	r2, [r3, #8]
 2130 0078 029B     		ldr	r3, [sp, #8]
 2131 007a 9B68     		ldr	r3, [r3, #8]
 2132 007c 1A44     		add	r2, r2, r3
 2133 007e 039B     		ldr	r3, [sp, #12]
 2134 0080 9A60     		str	r2, [r3, #8]
 2135              		.loc 1 275 1
 2136 0082 00BF     		nop
 2137 0084 09B0     		add	sp, sp, #36
 2138              		.cfi_def_cfa_offset 4
 2139              		@ sp needed
 2140 0086 5DF804FB 		ldr	pc, [sp], #4
 2141              		.cfi_endproc
 2142              	.LFE34:
 2143              		.size	ecef_of_enu_pos_i, .-ecef_of_enu_pos_i
 2144 008a 00BF     		.section	.text.ecef_of_ned_pos_i,"ax",%progbits
 2145              		.align	1
 2146              		.p2align 4,,15
 2147              		.global	ecef_of_ned_pos_i
 2148              		.syntax unified
 2149              		.thumb
 2150              		.thumb_func
 2151              		.fpu fpv4-sp-d16
 2152              		.type	ecef_of_ned_pos_i, %function
 2153              	ecef_of_ned_pos_i:
 2154              	.LFB35:
 2155              		.loc 1 284 1
 2156              		.cfi_startproc
 2157              		@ args = 0, pretend = 0, frame = 32
 2158              		@ frame_needed = 0, uses_anonymous_args = 0
 2159 0000 00B5     		push	{lr}
 2160              		.cfi_def_cfa_offset 4
 2161              		.cfi_offset 14, -4
 2162 0002 89B0     		sub	sp, sp, #36
 2163              		.cfi_def_cfa_offset 40
 2164 0004 0390     		str	r0, [sp, #12]
 2165 0006 0291     		str	r1, [sp, #8]
ARM GAS  /tmp/ccKtbbXa.s 			page 39


 2166 0008 0192     		str	r2, [sp, #4]
 2167              		.loc 1 286 3
 2168 000a 019B     		ldr	r3, [sp, #4]
 2169 000c 5B68     		ldr	r3, [r3, #4]
 2170 000e 0593     		str	r3, [sp, #20]
 2171 0010 019B     		ldr	r3, [sp, #4]
 2172 0012 1B68     		ldr	r3, [r3]
 2173 0014 0693     		str	r3, [sp, #24]
 2174 0016 019B     		ldr	r3, [sp, #4]
 2175 0018 9B68     		ldr	r3, [r3, #8]
 2176 001a 5B42     		rsbs	r3, r3, #0
 2177 001c 0793     		str	r3, [sp, #28]
 2178              		.loc 1 287 3
 2179 001e 05AB     		add	r3, sp, #20
 2180 0020 1A46     		mov	r2, r3
 2181 0022 0299     		ldr	r1, [sp, #8]
 2182 0024 0398     		ldr	r0, [sp, #12]
 2183 0026 FFF7FEFF 		bl	ecef_of_enu_pos_i
 2184              		.loc 1 288 1
 2185 002a 00BF     		nop
 2186 002c 09B0     		add	sp, sp, #36
 2187              		.cfi_def_cfa_offset 4
 2188              		@ sp needed
 2189 002e 5DF804FB 		ldr	pc, [sp], #4
 2190              		.cfi_endproc
 2191              	.LFE35:
 2192              		.size	ecef_of_ned_pos_i, .-ecef_of_ned_pos_i
 2193 0032 00BF     		.section	.text.enu_of_lla_point_i,"ax",%progbits
 2194              		.align	1
 2195              		.p2align 4,,15
 2196              		.global	enu_of_lla_point_i
 2197              		.syntax unified
 2198              		.thumb
 2199              		.thumb_func
 2200              		.fpu fpv4-sp-d16
 2201              		.type	enu_of_lla_point_i, %function
 2202              	enu_of_lla_point_i:
 2203              	.LFB36:
 2204              		.loc 1 296 1
 2205              		.cfi_startproc
 2206              		@ args = 0, pretend = 0, frame = 32
 2207              		@ frame_needed = 0, uses_anonymous_args = 0
 2208 0000 00B5     		push	{lr}
 2209              		.cfi_def_cfa_offset 4
 2210              		.cfi_offset 14, -4
 2211 0002 89B0     		sub	sp, sp, #36
 2212              		.cfi_def_cfa_offset 40
 2213 0004 0390     		str	r0, [sp, #12]
 2214 0006 0291     		str	r1, [sp, #8]
 2215 0008 0192     		str	r2, [sp, #4]
 2216              		.loc 1 298 3
 2217 000a 05AB     		add	r3, sp, #20
 2218 000c 0199     		ldr	r1, [sp, #4]
 2219 000e 1846     		mov	r0, r3
 2220 0010 FFF7FEFF 		bl	ecef_of_lla_i
 2221              		.loc 1 299 3
 2222 0014 05AB     		add	r3, sp, #20
ARM GAS  /tmp/ccKtbbXa.s 			page 40


 2223 0016 1A46     		mov	r2, r3
 2224 0018 0299     		ldr	r1, [sp, #8]
 2225 001a 0398     		ldr	r0, [sp, #12]
 2226 001c FFF7FEFF 		bl	enu_of_ecef_point_i
 2227              		.loc 1 300 1
 2228 0020 00BF     		nop
 2229 0022 09B0     		add	sp, sp, #36
 2230              		.cfi_def_cfa_offset 4
 2231              		@ sp needed
 2232 0024 5DF804FB 		ldr	pc, [sp], #4
 2233              		.cfi_endproc
 2234              	.LFE36:
 2235              		.size	enu_of_lla_point_i, .-enu_of_lla_point_i
 2236              		.section	.text.ned_of_lla_point_i,"ax",%progbits
 2237              		.align	1
 2238              		.p2align 4,,15
 2239              		.global	ned_of_lla_point_i
 2240              		.syntax unified
 2241              		.thumb
 2242              		.thumb_func
 2243              		.fpu fpv4-sp-d16
 2244              		.type	ned_of_lla_point_i, %function
 2245              	ned_of_lla_point_i:
 2246              	.LFB37:
 2247              		.loc 1 308 1
 2248              		.cfi_startproc
 2249              		@ args = 0, pretend = 0, frame = 32
 2250              		@ frame_needed = 0, uses_anonymous_args = 0
 2251 0000 00B5     		push	{lr}
 2252              		.cfi_def_cfa_offset 4
 2253              		.cfi_offset 14, -4
 2254 0002 89B0     		sub	sp, sp, #36
 2255              		.cfi_def_cfa_offset 40
 2256 0004 0390     		str	r0, [sp, #12]
 2257 0006 0291     		str	r1, [sp, #8]
 2258 0008 0192     		str	r2, [sp, #4]
 2259              		.loc 1 310 3
 2260 000a 05AB     		add	r3, sp, #20
 2261 000c 0199     		ldr	r1, [sp, #4]
 2262 000e 1846     		mov	r0, r3
 2263 0010 FFF7FEFF 		bl	ecef_of_lla_i
 2264              		.loc 1 311 3
 2265 0014 05AB     		add	r3, sp, #20
 2266 0016 1A46     		mov	r2, r3
 2267 0018 0299     		ldr	r1, [sp, #8]
 2268 001a 0398     		ldr	r0, [sp, #12]
 2269 001c FFF7FEFF 		bl	ned_of_ecef_point_i
 2270              		.loc 1 312 1
 2271 0020 00BF     		nop
 2272 0022 09B0     		add	sp, sp, #36
 2273              		.cfi_def_cfa_offset 4
 2274              		@ sp needed
 2275 0024 5DF804FB 		ldr	pc, [sp], #4
 2276              		.cfi_endproc
 2277              	.LFE37:
 2278              		.size	ned_of_lla_point_i, .-ned_of_lla_point_i
 2279              		.section	.text.enu_of_lla_pos_i,"ax",%progbits
ARM GAS  /tmp/ccKtbbXa.s 			page 41


 2280              		.align	1
 2281              		.p2align 4,,15
 2282              		.global	enu_of_lla_pos_i
 2283              		.syntax unified
 2284              		.thumb
 2285              		.thumb_func
 2286              		.fpu fpv4-sp-d16
 2287              		.type	enu_of_lla_pos_i, %function
 2288              	enu_of_lla_pos_i:
 2289              	.LFB38:
 2290              		.loc 1 320 1
 2291              		.cfi_startproc
 2292              		@ args = 0, pretend = 0, frame = 32
 2293              		@ frame_needed = 0, uses_anonymous_args = 0
 2294 0000 00B5     		push	{lr}
 2295              		.cfi_def_cfa_offset 4
 2296              		.cfi_offset 14, -4
 2297 0002 89B0     		sub	sp, sp, #36
 2298              		.cfi_def_cfa_offset 40
 2299 0004 0390     		str	r0, [sp, #12]
 2300 0006 0291     		str	r1, [sp, #8]
 2301 0008 0192     		str	r2, [sp, #4]
 2302              		.loc 1 322 3
 2303 000a 05AB     		add	r3, sp, #20
 2304 000c 0199     		ldr	r1, [sp, #4]
 2305 000e 1846     		mov	r0, r3
 2306 0010 FFF7FEFF 		bl	ecef_of_lla_i
 2307              		.loc 1 323 3
 2308 0014 05AB     		add	r3, sp, #20
 2309 0016 1A46     		mov	r2, r3
 2310 0018 0299     		ldr	r1, [sp, #8]
 2311 001a 0398     		ldr	r0, [sp, #12]
 2312 001c FFF7FEFF 		bl	enu_of_ecef_pos_i
 2313              		.loc 1 324 1
 2314 0020 00BF     		nop
 2315 0022 09B0     		add	sp, sp, #36
 2316              		.cfi_def_cfa_offset 4
 2317              		@ sp needed
 2318 0024 5DF804FB 		ldr	pc, [sp], #4
 2319              		.cfi_endproc
 2320              	.LFE38:
 2321              		.size	enu_of_lla_pos_i, .-enu_of_lla_pos_i
 2322              		.section	.text.ned_of_lla_pos_i,"ax",%progbits
 2323              		.align	1
 2324              		.p2align 4,,15
 2325              		.global	ned_of_lla_pos_i
 2326              		.syntax unified
 2327              		.thumb
 2328              		.thumb_func
 2329              		.fpu fpv4-sp-d16
 2330              		.type	ned_of_lla_pos_i, %function
 2331              	ned_of_lla_pos_i:
 2332              	.LFB39:
 2333              		.loc 1 332 1
 2334              		.cfi_startproc
 2335              		@ args = 0, pretend = 0, frame = 32
 2336              		@ frame_needed = 0, uses_anonymous_args = 0
ARM GAS  /tmp/ccKtbbXa.s 			page 42


 2337 0000 00B5     		push	{lr}
 2338              		.cfi_def_cfa_offset 4
 2339              		.cfi_offset 14, -4
 2340 0002 89B0     		sub	sp, sp, #36
 2341              		.cfi_def_cfa_offset 40
 2342 0004 0390     		str	r0, [sp, #12]
 2343 0006 0291     		str	r1, [sp, #8]
 2344 0008 0192     		str	r2, [sp, #4]
 2345              		.loc 1 334 3
 2346 000a 05AB     		add	r3, sp, #20
 2347 000c 0199     		ldr	r1, [sp, #4]
 2348 000e 1846     		mov	r0, r3
 2349 0010 FFF7FEFF 		bl	ecef_of_lla_i
 2350              		.loc 1 335 3
 2351 0014 05AB     		add	r3, sp, #20
 2352 0016 1A46     		mov	r2, r3
 2353 0018 0299     		ldr	r1, [sp, #8]
 2354 001a 0398     		ldr	r0, [sp, #12]
 2355 001c FFF7FEFF 		bl	ned_of_ecef_pos_i
 2356              		.loc 1 336 1
 2357 0020 00BF     		nop
 2358 0022 09B0     		add	sp, sp, #36
 2359              		.cfi_def_cfa_offset 4
 2360              		@ sp needed
 2361 0024 5DF804FB 		ldr	pc, [sp], #4
 2362              		.cfi_endproc
 2363              	.LFE39:
 2364              		.size	ned_of_lla_pos_i, .-ned_of_lla_pos_i
 2365              		.section	.text.enu_of_lla_vect_i,"ax",%progbits
 2366              		.align	1
 2367              		.p2align 4,,15
 2368              		.global	enu_of_lla_vect_i
 2369              		.syntax unified
 2370              		.thumb
 2371              		.thumb_func
 2372              		.fpu fpv4-sp-d16
 2373              		.type	enu_of_lla_vect_i, %function
 2374              	enu_of_lla_vect_i:
 2375              	.LFB40:
 2376              		.loc 1 339 1
 2377              		.cfi_startproc
 2378              		@ args = 0, pretend = 0, frame = 32
 2379              		@ frame_needed = 0, uses_anonymous_args = 0
 2380 0000 00B5     		push	{lr}
 2381              		.cfi_def_cfa_offset 4
 2382              		.cfi_offset 14, -4
 2383 0002 89B0     		sub	sp, sp, #36
 2384              		.cfi_def_cfa_offset 40
 2385 0004 0390     		str	r0, [sp, #12]
 2386 0006 0291     		str	r1, [sp, #8]
 2387 0008 0192     		str	r2, [sp, #4]
 2388              		.loc 1 341 3
 2389 000a 05AB     		add	r3, sp, #20
 2390 000c 0199     		ldr	r1, [sp, #4]
 2391 000e 1846     		mov	r0, r3
 2392 0010 FFF7FEFF 		bl	ecef_of_lla_i
 2393              		.loc 1 342 3
ARM GAS  /tmp/ccKtbbXa.s 			page 43


 2394 0014 05AB     		add	r3, sp, #20
 2395 0016 1A46     		mov	r2, r3
 2396 0018 0299     		ldr	r1, [sp, #8]
 2397 001a 0398     		ldr	r0, [sp, #12]
 2398 001c FFF7FEFF 		bl	enu_of_ecef_vect_i
 2399              		.loc 1 343 1
 2400 0020 00BF     		nop
 2401 0022 09B0     		add	sp, sp, #36
 2402              		.cfi_def_cfa_offset 4
 2403              		@ sp needed
 2404 0024 5DF804FB 		ldr	pc, [sp], #4
 2405              		.cfi_endproc
 2406              	.LFE40:
 2407              		.size	enu_of_lla_vect_i, .-enu_of_lla_vect_i
 2408              		.section	.text.ned_of_lla_vect_i,"ax",%progbits
 2409              		.align	1
 2410              		.p2align 4,,15
 2411              		.global	ned_of_lla_vect_i
 2412              		.syntax unified
 2413              		.thumb
 2414              		.thumb_func
 2415              		.fpu fpv4-sp-d16
 2416              		.type	ned_of_lla_vect_i, %function
 2417              	ned_of_lla_vect_i:
 2418              	.LFB41:
 2419              		.loc 1 346 1
 2420              		.cfi_startproc
 2421              		@ args = 0, pretend = 0, frame = 32
 2422              		@ frame_needed = 0, uses_anonymous_args = 0
 2423 0000 00B5     		push	{lr}
 2424              		.cfi_def_cfa_offset 4
 2425              		.cfi_offset 14, -4
 2426 0002 89B0     		sub	sp, sp, #36
 2427              		.cfi_def_cfa_offset 40
 2428 0004 0390     		str	r0, [sp, #12]
 2429 0006 0291     		str	r1, [sp, #8]
 2430 0008 0192     		str	r2, [sp, #4]
 2431              		.loc 1 348 3
 2432 000a 05AB     		add	r3, sp, #20
 2433 000c 0199     		ldr	r1, [sp, #4]
 2434 000e 1846     		mov	r0, r3
 2435 0010 FFF7FEFF 		bl	ecef_of_lla_i
 2436              		.loc 1 349 3
 2437 0014 05AB     		add	r3, sp, #20
 2438 0016 1A46     		mov	r2, r3
 2439 0018 0299     		ldr	r1, [sp, #8]
 2440 001a 0398     		ldr	r0, [sp, #12]
 2441 001c FFF7FEFF 		bl	ned_of_ecef_vect_i
 2442              		.loc 1 350 1
 2443 0020 00BF     		nop
 2444 0022 09B0     		add	sp, sp, #36
 2445              		.cfi_def_cfa_offset 4
 2446              		@ sp needed
 2447 0024 5DF804FB 		ldr	pc, [sp], #4
 2448              		.cfi_endproc
 2449              	.LFE41:
 2450              		.size	ned_of_lla_vect_i, .-ned_of_lla_vect_i
ARM GAS  /tmp/ccKtbbXa.s 			page 44


 2451              		.section	.text.lla_of_ecef_i,"ax",%progbits
 2452              		.align	1
 2453              		.p2align 4,,15
 2454              		.global	lla_of_ecef_i
 2455              		.syntax unified
 2456              		.thumb
 2457              		.thumb_func
 2458              		.fpu fpv4-sp-d16
 2459              		.type	lla_of_ecef_i, %function
 2460              	lla_of_ecef_i:
 2461              	.LFB93:
 2462              		.loc 1 364 1
 2463              		.cfi_startproc
 2464              		@ args = 0, pretend = 0, frame = 56
 2465              		@ frame_needed = 0, uses_anonymous_args = 0
 2466 0000 00B5     		push	{lr}
 2467              		.cfi_def_cfa_offset 4
 2468              		.cfi_offset 14, -4
 2469 0002 8FB0     		sub	sp, sp, #60
 2470              		.cfi_def_cfa_offset 64
 2471 0004 0190     		str	r0, [sp, #4]
 2472 0006 0091     		str	r1, [sp]
 2473              		.loc 1 378 3
 2474 0008 009B     		ldr	r3, [sp]
 2475 000a 1B68     		ldr	r3, [r3]
 2476 000c 1846     		mov	r0, r3
 2477 000e FFF7FEFF 		bl	__aeabi_i2d
 2478 0012 4FF00002 		mov	r2, #0
 2479 0016 3C4B     		ldr	r3, .L27+16
 2480 0018 FFF7FEFF 		bl	__aeabi_ddiv
 2481 001c 0246     		mov	r2, r0
 2482 001e 0B46     		mov	r3, r1
 2483 0020 CDE90823 		strd	r2, [sp, #32]
 2484 0024 009B     		ldr	r3, [sp]
 2485 0026 5B68     		ldr	r3, [r3, #4]
 2486 0028 1846     		mov	r0, r3
 2487 002a FFF7FEFF 		bl	__aeabi_i2d
 2488 002e 4FF00002 		mov	r2, #0
 2489 0032 354B     		ldr	r3, .L27+16
 2490 0034 FFF7FEFF 		bl	__aeabi_ddiv
 2491 0038 0246     		mov	r2, r0
 2492 003a 0B46     		mov	r3, r1
 2493 003c CDE90A23 		strd	r2, [sp, #40]
 2494 0040 009B     		ldr	r3, [sp]
 2495 0042 9B68     		ldr	r3, [r3, #8]
 2496 0044 1846     		mov	r0, r3
 2497 0046 FFF7FEFF 		bl	__aeabi_i2d
 2498 004a 4FF00002 		mov	r2, #0
 2499 004e 2E4B     		ldr	r3, .L27+16
 2500 0050 FFF7FEFF 		bl	__aeabi_ddiv
 2501 0054 0246     		mov	r2, r0
 2502 0056 0B46     		mov	r3, r1
 2503 0058 CDE90C23 		strd	r2, [sp, #48]
 2504              		.loc 1 381 3
 2505 005c 08AA     		add	r2, sp, #32
 2506 005e 02AB     		add	r3, sp, #8
 2507 0060 1146     		mov	r1, r2
ARM GAS  /tmp/ccKtbbXa.s 			page 45


 2508 0062 1846     		mov	r0, r3
 2509 0064 FFF7FEFF 		bl	lla_of_ecef_d
 2510              		.loc 1 383 3
 2511 0068 DDE90201 		ldrd	r0, [sp, #8]
 2512 006c 22A3     		adr	r3, .L27
 2513 006e D3E90023 		ldrd	r2, [r3]
 2514 0072 FFF7FEFF 		bl	__aeabi_dmul
 2515 0076 0246     		mov	r2, r0
 2516 0078 0B46     		mov	r3, r1
 2517 007a 1046     		mov	r0, r2
 2518 007c 1946     		mov	r1, r3
 2519 007e 20A3     		adr	r3, .L27+8
 2520 0080 D3E90023 		ldrd	r2, [r3]
 2521 0084 FFF7FEFF 		bl	__aeabi_dmul
 2522 0088 0246     		mov	r2, r0
 2523 008a 0B46     		mov	r3, r1
 2524 008c 1046     		mov	r0, r2
 2525 008e 1946     		mov	r1, r3
 2526 0090 FFF7FEFF 		bl	__aeabi_d2iz
 2527 0094 0246     		mov	r2, r0
 2528 0096 019B     		ldr	r3, [sp, #4]
 2529 0098 1A60     		str	r2, [r3]
 2530 009a DDE90401 		ldrd	r0, [sp, #16]
 2531 009e 16A3     		adr	r3, .L27
 2532 00a0 D3E90023 		ldrd	r2, [r3]
 2533 00a4 FFF7FEFF 		bl	__aeabi_dmul
 2534 00a8 0246     		mov	r2, r0
 2535 00aa 0B46     		mov	r3, r1
 2536 00ac 1046     		mov	r0, r2
 2537 00ae 1946     		mov	r1, r3
 2538 00b0 13A3     		adr	r3, .L27+8
 2539 00b2 D3E90023 		ldrd	r2, [r3]
 2540 00b6 FFF7FEFF 		bl	__aeabi_dmul
 2541 00ba 0246     		mov	r2, r0
 2542 00bc 0B46     		mov	r3, r1
 2543 00be 1046     		mov	r0, r2
 2544 00c0 1946     		mov	r1, r3
 2545 00c2 FFF7FEFF 		bl	__aeabi_d2iz
 2546 00c6 0246     		mov	r2, r0
 2547 00c8 019B     		ldr	r3, [sp, #4]
 2548 00ca 5A60     		str	r2, [r3, #4]
 2549 00cc DDE90601 		ldrd	r0, [sp, #24]
 2550 00d0 4FF00002 		mov	r2, #0
 2551 00d4 0D4B     		ldr	r3, .L27+20
 2552 00d6 FFF7FEFF 		bl	__aeabi_dmul
 2553 00da 0246     		mov	r2, r0
 2554 00dc 0B46     		mov	r3, r1
 2555 00de 1046     		mov	r0, r2
 2556 00e0 1946     		mov	r1, r3
 2557 00e2 FFF7FEFF 		bl	__aeabi_d2iz
 2558 00e6 0246     		mov	r2, r0
 2559 00e8 019B     		ldr	r3, [sp, #4]
 2560 00ea 9A60     		str	r2, [r3, #8]
 2561              		.loc 1 386 1
 2562 00ec 00BF     		nop
 2563 00ee 0FB0     		add	sp, sp, #60
 2564              		.cfi_def_cfa_offset 4
ARM GAS  /tmp/ccKtbbXa.s 			page 46


 2565              		@ sp needed
 2566 00f0 5DF804FB 		ldr	pc, [sp], #4
 2567              	.L28:
 2568 00f4 AFF30080 		.align	3
 2569              	.L27:
 2570 00f8 F8C1631A 		.word	442745336
 2571 00fc DCA54C40 		.word	1078765020
 2572 0100 00000000 		.word	0
 2573 0104 D0126341 		.word	1097011920
 2574 0108 00005940 		.word	1079574528
 2575 010c 00408F40 		.word	1083129856
 2576              		.cfi_endproc
 2577              	.LFE93:
 2578              		.size	lla_of_ecef_i, .-lla_of_ecef_i
 2579              		.section	.text.ecef_of_lla_i,"ax",%progbits
 2580              		.align	1
 2581              		.p2align 4,,15
 2582              		.global	ecef_of_lla_i
 2583              		.syntax unified
 2584              		.thumb
 2585              		.thumb_func
 2586              		.fpu fpv4-sp-d16
 2587              		.type	ecef_of_lla_i, %function
 2588              	ecef_of_lla_i:
 2589              	.LFB94:
 2590              		.loc 1 393 1
 2591              		.cfi_startproc
 2592              		@ args = 0, pretend = 0, frame = 56
 2593              		@ frame_needed = 0, uses_anonymous_args = 0
 2594 0000 00B5     		push	{lr}
 2595              		.cfi_def_cfa_offset 4
 2596              		.cfi_offset 14, -4
 2597 0002 8FB0     		sub	sp, sp, #60
 2598              		.cfi_def_cfa_offset 64
 2599 0004 0190     		str	r0, [sp, #4]
 2600 0006 0091     		str	r1, [sp]
 2601              		.loc 1 407 3
 2602 0008 009B     		ldr	r3, [sp]
 2603 000a 1B68     		ldr	r3, [r3]
 2604 000c 1846     		mov	r0, r3
 2605 000e FFF7FEFF 		bl	__aeabi_i2d
 2606 0012 3BA3     		adr	r3, .L30+8
 2607 0014 D3E90023 		ldrd	r2, [r3]
 2608 0018 FFF7FEFF 		bl	__aeabi_dmul
 2609 001c 0246     		mov	r2, r0
 2610 001e 0B46     		mov	r3, r1
 2611 0020 1046     		mov	r0, r2
 2612 0022 1946     		mov	r1, r3
 2613 0024 38A3     		adr	r3, .L30+16
 2614 0026 D3E90023 		ldrd	r2, [r3]
 2615 002a FFF7FEFF 		bl	__aeabi_ddiv
 2616 002e 0246     		mov	r2, r0
 2617 0030 0B46     		mov	r3, r1
 2618 0032 CDE90823 		strd	r2, [sp, #32]
 2619 0036 009B     		ldr	r3, [sp]
 2620 0038 5B68     		ldr	r3, [r3, #4]
 2621 003a 1846     		mov	r0, r3
ARM GAS  /tmp/ccKtbbXa.s 			page 47


 2622 003c FFF7FEFF 		bl	__aeabi_i2d
 2623 0040 2FA3     		adr	r3, .L30+8
 2624 0042 D3E90023 		ldrd	r2, [r3]
 2625 0046 FFF7FEFF 		bl	__aeabi_dmul
 2626 004a 0246     		mov	r2, r0
 2627 004c 0B46     		mov	r3, r1
 2628 004e 1046     		mov	r0, r2
 2629 0050 1946     		mov	r1, r3
 2630 0052 2DA3     		adr	r3, .L30+16
 2631 0054 D3E90023 		ldrd	r2, [r3]
 2632 0058 FFF7FEFF 		bl	__aeabi_ddiv
 2633 005c 0246     		mov	r2, r0
 2634 005e 0B46     		mov	r3, r1
 2635 0060 CDE90A23 		strd	r2, [sp, #40]
 2636 0064 009B     		ldr	r3, [sp]
 2637 0066 9B68     		ldr	r3, [r3, #8]
 2638 0068 1846     		mov	r0, r3
 2639 006a FFF7FEFF 		bl	__aeabi_i2d
 2640 006e 4FF00002 		mov	r2, #0
 2641 0072 214B     		ldr	r3, .L30
 2642 0074 FFF7FEFF 		bl	__aeabi_ddiv
 2643 0078 0246     		mov	r2, r0
 2644 007a 0B46     		mov	r3, r1
 2645 007c CDE90C23 		strd	r2, [sp, #48]
 2646              		.loc 1 410 3
 2647 0080 08AA     		add	r2, sp, #32
 2648 0082 02AB     		add	r3, sp, #8
 2649 0084 1146     		mov	r1, r2
 2650 0086 1846     		mov	r0, r3
 2651 0088 FFF7FEFF 		bl	ecef_of_lla_d
 2652              		.loc 1 412 3
 2653 008c DDE90201 		ldrd	r0, [sp, #8]
 2654 0090 4FF00002 		mov	r2, #0
 2655 0094 194B     		ldr	r3, .L30+4
 2656 0096 FFF7FEFF 		bl	__aeabi_dmul
 2657 009a 0246     		mov	r2, r0
 2658 009c 0B46     		mov	r3, r1
 2659 009e 1046     		mov	r0, r2
 2660 00a0 1946     		mov	r1, r3
 2661 00a2 FFF7FEFF 		bl	__aeabi_d2iz
 2662 00a6 0246     		mov	r2, r0
 2663 00a8 019B     		ldr	r3, [sp, #4]
 2664 00aa 1A60     		str	r2, [r3]
 2665 00ac DDE90401 		ldrd	r0, [sp, #16]
 2666 00b0 4FF00002 		mov	r2, #0
 2667 00b4 114B     		ldr	r3, .L30+4
 2668 00b6 FFF7FEFF 		bl	__aeabi_dmul
 2669 00ba 0246     		mov	r2, r0
 2670 00bc 0B46     		mov	r3, r1
 2671 00be 1046     		mov	r0, r2
 2672 00c0 1946     		mov	r1, r3
 2673 00c2 FFF7FEFF 		bl	__aeabi_d2iz
 2674 00c6 0246     		mov	r2, r0
 2675 00c8 019B     		ldr	r3, [sp, #4]
 2676 00ca 5A60     		str	r2, [r3, #4]
 2677 00cc DDE90601 		ldrd	r0, [sp, #24]
 2678 00d0 4FF00002 		mov	r2, #0
ARM GAS  /tmp/ccKtbbXa.s 			page 48


 2679 00d4 094B     		ldr	r3, .L30+4
 2680 00d6 FFF7FEFF 		bl	__aeabi_dmul
 2681 00da 0246     		mov	r2, r0
 2682 00dc 0B46     		mov	r3, r1
 2683 00de 1046     		mov	r0, r2
 2684 00e0 1946     		mov	r1, r3
 2685 00e2 FFF7FEFF 		bl	__aeabi_d2iz
 2686 00e6 0246     		mov	r2, r0
 2687 00e8 019B     		ldr	r3, [sp, #4]
 2688 00ea 9A60     		str	r2, [r3, #8]
 2689              		.loc 1 415 1
 2690 00ec 00BF     		nop
 2691 00ee 0FB0     		add	sp, sp, #60
 2692              		.cfi_def_cfa_offset 4
 2693              		@ sp needed
 2694 00f0 5DF804FB 		ldr	pc, [sp], #4
 2695              	.L31:
 2696 00f4 AFF30080 		.align	3
 2697              	.L30:
 2698 00f8 00408F40 		.word	1083129856
 2699 00fc 00005940 		.word	1079574528
 2700 0100 399D52A2 		.word	-1571644103
 2701 0104 46DF913F 		.word	1066524486
 2702 0108 00000000 		.word	0
 2703 010c D0126341 		.word	1097011920
 2704              		.cfi_endproc
 2705              	.LFE94:
 2706              		.size	ecef_of_lla_i, .-ecef_of_lla_i
 2707              		.section	.rodata.serie_coeff_proj_mercator,"a"
 2708              		.align	2
 2709              		.type	serie_coeff_proj_mercator, %object
 2710              		.size	serie_coeff_proj_mercator, 20
 2711              	serie_coeff_proj_mercator:
 2712 0000 2E927F3F 		.word	1065325102
 2713 0004 063D5B3A 		.word	979057926
 2714 0008 CBE54B35 		.word	894166475
 2715 000c 8A53A430 		.word	816075658
 2716 0010 19A5292C 		.word	740926745
 2717              		.section	.rodata.serie_coeff_proj_mercator_inverse,"a"
 2718              		.align	2
 2719              		.type	serie_coeff_proj_mercator_inverse, %object
 2720              		.size	serie_coeff_proj_mercator_inverse, 20
 2721              	serie_coeff_proj_mercator_inverse:
 2722 0000 2E927F3F 		.word	1065325102
 2723 0004 419B5B3A 		.word	979082049
 2724 0008 B8A77D33 		.word	863872952
 2725 000c 48FE372F 		.word	792198728
 2726 0010 BECF702A 		.word	712036286
 2727              		.section	.text.utm_of_lla_i,"ax",%progbits
 2728              		.align	1
 2729              		.p2align 4,,15
 2730              		.global	utm_of_lla_i
 2731              		.syntax unified
 2732              		.thumb
 2733              		.thumb_func
 2734              		.fpu fpv4-sp-d16
 2735              		.type	utm_of_lla_i, %function
ARM GAS  /tmp/ccKtbbXa.s 			page 49


 2736              	utm_of_lla_i:
 2737              	.LFB95:
 2738              		.loc 1 424 1
 2739              		.cfi_startproc
 2740              		@ args = 0, pretend = 0, frame = 64
 2741              		@ frame_needed = 0, uses_anonymous_args = 0
 2742 0000 00B5     		push	{lr}
 2743              		.cfi_def_cfa_offset 4
 2744              		.cfi_offset 14, -4
 2745 0002 91B0     		sub	sp, sp, #68
 2746              		.cfi_def_cfa_offset 72
 2747 0004 0190     		str	r0, [sp, #4]
 2748 0006 0091     		str	r1, [sp]
 2749              		.loc 1 438 3
 2750 0008 009B     		ldr	r3, [sp]
 2751 000a 1B68     		ldr	r3, [r3]
 2752 000c 1846     		mov	r0, r3
 2753 000e FFF7FEFF 		bl	__aeabi_i2d
 2754 0012 3FA3     		adr	r3, .L33+8
 2755 0014 D3E90023 		ldrd	r2, [r3]
 2756 0018 FFF7FEFF 		bl	__aeabi_dmul
 2757 001c 0246     		mov	r2, r0
 2758 001e 0B46     		mov	r3, r1
 2759 0020 1046     		mov	r0, r2
 2760 0022 1946     		mov	r1, r3
 2761 0024 3CA3     		adr	r3, .L33+16
 2762 0026 D3E90023 		ldrd	r2, [r3]
 2763 002a FFF7FEFF 		bl	__aeabi_ddiv
 2764 002e 0246     		mov	r2, r0
 2765 0030 0B46     		mov	r3, r1
 2766 0032 CDE90A23 		strd	r2, [sp, #40]
 2767 0036 009B     		ldr	r3, [sp]
 2768 0038 5B68     		ldr	r3, [r3, #4]
 2769 003a 1846     		mov	r0, r3
 2770 003c FFF7FEFF 		bl	__aeabi_i2d
 2771 0040 33A3     		adr	r3, .L33+8
 2772 0042 D3E90023 		ldrd	r2, [r3]
 2773 0046 FFF7FEFF 		bl	__aeabi_dmul
 2774 004a 0246     		mov	r2, r0
 2775 004c 0B46     		mov	r3, r1
 2776 004e 1046     		mov	r0, r2
 2777 0050 1946     		mov	r1, r3
 2778 0052 31A3     		adr	r3, .L33+16
 2779 0054 D3E90023 		ldrd	r2, [r3]
 2780 0058 FFF7FEFF 		bl	__aeabi_ddiv
 2781 005c 0246     		mov	r2, r0
 2782 005e 0B46     		mov	r3, r1
 2783 0060 CDE90C23 		strd	r2, [sp, #48]
 2784 0064 009B     		ldr	r3, [sp]
 2785 0066 9B68     		ldr	r3, [r3, #8]
 2786 0068 1846     		mov	r0, r3
 2787 006a FFF7FEFF 		bl	__aeabi_i2d
 2788 006e 4FF00002 		mov	r2, #0
 2789 0072 254B     		ldr	r3, .L33
 2790 0074 FFF7FEFF 		bl	__aeabi_ddiv
 2791 0078 0246     		mov	r2, r0
 2792 007a 0B46     		mov	r3, r1
ARM GAS  /tmp/ccKtbbXa.s 			page 50


 2793 007c CDE90E23 		strd	r2, [sp, #56]
 2794              		.loc 1 441 19
 2795 0080 019B     		ldr	r3, [sp, #4]
 2796 0082 1B7B     		ldrb	r3, [r3, #12]	@ zero_extendqisi2
 2797              		.loc 1 441 14
 2798 0084 8DF82030 		strb	r3, [sp, #32]
 2799              		.loc 1 442 3
 2800 0088 0AAA     		add	r2, sp, #40
 2801 008a 02AB     		add	r3, sp, #8
 2802 008c 1146     		mov	r1, r2
 2803 008e 1846     		mov	r0, r3
 2804 0090 FFF7FEFF 		bl	utm_of_lla_d
 2805              		.loc 1 444 3
 2806 0094 DDE90401 		ldrd	r0, [sp, #16]
 2807 0098 4FF00002 		mov	r2, #0
 2808 009c 1B4B     		ldr	r3, .L33+4
 2809 009e FFF7FEFF 		bl	__aeabi_dmul
 2810 00a2 0246     		mov	r2, r0
 2811 00a4 0B46     		mov	r3, r1
 2812 00a6 1046     		mov	r0, r2
 2813 00a8 1946     		mov	r1, r3
 2814 00aa FFF7FEFF 		bl	__aeabi_d2iz
 2815 00ae 0246     		mov	r2, r0
 2816 00b0 019B     		ldr	r3, [sp, #4]
 2817 00b2 5A60     		str	r2, [r3, #4]
 2818 00b4 DDE90201 		ldrd	r0, [sp, #8]
 2819 00b8 4FF00002 		mov	r2, #0
 2820 00bc 134B     		ldr	r3, .L33+4
 2821 00be FFF7FEFF 		bl	__aeabi_dmul
 2822 00c2 0246     		mov	r2, r0
 2823 00c4 0B46     		mov	r3, r1
 2824 00c6 1046     		mov	r0, r2
 2825 00c8 1946     		mov	r1, r3
 2826 00ca FFF7FEFF 		bl	__aeabi_d2iz
 2827 00ce 0246     		mov	r2, r0
 2828 00d0 019B     		ldr	r3, [sp, #4]
 2829 00d2 1A60     		str	r2, [r3]
 2830 00d4 DDE90601 		ldrd	r0, [sp, #24]
 2831 00d8 4FF00002 		mov	r2, #0
 2832 00dc 0A4B     		ldr	r3, .L33
 2833 00de FFF7FEFF 		bl	__aeabi_dmul
 2834 00e2 0246     		mov	r2, r0
 2835 00e4 0B46     		mov	r3, r1
 2836 00e6 1046     		mov	r0, r2
 2837 00e8 1946     		mov	r1, r3
 2838 00ea FFF7FEFF 		bl	__aeabi_d2iz
 2839 00ee 0246     		mov	r2, r0
 2840 00f0 019B     		ldr	r3, [sp, #4]
 2841 00f2 9A60     		str	r2, [r3, #8]
 2842 00f4 9DF82020 		ldrb	r2, [sp, #32]	@ zero_extendqisi2
 2843 00f8 019B     		ldr	r3, [sp, #4]
 2844 00fa 1A73     		strb	r2, [r3, #12]
 2845              		.loc 1 446 1
 2846 00fc 00BF     		nop
 2847 00fe 11B0     		add	sp, sp, #68
 2848              		.cfi_def_cfa_offset 4
 2849              		@ sp needed
ARM GAS  /tmp/ccKtbbXa.s 			page 51


 2850 0100 5DF804FB 		ldr	pc, [sp], #4
 2851              	.L34:
 2852 0104 AFF30080 		.align	3
 2853              	.L33:
 2854 0108 00408F40 		.word	1083129856
 2855 010c 00005940 		.word	1079574528
 2856 0110 399D52A2 		.word	-1571644103
 2857 0114 46DF913F 		.word	1066524486
 2858 0118 00000000 		.word	0
 2859 011c D0126341 		.word	1097011920
 2860              		.cfi_endproc
 2861              	.LFE95:
 2862              		.size	utm_of_lla_i, .-utm_of_lla_i
 2863              		.section	.text.lla_of_utm_i,"ax",%progbits
 2864              		.align	1
 2865              		.p2align 4,,15
 2866              		.global	lla_of_utm_i
 2867              		.syntax unified
 2868              		.thumb
 2869              		.thumb_func
 2870              		.fpu fpv4-sp-d16
 2871              		.type	lla_of_utm_i, %function
 2872              	lla_of_utm_i:
 2873              	.LFB96:
 2874              		.loc 1 453 1
 2875              		.cfi_startproc
 2876              		@ args = 0, pretend = 0, frame = 64
 2877              		@ frame_needed = 0, uses_anonymous_args = 0
 2878 0000 00B5     		push	{lr}
 2879              		.cfi_def_cfa_offset 4
 2880              		.cfi_offset 14, -4
 2881 0002 91B0     		sub	sp, sp, #68
 2882              		.cfi_def_cfa_offset 72
 2883 0004 0190     		str	r0, [sp, #4]
 2884 0006 0091     		str	r1, [sp]
 2885              		.loc 1 466 3
 2886 0008 009B     		ldr	r3, [sp]
 2887 000a 5B68     		ldr	r3, [r3, #4]
 2888 000c 1846     		mov	r0, r3
 2889 000e FFF7FEFF 		bl	__aeabi_i2d
 2890 0012 4FF00002 		mov	r2, #0
 2891 0016 3E4B     		ldr	r3, .L36+16
 2892 0018 FFF7FEFF 		bl	__aeabi_ddiv
 2893 001c 0246     		mov	r2, r0
 2894 001e 0B46     		mov	r3, r1
 2895 0020 CDE90A23 		strd	r2, [sp, #40]
 2896 0024 009B     		ldr	r3, [sp]
 2897 0026 1B68     		ldr	r3, [r3]
 2898 0028 1846     		mov	r0, r3
 2899 002a FFF7FEFF 		bl	__aeabi_i2d
 2900 002e 4FF00002 		mov	r2, #0
 2901 0032 374B     		ldr	r3, .L36+16
 2902 0034 FFF7FEFF 		bl	__aeabi_ddiv
 2903 0038 0246     		mov	r2, r0
 2904 003a 0B46     		mov	r3, r1
 2905 003c CDE90823 		strd	r2, [sp, #32]
 2906 0040 009B     		ldr	r3, [sp]
ARM GAS  /tmp/ccKtbbXa.s 			page 52


 2907 0042 9B68     		ldr	r3, [r3, #8]
 2908 0044 1846     		mov	r0, r3
 2909 0046 FFF7FEFF 		bl	__aeabi_i2d
 2910 004a 4FF00002 		mov	r2, #0
 2911 004e 314B     		ldr	r3, .L36+20
 2912 0050 FFF7FEFF 		bl	__aeabi_ddiv
 2913 0054 0246     		mov	r2, r0
 2914 0056 0B46     		mov	r3, r1
 2915 0058 CDE90C23 		strd	r2, [sp, #48]
 2916 005c 009B     		ldr	r3, [sp]
 2917 005e 1B7B     		ldrb	r3, [r3, #12]	@ zero_extendqisi2
 2918 0060 8DF83830 		strb	r3, [sp, #56]
 2919              		.loc 1 469 3
 2920 0064 08AA     		add	r2, sp, #32
 2921 0066 02AB     		add	r3, sp, #8
 2922 0068 1146     		mov	r1, r2
 2923 006a 1846     		mov	r0, r3
 2924 006c FFF7FEFF 		bl	lla_of_utm_d
 2925              		.loc 1 471 3
 2926 0070 DDE90201 		ldrd	r0, [sp, #8]
 2927 0074 22A3     		adr	r3, .L36
 2928 0076 D3E90023 		ldrd	r2, [r3]
 2929 007a FFF7FEFF 		bl	__aeabi_dmul
 2930 007e 0246     		mov	r2, r0
 2931 0080 0B46     		mov	r3, r1
 2932 0082 1046     		mov	r0, r2
 2933 0084 1946     		mov	r1, r3
 2934 0086 20A3     		adr	r3, .L36+8
 2935 0088 D3E90023 		ldrd	r2, [r3]
 2936 008c FFF7FEFF 		bl	__aeabi_dmul
 2937 0090 0246     		mov	r2, r0
 2938 0092 0B46     		mov	r3, r1
 2939 0094 1046     		mov	r0, r2
 2940 0096 1946     		mov	r1, r3
 2941 0098 FFF7FEFF 		bl	__aeabi_d2iz
 2942 009c 0246     		mov	r2, r0
 2943 009e 019B     		ldr	r3, [sp, #4]
 2944 00a0 1A60     		str	r2, [r3]
 2945 00a2 DDE90401 		ldrd	r0, [sp, #16]
 2946 00a6 16A3     		adr	r3, .L36
 2947 00a8 D3E90023 		ldrd	r2, [r3]
 2948 00ac FFF7FEFF 		bl	__aeabi_dmul
 2949 00b0 0246     		mov	r2, r0
 2950 00b2 0B46     		mov	r3, r1
 2951 00b4 1046     		mov	r0, r2
 2952 00b6 1946     		mov	r1, r3
 2953 00b8 13A3     		adr	r3, .L36+8
 2954 00ba D3E90023 		ldrd	r2, [r3]
 2955 00be FFF7FEFF 		bl	__aeabi_dmul
 2956 00c2 0246     		mov	r2, r0
 2957 00c4 0B46     		mov	r3, r1
 2958 00c6 1046     		mov	r0, r2
 2959 00c8 1946     		mov	r1, r3
 2960 00ca FFF7FEFF 		bl	__aeabi_d2iz
 2961 00ce 0246     		mov	r2, r0
 2962 00d0 019B     		ldr	r3, [sp, #4]
 2963 00d2 5A60     		str	r2, [r3, #4]
ARM GAS  /tmp/ccKtbbXa.s 			page 53


 2964 00d4 DDE90601 		ldrd	r0, [sp, #24]
 2965 00d8 4FF00002 		mov	r2, #0
 2966 00dc 0D4B     		ldr	r3, .L36+20
 2967 00de FFF7FEFF 		bl	__aeabi_dmul
 2968 00e2 0246     		mov	r2, r0
 2969 00e4 0B46     		mov	r3, r1
 2970 00e6 1046     		mov	r0, r2
 2971 00e8 1946     		mov	r1, r3
 2972 00ea FFF7FEFF 		bl	__aeabi_d2iz
 2973 00ee 0246     		mov	r2, r0
 2974 00f0 019B     		ldr	r3, [sp, #4]
 2975 00f2 9A60     		str	r2, [r3, #8]
 2976              		.loc 1 474 1
 2977 00f4 00BF     		nop
 2978 00f6 11B0     		add	sp, sp, #68
 2979              		.cfi_def_cfa_offset 4
 2980              		@ sp needed
 2981 00f8 5DF804FB 		ldr	pc, [sp], #4
 2982              	.L37:
 2983 00fc AFF30080 		.align	3
 2984              	.L36:
 2985 0100 F8C1631A 		.word	442745336
 2986 0104 DCA54C40 		.word	1078765020
 2987 0108 00000000 		.word	0
 2988 010c D0126341 		.word	1097011920
 2989 0110 00005940 		.word	1079574528
 2990 0114 00408F40 		.word	1083129856
 2991              		.cfi_endproc
 2992              	.LFE96:
 2993              		.size	lla_of_utm_i, .-lla_of_utm_i
 2994              		.text
 2995              	.Letext0:
 2996              		.file 2 "/usr/lib/gcc/arm-none-eabi/10.3.1/include/stdint.h"
 2997              		.file 3 "math/pprz_algebra_int.h"
 2998              		.file 4 "math/pprz_geodetic_int.h"
 2999              		.file 5 "math/pprz_geodetic_double.h"
 3000              		.file 6 "./math/pprz_geodetic_utm.h"
 3001              		.section	.debug_info,"",%progbits
 3002              	.Ldebug_info0:
 3003 0000 C20B0000 		.4byte	0xbc2
 3004 0004 0400     		.2byte	0x4
 3005 0006 00000000 		.4byte	.Ldebug_abbrev0
 3006 000a 04       		.byte	0x4
 3007 000b 01       		.uleb128 0x1
 3008 000c CBE10000 		.4byte	.LASF1757
 3009 0010 0C       		.byte	0xc
 3010 0011 F9E90000 		.4byte	.LASF1758
 3011 0015 048B0000 		.4byte	.LASF1759
 3012 0019 00000000 		.4byte	.Ldebug_ranges0+0
 3013 001d 00000000 		.4byte	0
 3014 0021 00000000 		.4byte	.Ldebug_line0
 3015 0025 00000000 		.4byte	.Ldebug_macro0
 3016 0029 02       		.uleb128 0x2
 3017 002a 01       		.byte	0x1
 3018 002b 06       		.byte	0x6
 3019 002c 4DAA0000 		.4byte	.LASF1687
 3020 0030 02       		.uleb128 0x2
ARM GAS  /tmp/ccKtbbXa.s 			page 54


 3021 0031 02       		.byte	0x2
 3022 0032 05       		.byte	0x5
 3023 0033 AB3C0100 		.4byte	.LASF1688
 3024 0037 03       		.uleb128 0x3
 3025 0038 C0250000 		.4byte	.LASF1690
 3026 003c 02       		.byte	0x2
 3027 003d 28       		.byte	0x28
 3028 003e 18       		.byte	0x18
 3029 003f 43000000 		.4byte	0x43
 3030 0043 02       		.uleb128 0x2
 3031 0044 04       		.byte	0x4
 3032 0045 05       		.byte	0x5
 3033 0046 33C70000 		.4byte	.LASF1689
 3034 004a 03       		.uleb128 0x3
 3035 004b 73F60000 		.4byte	.LASF1691
 3036 004f 02       		.byte	0x2
 3037 0050 2B       		.byte	0x2b
 3038 0051 18       		.byte	0x18
 3039 0052 5B000000 		.4byte	0x5b
 3040 0056 04       		.uleb128 0x4
 3041 0057 4A000000 		.4byte	0x4a
 3042 005b 02       		.uleb128 0x2
 3043 005c 08       		.byte	0x8
 3044 005d 05       		.byte	0x5
 3045 005e 74250100 		.4byte	.LASF1692
 3046 0062 03       		.uleb128 0x3
 3047 0063 716A0000 		.4byte	.LASF1693
 3048 0067 02       		.byte	0x2
 3049 0068 2E       		.byte	0x2e
 3050 0069 18       		.byte	0x18
 3051 006a 6E000000 		.4byte	0x6e
 3052 006e 02       		.uleb128 0x2
 3053 006f 01       		.byte	0x1
 3054 0070 08       		.byte	0x8
 3055 0071 804A0000 		.4byte	.LASF1694
 3056 0075 02       		.uleb128 0x2
 3057 0076 02       		.byte	0x2
 3058 0077 07       		.byte	0x7
 3059 0078 16A90000 		.4byte	.LASF1695
 3060 007c 02       		.uleb128 0x2
 3061 007d 04       		.byte	0x4
 3062 007e 07       		.byte	0x7
 3063 007f A32E0100 		.4byte	.LASF1696
 3064 0083 02       		.uleb128 0x2
 3065 0084 08       		.byte	0x8
 3066 0085 07       		.byte	0x7
 3067 0086 47130100 		.4byte	.LASF1697
 3068 008a 05       		.uleb128 0x5
 3069 008b 04       		.byte	0x4
 3070 008c 05       		.byte	0x5
 3071 008d 696E7400 		.ascii	"int\000"
 3072 0091 02       		.uleb128 0x2
 3073 0092 04       		.byte	0x4
 3074 0093 07       		.byte	0x7
 3075 0094 D5380100 		.4byte	.LASF1698
 3076 0098 02       		.uleb128 0x2
 3077 0099 01       		.byte	0x1
ARM GAS  /tmp/ccKtbbXa.s 			page 55


 3078 009a 08       		.byte	0x8
 3079 009b 9BE30000 		.4byte	.LASF591
 3080 009f 02       		.uleb128 0x2
 3081 00a0 04       		.byte	0x4
 3082 00a1 04       		.byte	0x4
 3083 00a2 7A4C0000 		.4byte	.LASF1699
 3084 00a6 04       		.uleb128 0x4
 3085 00a7 9F000000 		.4byte	0x9f
 3086 00ab 02       		.uleb128 0x2
 3087 00ac 08       		.byte	0x8
 3088 00ad 04       		.byte	0x4
 3089 00ae 2FFA0000 		.4byte	.LASF1700
 3090 00b2 06       		.uleb128 0x6
 3091 00b3 0F3B0000 		.4byte	.LASF1701
 3092 00b7 24       		.byte	0x24
 3093 00b8 03       		.byte	0x3
 3094 00b9 9F       		.byte	0x9f
 3095 00ba 08       		.byte	0x8
 3096 00bb CB000000 		.4byte	0xcb
 3097 00bf 07       		.uleb128 0x7
 3098 00c0 6D00     		.ascii	"m\000"
 3099 00c2 03       		.byte	0x3
 3100 00c3 A0       		.byte	0xa0
 3101 00c4 0B       		.byte	0xb
 3102 00c5 CB000000 		.4byte	0xcb
 3103 00c9 00       		.byte	0
 3104 00ca 00       		.byte	0
 3105 00cb 08       		.uleb128 0x8
 3106 00cc 37000000 		.4byte	0x37
 3107 00d0 DB000000 		.4byte	0xdb
 3108 00d4 09       		.uleb128 0x9
 3109 00d5 91000000 		.4byte	0x91
 3110 00d9 08       		.byte	0x8
 3111 00da 00       		.byte	0
 3112 00db 06       		.uleb128 0x6
 3113 00dc D2C90000 		.4byte	.LASF1702
 3114 00e0 0C       		.byte	0xc
 3115 00e1 04       		.byte	0x4
 3116 00e2 32       		.byte	0x32
 3117 00e3 08       		.byte	0x8
 3118 00e4 0A010000 		.4byte	0x10a
 3119 00e8 07       		.uleb128 0x7
 3120 00e9 7800     		.ascii	"x\000"
 3121 00eb 04       		.byte	0x4
 3122 00ec 33       		.byte	0x33
 3123 00ed 0B       		.byte	0xb
 3124 00ee 37000000 		.4byte	0x37
 3125 00f2 00       		.byte	0
 3126 00f3 07       		.uleb128 0x7
 3127 00f4 7900     		.ascii	"y\000"
 3128 00f6 04       		.byte	0x4
 3129 00f7 34       		.byte	0x34
 3130 00f8 0B       		.byte	0xb
 3131 00f9 37000000 		.4byte	0x37
 3132 00fd 04       		.byte	0x4
 3133 00fe 07       		.uleb128 0x7
 3134 00ff 7A00     		.ascii	"z\000"
ARM GAS  /tmp/ccKtbbXa.s 			page 56


 3135 0101 04       		.byte	0x4
 3136 0102 35       		.byte	0x35
 3137 0103 0B       		.byte	0xb
 3138 0104 37000000 		.4byte	0x37
 3139 0108 08       		.byte	0x8
 3140 0109 00       		.byte	0
 3141 010a 06       		.uleb128 0x6
 3142 010b A3080100 		.4byte	.LASF1703
 3143 010f 0C       		.byte	0xc
 3144 0110 04       		.byte	0x4
 3145 0111 3B       		.byte	0x3b
 3146 0112 08       		.byte	0x8
 3147 0113 3F010000 		.4byte	0x13f
 3148 0117 07       		.uleb128 0x7
 3149 0118 6C617400 		.ascii	"lat\000"
 3150 011c 04       		.byte	0x4
 3151 011d 3C       		.byte	0x3c
 3152 011e 0B       		.byte	0xb
 3153 011f 37000000 		.4byte	0x37
 3154 0123 00       		.byte	0
 3155 0124 07       		.uleb128 0x7
 3156 0125 6C6F6E00 		.ascii	"lon\000"
 3157 0129 04       		.byte	0x4
 3158 012a 3D       		.byte	0x3d
 3159 012b 0B       		.byte	0xb
 3160 012c 37000000 		.4byte	0x37
 3161 0130 04       		.byte	0x4
 3162 0131 07       		.uleb128 0x7
 3163 0132 616C7400 		.ascii	"alt\000"
 3164 0136 04       		.byte	0x4
 3165 0137 3E       		.byte	0x3e
 3166 0138 0B       		.byte	0xb
 3167 0139 37000000 		.4byte	0x37
 3168 013d 08       		.byte	0x8
 3169 013e 00       		.byte	0
 3170 013f 06       		.uleb128 0x6
 3171 0140 285D0000 		.4byte	.LASF1704
 3172 0144 0C       		.byte	0xc
 3173 0145 04       		.byte	0x4
 3174 0146 44       		.byte	0x44
 3175 0147 08       		.byte	0x8
 3176 0148 6E010000 		.4byte	0x16e
 3177 014c 07       		.uleb128 0x7
 3178 014d 7800     		.ascii	"x\000"
 3179 014f 04       		.byte	0x4
 3180 0150 45       		.byte	0x45
 3181 0151 0B       		.byte	0xb
 3182 0152 37000000 		.4byte	0x37
 3183 0156 00       		.byte	0
 3184 0157 07       		.uleb128 0x7
 3185 0158 7900     		.ascii	"y\000"
 3186 015a 04       		.byte	0x4
 3187 015b 46       		.byte	0x46
 3188 015c 0B       		.byte	0xb
 3189 015d 37000000 		.4byte	0x37
 3190 0161 04       		.byte	0x4
 3191 0162 07       		.uleb128 0x7
ARM GAS  /tmp/ccKtbbXa.s 			page 57


 3192 0163 7A00     		.ascii	"z\000"
 3193 0165 04       		.byte	0x4
 3194 0166 47       		.byte	0x47
 3195 0167 0B       		.byte	0xb
 3196 0168 37000000 		.4byte	0x37
 3197 016c 08       		.byte	0x8
 3198 016d 00       		.byte	0
 3199 016e 06       		.uleb128 0x6
 3200 016f D73E0100 		.4byte	.LASF1705
 3201 0173 0C       		.byte	0xc
 3202 0174 04       		.byte	0x4
 3203 0175 4D       		.byte	0x4d
 3204 0176 08       		.byte	0x8
 3205 0177 9D010000 		.4byte	0x19d
 3206 017b 07       		.uleb128 0x7
 3207 017c 7800     		.ascii	"x\000"
 3208 017e 04       		.byte	0x4
 3209 017f 4E       		.byte	0x4e
 3210 0180 0B       		.byte	0xb
 3211 0181 37000000 		.4byte	0x37
 3212 0185 00       		.byte	0
 3213 0186 07       		.uleb128 0x7
 3214 0187 7900     		.ascii	"y\000"
 3215 0189 04       		.byte	0x4
 3216 018a 4F       		.byte	0x4f
 3217 018b 0B       		.byte	0xb
 3218 018c 37000000 		.4byte	0x37
 3219 0190 04       		.byte	0x4
 3220 0191 07       		.uleb128 0x7
 3221 0192 7A00     		.ascii	"z\000"
 3222 0194 04       		.byte	0x4
 3223 0195 50       		.byte	0x50
 3224 0196 0B       		.byte	0xb
 3225 0197 37000000 		.4byte	0x37
 3226 019b 08       		.byte	0x8
 3227 019c 00       		.byte	0
 3228 019d 06       		.uleb128 0x6
 3229 019e 608D0000 		.4byte	.LASF1706
 3230 01a2 10       		.byte	0x10
 3231 01a3 04       		.byte	0x4
 3232 01a4 56       		.byte	0x56
 3233 01a5 08       		.byte	0x8
 3234 01a6 DF010000 		.4byte	0x1df
 3235 01aa 0A       		.uleb128 0xa
 3236 01ab BF5E0000 		.4byte	.LASF1707
 3237 01af 04       		.byte	0x4
 3238 01b0 57       		.byte	0x57
 3239 01b1 0B       		.byte	0xb
 3240 01b2 37000000 		.4byte	0x37
 3241 01b6 00       		.byte	0
 3242 01b7 0A       		.uleb128 0xa
 3243 01b8 3F500000 		.4byte	.LASF1708
 3244 01bc 04       		.byte	0x4
 3245 01bd 58       		.byte	0x58
 3246 01be 0B       		.byte	0xb
 3247 01bf 37000000 		.4byte	0x37
 3248 01c3 04       		.byte	0x4
ARM GAS  /tmp/ccKtbbXa.s 			page 58


 3249 01c4 07       		.uleb128 0x7
 3250 01c5 616C7400 		.ascii	"alt\000"
 3251 01c9 04       		.byte	0x4
 3252 01ca 59       		.byte	0x59
 3253 01cb 0B       		.byte	0xb
 3254 01cc 37000000 		.4byte	0x37
 3255 01d0 08       		.byte	0x8
 3256 01d1 0A       		.uleb128 0xa
 3257 01d2 3C220000 		.4byte	.LASF1709
 3258 01d6 04       		.byte	0x4
 3259 01d7 5A       		.byte	0x5a
 3260 01d8 0B       		.byte	0xb
 3261 01d9 62000000 		.4byte	0x62
 3262 01dd 0C       		.byte	0xc
 3263 01de 00       		.byte	0
 3264 01df 06       		.uleb128 0x6
 3265 01e0 0A760000 		.4byte	.LASF1710
 3266 01e4 40       		.byte	0x40
 3267 01e5 04       		.byte	0x4
 3268 01e6 62       		.byte	0x62
 3269 01e7 08       		.byte	0x8
 3270 01e8 21020000 		.4byte	0x221
 3271 01ec 0A       		.uleb128 0xa
 3272 01ed F6430000 		.4byte	.LASF1711
 3273 01f1 04       		.byte	0x4
 3274 01f2 63       		.byte	0x63
 3275 01f3 15       		.byte	0x15
 3276 01f4 DB000000 		.4byte	0xdb
 3277 01f8 00       		.byte	0
 3278 01f9 07       		.uleb128 0x7
 3279 01fa 6C6C6100 		.ascii	"lla\000"
 3280 01fe 04       		.byte	0x4
 3281 01ff 64       		.byte	0x64
 3282 0200 15       		.byte	0x15
 3283 0201 0A010000 		.4byte	0x10a
 3284 0205 0C       		.byte	0xc
 3285 0206 0A       		.uleb128 0xa
 3286 0207 DD390000 		.4byte	.LASF1712
 3287 020b 04       		.byte	0x4
 3288 020c 65       		.byte	0x65
 3289 020d 14       		.byte	0x14
 3290 020e B2000000 		.4byte	0xb2
 3291 0212 18       		.byte	0x18
 3292 0213 0A       		.uleb128 0xa
 3293 0214 AF1B0100 		.4byte	.LASF1713
 3294 0218 04       		.byte	0x4
 3295 0219 66       		.byte	0x66
 3296 021a 0B       		.byte	0xb
 3297 021b 37000000 		.4byte	0x37
 3298 021f 3C       		.byte	0x3c
 3299 0220 00       		.byte	0
 3300 0221 06       		.uleb128 0x6
 3301 0222 9FC90000 		.4byte	.LASF1714
 3302 0226 18       		.byte	0x18
 3303 0227 05       		.byte	0x5
 3304 0228 31       		.byte	0x31
 3305 0229 08       		.byte	0x8
ARM GAS  /tmp/ccKtbbXa.s 			page 59


 3306 022a 50020000 		.4byte	0x250
 3307 022e 07       		.uleb128 0x7
 3308 022f 7800     		.ascii	"x\000"
 3309 0231 05       		.byte	0x5
 3310 0232 32       		.byte	0x32
 3311 0233 0A       		.byte	0xa
 3312 0234 AB000000 		.4byte	0xab
 3313 0238 00       		.byte	0
 3314 0239 07       		.uleb128 0x7
 3315 023a 7900     		.ascii	"y\000"
 3316 023c 05       		.byte	0x5
 3317 023d 33       		.byte	0x33
 3318 023e 0A       		.byte	0xa
 3319 023f AB000000 		.4byte	0xab
 3320 0243 08       		.byte	0x8
 3321 0244 07       		.uleb128 0x7
 3322 0245 7A00     		.ascii	"z\000"
 3323 0247 05       		.byte	0x5
 3324 0248 34       		.byte	0x34
 3325 0249 0A       		.byte	0xa
 3326 024a AB000000 		.4byte	0xab
 3327 024e 10       		.byte	0x10
 3328 024f 00       		.byte	0
 3329 0250 06       		.uleb128 0x6
 3330 0251 F7070100 		.4byte	.LASF1715
 3331 0255 18       		.byte	0x18
 3332 0256 05       		.byte	0x5
 3333 0257 3A       		.byte	0x3a
 3334 0258 08       		.byte	0x8
 3335 0259 85020000 		.4byte	0x285
 3336 025d 07       		.uleb128 0x7
 3337 025e 6C617400 		.ascii	"lat\000"
 3338 0262 05       		.byte	0x5
 3339 0263 3B       		.byte	0x3b
 3340 0264 0A       		.byte	0xa
 3341 0265 AB000000 		.4byte	0xab
 3342 0269 00       		.byte	0
 3343 026a 07       		.uleb128 0x7
 3344 026b 6C6F6E00 		.ascii	"lon\000"
 3345 026f 05       		.byte	0x5
 3346 0270 3C       		.byte	0x3c
 3347 0271 0A       		.byte	0xa
 3348 0272 AB000000 		.4byte	0xab
 3349 0276 08       		.byte	0x8
 3350 0277 07       		.uleb128 0x7
 3351 0278 616C7400 		.ascii	"alt\000"
 3352 027c 05       		.byte	0x5
 3353 027d 3D       		.byte	0x3d
 3354 027e 0A       		.byte	0xa
 3355 027f AB000000 		.4byte	0xab
 3356 0283 10       		.byte	0x10
 3357 0284 00       		.byte	0
 3358 0285 06       		.uleb128 0x6
 3359 0286 0E8D0000 		.4byte	.LASF1716
 3360 028a 20       		.byte	0x20
 3361 028b 05       		.byte	0x5
 3362 028c 55       		.byte	0x55
ARM GAS  /tmp/ccKtbbXa.s 			page 60


 3363 028d 08       		.byte	0x8
 3364 028e C7020000 		.4byte	0x2c7
 3365 0292 0A       		.uleb128 0xa
 3366 0293 BF5E0000 		.4byte	.LASF1707
 3367 0297 05       		.byte	0x5
 3368 0298 56       		.byte	0x56
 3369 0299 0A       		.byte	0xa
 3370 029a AB000000 		.4byte	0xab
 3371 029e 00       		.byte	0
 3372 029f 0A       		.uleb128 0xa
 3373 02a0 3F500000 		.4byte	.LASF1708
 3374 02a4 05       		.byte	0x5
 3375 02a5 57       		.byte	0x57
 3376 02a6 0A       		.byte	0xa
 3377 02a7 AB000000 		.4byte	0xab
 3378 02ab 08       		.byte	0x8
 3379 02ac 07       		.uleb128 0x7
 3380 02ad 616C7400 		.ascii	"alt\000"
 3381 02b1 05       		.byte	0x5
 3382 02b2 58       		.byte	0x58
 3383 02b3 0A       		.byte	0xa
 3384 02b4 AB000000 		.4byte	0xab
 3385 02b8 10       		.byte	0x10
 3386 02b9 0A       		.uleb128 0xa
 3387 02ba 3C220000 		.4byte	.LASF1709
 3388 02be 05       		.byte	0x5
 3389 02bf 59       		.byte	0x59
 3390 02c0 0B       		.byte	0xb
 3391 02c1 62000000 		.4byte	0x62
 3392 02c5 18       		.byte	0x18
 3393 02c6 00       		.byte	0
 3394 02c7 08       		.uleb128 0x8
 3395 02c8 A6000000 		.4byte	0xa6
 3396 02cc D7020000 		.4byte	0x2d7
 3397 02d0 09       		.uleb128 0x9
 3398 02d1 91000000 		.4byte	0x91
 3399 02d5 04       		.byte	0x4
 3400 02d6 00       		.byte	0
 3401 02d7 04       		.uleb128 0x4
 3402 02d8 C7020000 		.4byte	0x2c7
 3403 02dc 0B       		.uleb128 0xb
 3404 02dd 861A0000 		.4byte	.LASF1717
 3405 02e1 06       		.byte	0x6
 3406 02e2 33       		.byte	0x33
 3407 02e3 14       		.byte	0x14
 3408 02e4 D7020000 		.4byte	0x2d7
 3409 02e8 05       		.uleb128 0x5
 3410 02e9 03       		.byte	0x3
 3411 02ea 00000000 		.4byte	serie_coeff_proj_mercator
 3412 02ee 0B       		.uleb128 0xb
 3413 02ef 77AD0000 		.4byte	.LASF1718
 3414 02f3 06       		.byte	0x6
 3415 02f4 3B       		.byte	0x3b
 3416 02f5 14       		.byte	0x14
 3417 02f6 D7020000 		.4byte	0x2d7
 3418 02fa 05       		.uleb128 0x5
 3419 02fb 03       		.byte	0x3
ARM GAS  /tmp/ccKtbbXa.s 			page 61


 3420 02fc 00000000 		.4byte	serie_coeff_proj_mercator_inverse
 3421 0300 0C       		.uleb128 0xc
 3422 0301 BB4C0000 		.4byte	.LASF1721
 3423 0305 01       		.byte	0x1
 3424 0306 C401     		.2byte	0x1c4
 3425 0308 06       		.byte	0x6
 3426 0309 00000000 		.4byte	.LFB96
 3427 030d 18010000 		.4byte	.LFE96-.LFB96
 3428 0311 01       		.uleb128 0x1
 3429 0312 9C       		.byte	0x9c
 3430 0313 5A030000 		.4byte	0x35a
 3431 0317 0D       		.uleb128 0xd
 3432 0318 6C6C6100 		.ascii	"lla\000"
 3433 031c 01       		.byte	0x1
 3434 031d C401     		.2byte	0x1c4
 3435 031f 25       		.byte	0x25
 3436 0320 5A030000 		.4byte	0x35a
 3437 0324 03       		.uleb128 0x3
 3438 0325 91       		.byte	0x91
 3439 0326 BC7F     		.sleb128 -68
 3440 0328 0D       		.uleb128 0xd
 3441 0329 75746D00 		.ascii	"utm\000"
 3442 032d 01       		.byte	0x1
 3443 032e C401     		.2byte	0x1c4
 3444 0330 3C       		.byte	0x3c
 3445 0331 60030000 		.4byte	0x360
 3446 0335 03       		.uleb128 0x3
 3447 0336 91       		.byte	0x91
 3448 0337 B87F     		.sleb128 -72
 3449 0339 0E       		.uleb128 0xe
 3450 033a D3060000 		.4byte	.LASF1719
 3451 033e 01       		.byte	0x1
 3452 033f D101     		.2byte	0x1d1
 3453 0341 14       		.byte	0x14
 3454 0342 85020000 		.4byte	0x285
 3455 0346 02       		.uleb128 0x2
 3456 0347 91       		.byte	0x91
 3457 0348 58       		.sleb128 -40
 3458 0349 0E       		.uleb128 0xe
 3459 034a C3F30000 		.4byte	.LASF1720
 3460 034e 01       		.byte	0x1
 3461 034f D401     		.2byte	0x1d4
 3462 0351 14       		.byte	0x14
 3463 0352 50020000 		.4byte	0x250
 3464 0356 02       		.uleb128 0x2
 3465 0357 91       		.byte	0x91
 3466 0358 40       		.sleb128 -64
 3467 0359 00       		.byte	0
 3468 035a 0F       		.uleb128 0xf
 3469 035b 04       		.byte	0x4
 3470 035c 0A010000 		.4byte	0x10a
 3471 0360 0F       		.uleb128 0xf
 3472 0361 04       		.byte	0x4
 3473 0362 9D010000 		.4byte	0x19d
 3474 0366 0C       		.uleb128 0xc
 3475 0367 75E10000 		.4byte	.LASF1722
 3476 036b 01       		.byte	0x1
ARM GAS  /tmp/ccKtbbXa.s 			page 62


 3477 036c A701     		.2byte	0x1a7
 3478 036e 06       		.byte	0x6
 3479 036f 00000000 		.4byte	.LFB95
 3480 0373 20010000 		.4byte	.LFE95-.LFB95
 3481 0377 01       		.uleb128 0x1
 3482 0378 9C       		.byte	0x9c
 3483 0379 C0030000 		.4byte	0x3c0
 3484 037d 0D       		.uleb128 0xd
 3485 037e 75746D00 		.ascii	"utm\000"
 3486 0382 01       		.byte	0x1
 3487 0383 A701     		.2byte	0x1a7
 3488 0385 25       		.byte	0x25
 3489 0386 60030000 		.4byte	0x360
 3490 038a 03       		.uleb128 0x3
 3491 038b 91       		.byte	0x91
 3492 038c BC7F     		.sleb128 -68
 3493 038e 0D       		.uleb128 0xd
 3494 038f 6C6C6100 		.ascii	"lla\000"
 3495 0393 01       		.byte	0x1
 3496 0394 A701     		.2byte	0x1a7
 3497 0396 3C       		.byte	0x3c
 3498 0397 5A030000 		.4byte	0x35a
 3499 039b 03       		.uleb128 0x3
 3500 039c 91       		.byte	0x91
 3501 039d B87F     		.sleb128 -72
 3502 039f 0E       		.uleb128 0xe
 3503 03a0 C3F30000 		.4byte	.LASF1720
 3504 03a4 01       		.byte	0x1
 3505 03a5 B501     		.2byte	0x1b5
 3506 03a7 14       		.byte	0x14
 3507 03a8 50020000 		.4byte	0x250
 3508 03ac 02       		.uleb128 0x2
 3509 03ad 91       		.byte	0x91
 3510 03ae 60       		.sleb128 -32
 3511 03af 0E       		.uleb128 0xe
 3512 03b0 D3060000 		.4byte	.LASF1719
 3513 03b4 01       		.byte	0x1
 3514 03b5 B801     		.2byte	0x1b8
 3515 03b7 14       		.byte	0x14
 3516 03b8 85020000 		.4byte	0x285
 3517 03bc 02       		.uleb128 0x2
 3518 03bd 91       		.byte	0x91
 3519 03be 40       		.sleb128 -64
 3520 03bf 00       		.byte	0
 3521 03c0 0C       		.uleb128 0xc
 3522 03c1 32C60000 		.4byte	.LASF1723
 3523 03c5 01       		.byte	0x1
 3524 03c6 8801     		.2byte	0x188
 3525 03c8 06       		.byte	0x6
 3526 03c9 00000000 		.4byte	.LFB94
 3527 03cd 10010000 		.4byte	.LFE94-.LFB94
 3528 03d1 01       		.uleb128 0x1
 3529 03d2 9C       		.byte	0x9c
 3530 03d3 17040000 		.4byte	0x417
 3531 03d7 0D       		.uleb128 0xd
 3532 03d8 6F757400 		.ascii	"out\000"
 3533 03dc 01       		.byte	0x1
ARM GAS  /tmp/ccKtbbXa.s 			page 63


 3534 03dd 8801     		.2byte	0x188
 3535 03df 27       		.byte	0x27
 3536 03e0 17040000 		.4byte	0x417
 3537 03e4 02       		.uleb128 0x2
 3538 03e5 91       		.byte	0x91
 3539 03e6 44       		.sleb128 -60
 3540 03e7 0D       		.uleb128 0xd
 3541 03e8 696E00   		.ascii	"in\000"
 3542 03eb 01       		.byte	0x1
 3543 03ec 8801     		.2byte	0x188
 3544 03ee 3E       		.byte	0x3e
 3545 03ef 5A030000 		.4byte	0x35a
 3546 03f3 02       		.uleb128 0x2
 3547 03f4 91       		.byte	0x91
 3548 03f5 40       		.sleb128 -64
 3549 03f6 0E       		.uleb128 0xe
 3550 03f7 B2310100 		.4byte	.LASF1724
 3551 03fb 01       		.byte	0x1
 3552 03fc 9601     		.2byte	0x196
 3553 03fe 14       		.byte	0x14
 3554 03ff 50020000 		.4byte	0x250
 3555 0403 02       		.uleb128 0x2
 3556 0404 91       		.byte	0x91
 3557 0405 60       		.sleb128 -32
 3558 0406 0E       		.uleb128 0xe
 3559 0407 9C180100 		.4byte	.LASF1725
 3560 040b 01       		.byte	0x1
 3561 040c 9901     		.2byte	0x199
 3562 040e 15       		.byte	0x15
 3563 040f 21020000 		.4byte	0x221
 3564 0413 02       		.uleb128 0x2
 3565 0414 91       		.byte	0x91
 3566 0415 48       		.sleb128 -56
 3567 0416 00       		.byte	0
 3568 0417 0F       		.uleb128 0xf
 3569 0418 04       		.byte	0x4
 3570 0419 DB000000 		.4byte	0xdb
 3571 041d 0C       		.uleb128 0xc
 3572 041e 62C50000 		.4byte	.LASF1726
 3573 0422 01       		.byte	0x1
 3574 0423 6B01     		.2byte	0x16b
 3575 0425 06       		.byte	0x6
 3576 0426 00000000 		.4byte	.LFB93
 3577 042a 10010000 		.4byte	.LFE93-.LFB93
 3578 042e 01       		.uleb128 0x1
 3579 042f 9C       		.byte	0x9c
 3580 0430 74040000 		.4byte	0x474
 3581 0434 0D       		.uleb128 0xd
 3582 0435 6F757400 		.ascii	"out\000"
 3583 0439 01       		.byte	0x1
 3584 043a 6B01     		.2byte	0x16b
 3585 043c 26       		.byte	0x26
 3586 043d 5A030000 		.4byte	0x35a
 3587 0441 02       		.uleb128 0x2
 3588 0442 91       		.byte	0x91
 3589 0443 44       		.sleb128 -60
 3590 0444 0D       		.uleb128 0xd
ARM GAS  /tmp/ccKtbbXa.s 			page 64


 3591 0445 696E00   		.ascii	"in\000"
 3592 0448 01       		.byte	0x1
 3593 0449 6B01     		.2byte	0x16b
 3594 044b 3E       		.byte	0x3e
 3595 044c 17040000 		.4byte	0x417
 3596 0450 02       		.uleb128 0x2
 3597 0451 91       		.byte	0x91
 3598 0452 40       		.sleb128 -64
 3599 0453 0E       		.uleb128 0xe
 3600 0454 B2310100 		.4byte	.LASF1724
 3601 0458 01       		.byte	0x1
 3602 0459 7901     		.2byte	0x179
 3603 045b 15       		.byte	0x15
 3604 045c 21020000 		.4byte	0x221
 3605 0460 02       		.uleb128 0x2
 3606 0461 91       		.byte	0x91
 3607 0462 60       		.sleb128 -32
 3608 0463 0E       		.uleb128 0xe
 3609 0464 9C180100 		.4byte	.LASF1725
 3610 0468 01       		.byte	0x1
 3611 0469 7C01     		.2byte	0x17c
 3612 046b 14       		.byte	0x14
 3613 046c 50020000 		.4byte	0x250
 3614 0470 02       		.uleb128 0x2
 3615 0471 91       		.byte	0x91
 3616 0472 48       		.sleb128 -56
 3617 0473 00       		.byte	0
 3618 0474 0C       		.uleb128 0xc
 3619 0475 3D380100 		.4byte	.LASF1727
 3620 0479 01       		.byte	0x1
 3621 047a 5901     		.2byte	0x159
 3622 047c 06       		.byte	0x6
 3623 047d 00000000 		.4byte	.LFB41
 3624 0481 28000000 		.4byte	.LFE41-.LFB41
 3625 0485 01       		.uleb128 0x1
 3626 0486 9C       		.byte	0x9c
 3627 0487 CC040000 		.4byte	0x4cc
 3628 048b 0D       		.uleb128 0xd
 3629 048c 6E656400 		.ascii	"ned\000"
 3630 0490 01       		.byte	0x1
 3631 0491 5901     		.2byte	0x159
 3632 0493 2A       		.byte	0x2a
 3633 0494 CC040000 		.4byte	0x4cc
 3634 0498 02       		.uleb128 0x2
 3635 0499 91       		.byte	0x91
 3636 049a 64       		.sleb128 -28
 3637 049b 0D       		.uleb128 0xd
 3638 049c 64656600 		.ascii	"def\000"
 3639 04a0 01       		.byte	0x1
 3640 04a1 5901     		.2byte	0x159
 3641 04a3 40       		.byte	0x40
 3642 04a4 D2040000 		.4byte	0x4d2
 3643 04a8 02       		.uleb128 0x2
 3644 04a9 91       		.byte	0x91
 3645 04aa 60       		.sleb128 -32
 3646 04ab 0D       		.uleb128 0xd
 3647 04ac 6C6C6100 		.ascii	"lla\000"
ARM GAS  /tmp/ccKtbbXa.s 			page 65


 3648 04b0 01       		.byte	0x1
 3649 04b1 5901     		.2byte	0x159
 3650 04b3 57       		.byte	0x57
 3651 04b4 5A030000 		.4byte	0x35a
 3652 04b8 02       		.uleb128 0x2
 3653 04b9 91       		.byte	0x91
 3654 04ba 5C       		.sleb128 -36
 3655 04bb 0E       		.uleb128 0xe
 3656 04bc F6430000 		.4byte	.LASF1711
 3657 04c0 01       		.byte	0x1
 3658 04c1 5B01     		.2byte	0x15b
 3659 04c3 15       		.byte	0x15
 3660 04c4 DB000000 		.4byte	0xdb
 3661 04c8 02       		.uleb128 0x2
 3662 04c9 91       		.byte	0x91
 3663 04ca 6C       		.sleb128 -20
 3664 04cb 00       		.byte	0
 3665 04cc 0F       		.uleb128 0xf
 3666 04cd 04       		.byte	0x4
 3667 04ce 3F010000 		.4byte	0x13f
 3668 04d2 0F       		.uleb128 0xf
 3669 04d3 04       		.byte	0x4
 3670 04d4 DF010000 		.4byte	0x1df
 3671 04d8 0C       		.uleb128 0xc
 3672 04d9 741A0000 		.4byte	.LASF1728
 3673 04dd 01       		.byte	0x1
 3674 04de 5201     		.2byte	0x152
 3675 04e0 06       		.byte	0x6
 3676 04e1 00000000 		.4byte	.LFB40
 3677 04e5 28000000 		.4byte	.LFE40-.LFB40
 3678 04e9 01       		.uleb128 0x1
 3679 04ea 9C       		.byte	0x9c
 3680 04eb 30050000 		.4byte	0x530
 3681 04ef 0D       		.uleb128 0xd
 3682 04f0 656E7500 		.ascii	"enu\000"
 3683 04f4 01       		.byte	0x1
 3684 04f5 5201     		.2byte	0x152
 3685 04f7 2A       		.byte	0x2a
 3686 04f8 30050000 		.4byte	0x530
 3687 04fc 02       		.uleb128 0x2
 3688 04fd 91       		.byte	0x91
 3689 04fe 64       		.sleb128 -28
 3690 04ff 0D       		.uleb128 0xd
 3691 0500 64656600 		.ascii	"def\000"
 3692 0504 01       		.byte	0x1
 3693 0505 5201     		.2byte	0x152
 3694 0507 40       		.byte	0x40
 3695 0508 D2040000 		.4byte	0x4d2
 3696 050c 02       		.uleb128 0x2
 3697 050d 91       		.byte	0x91
 3698 050e 60       		.sleb128 -32
 3699 050f 0D       		.uleb128 0xd
 3700 0510 6C6C6100 		.ascii	"lla\000"
 3701 0514 01       		.byte	0x1
 3702 0515 5201     		.2byte	0x152
 3703 0517 57       		.byte	0x57
 3704 0518 5A030000 		.4byte	0x35a
ARM GAS  /tmp/ccKtbbXa.s 			page 66


 3705 051c 02       		.uleb128 0x2
 3706 051d 91       		.byte	0x91
 3707 051e 5C       		.sleb128 -36
 3708 051f 0E       		.uleb128 0xe
 3709 0520 F6430000 		.4byte	.LASF1711
 3710 0524 01       		.byte	0x1
 3711 0525 5401     		.2byte	0x154
 3712 0527 15       		.byte	0x15
 3713 0528 DB000000 		.4byte	0xdb
 3714 052c 02       		.uleb128 0x2
 3715 052d 91       		.byte	0x91
 3716 052e 6C       		.sleb128 -20
 3717 052f 00       		.byte	0
 3718 0530 0F       		.uleb128 0xf
 3719 0531 04       		.byte	0x4
 3720 0532 6E010000 		.4byte	0x16e
 3721 0536 0C       		.uleb128 0xc
 3722 0537 90150000 		.4byte	.LASF1729
 3723 053b 01       		.byte	0x1
 3724 053c 4B01     		.2byte	0x14b
 3725 053e 06       		.byte	0x6
 3726 053f 00000000 		.4byte	.LFB39
 3727 0543 28000000 		.4byte	.LFE39-.LFB39
 3728 0547 01       		.uleb128 0x1
 3729 0548 9C       		.byte	0x9c
 3730 0549 8E050000 		.4byte	0x58e
 3731 054d 0D       		.uleb128 0xd
 3732 054e 6E656400 		.ascii	"ned\000"
 3733 0552 01       		.byte	0x1
 3734 0553 4B01     		.2byte	0x14b
 3735 0555 29       		.byte	0x29
 3736 0556 CC040000 		.4byte	0x4cc
 3737 055a 02       		.uleb128 0x2
 3738 055b 91       		.byte	0x91
 3739 055c 64       		.sleb128 -28
 3740 055d 0D       		.uleb128 0xd
 3741 055e 64656600 		.ascii	"def\000"
 3742 0562 01       		.byte	0x1
 3743 0563 4B01     		.2byte	0x14b
 3744 0565 3F       		.byte	0x3f
 3745 0566 D2040000 		.4byte	0x4d2
 3746 056a 02       		.uleb128 0x2
 3747 056b 91       		.byte	0x91
 3748 056c 60       		.sleb128 -32
 3749 056d 0D       		.uleb128 0xd
 3750 056e 6C6C6100 		.ascii	"lla\000"
 3751 0572 01       		.byte	0x1
 3752 0573 4B01     		.2byte	0x14b
 3753 0575 56       		.byte	0x56
 3754 0576 5A030000 		.4byte	0x35a
 3755 057a 02       		.uleb128 0x2
 3756 057b 91       		.byte	0x91
 3757 057c 5C       		.sleb128 -36
 3758 057d 0E       		.uleb128 0xe
 3759 057e F6430000 		.4byte	.LASF1711
 3760 0582 01       		.byte	0x1
 3761 0583 4D01     		.2byte	0x14d
ARM GAS  /tmp/ccKtbbXa.s 			page 67


 3762 0585 15       		.byte	0x15
 3763 0586 DB000000 		.4byte	0xdb
 3764 058a 02       		.uleb128 0x2
 3765 058b 91       		.byte	0x91
 3766 058c 6C       		.sleb128 -20
 3767 058d 00       		.byte	0
 3768 058e 0C       		.uleb128 0xc
 3769 058f 93260000 		.4byte	.LASF1730
 3770 0593 01       		.byte	0x1
 3771 0594 3F01     		.2byte	0x13f
 3772 0596 06       		.byte	0x6
 3773 0597 00000000 		.4byte	.LFB38
 3774 059b 28000000 		.4byte	.LFE38-.LFB38
 3775 059f 01       		.uleb128 0x1
 3776 05a0 9C       		.byte	0x9c
 3777 05a1 E6050000 		.4byte	0x5e6
 3778 05a5 0D       		.uleb128 0xd
 3779 05a6 656E7500 		.ascii	"enu\000"
 3780 05aa 01       		.byte	0x1
 3781 05ab 3F01     		.2byte	0x13f
 3782 05ad 29       		.byte	0x29
 3783 05ae 30050000 		.4byte	0x530
 3784 05b2 02       		.uleb128 0x2
 3785 05b3 91       		.byte	0x91
 3786 05b4 64       		.sleb128 -28
 3787 05b5 0D       		.uleb128 0xd
 3788 05b6 64656600 		.ascii	"def\000"
 3789 05ba 01       		.byte	0x1
 3790 05bb 3F01     		.2byte	0x13f
 3791 05bd 3F       		.byte	0x3f
 3792 05be D2040000 		.4byte	0x4d2
 3793 05c2 02       		.uleb128 0x2
 3794 05c3 91       		.byte	0x91
 3795 05c4 60       		.sleb128 -32
 3796 05c5 0D       		.uleb128 0xd
 3797 05c6 6C6C6100 		.ascii	"lla\000"
 3798 05ca 01       		.byte	0x1
 3799 05cb 3F01     		.2byte	0x13f
 3800 05cd 56       		.byte	0x56
 3801 05ce 5A030000 		.4byte	0x35a
 3802 05d2 02       		.uleb128 0x2
 3803 05d3 91       		.byte	0x91
 3804 05d4 5C       		.sleb128 -36
 3805 05d5 0E       		.uleb128 0xe
 3806 05d6 F6430000 		.4byte	.LASF1711
 3807 05da 01       		.byte	0x1
 3808 05db 4101     		.2byte	0x141
 3809 05dd 15       		.byte	0x15
 3810 05de DB000000 		.4byte	0xdb
 3811 05e2 02       		.uleb128 0x2
 3812 05e3 91       		.byte	0x91
 3813 05e4 6C       		.sleb128 -20
 3814 05e5 00       		.byte	0
 3815 05e6 0C       		.uleb128 0xc
 3816 05e7 43EB0000 		.4byte	.LASF1731
 3817 05eb 01       		.byte	0x1
 3818 05ec 3301     		.2byte	0x133
ARM GAS  /tmp/ccKtbbXa.s 			page 68


 3819 05ee 06       		.byte	0x6
 3820 05ef 00000000 		.4byte	.LFB37
 3821 05f3 28000000 		.4byte	.LFE37-.LFB37
 3822 05f7 01       		.uleb128 0x1
 3823 05f8 9C       		.byte	0x9c
 3824 05f9 3E060000 		.4byte	0x63e
 3825 05fd 0D       		.uleb128 0xd
 3826 05fe 6E656400 		.ascii	"ned\000"
 3827 0602 01       		.byte	0x1
 3828 0603 3301     		.2byte	0x133
 3829 0605 2B       		.byte	0x2b
 3830 0606 CC040000 		.4byte	0x4cc
 3831 060a 02       		.uleb128 0x2
 3832 060b 91       		.byte	0x91
 3833 060c 64       		.sleb128 -28
 3834 060d 0D       		.uleb128 0xd
 3835 060e 64656600 		.ascii	"def\000"
 3836 0612 01       		.byte	0x1
 3837 0613 3301     		.2byte	0x133
 3838 0615 41       		.byte	0x41
 3839 0616 D2040000 		.4byte	0x4d2
 3840 061a 02       		.uleb128 0x2
 3841 061b 91       		.byte	0x91
 3842 061c 60       		.sleb128 -32
 3843 061d 0D       		.uleb128 0xd
 3844 061e 6C6C6100 		.ascii	"lla\000"
 3845 0622 01       		.byte	0x1
 3846 0623 3301     		.2byte	0x133
 3847 0625 58       		.byte	0x58
 3848 0626 5A030000 		.4byte	0x35a
 3849 062a 02       		.uleb128 0x2
 3850 062b 91       		.byte	0x91
 3851 062c 5C       		.sleb128 -36
 3852 062d 0E       		.uleb128 0xe
 3853 062e F6430000 		.4byte	.LASF1711
 3854 0632 01       		.byte	0x1
 3855 0633 3501     		.2byte	0x135
 3856 0635 15       		.byte	0x15
 3857 0636 DB000000 		.4byte	0xdb
 3858 063a 02       		.uleb128 0x2
 3859 063b 91       		.byte	0x91
 3860 063c 6C       		.sleb128 -20
 3861 063d 00       		.byte	0
 3862 063e 0C       		.uleb128 0xc
 3863 063f AFA20000 		.4byte	.LASF1732
 3864 0643 01       		.byte	0x1
 3865 0644 2701     		.2byte	0x127
 3866 0646 06       		.byte	0x6
 3867 0647 00000000 		.4byte	.LFB36
 3868 064b 28000000 		.4byte	.LFE36-.LFB36
 3869 064f 01       		.uleb128 0x1
 3870 0650 9C       		.byte	0x9c
 3871 0651 96060000 		.4byte	0x696
 3872 0655 0D       		.uleb128 0xd
 3873 0656 656E7500 		.ascii	"enu\000"
 3874 065a 01       		.byte	0x1
 3875 065b 2701     		.2byte	0x127
ARM GAS  /tmp/ccKtbbXa.s 			page 69


 3876 065d 2B       		.byte	0x2b
 3877 065e 30050000 		.4byte	0x530
 3878 0662 02       		.uleb128 0x2
 3879 0663 91       		.byte	0x91
 3880 0664 64       		.sleb128 -28
 3881 0665 0D       		.uleb128 0xd
 3882 0666 64656600 		.ascii	"def\000"
 3883 066a 01       		.byte	0x1
 3884 066b 2701     		.2byte	0x127
 3885 066d 41       		.byte	0x41
 3886 066e D2040000 		.4byte	0x4d2
 3887 0672 02       		.uleb128 0x2
 3888 0673 91       		.byte	0x91
 3889 0674 60       		.sleb128 -32
 3890 0675 0D       		.uleb128 0xd
 3891 0676 6C6C6100 		.ascii	"lla\000"
 3892 067a 01       		.byte	0x1
 3893 067b 2701     		.2byte	0x127
 3894 067d 58       		.byte	0x58
 3895 067e 5A030000 		.4byte	0x35a
 3896 0682 02       		.uleb128 0x2
 3897 0683 91       		.byte	0x91
 3898 0684 5C       		.sleb128 -36
 3899 0685 0E       		.uleb128 0xe
 3900 0686 F6430000 		.4byte	.LASF1711
 3901 068a 01       		.byte	0x1
 3902 068b 2901     		.2byte	0x129
 3903 068d 15       		.byte	0x15
 3904 068e DB000000 		.4byte	0xdb
 3905 0692 02       		.uleb128 0x2
 3906 0693 91       		.byte	0x91
 3907 0694 6C       		.sleb128 -20
 3908 0695 00       		.byte	0
 3909 0696 0C       		.uleb128 0xc
 3910 0697 A7FA0000 		.4byte	.LASF1733
 3911 069b 01       		.byte	0x1
 3912 069c 1B01     		.2byte	0x11b
 3913 069e 06       		.byte	0x6
 3914 069f 00000000 		.4byte	.LFB35
 3915 06a3 32000000 		.4byte	.LFE35-.LFB35
 3916 06a7 01       		.uleb128 0x1
 3917 06a8 9C       		.byte	0x9c
 3918 06a9 EE060000 		.4byte	0x6ee
 3919 06ad 10       		.uleb128 0x10
 3920 06ae F6430000 		.4byte	.LASF1711
 3921 06b2 01       		.byte	0x1
 3922 06b3 1B01     		.2byte	0x11b
 3923 06b5 2B       		.byte	0x2b
 3924 06b6 17040000 		.4byte	0x417
 3925 06ba 02       		.uleb128 0x2
 3926 06bb 91       		.byte	0x91
 3927 06bc 64       		.sleb128 -28
 3928 06bd 0D       		.uleb128 0xd
 3929 06be 64656600 		.ascii	"def\000"
 3930 06c2 01       		.byte	0x1
 3931 06c3 1B01     		.2byte	0x11b
 3932 06c5 42       		.byte	0x42
ARM GAS  /tmp/ccKtbbXa.s 			page 70


 3933 06c6 D2040000 		.4byte	0x4d2
 3934 06ca 02       		.uleb128 0x2
 3935 06cb 91       		.byte	0x91
 3936 06cc 60       		.sleb128 -32
 3937 06cd 0D       		.uleb128 0xd
 3938 06ce 6E656400 		.ascii	"ned\000"
 3939 06d2 01       		.byte	0x1
 3940 06d3 1B01     		.2byte	0x11b
 3941 06d5 59       		.byte	0x59
 3942 06d6 CC040000 		.4byte	0x4cc
 3943 06da 02       		.uleb128 0x2
 3944 06db 91       		.byte	0x91
 3945 06dc 5C       		.sleb128 -36
 3946 06dd 11       		.uleb128 0x11
 3947 06de 656E7500 		.ascii	"enu\000"
 3948 06e2 01       		.byte	0x1
 3949 06e3 1D01     		.2byte	0x11d
 3950 06e5 14       		.byte	0x14
 3951 06e6 6E010000 		.4byte	0x16e
 3952 06ea 02       		.uleb128 0x2
 3953 06eb 91       		.byte	0x91
 3954 06ec 6C       		.sleb128 -20
 3955 06ed 00       		.byte	0
 3956 06ee 0C       		.uleb128 0xc
 3957 06ef A28B0000 		.4byte	.LASF1734
 3958 06f3 01       		.byte	0x1
 3959 06f4 0701     		.2byte	0x107
 3960 06f6 06       		.byte	0x6
 3961 06f7 00000000 		.4byte	.LFB34
 3962 06fb 8A000000 		.4byte	.LFE34-.LFB34
 3963 06ff 01       		.uleb128 0x1
 3964 0700 9C       		.byte	0x9c
 3965 0701 46070000 		.4byte	0x746
 3966 0705 10       		.uleb128 0x10
 3967 0706 F6430000 		.4byte	.LASF1711
 3968 070a 01       		.byte	0x1
 3969 070b 0701     		.2byte	0x107
 3970 070d 2B       		.byte	0x2b
 3971 070e 17040000 		.4byte	0x417
 3972 0712 02       		.uleb128 0x2
 3973 0713 91       		.byte	0x91
 3974 0714 64       		.sleb128 -28
 3975 0715 0D       		.uleb128 0xd
 3976 0716 64656600 		.ascii	"def\000"
 3977 071a 01       		.byte	0x1
 3978 071b 0701     		.2byte	0x107
 3979 071d 42       		.byte	0x42
 3980 071e D2040000 		.4byte	0x4d2
 3981 0722 02       		.uleb128 0x2
 3982 0723 91       		.byte	0x91
 3983 0724 60       		.sleb128 -32
 3984 0725 0D       		.uleb128 0xd
 3985 0726 656E7500 		.ascii	"enu\000"
 3986 072a 01       		.byte	0x1
 3987 072b 0701     		.2byte	0x107
 3988 072d 59       		.byte	0x59
 3989 072e 30050000 		.4byte	0x530
ARM GAS  /tmp/ccKtbbXa.s 			page 71


 3990 0732 02       		.uleb128 0x2
 3991 0733 91       		.byte	0x91
 3992 0734 5C       		.sleb128 -36
 3993 0735 0E       		.uleb128 0xe
 3994 0736 E7D80000 		.4byte	.LASF1735
 3995 073a 01       		.byte	0x1
 3996 073b 0E01     		.2byte	0x10e
 3997 073d 14       		.byte	0x14
 3998 073e 6E010000 		.4byte	0x16e
 3999 0742 02       		.uleb128 0x2
 4000 0743 91       		.byte	0x91
 4001 0744 6C       		.sleb128 -20
 4002 0745 00       		.byte	0
 4003 0746 12       		.uleb128 0x12
 4004 0747 A1690000 		.4byte	.LASF1736
 4005 074b 01       		.byte	0x1
 4006 074c FA       		.byte	0xfa
 4007 074d 06       		.byte	0x6
 4008 074e 00000000 		.4byte	.LFB33
 4009 0752 32000000 		.4byte	.LFE33-.LFB33
 4010 0756 01       		.uleb128 0x1
 4011 0757 9C       		.byte	0x9c
 4012 0758 99070000 		.4byte	0x799
 4013 075c 13       		.uleb128 0x13
 4014 075d F6430000 		.4byte	.LASF1711
 4015 0761 01       		.byte	0x1
 4016 0762 FA       		.byte	0xfa
 4017 0763 2D       		.byte	0x2d
 4018 0764 17040000 		.4byte	0x417
 4019 0768 02       		.uleb128 0x2
 4020 0769 91       		.byte	0x91
 4021 076a 64       		.sleb128 -28
 4022 076b 14       		.uleb128 0x14
 4023 076c 64656600 		.ascii	"def\000"
 4024 0770 01       		.byte	0x1
 4025 0771 FA       		.byte	0xfa
 4026 0772 44       		.byte	0x44
 4027 0773 D2040000 		.4byte	0x4d2
 4028 0777 02       		.uleb128 0x2
 4029 0778 91       		.byte	0x91
 4030 0779 60       		.sleb128 -32
 4031 077a 14       		.uleb128 0x14
 4032 077b 6E656400 		.ascii	"ned\000"
 4033 077f 01       		.byte	0x1
 4034 0780 FA       		.byte	0xfa
 4035 0781 5B       		.byte	0x5b
 4036 0782 CC040000 		.4byte	0x4cc
 4037 0786 02       		.uleb128 0x2
 4038 0787 91       		.byte	0x91
 4039 0788 5C       		.sleb128 -36
 4040 0789 15       		.uleb128 0x15
 4041 078a 656E7500 		.ascii	"enu\000"
 4042 078e 01       		.byte	0x1
 4043 078f FC       		.byte	0xfc
 4044 0790 14       		.byte	0x14
 4045 0791 6E010000 		.4byte	0x16e
 4046 0795 02       		.uleb128 0x2
ARM GAS  /tmp/ccKtbbXa.s 			page 72


 4047 0796 91       		.byte	0x91
 4048 0797 6C       		.sleb128 -20
 4049 0798 00       		.byte	0
 4050 0799 12       		.uleb128 0x12
 4051 079a 4D590000 		.4byte	.LASF1737
 4052 079e 01       		.byte	0x1
 4053 079f EE       		.byte	0xee
 4054 07a0 06       		.byte	0x6
 4055 07a1 00000000 		.4byte	.LFB32
 4056 07a5 46000000 		.4byte	.LFE32-.LFB32
 4057 07a9 01       		.uleb128 0x1
 4058 07aa 9C       		.byte	0x9c
 4059 07ab DD070000 		.4byte	0x7dd
 4060 07af 13       		.uleb128 0x13
 4061 07b0 F6430000 		.4byte	.LASF1711
 4062 07b4 01       		.byte	0x1
 4063 07b5 EE       		.byte	0xee
 4064 07b6 2D       		.byte	0x2d
 4065 07b7 17040000 		.4byte	0x417
 4066 07bb 02       		.uleb128 0x2
 4067 07bc 91       		.byte	0x91
 4068 07bd 74       		.sleb128 -12
 4069 07be 14       		.uleb128 0x14
 4070 07bf 64656600 		.ascii	"def\000"
 4071 07c3 01       		.byte	0x1
 4072 07c4 EE       		.byte	0xee
 4073 07c5 44       		.byte	0x44
 4074 07c6 D2040000 		.4byte	0x4d2
 4075 07ca 02       		.uleb128 0x2
 4076 07cb 91       		.byte	0x91
 4077 07cc 70       		.sleb128 -16
 4078 07cd 14       		.uleb128 0x14
 4079 07ce 656E7500 		.ascii	"enu\000"
 4080 07d2 01       		.byte	0x1
 4081 07d3 EE       		.byte	0xee
 4082 07d4 5B       		.byte	0x5b
 4083 07d5 30050000 		.4byte	0x530
 4084 07d9 02       		.uleb128 0x2
 4085 07da 91       		.byte	0x91
 4086 07db 6C       		.sleb128 -20
 4087 07dc 00       		.byte	0
 4088 07dd 12       		.uleb128 0x12
 4089 07de EB2F0000 		.4byte	.LASF1738
 4090 07e2 01       		.byte	0x1
 4091 07e3 E1       		.byte	0xe1
 4092 07e4 06       		.byte	0x6
 4093 07e5 00000000 		.4byte	.LFB31
 4094 07e9 32000000 		.4byte	.LFE31-.LFB31
 4095 07ed 01       		.uleb128 0x1
 4096 07ee 9C       		.byte	0x9c
 4097 07ef 30080000 		.4byte	0x830
 4098 07f3 13       		.uleb128 0x13
 4099 07f4 F6430000 		.4byte	.LASF1711
 4100 07f8 01       		.byte	0x1
 4101 07f9 E1       		.byte	0xe1
 4102 07fa 2C       		.byte	0x2c
 4103 07fb 17040000 		.4byte	0x417
ARM GAS  /tmp/ccKtbbXa.s 			page 73


 4104 07ff 02       		.uleb128 0x2
 4105 0800 91       		.byte	0x91
 4106 0801 64       		.sleb128 -28
 4107 0802 14       		.uleb128 0x14
 4108 0803 64656600 		.ascii	"def\000"
 4109 0807 01       		.byte	0x1
 4110 0808 E1       		.byte	0xe1
 4111 0809 43       		.byte	0x43
 4112 080a D2040000 		.4byte	0x4d2
 4113 080e 02       		.uleb128 0x2
 4114 080f 91       		.byte	0x91
 4115 0810 60       		.sleb128 -32
 4116 0811 14       		.uleb128 0x14
 4117 0812 6E656400 		.ascii	"ned\000"
 4118 0816 01       		.byte	0x1
 4119 0817 E1       		.byte	0xe1
 4120 0818 5A       		.byte	0x5a
 4121 0819 CC040000 		.4byte	0x4cc
 4122 081d 02       		.uleb128 0x2
 4123 081e 91       		.byte	0x91
 4124 081f 5C       		.sleb128 -36
 4125 0820 15       		.uleb128 0x15
 4126 0821 656E7500 		.ascii	"enu\000"
 4127 0825 01       		.byte	0x1
 4128 0826 E3       		.byte	0xe3
 4129 0827 14       		.byte	0x14
 4130 0828 6E010000 		.4byte	0x16e
 4131 082c 02       		.uleb128 0x2
 4132 082d 91       		.byte	0x91
 4133 082e 6C       		.sleb128 -20
 4134 082f 00       		.byte	0
 4135 0830 16       		.uleb128 0x16
 4136 0831 87490000 		.4byte	.LASF1739
 4137 0835 01       		.byte	0x1
 4138 0836 C7       		.byte	0xc7
 4139 0837 06       		.byte	0x6
 4140 0838 00000000 		.4byte	.LFB30
 4141 083c DA020000 		.4byte	.LFE30-.LFB30
 4142 0840 01       		.uleb128 0x1
 4143 0841 9C       		.byte	0x9c
 4144 0842 A2080000 		.4byte	0x8a2
 4145 0846 13       		.uleb128 0x13
 4146 0847 F6430000 		.4byte	.LASF1711
 4147 084b 01       		.byte	0x1
 4148 084c C7       		.byte	0xc7
 4149 084d 2C       		.byte	0x2c
 4150 084e 17040000 		.4byte	0x417
 4151 0852 02       		.uleb128 0x2
 4152 0853 91       		.byte	0x91
 4153 0854 44       		.sleb128 -60
 4154 0855 14       		.uleb128 0x14
 4155 0856 64656600 		.ascii	"def\000"
 4156 085a 01       		.byte	0x1
 4157 085b C7       		.byte	0xc7
 4158 085c 43       		.byte	0x43
 4159 085d D2040000 		.4byte	0x4d2
 4160 0861 02       		.uleb128 0x2
ARM GAS  /tmp/ccKtbbXa.s 			page 74


 4161 0862 91       		.byte	0x91
 4162 0863 40       		.sleb128 -64
 4163 0864 14       		.uleb128 0x14
 4164 0865 656E7500 		.ascii	"enu\000"
 4165 0869 01       		.byte	0x1
 4166 086a C7       		.byte	0xc7
 4167 086b 5A       		.byte	0x5a
 4168 086c 30050000 		.4byte	0x530
 4169 0870 03       		.uleb128 0x3
 4170 0871 91       		.byte	0x91
 4171 0872 BC7F     		.sleb128 -68
 4172 0874 0B       		.uleb128 0xb
 4173 0875 5E120000 		.4byte	.LASF1740
 4174 0879 01       		.byte	0x1
 4175 087a CA       		.byte	0xca
 4176 087b 11       		.byte	0x11
 4177 087c 56000000 		.4byte	0x56
 4178 0880 02       		.uleb128 0x2
 4179 0881 91       		.byte	0x91
 4180 0882 58       		.sleb128 -40
 4181 0883 0B       		.uleb128 0xb
 4182 0884 213E0000 		.4byte	.LASF1741
 4183 0888 01       		.byte	0x1
 4184 0889 CF       		.byte	0xcf
 4185 088a 11       		.byte	0x11
 4186 088b 56000000 		.4byte	0x56
 4187 088f 02       		.uleb128 0x2
 4188 0890 91       		.byte	0x91
 4189 0891 50       		.sleb128 -48
 4190 0892 0B       		.uleb128 0xb
 4191 0893 263E0000 		.4byte	.LASF1742
 4192 0897 01       		.byte	0x1
 4193 0898 D5       		.byte	0xd5
 4194 0899 11       		.byte	0x11
 4195 089a 56000000 		.4byte	0x56
 4196 089e 02       		.uleb128 0x2
 4197 089f 91       		.byte	0x91
 4198 08a0 48       		.sleb128 -56
 4199 08a1 00       		.byte	0
 4200 08a2 12       		.uleb128 0x12
 4201 08a3 D3600000 		.4byte	.LASF1743
 4202 08a7 01       		.byte	0x1
 4203 08a8 BA       		.byte	0xba
 4204 08a9 06       		.byte	0x6
 4205 08aa 00000000 		.4byte	.LFB29
 4206 08ae 32000000 		.4byte	.LFE29-.LFB29
 4207 08b2 01       		.uleb128 0x1
 4208 08b3 9C       		.byte	0x9c
 4209 08b4 F5080000 		.4byte	0x8f5
 4210 08b8 14       		.uleb128 0x14
 4211 08b9 6E656400 		.ascii	"ned\000"
 4212 08bd 01       		.byte	0x1
 4213 08be BA       		.byte	0xba
 4214 08bf 2B       		.byte	0x2b
 4215 08c0 CC040000 		.4byte	0x4cc
 4216 08c4 02       		.uleb128 0x2
 4217 08c5 91       		.byte	0x91
ARM GAS  /tmp/ccKtbbXa.s 			page 75


 4218 08c6 64       		.sleb128 -28
 4219 08c7 14       		.uleb128 0x14
 4220 08c8 64656600 		.ascii	"def\000"
 4221 08cc 01       		.byte	0x1
 4222 08cd BA       		.byte	0xba
 4223 08ce 41       		.byte	0x41
 4224 08cf D2040000 		.4byte	0x4d2
 4225 08d3 02       		.uleb128 0x2
 4226 08d4 91       		.byte	0x91
 4227 08d5 60       		.sleb128 -32
 4228 08d6 13       		.uleb128 0x13
 4229 08d7 F6430000 		.4byte	.LASF1711
 4230 08db 01       		.byte	0x1
 4231 08dc BA       		.byte	0xba
 4232 08dd 59       		.byte	0x59
 4233 08de 17040000 		.4byte	0x417
 4234 08e2 02       		.uleb128 0x2
 4235 08e3 91       		.byte	0x91
 4236 08e4 5C       		.sleb128 -36
 4237 08e5 15       		.uleb128 0x15
 4238 08e6 656E7500 		.ascii	"enu\000"
 4239 08ea 01       		.byte	0x1
 4240 08eb BC       		.byte	0xbc
 4241 08ec 14       		.byte	0x14
 4242 08ed 6E010000 		.4byte	0x16e
 4243 08f1 02       		.uleb128 0x2
 4244 08f2 91       		.byte	0x91
 4245 08f3 6C       		.sleb128 -20
 4246 08f4 00       		.byte	0
 4247 08f5 16       		.uleb128 0x16
 4248 08f6 BF2E0000 		.4byte	.LASF1744
 4249 08fa 01       		.byte	0x1
 4250 08fb A2       		.byte	0xa2
 4251 08fc 06       		.byte	0x6
 4252 08fd 00000000 		.4byte	.LFB28
 4253 0901 DA020000 		.4byte	.LFE28-.LFB28
 4254 0905 01       		.uleb128 0x1
 4255 0906 9C       		.byte	0x9c
 4256 0907 67090000 		.4byte	0x967
 4257 090b 14       		.uleb128 0x14
 4258 090c 656E7500 		.ascii	"enu\000"
 4259 0910 01       		.byte	0x1
 4260 0911 A2       		.byte	0xa2
 4261 0912 2B       		.byte	0x2b
 4262 0913 30050000 		.4byte	0x530
 4263 0917 02       		.uleb128 0x2
 4264 0918 91       		.byte	0x91
 4265 0919 44       		.sleb128 -60
 4266 091a 14       		.uleb128 0x14
 4267 091b 64656600 		.ascii	"def\000"
 4268 091f 01       		.byte	0x1
 4269 0920 A2       		.byte	0xa2
 4270 0921 41       		.byte	0x41
 4271 0922 D2040000 		.4byte	0x4d2
 4272 0926 02       		.uleb128 0x2
 4273 0927 91       		.byte	0x91
 4274 0928 40       		.sleb128 -64
ARM GAS  /tmp/ccKtbbXa.s 			page 76


 4275 0929 13       		.uleb128 0x13
 4276 092a F6430000 		.4byte	.LASF1711
 4277 092e 01       		.byte	0x1
 4278 092f A2       		.byte	0xa2
 4279 0930 59       		.byte	0x59
 4280 0931 17040000 		.4byte	0x417
 4281 0935 03       		.uleb128 0x3
 4282 0936 91       		.byte	0x91
 4283 0937 BC7F     		.sleb128 -68
 4284 0939 0B       		.uleb128 0xb
 4285 093a 5E120000 		.4byte	.LASF1740
 4286 093e 01       		.byte	0x1
 4287 093f A5       		.byte	0xa5
 4288 0940 11       		.byte	0x11
 4289 0941 56000000 		.4byte	0x56
 4290 0945 02       		.uleb128 0x2
 4291 0946 91       		.byte	0x91
 4292 0947 58       		.sleb128 -40
 4293 0948 0B       		.uleb128 0xb
 4294 0949 213E0000 		.4byte	.LASF1741
 4295 094d 01       		.byte	0x1
 4296 094e A9       		.byte	0xa9
 4297 094f 11       		.byte	0x11
 4298 0950 56000000 		.4byte	0x56
 4299 0954 02       		.uleb128 0x2
 4300 0955 91       		.byte	0x91
 4301 0956 50       		.sleb128 -48
 4302 0957 0B       		.uleb128 0xb
 4303 0958 263E0000 		.4byte	.LASF1742
 4304 095c 01       		.byte	0x1
 4305 095d AD       		.byte	0xad
 4306 095e 11       		.byte	0x11
 4307 095f 56000000 		.4byte	0x56
 4308 0963 02       		.uleb128 0x2
 4309 0964 91       		.byte	0x91
 4310 0965 48       		.sleb128 -56
 4311 0966 00       		.byte	0
 4312 0967 12       		.uleb128 0x12
 4313 0968 C9810000 		.4byte	.LASF1745
 4314 096c 01       		.byte	0x1
 4315 096d 95       		.byte	0x95
 4316 096e 06       		.byte	0x6
 4317 096f 00000000 		.4byte	.LFB27
 4318 0973 32000000 		.4byte	.LFE27-.LFB27
 4319 0977 01       		.uleb128 0x1
 4320 0978 9C       		.byte	0x9c
 4321 0979 BA090000 		.4byte	0x9ba
 4322 097d 14       		.uleb128 0x14
 4323 097e 6E656400 		.ascii	"ned\000"
 4324 0982 01       		.byte	0x1
 4325 0983 95       		.byte	0x95
 4326 0984 2A       		.byte	0x2a
 4327 0985 CC040000 		.4byte	0x4cc
 4328 0989 02       		.uleb128 0x2
 4329 098a 91       		.byte	0x91
 4330 098b 64       		.sleb128 -28
 4331 098c 14       		.uleb128 0x14
ARM GAS  /tmp/ccKtbbXa.s 			page 77


 4332 098d 64656600 		.ascii	"def\000"
 4333 0991 01       		.byte	0x1
 4334 0992 95       		.byte	0x95
 4335 0993 40       		.byte	0x40
 4336 0994 D2040000 		.4byte	0x4d2
 4337 0998 02       		.uleb128 0x2
 4338 0999 91       		.byte	0x91
 4339 099a 60       		.sleb128 -32
 4340 099b 13       		.uleb128 0x13
 4341 099c F6430000 		.4byte	.LASF1711
 4342 09a0 01       		.byte	0x1
 4343 09a1 95       		.byte	0x95
 4344 09a2 58       		.byte	0x58
 4345 09a3 17040000 		.4byte	0x417
 4346 09a7 02       		.uleb128 0x2
 4347 09a8 91       		.byte	0x91
 4348 09a9 5C       		.sleb128 -36
 4349 09aa 15       		.uleb128 0x15
 4350 09ab 656E7500 		.ascii	"enu\000"
 4351 09af 01       		.byte	0x1
 4352 09b0 97       		.byte	0x97
 4353 09b1 14       		.byte	0x14
 4354 09b2 6E010000 		.4byte	0x16e
 4355 09b6 02       		.uleb128 0x2
 4356 09b7 91       		.byte	0x91
 4357 09b8 6C       		.sleb128 -20
 4358 09b9 00       		.byte	0
 4359 09ba 12       		.uleb128 0x12
 4360 09bb C6410000 		.4byte	.LASF1746
 4361 09bf 01       		.byte	0x1
 4362 09c0 81       		.byte	0x81
 4363 09c1 06       		.byte	0x6
 4364 09c2 00000000 		.4byte	.LFB26
 4365 09c6 78000000 		.4byte	.LFE26-.LFB26
 4366 09ca 01       		.uleb128 0x1
 4367 09cb 9C       		.byte	0x9c
 4368 09cc 0D0A0000 		.4byte	0xa0d
 4369 09d0 14       		.uleb128 0x14
 4370 09d1 656E7500 		.ascii	"enu\000"
 4371 09d5 01       		.byte	0x1
 4372 09d6 81       		.byte	0x81
 4373 09d7 2A       		.byte	0x2a
 4374 09d8 30050000 		.4byte	0x530
 4375 09dc 02       		.uleb128 0x2
 4376 09dd 91       		.byte	0x91
 4377 09de 64       		.sleb128 -28
 4378 09df 14       		.uleb128 0x14
 4379 09e0 64656600 		.ascii	"def\000"
 4380 09e4 01       		.byte	0x1
 4381 09e5 81       		.byte	0x81
 4382 09e6 40       		.byte	0x40
 4383 09e7 D2040000 		.4byte	0x4d2
 4384 09eb 02       		.uleb128 0x2
 4385 09ec 91       		.byte	0x91
 4386 09ed 60       		.sleb128 -32
 4387 09ee 13       		.uleb128 0x13
 4388 09ef F6430000 		.4byte	.LASF1711
ARM GAS  /tmp/ccKtbbXa.s 			page 78


 4389 09f3 01       		.byte	0x1
 4390 09f4 81       		.byte	0x81
 4391 09f5 58       		.byte	0x58
 4392 09f6 17040000 		.4byte	0x417
 4393 09fa 02       		.uleb128 0x2
 4394 09fb 91       		.byte	0x91
 4395 09fc 5C       		.sleb128 -36
 4396 09fd 0B       		.uleb128 0xb
 4397 09fe E7D80000 		.4byte	.LASF1735
 4398 0a02 01       		.byte	0x1
 4399 0a03 83       		.byte	0x83
 4400 0a04 14       		.byte	0x14
 4401 0a05 6E010000 		.4byte	0x16e
 4402 0a09 02       		.uleb128 0x2
 4403 0a0a 91       		.byte	0x91
 4404 0a0b 6C       		.sleb128 -20
 4405 0a0c 00       		.byte	0
 4406 0a0d 12       		.uleb128 0x12
 4407 0a0e EA590000 		.4byte	.LASF1747
 4408 0a12 01       		.byte	0x1
 4409 0a13 74       		.byte	0x74
 4410 0a14 06       		.byte	0x6
 4411 0a15 00000000 		.4byte	.LFB25
 4412 0a19 32000000 		.4byte	.LFE25-.LFB25
 4413 0a1d 01       		.uleb128 0x1
 4414 0a1e 9C       		.byte	0x9c
 4415 0a1f 600A0000 		.4byte	0xa60
 4416 0a23 14       		.uleb128 0x14
 4417 0a24 6E656400 		.ascii	"ned\000"
 4418 0a28 01       		.byte	0x1
 4419 0a29 74       		.byte	0x74
 4420 0a2a 2C       		.byte	0x2c
 4421 0a2b CC040000 		.4byte	0x4cc
 4422 0a2f 02       		.uleb128 0x2
 4423 0a30 91       		.byte	0x91
 4424 0a31 64       		.sleb128 -28
 4425 0a32 14       		.uleb128 0x14
 4426 0a33 64656600 		.ascii	"def\000"
 4427 0a37 01       		.byte	0x1
 4428 0a38 74       		.byte	0x74
 4429 0a39 42       		.byte	0x42
 4430 0a3a D2040000 		.4byte	0x4d2
 4431 0a3e 02       		.uleb128 0x2
 4432 0a3f 91       		.byte	0x91
 4433 0a40 60       		.sleb128 -32
 4434 0a41 13       		.uleb128 0x13
 4435 0a42 F6430000 		.4byte	.LASF1711
 4436 0a46 01       		.byte	0x1
 4437 0a47 74       		.byte	0x74
 4438 0a48 5A       		.byte	0x5a
 4439 0a49 17040000 		.4byte	0x417
 4440 0a4d 02       		.uleb128 0x2
 4441 0a4e 91       		.byte	0x91
 4442 0a4f 5C       		.sleb128 -36
 4443 0a50 15       		.uleb128 0x15
 4444 0a51 656E7500 		.ascii	"enu\000"
 4445 0a55 01       		.byte	0x1
ARM GAS  /tmp/ccKtbbXa.s 			page 79


 4446 0a56 76       		.byte	0x76
 4447 0a57 14       		.byte	0x14
 4448 0a58 6E010000 		.4byte	0x16e
 4449 0a5c 02       		.uleb128 0x2
 4450 0a5d 91       		.byte	0x91
 4451 0a5e 6C       		.sleb128 -20
 4452 0a5f 00       		.byte	0
 4453 0a60 16       		.uleb128 0x16
 4454 0a61 3B090000 		.4byte	.LASF1748
 4455 0a65 01       		.byte	0x1
 4456 0a66 5A       		.byte	0x5a
 4457 0a67 06       		.byte	0x6
 4458 0a68 00000000 		.4byte	.LFB24
 4459 0a6c EE020000 		.4byte	.LFE24-.LFB24
 4460 0a70 01       		.uleb128 0x1
 4461 0a71 9C       		.byte	0x9c
 4462 0a72 E40A0000 		.4byte	0xae4
 4463 0a76 14       		.uleb128 0x14
 4464 0a77 656E7500 		.ascii	"enu\000"
 4465 0a7b 01       		.byte	0x1
 4466 0a7c 5A       		.byte	0x5a
 4467 0a7d 2C       		.byte	0x2c
 4468 0a7e 30050000 		.4byte	0x530
 4469 0a82 03       		.uleb128 0x3
 4470 0a83 91       		.byte	0x91
 4471 0a84 B47F     		.sleb128 -76
 4472 0a86 14       		.uleb128 0x14
 4473 0a87 64656600 		.ascii	"def\000"
 4474 0a8b 01       		.byte	0x1
 4475 0a8c 5A       		.byte	0x5a
 4476 0a8d 42       		.byte	0x42
 4477 0a8e D2040000 		.4byte	0x4d2
 4478 0a92 03       		.uleb128 0x3
 4479 0a93 91       		.byte	0x91
 4480 0a94 B07F     		.sleb128 -80
 4481 0a96 13       		.uleb128 0x13
 4482 0a97 F6430000 		.4byte	.LASF1711
 4483 0a9b 01       		.byte	0x1
 4484 0a9c 5A       		.byte	0x5a
 4485 0a9d 5A       		.byte	0x5a
 4486 0a9e 17040000 		.4byte	0x417
 4487 0aa2 03       		.uleb128 0x3
 4488 0aa3 91       		.byte	0x91
 4489 0aa4 AC7F     		.sleb128 -84
 4490 0aa6 0B       		.uleb128 0xb
 4491 0aa7 99040100 		.4byte	.LASF1749
 4492 0aab 01       		.byte	0x1
 4493 0aac 5D       		.byte	0x5d
 4494 0aad 15       		.byte	0x15
 4495 0aae DB000000 		.4byte	0xdb
 4496 0ab2 03       		.uleb128 0x3
 4497 0ab3 91       		.byte	0x91
 4498 0ab4 BC7F     		.sleb128 -68
 4499 0ab6 0B       		.uleb128 0xb
 4500 0ab7 5E120000 		.4byte	.LASF1740
 4501 0abb 01       		.byte	0x1
 4502 0abc 5F       		.byte	0x5f
ARM GAS  /tmp/ccKtbbXa.s 			page 80


 4503 0abd 11       		.byte	0x11
 4504 0abe 56000000 		.4byte	0x56
 4505 0ac2 02       		.uleb128 0x2
 4506 0ac3 91       		.byte	0x91
 4507 0ac4 58       		.sleb128 -40
 4508 0ac5 0B       		.uleb128 0xb
 4509 0ac6 213E0000 		.4byte	.LASF1741
 4510 0aca 01       		.byte	0x1
 4511 0acb 63       		.byte	0x63
 4512 0acc 11       		.byte	0x11
 4513 0acd 56000000 		.4byte	0x56
 4514 0ad1 02       		.uleb128 0x2
 4515 0ad2 91       		.byte	0x91
 4516 0ad3 50       		.sleb128 -48
 4517 0ad4 0B       		.uleb128 0xb
 4518 0ad5 263E0000 		.4byte	.LASF1742
 4519 0ad9 01       		.byte	0x1
 4520 0ada 67       		.byte	0x67
 4521 0adb 11       		.byte	0x11
 4522 0adc 56000000 		.4byte	0x56
 4523 0ae0 02       		.uleb128 0x2
 4524 0ae1 91       		.byte	0x91
 4525 0ae2 48       		.sleb128 -56
 4526 0ae3 00       		.byte	0
 4527 0ae4 12       		.uleb128 0x12
 4528 0ae5 5E130100 		.4byte	.LASF1750
 4529 0ae9 01       		.byte	0x1
 4530 0aea 48       		.byte	0x48
 4531 0aeb 06       		.byte	0x6
 4532 0aec 00000000 		.4byte	.LFB23
 4533 0af0 48000000 		.4byte	.LFE23-.LFB23
 4534 0af4 01       		.uleb128 0x1
 4535 0af5 9C       		.byte	0x9c
 4536 0af6 190B0000 		.4byte	0xb19
 4537 0afa 14       		.uleb128 0x14
 4538 0afb 64656600 		.ascii	"def\000"
 4539 0aff 01       		.byte	0x1
 4540 0b00 48       		.byte	0x48
 4541 0b01 2A       		.byte	0x2a
 4542 0b02 D2040000 		.4byte	0x4d2
 4543 0b06 02       		.uleb128 0x2
 4544 0b07 91       		.byte	0x91
 4545 0b08 74       		.sleb128 -12
 4546 0b09 14       		.uleb128 0x14
 4547 0b0a 6C6C6100 		.ascii	"lla\000"
 4548 0b0e 01       		.byte	0x1
 4549 0b0f 48       		.byte	0x48
 4550 0b10 41       		.byte	0x41
 4551 0b11 5A030000 		.4byte	0x35a
 4552 0b15 02       		.uleb128 0x2
 4553 0b16 91       		.byte	0x91
 4554 0b17 70       		.sleb128 -16
 4555 0b18 00       		.byte	0
 4556 0b19 12       		.uleb128 0x12
 4557 0b1a 3F310000 		.4byte	.LASF1751
 4558 0b1e 01       		.byte	0x1
 4559 0b1f 3C       		.byte	0x3c
ARM GAS  /tmp/ccKtbbXa.s 			page 81


 4560 0b20 06       		.byte	0x6
 4561 0b21 00000000 		.4byte	.LFB22
 4562 0b25 48000000 		.4byte	.LFE22-.LFB22
 4563 0b29 01       		.uleb128 0x1
 4564 0b2a 9C       		.byte	0x9c
 4565 0b2b 4E0B0000 		.4byte	0xb4e
 4566 0b2f 14       		.uleb128 0x14
 4567 0b30 64656600 		.ascii	"def\000"
 4568 0b34 01       		.byte	0x1
 4569 0b35 3C       		.byte	0x3c
 4570 0b36 2B       		.byte	0x2b
 4571 0b37 D2040000 		.4byte	0x4d2
 4572 0b3b 02       		.uleb128 0x2
 4573 0b3c 91       		.byte	0x91
 4574 0b3d 74       		.sleb128 -12
 4575 0b3e 13       		.uleb128 0x13
 4576 0b3f F6430000 		.4byte	.LASF1711
 4577 0b43 01       		.byte	0x1
 4578 0b44 3C       		.byte	0x3c
 4579 0b45 43       		.byte	0x43
 4580 0b46 17040000 		.4byte	0x417
 4581 0b4a 02       		.uleb128 0x2
 4582 0b4b 91       		.byte	0x91
 4583 0b4c 70       		.sleb128 -16
 4584 0b4d 00       		.byte	0
 4585 0b4e 12       		.uleb128 0x12
 4586 0b4f 08A80000 		.4byte	.LASF1752
 4587 0b53 01       		.byte	0x1
 4588 0b54 22       		.byte	0x22
 4589 0b55 06       		.byte	0x6
 4590 0b56 00000000 		.4byte	.LFB21
 4591 0b5a 0C030000 		.4byte	.LFE21-.LFB21
 4592 0b5e 01       		.uleb128 0x1
 4593 0b5f 9C       		.byte	0x9c
 4594 0b60 BF0B0000 		.4byte	0xbbf
 4595 0b64 13       		.uleb128 0x13
 4596 0b65 DD390000 		.4byte	.LASF1712
 4597 0b69 01       		.byte	0x1
 4598 0b6a 22       		.byte	0x22
 4599 0b6b 34       		.byte	0x34
 4600 0b6c BF0B0000 		.4byte	0xbbf
 4601 0b70 02       		.uleb128 0x2
 4602 0b71 91       		.byte	0x91
 4603 0b72 44       		.sleb128 -60
 4604 0b73 14       		.uleb128 0x14
 4605 0b74 6C6C6100 		.ascii	"lla\000"
 4606 0b78 01       		.byte	0x1
 4607 0b79 22       		.byte	0x22
 4608 0b7a 53       		.byte	0x53
 4609 0b7b 5A030000 		.4byte	0x35a
 4610 0b7f 02       		.uleb128 0x2
 4611 0b80 91       		.byte	0x91
 4612 0b81 40       		.sleb128 -64
 4613 0b82 0B       		.uleb128 0xb
 4614 0b83 371B0100 		.4byte	.LASF1753
 4615 0b87 01       		.byte	0x1
 4616 0b88 2B       		.byte	0x2b
ARM GAS  /tmp/ccKtbbXa.s 			page 82


 4617 0b89 0B       		.byte	0xb
 4618 0b8a 37000000 		.4byte	0x37
 4619 0b8e 02       		.uleb128 0x2
 4620 0b8f 91       		.byte	0x91
 4621 0b90 54       		.sleb128 -44
 4622 0b91 0B       		.uleb128 0xb
 4623 0b92 CC6F0000 		.4byte	.LASF1754
 4624 0b96 01       		.byte	0x1
 4625 0b97 2C       		.byte	0x2c
 4626 0b98 0B       		.byte	0xb
 4627 0b99 37000000 		.4byte	0x37
 4628 0b9d 02       		.uleb128 0x2
 4629 0b9e 91       		.byte	0x91
 4630 0b9f 50       		.sleb128 -48
 4631 0ba0 0B       		.uleb128 0xb
 4632 0ba1 B4210000 		.4byte	.LASF1755
 4633 0ba5 01       		.byte	0x1
 4634 0ba6 2D       		.byte	0x2d
 4635 0ba7 0B       		.byte	0xb
 4636 0ba8 37000000 		.4byte	0x37
 4637 0bac 02       		.uleb128 0x2
 4638 0bad 91       		.byte	0x91
 4639 0bae 4C       		.sleb128 -52
 4640 0baf 0B       		.uleb128 0xb
 4641 0bb0 0DC40000 		.4byte	.LASF1756
 4642 0bb4 01       		.byte	0x1
 4643 0bb5 2E       		.byte	0x2e
 4644 0bb6 0B       		.byte	0xb
 4645 0bb7 37000000 		.4byte	0x37
 4646 0bbb 02       		.uleb128 0x2
 4647 0bbc 91       		.byte	0x91
 4648 0bbd 48       		.sleb128 -56
 4649 0bbe 00       		.byte	0
 4650 0bbf 0F       		.uleb128 0xf
 4651 0bc0 04       		.byte	0x4
 4652 0bc1 B2000000 		.4byte	0xb2
 4653 0bc5 00       		.byte	0
 4654              		.section	.debug_abbrev,"",%progbits
 4655              	.Ldebug_abbrev0:
 4656 0000 01       		.uleb128 0x1
 4657 0001 11       		.uleb128 0x11
 4658 0002 01       		.byte	0x1
 4659 0003 25       		.uleb128 0x25
 4660 0004 0E       		.uleb128 0xe
 4661 0005 13       		.uleb128 0x13
 4662 0006 0B       		.uleb128 0xb
 4663 0007 03       		.uleb128 0x3
 4664 0008 0E       		.uleb128 0xe
 4665 0009 1B       		.uleb128 0x1b
 4666 000a 0E       		.uleb128 0xe
 4667 000b 55       		.uleb128 0x55
 4668 000c 17       		.uleb128 0x17
 4669 000d 11       		.uleb128 0x11
 4670 000e 01       		.uleb128 0x1
 4671 000f 10       		.uleb128 0x10
 4672 0010 17       		.uleb128 0x17
 4673 0011 9942     		.uleb128 0x2119
ARM GAS  /tmp/ccKtbbXa.s 			page 83


 4674 0013 17       		.uleb128 0x17
 4675 0014 00       		.byte	0
 4676 0015 00       		.byte	0
 4677 0016 02       		.uleb128 0x2
 4678 0017 24       		.uleb128 0x24
 4679 0018 00       		.byte	0
 4680 0019 0B       		.uleb128 0xb
 4681 001a 0B       		.uleb128 0xb
 4682 001b 3E       		.uleb128 0x3e
 4683 001c 0B       		.uleb128 0xb
 4684 001d 03       		.uleb128 0x3
 4685 001e 0E       		.uleb128 0xe
 4686 001f 00       		.byte	0
 4687 0020 00       		.byte	0
 4688 0021 03       		.uleb128 0x3
 4689 0022 16       		.uleb128 0x16
 4690 0023 00       		.byte	0
 4691 0024 03       		.uleb128 0x3
 4692 0025 0E       		.uleb128 0xe
 4693 0026 3A       		.uleb128 0x3a
 4694 0027 0B       		.uleb128 0xb
 4695 0028 3B       		.uleb128 0x3b
 4696 0029 0B       		.uleb128 0xb
 4697 002a 39       		.uleb128 0x39
 4698 002b 0B       		.uleb128 0xb
 4699 002c 49       		.uleb128 0x49
 4700 002d 13       		.uleb128 0x13
 4701 002e 00       		.byte	0
 4702 002f 00       		.byte	0
 4703 0030 04       		.uleb128 0x4
 4704 0031 26       		.uleb128 0x26
 4705 0032 00       		.byte	0
 4706 0033 49       		.uleb128 0x49
 4707 0034 13       		.uleb128 0x13
 4708 0035 00       		.byte	0
 4709 0036 00       		.byte	0
 4710 0037 05       		.uleb128 0x5
 4711 0038 24       		.uleb128 0x24
 4712 0039 00       		.byte	0
 4713 003a 0B       		.uleb128 0xb
 4714 003b 0B       		.uleb128 0xb
 4715 003c 3E       		.uleb128 0x3e
 4716 003d 0B       		.uleb128 0xb
 4717 003e 03       		.uleb128 0x3
 4718 003f 08       		.uleb128 0x8
 4719 0040 00       		.byte	0
 4720 0041 00       		.byte	0
 4721 0042 06       		.uleb128 0x6
 4722 0043 13       		.uleb128 0x13
 4723 0044 01       		.byte	0x1
 4724 0045 03       		.uleb128 0x3
 4725 0046 0E       		.uleb128 0xe
 4726 0047 0B       		.uleb128 0xb
 4727 0048 0B       		.uleb128 0xb
 4728 0049 3A       		.uleb128 0x3a
 4729 004a 0B       		.uleb128 0xb
 4730 004b 3B       		.uleb128 0x3b
ARM GAS  /tmp/ccKtbbXa.s 			page 84


 4731 004c 0B       		.uleb128 0xb
 4732 004d 39       		.uleb128 0x39
 4733 004e 0B       		.uleb128 0xb
 4734 004f 01       		.uleb128 0x1
 4735 0050 13       		.uleb128 0x13
 4736 0051 00       		.byte	0
 4737 0052 00       		.byte	0
 4738 0053 07       		.uleb128 0x7
 4739 0054 0D       		.uleb128 0xd
 4740 0055 00       		.byte	0
 4741 0056 03       		.uleb128 0x3
 4742 0057 08       		.uleb128 0x8
 4743 0058 3A       		.uleb128 0x3a
 4744 0059 0B       		.uleb128 0xb
 4745 005a 3B       		.uleb128 0x3b
 4746 005b 0B       		.uleb128 0xb
 4747 005c 39       		.uleb128 0x39
 4748 005d 0B       		.uleb128 0xb
 4749 005e 49       		.uleb128 0x49
 4750 005f 13       		.uleb128 0x13
 4751 0060 38       		.uleb128 0x38
 4752 0061 0B       		.uleb128 0xb
 4753 0062 00       		.byte	0
 4754 0063 00       		.byte	0
 4755 0064 08       		.uleb128 0x8
 4756 0065 01       		.uleb128 0x1
 4757 0066 01       		.byte	0x1
 4758 0067 49       		.uleb128 0x49
 4759 0068 13       		.uleb128 0x13
 4760 0069 01       		.uleb128 0x1
 4761 006a 13       		.uleb128 0x13
 4762 006b 00       		.byte	0
 4763 006c 00       		.byte	0
 4764 006d 09       		.uleb128 0x9
 4765 006e 21       		.uleb128 0x21
 4766 006f 00       		.byte	0
 4767 0070 49       		.uleb128 0x49
 4768 0071 13       		.uleb128 0x13
 4769 0072 2F       		.uleb128 0x2f
 4770 0073 0B       		.uleb128 0xb
 4771 0074 00       		.byte	0
 4772 0075 00       		.byte	0
 4773 0076 0A       		.uleb128 0xa
 4774 0077 0D       		.uleb128 0xd
 4775 0078 00       		.byte	0
 4776 0079 03       		.uleb128 0x3
 4777 007a 0E       		.uleb128 0xe
 4778 007b 3A       		.uleb128 0x3a
 4779 007c 0B       		.uleb128 0xb
 4780 007d 3B       		.uleb128 0x3b
 4781 007e 0B       		.uleb128 0xb
 4782 007f 39       		.uleb128 0x39
 4783 0080 0B       		.uleb128 0xb
 4784 0081 49       		.uleb128 0x49
 4785 0082 13       		.uleb128 0x13
 4786 0083 38       		.uleb128 0x38
 4787 0084 0B       		.uleb128 0xb
ARM GAS  /tmp/ccKtbbXa.s 			page 85


 4788 0085 00       		.byte	0
 4789 0086 00       		.byte	0
 4790 0087 0B       		.uleb128 0xb
 4791 0088 34       		.uleb128 0x34
 4792 0089 00       		.byte	0
 4793 008a 03       		.uleb128 0x3
 4794 008b 0E       		.uleb128 0xe
 4795 008c 3A       		.uleb128 0x3a
 4796 008d 0B       		.uleb128 0xb
 4797 008e 3B       		.uleb128 0x3b
 4798 008f 0B       		.uleb128 0xb
 4799 0090 39       		.uleb128 0x39
 4800 0091 0B       		.uleb128 0xb
 4801 0092 49       		.uleb128 0x49
 4802 0093 13       		.uleb128 0x13
 4803 0094 02       		.uleb128 0x2
 4804 0095 18       		.uleb128 0x18
 4805 0096 00       		.byte	0
 4806 0097 00       		.byte	0
 4807 0098 0C       		.uleb128 0xc
 4808 0099 2E       		.uleb128 0x2e
 4809 009a 01       		.byte	0x1
 4810 009b 3F       		.uleb128 0x3f
 4811 009c 19       		.uleb128 0x19
 4812 009d 03       		.uleb128 0x3
 4813 009e 0E       		.uleb128 0xe
 4814 009f 3A       		.uleb128 0x3a
 4815 00a0 0B       		.uleb128 0xb
 4816 00a1 3B       		.uleb128 0x3b
 4817 00a2 05       		.uleb128 0x5
 4818 00a3 39       		.uleb128 0x39
 4819 00a4 0B       		.uleb128 0xb
 4820 00a5 27       		.uleb128 0x27
 4821 00a6 19       		.uleb128 0x19
 4822 00a7 11       		.uleb128 0x11
 4823 00a8 01       		.uleb128 0x1
 4824 00a9 12       		.uleb128 0x12
 4825 00aa 06       		.uleb128 0x6
 4826 00ab 40       		.uleb128 0x40
 4827 00ac 18       		.uleb128 0x18
 4828 00ad 9642     		.uleb128 0x2116
 4829 00af 19       		.uleb128 0x19
 4830 00b0 01       		.uleb128 0x1
 4831 00b1 13       		.uleb128 0x13
 4832 00b2 00       		.byte	0
 4833 00b3 00       		.byte	0
 4834 00b4 0D       		.uleb128 0xd
 4835 00b5 05       		.uleb128 0x5
 4836 00b6 00       		.byte	0
 4837 00b7 03       		.uleb128 0x3
 4838 00b8 08       		.uleb128 0x8
 4839 00b9 3A       		.uleb128 0x3a
 4840 00ba 0B       		.uleb128 0xb
 4841 00bb 3B       		.uleb128 0x3b
 4842 00bc 05       		.uleb128 0x5
 4843 00bd 39       		.uleb128 0x39
 4844 00be 0B       		.uleb128 0xb
ARM GAS  /tmp/ccKtbbXa.s 			page 86


 4845 00bf 49       		.uleb128 0x49
 4846 00c0 13       		.uleb128 0x13
 4847 00c1 02       		.uleb128 0x2
 4848 00c2 18       		.uleb128 0x18
 4849 00c3 00       		.byte	0
 4850 00c4 00       		.byte	0
 4851 00c5 0E       		.uleb128 0xe
 4852 00c6 34       		.uleb128 0x34
 4853 00c7 00       		.byte	0
 4854 00c8 03       		.uleb128 0x3
 4855 00c9 0E       		.uleb128 0xe
 4856 00ca 3A       		.uleb128 0x3a
 4857 00cb 0B       		.uleb128 0xb
 4858 00cc 3B       		.uleb128 0x3b
 4859 00cd 05       		.uleb128 0x5
 4860 00ce 39       		.uleb128 0x39
 4861 00cf 0B       		.uleb128 0xb
 4862 00d0 49       		.uleb128 0x49
 4863 00d1 13       		.uleb128 0x13
 4864 00d2 02       		.uleb128 0x2
 4865 00d3 18       		.uleb128 0x18
 4866 00d4 00       		.byte	0
 4867 00d5 00       		.byte	0
 4868 00d6 0F       		.uleb128 0xf
 4869 00d7 0F       		.uleb128 0xf
 4870 00d8 00       		.byte	0
 4871 00d9 0B       		.uleb128 0xb
 4872 00da 0B       		.uleb128 0xb
 4873 00db 49       		.uleb128 0x49
 4874 00dc 13       		.uleb128 0x13
 4875 00dd 00       		.byte	0
 4876 00de 00       		.byte	0
 4877 00df 10       		.uleb128 0x10
 4878 00e0 05       		.uleb128 0x5
 4879 00e1 00       		.byte	0
 4880 00e2 03       		.uleb128 0x3
 4881 00e3 0E       		.uleb128 0xe
 4882 00e4 3A       		.uleb128 0x3a
 4883 00e5 0B       		.uleb128 0xb
 4884 00e6 3B       		.uleb128 0x3b
 4885 00e7 05       		.uleb128 0x5
 4886 00e8 39       		.uleb128 0x39
 4887 00e9 0B       		.uleb128 0xb
 4888 00ea 49       		.uleb128 0x49
 4889 00eb 13       		.uleb128 0x13
 4890 00ec 02       		.uleb128 0x2
 4891 00ed 18       		.uleb128 0x18
 4892 00ee 00       		.byte	0
 4893 00ef 00       		.byte	0
 4894 00f0 11       		.uleb128 0x11
 4895 00f1 34       		.uleb128 0x34
 4896 00f2 00       		.byte	0
 4897 00f3 03       		.uleb128 0x3
 4898 00f4 08       		.uleb128 0x8
 4899 00f5 3A       		.uleb128 0x3a
 4900 00f6 0B       		.uleb128 0xb
 4901 00f7 3B       		.uleb128 0x3b
ARM GAS  /tmp/ccKtbbXa.s 			page 87


 4902 00f8 05       		.uleb128 0x5
 4903 00f9 39       		.uleb128 0x39
 4904 00fa 0B       		.uleb128 0xb
 4905 00fb 49       		.uleb128 0x49
 4906 00fc 13       		.uleb128 0x13
 4907 00fd 02       		.uleb128 0x2
 4908 00fe 18       		.uleb128 0x18
 4909 00ff 00       		.byte	0
 4910 0100 00       		.byte	0
 4911 0101 12       		.uleb128 0x12
 4912 0102 2E       		.uleb128 0x2e
 4913 0103 01       		.byte	0x1
 4914 0104 3F       		.uleb128 0x3f
 4915 0105 19       		.uleb128 0x19
 4916 0106 03       		.uleb128 0x3
 4917 0107 0E       		.uleb128 0xe
 4918 0108 3A       		.uleb128 0x3a
 4919 0109 0B       		.uleb128 0xb
 4920 010a 3B       		.uleb128 0x3b
 4921 010b 0B       		.uleb128 0xb
 4922 010c 39       		.uleb128 0x39
 4923 010d 0B       		.uleb128 0xb
 4924 010e 27       		.uleb128 0x27
 4925 010f 19       		.uleb128 0x19
 4926 0110 11       		.uleb128 0x11
 4927 0111 01       		.uleb128 0x1
 4928 0112 12       		.uleb128 0x12
 4929 0113 06       		.uleb128 0x6
 4930 0114 40       		.uleb128 0x40
 4931 0115 18       		.uleb128 0x18
 4932 0116 9642     		.uleb128 0x2116
 4933 0118 19       		.uleb128 0x19
 4934 0119 01       		.uleb128 0x1
 4935 011a 13       		.uleb128 0x13
 4936 011b 00       		.byte	0
 4937 011c 00       		.byte	0
 4938 011d 13       		.uleb128 0x13
 4939 011e 05       		.uleb128 0x5
 4940 011f 00       		.byte	0
 4941 0120 03       		.uleb128 0x3
 4942 0121 0E       		.uleb128 0xe
 4943 0122 3A       		.uleb128 0x3a
 4944 0123 0B       		.uleb128 0xb
 4945 0124 3B       		.uleb128 0x3b
 4946 0125 0B       		.uleb128 0xb
 4947 0126 39       		.uleb128 0x39
 4948 0127 0B       		.uleb128 0xb
 4949 0128 49       		.uleb128 0x49
 4950 0129 13       		.uleb128 0x13
 4951 012a 02       		.uleb128 0x2
 4952 012b 18       		.uleb128 0x18
 4953 012c 00       		.byte	0
 4954 012d 00       		.byte	0
 4955 012e 14       		.uleb128 0x14
 4956 012f 05       		.uleb128 0x5
 4957 0130 00       		.byte	0
 4958 0131 03       		.uleb128 0x3
ARM GAS  /tmp/ccKtbbXa.s 			page 88


 4959 0132 08       		.uleb128 0x8
 4960 0133 3A       		.uleb128 0x3a
 4961 0134 0B       		.uleb128 0xb
 4962 0135 3B       		.uleb128 0x3b
 4963 0136 0B       		.uleb128 0xb
 4964 0137 39       		.uleb128 0x39
 4965 0138 0B       		.uleb128 0xb
 4966 0139 49       		.uleb128 0x49
 4967 013a 13       		.uleb128 0x13
 4968 013b 02       		.uleb128 0x2
 4969 013c 18       		.uleb128 0x18
 4970 013d 00       		.byte	0
 4971 013e 00       		.byte	0
 4972 013f 15       		.uleb128 0x15
 4973 0140 34       		.uleb128 0x34
 4974 0141 00       		.byte	0
 4975 0142 03       		.uleb128 0x3
 4976 0143 08       		.uleb128 0x8
 4977 0144 3A       		.uleb128 0x3a
 4978 0145 0B       		.uleb128 0xb
 4979 0146 3B       		.uleb128 0x3b
 4980 0147 0B       		.uleb128 0xb
 4981 0148 39       		.uleb128 0x39
 4982 0149 0B       		.uleb128 0xb
 4983 014a 49       		.uleb128 0x49
 4984 014b 13       		.uleb128 0x13
 4985 014c 02       		.uleb128 0x2
 4986 014d 18       		.uleb128 0x18
 4987 014e 00       		.byte	0
 4988 014f 00       		.byte	0
 4989 0150 16       		.uleb128 0x16
 4990 0151 2E       		.uleb128 0x2e
 4991 0152 01       		.byte	0x1
 4992 0153 3F       		.uleb128 0x3f
 4993 0154 19       		.uleb128 0x19
 4994 0155 03       		.uleb128 0x3
 4995 0156 0E       		.uleb128 0xe
 4996 0157 3A       		.uleb128 0x3a
 4997 0158 0B       		.uleb128 0xb
 4998 0159 3B       		.uleb128 0x3b
 4999 015a 0B       		.uleb128 0xb
 5000 015b 39       		.uleb128 0x39
 5001 015c 0B       		.uleb128 0xb
 5002 015d 27       		.uleb128 0x27
 5003 015e 19       		.uleb128 0x19
 5004 015f 11       		.uleb128 0x11
 5005 0160 01       		.uleb128 0x1
 5006 0161 12       		.uleb128 0x12
 5007 0162 06       		.uleb128 0x6
 5008 0163 40       		.uleb128 0x40
 5009 0164 18       		.uleb128 0x18
 5010 0165 9742     		.uleb128 0x2117
 5011 0167 19       		.uleb128 0x19
 5012 0168 01       		.uleb128 0x1
 5013 0169 13       		.uleb128 0x13
 5014 016a 00       		.byte	0
 5015 016b 00       		.byte	0
ARM GAS  /tmp/ccKtbbXa.s 			page 89


 5016 016c 00       		.byte	0
 5017              		.section	.debug_aranges,"",%progbits
 5018 0000 DC000000 		.4byte	0xdc
 5019 0004 0200     		.2byte	0x2
 5020 0006 00000000 		.4byte	.Ldebug_info0
 5021 000a 04       		.byte	0x4
 5022 000b 00       		.byte	0
 5023 000c 0000     		.2byte	0
 5024 000e 0000     		.2byte	0
 5025 0010 00000000 		.4byte	.LFB21
 5026 0014 0C030000 		.4byte	.LFE21-.LFB21
 5027 0018 00000000 		.4byte	.LFB22
 5028 001c 48000000 		.4byte	.LFE22-.LFB22
 5029 0020 00000000 		.4byte	.LFB23
 5030 0024 48000000 		.4byte	.LFE23-.LFB23
 5031 0028 00000000 		.4byte	.LFB24
 5032 002c EE020000 		.4byte	.LFE24-.LFB24
 5033 0030 00000000 		.4byte	.LFB25
 5034 0034 32000000 		.4byte	.LFE25-.LFB25
 5035 0038 00000000 		.4byte	.LFB26
 5036 003c 78000000 		.4byte	.LFE26-.LFB26
 5037 0040 00000000 		.4byte	.LFB27
 5038 0044 32000000 		.4byte	.LFE27-.LFB27
 5039 0048 00000000 		.4byte	.LFB28
 5040 004c DA020000 		.4byte	.LFE28-.LFB28
 5041 0050 00000000 		.4byte	.LFB29
 5042 0054 32000000 		.4byte	.LFE29-.LFB29
 5043 0058 00000000 		.4byte	.LFB30
 5044 005c DA020000 		.4byte	.LFE30-.LFB30
 5045 0060 00000000 		.4byte	.LFB31
 5046 0064 32000000 		.4byte	.LFE31-.LFB31
 5047 0068 00000000 		.4byte	.LFB32
 5048 006c 46000000 		.4byte	.LFE32-.LFB32
 5049 0070 00000000 		.4byte	.LFB33
 5050 0074 32000000 		.4byte	.LFE33-.LFB33
 5051 0078 00000000 		.4byte	.LFB34
 5052 007c 8A000000 		.4byte	.LFE34-.LFB34
 5053 0080 00000000 		.4byte	.LFB35
 5054 0084 32000000 		.4byte	.LFE35-.LFB35
 5055 0088 00000000 		.4byte	.LFB36
 5056 008c 28000000 		.4byte	.LFE36-.LFB36
 5057 0090 00000000 		.4byte	.LFB37
 5058 0094 28000000 		.4byte	.LFE37-.LFB37
 5059 0098 00000000 		.4byte	.LFB38
 5060 009c 28000000 		.4byte	.LFE38-.LFB38
 5061 00a0 00000000 		.4byte	.LFB39
 5062 00a4 28000000 		.4byte	.LFE39-.LFB39
 5063 00a8 00000000 		.4byte	.LFB40
 5064 00ac 28000000 		.4byte	.LFE40-.LFB40
 5065 00b0 00000000 		.4byte	.LFB41
 5066 00b4 28000000 		.4byte	.LFE41-.LFB41
 5067 00b8 00000000 		.4byte	.LFB93
 5068 00bc 10010000 		.4byte	.LFE93-.LFB93
 5069 00c0 00000000 		.4byte	.LFB94
 5070 00c4 10010000 		.4byte	.LFE94-.LFB94
 5071 00c8 00000000 		.4byte	.LFB95
 5072 00cc 20010000 		.4byte	.LFE95-.LFB95
ARM GAS  /tmp/ccKtbbXa.s 			page 90


 5073 00d0 00000000 		.4byte	.LFB96
 5074 00d4 18010000 		.4byte	.LFE96-.LFB96
 5075 00d8 00000000 		.4byte	0
 5076 00dc 00000000 		.4byte	0
 5077              		.section	.debug_ranges,"",%progbits
 5078              	.Ldebug_ranges0:
 5079 0000 00000000 		.4byte	.LFB21
 5080 0004 0C030000 		.4byte	.LFE21
 5081 0008 00000000 		.4byte	.LFB22
 5082 000c 48000000 		.4byte	.LFE22
 5083 0010 00000000 		.4byte	.LFB23
 5084 0014 48000000 		.4byte	.LFE23
 5085 0018 00000000 		.4byte	.LFB24
 5086 001c EE020000 		.4byte	.LFE24
 5087 0020 00000000 		.4byte	.LFB25
 5088 0024 32000000 		.4byte	.LFE25
 5089 0028 00000000 		.4byte	.LFB26
 5090 002c 78000000 		.4byte	.LFE26
 5091 0030 00000000 		.4byte	.LFB27
 5092 0034 32000000 		.4byte	.LFE27
 5093 0038 00000000 		.4byte	.LFB28
 5094 003c DA020000 		.4byte	.LFE28
 5095 0040 00000000 		.4byte	.LFB29
 5096 0044 32000000 		.4byte	.LFE29
 5097 0048 00000000 		.4byte	.LFB30
 5098 004c DA020000 		.4byte	.LFE30
 5099 0050 00000000 		.4byte	.LFB31
 5100 0054 32000000 		.4byte	.LFE31
 5101 0058 00000000 		.4byte	.LFB32
 5102 005c 46000000 		.4byte	.LFE32
 5103 0060 00000000 		.4byte	.LFB33
 5104 0064 32000000 		.4byte	.LFE33
 5105 0068 00000000 		.4byte	.LFB34
 5106 006c 8A000000 		.4byte	.LFE34
 5107 0070 00000000 		.4byte	.LFB35
 5108 0074 32000000 		.4byte	.LFE35
 5109 0078 00000000 		.4byte	.LFB36
 5110 007c 28000000 		.4byte	.LFE36
 5111 0080 00000000 		.4byte	.LFB37
 5112 0084 28000000 		.4byte	.LFE37
 5113 0088 00000000 		.4byte	.LFB38
 5114 008c 28000000 		.4byte	.LFE38
 5115 0090 00000000 		.4byte	.LFB39
 5116 0094 28000000 		.4byte	.LFE39
 5117 0098 00000000 		.4byte	.LFB40
 5118 009c 28000000 		.4byte	.LFE40
 5119 00a0 00000000 		.4byte	.LFB41
 5120 00a4 28000000 		.4byte	.LFE41
 5121 00a8 00000000 		.4byte	.LFB93
 5122 00ac 10010000 		.4byte	.LFE93
 5123 00b0 00000000 		.4byte	.LFB94
 5124 00b4 10010000 		.4byte	.LFE94
 5125 00b8 00000000 		.4byte	.LFB95
 5126 00bc 20010000 		.4byte	.LFE95
 5127 00c0 00000000 		.4byte	.LFB96
 5128 00c4 18010000 		.4byte	.LFE96
 5129 00c8 00000000 		.4byte	0
ARM GAS  /tmp/ccKtbbXa.s 			page 91


 5130 00cc 00000000 		.4byte	0
 5131              		.section	.debug_macro,"",%progbits
 5132              	.Ldebug_macro0:
 5133 0000 0400     		.2byte	0x4
 5134 0002 02       		.byte	0x2
 5135 0003 00000000 		.4byte	.Ldebug_line0
 5136 0007 07       		.byte	0x7
 5137 0008 00000000 		.4byte	.Ldebug_macro2
 5138 000c 03       		.byte	0x3
 5139 000d 00       		.uleb128 0
 5140 000e 01       		.uleb128 0x1
 5141 000f 03       		.byte	0x3
 5142 0010 1E       		.uleb128 0x1e
 5143 0011 04       		.uleb128 0x4
 5144 0012 05       		.byte	0x5
 5145 0013 20       		.uleb128 0x20
 5146 0014 AEAB0000 		.4byte	.LASF522
 5147              		.file 7 "math/pprz_geodetic.h"
 5148 0018 03       		.byte	0x3
 5149 0019 26       		.uleb128 0x26
 5150 001a 07       		.uleb128 0x7
 5151 001b 07       		.byte	0x7
 5152 001c 00000000 		.4byte	.Ldebug_macro3
 5153 0020 04       		.byte	0x4
 5154              		.file 8 "/home/argroos/paparazzi/sw/include/std.h"
 5155 0021 03       		.byte	0x3
 5156 0022 28       		.uleb128 0x28
 5157 0023 08       		.uleb128 0x8
 5158 0024 05       		.byte	0x5
 5159 0025 1B       		.uleb128 0x1b
 5160 0026 E1130100 		.4byte	.LASF534
 5161              		.file 9 "/usr/include/newlib/inttypes.h"
 5162 002a 03       		.byte	0x3
 5163 002b 1D       		.uleb128 0x1d
 5164 002c 09       		.uleb128 0x9
 5165 002d 05       		.byte	0x5
 5166 002e 0E       		.uleb128 0xe
 5167 002f 24810000 		.4byte	.LASF535
 5168              		.file 10 "/usr/include/newlib/newlib.h"
 5169 0033 03       		.byte	0x3
 5170 0034 10       		.uleb128 0x10
 5171 0035 0A       		.uleb128 0xa
 5172 0036 05       		.byte	0x5
 5173 0037 08       		.uleb128 0x8
 5174 0038 E6E30000 		.4byte	.LASF536
 5175              		.file 11 "/usr/include/newlib/_newlib_version.h"
 5176 003c 03       		.byte	0x3
 5177 003d 0E       		.uleb128 0xe
 5178 003e 0B       		.uleb128 0xb
 5179 003f 07       		.byte	0x7
 5180 0040 00000000 		.4byte	.Ldebug_macro4
 5181 0044 04       		.byte	0x4
 5182 0045 07       		.byte	0x7
 5183 0046 00000000 		.4byte	.Ldebug_macro5
 5184 004a 04       		.byte	0x4
 5185              		.file 12 "/usr/include/newlib/sys/config.h"
 5186 004b 03       		.byte	0x3
ARM GAS  /tmp/ccKtbbXa.s 			page 92


 5187 004c 11       		.uleb128 0x11
 5188 004d 0C       		.uleb128 0xc
 5189 004e 05       		.byte	0x5
 5190 004f 02       		.uleb128 0x2
 5191 0050 C3C70000 		.4byte	.LASF555
 5192              		.file 13 "/usr/include/newlib/machine/ieeefp.h"
 5193 0054 03       		.byte	0x3
 5194 0055 04       		.uleb128 0x4
 5195 0056 0D       		.uleb128 0xd
 5196 0057 07       		.byte	0x7
 5197 0058 00000000 		.4byte	.Ldebug_macro6
 5198 005c 04       		.byte	0x4
 5199              		.file 14 "/usr/include/newlib/sys/features.h"
 5200 005d 03       		.byte	0x3
 5201 005e 05       		.uleb128 0x5
 5202 005f 0E       		.uleb128 0xe
 5203 0060 07       		.byte	0x7
 5204 0061 00000000 		.4byte	.Ldebug_macro7
 5205 0065 04       		.byte	0x4
 5206 0066 07       		.byte	0x7
 5207 0067 00000000 		.4byte	.Ldebug_macro8
 5208 006b 04       		.byte	0x4
 5209              		.file 15 "/usr/include/newlib/sys/_intsup.h"
 5210 006c 03       		.byte	0x3
 5211 006d 12       		.uleb128 0x12
 5212 006e 0F       		.uleb128 0xf
 5213 006f 07       		.byte	0x7
 5214 0070 00000000 		.4byte	.Ldebug_macro9
 5215 0074 04       		.byte	0x4
 5216              		.file 16 "/usr/include/newlib/_ansi.h"
 5217 0075 03       		.byte	0x3
 5218 0076 13       		.uleb128 0x13
 5219 0077 10       		.uleb128 0x10
 5220 0078 07       		.byte	0x7
 5221 0079 00000000 		.4byte	.Ldebug_macro10
 5222 007d 04       		.byte	0x4
 5223 007e 03       		.byte	0x3
 5224 007f 14       		.uleb128 0x14
 5225 0080 02       		.uleb128 0x2
 5226 0081 07       		.byte	0x7
 5227 0082 00000000 		.4byte	.Ldebug_macro11
 5228 0086 04       		.byte	0x4
 5229 0087 05       		.byte	0x5
 5230 0088 15       		.uleb128 0x15
 5231 0089 15010100 		.4byte	.LASF750
 5232              		.file 17 "/usr/lib/gcc/arm-none-eabi/10.3.1/include/stddef.h"
 5233 008d 03       		.byte	0x3
 5234 008e 16       		.uleb128 0x16
 5235 008f 11       		.uleb128 0x11
 5236 0090 07       		.byte	0x7
 5237 0091 00000000 		.4byte	.Ldebug_macro12
 5238 0095 04       		.byte	0x4
 5239              		.file 18 "/usr/include/newlib/sys/_locale.h"
 5240 0096 03       		.byte	0x3
 5241 0097 19       		.uleb128 0x19
 5242 0098 12       		.uleb128 0x12
 5243 0099 05       		.byte	0x5
ARM GAS  /tmp/ccKtbbXa.s 			page 93


 5244 009a 04       		.uleb128 0x4
 5245 009b D26A0000 		.4byte	.LASF769
 5246 009f 04       		.byte	0x4
 5247 00a0 07       		.byte	0x7
 5248 00a1 00000000 		.4byte	.Ldebug_macro13
 5249 00a5 04       		.byte	0x4
 5250              		.file 19 "/usr/lib/gcc/arm-none-eabi/10.3.1/include/stdbool.h"
 5251 00a6 03       		.byte	0x3
 5252 00a7 1E       		.uleb128 0x1e
 5253 00a8 13       		.uleb128 0x13
 5254 00a9 07       		.byte	0x7
 5255 00aa 00000000 		.4byte	.Ldebug_macro14
 5256 00ae 04       		.byte	0x4
 5257              		.file 20 "/usr/include/newlib/math.h"
 5258 00af 03       		.byte	0x3
 5259 00b0 1F       		.uleb128 0x1f
 5260 00b1 14       		.uleb128 0x14
 5261 00b2 05       		.byte	0x5
 5262 00b3 03       		.uleb128 0x3
 5263 00b4 05230000 		.4byte	.LASF907
 5264              		.file 21 "/usr/include/newlib/sys/reent.h"
 5265 00b8 03       		.byte	0x3
 5266 00b9 05       		.uleb128 0x5
 5267 00ba 15       		.uleb128 0x15
 5268 00bb 05       		.byte	0x5
 5269 00bc 0B       		.uleb128 0xb
 5270 00bd 8C3F0100 		.4byte	.LASF908
 5271 00c1 03       		.byte	0x3
 5272 00c2 0D       		.uleb128 0xd
 5273 00c3 10       		.uleb128 0x10
 5274 00c4 04       		.byte	0x4
 5275 00c5 03       		.byte	0x3
 5276 00c6 0E       		.uleb128 0xe
 5277 00c7 11       		.uleb128 0x11
 5278 00c8 07       		.byte	0x7
 5279 00c9 00000000 		.4byte	.Ldebug_macro15
 5280 00cd 04       		.byte	0x4
 5281              		.file 22 "/usr/include/newlib/sys/_types.h"
 5282 00ce 03       		.byte	0x3
 5283 00cf 0F       		.uleb128 0xf
 5284 00d0 16       		.uleb128 0x16
 5285 00d1 07       		.byte	0x7
 5286 00d2 00000000 		.4byte	.Ldebug_macro16
 5287 00d6 03       		.byte	0x3
 5288 00d7 18       		.uleb128 0x18
 5289 00d8 11       		.uleb128 0x11
 5290 00d9 07       		.byte	0x7
 5291 00da 00000000 		.4byte	.Ldebug_macro17
 5292 00de 04       		.byte	0x4
 5293              		.file 23 "/usr/include/newlib/machine/_types.h"
 5294 00df 03       		.byte	0x3
 5295 00e0 1B       		.uleb128 0x1b
 5296 00e1 17       		.uleb128 0x17
 5297 00e2 05       		.byte	0x5
 5298 00e3 06       		.uleb128 0x6
 5299 00e4 CC3C0100 		.4byte	.LASF948
 5300              		.file 24 "/usr/include/newlib/machine/_default_types.h"
ARM GAS  /tmp/ccKtbbXa.s 			page 94


 5301 00e8 03       		.byte	0x3
 5302 00e9 07       		.uleb128 0x7
 5303 00ea 18       		.uleb128 0x18
 5304 00eb 07       		.byte	0x7
 5305 00ec 00000000 		.4byte	.Ldebug_macro18
 5306 00f0 04       		.byte	0x4
 5307 00f1 04       		.byte	0x4
 5308 00f2 07       		.byte	0x7
 5309 00f3 00000000 		.4byte	.Ldebug_macro19
 5310 00f7 04       		.byte	0x4
 5311 00f8 07       		.byte	0x7
 5312 00f9 00000000 		.4byte	.Ldebug_macro20
 5313              		.file 25 "/usr/include/newlib/sys/lock.h"
 5314 00fd 03       		.byte	0x3
 5315 00fe 22       		.uleb128 0x22
 5316 00ff 19       		.uleb128 0x19
 5317 0100 07       		.byte	0x7
 5318 0101 00000000 		.4byte	.Ldebug_macro21
 5319 0105 04       		.byte	0x4
 5320 0106 07       		.byte	0x7
 5321 0107 00000000 		.4byte	.Ldebug_macro22
 5322 010b 04       		.byte	0x4
 5323              		.file 26 "/usr/include/newlib/sys/cdefs.h"
 5324 010c 03       		.byte	0x3
 5325 010d 06       		.uleb128 0x6
 5326 010e 1A       		.uleb128 0x1a
 5327 010f 05       		.byte	0x5
 5328 0110 2B       		.uleb128 0x2b
 5329 0111 47E10000 		.4byte	.LASF1038
 5330 0115 03       		.byte	0x3
 5331 0116 2F       		.uleb128 0x2f
 5332 0117 11       		.uleb128 0x11
 5333 0118 04       		.byte	0x4
 5334 0119 07       		.byte	0x7
 5335 011a 00000000 		.4byte	.Ldebug_macro23
 5336 011e 04       		.byte	0x4
 5337 011f 03       		.byte	0x3
 5338 0120 07       		.uleb128 0x7
 5339 0121 0D       		.uleb128 0xd
 5340 0122 04       		.byte	0x4
 5341 0123 07       		.byte	0x7
 5342 0124 00000000 		.4byte	.Ldebug_macro24
 5343 0128 04       		.byte	0x4
 5344              		.file 27 "/home/argroos/paparazzi/sw/include/message_pragmas.h"
 5345 0129 03       		.byte	0x3
 5346 012a 26       		.uleb128 0x26
 5347 012b 1B       		.uleb128 0x1b
 5348 012c 07       		.byte	0x7
 5349 012d 00000000 		.4byte	.Ldebug_macro25
 5350 0131 04       		.byte	0x4
 5351 0132 07       		.byte	0x7
 5352 0133 00000000 		.4byte	.Ldebug_macro26
 5353 0137 04       		.byte	0x4
 5354 0138 03       		.byte	0x3
 5355 0139 29       		.uleb128 0x29
 5356 013a 03       		.uleb128 0x3
 5357 013b 05       		.byte	0x5
ARM GAS  /tmp/ccKtbbXa.s 			page 95


 5358 013c 20       		.uleb128 0x20
 5359 013d 82D30000 		.4byte	.LASF1282
 5360              		.file 28 "./math/pprz_algebra.h"
 5361 0141 03       		.byte	0x3
 5362 0142 27       		.uleb128 0x27
 5363 0143 1C       		.uleb128 0x1c
 5364 0144 05       		.byte	0x5
 5365 0145 25       		.uleb128 0x25
 5366 0146 1A2C0000 		.4byte	.LASF1283
 5367              		.file 29 "/usr/lib/gcc/arm-none-eabi/10.3.1/include/float.h"
 5368 014a 03       		.byte	0x3
 5369 014b 2B       		.uleb128 0x2b
 5370 014c 1D       		.uleb128 0x1d
 5371 014d 07       		.byte	0x7
 5372 014e 00000000 		.4byte	.Ldebug_macro27
 5373 0152 04       		.byte	0x4
 5374              		.file 30 "/usr/include/newlib/string.h"
 5375 0153 03       		.byte	0x3
 5376 0154 2C       		.uleb128 0x2c
 5377 0155 1E       		.uleb128 0x1e
 5378 0156 07       		.byte	0x7
 5379 0157 00000000 		.4byte	.Ldebug_macro28
 5380 015b 03       		.byte	0x3
 5381 015c 11       		.uleb128 0x11
 5382 015d 11       		.uleb128 0x11
 5383 015e 07       		.byte	0x7
 5384 015f 00000000 		.4byte	.Ldebug_macro29
 5385 0163 04       		.byte	0x4
 5386              		.file 31 "/usr/include/newlib/strings.h"
 5387 0164 03       		.byte	0x3
 5388 0165 18       		.uleb128 0x18
 5389 0166 1F       		.uleb128 0x1f
 5390 0167 05       		.byte	0x5
 5391 0168 1E       		.uleb128 0x1e
 5392 0169 D2230100 		.4byte	.LASF1347
 5393 016d 04       		.byte	0x4
 5394              		.file 32 "/usr/include/newlib/sys/string.h"
 5395 016e 03       		.byte	0x3
 5396 016f AF01     		.uleb128 0xaf
 5397 0171 20       		.uleb128 0x20
 5398 0172 04       		.byte	0x4
 5399 0173 04       		.byte	0x4
 5400 0174 07       		.byte	0x7
 5401 0175 00000000 		.4byte	.Ldebug_macro30
 5402 0179 04       		.byte	0x4
 5403              		.file 33 "./math/pprz_trig_int.h"
 5404 017a 03       		.byte	0x3
 5405 017b 28       		.uleb128 0x28
 5406 017c 21       		.uleb128 0x21
 5407 017d 07       		.byte	0x7
 5408 017e 00000000 		.4byte	.Ldebug_macro31
 5409 0182 04       		.byte	0x4
 5410              		.file 34 "/usr/include/newlib/stdlib.h"
 5411 0183 03       		.byte	0x3
 5412 0184 29       		.uleb128 0x29
 5413 0185 22       		.uleb128 0x22
 5414 0186 05       		.byte	0x5
ARM GAS  /tmp/ccKtbbXa.s 			page 96


 5415 0187 08       		.uleb128 0x8
 5416 0188 F11D0000 		.4byte	.LASF1463
 5417 018c 03       		.byte	0x3
 5418 018d 0A       		.uleb128 0xa
 5419 018e 0D       		.uleb128 0xd
 5420 018f 04       		.byte	0x4
 5421 0190 07       		.byte	0x7
 5422 0191 00000000 		.4byte	.Ldebug_macro32
 5423 0195 03       		.byte	0x3
 5424 0196 10       		.uleb128 0x10
 5425 0197 11       		.uleb128 0x11
 5426 0198 07       		.byte	0x7
 5427 0199 00000000 		.4byte	.Ldebug_macro29
 5428 019d 04       		.byte	0x4
 5429              		.file 35 "/usr/include/newlib/machine/stdlib.h"
 5430 019e 03       		.byte	0x3
 5431 019f 14       		.uleb128 0x14
 5432 01a0 23       		.uleb128 0x23
 5433 01a1 05       		.byte	0x5
 5434 01a2 02       		.uleb128 0x2
 5435 01a3 AB400100 		.4byte	.LASF1464
 5436 01a7 04       		.byte	0x4
 5437              		.file 36 "/usr/include/newlib/alloca.h"
 5438 01a8 03       		.byte	0x3
 5439 01a9 16       		.uleb128 0x16
 5440 01aa 24       		.uleb128 0x24
 5441 01ab 07       		.byte	0x7
 5442 01ac 00000000 		.4byte	.Ldebug_macro33
 5443 01b0 04       		.byte	0x4
 5444 01b1 07       		.byte	0x7
 5445 01b2 00000000 		.4byte	.Ldebug_macro34
 5446 01b6 04       		.byte	0x4
 5447 01b7 07       		.byte	0x7
 5448 01b8 00000000 		.4byte	.Ldebug_macro35
 5449 01bc 04       		.byte	0x4
 5450 01bd 07       		.byte	0x7
 5451 01be 00000000 		.4byte	.Ldebug_macro36
 5452 01c2 04       		.byte	0x4
 5453              		.file 37 "math/pprz_geodetic_float.h"
 5454 01c3 03       		.byte	0x3
 5455 01c4 E402     		.uleb128 0x164
 5456 01c6 25       		.uleb128 0x25
 5457 01c7 05       		.byte	0x5
 5458 01c8 1D       		.uleb128 0x1d
 5459 01c9 0AE50000 		.4byte	.LASF1608
 5460              		.file 38 "math/pprz_algebra_float.h"
 5461 01cd 03       		.byte	0x3
 5462 01ce 24       		.uleb128 0x24
 5463 01cf 26       		.uleb128 0x26
 5464 01d0 05       		.byte	0x5
 5465 01d1 20       		.uleb128 0x20
 5466 01d2 231E0100 		.4byte	.LASF1609
 5467              		.file 39 "math/pprz_algebra.h"
 5468 01d6 03       		.byte	0x3
 5469 01d7 26       		.uleb128 0x26
 5470 01d8 27       		.uleb128 0x27
 5471 01d9 04       		.byte	0x4
ARM GAS  /tmp/ccKtbbXa.s 			page 97


 5472 01da 03       		.byte	0x3
 5473 01db 27       		.uleb128 0x27
 5474 01dc 1B       		.uleb128 0x1b
 5475 01dd 04       		.byte	0x4
 5476 01de 07       		.byte	0x7
 5477 01df 00000000 		.4byte	.Ldebug_macro37
 5478 01e3 04       		.byte	0x4
 5479 01e4 04       		.byte	0x4
 5480 01e5 03       		.byte	0x3
 5481 01e6 E502     		.uleb128 0x165
 5482 01e8 05       		.uleb128 0x5
 5483 01e9 05       		.byte	0x5
 5484 01ea 21       		.uleb128 0x21
 5485 01eb 56EB0000 		.4byte	.LASF1668
 5486              		.file 40 "math/pprz_algebra_double.h"
 5487 01ef 03       		.byte	0x3
 5488 01f0 28       		.uleb128 0x28
 5489 01f1 28       		.uleb128 0x28
 5490 01f2 07       		.byte	0x7
 5491 01f3 00000000 		.4byte	.Ldebug_macro38
 5492 01f7 04       		.byte	0x4
 5493 01f8 04       		.byte	0x4
 5494 01f9 03       		.byte	0x3
 5495 01fa A103     		.uleb128 0x1a1
 5496 01fc 06       		.uleb128 0x6
 5497 01fd 07       		.byte	0x7
 5498 01fe 00000000 		.4byte	.Ldebug_macro39
 5499 0202 04       		.byte	0x4
 5500 0203 04       		.byte	0x4
 5501 0204 00       		.byte	0
 5502              		.section	.debug_macro,"G",%progbits,wm4.0.69e5d6bfed3ffb311b2d25f556d4a257,comdat
 5503              	.Ldebug_macro2:
 5504 0000 0400     		.2byte	0x4
 5505 0002 00       		.byte	0
 5506 0003 05       		.byte	0x5
 5507 0004 00       		.uleb128 0
 5508 0005 2F0C0000 		.4byte	.LASF0
 5509 0009 05       		.byte	0x5
 5510 000a 00       		.uleb128 0
 5511 000b 54DE0000 		.4byte	.LASF1
 5512 000f 05       		.byte	0x5
 5513 0010 00       		.uleb128 0
 5514 0011 B7810000 		.4byte	.LASF2
 5515 0015 05       		.byte	0x5
 5516 0016 00       		.uleb128 0
 5517 0017 0D2E0000 		.4byte	.LASF3
 5518 001b 05       		.byte	0x5
 5519 001c 00       		.uleb128 0
 5520 001d 50C50000 		.4byte	.LASF4
 5521 0021 05       		.byte	0x5
 5522 0022 00       		.uleb128 0
 5523 0023 358E0000 		.4byte	.LASF5
 5524 0027 05       		.byte	0x5
 5525 0028 00       		.uleb128 0
 5526 0029 553D0100 		.4byte	.LASF6
 5527 002d 05       		.byte	0x5
 5528 002e 00       		.uleb128 0
ARM GAS  /tmp/ccKtbbXa.s 			page 98


 5529 002f A1430100 		.4byte	.LASF7
 5530 0033 05       		.byte	0x5
 5531 0034 00       		.uleb128 0
 5532 0035 C22E0100 		.4byte	.LASF8
 5533 0039 05       		.byte	0x5
 5534 003a 00       		.uleb128 0
 5535 003b 98850000 		.4byte	.LASF9
 5536 003f 05       		.byte	0x5
 5537 0040 00       		.uleb128 0
 5538 0041 D8350000 		.4byte	.LASF10
 5539 0045 05       		.byte	0x5
 5540 0046 00       		.uleb128 0
 5541 0047 287F0000 		.4byte	.LASF11
 5542 004b 05       		.byte	0x5
 5543 004c 00       		.uleb128 0
 5544 004d B5240100 		.4byte	.LASF12
 5545 0051 05       		.byte	0x5
 5546 0052 00       		.uleb128 0
 5547 0053 E4200000 		.4byte	.LASF13
 5548 0057 05       		.byte	0x5
 5549 0058 00       		.uleb128 0
 5550 0059 A2180100 		.4byte	.LASF14
 5551 005d 05       		.byte	0x5
 5552 005e 00       		.uleb128 0
 5553 005f D2F30000 		.4byte	.LASF15
 5554 0063 05       		.byte	0x5
 5555 0064 00       		.uleb128 0
 5556 0065 34230000 		.4byte	.LASF16
 5557 0069 05       		.byte	0x5
 5558 006a 00       		.uleb128 0
 5559 006b 30120000 		.4byte	.LASF17
 5560 006f 05       		.byte	0x5
 5561 0070 00       		.uleb128 0
 5562 0071 45550000 		.4byte	.LASF18
 5563 0075 05       		.byte	0x5
 5564 0076 00       		.uleb128 0
 5565 0077 C0060000 		.4byte	.LASF19
 5566 007b 05       		.byte	0x5
 5567 007c 00       		.uleb128 0
 5568 007d F6330100 		.4byte	.LASF20
 5569 0081 05       		.byte	0x5
 5570 0082 00       		.uleb128 0
 5571 0083 DEFC0000 		.4byte	.LASF21
 5572 0087 05       		.byte	0x5
 5573 0088 00       		.uleb128 0
 5574 0089 18300100 		.4byte	.LASF22
 5575 008d 05       		.byte	0x5
 5576 008e 00       		.uleb128 0
 5577 008f B74F0000 		.4byte	.LASF23
 5578 0093 05       		.byte	0x5
 5579 0094 00       		.uleb128 0
 5580 0095 3FAD0000 		.4byte	.LASF24
 5581 0099 05       		.byte	0x5
 5582 009a 00       		.uleb128 0
 5583 009b 482C0000 		.4byte	.LASF25
 5584 009f 05       		.byte	0x5
 5585 00a0 00       		.uleb128 0
ARM GAS  /tmp/ccKtbbXa.s 			page 99


 5586 00a1 334B0000 		.4byte	.LASF26
 5587 00a5 05       		.byte	0x5
 5588 00a6 00       		.uleb128 0
 5589 00a7 C1EB0000 		.4byte	.LASF27
 5590 00ab 05       		.byte	0x5
 5591 00ac 00       		.uleb128 0
 5592 00ad EC7E0000 		.4byte	.LASF28
 5593 00b1 05       		.byte	0x5
 5594 00b2 00       		.uleb128 0
 5595 00b3 A80D0000 		.4byte	.LASF29
 5596 00b7 05       		.byte	0x5
 5597 00b8 00       		.uleb128 0
 5598 00b9 C0000000 		.4byte	.LASF30
 5599 00bd 05       		.byte	0x5
 5600 00be 00       		.uleb128 0
 5601 00bf FED50000 		.4byte	.LASF31
 5602 00c3 05       		.byte	0x5
 5603 00c4 00       		.uleb128 0
 5604 00c5 30340100 		.4byte	.LASF32
 5605 00c9 05       		.byte	0x5
 5606 00ca 00       		.uleb128 0
 5607 00cb DDC90000 		.4byte	.LASF33
 5608 00cf 05       		.byte	0x5
 5609 00d0 00       		.uleb128 0
 5610 00d1 F0100000 		.4byte	.LASF34
 5611 00d5 05       		.byte	0x5
 5612 00d6 00       		.uleb128 0
 5613 00d7 9E570000 		.4byte	.LASF35
 5614 00db 05       		.byte	0x5
 5615 00dc 00       		.uleb128 0
 5616 00dd 59AD0000 		.4byte	.LASF36
 5617 00e1 05       		.byte	0x5
 5618 00e2 00       		.uleb128 0
 5619 00e3 D4D60000 		.4byte	.LASF37
 5620 00e7 05       		.byte	0x5
 5621 00e8 00       		.uleb128 0
 5622 00e9 5FB00000 		.4byte	.LASF38
 5623 00ed 05       		.byte	0x5
 5624 00ee 00       		.uleb128 0
 5625 00ef 2CD50000 		.4byte	.LASF39
 5626 00f3 05       		.byte	0x5
 5627 00f4 00       		.uleb128 0
 5628 00f5 CC230000 		.4byte	.LASF40
 5629 00f9 05       		.byte	0x5
 5630 00fa 00       		.uleb128 0
 5631 00fb 16040100 		.4byte	.LASF41
 5632 00ff 05       		.byte	0x5
 5633 0100 00       		.uleb128 0
 5634 0101 DE650000 		.4byte	.LASF42
 5635 0105 05       		.byte	0x5
 5636 0106 00       		.uleb128 0
 5637 0107 D0EE0000 		.4byte	.LASF43
 5638 010b 05       		.byte	0x5
 5639 010c 00       		.uleb128 0
 5640 010d 71200100 		.4byte	.LASF44
 5641 0111 05       		.byte	0x5
 5642 0112 00       		.uleb128 0
ARM GAS  /tmp/ccKtbbXa.s 			page 100


 5643 0113 6B2C0000 		.4byte	.LASF45
 5644 0117 05       		.byte	0x5
 5645 0118 00       		.uleb128 0
 5646 0119 58300000 		.4byte	.LASF46
 5647 011d 05       		.byte	0x5
 5648 011e 00       		.uleb128 0
 5649 011f BE460000 		.4byte	.LASF47
 5650 0123 05       		.byte	0x5
 5651 0124 00       		.uleb128 0
 5652 0125 D30E0000 		.4byte	.LASF48
 5653 0129 05       		.byte	0x5
 5654 012a 00       		.uleb128 0
 5655 012b 2E940000 		.4byte	.LASF49
 5656 012f 05       		.byte	0x5
 5657 0130 00       		.uleb128 0
 5658 0131 FE180100 		.4byte	.LASF50
 5659 0135 05       		.byte	0x5
 5660 0136 00       		.uleb128 0
 5661 0137 851E0000 		.4byte	.LASF51
 5662 013b 05       		.byte	0x5
 5663 013c 00       		.uleb128 0
 5664 013d 9D250000 		.4byte	.LASF52
 5665 0141 05       		.byte	0x5
 5666 0142 00       		.uleb128 0
 5667 0143 20350100 		.4byte	.LASF53
 5668 0147 05       		.byte	0x5
 5669 0148 00       		.uleb128 0
 5670 0149 F33E0100 		.4byte	.LASF54
 5671 014d 05       		.byte	0x5
 5672 014e 00       		.uleb128 0
 5673 014f 711D0100 		.4byte	.LASF55
 5674 0153 05       		.byte	0x5
 5675 0154 00       		.uleb128 0
 5676 0155 43190100 		.4byte	.LASF56
 5677 0159 05       		.byte	0x5
 5678 015a 00       		.uleb128 0
 5679 015b E1C30000 		.4byte	.LASF57
 5680 015f 05       		.byte	0x5
 5681 0160 00       		.uleb128 0
 5682 0161 048F0000 		.4byte	.LASF58
 5683 0165 05       		.byte	0x5
 5684 0166 00       		.uleb128 0
 5685 0167 89550000 		.4byte	.LASF59
 5686 016b 05       		.byte	0x5
 5687 016c 00       		.uleb128 0
 5688 016d 6A7F0000 		.4byte	.LASF60
 5689 0171 05       		.byte	0x5
 5690 0172 00       		.uleb128 0
 5691 0173 96370000 		.4byte	.LASF61
 5692 0177 05       		.byte	0x5
 5693 0178 00       		.uleb128 0
 5694 0179 E3220000 		.4byte	.LASF62
 5695 017d 05       		.byte	0x5
 5696 017e 00       		.uleb128 0
 5697 017f 87EC0000 		.4byte	.LASF63
 5698 0183 05       		.byte	0x5
 5699 0184 00       		.uleb128 0
ARM GAS  /tmp/ccKtbbXa.s 			page 101


 5700 0185 73990000 		.4byte	.LASF64
 5701 0189 05       		.byte	0x5
 5702 018a 00       		.uleb128 0
 5703 018b 14170000 		.4byte	.LASF65
 5704 018f 05       		.byte	0x5
 5705 0190 00       		.uleb128 0
 5706 0191 92F30000 		.4byte	.LASF66
 5707 0195 05       		.byte	0x5
 5708 0196 00       		.uleb128 0
 5709 0197 17940000 		.4byte	.LASF67
 5710 019b 05       		.byte	0x5
 5711 019c 00       		.uleb128 0
 5712 019d 7D720000 		.4byte	.LASF68
 5713 01a1 05       		.byte	0x5
 5714 01a2 00       		.uleb128 0
 5715 01a3 4F200000 		.4byte	.LASF69
 5716 01a7 05       		.byte	0x5
 5717 01a8 00       		.uleb128 0
 5718 01a9 C0930000 		.4byte	.LASF70
 5719 01ad 05       		.byte	0x5
 5720 01ae 00       		.uleb128 0
 5721 01af 2B5C0000 		.4byte	.LASF71
 5722 01b3 05       		.byte	0x5
 5723 01b4 00       		.uleb128 0
 5724 01b5 9BDB0000 		.4byte	.LASF72
 5725 01b9 05       		.byte	0x5
 5726 01ba 00       		.uleb128 0
 5727 01bb F0E40000 		.4byte	.LASF73
 5728 01bf 05       		.byte	0x5
 5729 01c0 00       		.uleb128 0
 5730 01c1 CD6D0000 		.4byte	.LASF74
 5731 01c5 05       		.byte	0x5
 5732 01c6 00       		.uleb128 0
 5733 01c7 05440000 		.4byte	.LASF75
 5734 01cb 05       		.byte	0x5
 5735 01cc 00       		.uleb128 0
 5736 01cd 75C70000 		.4byte	.LASF76
 5737 01d1 05       		.byte	0x5
 5738 01d2 00       		.uleb128 0
 5739 01d3 20090000 		.4byte	.LASF77
 5740 01d7 05       		.byte	0x5
 5741 01d8 00       		.uleb128 0
 5742 01d9 D29B0000 		.4byte	.LASF78
 5743 01dd 05       		.byte	0x5
 5744 01de 00       		.uleb128 0
 5745 01df 157E0000 		.4byte	.LASF79
 5746 01e3 05       		.byte	0x5
 5747 01e4 00       		.uleb128 0
 5748 01e5 9C160000 		.4byte	.LASF80
 5749 01e9 05       		.byte	0x5
 5750 01ea 00       		.uleb128 0
 5751 01eb 59620000 		.4byte	.LASF81
 5752 01ef 05       		.byte	0x5
 5753 01f0 00       		.uleb128 0
 5754 01f1 04000100 		.4byte	.LASF82
 5755 01f5 05       		.byte	0x5
 5756 01f6 00       		.uleb128 0
ARM GAS  /tmp/ccKtbbXa.s 			page 102


 5757 01f7 96B00000 		.4byte	.LASF83
 5758 01fb 05       		.byte	0x5
 5759 01fc 00       		.uleb128 0
 5760 01fd B9230000 		.4byte	.LASF84
 5761 0201 05       		.byte	0x5
 5762 0202 00       		.uleb128 0
 5763 0203 2D500000 		.4byte	.LASF85
 5764 0207 05       		.byte	0x5
 5765 0208 00       		.uleb128 0
 5766 0209 A2420000 		.4byte	.LASF86
 5767 020d 05       		.byte	0x5
 5768 020e 00       		.uleb128 0
 5769 020f 8F4E0000 		.4byte	.LASF87
 5770 0213 05       		.byte	0x5
 5771 0214 00       		.uleb128 0
 5772 0215 DE490000 		.4byte	.LASF88
 5773 0219 05       		.byte	0x5
 5774 021a 00       		.uleb128 0
 5775 021b 01990000 		.4byte	.LASF89
 5776 021f 05       		.byte	0x5
 5777 0220 00       		.uleb128 0
 5778 0221 CD5F0000 		.4byte	.LASF90
 5779 0225 05       		.byte	0x5
 5780 0226 00       		.uleb128 0
 5781 0227 70C50000 		.4byte	.LASF91
 5782 022b 05       		.byte	0x5
 5783 022c 00       		.uleb128 0
 5784 022d F5820000 		.4byte	.LASF92
 5785 0231 05       		.byte	0x5
 5786 0232 00       		.uleb128 0
 5787 0233 62070000 		.4byte	.LASF93
 5788 0237 05       		.byte	0x5
 5789 0238 00       		.uleb128 0
 5790 0239 A9EC0000 		.4byte	.LASF94
 5791 023d 05       		.byte	0x5
 5792 023e 00       		.uleb128 0
 5793 023f F2580000 		.4byte	.LASF95
 5794 0243 05       		.byte	0x5
 5795 0244 00       		.uleb128 0
 5796 0245 BB950000 		.4byte	.LASF96
 5797 0249 05       		.byte	0x5
 5798 024a 00       		.uleb128 0
 5799 024b 38590000 		.4byte	.LASF97
 5800 024f 05       		.byte	0x5
 5801 0250 00       		.uleb128 0
 5802 0251 EB700000 		.4byte	.LASF98
 5803 0255 05       		.byte	0x5
 5804 0256 00       		.uleb128 0
 5805 0257 9C350000 		.4byte	.LASF99
 5806 025b 05       		.byte	0x5
 5807 025c 00       		.uleb128 0
 5808 025d CE130100 		.4byte	.LASF100
 5809 0261 05       		.byte	0x5
 5810 0262 00       		.uleb128 0
 5811 0263 552A0100 		.4byte	.LASF101
 5812 0267 05       		.byte	0x5
 5813 0268 00       		.uleb128 0
ARM GAS  /tmp/ccKtbbXa.s 			page 103


 5814 0269 8F400100 		.4byte	.LASF102
 5815 026d 05       		.byte	0x5
 5816 026e 00       		.uleb128 0
 5817 026f 0F230000 		.4byte	.LASF103
 5818 0273 05       		.byte	0x5
 5819 0274 00       		.uleb128 0
 5820 0275 B15C0000 		.4byte	.LASF104
 5821 0279 05       		.byte	0x5
 5822 027a 00       		.uleb128 0
 5823 027b 5B330000 		.4byte	.LASF105
 5824 027f 05       		.byte	0x5
 5825 0280 00       		.uleb128 0
 5826 0281 1E8E0000 		.4byte	.LASF106
 5827 0285 05       		.byte	0x5
 5828 0286 00       		.uleb128 0
 5829 0287 C9200000 		.4byte	.LASF107
 5830 028b 05       		.byte	0x5
 5831 028c 00       		.uleb128 0
 5832 028d 5A0F0100 		.4byte	.LASF108
 5833 0291 05       		.byte	0x5
 5834 0292 00       		.uleb128 0
 5835 0293 281E0000 		.4byte	.LASF109
 5836 0297 05       		.byte	0x5
 5837 0298 00       		.uleb128 0
 5838 0299 7E960000 		.4byte	.LASF110
 5839 029d 05       		.byte	0x5
 5840 029e 00       		.uleb128 0
 5841 029f 96A70000 		.4byte	.LASF111
 5842 02a3 05       		.byte	0x5
 5843 02a4 00       		.uleb128 0
 5844 02a5 CF8F0000 		.4byte	.LASF112
 5845 02a9 05       		.byte	0x5
 5846 02aa 00       		.uleb128 0
 5847 02ab F07F0000 		.4byte	.LASF113
 5848 02af 05       		.byte	0x5
 5849 02b0 00       		.uleb128 0
 5850 02b1 52F60000 		.4byte	.LASF114
 5851 02b5 05       		.byte	0x5
 5852 02b6 00       		.uleb128 0
 5853 02b7 39840000 		.4byte	.LASF115
 5854 02bb 05       		.byte	0x5
 5855 02bc 00       		.uleb128 0
 5856 02bd 5F400100 		.4byte	.LASF116
 5857 02c1 05       		.byte	0x5
 5858 02c2 00       		.uleb128 0
 5859 02c3 70470000 		.4byte	.LASF117
 5860 02c7 05       		.byte	0x5
 5861 02c8 00       		.uleb128 0
 5862 02c9 524D0000 		.4byte	.LASF118
 5863 02cd 05       		.byte	0x5
 5864 02ce 00       		.uleb128 0
 5865 02cf 71250000 		.4byte	.LASF119
 5866 02d3 05       		.byte	0x5
 5867 02d4 00       		.uleb128 0
 5868 02d5 21EB0000 		.4byte	.LASF120
 5869 02d9 05       		.byte	0x5
 5870 02da 00       		.uleb128 0
ARM GAS  /tmp/ccKtbbXa.s 			page 104


 5871 02db E0800000 		.4byte	.LASF121
 5872 02df 05       		.byte	0x5
 5873 02e0 00       		.uleb128 0
 5874 02e1 30330000 		.4byte	.LASF122
 5875 02e5 05       		.byte	0x5
 5876 02e6 00       		.uleb128 0
 5877 02e7 F45D0000 		.4byte	.LASF123
 5878 02eb 05       		.byte	0x5
 5879 02ec 00       		.uleb128 0
 5880 02ed CF3D0000 		.4byte	.LASF124
 5881 02f1 05       		.byte	0x5
 5882 02f2 00       		.uleb128 0
 5883 02f3 0A3E0000 		.4byte	.LASF125
 5884 02f7 05       		.byte	0x5
 5885 02f8 00       		.uleb128 0
 5886 02f9 88060000 		.4byte	.LASF126
 5887 02fd 05       		.byte	0x5
 5888 02fe 00       		.uleb128 0
 5889 02ff 54170000 		.4byte	.LASF127
 5890 0303 05       		.byte	0x5
 5891 0304 00       		.uleb128 0
 5892 0305 51F80000 		.4byte	.LASF128
 5893 0309 05       		.byte	0x5
 5894 030a 00       		.uleb128 0
 5895 030b 3B7F0000 		.4byte	.LASF129
 5896 030f 05       		.byte	0x5
 5897 0310 00       		.uleb128 0
 5898 0311 76220000 		.4byte	.LASF130
 5899 0315 05       		.byte	0x5
 5900 0316 00       		.uleb128 0
 5901 0317 16700000 		.4byte	.LASF131
 5902 031b 05       		.byte	0x5
 5903 031c 00       		.uleb128 0
 5904 031d C29C0000 		.4byte	.LASF132
 5905 0321 05       		.byte	0x5
 5906 0322 00       		.uleb128 0
 5907 0323 3B990000 		.4byte	.LASF133
 5908 0327 05       		.byte	0x5
 5909 0328 00       		.uleb128 0
 5910 0329 F2FC0000 		.4byte	.LASF134
 5911 032d 05       		.byte	0x5
 5912 032e 00       		.uleb128 0
 5913 032f 80100000 		.4byte	.LASF135
 5914 0333 05       		.byte	0x5
 5915 0334 00       		.uleb128 0
 5916 0335 D6B00000 		.4byte	.LASF136
 5917 0339 05       		.byte	0x5
 5918 033a 00       		.uleb128 0
 5919 033b 1DD80000 		.4byte	.LASF137
 5920 033f 05       		.byte	0x5
 5921 0340 00       		.uleb128 0
 5922 0341 F5170100 		.4byte	.LASF138
 5923 0345 05       		.byte	0x5
 5924 0346 00       		.uleb128 0
 5925 0347 518A0000 		.4byte	.LASF139
 5926 034b 05       		.byte	0x5
 5927 034c 00       		.uleb128 0
ARM GAS  /tmp/ccKtbbXa.s 			page 105


 5928 034d 05390000 		.4byte	.LASF140
 5929 0351 05       		.byte	0x5
 5930 0352 00       		.uleb128 0
 5931 0353 82250100 		.4byte	.LASF141
 5932 0357 05       		.byte	0x5
 5933 0358 00       		.uleb128 0
 5934 0359 435F0000 		.4byte	.LASF142
 5935 035d 05       		.byte	0x5
 5936 035e 00       		.uleb128 0
 5937 035f AE2D0100 		.4byte	.LASF143
 5938 0363 05       		.byte	0x5
 5939 0364 00       		.uleb128 0
 5940 0365 745E0000 		.4byte	.LASF144
 5941 0369 05       		.byte	0x5
 5942 036a 00       		.uleb128 0
 5943 036b 61590000 		.4byte	.LASF145
 5944 036f 05       		.byte	0x5
 5945 0370 00       		.uleb128 0
 5946 0371 9D4B0000 		.4byte	.LASF146
 5947 0375 05       		.byte	0x5
 5948 0376 00       		.uleb128 0
 5949 0377 D85C0000 		.4byte	.LASF147
 5950 037b 05       		.byte	0x5
 5951 037c 00       		.uleb128 0
 5952 037d 65410000 		.4byte	.LASF148
 5953 0381 05       		.byte	0x5
 5954 0382 00       		.uleb128 0
 5955 0383 78E80000 		.4byte	.LASF149
 5956 0387 05       		.byte	0x5
 5957 0388 00       		.uleb128 0
 5958 0389 6FF80000 		.4byte	.LASF150
 5959 038d 05       		.byte	0x5
 5960 038e 00       		.uleb128 0
 5961 038f BAEE0000 		.4byte	.LASF151
 5962 0393 05       		.byte	0x5
 5963 0394 00       		.uleb128 0
 5964 0395 F3930000 		.4byte	.LASF152
 5965 0399 05       		.byte	0x5
 5966 039a 00       		.uleb128 0
 5967 039b 8B010000 		.4byte	.LASF153
 5968 039f 05       		.byte	0x5
 5969 03a0 00       		.uleb128 0
 5970 03a1 DA180100 		.4byte	.LASF154
 5971 03a5 05       		.byte	0x5
 5972 03a6 00       		.uleb128 0
 5973 03a7 E0460000 		.4byte	.LASF155
 5974 03ab 05       		.byte	0x5
 5975 03ac 00       		.uleb128 0
 5976 03ad 9B3F0100 		.4byte	.LASF156
 5977 03b1 05       		.byte	0x5
 5978 03b2 00       		.uleb128 0
 5979 03b3 6A310100 		.4byte	.LASF157
 5980 03b7 05       		.byte	0x5
 5981 03b8 00       		.uleb128 0
 5982 03b9 6C170000 		.4byte	.LASF158
 5983 03bd 05       		.byte	0x5
 5984 03be 00       		.uleb128 0
ARM GAS  /tmp/ccKtbbXa.s 			page 106


 5985 03bf 45790000 		.4byte	.LASF159
 5986 03c3 05       		.byte	0x5
 5987 03c4 00       		.uleb128 0
 5988 03c5 9E6D0000 		.4byte	.LASF160
 5989 03c9 05       		.byte	0x5
 5990 03ca 00       		.uleb128 0
 5991 03cb 74420000 		.4byte	.LASF161
 5992 03cf 05       		.byte	0x5
 5993 03d0 00       		.uleb128 0
 5994 03d1 C7370000 		.4byte	.LASF162
 5995 03d5 05       		.byte	0x5
 5996 03d6 00       		.uleb128 0
 5997 03d7 B51D0100 		.4byte	.LASF163
 5998 03db 05       		.byte	0x5
 5999 03dc 00       		.uleb128 0
 6000 03dd F43F0000 		.4byte	.LASF164
 6001 03e1 05       		.byte	0x5
 6002 03e2 00       		.uleb128 0
 6003 03e3 73940000 		.4byte	.LASF165
 6004 03e7 05       		.byte	0x5
 6005 03e8 00       		.uleb128 0
 6006 03e9 490F0000 		.4byte	.LASF166
 6007 03ed 05       		.byte	0x5
 6008 03ee 00       		.uleb128 0
 6009 03ef 2E550000 		.4byte	.LASF167
 6010 03f3 05       		.byte	0x5
 6011 03f4 00       		.uleb128 0
 6012 03f5 F0B00000 		.4byte	.LASF168
 6013 03f9 05       		.byte	0x5
 6014 03fa 00       		.uleb128 0
 6015 03fb D5C70000 		.4byte	.LASF169
 6016 03ff 05       		.byte	0x5
 6017 0400 00       		.uleb128 0
 6018 0401 D53C0000 		.4byte	.LASF170
 6019 0405 05       		.byte	0x5
 6020 0406 00       		.uleb128 0
 6021 0407 55030000 		.4byte	.LASF171
 6022 040b 05       		.byte	0x5
 6023 040c 00       		.uleb128 0
 6024 040d 34310100 		.4byte	.LASF172
 6025 0411 05       		.byte	0x5
 6026 0412 00       		.uleb128 0
 6027 0413 E8C80000 		.4byte	.LASF173
 6028 0417 05       		.byte	0x5
 6029 0418 00       		.uleb128 0
 6030 0419 C41E0000 		.4byte	.LASF174
 6031 041d 05       		.byte	0x5
 6032 041e 00       		.uleb128 0
 6033 041f 222B0100 		.4byte	.LASF175
 6034 0423 05       		.byte	0x5
 6035 0424 00       		.uleb128 0
 6036 0425 F0E60000 		.4byte	.LASF176
 6037 0429 05       		.byte	0x5
 6038 042a 00       		.uleb128 0
 6039 042b 1CD50000 		.4byte	.LASF177
 6040 042f 05       		.byte	0x5
 6041 0430 00       		.uleb128 0
ARM GAS  /tmp/ccKtbbXa.s 			page 107


 6042 0431 8F3F0000 		.4byte	.LASF178
 6043 0435 05       		.byte	0x5
 6044 0436 00       		.uleb128 0
 6045 0437 3A2B0100 		.4byte	.LASF179
 6046 043b 05       		.byte	0x5
 6047 043c 00       		.uleb128 0
 6048 043d 12FD0000 		.4byte	.LASF180
 6049 0441 05       		.byte	0x5
 6050 0442 00       		.uleb128 0
 6051 0443 801E0100 		.4byte	.LASF181
 6052 0447 05       		.byte	0x5
 6053 0448 00       		.uleb128 0
 6054 0449 05380000 		.4byte	.LASF182
 6055 044d 05       		.byte	0x5
 6056 044e 00       		.uleb128 0
 6057 044f 312B0000 		.4byte	.LASF183
 6058 0453 05       		.byte	0x5
 6059 0454 00       		.uleb128 0
 6060 0455 463E0000 		.4byte	.LASF184
 6061 0459 05       		.byte	0x5
 6062 045a 00       		.uleb128 0
 6063 045b D6200100 		.4byte	.LASF185
 6064 045f 05       		.byte	0x5
 6065 0460 00       		.uleb128 0
 6066 0461 65860000 		.4byte	.LASF186
 6067 0465 05       		.byte	0x5
 6068 0466 00       		.uleb128 0
 6069 0467 DB5E0000 		.4byte	.LASF187
 6070 046b 05       		.byte	0x5
 6071 046c 00       		.uleb128 0
 6072 046d D4980000 		.4byte	.LASF188
 6073 0471 05       		.byte	0x5
 6074 0472 00       		.uleb128 0
 6075 0473 CDB30000 		.4byte	.LASF189
 6076 0477 05       		.byte	0x5
 6077 0478 00       		.uleb128 0
 6078 0479 D5A10000 		.4byte	.LASF190
 6079 047d 05       		.byte	0x5
 6080 047e 00       		.uleb128 0
 6081 047f 77E40000 		.4byte	.LASF191
 6082 0483 05       		.byte	0x5
 6083 0484 00       		.uleb128 0
 6084 0485 80370000 		.4byte	.LASF192
 6085 0489 05       		.byte	0x5
 6086 048a 00       		.uleb128 0
 6087 048b 45030000 		.4byte	.LASF193
 6088 048f 05       		.byte	0x5
 6089 0490 00       		.uleb128 0
 6090 0491 303F0000 		.4byte	.LASF194
 6091 0495 05       		.byte	0x5
 6092 0496 00       		.uleb128 0
 6093 0497 FA2C0000 		.4byte	.LASF195
 6094 049b 05       		.byte	0x5
 6095 049c 00       		.uleb128 0
 6096 049d D70D0000 		.4byte	.LASF196
 6097 04a1 05       		.byte	0x5
 6098 04a2 00       		.uleb128 0
ARM GAS  /tmp/ccKtbbXa.s 			page 108


 6099 04a3 7CB20000 		.4byte	.LASF197
 6100 04a7 05       		.byte	0x5
 6101 04a8 00       		.uleb128 0
 6102 04a9 E5550000 		.4byte	.LASF198
 6103 04ad 05       		.byte	0x5
 6104 04ae 00       		.uleb128 0
 6105 04af B1BB0000 		.4byte	.LASF199
 6106 04b3 05       		.byte	0x5
 6107 04b4 00       		.uleb128 0
 6108 04b5 71310000 		.4byte	.LASF200
 6109 04b9 05       		.byte	0x5
 6110 04ba 00       		.uleb128 0
 6111 04bb 49F70000 		.4byte	.LASF201
 6112 04bf 05       		.byte	0x5
 6113 04c0 00       		.uleb128 0
 6114 04c1 EE340000 		.4byte	.LASF202
 6115 04c5 05       		.byte	0x5
 6116 04c6 00       		.uleb128 0
 6117 04c7 5C540000 		.4byte	.LASF203
 6118 04cb 05       		.byte	0x5
 6119 04cc 00       		.uleb128 0
 6120 04cd 9AD20000 		.4byte	.LASF204
 6121 04d1 05       		.byte	0x5
 6122 04d2 00       		.uleb128 0
 6123 04d3 80080000 		.4byte	.LASF205
 6124 04d7 05       		.byte	0x5
 6125 04d8 00       		.uleb128 0
 6126 04d9 52240100 		.4byte	.LASF206
 6127 04dd 05       		.byte	0x5
 6128 04de 00       		.uleb128 0
 6129 04df B71C0000 		.4byte	.LASF207
 6130 04e3 05       		.byte	0x5
 6131 04e4 00       		.uleb128 0
 6132 04e5 F3060000 		.4byte	.LASF208
 6133 04e9 05       		.byte	0x5
 6134 04ea 00       		.uleb128 0
 6135 04eb EE620000 		.4byte	.LASF209
 6136 04ef 05       		.byte	0x5
 6137 04f0 00       		.uleb128 0
 6138 04f1 D4060100 		.4byte	.LASF210
 6139 04f5 05       		.byte	0x5
 6140 04f6 00       		.uleb128 0
 6141 04f7 8A090000 		.4byte	.LASF211
 6142 04fb 05       		.byte	0x5
 6143 04fc 00       		.uleb128 0
 6144 04fd 9BB80000 		.4byte	.LASF212
 6145 0501 05       		.byte	0x5
 6146 0502 00       		.uleb128 0
 6147 0503 6FC90000 		.4byte	.LASF213
 6148 0507 05       		.byte	0x5
 6149 0508 00       		.uleb128 0
 6150 0509 DC170100 		.4byte	.LASF214
 6151 050d 05       		.byte	0x5
 6152 050e 00       		.uleb128 0
 6153 050f DDE70000 		.4byte	.LASF215
 6154 0513 05       		.byte	0x5
 6155 0514 00       		.uleb128 0
ARM GAS  /tmp/ccKtbbXa.s 			page 109


 6156 0515 C6A70000 		.4byte	.LASF216
 6157 0519 05       		.byte	0x5
 6158 051a 00       		.uleb128 0
 6159 051b ADB00000 		.4byte	.LASF217
 6160 051f 05       		.byte	0x5
 6161 0520 00       		.uleb128 0
 6162 0521 BAE30000 		.4byte	.LASF218
 6163 0525 05       		.byte	0x5
 6164 0526 00       		.uleb128 0
 6165 0527 2B210100 		.4byte	.LASF219
 6166 052b 05       		.byte	0x5
 6167 052c 00       		.uleb128 0
 6168 052d 1D310100 		.4byte	.LASF220
 6169 0531 05       		.byte	0x5
 6170 0532 00       		.uleb128 0
 6171 0533 44DB0000 		.4byte	.LASF221
 6172 0537 05       		.byte	0x5
 6173 0538 00       		.uleb128 0
 6174 0539 28070100 		.4byte	.LASF222
 6175 053d 05       		.byte	0x5
 6176 053e 00       		.uleb128 0
 6177 053f C3AB0000 		.4byte	.LASF223
 6178 0543 05       		.byte	0x5
 6179 0544 00       		.uleb128 0
 6180 0545 AD5E0000 		.4byte	.LASF224
 6181 0549 05       		.byte	0x5
 6182 054a 00       		.uleb128 0
 6183 054b 790A0100 		.4byte	.LASF225
 6184 054f 05       		.byte	0x5
 6185 0550 00       		.uleb128 0
 6186 0551 512D0100 		.4byte	.LASF226
 6187 0555 05       		.byte	0x5
 6188 0556 00       		.uleb128 0
 6189 0557 50370000 		.4byte	.LASF227
 6190 055b 05       		.byte	0x5
 6191 055c 00       		.uleb128 0
 6192 055d 95230000 		.4byte	.LASF228
 6193 0561 05       		.byte	0x5
 6194 0562 00       		.uleb128 0
 6195 0563 B8640000 		.4byte	.LASF229
 6196 0567 05       		.byte	0x5
 6197 0568 00       		.uleb128 0
 6198 0569 87030000 		.4byte	.LASF230
 6199 056d 05       		.byte	0x5
 6200 056e 00       		.uleb128 0
 6201 056f DC790000 		.4byte	.LASF231
 6202 0573 05       		.byte	0x5
 6203 0574 00       		.uleb128 0
 6204 0575 21330100 		.4byte	.LASF232
 6205 0579 05       		.byte	0x5
 6206 057a 00       		.uleb128 0
 6207 057b A48A0000 		.4byte	.LASF233
 6208 057f 05       		.byte	0x5
 6209 0580 00       		.uleb128 0
 6210 0581 B22B0000 		.4byte	.LASF234
 6211 0585 05       		.byte	0x5
 6212 0586 00       		.uleb128 0
ARM GAS  /tmp/ccKtbbXa.s 			page 110


 6213 0587 07240100 		.4byte	.LASF235
 6214 058b 05       		.byte	0x5
 6215 058c 00       		.uleb128 0
 6216 058d A5320000 		.4byte	.LASF236
 6217 0591 05       		.byte	0x5
 6218 0592 00       		.uleb128 0
 6219 0593 011D0100 		.4byte	.LASF237
 6220 0597 05       		.byte	0x5
 6221 0598 00       		.uleb128 0
 6222 0599 4A540000 		.4byte	.LASF238
 6223 059d 05       		.byte	0x5
 6224 059e 00       		.uleb128 0
 6225 059f CC4A0000 		.4byte	.LASF239
 6226 05a3 05       		.byte	0x5
 6227 05a4 00       		.uleb128 0
 6228 05a5 23A10000 		.4byte	.LASF240
 6229 05a9 05       		.byte	0x5
 6230 05aa 00       		.uleb128 0
 6231 05ab 152F0100 		.4byte	.LASF241
 6232 05af 05       		.byte	0x5
 6233 05b0 00       		.uleb128 0
 6234 05b1 CAD10000 		.4byte	.LASF242
 6235 05b5 05       		.byte	0x5
 6236 05b6 00       		.uleb128 0
 6237 05b7 C41A0100 		.4byte	.LASF243
 6238 05bb 05       		.byte	0x5
 6239 05bc 00       		.uleb128 0
 6240 05bd 172D0100 		.4byte	.LASF244
 6241 05c1 05       		.byte	0x5
 6242 05c2 00       		.uleb128 0
 6243 05c3 411E0000 		.4byte	.LASF245
 6244 05c7 05       		.byte	0x5
 6245 05c8 00       		.uleb128 0
 6246 05c9 43BB0000 		.4byte	.LASF246
 6247 05cd 05       		.byte	0x5
 6248 05ce 00       		.uleb128 0
 6249 05cf 8FEB0000 		.4byte	.LASF247
 6250 05d3 05       		.byte	0x5
 6251 05d4 00       		.uleb128 0
 6252 05d5 2E700000 		.4byte	.LASF248
 6253 05d9 05       		.byte	0x5
 6254 05da 00       		.uleb128 0
 6255 05db 9EC40000 		.4byte	.LASF249
 6256 05df 05       		.byte	0x5
 6257 05e0 00       		.uleb128 0
 6258 05e1 E6670000 		.4byte	.LASF250
 6259 05e5 05       		.byte	0x5
 6260 05e6 00       		.uleb128 0
 6261 05e7 18890000 		.4byte	.LASF251
 6262 05eb 05       		.byte	0x5
 6263 05ec 00       		.uleb128 0
 6264 05ed 5A610000 		.4byte	.LASF252
 6265 05f1 05       		.byte	0x5
 6266 05f2 00       		.uleb128 0
 6267 05f3 3AF00000 		.4byte	.LASF253
 6268 05f7 05       		.byte	0x5
 6269 05f8 00       		.uleb128 0
ARM GAS  /tmp/ccKtbbXa.s 			page 111


 6270 05f9 922A0100 		.4byte	.LASF254
 6271 05fd 05       		.byte	0x5
 6272 05fe 00       		.uleb128 0
 6273 05ff A7400000 		.4byte	.LASF255
 6274 0603 05       		.byte	0x5
 6275 0604 00       		.uleb128 0
 6276 0605 21EC0000 		.4byte	.LASF256
 6277 0609 05       		.byte	0x5
 6278 060a 00       		.uleb128 0
 6279 060b D19A0000 		.4byte	.LASF257
 6280 060f 05       		.byte	0x5
 6281 0610 00       		.uleb128 0
 6282 0611 AB940000 		.4byte	.LASF258
 6283 0615 05       		.byte	0x5
 6284 0616 00       		.uleb128 0
 6285 0617 203A0000 		.4byte	.LASF259
 6286 061b 05       		.byte	0x5
 6287 061c 00       		.uleb128 0
 6288 061d 6DDE0000 		.4byte	.LASF260
 6289 0621 05       		.byte	0x5
 6290 0622 00       		.uleb128 0
 6291 0623 45860000 		.4byte	.LASF261
 6292 0627 05       		.byte	0x5
 6293 0628 00       		.uleb128 0
 6294 0629 2B1D0100 		.4byte	.LASF262
 6295 062d 05       		.byte	0x5
 6296 062e 00       		.uleb128 0
 6297 062f 01680000 		.4byte	.LASF263
 6298 0633 05       		.byte	0x5
 6299 0634 00       		.uleb128 0
 6300 0635 36FA0000 		.4byte	.LASF264
 6301 0639 05       		.byte	0x5
 6302 063a 00       		.uleb128 0
 6303 063b 84F10000 		.4byte	.LASF265
 6304 063f 05       		.byte	0x5
 6305 0640 00       		.uleb128 0
 6306 0641 CCD50000 		.4byte	.LASF266
 6307 0645 05       		.byte	0x5
 6308 0646 00       		.uleb128 0
 6309 0647 A0E10000 		.4byte	.LASF267
 6310 064b 05       		.byte	0x5
 6311 064c 00       		.uleb128 0
 6312 064d 601B0100 		.4byte	.LASF268
 6313 0651 05       		.byte	0x5
 6314 0652 00       		.uleb128 0
 6315 0653 87D20000 		.4byte	.LASF269
 6316 0657 05       		.byte	0x5
 6317 0658 00       		.uleb128 0
 6318 0659 5C3F0000 		.4byte	.LASF270
 6319 065d 05       		.byte	0x5
 6320 065e 00       		.uleb128 0
 6321 065f F43B0100 		.4byte	.LASF271
 6322 0663 05       		.byte	0x5
 6323 0664 00       		.uleb128 0
 6324 0665 E06F0000 		.4byte	.LASF272
 6325 0669 05       		.byte	0x5
 6326 066a 00       		.uleb128 0
ARM GAS  /tmp/ccKtbbXa.s 			page 112


 6327 066b B0E70000 		.4byte	.LASF273
 6328 066f 05       		.byte	0x5
 6329 0670 00       		.uleb128 0
 6330 0671 770D0000 		.4byte	.LASF274
 6331 0675 05       		.byte	0x5
 6332 0676 00       		.uleb128 0
 6333 0677 024A0000 		.4byte	.LASF275
 6334 067b 05       		.byte	0x5
 6335 067c 00       		.uleb128 0
 6336 067d 3C740000 		.4byte	.LASF276
 6337 0681 05       		.byte	0x5
 6338 0682 00       		.uleb128 0
 6339 0683 77270100 		.4byte	.LASF277
 6340 0687 05       		.byte	0x5
 6341 0688 00       		.uleb128 0
 6342 0689 25D40000 		.4byte	.LASF278
 6343 068d 05       		.byte	0x5
 6344 068e 00       		.uleb128 0
 6345 068f 38300000 		.4byte	.LASF279
 6346 0693 05       		.byte	0x5
 6347 0694 00       		.uleb128 0
 6348 0695 AE090100 		.4byte	.LASF280
 6349 0699 05       		.byte	0x5
 6350 069a 00       		.uleb128 0
 6351 069b 8B860000 		.4byte	.LASF281
 6352 069f 05       		.byte	0x5
 6353 06a0 00       		.uleb128 0
 6354 06a1 F5E30000 		.4byte	.LASF282
 6355 06a5 05       		.byte	0x5
 6356 06a6 00       		.uleb128 0
 6357 06a7 EF450000 		.4byte	.LASF283
 6358 06ab 05       		.byte	0x5
 6359 06ac 00       		.uleb128 0
 6360 06ad 27F00000 		.4byte	.LASF284
 6361 06b1 05       		.byte	0x5
 6362 06b2 00       		.uleb128 0
 6363 06b3 CF320000 		.4byte	.LASF285
 6364 06b7 05       		.byte	0x5
 6365 06b8 00       		.uleb128 0
 6366 06b9 08950000 		.4byte	.LASF286
 6367 06bd 05       		.byte	0x5
 6368 06be 00       		.uleb128 0
 6369 06bf 10980000 		.4byte	.LASF287
 6370 06c3 05       		.byte	0x5
 6371 06c4 00       		.uleb128 0
 6372 06c5 B67F0000 		.4byte	.LASF288
 6373 06c9 05       		.byte	0x5
 6374 06ca 00       		.uleb128 0
 6375 06cb FC810000 		.4byte	.LASF289
 6376 06cf 05       		.byte	0x5
 6377 06d0 00       		.uleb128 0
 6378 06d1 A10E0000 		.4byte	.LASF290
 6379 06d5 05       		.byte	0x5
 6380 06d6 00       		.uleb128 0
 6381 06d7 59060100 		.4byte	.LASF291
 6382 06db 05       		.byte	0x5
 6383 06dc 00       		.uleb128 0
ARM GAS  /tmp/ccKtbbXa.s 			page 113


 6384 06dd 03600000 		.4byte	.LASF292
 6385 06e1 05       		.byte	0x5
 6386 06e2 00       		.uleb128 0
 6387 06e3 57000000 		.4byte	.LASF293
 6388 06e7 05       		.byte	0x5
 6389 06e8 00       		.uleb128 0
 6390 06e9 B2030000 		.4byte	.LASF294
 6391 06ed 05       		.byte	0x5
 6392 06ee 00       		.uleb128 0
 6393 06ef F5750000 		.4byte	.LASF295
 6394 06f3 05       		.byte	0x5
 6395 06f4 00       		.uleb128 0
 6396 06f5 F5310100 		.4byte	.LASF296
 6397 06f9 05       		.byte	0x5
 6398 06fa 00       		.uleb128 0
 6399 06fb 37170000 		.4byte	.LASF297
 6400 06ff 05       		.byte	0x5
 6401 0700 00       		.uleb128 0
 6402 0701 85A10000 		.4byte	.LASF298
 6403 0705 05       		.byte	0x5
 6404 0706 00       		.uleb128 0
 6405 0707 1B0F0100 		.4byte	.LASF299
 6406 070b 05       		.byte	0x5
 6407 070c 00       		.uleb128 0
 6408 070d 17990000 		.4byte	.LASF300
 6409 0711 05       		.byte	0x5
 6410 0712 00       		.uleb128 0
 6411 0713 63600000 		.4byte	.LASF301
 6412 0717 05       		.byte	0x5
 6413 0718 00       		.uleb128 0
 6414 0719 14000000 		.4byte	.LASF302
 6415 071d 05       		.byte	0x5
 6416 071e 00       		.uleb128 0
 6417 071f D6590000 		.4byte	.LASF303
 6418 0723 05       		.byte	0x5
 6419 0724 00       		.uleb128 0
 6420 0725 FF5B0000 		.4byte	.LASF304
 6421 0729 05       		.byte	0x5
 6422 072a 00       		.uleb128 0
 6423 072b BEA10000 		.4byte	.LASF305
 6424 072f 05       		.byte	0x5
 6425 0730 00       		.uleb128 0
 6426 0731 C1700000 		.4byte	.LASF306
 6427 0735 05       		.byte	0x5
 6428 0736 00       		.uleb128 0
 6429 0737 56E10000 		.4byte	.LASF307
 6430 073b 05       		.byte	0x5
 6431 073c 00       		.uleb128 0
 6432 073d 06FF0000 		.4byte	.LASF308
 6433 0741 05       		.byte	0x5
 6434 0742 00       		.uleb128 0
 6435 0743 4ED40000 		.4byte	.LASF309
 6436 0747 05       		.byte	0x5
 6437 0748 00       		.uleb128 0
 6438 0749 9E220000 		.4byte	.LASF310
 6439 074d 05       		.byte	0x5
 6440 074e 00       		.uleb128 0
ARM GAS  /tmp/ccKtbbXa.s 			page 114


 6441 074f 480E0000 		.4byte	.LASF311
 6442 0753 05       		.byte	0x5
 6443 0754 00       		.uleb128 0
 6444 0755 A6980000 		.4byte	.LASF312
 6445 0759 05       		.byte	0x5
 6446 075a 00       		.uleb128 0
 6447 075b 3FE40000 		.4byte	.LASF313
 6448 075f 05       		.byte	0x5
 6449 0760 00       		.uleb128 0
 6450 0761 F82D0000 		.4byte	.LASF314
 6451 0765 05       		.byte	0x5
 6452 0766 00       		.uleb128 0
 6453 0767 FC420000 		.4byte	.LASF315
 6454 076b 05       		.byte	0x5
 6455 076c 00       		.uleb128 0
 6456 076d CC2D0000 		.4byte	.LASF316
 6457 0771 05       		.byte	0x5
 6458 0772 00       		.uleb128 0
 6459 0773 77AC0000 		.4byte	.LASF317
 6460 0777 05       		.byte	0x5
 6461 0778 00       		.uleb128 0
 6462 0779 42A20000 		.4byte	.LASF318
 6463 077d 05       		.byte	0x5
 6464 077e 00       		.uleb128 0
 6465 077f 193B0000 		.4byte	.LASF319
 6466 0783 05       		.byte	0x5
 6467 0784 00       		.uleb128 0
 6468 0785 37D40000 		.4byte	.LASF320
 6469 0789 05       		.byte	0x5
 6470 078a 00       		.uleb128 0
 6471 078b C8240100 		.4byte	.LASF321
 6472 078f 05       		.byte	0x5
 6473 0790 00       		.uleb128 0
 6474 0791 BE5F0000 		.4byte	.LASF322
 6475 0795 05       		.byte	0x5
 6476 0796 00       		.uleb128 0
 6477 0797 099E0000 		.4byte	.LASF323
 6478 079b 05       		.byte	0x5
 6479 079c 00       		.uleb128 0
 6480 079d 28170000 		.4byte	.LASF324
 6481 07a1 05       		.byte	0x5
 6482 07a2 00       		.uleb128 0
 6483 07a3 CFE70000 		.4byte	.LASF325
 6484 07a7 05       		.byte	0x5
 6485 07a8 00       		.uleb128 0
 6486 07a9 E1F10000 		.4byte	.LASF326
 6487 07ad 05       		.byte	0x5
 6488 07ae 00       		.uleb128 0
 6489 07af 38320100 		.4byte	.LASF327
 6490 07b3 05       		.byte	0x5
 6491 07b4 00       		.uleb128 0
 6492 07b5 C95C0000 		.4byte	.LASF328
 6493 07b9 05       		.byte	0x5
 6494 07ba 00       		.uleb128 0
 6495 07bb 69E80000 		.4byte	.LASF329
 6496 07bf 05       		.byte	0x5
 6497 07c0 00       		.uleb128 0
ARM GAS  /tmp/ccKtbbXa.s 			page 115


 6498 07c1 616A0000 		.4byte	.LASF330
 6499 07c5 05       		.byte	0x5
 6500 07c6 00       		.uleb128 0
 6501 07c7 979F0000 		.4byte	.LASF331
 6502 07cb 05       		.byte	0x5
 6503 07cc 00       		.uleb128 0
 6504 07cd B7C30000 		.4byte	.LASF332
 6505 07d1 05       		.byte	0x5
 6506 07d2 00       		.uleb128 0
 6507 07d3 B7A70000 		.4byte	.LASF333
 6508 07d7 05       		.byte	0x5
 6509 07d8 00       		.uleb128 0
 6510 07d9 17F40000 		.4byte	.LASF334
 6511 07dd 05       		.byte	0x5
 6512 07de 00       		.uleb128 0
 6513 07df B7410000 		.4byte	.LASF335
 6514 07e3 05       		.byte	0x5
 6515 07e4 00       		.uleb128 0
 6516 07e5 3BD00000 		.4byte	.LASF336
 6517 07e9 05       		.byte	0x5
 6518 07ea 00       		.uleb128 0
 6519 07eb 6C900000 		.4byte	.LASF337
 6520 07ef 05       		.byte	0x5
 6521 07f0 00       		.uleb128 0
 6522 07f1 9A750000 		.4byte	.LASF338
 6523 07f5 05       		.byte	0x5
 6524 07f6 00       		.uleb128 0
 6525 07f7 9BF10000 		.4byte	.LASF339
 6526 07fb 05       		.byte	0x5
 6527 07fc 00       		.uleb128 0
 6528 07fd ED0D0000 		.4byte	.LASF340
 6529 0801 05       		.byte	0x5
 6530 0802 00       		.uleb128 0
 6531 0803 22110000 		.4byte	.LASF341
 6532 0807 05       		.byte	0x5
 6533 0808 00       		.uleb128 0
 6534 0809 3AF70000 		.4byte	.LASF342
 6535 080d 05       		.byte	0x5
 6536 080e 00       		.uleb128 0
 6537 080f 5DF90000 		.4byte	.LASF343
 6538 0813 05       		.byte	0x5
 6539 0814 00       		.uleb128 0
 6540 0815 C7200100 		.4byte	.LASF344
 6541 0819 05       		.byte	0x5
 6542 081a 00       		.uleb128 0
 6543 081b 88230100 		.4byte	.LASF345
 6544 081f 05       		.byte	0x5
 6545 0820 00       		.uleb128 0
 6546 0821 1E270100 		.4byte	.LASF346
 6547 0825 05       		.byte	0x5
 6548 0826 00       		.uleb128 0
 6549 0827 2E3B0100 		.4byte	.LASF347
 6550 082b 05       		.byte	0x5
 6551 082c 00       		.uleb128 0
 6552 082d 965E0000 		.4byte	.LASF348
 6553 0831 05       		.byte	0x5
 6554 0832 00       		.uleb128 0
ARM GAS  /tmp/ccKtbbXa.s 			page 116


 6555 0833 F35F0000 		.4byte	.LASF349
 6556 0837 05       		.byte	0x5
 6557 0838 00       		.uleb128 0
 6558 0839 720E0000 		.4byte	.LASF350
 6559 083d 05       		.byte	0x5
 6560 083e 00       		.uleb128 0
 6561 083f DA110000 		.4byte	.LASF351
 6562 0843 05       		.byte	0x5
 6563 0844 00       		.uleb128 0
 6564 0845 B7370000 		.4byte	.LASF352
 6565 0849 05       		.byte	0x5
 6566 084a 00       		.uleb128 0
 6567 084b F5380000 		.4byte	.LASF353
 6568 084f 05       		.byte	0x5
 6569 0850 00       		.uleb128 0
 6570 0851 F8C30000 		.4byte	.LASF354
 6571 0855 05       		.byte	0x5
 6572 0856 00       		.uleb128 0
 6573 0857 653A0000 		.4byte	.LASF355
 6574 085b 05       		.byte	0x5
 6575 085c 00       		.uleb128 0
 6576 085d C9CA0000 		.4byte	.LASF356
 6577 0861 05       		.byte	0x5
 6578 0862 00       		.uleb128 0
 6579 0863 A02B0100 		.4byte	.LASF357
 6580 0867 05       		.byte	0x5
 6581 0868 00       		.uleb128 0
 6582 0869 EC710000 		.4byte	.LASF358
 6583 086d 05       		.byte	0x5
 6584 086e 00       		.uleb128 0
 6585 086f 4EA10000 		.4byte	.LASF359
 6586 0873 05       		.byte	0x5
 6587 0874 00       		.uleb128 0
 6588 0875 4AC90000 		.4byte	.LASF360
 6589 0879 05       		.byte	0x5
 6590 087a 00       		.uleb128 0
 6591 087b 65040100 		.4byte	.LASF361
 6592 087f 05       		.byte	0x5
 6593 0880 00       		.uleb128 0
 6594 0881 24F80000 		.4byte	.LASF362
 6595 0885 05       		.byte	0x5
 6596 0886 00       		.uleb128 0
 6597 0887 C5220000 		.4byte	.LASF363
 6598 088b 05       		.byte	0x5
 6599 088c 00       		.uleb128 0
 6600 088d 3DCA0000 		.4byte	.LASF364
 6601 0891 05       		.byte	0x5
 6602 0892 00       		.uleb128 0
 6603 0893 07650000 		.4byte	.LASF365
 6604 0897 05       		.byte	0x5
 6605 0898 00       		.uleb128 0
 6606 0899 3F1B0100 		.4byte	.LASF366
 6607 089d 05       		.byte	0x5
 6608 089e 00       		.uleb128 0
 6609 089f 9AD50000 		.4byte	.LASF367
 6610 08a3 05       		.byte	0x5
 6611 08a4 00       		.uleb128 0
ARM GAS  /tmp/ccKtbbXa.s 			page 117


 6612 08a5 EA610000 		.4byte	.LASF368
 6613 08a9 05       		.byte	0x5
 6614 08aa 00       		.uleb128 0
 6615 08ab B5690000 		.4byte	.LASF369
 6616 08af 05       		.byte	0x5
 6617 08b0 00       		.uleb128 0
 6618 08b1 28E10000 		.4byte	.LASF370
 6619 08b5 05       		.byte	0x5
 6620 08b6 00       		.uleb128 0
 6621 08b7 9A460000 		.4byte	.LASF371
 6622 08bb 05       		.byte	0x5
 6623 08bc 00       		.uleb128 0
 6624 08bd 06B20000 		.4byte	.LASF372
 6625 08c1 05       		.byte	0x5
 6626 08c2 00       		.uleb128 0
 6627 08c3 A8280000 		.4byte	.LASF373
 6628 08c7 05       		.byte	0x5
 6629 08c8 00       		.uleb128 0
 6630 08c9 90720000 		.4byte	.LASF374
 6631 08cd 05       		.byte	0x5
 6632 08ce 00       		.uleb128 0
 6633 08cf 81250000 		.4byte	.LASF375
 6634 08d3 05       		.byte	0x5
 6635 08d4 00       		.uleb128 0
 6636 08d5 EA940000 		.4byte	.LASF376
 6637 08d9 05       		.byte	0x5
 6638 08da 00       		.uleb128 0
 6639 08db 11910000 		.4byte	.LASF377
 6640 08df 05       		.byte	0x5
 6641 08e0 00       		.uleb128 0
 6642 08e1 537F0000 		.4byte	.LASF378
 6643 08e5 05       		.byte	0x5
 6644 08e6 00       		.uleb128 0
 6645 08e7 90E40000 		.4byte	.LASF379
 6646 08eb 05       		.byte	0x5
 6647 08ec 00       		.uleb128 0
 6648 08ed A7800000 		.4byte	.LASF380
 6649 08f1 05       		.byte	0x5
 6650 08f2 00       		.uleb128 0
 6651 08f3 09920000 		.4byte	.LASF381
 6652 08f7 06       		.byte	0x6
 6653 08f8 00       		.uleb128 0
 6654 08f9 1BD20000 		.4byte	.LASF382
 6655 08fd 05       		.byte	0x5
 6656 08fe 00       		.uleb128 0
 6657 08ff 31810000 		.4byte	.LASF383
 6658 0903 06       		.byte	0x6
 6659 0904 00       		.uleb128 0
 6660 0905 B84A0000 		.4byte	.LASF384
 6661 0909 06       		.byte	0x6
 6662 090a 00       		.uleb128 0
 6663 090b B3200100 		.4byte	.LASF385
 6664 090f 06       		.byte	0x6
 6665 0910 00       		.uleb128 0
 6666 0911 D7AF0000 		.4byte	.LASF386
 6667 0915 06       		.byte	0x6
 6668 0916 00       		.uleb128 0
ARM GAS  /tmp/ccKtbbXa.s 			page 118


 6669 0917 11180100 		.4byte	.LASF387
 6670 091b 05       		.byte	0x5
 6671 091c 00       		.uleb128 0
 6672 091d 84850000 		.4byte	.LASF388
 6673 0921 06       		.byte	0x6
 6674 0922 00       		.uleb128 0
 6675 0923 2B3A0100 		.4byte	.LASF389
 6676 0927 06       		.byte	0x6
 6677 0928 00       		.uleb128 0
 6678 0929 DBEB0000 		.4byte	.LASF390
 6679 092d 06       		.byte	0x6
 6680 092e 00       		.uleb128 0
 6681 092f 4EEA0000 		.4byte	.LASF391
 6682 0933 05       		.byte	0x5
 6683 0934 00       		.uleb128 0
 6684 0935 09840000 		.4byte	.LASF392
 6685 0939 05       		.byte	0x5
 6686 093a 00       		.uleb128 0
 6687 093b 9F280100 		.4byte	.LASF393
 6688 093f 06       		.byte	0x6
 6689 0940 00       		.uleb128 0
 6690 0941 33480000 		.4byte	.LASF394
 6691 0945 05       		.byte	0x5
 6692 0946 00       		.uleb128 0
 6693 0947 E79E0000 		.4byte	.LASF395
 6694 094b 05       		.byte	0x5
 6695 094c 00       		.uleb128 0
 6696 094d D3F50000 		.4byte	.LASF396
 6697 0951 05       		.byte	0x5
 6698 0952 00       		.uleb128 0
 6699 0953 EFFE0000 		.4byte	.LASF397
 6700 0957 06       		.byte	0x6
 6701 0958 00       		.uleb128 0
 6702 0959 D00C0100 		.4byte	.LASF398
 6703 095d 05       		.byte	0x5
 6704 095e 00       		.uleb128 0
 6705 095f 445B0000 		.4byte	.LASF399
 6706 0963 05       		.byte	0x5
 6707 0964 00       		.uleb128 0
 6708 0965 D1000100 		.4byte	.LASF400
 6709 0969 06       		.byte	0x6
 6710 096a 00       		.uleb128 0
 6711 096b 602C0000 		.4byte	.LASF401
 6712 096f 05       		.byte	0x5
 6713 0970 00       		.uleb128 0
 6714 0971 852A0100 		.4byte	.LASF402
 6715 0975 05       		.byte	0x5
 6716 0976 00       		.uleb128 0
 6717 0977 6A000000 		.4byte	.LASF403
 6718 097b 05       		.byte	0x5
 6719 097c 00       		.uleb128 0
 6720 097d 20D60000 		.4byte	.LASF404
 6721 0981 05       		.byte	0x5
 6722 0982 00       		.uleb128 0
 6723 0983 31000000 		.4byte	.LASF405
 6724 0987 05       		.byte	0x5
 6725 0988 00       		.uleb128 0
ARM GAS  /tmp/ccKtbbXa.s 			page 119


 6726 0989 41A10000 		.4byte	.LASF406
 6727 098d 05       		.byte	0x5
 6728 098e 00       		.uleb128 0
 6729 098f B7310100 		.4byte	.LASF407
 6730 0993 06       		.byte	0x6
 6731 0994 00       		.uleb128 0
 6732 0995 BE940000 		.4byte	.LASF408
 6733 0999 05       		.byte	0x5
 6734 099a 00       		.uleb128 0
 6735 099b 78400100 		.4byte	.LASF409
 6736 099f 05       		.byte	0x5
 6737 09a0 00       		.uleb128 0
 6738 09a1 CB2F0000 		.4byte	.LASF410
 6739 09a5 05       		.byte	0x5
 6740 09a6 00       		.uleb128 0
 6741 09a7 D7F90000 		.4byte	.LASF411
 6742 09ab 06       		.byte	0x6
 6743 09ac 00       		.uleb128 0
 6744 09ad 13D50000 		.4byte	.LASF412
 6745 09b1 05       		.byte	0x5
 6746 09b2 00       		.uleb128 0
 6747 09b3 AD4A0000 		.4byte	.LASF413
 6748 09b7 06       		.byte	0x6
 6749 09b8 00       		.uleb128 0
 6750 09b9 78B40000 		.4byte	.LASF414
 6751 09bd 06       		.byte	0x6
 6752 09be 00       		.uleb128 0
 6753 09bf 5E450000 		.4byte	.LASF415
 6754 09c3 06       		.byte	0x6
 6755 09c4 00       		.uleb128 0
 6756 09c5 203F0000 		.4byte	.LASF416
 6757 09c9 06       		.byte	0x6
 6758 09ca 00       		.uleb128 0
 6759 09cb C2D30000 		.4byte	.LASF417
 6760 09cf 06       		.byte	0x6
 6761 09d0 00       		.uleb128 0
 6762 09d1 33FE0000 		.4byte	.LASF418
 6763 09d5 06       		.byte	0x6
 6764 09d6 00       		.uleb128 0
 6765 09d7 CF4E0000 		.4byte	.LASF419
 6766 09db 05       		.byte	0x5
 6767 09dc 00       		.uleb128 0
 6768 09dd 81290100 		.4byte	.LASF420
 6769 09e1 06       		.byte	0x6
 6770 09e2 00       		.uleb128 0
 6771 09e3 42070100 		.4byte	.LASF421
 6772 09e7 06       		.byte	0x6
 6773 09e8 00       		.uleb128 0
 6774 09e9 FF620000 		.4byte	.LASF422
 6775 09ed 06       		.byte	0x6
 6776 09ee 00       		.uleb128 0
 6777 09ef 2A2A0100 		.4byte	.LASF423
 6778 09f3 05       		.byte	0x5
 6779 09f4 00       		.uleb128 0
 6780 09f5 1A630000 		.4byte	.LASF424
 6781 09f9 05       		.byte	0x5
 6782 09fa 00       		.uleb128 0
ARM GAS  /tmp/ccKtbbXa.s 			page 120


 6783 09fb C8060100 		.4byte	.LASF425
 6784 09ff 05       		.byte	0x5
 6785 0a00 00       		.uleb128 0
 6786 0a01 B9330000 		.4byte	.LASF426
 6787 0a05 06       		.byte	0x6
 6788 0a06 00       		.uleb128 0
 6789 0a07 382A0100 		.4byte	.LASF427
 6790 0a0b 05       		.byte	0x5
 6791 0a0c 00       		.uleb128 0
 6792 0a0d 5B990000 		.4byte	.LASF428
 6793 0a11 05       		.byte	0x5
 6794 0a12 00       		.uleb128 0
 6795 0a13 DB100000 		.4byte	.LASF429
 6796 0a17 05       		.byte	0x5
 6797 0a18 00       		.uleb128 0
 6798 0a19 48760000 		.4byte	.LASF430
 6799 0a1d 06       		.byte	0x6
 6800 0a1e 00       		.uleb128 0
 6801 0a1f 418E0000 		.4byte	.LASF431
 6802 0a23 05       		.byte	0x5
 6803 0a24 00       		.uleb128 0
 6804 0a25 135C0000 		.4byte	.LASF432
 6805 0a29 06       		.byte	0x6
 6806 0a2a 00       		.uleb128 0
 6807 0a2b 12EA0000 		.4byte	.LASF433
 6808 0a2f 06       		.byte	0x6
 6809 0a30 00       		.uleb128 0
 6810 0a31 DB3B0100 		.4byte	.LASF434
 6811 0a35 06       		.byte	0x6
 6812 0a36 00       		.uleb128 0
 6813 0a37 35020000 		.4byte	.LASF435
 6814 0a3b 06       		.byte	0x6
 6815 0a3c 00       		.uleb128 0
 6816 0a3d 38C40000 		.4byte	.LASF436
 6817 0a41 06       		.byte	0x6
 6818 0a42 00       		.uleb128 0
 6819 0a43 9BF40000 		.4byte	.LASF437
 6820 0a47 06       		.byte	0x6
 6821 0a48 00       		.uleb128 0
 6822 0a49 E88D0000 		.4byte	.LASF438
 6823 0a4d 05       		.byte	0x5
 6824 0a4e 00       		.uleb128 0
 6825 0a4f 266A0000 		.4byte	.LASF439
 6826 0a53 05       		.byte	0x5
 6827 0a54 00       		.uleb128 0
 6828 0a55 26120000 		.4byte	.LASF440
 6829 0a59 05       		.byte	0x5
 6830 0a5a 00       		.uleb128 0
 6831 0a5b A2CF0000 		.4byte	.LASF441
 6832 0a5f 05       		.byte	0x5
 6833 0a60 00       		.uleb128 0
 6834 0a61 C2380100 		.4byte	.LASF442
 6835 0a65 05       		.byte	0x5
 6836 0a66 00       		.uleb128 0
 6837 0a67 493F0000 		.4byte	.LASF443
 6838 0a6b 05       		.byte	0x5
 6839 0a6c 00       		.uleb128 0
ARM GAS  /tmp/ccKtbbXa.s 			page 121


 6840 0a6d EE9A0000 		.4byte	.LASF444
 6841 0a71 05       		.byte	0x5
 6842 0a72 00       		.uleb128 0
 6843 0a73 7C150000 		.4byte	.LASF445
 6844 0a77 05       		.byte	0x5
 6845 0a78 00       		.uleb128 0
 6846 0a79 BFE10000 		.4byte	.LASF446
 6847 0a7d 05       		.byte	0x5
 6848 0a7e 00       		.uleb128 0
 6849 0a7f 75BB0000 		.4byte	.LASF447
 6850 0a83 05       		.byte	0x5
 6851 0a84 00       		.uleb128 0
 6852 0a85 F0F70000 		.4byte	.LASF448
 6853 0a89 05       		.byte	0x5
 6854 0a8a 00       		.uleb128 0
 6855 0a8b 1E1E0100 		.4byte	.LASF449
 6856 0a8f 05       		.byte	0x5
 6857 0a90 00       		.uleb128 0
 6858 0a91 45910000 		.4byte	.LASF450
 6859 0a95 05       		.byte	0x5
 6860 0a96 00       		.uleb128 0
 6861 0a97 2B3E0000 		.4byte	.LASF451
 6862 0a9b 05       		.byte	0x5
 6863 0a9c 00       		.uleb128 0
 6864 0a9d A06A0000 		.4byte	.LASF452
 6865 0aa1 05       		.byte	0x5
 6866 0aa2 00       		.uleb128 0
 6867 0aa3 B0540000 		.4byte	.LASF453
 6868 0aa7 05       		.byte	0x5
 6869 0aa8 00       		.uleb128 0
 6870 0aa9 1D190100 		.4byte	.LASF454
 6871 0aad 05       		.byte	0x5
 6872 0aae 00       		.uleb128 0
 6873 0aaf 820E0000 		.4byte	.LASF455
 6874 0ab3 05       		.byte	0x5
 6875 0ab4 00       		.uleb128 0
 6876 0ab5 B02B0100 		.4byte	.LASF456
 6877 0ab9 05       		.byte	0x5
 6878 0aba 00       		.uleb128 0
 6879 0abb A7F60000 		.4byte	.LASF457
 6880 0abf 05       		.byte	0x5
 6881 0ac0 00       		.uleb128 0
 6882 0ac1 A44C0000 		.4byte	.LASF458
 6883 0ac5 05       		.byte	0x5
 6884 0ac6 00       		.uleb128 0
 6885 0ac7 8E4A0000 		.4byte	.LASF459
 6886 0acb 05       		.byte	0x5
 6887 0acc 00       		.uleb128 0
 6888 0acd 91200000 		.4byte	.LASF460
 6889 0ad1 05       		.byte	0x5
 6890 0ad2 00       		.uleb128 0
 6891 0ad3 1C8A0000 		.4byte	.LASF461
 6892 0ad7 05       		.byte	0x5
 6893 0ad8 00       		.uleb128 0
 6894 0ad9 2E980000 		.4byte	.LASF462
 6895 0add 05       		.byte	0x5
 6896 0ade 00       		.uleb128 0
ARM GAS  /tmp/ccKtbbXa.s 			page 122


 6897 0adf 47F60000 		.4byte	.LASF463
 6898 0ae3 05       		.byte	0x5
 6899 0ae4 00       		.uleb128 0
 6900 0ae5 F2AA0000 		.4byte	.LASF464
 6901 0ae9 05       		.byte	0x5
 6902 0aea 00       		.uleb128 0
 6903 0aeb F7650000 		.4byte	.LASF465
 6904 0aef 05       		.byte	0x5
 6905 0af0 00       		.uleb128 0
 6906 0af1 A2410000 		.4byte	.LASF466
 6907 0af5 05       		.byte	0x5
 6908 0af6 00       		.uleb128 0
 6909 0af7 1C5F0000 		.4byte	.LASF467
 6910 0afb 05       		.byte	0x5
 6911 0afc 00       		.uleb128 0
 6912 0afd D71A0100 		.4byte	.LASF468
 6913 0b01 05       		.byte	0x5
 6914 0b02 00       		.uleb128 0
 6915 0b03 44FD0000 		.4byte	.LASF469
 6916 0b07 05       		.byte	0x5
 6917 0b08 00       		.uleb128 0
 6918 0b09 AE500000 		.4byte	.LASF470
 6919 0b0d 05       		.byte	0x5
 6920 0b0e 00       		.uleb128 0
 6921 0b0f 325D0000 		.4byte	.LASF471
 6922 0b13 05       		.byte	0x5
 6923 0b14 00       		.uleb128 0
 6924 0b15 E42B0000 		.4byte	.LASF472
 6925 0b19 05       		.byte	0x5
 6926 0b1a 00       		.uleb128 0
 6927 0b1b CB4F0000 		.4byte	.LASF473
 6928 0b1f 05       		.byte	0x5
 6929 0b20 00       		.uleb128 0
 6930 0b21 96D30000 		.4byte	.LASF474
 6931 0b25 05       		.byte	0x5
 6932 0b26 00       		.uleb128 0
 6933 0b27 C2F50000 		.4byte	.LASF475
 6934 0b2b 05       		.byte	0x5
 6935 0b2c 00       		.uleb128 0
 6936 0b2d EE5B0000 		.4byte	.LASF476
 6937 0b31 05       		.byte	0x5
 6938 0b32 00       		.uleb128 0
 6939 0b33 045F0000 		.4byte	.LASF477
 6940 0b37 05       		.byte	0x5
 6941 0b38 00       		.uleb128 0
 6942 0b39 02400100 		.4byte	.LASF478
 6943 0b3d 05       		.byte	0x5
 6944 0b3e 00       		.uleb128 0
 6945 0b3f 42290100 		.4byte	.LASF479
 6946 0b43 05       		.byte	0x5
 6947 0b44 00       		.uleb128 0
 6948 0b45 07550000 		.4byte	.LASF480
 6949 0b49 05       		.byte	0x5
 6950 0b4a 00       		.uleb128 0
 6951 0b4b 4B9A0000 		.4byte	.LASF481
 6952 0b4f 05       		.byte	0x5
 6953 0b50 00       		.uleb128 0
ARM GAS  /tmp/ccKtbbXa.s 			page 123


 6954 0b51 5EBB0000 		.4byte	.LASF482
 6955 0b55 05       		.byte	0x5
 6956 0b56 00       		.uleb128 0
 6957 0b57 6D9D0000 		.4byte	.LASF483
 6958 0b5b 05       		.byte	0x5
 6959 0b5c 00       		.uleb128 0
 6960 0b5d 6CC40000 		.4byte	.LASF484
 6961 0b61 05       		.byte	0x5
 6962 0b62 00       		.uleb128 0
 6963 0b63 06E80000 		.4byte	.LASF485
 6964 0b67 05       		.byte	0x5
 6965 0b68 00       		.uleb128 0
 6966 0b69 7D430000 		.4byte	.LASF486
 6967 0b6d 05       		.byte	0x5
 6968 0b6e 00       		.uleb128 0
 6969 0b6f 6A380100 		.4byte	.LASF487
 6970 0b73 05       		.byte	0x5
 6971 0b74 00       		.uleb128 0
 6972 0b75 A1600000 		.4byte	.LASF488
 6973 0b79 05       		.byte	0x5
 6974 0b7a 00       		.uleb128 0
 6975 0b7b 66FA0000 		.4byte	.LASF489
 6976 0b7f 05       		.byte	0x5
 6977 0b80 00       		.uleb128 0
 6978 0b81 16FB0000 		.4byte	.LASF490
 6979 0b85 05       		.byte	0x5
 6980 0b86 00       		.uleb128 0
 6981 0b87 C7960000 		.4byte	.LASF491
 6982 0b8b 05       		.byte	0x5
 6983 0b8c 00       		.uleb128 0
 6984 0b8d 30DB0000 		.4byte	.LASF492
 6985 0b91 05       		.byte	0x5
 6986 0b92 00       		.uleb128 0
 6987 0b93 C5650000 		.4byte	.LASF493
 6988 0b97 05       		.byte	0x5
 6989 0b98 00       		.uleb128 0
 6990 0b99 F2500000 		.4byte	.LASF494
 6991 0b9d 05       		.byte	0x5
 6992 0b9e 00       		.uleb128 0
 6993 0b9f 83180100 		.4byte	.LASF495
 6994 0ba3 05       		.byte	0x5
 6995 0ba4 00       		.uleb128 0
 6996 0ba5 4D320000 		.4byte	.LASF496
 6997 0ba9 05       		.byte	0x5
 6998 0baa 00       		.uleb128 0
 6999 0bab 27180100 		.4byte	.LASF497
 7000 0baf 05       		.byte	0x5
 7001 0bb0 00       		.uleb128 0
 7002 0bb1 D28A0000 		.4byte	.LASF498
 7003 0bb5 05       		.byte	0x5
 7004 0bb6 00       		.uleb128 0
 7005 0bb7 19290000 		.4byte	.LASF499
 7006 0bbb 05       		.byte	0x5
 7007 0bbc 00       		.uleb128 0
 7008 0bbd BB000100 		.4byte	.LASF500
 7009 0bc1 05       		.byte	0x5
 7010 0bc2 00       		.uleb128 0
ARM GAS  /tmp/ccKtbbXa.s 			page 124


 7011 0bc3 6E160100 		.4byte	.LASF501
 7012 0bc7 05       		.byte	0x5
 7013 0bc8 00       		.uleb128 0
 7014 0bc9 845E0000 		.4byte	.LASF502
 7015 0bcd 05       		.byte	0x5
 7016 0bce 00       		.uleb128 0
 7017 0bcf B0F30000 		.4byte	.LASF503
 7018 0bd3 05       		.byte	0x5
 7019 0bd4 00       		.uleb128 0
 7020 0bd5 8A120000 		.4byte	.LASF504
 7021 0bd9 05       		.byte	0x5
 7022 0bda 00       		.uleb128 0
 7023 0bdb EF380100 		.4byte	.LASF505
 7024 0bdf 05       		.byte	0x5
 7025 0be0 00       		.uleb128 0
 7026 0be1 74AA0000 		.4byte	.LASF506
 7027 0be5 05       		.byte	0x5
 7028 0be6 00       		.uleb128 0
 7029 0be7 5A190000 		.4byte	.LASF507
 7030 0beb 05       		.byte	0x5
 7031 0bec 00       		.uleb128 0
 7032 0bed 7A360000 		.4byte	.LASF508
 7033 0bf1 05       		.byte	0x5
 7034 0bf2 00       		.uleb128 0
 7035 0bf3 C12F0000 		.4byte	.LASF509
 7036 0bf7 05       		.byte	0x5
 7037 0bf8 00       		.uleb128 0
 7038 0bf9 36180100 		.4byte	.LASF510
 7039 0bfd 05       		.byte	0x5
 7040 0bfe 00       		.uleb128 0
 7041 0bff B7F50000 		.4byte	.LASF511
 7042 0c03 05       		.byte	0x5
 7043 0c04 00       		.uleb128 0
 7044 0c05 29140100 		.4byte	.LASF512
 7045 0c09 05       		.byte	0x5
 7046 0c0a 00       		.uleb128 0
 7047 0c0b 429F0000 		.4byte	.LASF513
 7048 0c0f 05       		.byte	0x5
 7049 0c10 00       		.uleb128 0
 7050 0c11 11C70000 		.4byte	.LASF514
 7051 0c15 05       		.byte	0x5
 7052 0c16 00       		.uleb128 0
 7053 0c17 4E7D0000 		.4byte	.LASF515
 7054 0c1b 05       		.byte	0x5
 7055 0c1c 00       		.uleb128 0
 7056 0c1d 71130100 		.4byte	.LASF516
 7057 0c21 05       		.byte	0x5
 7058 0c22 00       		.uleb128 0
 7059 0c23 882C0000 		.4byte	.LASF517
 7060 0c27 05       		.byte	0x5
 7061 0c28 00       		.uleb128 0
 7062 0c29 2A2C0000 		.4byte	.LASF518
 7063 0c2d 05       		.byte	0x5
 7064 0c2e 00       		.uleb128 0
 7065 0c2f 0A630000 		.4byte	.LASF519
 7066 0c33 05       		.byte	0x5
 7067 0c34 00       		.uleb128 0
ARM GAS  /tmp/ccKtbbXa.s 			page 125


 7068 0c35 BD3C0000 		.4byte	.LASF520
 7069 0c39 05       		.byte	0x5
 7070 0c3a 00       		.uleb128 0
 7071 0c3b 6B120100 		.4byte	.LASF521
 7072 0c3f 00       		.byte	0
 7073              		.section	.debug_macro,"G",%progbits,wm4.pprz_geodetic.h.35.f3fa96d246078502d67afc0af687adaf,comdat
 7074              	.Ldebug_macro3:
 7075 0000 0400     		.2byte	0x4
 7076 0002 00       		.byte	0
 7077 0003 05       		.byte	0x5
 7078 0004 23       		.uleb128 0x23
 7079 0005 C20E0000 		.4byte	.LASF523
 7080 0009 05       		.byte	0x5
 7081 000a 29       		.uleb128 0x29
 7082 000b EDA10000 		.4byte	.LASF524
 7083 000f 05       		.byte	0x5
 7084 0010 2F       		.uleb128 0x2f
 7085 0011 7ACE0000 		.4byte	.LASF525
 7086 0015 05       		.byte	0x5
 7087 0016 34       		.uleb128 0x34
 7088 0017 D8CF0000 		.4byte	.LASF526
 7089 001b 05       		.byte	0x5
 7090 001c 3A       		.uleb128 0x3a
 7091 001d A1150000 		.4byte	.LASF527
 7092 0021 05       		.byte	0x5
 7093 0022 40       		.uleb128 0x40
 7094 0023 CECE0000 		.4byte	.LASF528
 7095 0027 05       		.byte	0x5
 7096 0028 47       		.uleb128 0x47
 7097 0029 D84C0000 		.4byte	.LASF529
 7098 002d 05       		.byte	0x5
 7099 002e 4E       		.uleb128 0x4e
 7100 002f 3D3B0100 		.4byte	.LASF530
 7101 0033 05       		.byte	0x5
 7102 0034 54       		.uleb128 0x54
 7103 0035 530B0100 		.4byte	.LASF531
 7104 0039 05       		.byte	0x5
 7105 003a 5A       		.uleb128 0x5a
 7106 003b 5C910000 		.4byte	.LASF532
 7107 003f 05       		.byte	0x5
 7108 0040 60       		.uleb128 0x60
 7109 0041 F3160100 		.4byte	.LASF533
 7110 0045 00       		.byte	0
 7111              		.section	.debug_macro,"G",%progbits,wm4._newlib_version.h.4.1ef4e12f167f8b69d7c30054be56050d,comda
 7112              	.Ldebug_macro4:
 7113 0000 0400     		.2byte	0x4
 7114 0002 00       		.byte	0
 7115 0003 05       		.byte	0x5
 7116 0004 04       		.uleb128 0x4
 7117 0005 1E850000 		.4byte	.LASF537
 7118 0009 05       		.byte	0x5
 7119 000a 06       		.uleb128 0x6
 7120 000b 068E0000 		.4byte	.LASF538
 7121 000f 05       		.byte	0x5
 7122 0010 07       		.uleb128 0x7
 7123 0011 0B890000 		.4byte	.LASF539
 7124 0015 05       		.byte	0x5
ARM GAS  /tmp/ccKtbbXa.s 			page 126


 7125 0016 08       		.uleb128 0x8
 7126 0017 C3560000 		.4byte	.LASF540
 7127 001b 05       		.byte	0x5
 7128 001c 09       		.uleb128 0x9
 7129 001d 91610000 		.4byte	.LASF541
 7130 0021 00       		.byte	0
 7131              		.section	.debug_macro,"G",%progbits,wm4.newlib.h.21.1ae2897bc09bbe4bc80ffb801fb02432,comdat
 7132              	.Ldebug_macro5:
 7133 0000 0400     		.2byte	0x4
 7134 0002 00       		.byte	0
 7135 0003 05       		.byte	0x5
 7136 0004 15       		.uleb128 0x15
 7137 0005 10FA0000 		.4byte	.LASF542
 7138 0009 05       		.byte	0x5
 7139 000a 18       		.uleb128 0x18
 7140 000b 6F1E0000 		.4byte	.LASF543
 7141 000f 05       		.byte	0x5
 7142 0010 25       		.uleb128 0x25
 7143 0011 52630000 		.4byte	.LASF544
 7144 0015 05       		.byte	0x5
 7145 0016 2B       		.uleb128 0x2b
 7146 0017 61150000 		.4byte	.LASF545
 7147 001b 05       		.byte	0x5
 7148 001c 35       		.uleb128 0x35
 7149 001d DC500000 		.4byte	.LASF546
 7150 0021 05       		.byte	0x5
 7151 0022 39       		.uleb128 0x39
 7152 0023 0A590000 		.4byte	.LASF547
 7153 0027 05       		.byte	0x5
 7154 0028 3C       		.uleb128 0x3c
 7155 0029 DC7F0000 		.4byte	.LASF548
 7156 002d 05       		.byte	0x5
 7157 002e 3F       		.uleb128 0x3f
 7158 002f 26DF0000 		.4byte	.LASF549
 7159 0033 05       		.byte	0x5
 7160 0034 42       		.uleb128 0x42
 7161 0035 1C3F0100 		.4byte	.LASF550
 7162 0039 05       		.byte	0x5
 7163 003a 45       		.uleb128 0x45
 7164 003b 581E0000 		.4byte	.LASF551
 7165 003f 05       		.byte	0x5
 7166 0040 48       		.uleb128 0x48
 7167 0041 8D2E0100 		.4byte	.LASF552
 7168 0045 05       		.byte	0x5
 7169 0046 4B       		.uleb128 0x4b
 7170 0047 EF260100 		.4byte	.LASF553
 7171 004b 05       		.byte	0x5
 7172 004c 4E       		.uleb128 0x4e
 7173 004d D48D0000 		.4byte	.LASF554
 7174 0051 00       		.byte	0
 7175              		.section	.debug_macro,"G",%progbits,wm4.ieeefp.h.77.f33a4dce62116f6f5175ff8bae57a54c,comdat
 7176              	.Ldebug_macro6:
 7177 0000 0400     		.2byte	0x4
 7178 0002 00       		.byte	0
 7179 0003 05       		.byte	0x5
 7180 0004 4D       		.uleb128 0x4d
 7181 0005 7DA80000 		.4byte	.LASF556
ARM GAS  /tmp/ccKtbbXa.s 			page 127


 7182 0009 05       		.byte	0x5
 7183 000a D903     		.uleb128 0x1d9
 7184 000c 69570000 		.4byte	.LASF557
 7185 0010 05       		.byte	0x5
 7186 0011 DC03     		.uleb128 0x1dc
 7187 0013 48230100 		.4byte	.LASF558
 7188 0017 00       		.byte	0
 7189              		.section	.debug_macro,"G",%progbits,wm4.features.h.22.026edb2397769f4ae13f35900dbdb560,comdat
 7190              	.Ldebug_macro7:
 7191 0000 0400     		.2byte	0x4
 7192 0002 00       		.byte	0
 7193 0003 05       		.byte	0x5
 7194 0004 16       		.uleb128 0x16
 7195 0005 AA000100 		.4byte	.LASF559
 7196 0009 05       		.byte	0x5
 7197 000a 21       		.uleb128 0x21
 7198 000b DCDA0000 		.4byte	.LASF560
 7199 000f 05       		.byte	0x5
 7200 0010 28       		.uleb128 0x28
 7201 0011 2C060100 		.4byte	.LASF561
 7202 0015 06       		.byte	0x6
 7203 0016 8301     		.uleb128 0x83
 7204 0018 01540000 		.4byte	.LASF562
 7205 001c 05       		.byte	0x5
 7206 001d 8401     		.uleb128 0x84
 7207 001f 44570000 		.4byte	.LASF563
 7208 0023 06       		.byte	0x6
 7209 0024 8801     		.uleb128 0x88
 7210 0026 E8430000 		.4byte	.LASF564
 7211 002a 05       		.byte	0x5
 7212 002b 8901     		.uleb128 0x89
 7213 002d 4A0F0100 		.4byte	.LASF565
 7214 0031 06       		.byte	0x6
 7215 0032 8A01     		.uleb128 0x8a
 7216 0034 848A0000 		.4byte	.LASF566
 7217 0038 05       		.byte	0x5
 7218 0039 8B01     		.uleb128 0x8b
 7219 003b 39E50000 		.4byte	.LASF567
 7220 003f 06       		.byte	0x6
 7221 0040 9E01     		.uleb128 0x9e
 7222 0042 1C1D0100 		.4byte	.LASF568
 7223 0046 05       		.byte	0x5
 7224 0047 9F01     		.uleb128 0x9f
 7225 0049 DF050100 		.4byte	.LASF569
 7226 004d 05       		.byte	0x5
 7227 004e F701     		.uleb128 0xf7
 7228 0050 37C90000 		.4byte	.LASF570
 7229 0054 05       		.byte	0x5
 7230 0055 FD01     		.uleb128 0xfd
 7231 0057 24EA0000 		.4byte	.LASF571
 7232 005b 05       		.byte	0x5
 7233 005c 8502     		.uleb128 0x105
 7234 005e 23FE0000 		.4byte	.LASF572
 7235 0062 05       		.byte	0x5
 7236 0063 8D02     		.uleb128 0x10d
 7237 0065 16E00000 		.4byte	.LASF573
 7238 0069 05       		.byte	0x5
ARM GAS  /tmp/ccKtbbXa.s 			page 128


 7239 006a 9502     		.uleb128 0x115
 7240 006c 5B350100 		.4byte	.LASF574
 7241 0070 05       		.byte	0x5
 7242 0071 9902     		.uleb128 0x119
 7243 0073 E2030000 		.4byte	.LASF575
 7244 0077 05       		.byte	0x5
 7245 0078 9F02     		.uleb128 0x11f
 7246 007a F4880000 		.4byte	.LASF576
 7247 007e 05       		.byte	0x5
 7248 007f AF02     		.uleb128 0x12f
 7249 0081 8D6D0000 		.4byte	.LASF577
 7250 0085 05       		.byte	0x5
 7251 0086 BF02     		.uleb128 0x13f
 7252 0088 6FDB0000 		.4byte	.LASF578
 7253 008c 05       		.byte	0x5
 7254 008d CA02     		.uleb128 0x14a
 7255 008f 78000100 		.4byte	.LASF579
 7256 0093 00       		.byte	0
 7257              		.section	.debug_macro,"G",%progbits,wm4.config.h.224.c701144a7b0518c6ee9b9b5465b79f81,comdat
 7258              	.Ldebug_macro8:
 7259 0000 0400     		.2byte	0x4
 7260 0002 00       		.byte	0
 7261 0003 05       		.byte	0x5
 7262 0004 E001     		.uleb128 0xe0
 7263 0006 99AD0000 		.4byte	.LASF580
 7264 000a 06       		.byte	0x6
 7265 000b E601     		.uleb128 0xe6
 7266 000d F0050100 		.4byte	.LASF581
 7267 0011 05       		.byte	0x5
 7268 0012 EA01     		.uleb128 0xea
 7269 0014 C55E0000 		.4byte	.LASF582
 7270 0018 05       		.byte	0x5
 7271 0019 FA01     		.uleb128 0xfa
 7272 001b 5FCE0000 		.4byte	.LASF583
 7273 001f 05       		.byte	0x5
 7274 0020 FE01     		.uleb128 0xfe
 7275 0022 411F0100 		.4byte	.LASF584
 7276 0026 05       		.byte	0x5
 7277 0027 8502     		.uleb128 0x105
 7278 0029 68F10000 		.4byte	.LASF585
 7279 002d 05       		.byte	0x5
 7280 002e 8B02     		.uleb128 0x10b
 7281 0030 8B0D0000 		.4byte	.LASF586
 7282 0034 00       		.byte	0
 7283              		.section	.debug_macro,"G",%progbits,wm4._intsup.h.10.48bafbb683905c4daa4565a85aeeb264,comdat
 7284              	.Ldebug_macro9:
 7285 0000 0400     		.2byte	0x4
 7286 0002 00       		.byte	0
 7287 0003 05       		.byte	0x5
 7288 0004 0A       		.uleb128 0xa
 7289 0005 E1870000 		.4byte	.LASF587
 7290 0009 05       		.byte	0x5
 7291 000a 10       		.uleb128 0x10
 7292 000b 7BF60000 		.4byte	.LASF588
 7293 000f 06       		.byte	0x6
 7294 0010 2B       		.uleb128 0x2b
 7295 0011 E6320000 		.4byte	.LASF589
ARM GAS  /tmp/ccKtbbXa.s 			page 129


 7296 0015 06       		.byte	0x6
 7297 0016 2C       		.uleb128 0x2c
 7298 0017 AFC40000 		.4byte	.LASF590
 7299 001b 06       		.byte	0x6
 7300 001c 2D       		.uleb128 0x2d
 7301 001d 9BE30000 		.4byte	.LASF591
 7302 0021 06       		.byte	0x6
 7303 0022 2E       		.uleb128 0x2e
 7304 0023 1D240000 		.4byte	.LASF592
 7305 0027 02       		.byte	0x2
 7306 0028 2F       		.uleb128 0x2f
 7307 0029 696E7400 		.ascii	"int\000"
 7308 002d 06       		.byte	0x6
 7309 002e 30       		.uleb128 0x30
 7310 002f 31D80000 		.4byte	.LASF593
 7311 0033 06       		.byte	0x6
 7312 0034 31       		.uleb128 0x31
 7313 0035 AF230000 		.4byte	.LASF594
 7314 0039 06       		.byte	0x6
 7315 003a 32       		.uleb128 0x32
 7316 003b 19270100 		.4byte	.LASF595
 7317 003f 05       		.byte	0x5
 7318 0040 33       		.uleb128 0x33
 7319 0041 BC790000 		.4byte	.LASF596
 7320 0045 05       		.byte	0x5
 7321 0046 34       		.uleb128 0x34
 7322 0047 FE260100 		.4byte	.LASF597
 7323 004b 05       		.byte	0x5
 7324 004c 35       		.uleb128 0x35
 7325 004d F91C0100 		.4byte	.LASF598
 7326 0051 05       		.byte	0x5
 7327 0052 36       		.uleb128 0x36
 7328 0053 FFA70000 		.4byte	.LASF599
 7329 0057 05       		.byte	0x5
 7330 0058 37       		.uleb128 0x37
 7331 0059 BC400000 		.4byte	.LASF600
 7332 005d 05       		.byte	0x5
 7333 005e 38       		.uleb128 0x38
 7334 005f 0AB30000 		.4byte	.LASF601
 7335 0063 05       		.byte	0x5
 7336 0064 39       		.uleb128 0x39
 7337 0065 A65E0000 		.4byte	.LASF602
 7338 0069 05       		.byte	0x5
 7339 006a 3A       		.uleb128 0x3a
 7340 006b F0F90000 		.4byte	.LASF603
 7341 006f 05       		.byte	0x5
 7342 0070 43       		.uleb128 0x43
 7343 0071 335F0000 		.4byte	.LASF604
 7344 0075 05       		.byte	0x5
 7345 0076 4A       		.uleb128 0x4a
 7346 0077 6EEB0000 		.4byte	.LASF605
 7347 007b 05       		.byte	0x5
 7348 007c 52       		.uleb128 0x52
 7349 007d D46F0000 		.4byte	.LASF606
 7350 0081 05       		.byte	0x5
 7351 0082 5D       		.uleb128 0x5d
 7352 0083 67F60000 		.4byte	.LASF607
ARM GAS  /tmp/ccKtbbXa.s 			page 130


 7353 0087 05       		.byte	0x5
 7354 0088 68       		.uleb128 0x68
 7355 0089 223B0100 		.4byte	.LASF608
 7356 008d 05       		.byte	0x5
 7357 008e 71       		.uleb128 0x71
 7358 008f 42120000 		.4byte	.LASF609
 7359 0093 05       		.byte	0x5
 7360 0094 78       		.uleb128 0x78
 7361 0095 714C0000 		.4byte	.LASF610
 7362 0099 05       		.byte	0x5
 7363 009a 8101     		.uleb128 0x81
 7364 009c 80810000 		.4byte	.LASF611
 7365 00a0 05       		.byte	0x5
 7366 00a1 8801     		.uleb128 0x88
 7367 00a3 03040100 		.4byte	.LASF612
 7368 00a7 05       		.byte	0x5
 7369 00a8 9301     		.uleb128 0x93
 7370 00aa BEE80000 		.4byte	.LASF613
 7371 00ae 05       		.byte	0x5
 7372 00af 9701     		.uleb128 0x97
 7373 00b1 79D20000 		.4byte	.LASF614
 7374 00b5 05       		.byte	0x5
 7375 00b6 A201     		.uleb128 0xa2
 7376 00b8 B2060000 		.4byte	.LASF615
 7377 00bc 05       		.byte	0x5
 7378 00bd AD01     		.uleb128 0xad
 7379 00bf 50480000 		.4byte	.LASF616
 7380 00c3 05       		.byte	0x5
 7381 00c4 B601     		.uleb128 0xb6
 7382 00c6 1B2A0100 		.4byte	.LASF617
 7383 00ca 06       		.byte	0x6
 7384 00cb B801     		.uleb128 0xb8
 7385 00cd E6320000 		.4byte	.LASF589
 7386 00d1 06       		.byte	0x6
 7387 00d2 B901     		.uleb128 0xb9
 7388 00d4 AFC40000 		.4byte	.LASF590
 7389 00d8 06       		.byte	0x6
 7390 00d9 BA01     		.uleb128 0xba
 7391 00db 9BE30000 		.4byte	.LASF591
 7392 00df 06       		.byte	0x6
 7393 00e0 BB01     		.uleb128 0xbb
 7394 00e2 1D240000 		.4byte	.LASF592
 7395 00e6 02       		.byte	0x2
 7396 00e7 BC01     		.uleb128 0xbc
 7397 00e9 696E7400 		.ascii	"int\000"
 7398 00ed 06       		.byte	0x6
 7399 00ee BD01     		.uleb128 0xbd
 7400 00f0 19270100 		.4byte	.LASF595
 7401 00f4 06       		.byte	0x6
 7402 00f5 C201     		.uleb128 0xc2
 7403 00f7 31D80000 		.4byte	.LASF593
 7404 00fb 06       		.byte	0x6
 7405 00fc C301     		.uleb128 0xc3
 7406 00fe AF230000 		.4byte	.LASF594
 7407 0102 00       		.byte	0
 7408              		.section	.debug_macro,"G",%progbits,wm4._ansi.h.8.aeadd4934928258a76627d21910677e3,comdat
 7409              	.Ldebug_macro10:
ARM GAS  /tmp/ccKtbbXa.s 			page 131


 7410 0000 0400     		.2byte	0x4
 7411 0002 00       		.byte	0
 7412 0003 05       		.byte	0x5
 7413 0004 08       		.uleb128 0x8
 7414 0005 4A300000 		.4byte	.LASF618
 7415 0009 05       		.byte	0x5
 7416 000a 1F       		.uleb128 0x1f
 7417 000b C1A80000 		.4byte	.LASF619
 7418 000f 05       		.byte	0x5
 7419 0010 20       		.uleb128 0x20
 7420 0011 918C0000 		.4byte	.LASF620
 7421 0015 05       		.byte	0x5
 7422 0016 21       		.uleb128 0x21
 7423 0017 BF070100 		.4byte	.LASF621
 7424 001b 05       		.byte	0x5
 7425 001c 25       		.uleb128 0x25
 7426 001d 5F220100 		.4byte	.LASF622
 7427 0021 05       		.byte	0x5
 7428 0022 2B       		.uleb128 0x2b
 7429 0023 C7FE0000 		.4byte	.LASF623
 7430 0027 05       		.byte	0x5
 7431 0028 45       		.uleb128 0x45
 7432 0029 5B030100 		.4byte	.LASF624
 7433 002d 05       		.byte	0x5
 7434 002e 49       		.uleb128 0x49
 7435 002f 41220000 		.4byte	.LASF625
 7436 0033 05       		.byte	0x5
 7437 0034 4A       		.uleb128 0x4a
 7438 0035 3D220100 		.4byte	.LASF626
 7439 0039 00       		.byte	0
 7440              		.section	.debug_macro,"G",%progbits,wm4.stdint.h.29.6d480f4ba0f60596e88234283d42444f,comdat
 7441              	.Ldebug_macro11:
 7442 0000 0400     		.2byte	0x4
 7443 0002 00       		.byte	0
 7444 0003 05       		.byte	0x5
 7445 0004 1D       		.uleb128 0x1d
 7446 0005 D3690000 		.4byte	.LASF627
 7447 0009 06       		.byte	0x6
 7448 000a 64       		.uleb128 0x64
 7449 000b AD080100 		.4byte	.LASF628
 7450 000f 05       		.byte	0x5
 7451 0010 65       		.uleb128 0x65
 7452 0011 99130100 		.4byte	.LASF629
 7453 0015 06       		.byte	0x6
 7454 0016 66       		.uleb128 0x66
 7455 0017 87F70000 		.4byte	.LASF630
 7456 001b 05       		.byte	0x5
 7457 001c 67       		.uleb128 0x67
 7458 001d EE230100 		.4byte	.LASF631
 7459 0021 06       		.byte	0x6
 7460 0022 6A       		.uleb128 0x6a
 7461 0023 73F50000 		.4byte	.LASF632
 7462 0027 05       		.byte	0x5
 7463 0028 6B       		.uleb128 0x6b
 7464 0029 FFF30000 		.4byte	.LASF633
 7465 002d 06       		.byte	0x6
 7466 002e 6E       		.uleb128 0x6e
ARM GAS  /tmp/ccKtbbXa.s 			page 132


 7467 002f DEC80000 		.4byte	.LASF634
 7468 0033 05       		.byte	0x5
 7469 0034 6F       		.uleb128 0x6f
 7470 0035 E4720000 		.4byte	.LASF635
 7471 0039 06       		.byte	0x6
 7472 003a 70       		.uleb128 0x70
 7473 003b 61120100 		.4byte	.LASF636
 7474 003f 05       		.byte	0x5
 7475 0040 71       		.uleb128 0x71
 7476 0041 4F380100 		.4byte	.LASF637
 7477 0045 06       		.byte	0x6
 7478 0046 74       		.uleb128 0x74
 7479 0047 391E0100 		.4byte	.LASF638
 7480 004b 05       		.byte	0x5
 7481 004c 75       		.uleb128 0x75
 7482 004d 45490000 		.4byte	.LASF639
 7483 0051 06       		.byte	0x6
 7484 0052 78       		.uleb128 0x78
 7485 0053 25FA0000 		.4byte	.LASF640
 7486 0057 05       		.byte	0x5
 7487 0058 79       		.uleb128 0x79
 7488 0059 EE190100 		.4byte	.LASF641
 7489 005d 06       		.byte	0x6
 7490 005e 7A       		.uleb128 0x7a
 7491 005f B93A0000 		.4byte	.LASF642
 7492 0063 05       		.byte	0x5
 7493 0064 7B       		.uleb128 0x7b
 7494 0065 A7D30000 		.4byte	.LASF643
 7495 0069 06       		.byte	0x6
 7496 006a 7E       		.uleb128 0x7e
 7497 006b 2DC40000 		.4byte	.LASF644
 7498 006f 05       		.byte	0x5
 7499 0070 7F       		.uleb128 0x7f
 7500 0071 FB000100 		.4byte	.LASF645
 7501 0075 06       		.byte	0x6
 7502 0076 8201     		.uleb128 0x82
 7503 0078 7FFF0000 		.4byte	.LASF646
 7504 007c 05       		.byte	0x5
 7505 007d 8301     		.uleb128 0x83
 7506 007f F73A0000 		.4byte	.LASF647
 7507 0083 06       		.byte	0x6
 7508 0084 8401     		.uleb128 0x84
 7509 0086 4B2A0100 		.4byte	.LASF648
 7510 008a 05       		.byte	0x5
 7511 008b 8501     		.uleb128 0x85
 7512 008d 4F090000 		.4byte	.LASF649
 7513 0091 06       		.byte	0x6
 7514 0092 8801     		.uleb128 0x88
 7515 0094 A8CC0000 		.4byte	.LASF650
 7516 0098 05       		.byte	0x5
 7517 0099 8901     		.uleb128 0x89
 7518 009b 0E820000 		.4byte	.LASF651
 7519 009f 06       		.byte	0x6
 7520 00a0 8C01     		.uleb128 0x8c
 7521 00a2 A1B30000 		.4byte	.LASF652
 7522 00a6 05       		.byte	0x5
 7523 00a7 8D01     		.uleb128 0x8d
ARM GAS  /tmp/ccKtbbXa.s 			page 133


 7524 00a9 45350000 		.4byte	.LASF653
 7525 00ad 06       		.byte	0x6
 7526 00ae 8E01     		.uleb128 0x8e
 7527 00b0 40E80000 		.4byte	.LASF654
 7528 00b4 05       		.byte	0x5
 7529 00b5 8F01     		.uleb128 0x8f
 7530 00b7 8E200100 		.4byte	.LASF655
 7531 00bb 06       		.byte	0x6
 7532 00bc 9001     		.uleb128 0x90
 7533 00be A2310100 		.4byte	.LASF656
 7534 00c2 05       		.byte	0x5
 7535 00c3 9101     		.uleb128 0x91
 7536 00c5 1A070000 		.4byte	.LASF657
 7537 00c9 06       		.byte	0x6
 7538 00ca 9201     		.uleb128 0x92
 7539 00cc 97F60000 		.4byte	.LASF658
 7540 00d0 05       		.byte	0x5
 7541 00d1 9301     		.uleb128 0x93
 7542 00d3 B8500000 		.4byte	.LASF659
 7543 00d7 06       		.byte	0x6
 7544 00d8 9401     		.uleb128 0x94
 7545 00da 70080000 		.4byte	.LASF660
 7546 00de 05       		.byte	0x5
 7547 00df 9501     		.uleb128 0x95
 7548 00e1 89070000 		.4byte	.LASF661
 7549 00e5 06       		.byte	0x6
 7550 00e6 9601     		.uleb128 0x96
 7551 00e8 09070000 		.4byte	.LASF662
 7552 00ec 05       		.byte	0x5
 7553 00ed 9701     		.uleb128 0x97
 7554 00ef DEFF0000 		.4byte	.LASF663
 7555 00f3 06       		.byte	0x6
 7556 00f4 9801     		.uleb128 0x98
 7557 00f6 B3280100 		.4byte	.LASF664
 7558 00fa 05       		.byte	0x5
 7559 00fb 9901     		.uleb128 0x99
 7560 00fd 13760000 		.4byte	.LASF665
 7561 0101 06       		.byte	0x6
 7562 0102 9A01     		.uleb128 0x9a
 7563 0104 600F0000 		.4byte	.LASF666
 7564 0108 05       		.byte	0x5
 7565 0109 9B01     		.uleb128 0x9b
 7566 010b E3B20000 		.4byte	.LASF667
 7567 010f 06       		.byte	0x6
 7568 0110 9C01     		.uleb128 0x9c
 7569 0112 0AD20000 		.4byte	.LASF668
 7570 0116 05       		.byte	0x5
 7571 0117 9D01     		.uleb128 0x9d
 7572 0119 2E010100 		.4byte	.LASF669
 7573 011d 06       		.byte	0x6
 7574 011e 9E01     		.uleb128 0x9e
 7575 0120 C42D0100 		.4byte	.LASF670
 7576 0124 05       		.byte	0x5
 7577 0125 9F01     		.uleb128 0x9f
 7578 0127 7E410000 		.4byte	.LASF671
 7579 012b 06       		.byte	0x6
 7580 012c A001     		.uleb128 0xa0
ARM GAS  /tmp/ccKtbbXa.s 			page 134


 7581 012e D1E20000 		.4byte	.LASF672
 7582 0132 05       		.byte	0x5
 7583 0133 A101     		.uleb128 0xa1
 7584 0135 41000100 		.4byte	.LASF673
 7585 0139 06       		.byte	0x6
 7586 013a A201     		.uleb128 0xa2
 7587 013c 6F3C0000 		.4byte	.LASF674
 7588 0140 05       		.byte	0x5
 7589 0141 A301     		.uleb128 0xa3
 7590 0143 AED60000 		.4byte	.LASF675
 7591 0147 06       		.byte	0x6
 7592 0148 A501     		.uleb128 0xa5
 7593 014a 9E630000 		.4byte	.LASF676
 7594 014e 05       		.byte	0x5
 7595 014f A601     		.uleb128 0xa6
 7596 0151 27380000 		.4byte	.LASF677
 7597 0155 06       		.byte	0x6
 7598 0156 A701     		.uleb128 0xa7
 7599 0158 37910000 		.4byte	.LASF678
 7600 015c 05       		.byte	0x5
 7601 015d A801     		.uleb128 0xa8
 7602 015f 15320100 		.4byte	.LASF679
 7603 0163 06       		.byte	0x6
 7604 0164 A901     		.uleb128 0xa9
 7605 0166 69B40000 		.4byte	.LASF680
 7606 016a 05       		.byte	0x5
 7607 016b AA01     		.uleb128 0xaa
 7608 016d 28540000 		.4byte	.LASF681
 7609 0171 06       		.byte	0x6
 7610 0172 AB01     		.uleb128 0xab
 7611 0174 5D520000 		.4byte	.LASF682
 7612 0178 05       		.byte	0x5
 7613 0179 AC01     		.uleb128 0xac
 7614 017b 003B0100 		.4byte	.LASF683
 7615 017f 06       		.byte	0x6
 7616 0180 AD01     		.uleb128 0xad
 7617 0182 18380000 		.4byte	.LASF684
 7618 0186 05       		.byte	0x5
 7619 0187 AE01     		.uleb128 0xae
 7620 0189 C29E0000 		.4byte	.LASF685
 7621 018d 06       		.byte	0x6
 7622 018e AF01     		.uleb128 0xaf
 7623 0190 CC170100 		.4byte	.LASF686
 7624 0194 05       		.byte	0x5
 7625 0195 B001     		.uleb128 0xb0
 7626 0197 3E070000 		.4byte	.LASF687
 7627 019b 06       		.byte	0x6
 7628 019c B101     		.uleb128 0xb1
 7629 019e 6C3E0000 		.4byte	.LASF688
 7630 01a2 05       		.byte	0x5
 7631 01a3 B201     		.uleb128 0xb2
 7632 01a5 E03F0100 		.4byte	.LASF689
 7633 01a9 06       		.byte	0x6
 7634 01aa B301     		.uleb128 0xb3
 7635 01ac 4B610000 		.4byte	.LASF690
 7636 01b0 05       		.byte	0x5
 7637 01b1 B401     		.uleb128 0xb4
ARM GAS  /tmp/ccKtbbXa.s 			page 135


 7638 01b3 DE030100 		.4byte	.LASF691
 7639 01b7 06       		.byte	0x6
 7640 01b8 B501     		.uleb128 0xb5
 7641 01ba 25020000 		.4byte	.LASF692
 7642 01be 05       		.byte	0x5
 7643 01bf B601     		.uleb128 0xb6
 7644 01c1 9DA80000 		.4byte	.LASF693
 7645 01c5 06       		.byte	0x6
 7646 01c6 B701     		.uleb128 0xb7
 7647 01c8 8D430000 		.4byte	.LASF694
 7648 01cc 05       		.byte	0x5
 7649 01cd B801     		.uleb128 0xb8
 7650 01cf 38190000 		.4byte	.LASF695
 7651 01d3 06       		.byte	0x6
 7652 01d4 B901     		.uleb128 0xb9
 7653 01d6 42F80000 		.4byte	.LASF696
 7654 01da 05       		.byte	0x5
 7655 01db BA01     		.uleb128 0xba
 7656 01dd 3A400100 		.4byte	.LASF697
 7657 01e1 06       		.byte	0x6
 7658 01e2 BB01     		.uleb128 0xbb
 7659 01e4 A70A0000 		.4byte	.LASF698
 7660 01e8 05       		.byte	0x5
 7661 01e9 BC01     		.uleb128 0xbc
 7662 01eb 98790000 		.4byte	.LASF699
 7663 01ef 06       		.byte	0x6
 7664 01f0 BF01     		.uleb128 0xbf
 7665 01f2 F4A70000 		.4byte	.LASF700
 7666 01f6 05       		.byte	0x5
 7667 01f7 C001     		.uleb128 0xc0
 7668 01f9 D6370000 		.4byte	.LASF701
 7669 01fd 06       		.byte	0x6
 7670 01fe C101     		.uleb128 0xc1
 7671 0200 DCD80000 		.4byte	.LASF702
 7672 0204 05       		.byte	0x5
 7673 0205 C201     		.uleb128 0xc2
 7674 0207 C5030000 		.4byte	.LASF703
 7675 020b 06       		.byte	0x6
 7676 020c C501     		.uleb128 0xc5
 7677 020e C6450000 		.4byte	.LASF704
 7678 0212 05       		.byte	0x5
 7679 0213 C601     		.uleb128 0xc6
 7680 0215 7D130100 		.4byte	.LASF705
 7681 0219 06       		.byte	0x6
 7682 021a C901     		.uleb128 0xc9
 7683 021c 71350100 		.4byte	.LASF706
 7684 0220 05       		.byte	0x5
 7685 0221 CA01     		.uleb128 0xca
 7686 0223 473F0100 		.4byte	.LASF707
 7687 0227 06       		.byte	0x6
 7688 0228 CB01     		.uleb128 0xcb
 7689 022a 4EAD0000 		.4byte	.LASF708
 7690 022e 05       		.byte	0x5
 7691 022f CC01     		.uleb128 0xcc
 7692 0231 74200000 		.4byte	.LASF709
 7693 0235 06       		.byte	0x6
 7694 0236 CD01     		.uleb128 0xcd
ARM GAS  /tmp/ccKtbbXa.s 			page 136


 7695 0238 6A220000 		.4byte	.LASF710
 7696 023c 05       		.byte	0x5
 7697 023d CE01     		.uleb128 0xce
 7698 023f 568E0000 		.4byte	.LASF711
 7699 0243 06       		.byte	0x6
 7700 0244 D201     		.uleb128 0xd2
 7701 0246 99B60000 		.4byte	.LASF712
 7702 024a 05       		.byte	0x5
 7703 024b D301     		.uleb128 0xd3
 7704 024d 0A6A0000 		.4byte	.LASF713
 7705 0251 06       		.byte	0x6
 7706 0252 D401     		.uleb128 0xd4
 7707 0254 DB000100 		.4byte	.LASF714
 7708 0258 05       		.byte	0x5
 7709 0259 D501     		.uleb128 0xd5
 7710 025b CB540000 		.4byte	.LASF715
 7711 025f 06       		.byte	0x6
 7712 0260 D701     		.uleb128 0xd7
 7713 0262 EB2C0100 		.4byte	.LASF716
 7714 0266 05       		.byte	0x5
 7715 0267 D801     		.uleb128 0xd8
 7716 0269 AD7A0000 		.4byte	.LASF717
 7717 026d 06       		.byte	0x6
 7718 026e D901     		.uleb128 0xd9
 7719 0270 8D160000 		.4byte	.LASF718
 7720 0274 05       		.byte	0x5
 7721 0275 DA01     		.uleb128 0xda
 7722 0277 4ED50000 		.4byte	.LASF719
 7723 027b 06       		.byte	0x6
 7724 027c DC01     		.uleb128 0xdc
 7725 027e 80550000 		.4byte	.LASF720
 7726 0282 05       		.byte	0x5
 7727 0283 DD01     		.uleb128 0xdd
 7728 0285 71F70000 		.4byte	.LASF721
 7729 0289 06       		.byte	0x6
 7730 028a DF01     		.uleb128 0xdf
 7731 028c C5E70000 		.4byte	.LASF722
 7732 0290 05       		.byte	0x5
 7733 0291 E001     		.uleb128 0xe0
 7734 0293 A1550000 		.4byte	.LASF723
 7735 0297 06       		.byte	0x6
 7736 0298 E101     		.uleb128 0xe1
 7737 029a 6F0A0100 		.4byte	.LASF724
 7738 029e 05       		.byte	0x5
 7739 029f E201     		.uleb128 0xe2
 7740 02a1 82120100 		.4byte	.LASF725
 7741 02a5 06       		.byte	0x6
 7742 02a6 E401     		.uleb128 0xe4
 7743 02a8 6E2D0100 		.4byte	.LASF726
 7744 02ac 05       		.byte	0x5
 7745 02ad E501     		.uleb128 0xe5
 7746 02af F4AB0000 		.4byte	.LASF727
 7747 02b3 06       		.byte	0x6
 7748 02b4 E601     		.uleb128 0xe6
 7749 02b6 039C0000 		.4byte	.LASF728
 7750 02ba 05       		.byte	0x5
 7751 02bb E701     		.uleb128 0xe7
ARM GAS  /tmp/ccKtbbXa.s 			page 137


 7752 02bd 16F90000 		.4byte	.LASF729
 7753 02c1 06       		.byte	0x6
 7754 02c2 EF01     		.uleb128 0xef
 7755 02c4 7E030100 		.4byte	.LASF730
 7756 02c8 05       		.byte	0x5
 7757 02c9 F001     		.uleb128 0xf0
 7758 02cb 10490000 		.4byte	.LASF731
 7759 02cf 06       		.byte	0x6
 7760 02d0 F101     		.uleb128 0xf1
 7761 02d2 B41B0100 		.4byte	.LASF732
 7762 02d6 05       		.byte	0x5
 7763 02d7 F201     		.uleb128 0xf2
 7764 02d9 70230100 		.4byte	.LASF733
 7765 02dd 06       		.byte	0x6
 7766 02de F301     		.uleb128 0xf3
 7767 02e0 6B940000 		.4byte	.LASF734
 7768 02e4 05       		.byte	0x5
 7769 02e5 F401     		.uleb128 0xf4
 7770 02e7 7BED0000 		.4byte	.LASF735
 7771 02eb 06       		.byte	0x6
 7772 02ec F501     		.uleb128 0xf5
 7773 02ee 10270000 		.4byte	.LASF736
 7774 02f2 05       		.byte	0x5
 7775 02f3 F601     		.uleb128 0xf6
 7776 02f5 10E10000 		.4byte	.LASF737
 7777 02f9 06       		.byte	0x6
 7778 02fa F701     		.uleb128 0xf7
 7779 02fc 46D40000 		.4byte	.LASF738
 7780 0300 05       		.byte	0x5
 7781 0301 F801     		.uleb128 0xf8
 7782 0303 15C40000 		.4byte	.LASF739
 7783 0307 06       		.byte	0x6
 7784 0308 F901     		.uleb128 0xf9
 7785 030a ED320000 		.4byte	.LASF740
 7786 030e 05       		.byte	0x5
 7787 030f FA01     		.uleb128 0xfa
 7788 0311 3D000000 		.4byte	.LASF741
 7789 0315 06       		.byte	0x6
 7790 0316 FB01     		.uleb128 0xfb
 7791 0318 0DA90000 		.4byte	.LASF742
 7792 031c 05       		.byte	0x5
 7793 031d FC01     		.uleb128 0xfc
 7794 031f 0A810000 		.4byte	.LASF743
 7795 0323 06       		.byte	0x6
 7796 0324 FD01     		.uleb128 0xfd
 7797 0326 1D390000 		.4byte	.LASF744
 7798 032a 05       		.byte	0x5
 7799 032b FE01     		.uleb128 0xfe
 7800 032d 2D340000 		.4byte	.LASF745
 7801 0331 06       		.byte	0x6
 7802 0332 FF01     		.uleb128 0xff
 7803 0334 FF940000 		.4byte	.LASF746
 7804 0338 05       		.byte	0x5
 7805 0339 8002     		.uleb128 0x100
 7806 033b DAAB0000 		.4byte	.LASF747
 7807 033f 06       		.byte	0x6
 7808 0340 8102     		.uleb128 0x101
ARM GAS  /tmp/ccKtbbXa.s 			page 138


 7809 0342 E07D0000 		.4byte	.LASF748
 7810 0346 05       		.byte	0x5
 7811 0347 8202     		.uleb128 0x102
 7812 0349 65290000 		.4byte	.LASF749
 7813 034d 00       		.byte	0
 7814              		.section	.debug_macro,"G",%progbits,wm4.stddef.h.260.a563f68b1b4acaeb10448e3f261a0d35,comdat
 7815              	.Ldebug_macro12:
 7816 0000 0400     		.2byte	0x4
 7817 0002 00       		.byte	0
 7818 0003 05       		.byte	0x5
 7819 0004 8402     		.uleb128 0x104
 7820 0006 C18C0000 		.4byte	.LASF751
 7821 000a 05       		.byte	0x5
 7822 000b 8502     		.uleb128 0x105
 7823 000d 6F150000 		.4byte	.LASF752
 7824 0011 05       		.byte	0x5
 7825 0012 8602     		.uleb128 0x106
 7826 0014 EC3D0000 		.4byte	.LASF753
 7827 0018 05       		.byte	0x5
 7828 0019 8702     		.uleb128 0x107
 7829 001b 49DE0000 		.4byte	.LASF754
 7830 001f 05       		.byte	0x5
 7831 0020 8802     		.uleb128 0x108
 7832 0022 4E940000 		.4byte	.LASF755
 7833 0026 05       		.byte	0x5
 7834 0027 8902     		.uleb128 0x109
 7835 0029 2B0C0100 		.4byte	.LASF756
 7836 002d 05       		.byte	0x5
 7837 002e 8A02     		.uleb128 0x10a
 7838 0030 73960000 		.4byte	.LASF757
 7839 0034 05       		.byte	0x5
 7840 0035 8B02     		.uleb128 0x10b
 7841 0037 14FE0000 		.4byte	.LASF758
 7842 003b 05       		.byte	0x5
 7843 003c 8C02     		.uleb128 0x10c
 7844 003e 56570000 		.4byte	.LASF759
 7845 0042 05       		.byte	0x5
 7846 0043 8D02     		.uleb128 0x10d
 7847 0045 34850000 		.4byte	.LASF760
 7848 0049 05       		.byte	0x5
 7849 004a 8E02     		.uleb128 0x10e
 7850 004c A55C0000 		.4byte	.LASF761
 7851 0050 05       		.byte	0x5
 7852 0051 8F02     		.uleb128 0x10f
 7853 0053 9C090100 		.4byte	.LASF762
 7854 0057 05       		.byte	0x5
 7855 0058 9002     		.uleb128 0x110
 7856 005a 15430000 		.4byte	.LASF763
 7857 005e 05       		.byte	0x5
 7858 005f 9102     		.uleb128 0x111
 7859 0061 5B6F0000 		.4byte	.LASF764
 7860 0065 05       		.byte	0x5
 7861 0066 9202     		.uleb128 0x112
 7862 0068 4D8D0000 		.4byte	.LASF765
 7863 006c 06       		.byte	0x6
 7864 006d 9F02     		.uleb128 0x11f
 7865 006f 51720000 		.4byte	.LASF766
ARM GAS  /tmp/ccKtbbXa.s 			page 139


 7866 0073 06       		.byte	0x6
 7867 0074 D402     		.uleb128 0x154
 7868 0076 ABEE0000 		.4byte	.LASF767
 7869 007a 06       		.byte	0x6
 7870 007b 9103     		.uleb128 0x191
 7871 007d FE9E0000 		.4byte	.LASF768
 7872 0081 00       		.byte	0
 7873              		.section	.debug_macro,"G",%progbits,wm4.inttypes.h.28.1ed17ee9a58d8e8e1affb7ef0fc5d620,comdat
 7874              	.Ldebug_macro13:
 7875 0000 0400     		.2byte	0x4
 7876 0002 00       		.byte	0
 7877 0003 05       		.byte	0x5
 7878 0004 1C       		.uleb128 0x1c
 7879 0005 6BA80000 		.4byte	.LASF770
 7880 0009 05       		.byte	0x5
 7881 000a 1F       		.uleb128 0x1f
 7882 000b 772D0100 		.4byte	.LASF771
 7883 000f 05       		.byte	0x5
 7884 0010 20       		.uleb128 0x20
 7885 0011 2A2D0100 		.4byte	.LASF772
 7886 0015 05       		.byte	0x5
 7887 0016 21       		.uleb128 0x21
 7888 0017 ED000000 		.4byte	.LASF773
 7889 001b 05       		.byte	0x5
 7890 001c 34       		.uleb128 0x34
 7891 001d 20510000 		.4byte	.LASF774
 7892 0021 05       		.byte	0x5
 7893 0022 35       		.uleb128 0x35
 7894 0023 B7FE0000 		.4byte	.LASF775
 7895 0027 05       		.byte	0x5
 7896 0028 36       		.uleb128 0x36
 7897 0029 2C220000 		.4byte	.LASF776
 7898 002d 05       		.byte	0x5
 7899 002e 37       		.uleb128 0x37
 7900 002f 15560000 		.4byte	.LASF777
 7901 0033 05       		.byte	0x5
 7902 0034 38       		.uleb128 0x38
 7903 0035 42630000 		.4byte	.LASF778
 7904 0039 05       		.byte	0x5
 7905 003a 39       		.uleb128 0x39
 7906 003b EED50000 		.4byte	.LASF779
 7907 003f 05       		.byte	0x5
 7908 0040 47       		.uleb128 0x47
 7909 0041 11E40000 		.4byte	.LASF780
 7910 0045 05       		.byte	0x5
 7911 0046 48       		.uleb128 0x48
 7912 0047 E26A0000 		.4byte	.LASF781
 7913 004b 05       		.byte	0x5
 7914 004c 49       		.uleb128 0x49
 7915 004d D0610000 		.4byte	.LASF782
 7916 0051 05       		.byte	0x5
 7917 0052 4A       		.uleb128 0x4a
 7918 0053 1D5A0000 		.4byte	.LASF783
 7919 0057 05       		.byte	0x5
 7920 0058 4B       		.uleb128 0x4b
 7921 0059 FDC80000 		.4byte	.LASF784
 7922 005d 05       		.byte	0x5
ARM GAS  /tmp/ccKtbbXa.s 			page 140


 7923 005e 4C       		.uleb128 0x4c
 7924 005f 27F40000 		.4byte	.LASF785
 7925 0063 05       		.byte	0x5
 7926 0064 59       		.uleb128 0x59
 7927 0065 2AD70000 		.4byte	.LASF786
 7928 0069 05       		.byte	0x5
 7929 006a 5A       		.uleb128 0x5a
 7930 006b 3D3A0100 		.4byte	.LASF787
 7931 006f 05       		.byte	0x5
 7932 0070 5B       		.uleb128 0x5b
 7933 0071 8ACF0000 		.4byte	.LASF788
 7934 0075 05       		.byte	0x5
 7935 0076 5C       		.uleb128 0x5c
 7936 0077 FD550000 		.4byte	.LASF789
 7937 007b 05       		.byte	0x5
 7938 007c 5D       		.uleb128 0x5d
 7939 007d 1BC70000 		.4byte	.LASF790
 7940 0081 05       		.byte	0x5
 7941 0082 5E       		.uleb128 0x5e
 7942 0083 86630000 		.4byte	.LASF791
 7943 0087 05       		.byte	0x5
 7944 0088 6C       		.uleb128 0x6c
 7945 0089 B09B0000 		.4byte	.LASF792
 7946 008d 05       		.byte	0x5
 7947 008e 6D       		.uleb128 0x6d
 7948 008f C2DB0000 		.4byte	.LASF793
 7949 0093 05       		.byte	0x5
 7950 0094 6E       		.uleb128 0x6e
 7951 0095 4CD00000 		.4byte	.LASF794
 7952 0099 05       		.byte	0x5
 7953 009a 6F       		.uleb128 0x6f
 7954 009b F31B0100 		.4byte	.LASF795
 7955 009f 05       		.byte	0x5
 7956 00a0 70       		.uleb128 0x70
 7957 00a1 3AB60000 		.4byte	.LASF796
 7958 00a5 05       		.byte	0x5
 7959 00a6 71       		.uleb128 0x71
 7960 00a7 4A250000 		.4byte	.LASF797
 7961 00ab 05       		.byte	0x5
 7962 00ac 74       		.uleb128 0x74
 7963 00ad E0CA0000 		.4byte	.LASF798
 7964 00b1 05       		.byte	0x5
 7965 00b2 75       		.uleb128 0x75
 7966 00b3 2D270100 		.4byte	.LASF799
 7967 00b7 05       		.byte	0x5
 7968 00b8 76       		.uleb128 0x76
 7969 00b9 7D3F0000 		.4byte	.LASF800
 7970 00bd 05       		.byte	0x5
 7971 00be 77       		.uleb128 0x77
 7972 00bf 77D60000 		.4byte	.LASF801
 7973 00c3 05       		.byte	0x5
 7974 00c4 78       		.uleb128 0x78
 7975 00c5 A7330000 		.4byte	.LASF802
 7976 00c9 05       		.byte	0x5
 7977 00ca 79       		.uleb128 0x79
 7978 00cb 8A350000 		.4byte	.LASF803
 7979 00cf 05       		.byte	0x5
ARM GAS  /tmp/ccKtbbXa.s 			page 141


 7980 00d0 7B       		.uleb128 0x7b
 7981 00d1 032F0100 		.4byte	.LASF804
 7982 00d5 05       		.byte	0x5
 7983 00d6 7C       		.uleb128 0x7c
 7984 00d7 B5190000 		.4byte	.LASF805
 7985 00db 05       		.byte	0x5
 7986 00dc 7D       		.uleb128 0x7d
 7987 00dd 11A10000 		.4byte	.LASF806
 7988 00e1 05       		.byte	0x5
 7989 00e2 7E       		.uleb128 0x7e
 7990 00e3 74380100 		.4byte	.LASF807
 7991 00e7 05       		.byte	0x5
 7992 00e8 7F       		.uleb128 0x7f
 7993 00e9 25910000 		.4byte	.LASF808
 7994 00ed 05       		.byte	0x5
 7995 00ee 8201     		.uleb128 0x82
 7996 00f0 836F0000 		.4byte	.LASF809
 7997 00f4 05       		.byte	0x5
 7998 00f5 8301     		.uleb128 0x83
 7999 00f7 581A0000 		.4byte	.LASF810
 8000 00fb 05       		.byte	0x5
 8001 00fc 8401     		.uleb128 0x84
 8002 00fe D9310100 		.4byte	.LASF811
 8003 0102 05       		.byte	0x5
 8004 0103 8501     		.uleb128 0x85
 8005 0105 D0090100 		.4byte	.LASF812
 8006 0109 05       		.byte	0x5
 8007 010a 8601     		.uleb128 0x86
 8008 010c 25950000 		.4byte	.LASF813
 8009 0110 05       		.byte	0x5
 8010 0111 8701     		.uleb128 0x87
 8011 0113 AAC90000 		.4byte	.LASF814
 8012 0117 05       		.byte	0x5
 8013 0118 8901     		.uleb128 0x89
 8014 011a 3F6F0000 		.4byte	.LASF815
 8015 011e 05       		.byte	0x5
 8016 011f 8A01     		.uleb128 0x8a
 8017 0121 2E0F0100 		.4byte	.LASF816
 8018 0125 05       		.byte	0x5
 8019 0126 8B01     		.uleb128 0x8b
 8020 0128 28FD0000 		.4byte	.LASF817
 8021 012c 05       		.byte	0x5
 8022 012d 8C01     		.uleb128 0x8c
 8023 012f 39D80000 		.4byte	.LASF818
 8024 0133 05       		.byte	0x5
 8025 0134 8D01     		.uleb128 0x8d
 8026 0136 991D0100 		.4byte	.LASF819
 8027 013a 05       		.byte	0x5
 8028 013b 9001     		.uleb128 0x90
 8029 013d C7C30000 		.4byte	.LASF820
 8030 0141 05       		.byte	0x5
 8031 0142 9101     		.uleb128 0x91
 8032 0144 33120100 		.4byte	.LASF821
 8033 0148 05       		.byte	0x5
 8034 0149 9201     		.uleb128 0x92
 8035 014b D6E60000 		.4byte	.LASF822
 8036 014f 05       		.byte	0x5
ARM GAS  /tmp/ccKtbbXa.s 			page 142


 8037 0150 9301     		.uleb128 0x93
 8038 0152 88420000 		.4byte	.LASF823
 8039 0156 05       		.byte	0x5
 8040 0157 9401     		.uleb128 0x94
 8041 0159 5D0D0000 		.4byte	.LASF824
 8042 015d 05       		.byte	0x5
 8043 015e 9501     		.uleb128 0x95
 8044 0160 913C0100 		.4byte	.LASF825
 8045 0164 05       		.byte	0x5
 8046 0165 9701     		.uleb128 0x97
 8047 0167 937A0000 		.4byte	.LASF826
 8048 016b 05       		.byte	0x5
 8049 016c 9801     		.uleb128 0x98
 8050 016e C63F0100 		.4byte	.LASF827
 8051 0172 05       		.byte	0x5
 8052 0173 9901     		.uleb128 0x99
 8053 0175 476A0000 		.4byte	.LASF828
 8054 0179 05       		.byte	0x5
 8055 017a 9A01     		.uleb128 0x9a
 8056 017c 696F0000 		.4byte	.LASF829
 8057 0180 05       		.byte	0x5
 8058 0181 9B01     		.uleb128 0x9b
 8059 0183 092F0000 		.4byte	.LASF830
 8060 0187 05       		.byte	0x5
 8061 0188 9E01     		.uleb128 0x9e
 8062 018a 323A0000 		.4byte	.LASF831
 8063 018e 05       		.byte	0x5
 8064 018f 9F01     		.uleb128 0x9f
 8065 0191 ABAD0000 		.4byte	.LASF832
 8066 0195 05       		.byte	0x5
 8067 0196 A001     		.uleb128 0xa0
 8068 0198 79770000 		.4byte	.LASF833
 8069 019c 05       		.byte	0x5
 8070 019d A101     		.uleb128 0xa1
 8071 019f 481D0100 		.4byte	.LASF834
 8072 01a3 05       		.byte	0x5
 8073 01a4 A201     		.uleb128 0xa2
 8074 01a6 58FE0000 		.4byte	.LASF835
 8075 01aa 05       		.byte	0x5
 8076 01ab A301     		.uleb128 0xa3
 8077 01ad 63120000 		.4byte	.LASF836
 8078 01b1 05       		.byte	0x5
 8079 01b2 A501     		.uleb128 0xa5
 8080 01b4 04E00000 		.4byte	.LASF837
 8081 01b8 05       		.byte	0x5
 8082 01b9 A601     		.uleb128 0xa6
 8083 01bb F6010100 		.4byte	.LASF838
 8084 01bf 05       		.byte	0x5
 8085 01c0 A701     		.uleb128 0xa7
 8086 01c2 EE060100 		.4byte	.LASF839
 8087 01c6 05       		.byte	0x5
 8088 01c7 A801     		.uleb128 0xa8
 8089 01c9 7D500000 		.4byte	.LASF840
 8090 01cd 05       		.byte	0x5
 8091 01ce A901     		.uleb128 0xa9
 8092 01d0 0E400000 		.4byte	.LASF841
 8093 01d4 05       		.byte	0x5
ARM GAS  /tmp/ccKtbbXa.s 			page 143


 8094 01d5 AA01     		.uleb128 0xaa
 8095 01d7 95FA0000 		.4byte	.LASF842
 8096 01db 05       		.byte	0x5
 8097 01dc AC01     		.uleb128 0xac
 8098 01de E13E0100 		.4byte	.LASF843
 8099 01e2 05       		.byte	0x5
 8100 01e3 AD01     		.uleb128 0xad
 8101 01e5 7DF50000 		.4byte	.LASF844
 8102 01e9 05       		.byte	0x5
 8103 01ea AE01     		.uleb128 0xae
 8104 01ec 362C0000 		.4byte	.LASF845
 8105 01f0 05       		.byte	0x5
 8106 01f1 AF01     		.uleb128 0xaf
 8107 01f3 47B40000 		.4byte	.LASF846
 8108 01f7 05       		.byte	0x5
 8109 01f8 B001     		.uleb128 0xb0
 8110 01fa 98A10000 		.4byte	.LASF847
 8111 01fe 05       		.byte	0x5
 8112 01ff B301     		.uleb128 0xb3
 8113 0201 7FB80000 		.4byte	.LASF848
 8114 0205 05       		.byte	0x5
 8115 0206 B401     		.uleb128 0xb4
 8116 0208 69A20000 		.4byte	.LASF849
 8117 020c 05       		.byte	0x5
 8118 020d B501     		.uleb128 0xb5
 8119 020f AA450000 		.4byte	.LASF850
 8120 0213 05       		.byte	0x5
 8121 0214 B601     		.uleb128 0xb6
 8122 0216 12550000 		.4byte	.LASF851
 8123 021a 05       		.byte	0x5
 8124 021b B701     		.uleb128 0xb7
 8125 021d 519A0000 		.4byte	.LASF852
 8126 0221 05       		.byte	0x5
 8127 0222 B801     		.uleb128 0xb8
 8128 0224 AED10000 		.4byte	.LASF853
 8129 0228 05       		.byte	0x5
 8130 0229 BA01     		.uleb128 0xba
 8131 022b E0420000 		.4byte	.LASF854
 8132 022f 05       		.byte	0x5
 8133 0230 BB01     		.uleb128 0xbb
 8134 0232 52840000 		.4byte	.LASF855
 8135 0236 05       		.byte	0x5
 8136 0237 BC01     		.uleb128 0xbc
 8137 0239 8E000100 		.4byte	.LASF856
 8138 023d 05       		.byte	0x5
 8139 023e BD01     		.uleb128 0xbd
 8140 0240 2BE00000 		.4byte	.LASF857
 8141 0244 05       		.byte	0x5
 8142 0245 BE01     		.uleb128 0xbe
 8143 0247 75610000 		.4byte	.LASF858
 8144 024b 05       		.byte	0x5
 8145 024c C101     		.uleb128 0xc1
 8146 024e FE180000 		.4byte	.LASF859
 8147 0252 05       		.byte	0x5
 8148 0253 C201     		.uleb128 0xc2
 8149 0255 7E5A0000 		.4byte	.LASF860
 8150 0259 05       		.byte	0x5
ARM GAS  /tmp/ccKtbbXa.s 			page 144


 8151 025a C301     		.uleb128 0xc3
 8152 025c EF520000 		.4byte	.LASF861
 8153 0260 05       		.byte	0x5
 8154 0261 C401     		.uleb128 0xc4
 8155 0263 A0E30000 		.4byte	.LASF862
 8156 0267 05       		.byte	0x5
 8157 0268 C501     		.uleb128 0xc5
 8158 026a EA8A0000 		.4byte	.LASF863
 8159 026e 05       		.byte	0x5
 8160 026f C601     		.uleb128 0xc6
 8161 0271 2C290000 		.4byte	.LASF864
 8162 0275 05       		.byte	0x5
 8163 0276 C801     		.uleb128 0xc8
 8164 0278 CE430000 		.4byte	.LASF865
 8165 027c 05       		.byte	0x5
 8166 027d C901     		.uleb128 0xc9
 8167 027f 9D8D0000 		.4byte	.LASF866
 8168 0283 05       		.byte	0x5
 8169 0284 CA01     		.uleb128 0xca
 8170 0286 1F840000 		.4byte	.LASF867
 8171 028a 05       		.byte	0x5
 8172 028b CB01     		.uleb128 0xcb
 8173 028d FB050100 		.4byte	.LASF868
 8174 0291 05       		.byte	0x5
 8175 0292 CC01     		.uleb128 0xcc
 8176 0294 84C40000 		.4byte	.LASF869
 8177 0298 05       		.byte	0x5
 8178 0299 D001     		.uleb128 0xd0
 8179 029b 5E270000 		.4byte	.LASF870
 8180 029f 05       		.byte	0x5
 8181 02a0 D101     		.uleb128 0xd1
 8182 02a2 7E2B0100 		.4byte	.LASF871
 8183 02a6 05       		.byte	0x5
 8184 02a7 D301     		.uleb128 0xd3
 8185 02a9 48690000 		.4byte	.LASF872
 8186 02ad 05       		.byte	0x5
 8187 02ae D401     		.uleb128 0xd4
 8188 02b0 7D0C0100 		.4byte	.LASF873
 8189 02b4 05       		.byte	0x5
 8190 02b5 D501     		.uleb128 0xd5
 8191 02b7 D21C0100 		.4byte	.LASF874
 8192 02bb 05       		.byte	0x5
 8193 02bc D601     		.uleb128 0xd6
 8194 02be 796A0000 		.4byte	.LASF875
 8195 02c2 05       		.byte	0x5
 8196 02c3 8D02     		.uleb128 0x10d
 8197 02c5 A6860000 		.4byte	.LASF876
 8198 02c9 05       		.byte	0x5
 8199 02ca 8E02     		.uleb128 0x10e
 8200 02cc D81B0100 		.4byte	.LASF877
 8201 02d0 05       		.byte	0x5
 8202 02d1 9102     		.uleb128 0x111
 8203 02d3 00000000 		.4byte	.LASF878
 8204 02d7 05       		.byte	0x5
 8205 02d8 9202     		.uleb128 0x112
 8206 02da ADEB0000 		.4byte	.LASF879
 8207 02de 05       		.byte	0x5
ARM GAS  /tmp/ccKtbbXa.s 			page 145


 8208 02df 9302     		.uleb128 0x113
 8209 02e1 49520000 		.4byte	.LASF880
 8210 02e5 05       		.byte	0x5
 8211 02e6 9402     		.uleb128 0x114
 8212 02e8 82B00000 		.4byte	.LASF881
 8213 02ec 05       		.byte	0x5
 8214 02ed 9502     		.uleb128 0x115
 8215 02ef 5A5B0000 		.4byte	.LASF882
 8216 02f3 05       		.byte	0x5
 8217 02f4 9602     		.uleb128 0x116
 8218 02f6 C8330000 		.4byte	.LASF883
 8219 02fa 05       		.byte	0x5
 8220 02fb 9802     		.uleb128 0x118
 8221 02fd 54010100 		.4byte	.LASF884
 8222 0301 05       		.byte	0x5
 8223 0302 9902     		.uleb128 0x119
 8224 0304 AAA10000 		.4byte	.LASF885
 8225 0308 05       		.byte	0x5
 8226 0309 9A02     		.uleb128 0x11a
 8227 030b 7F7A0000 		.4byte	.LASF886
 8228 030f 05       		.byte	0x5
 8229 0310 9B02     		.uleb128 0x11b
 8230 0312 6A2B0100 		.4byte	.LASF887
 8231 0316 05       		.byte	0x5
 8232 0317 9C02     		.uleb128 0x11c
 8233 0319 81230000 		.4byte	.LASF888
 8234 031d 05       		.byte	0x5
 8235 031e A602     		.uleb128 0x126
 8236 0320 1FB10000 		.4byte	.LASF889
 8237 0324 05       		.byte	0x5
 8238 0325 A702     		.uleb128 0x127
 8239 0327 BB400100 		.4byte	.LASF890
 8240 032b 05       		.byte	0x5
 8241 032c AA02     		.uleb128 0x12a
 8242 032e 2CE80000 		.4byte	.LASF891
 8243 0332 05       		.byte	0x5
 8244 0333 AB02     		.uleb128 0x12b
 8245 0335 F6800000 		.4byte	.LASF892
 8246 0339 05       		.byte	0x5
 8247 033a AC02     		.uleb128 0x12c
 8248 033c F6690000 		.4byte	.LASF893
 8249 0340 05       		.byte	0x5
 8250 0341 AD02     		.uleb128 0x12d
 8251 0343 DD4F0000 		.4byte	.LASF894
 8252 0347 05       		.byte	0x5
 8253 0348 AE02     		.uleb128 0x12e
 8254 034a 51E50000 		.4byte	.LASF895
 8255 034e 05       		.byte	0x5
 8256 034f AF02     		.uleb128 0x12f
 8257 0351 75590000 		.4byte	.LASF896
 8258 0355 05       		.byte	0x5
 8259 0356 B102     		.uleb128 0x131
 8260 0358 6B9C0000 		.4byte	.LASF897
 8261 035c 05       		.byte	0x5
 8262 035d B202     		.uleb128 0x132
 8263 035f 9C430000 		.4byte	.LASF898
 8264 0363 05       		.byte	0x5
ARM GAS  /tmp/ccKtbbXa.s 			page 146


 8265 0364 B302     		.uleb128 0x133
 8266 0366 D72F0000 		.4byte	.LASF899
 8267 036a 05       		.byte	0x5
 8268 036b B402     		.uleb128 0x134
 8269 036d 3A180000 		.4byte	.LASF900
 8270 0371 05       		.byte	0x5
 8271 0372 B502     		.uleb128 0x135
 8272 0374 CA030100 		.4byte	.LASF901
 8273 0378 00       		.byte	0
 8274              		.section	.debug_macro,"G",%progbits,wm4.stdbool.h.29.07dce69c3b78884144b7f7bd19483461,comdat
 8275              	.Ldebug_macro14:
 8276 0000 0400     		.2byte	0x4
 8277 0002 00       		.byte	0
 8278 0003 05       		.byte	0x5
 8279 0004 1D       		.uleb128 0x1d
 8280 0005 81160000 		.4byte	.LASF902
 8281 0009 05       		.byte	0x5
 8282 000a 21       		.uleb128 0x21
 8283 000b 0F2C0000 		.4byte	.LASF903
 8284 000f 05       		.byte	0x5
 8285 0010 22       		.uleb128 0x22
 8286 0011 D6EC0000 		.4byte	.LASF904
 8287 0015 05       		.byte	0x5
 8288 0016 23       		.uleb128 0x23
 8289 0017 67350000 		.4byte	.LASF905
 8290 001b 05       		.byte	0x5
 8291 001c 34       		.uleb128 0x34
 8292 001d D9E90000 		.4byte	.LASF906
 8293 0021 00       		.byte	0
 8294              		.section	.debug_macro,"G",%progbits,wm4.stddef.h.39.d8490dfca3ef380c55ad4ddecdce92a9,comdat
 8295              	.Ldebug_macro15:
 8296 0000 0400     		.2byte	0x4
 8297 0002 00       		.byte	0
 8298 0003 05       		.byte	0x5
 8299 0004 27       		.uleb128 0x27
 8300 0005 94FE0000 		.4byte	.LASF909
 8301 0009 05       		.byte	0x5
 8302 000a 28       		.uleb128 0x28
 8303 000b 45050100 		.4byte	.LASF910
 8304 000f 05       		.byte	0x5
 8305 0010 2A       		.uleb128 0x2a
 8306 0011 59B40000 		.4byte	.LASF911
 8307 0015 05       		.byte	0x5
 8308 0016 8301     		.uleb128 0x83
 8309 0018 8F500000 		.4byte	.LASF912
 8310 001c 05       		.byte	0x5
 8311 001d 8401     		.uleb128 0x84
 8312 001f AF1D0000 		.4byte	.LASF913
 8313 0023 05       		.byte	0x5
 8314 0024 8501     		.uleb128 0x85
 8315 0026 E8EE0000 		.4byte	.LASF914
 8316 002a 05       		.byte	0x5
 8317 002b 8601     		.uleb128 0x86
 8318 002d D6D00000 		.4byte	.LASF915
 8319 0031 05       		.byte	0x5
 8320 0032 8701     		.uleb128 0x87
 8321 0034 C1CE0000 		.4byte	.LASF916
ARM GAS  /tmp/ccKtbbXa.s 			page 147


 8322 0038 05       		.byte	0x5
 8323 0039 8801     		.uleb128 0x88
 8324 003b 1A0C0100 		.4byte	.LASF917
 8325 003f 05       		.byte	0x5
 8326 0040 8901     		.uleb128 0x89
 8327 0042 4D120100 		.4byte	.LASF918
 8328 0046 05       		.byte	0x5
 8329 0047 8A01     		.uleb128 0x8a
 8330 0049 A9F10000 		.4byte	.LASF919
 8331 004d 05       		.byte	0x5
 8332 004e 8B01     		.uleb128 0x8b
 8333 0050 504B0000 		.4byte	.LASF920
 8334 0054 06       		.byte	0x6
 8335 0055 9B01     		.uleb128 0x9b
 8336 0057 EC740000 		.4byte	.LASF921
 8337 005b 05       		.byte	0x5
 8338 005c B501     		.uleb128 0xb5
 8339 005e E6AA0000 		.4byte	.LASF922
 8340 0062 05       		.byte	0x5
 8341 0063 B601     		.uleb128 0xb6
 8342 0065 09340100 		.4byte	.LASF923
 8343 0069 05       		.byte	0x5
 8344 006a B701     		.uleb128 0xb7
 8345 006c 21E50000 		.4byte	.LASF924
 8346 0070 05       		.byte	0x5
 8347 0071 B801     		.uleb128 0xb8
 8348 0073 C5980000 		.4byte	.LASF925
 8349 0077 05       		.byte	0x5
 8350 0078 B901     		.uleb128 0xb9
 8351 007a 67310000 		.4byte	.LASF926
 8352 007e 05       		.byte	0x5
 8353 007f BA01     		.uleb128 0xba
 8354 0081 FCD60000 		.4byte	.LASF927
 8355 0085 05       		.byte	0x5
 8356 0086 BB01     		.uleb128 0xbb
 8357 0088 09D50000 		.4byte	.LASF928
 8358 008c 05       		.byte	0x5
 8359 008d BC01     		.uleb128 0xbc
 8360 008f FC720000 		.4byte	.LASF929
 8361 0093 05       		.byte	0x5
 8362 0094 BD01     		.uleb128 0xbd
 8363 0096 15B00000 		.4byte	.LASF930
 8364 009a 05       		.byte	0x5
 8365 009b BE01     		.uleb128 0xbe
 8366 009d 36690000 		.4byte	.LASF931
 8367 00a1 05       		.byte	0x5
 8368 00a2 BF01     		.uleb128 0xbf
 8369 00a4 1BE80000 		.4byte	.LASF932
 8370 00a8 05       		.byte	0x5
 8371 00a9 C001     		.uleb128 0xc0
 8372 00ab E4230000 		.4byte	.LASF933
 8373 00af 05       		.byte	0x5
 8374 00b0 C101     		.uleb128 0xc1
 8375 00b2 923A0000 		.4byte	.LASF934
 8376 00b6 05       		.byte	0x5
 8377 00b7 C201     		.uleb128 0xc2
 8378 00b9 31680000 		.4byte	.LASF935
ARM GAS  /tmp/ccKtbbXa.s 			page 148


 8379 00bd 05       		.byte	0x5
 8380 00be C301     		.uleb128 0xc3
 8381 00c0 B52E0100 		.4byte	.LASF936
 8382 00c4 05       		.byte	0x5
 8383 00c5 C401     		.uleb128 0xc4
 8384 00c7 0D040100 		.4byte	.LASF937
 8385 00cb 05       		.byte	0x5
 8386 00cc CB01     		.uleb128 0xcb
 8387 00ce FB430000 		.4byte	.LASF938
 8388 00d2 06       		.byte	0x6
 8389 00d3 E701     		.uleb128 0xe7
 8390 00d5 BE160100 		.4byte	.LASF939
 8391 00d9 06       		.byte	0x6
 8392 00da D402     		.uleb128 0x154
 8393 00dc ABEE0000 		.4byte	.LASF767
 8394 00e0 06       		.byte	0x6
 8395 00e1 8603     		.uleb128 0x186
 8396 00e3 8B6B0000 		.4byte	.LASF940
 8397 00e7 05       		.byte	0x5
 8398 00e8 8B03     		.uleb128 0x18b
 8399 00ea 7EEB0000 		.4byte	.LASF941
 8400 00ee 06       		.byte	0x6
 8401 00ef 9103     		.uleb128 0x191
 8402 00f1 FE9E0000 		.4byte	.LASF768
 8403 00f5 05       		.byte	0x5
 8404 00f6 9603     		.uleb128 0x196
 8405 00f8 0A9F0000 		.4byte	.LASF942
 8406 00fc 00       		.byte	0
 8407              		.section	.debug_macro,"G",%progbits,wm4._types.h.20.dd0d04dca3800a0d2a6129b87f3adbb2,comdat
 8408              	.Ldebug_macro16:
 8409 0000 0400     		.2byte	0x4
 8410 0002 00       		.byte	0
 8411 0003 05       		.byte	0x5
 8412 0004 14       		.uleb128 0x14
 8413 0005 85A20000 		.4byte	.LASF943
 8414 0009 05       		.byte	0x5
 8415 000a 16       		.uleb128 0x16
 8416 000b 9C700000 		.4byte	.LASF944
 8417 000f 05       		.byte	0x5
 8418 0010 17       		.uleb128 0x17
 8419 0011 4F120000 		.4byte	.LASF945
 8420 0015 00       		.byte	0
 8421              		.section	.debug_macro,"G",%progbits,wm4.stddef.h.155.3588ebfdd1e8c7ede80509bb9c3b8009,comdat
 8422              	.Ldebug_macro17:
 8423 0000 0400     		.2byte	0x4
 8424 0002 00       		.byte	0
 8425 0003 06       		.byte	0x6
 8426 0004 9B01     		.uleb128 0x9b
 8427 0006 EC740000 		.4byte	.LASF921
 8428 000a 06       		.byte	0x6
 8429 000b E701     		.uleb128 0xe7
 8430 000d BE160100 		.4byte	.LASF939
 8431 0011 06       		.byte	0x6
 8432 0012 D402     		.uleb128 0x154
 8433 0014 ABEE0000 		.4byte	.LASF767
 8434 0018 05       		.byte	0x5
 8435 0019 D902     		.uleb128 0x159
ARM GAS  /tmp/ccKtbbXa.s 			page 149


 8436 001b 80070000 		.4byte	.LASF946
 8437 001f 06       		.byte	0x6
 8438 0020 E002     		.uleb128 0x160
 8439 0022 76850000 		.4byte	.LASF947
 8440 0026 06       		.byte	0x6
 8441 0027 8603     		.uleb128 0x186
 8442 0029 8B6B0000 		.4byte	.LASF940
 8443 002d 05       		.byte	0x5
 8444 002e 8B03     		.uleb128 0x18b
 8445 0030 7EEB0000 		.4byte	.LASF941
 8446 0034 06       		.byte	0x6
 8447 0035 9103     		.uleb128 0x191
 8448 0037 FE9E0000 		.4byte	.LASF768
 8449 003b 05       		.byte	0x5
 8450 003c 9603     		.uleb128 0x196
 8451 003e 0A9F0000 		.4byte	.LASF942
 8452 0042 00       		.byte	0
 8453              		.section	.debug_macro,"G",%progbits,wm4._default_types.h.6.959254cf5f09734ea7516c89e8bb21bd,comdat
 8454              	.Ldebug_macro18:
 8455 0000 0400     		.2byte	0x4
 8456 0002 00       		.byte	0
 8457 0003 05       		.byte	0x5
 8458 0004 06       		.uleb128 0x6
 8459 0005 6CEC0000 		.4byte	.LASF949
 8460 0009 05       		.byte	0x5
 8461 000a 0F       		.uleb128 0xf
 8462 000b F0370000 		.4byte	.LASF950
 8463 000f 05       		.byte	0x5
 8464 0010 1A       		.uleb128 0x1a
 8465 0011 0C090000 		.4byte	.LASF951
 8466 0015 05       		.byte	0x5
 8467 0016 21       		.uleb128 0x21
 8468 0017 AF130100 		.4byte	.LASF952
 8469 001b 05       		.byte	0x5
 8470 001c 2F       		.uleb128 0x2f
 8471 001d 8CE80000 		.4byte	.LASF953
 8472 0021 05       		.byte	0x5
 8473 0022 3D       		.uleb128 0x3d
 8474 0023 A43A0000 		.4byte	.LASF954
 8475 0027 05       		.byte	0x5
 8476 0028 53       		.uleb128 0x53
 8477 0029 BD1C0100 		.4byte	.LASF955
 8478 002d 05       		.byte	0x5
 8479 002e 6D       		.uleb128 0x6d
 8480 002f 2D630000 		.4byte	.LASF956
 8481 0033 05       		.byte	0x5
 8482 0034 8C01     		.uleb128 0x8c
 8483 0036 29580000 		.4byte	.LASF957
 8484 003a 05       		.byte	0x5
 8485 003b A601     		.uleb128 0xa6
 8486 003d 6F350000 		.4byte	.LASF958
 8487 0041 05       		.byte	0x5
 8488 0042 BC01     		.uleb128 0xbc
 8489 0044 3BD60000 		.4byte	.LASF959
 8490 0048 05       		.byte	0x5
 8491 0049 CE01     		.uleb128 0xce
 8492 004b 59AA0000 		.4byte	.LASF960
ARM GAS  /tmp/ccKtbbXa.s 			page 150


 8493 004f 06       		.byte	0x6
 8494 0050 F401     		.uleb128 0xf4
 8495 0052 7B300000 		.4byte	.LASF961
 8496 0056 00       		.byte	0
 8497              		.section	.debug_macro,"G",%progbits,wm4._types.h.127.34941de1b2539d59d5cac00e0dd27a45,comdat
 8498              	.Ldebug_macro19:
 8499 0000 0400     		.2byte	0x4
 8500 0002 00       		.byte	0
 8501 0003 06       		.byte	0x6
 8502 0004 7F       		.uleb128 0x7f
 8503 0005 25010100 		.4byte	.LASF962
 8504 0009 05       		.byte	0x5
 8505 000a 9201     		.uleb128 0x92
 8506 000c C84C0000 		.4byte	.LASF963
 8507 0010 06       		.byte	0x6
 8508 0011 9401     		.uleb128 0x94
 8509 0013 AFC40000 		.4byte	.LASF590
 8510 0017 05       		.byte	0x5
 8511 0018 B301     		.uleb128 0xb3
 8512 001a BB080000 		.4byte	.LASF964
 8513 001e 05       		.byte	0x5
 8514 001f BB01     		.uleb128 0xbb
 8515 0021 EA2E0100 		.4byte	.LASF965
 8516 0025 05       		.byte	0x5
 8517 0026 C001     		.uleb128 0xc0
 8518 0028 BDB60000 		.4byte	.LASF966
 8519 002c 05       		.byte	0x5
 8520 002d C501     		.uleb128 0xc5
 8521 002f D4A00000 		.4byte	.LASF967
 8522 0033 00       		.byte	0
 8523              		.section	.debug_macro,"G",%progbits,wm4.reent.h.17.e292bf8b0bec6c96e131a54347145a30,comdat
 8524              	.Ldebug_macro20:
 8525 0000 0400     		.2byte	0x4
 8526 0002 00       		.byte	0
 8527 0003 05       		.byte	0x5
 8528 0004 11       		.uleb128 0x11
 8529 0005 9D8C0000 		.4byte	.LASF968
 8530 0009 05       		.byte	0x5
 8531 000a 15       		.uleb128 0x15
 8532 000b 70D50000 		.4byte	.LASF969
 8533 000f 00       		.byte	0
 8534              		.section	.debug_macro,"G",%progbits,wm4.lock.h.2.c0958401bd0ce484d507ee19aacab817,comdat
 8535              	.Ldebug_macro21:
 8536 0000 0400     		.2byte	0x4
 8537 0002 00       		.byte	0
 8538 0003 05       		.byte	0x5
 8539 0004 02       		.uleb128 0x2
 8540 0005 31B20000 		.4byte	.LASF970
 8541 0009 05       		.byte	0x5
 8542 000a 0E       		.uleb128 0xe
 8543 000b 9F6F0000 		.4byte	.LASF971
 8544 000f 05       		.byte	0x5
 8545 0010 0F       		.uleb128 0xf
 8546 0011 D22E0000 		.4byte	.LASF972
 8547 0015 05       		.byte	0x5
 8548 0016 10       		.uleb128 0x10
 8549 0017 00070100 		.4byte	.LASF973
ARM GAS  /tmp/ccKtbbXa.s 			page 151


 8550 001b 05       		.byte	0x5
 8551 001c 11       		.uleb128 0x11
 8552 001d A9610000 		.4byte	.LASF974
 8553 0021 05       		.byte	0x5
 8554 0022 12       		.uleb128 0x12
 8555 0023 25BC0000 		.4byte	.LASF975
 8556 0027 05       		.byte	0x5
 8557 0028 13       		.uleb128 0x13
 8558 0029 52360000 		.4byte	.LASF976
 8559 002d 05       		.byte	0x5
 8560 002e 14       		.uleb128 0x14
 8561 002f A4260000 		.4byte	.LASF977
 8562 0033 05       		.byte	0x5
 8563 0034 15       		.uleb128 0x15
 8564 0035 A60C0100 		.4byte	.LASF978
 8565 0039 05       		.byte	0x5
 8566 003a 16       		.uleb128 0x16
 8567 003b 72A70000 		.4byte	.LASF979
 8568 003f 05       		.byte	0x5
 8569 0040 17       		.uleb128 0x17
 8570 0041 360C0100 		.4byte	.LASF980
 8571 0045 05       		.byte	0x5
 8572 0046 18       		.uleb128 0x18
 8573 0047 134B0000 		.4byte	.LASF981
 8574 004b 05       		.byte	0x5
 8575 004c 19       		.uleb128 0x19
 8576 004d 30510000 		.4byte	.LASF982
 8577 0051 00       		.byte	0
 8578              		.section	.debug_macro,"G",%progbits,wm4.reent.h.77.dcd6129ff07fe81bd5636db29abe53b2,comdat
 8579              	.Ldebug_macro22:
 8580 0000 0400     		.2byte	0x4
 8581 0002 00       		.byte	0
 8582 0003 05       		.byte	0x5
 8583 0004 4D       		.uleb128 0x4d
 8584 0005 BF320000 		.4byte	.LASF983
 8585 0009 05       		.byte	0x5
 8586 000a 69       		.uleb128 0x69
 8587 000b 97230100 		.4byte	.LASF984
 8588 000f 05       		.byte	0x5
 8589 0010 6F       		.uleb128 0x6f
 8590 0011 B9F10000 		.4byte	.LASF985
 8591 0015 05       		.byte	0x5
 8592 0016 B701     		.uleb128 0xb7
 8593 0018 AE170100 		.4byte	.LASF986
 8594 001c 05       		.byte	0x5
 8595 001d BD02     		.uleb128 0x13d
 8596 001f 9FFE0000 		.4byte	.LASF987
 8597 0023 05       		.byte	0x5
 8598 0024 BE02     		.uleb128 0x13e
 8599 0026 43350100 		.4byte	.LASF988
 8600 002a 05       		.byte	0x5
 8601 002b BF02     		.uleb128 0x13f
 8602 002d 04F50000 		.4byte	.LASF989
 8603 0031 05       		.byte	0x5
 8604 0032 C002     		.uleb128 0x140
 8605 0034 EB9B0000 		.4byte	.LASF990
 8606 0038 05       		.byte	0x5
ARM GAS  /tmp/ccKtbbXa.s 			page 152


 8607 0039 C102     		.uleb128 0x141
 8608 003b 64B20000 		.4byte	.LASF991
 8609 003f 05       		.byte	0x5
 8610 0040 C202     		.uleb128 0x142
 8611 0042 A5B60000 		.4byte	.LASF992
 8612 0046 05       		.byte	0x5
 8613 0047 C302     		.uleb128 0x143
 8614 0049 7FFE0000 		.4byte	.LASF993
 8615 004d 05       		.byte	0x5
 8616 004e CF02     		.uleb128 0x14f
 8617 0050 DC380000 		.4byte	.LASF994
 8618 0054 05       		.byte	0x5
 8619 0055 D002     		.uleb128 0x150
 8620 0057 972D0100 		.4byte	.LASF995
 8621 005b 05       		.byte	0x5
 8622 005c D102     		.uleb128 0x151
 8623 005e 590A0100 		.4byte	.LASF996
 8624 0062 05       		.byte	0x5
 8625 0063 A005     		.uleb128 0x2a0
 8626 0065 C6C90000 		.4byte	.LASF997
 8627 0069 05       		.byte	0x5
 8628 006a BC05     		.uleb128 0x2bc
 8629 006c 1F240100 		.4byte	.LASF998
 8630 0070 05       		.byte	0x5
 8631 0071 BF05     		.uleb128 0x2bf
 8632 0073 CDAD0000 		.4byte	.LASF999
 8633 0077 05       		.byte	0x5
 8634 0078 EF05     		.uleb128 0x2ef
 8635 007a CF7A0000 		.4byte	.LASF1000
 8636 007e 05       		.byte	0x5
 8637 007f FD05     		.uleb128 0x2fd
 8638 0081 D9060000 		.4byte	.LASF1001
 8639 0085 05       		.byte	0x5
 8640 0086 FE05     		.uleb128 0x2fe
 8641 0088 716E0000 		.4byte	.LASF1002
 8642 008c 05       		.byte	0x5
 8643 008d FF05     		.uleb128 0x2ff
 8644 008f 8B600000 		.4byte	.LASF1003
 8645 0093 05       		.byte	0x5
 8646 0094 8006     		.uleb128 0x300
 8647 0096 46290000 		.4byte	.LASF1004
 8648 009a 05       		.byte	0x5
 8649 009b 8106     		.uleb128 0x301
 8650 009d B78D0000 		.4byte	.LASF1005
 8651 00a1 05       		.byte	0x5
 8652 00a2 8206     		.uleb128 0x302
 8653 00a4 F8F90000 		.4byte	.LASF1006
 8654 00a8 05       		.byte	0x5
 8655 00a9 8306     		.uleb128 0x303
 8656 00ab 89360000 		.4byte	.LASF1007
 8657 00af 05       		.byte	0x5
 8658 00b0 8506     		.uleb128 0x305
 8659 00b2 654B0000 		.4byte	.LASF1008
 8660 00b6 05       		.byte	0x5
 8661 00b7 8606     		.uleb128 0x306
 8662 00b9 159A0000 		.4byte	.LASF1009
 8663 00bd 05       		.byte	0x5
ARM GAS  /tmp/ccKtbbXa.s 			page 153


 8664 00be 8706     		.uleb128 0x307
 8665 00c0 12660000 		.4byte	.LASF1010
 8666 00c4 05       		.byte	0x5
 8667 00c5 8806     		.uleb128 0x308
 8668 00c7 ABB20000 		.4byte	.LASF1011
 8669 00cb 05       		.byte	0x5
 8670 00cc 8906     		.uleb128 0x309
 8671 00ce A8490000 		.4byte	.LASF1012
 8672 00d2 05       		.byte	0x5
 8673 00d3 8A06     		.uleb128 0x30a
 8674 00d5 2A8A0000 		.4byte	.LASF1013
 8675 00d9 05       		.byte	0x5
 8676 00da 8B06     		.uleb128 0x30b
 8677 00dc EA7D0000 		.4byte	.LASF1014
 8678 00e0 05       		.byte	0x5
 8679 00e1 8C06     		.uleb128 0x30c
 8680 00e3 A2C70000 		.4byte	.LASF1015
 8681 00e7 05       		.byte	0x5
 8682 00e8 8D06     		.uleb128 0x30d
 8683 00ea 16000100 		.4byte	.LASF1016
 8684 00ee 05       		.byte	0x5
 8685 00ef 8E06     		.uleb128 0x30e
 8686 00f1 13C30000 		.4byte	.LASF1017
 8687 00f5 05       		.byte	0x5
 8688 00f6 8F06     		.uleb128 0x30f
 8689 00f8 C33A0000 		.4byte	.LASF1018
 8690 00fc 05       		.byte	0x5
 8691 00fd 9006     		.uleb128 0x310
 8692 00ff 2C210000 		.4byte	.LASF1019
 8693 0103 05       		.byte	0x5
 8694 0104 9106     		.uleb128 0x311
 8695 0106 A2D80000 		.4byte	.LASF1020
 8696 010a 05       		.byte	0x5
 8697 010b 9206     		.uleb128 0x312
 8698 010d C02C0000 		.4byte	.LASF1021
 8699 0111 05       		.byte	0x5
 8700 0112 9306     		.uleb128 0x313
 8701 0114 86380100 		.4byte	.LASF1022
 8702 0118 05       		.byte	0x5
 8703 0119 9406     		.uleb128 0x314
 8704 011b B29D0000 		.4byte	.LASF1023
 8705 011f 05       		.byte	0x5
 8706 0120 9506     		.uleb128 0x315
 8707 0122 EA110000 		.4byte	.LASF1024
 8708 0126 05       		.byte	0x5
 8709 0127 9606     		.uleb128 0x316
 8710 0129 69330000 		.4byte	.LASF1025
 8711 012d 05       		.byte	0x5
 8712 012e 9706     		.uleb128 0x317
 8713 0130 D6560000 		.4byte	.LASF1026
 8714 0134 05       		.byte	0x5
 8715 0135 9806     		.uleb128 0x318
 8716 0137 80160100 		.4byte	.LASF1027
 8717 013b 05       		.byte	0x5
 8718 013c 9906     		.uleb128 0x319
 8719 013e 72210000 		.4byte	.LASF1028
 8720 0142 05       		.byte	0x5
ARM GAS  /tmp/ccKtbbXa.s 			page 154


 8721 0143 9A06     		.uleb128 0x31a
 8722 0145 4F020000 		.4byte	.LASF1029
 8723 0149 05       		.byte	0x5
 8724 014a 9B06     		.uleb128 0x31b
 8725 014c CD2A0100 		.4byte	.LASF1030
 8726 0150 05       		.byte	0x5
 8727 0151 9C06     		.uleb128 0x31c
 8728 0153 C38B0000 		.4byte	.LASF1031
 8729 0157 05       		.byte	0x5
 8730 0158 A006     		.uleb128 0x320
 8731 015a F3600000 		.4byte	.LASF1032
 8732 015e 05       		.byte	0x5
 8733 015f A806     		.uleb128 0x328
 8734 0161 829D0000 		.4byte	.LASF1033
 8735 0165 05       		.byte	0x5
 8736 0166 B006     		.uleb128 0x330
 8737 0168 43F90000 		.4byte	.LASF1034
 8738 016c 05       		.byte	0x5
 8739 016d C006     		.uleb128 0x340
 8740 016f 9F9D0000 		.4byte	.LASF1035
 8741 0173 05       		.byte	0x5
 8742 0174 C306     		.uleb128 0x343
 8743 0176 CD620000 		.4byte	.LASF1036
 8744 017a 05       		.byte	0x5
 8745 017b C906     		.uleb128 0x349
 8746 017d EDAF0000 		.4byte	.LASF1037
 8747 0181 00       		.byte	0
 8748              		.section	.debug_macro,"G",%progbits,wm4.cdefs.h.49.3d0fe8ea14e93bda8c589d4f684b21b8,comdat
 8749              	.Ldebug_macro23:
 8750 0000 0400     		.2byte	0x4
 8751 0002 00       		.byte	0
 8752 0003 05       		.byte	0x5
 8753 0004 31       		.uleb128 0x31
 8754 0005 69CE0000 		.4byte	.LASF1039
 8755 0009 05       		.byte	0x5
 8756 000a 32       		.uleb128 0x32
 8757 000b 13D60000 		.4byte	.LASF1040
 8758 000f 05       		.byte	0x5
 8759 0010 33       		.uleb128 0x33
 8760 0011 18390100 		.4byte	.LASF1041
 8761 0015 05       		.byte	0x5
 8762 0016 36       		.uleb128 0x36
 8763 0017 D7960000 		.4byte	.LASF1042
 8764 001b 05       		.byte	0x5
 8765 001c 39       		.uleb128 0x39
 8766 001d 5DC40000 		.4byte	.LASF1043
 8767 0021 05       		.byte	0x5
 8768 0022 3A       		.uleb128 0x3a
 8769 0023 47380000 		.4byte	.LASF1044
 8770 0027 05       		.byte	0x5
 8771 0028 3C       		.uleb128 0x3c
 8772 0029 7C3A0000 		.4byte	.LASF1045
 8773 002d 05       		.byte	0x5
 8774 002e 3D       		.uleb128 0x3d
 8775 002f C87F0000 		.4byte	.LASF1046
 8776 0033 05       		.byte	0x5
 8777 0034 3E       		.uleb128 0x3e
ARM GAS  /tmp/ccKtbbXa.s 			page 155


 8778 0035 24130100 		.4byte	.LASF1047
 8779 0039 05       		.byte	0x5
 8780 003a 3F       		.uleb128 0x3f
 8781 003b 9A490000 		.4byte	.LASF1048
 8782 003f 05       		.byte	0x5
 8783 0040 42       		.uleb128 0x42
 8784 0041 83570000 		.4byte	.LASF1049
 8785 0045 05       		.byte	0x5
 8786 0046 43       		.uleb128 0x43
 8787 0047 1B1E0000 		.4byte	.LASF1050
 8788 004b 05       		.byte	0x5
 8789 004c 44       		.uleb128 0x44
 8790 004d DB810000 		.4byte	.LASF1051
 8791 0051 05       		.byte	0x5
 8792 0052 4E       		.uleb128 0x4e
 8793 0053 1DBA0000 		.4byte	.LASF1052
 8794 0057 05       		.byte	0x5
 8795 0058 51       		.uleb128 0x51
 8796 0059 AB380000 		.4byte	.LASF1053
 8797 005d 05       		.byte	0x5
 8798 005e 5E       		.uleb128 0x5e
 8799 005f CC160100 		.4byte	.LASF1054
 8800 0063 05       		.byte	0x5
 8801 0064 5F       		.uleb128 0x5f
 8802 0065 AAA70000 		.4byte	.LASF1055
 8803 0069 05       		.byte	0x5
 8804 006a 6B       		.uleb128 0x6b
 8805 006b 37760000 		.4byte	.LASF1056
 8806 006f 05       		.byte	0x5
 8807 0070 6C       		.uleb128 0x6c
 8808 0071 7F310100 		.4byte	.LASF1057
 8809 0075 05       		.byte	0x5
 8810 0076 70       		.uleb128 0x70
 8811 0077 0C110000 		.4byte	.LASF1058
 8812 007b 05       		.byte	0x5
 8813 007c 71       		.uleb128 0x71
 8814 007d 07470000 		.4byte	.LASF1059
 8815 0081 05       		.byte	0x5
 8816 0082 72       		.uleb128 0x72
 8817 0083 E64E0000 		.4byte	.LASF1060
 8818 0087 05       		.byte	0x5
 8819 0088 75       		.uleb128 0x75
 8820 0089 FA230000 		.4byte	.LASF1061
 8821 008d 05       		.byte	0x5
 8822 008e 78       		.uleb128 0x78
 8823 008f 6A090000 		.4byte	.LASF1062
 8824 0093 05       		.byte	0x5
 8825 0094 7F       		.uleb128 0x7f
 8826 0095 AA960000 		.4byte	.LASF1063
 8827 0099 05       		.byte	0x5
 8828 009a 8001     		.uleb128 0x80
 8829 009c 24A80000 		.4byte	.LASF1064
 8830 00a0 05       		.byte	0x5
 8831 00a1 8101     		.uleb128 0x81
 8832 00a3 B49A0000 		.4byte	.LASF1065
 8833 00a7 05       		.byte	0x5
 8834 00a8 8501     		.uleb128 0x85
ARM GAS  /tmp/ccKtbbXa.s 			page 156


 8835 00aa FE590000 		.4byte	.LASF1066
 8836 00ae 05       		.byte	0x5
 8837 00af 8C01     		.uleb128 0x8c
 8838 00b1 A96C0000 		.4byte	.LASF1067
 8839 00b5 05       		.byte	0x5
 8840 00b6 9001     		.uleb128 0x90
 8841 00b8 68630000 		.4byte	.LASF1068
 8842 00bc 05       		.byte	0x5
 8843 00bd 9101     		.uleb128 0x91
 8844 00bf 6E5B0000 		.4byte	.LASF1069
 8845 00c3 05       		.byte	0x5
 8846 00c4 9401     		.uleb128 0x94
 8847 00c6 15680000 		.4byte	.LASF1070
 8848 00ca 05       		.byte	0x5
 8849 00cb 9701     		.uleb128 0x97
 8850 00cd 7F470000 		.4byte	.LASF1071
 8851 00d1 05       		.byte	0x5
 8852 00d2 9801     		.uleb128 0x98
 8853 00d4 BF350000 		.4byte	.LASF1072
 8854 00d8 05       		.byte	0x5
 8855 00d9 9901     		.uleb128 0x99
 8856 00db C9070100 		.4byte	.LASF1073
 8857 00df 05       		.byte	0x5
 8858 00e0 9B01     		.uleb128 0x9b
 8859 00e2 640C0100 		.4byte	.LASF1074
 8860 00e6 05       		.byte	0x5
 8861 00e7 9C01     		.uleb128 0x9c
 8862 00e9 68370000 		.4byte	.LASF1075
 8863 00ed 05       		.byte	0x5
 8864 00ee 9E01     		.uleb128 0x9e
 8865 00f0 D7B60000 		.4byte	.LASF1076
 8866 00f4 05       		.byte	0x5
 8867 00f5 A001     		.uleb128 0xa0
 8868 00f7 441E0100 		.4byte	.LASF1077
 8869 00fb 05       		.byte	0x5
 8870 00fc B101     		.uleb128 0xb1
 8871 00fe 01170000 		.4byte	.LASF1078
 8872 0102 05       		.byte	0x5
 8873 0103 B201     		.uleb128 0xb2
 8874 0105 49DF0000 		.4byte	.LASF1079
 8875 0109 05       		.byte	0x5
 8876 010a B301     		.uleb128 0xb3
 8877 010c 052B0100 		.4byte	.LASF1080
 8878 0110 05       		.byte	0x5
 8879 0111 B401     		.uleb128 0xb4
 8880 0113 E3350100 		.4byte	.LASF1081
 8881 0117 05       		.byte	0x5
 8882 0118 B501     		.uleb128 0xb5
 8883 011a BDF70000 		.4byte	.LASF1082
 8884 011e 05       		.byte	0x5
 8885 011f B701     		.uleb128 0xb7
 8886 0121 E02F0100 		.4byte	.LASF1083
 8887 0125 05       		.byte	0x5
 8888 0126 B801     		.uleb128 0xb8
 8889 0128 68000100 		.4byte	.LASF1084
 8890 012c 05       		.byte	0x5
 8891 012d B901     		.uleb128 0xb9
ARM GAS  /tmp/ccKtbbXa.s 			page 157


 8892 012f 05710000 		.4byte	.LASF1085
 8893 0133 05       		.byte	0x5
 8894 0134 E601     		.uleb128 0xe6
 8895 0136 5F490000 		.4byte	.LASF1086
 8896 013a 05       		.byte	0x5
 8897 013b F301     		.uleb128 0xf3
 8898 013d 76700000 		.4byte	.LASF1087
 8899 0141 05       		.byte	0x5
 8900 0142 F401     		.uleb128 0xf4
 8901 0144 54E40000 		.4byte	.LASF1088
 8902 0148 05       		.byte	0x5
 8903 0149 F501     		.uleb128 0xf5
 8904 014b B5180100 		.4byte	.LASF1089
 8905 014f 05       		.byte	0x5
 8906 0150 F601     		.uleb128 0xf6
 8907 0152 78220100 		.4byte	.LASF1090
 8908 0156 05       		.byte	0x5
 8909 0157 F701     		.uleb128 0xf7
 8910 0159 ECA00000 		.4byte	.LASF1091
 8911 015d 05       		.byte	0x5
 8912 015e F801     		.uleb128 0xf8
 8913 0160 A01A0000 		.4byte	.LASF1092
 8914 0164 05       		.byte	0x5
 8915 0165 F901     		.uleb128 0xf9
 8916 0167 8A810000 		.4byte	.LASF1093
 8917 016b 05       		.byte	0x5
 8918 016c FC01     		.uleb128 0xfc
 8919 016e 6A8D0000 		.4byte	.LASF1094
 8920 0172 05       		.byte	0x5
 8921 0173 FD01     		.uleb128 0xfd
 8922 0175 384C0000 		.4byte	.LASF1095
 8923 0179 05       		.byte	0x5
 8924 017a 8302     		.uleb128 0x103
 8925 017c 95030100 		.4byte	.LASF1096
 8926 0180 05       		.byte	0x5
 8927 0181 9802     		.uleb128 0x118
 8928 0183 C8250000 		.4byte	.LASF1097
 8929 0187 05       		.byte	0x5
 8930 0188 9F02     		.uleb128 0x11f
 8931 018a DA340100 		.4byte	.LASF1098
 8932 018e 05       		.byte	0x5
 8933 018f A802     		.uleb128 0x128
 8934 0191 E93D0100 		.4byte	.LASF1099
 8935 0195 05       		.byte	0x5
 8936 0196 AE02     		.uleb128 0x12e
 8937 0198 CCE80000 		.4byte	.LASF1100
 8938 019c 05       		.byte	0x5
 8939 019d CB02     		.uleb128 0x14b
 8940 019f 10970000 		.4byte	.LASF1101
 8941 01a3 05       		.byte	0x5
 8942 01a4 DF02     		.uleb128 0x15f
 8943 01a6 4DC30000 		.4byte	.LASF1102
 8944 01aa 05       		.byte	0x5
 8945 01ab EE02     		.uleb128 0x16e
 8946 01ad 50A20000 		.4byte	.LASF1103
 8947 01b1 05       		.byte	0x5
 8948 01b2 F402     		.uleb128 0x174
ARM GAS  /tmp/ccKtbbXa.s 			page 158


 8949 01b4 01210100 		.4byte	.LASF1104
 8950 01b8 05       		.byte	0x5
 8951 01b9 F502     		.uleb128 0x175
 8952 01bb 56D60000 		.4byte	.LASF1105
 8953 01bf 05       		.byte	0x5
 8954 01c0 FC02     		.uleb128 0x17c
 8955 01c2 E7D30000 		.4byte	.LASF1106
 8956 01c6 05       		.byte	0x5
 8957 01c7 8203     		.uleb128 0x182
 8958 01c9 8C7F0000 		.4byte	.LASF1107
 8959 01cd 05       		.byte	0x5
 8960 01ce 8803     		.uleb128 0x188
 8961 01d0 B9550000 		.4byte	.LASF1108
 8962 01d4 05       		.byte	0x5
 8963 01d5 8903     		.uleb128 0x189
 8964 01d7 F2300100 		.4byte	.LASF1109
 8965 01db 05       		.byte	0x5
 8966 01dc 9003     		.uleb128 0x190
 8967 01de DB210000 		.4byte	.LASF1110
 8968 01e2 05       		.byte	0x5
 8969 01e3 9103     		.uleb128 0x191
 8970 01e5 5D790000 		.4byte	.LASF1111
 8971 01e9 05       		.byte	0x5
 8972 01ea 9803     		.uleb128 0x198
 8973 01ec E9890000 		.4byte	.LASF1112
 8974 01f0 05       		.byte	0x5
 8975 01f1 9E03     		.uleb128 0x19e
 8976 01f3 8FF50000 		.4byte	.LASF1113
 8977 01f7 05       		.byte	0x5
 8978 01f8 B203     		.uleb128 0x1b2
 8979 01fa E7000100 		.4byte	.LASF1114
 8980 01fe 05       		.byte	0x5
 8981 01ff D303     		.uleb128 0x1d3
 8982 0201 041A0000 		.4byte	.LASF1115
 8983 0205 05       		.byte	0x5
 8984 0206 D403     		.uleb128 0x1d4
 8985 0208 23B00000 		.4byte	.LASF1116
 8986 020c 05       		.byte	0x5
 8987 020d DB03     		.uleb128 0x1db
 8988 020f A14E0000 		.4byte	.LASF1117
 8989 0213 05       		.byte	0x5
 8990 0214 DC03     		.uleb128 0x1dc
 8991 0216 CD1D0100 		.4byte	.LASF1118
 8992 021a 05       		.byte	0x5
 8993 021b DF03     		.uleb128 0x1df
 8994 021d 9F040100 		.4byte	.LASF1119
 8995 0221 05       		.byte	0x5
 8996 0222 E903     		.uleb128 0x1e9
 8997 0224 F3340100 		.4byte	.LASF1120
 8998 0228 05       		.byte	0x5
 8999 0229 EA03     		.uleb128 0x1ea
 9000 022b A4E40000 		.4byte	.LASF1121
 9001 022f 05       		.byte	0x5
 9002 0230 F403     		.uleb128 0x1f4
 9003 0232 A69F0000 		.4byte	.LASF1122
 9004 0236 05       		.byte	0x5
 9005 0237 8A04     		.uleb128 0x20a
ARM GAS  /tmp/ccKtbbXa.s 			page 159


 9006 0239 D00B0000 		.4byte	.LASF1123
 9007 023d 05       		.byte	0x5
 9008 023e 8C04     		.uleb128 0x20c
 9009 0240 B9FA0000 		.4byte	.LASF1124
 9010 0244 05       		.byte	0x5
 9011 0245 8E04     		.uleb128 0x20e
 9012 0247 5A510000 		.4byte	.LASF1125
 9013 024b 05       		.byte	0x5
 9014 024c 8F04     		.uleb128 0x20f
 9015 024e B1D20000 		.4byte	.LASF1126
 9016 0252 05       		.byte	0x5
 9017 0253 9104     		.uleb128 0x211
 9018 0255 73D00000 		.4byte	.LASF1127
 9019 0259 05       		.byte	0x5
 9020 025a 9B04     		.uleb128 0x21b
 9021 025c DC330000 		.4byte	.LASF1128
 9022 0260 05       		.byte	0x5
 9023 0261 A004     		.uleb128 0x220
 9024 0263 41950000 		.4byte	.LASF1129
 9025 0267 05       		.byte	0x5
 9026 0268 A504     		.uleb128 0x225
 9027 026a EFF50000 		.4byte	.LASF1130
 9028 026e 05       		.byte	0x5
 9029 026f A804     		.uleb128 0x228
 9030 0271 9CC20000 		.4byte	.LASF1131
 9031 0275 05       		.byte	0x5
 9032 0276 AC04     		.uleb128 0x22c
 9033 0278 C4260000 		.4byte	.LASF1132
 9034 027c 05       		.byte	0x5
 9035 027d AE04     		.uleb128 0x22e
 9036 027f 42680000 		.4byte	.LASF1133
 9037 0283 05       		.byte	0x5
 9038 0284 D104     		.uleb128 0x251
 9039 0286 B7420000 		.4byte	.LASF1134
 9040 028a 05       		.byte	0x5
 9041 028b D504     		.uleb128 0x255
 9042 028d 59A70000 		.4byte	.LASF1135
 9043 0291 05       		.byte	0x5
 9044 0292 D904     		.uleb128 0x259
 9045 0294 E4DF0000 		.4byte	.LASF1136
 9046 0298 05       		.byte	0x5
 9047 0299 DD04     		.uleb128 0x25d
 9048 029b D6F70000 		.4byte	.LASF1137
 9049 029f 05       		.byte	0x5
 9050 02a0 E104     		.uleb128 0x261
 9051 02a2 B0B30000 		.4byte	.LASF1138
 9052 02a6 05       		.byte	0x5
 9053 02a7 E504     		.uleb128 0x265
 9054 02a9 803C0000 		.4byte	.LASF1139
 9055 02ad 05       		.byte	0x5
 9056 02ae E904     		.uleb128 0x269
 9057 02b0 3CB80000 		.4byte	.LASF1140
 9058 02b4 05       		.byte	0x5
 9059 02b5 ED04     		.uleb128 0x26d
 9060 02b7 63380000 		.4byte	.LASF1141
 9061 02bb 05       		.byte	0x5
 9062 02bc F404     		.uleb128 0x274
ARM GAS  /tmp/ccKtbbXa.s 			page 160


 9063 02be 27B20000 		.4byte	.LASF1142
 9064 02c2 05       		.byte	0x5
 9065 02c3 F504     		.uleb128 0x275
 9066 02c5 1D070100 		.4byte	.LASF1143
 9067 02c9 05       		.byte	0x5
 9068 02ca F604     		.uleb128 0x276
 9069 02cc 4A0D0000 		.4byte	.LASF1144
 9070 02d0 05       		.byte	0x5
 9071 02d1 F704     		.uleb128 0x277
 9072 02d3 031E0100 		.4byte	.LASF1145
 9073 02d7 05       		.byte	0x5
 9074 02d8 F804     		.uleb128 0x278
 9075 02da 6E840000 		.4byte	.LASF1146
 9076 02de 05       		.byte	0x5
 9077 02df 8D05     		.uleb128 0x28d
 9078 02e1 C3580000 		.4byte	.LASF1147
 9079 02e5 05       		.byte	0x5
 9080 02e6 8E05     		.uleb128 0x28e
 9081 02e8 18570000 		.4byte	.LASF1148
 9082 02ec 05       		.byte	0x5
 9083 02ed A005     		.uleb128 0x2a0
 9084 02ef BB3D0000 		.4byte	.LASF1149
 9085 02f3 05       		.byte	0x5
 9086 02f4 A605     		.uleb128 0x2a6
 9087 02f6 F8B90000 		.4byte	.LASF1150
 9088 02fa 05       		.byte	0x5
 9089 02fb A905     		.uleb128 0x2a9
 9090 02fd 70190100 		.4byte	.LASF1151
 9091 0301 05       		.byte	0x5
 9092 0302 AB05     		.uleb128 0x2ab
 9093 0304 6D9A0000 		.4byte	.LASF1152
 9094 0308 05       		.byte	0x5
 9095 0309 AF05     		.uleb128 0x2af
 9096 030b 3E3C0100 		.4byte	.LASF1153
 9097 030f 05       		.byte	0x5
 9098 0310 B105     		.uleb128 0x2b1
 9099 0312 55D80000 		.4byte	.LASF1154
 9100 0316 05       		.byte	0x5
 9101 0317 B505     		.uleb128 0x2b5
 9102 0319 06BB0000 		.4byte	.LASF1155
 9103 031d 05       		.byte	0x5
 9104 031e B805     		.uleb128 0x2b8
 9105 0320 89590000 		.4byte	.LASF1156
 9106 0324 05       		.byte	0x5
 9107 0325 BA05     		.uleb128 0x2ba
 9108 0327 375A0000 		.4byte	.LASF1157
 9109 032b 05       		.byte	0x5
 9110 032c BE05     		.uleb128 0x2be
 9111 032e C0C60000 		.4byte	.LASF1158
 9112 0332 05       		.byte	0x5
 9113 0333 C005     		.uleb128 0x2c0
 9114 0335 1AFF0000 		.4byte	.LASF1159
 9115 0339 05       		.byte	0x5
 9116 033a C205     		.uleb128 0x2c2
 9117 033c 18270000 		.4byte	.LASF1160
 9118 0340 05       		.byte	0x5
 9119 0341 C605     		.uleb128 0x2c6
ARM GAS  /tmp/ccKtbbXa.s 			page 161


 9120 0343 11200000 		.4byte	.LASF1161
 9121 0347 05       		.byte	0x5
 9122 0348 C905     		.uleb128 0x2c9
 9123 034a B3CC0000 		.4byte	.LASF1162
 9124 034e 05       		.byte	0x5
 9125 034f CA05     		.uleb128 0x2ca
 9126 0351 188D0000 		.4byte	.LASF1163
 9127 0355 00       		.byte	0
 9128              		.section	.debug_macro,"G",%progbits,wm4.math.h.13.97100c05caf9f40dd9f5a3cda48ccc01,comdat
 9129              	.Ldebug_macro24:
 9130 0000 0400     		.2byte	0x4
 9131 0002 00       		.byte	0
 9132 0003 05       		.byte	0x5
 9133 0004 0D       		.uleb128 0xd
 9134 0005 9D440000 		.4byte	.LASF1164
 9135 0009 05       		.byte	0x5
 9136 000a 13       		.uleb128 0x13
 9137 000b 18190000 		.4byte	.LASF1165
 9138 000f 05       		.byte	0x5
 9139 0010 17       		.uleb128 0x17
 9140 0011 28820000 		.4byte	.LASF1166
 9141 0015 05       		.byte	0x5
 9142 0016 1B       		.uleb128 0x1b
 9143 0017 99080000 		.4byte	.LASF1167
 9144 001b 05       		.byte	0x5
 9145 001c 1F       		.uleb128 0x1f
 9146 001d 2C230100 		.4byte	.LASF1168
 9147 0021 05       		.byte	0x5
 9148 0022 23       		.uleb128 0x23
 9149 0023 0C020000 		.4byte	.LASF1169
 9150 0027 05       		.byte	0x5
 9151 0028 9101     		.uleb128 0x91
 9152 002a 804C0000 		.4byte	.LASF1170
 9153 002e 05       		.byte	0x5
 9154 002f 9201     		.uleb128 0x92
 9155 0031 11540000 		.4byte	.LASF1171
 9156 0035 06       		.byte	0x6
 9157 0036 A801     		.uleb128 0xa8
 9158 0038 8E570000 		.4byte	.LASF1172
 9159 003c 05       		.byte	0x5
 9160 003d AB01     		.uleb128 0xab
 9161 003f C9F30000 		.4byte	.LASF1173
 9162 0043 05       		.byte	0x5
 9163 0044 AC01     		.uleb128 0xac
 9164 0046 6D1F0000 		.4byte	.LASF1174
 9165 004a 05       		.byte	0x5
 9166 004b AD01     		.uleb128 0xad
 9167 004d FCC10000 		.4byte	.LASF1175
 9168 0051 05       		.byte	0x5
 9169 0052 AE01     		.uleb128 0xae
 9170 0054 73120100 		.4byte	.LASF1176
 9171 0058 05       		.byte	0x5
 9172 0059 AF01     		.uleb128 0xaf
 9173 005b 38570000 		.4byte	.LASF1177
 9174 005f 05       		.byte	0x5
 9175 0060 B201     		.uleb128 0xb2
 9176 0062 BC1D0000 		.4byte	.LASF1178
ARM GAS  /tmp/ccKtbbXa.s 			page 162


 9177 0066 05       		.byte	0x5
 9178 0067 B501     		.uleb128 0xb5
 9179 0069 DB160100 		.4byte	.LASF1179
 9180 006d 05       		.byte	0x5
 9181 006e B901     		.uleb128 0xb9
 9182 0070 E6600000 		.4byte	.LASF1180
 9183 0074 05       		.byte	0x5
 9184 0075 BC01     		.uleb128 0xbc
 9185 0077 AF000000 		.4byte	.LASF1181
 9186 007b 05       		.byte	0x5
 9187 007c BF01     		.uleb128 0xbf
 9188 007e 6CF90000 		.4byte	.LASF1182
 9189 0082 05       		.byte	0x5
 9190 0083 D301     		.uleb128 0xd3
 9191 0085 E3B30000 		.4byte	.LASF1183
 9192 0089 05       		.byte	0x5
 9193 008a D701     		.uleb128 0xd7
 9194 008c 273B0000 		.4byte	.LASF1184
 9195 0090 05       		.byte	0x5
 9196 0091 DA01     		.uleb128 0xda
 9197 0093 1F470000 		.4byte	.LASF1185
 9198 0097 05       		.byte	0x5
 9199 0098 DD01     		.uleb128 0xdd
 9200 009a 88940000 		.4byte	.LASF1186
 9201 009e 05       		.byte	0x5
 9202 009f DF01     		.uleb128 0xdf
 9203 00a1 88BB0000 		.4byte	.LASF1187
 9204 00a5 05       		.byte	0x5
 9205 00a6 F401     		.uleb128 0xf4
 9206 00a8 94C50000 		.4byte	.LASF1188
 9207 00ac 05       		.byte	0x5
 9208 00ad 8402     		.uleb128 0x104
 9209 00af 08AB0000 		.4byte	.LASF1189
 9210 00b3 05       		.byte	0x5
 9211 00b4 8502     		.uleb128 0x105
 9212 00b6 CFA80000 		.4byte	.LASF1190
 9213 00ba 05       		.byte	0x5
 9214 00bb 8602     		.uleb128 0x106
 9215 00bd 932F0000 		.4byte	.LASF1191
 9216 00c1 05       		.byte	0x5
 9217 00c2 8702     		.uleb128 0x107
 9218 00c4 8D340100 		.4byte	.LASF1192
 9219 00c8 05       		.byte	0x5
 9220 00c9 8802     		.uleb128 0x108
 9221 00cb 45230000 		.4byte	.LASF1193
 9222 00cf 05       		.byte	0x5
 9223 00d0 8902     		.uleb128 0x109
 9224 00d2 3F270100 		.4byte	.LASF1194
 9225 00d6 05       		.byte	0x5
 9226 00d7 CD02     		.uleb128 0x14d
 9227 00d9 EE9D0000 		.4byte	.LASF1195
 9228 00dd 05       		.byte	0x5
 9229 00de B404     		.uleb128 0x234
 9230 00e0 575C0000 		.4byte	.LASF1196
 9231 00e4 05       		.byte	0x5
 9232 00e5 B804     		.uleb128 0x238
 9233 00e7 25250000 		.4byte	.LASF1197
ARM GAS  /tmp/ccKtbbXa.s 			page 163


 9234 00eb 05       		.byte	0x5
 9235 00ec BF04     		.uleb128 0x23f
 9236 00ee C1110000 		.4byte	.LASF1198
 9237 00f2 05       		.byte	0x5
 9238 00f3 C104     		.uleb128 0x241
 9239 00f5 7C450000 		.4byte	.LASF1199
 9240 00f9 05       		.byte	0x5
 9241 00fa C204     		.uleb128 0x242
 9242 00fc 613F0100 		.4byte	.LASF1200
 9243 0100 05       		.byte	0x5
 9244 0101 C304     		.uleb128 0x243
 9245 0103 6EF40000 		.4byte	.LASF1201
 9246 0107 05       		.byte	0x5
 9247 0108 C404     		.uleb128 0x244
 9248 010a 8EF40000 		.4byte	.LASF1202
 9249 010e 05       		.byte	0x5
 9250 010f C504     		.uleb128 0x245
 9251 0111 B0430000 		.4byte	.LASF1203
 9252 0115 05       		.byte	0x5
 9253 0116 C604     		.uleb128 0x246
 9254 0118 7FDB0000 		.4byte	.LASF1204
 9255 011c 05       		.byte	0x5
 9256 011d C704     		.uleb128 0x247
 9257 011f 47BA0000 		.4byte	.LASF1205
 9258 0123 05       		.byte	0x5
 9259 0124 C804     		.uleb128 0x248
 9260 0126 A0E80000 		.4byte	.LASF1206
 9261 012a 05       		.byte	0x5
 9262 012b C904     		.uleb128 0x249
 9263 012d FD1D0000 		.4byte	.LASF1207
 9264 0131 05       		.byte	0x5
 9265 0132 CA04     		.uleb128 0x24a
 9266 0134 7CD50000 		.4byte	.LASF1208
 9267 0138 05       		.byte	0x5
 9268 0139 CB04     		.uleb128 0x24b
 9269 013b 7A090100 		.4byte	.LASF1209
 9270 013f 05       		.byte	0x5
 9271 0140 CC04     		.uleb128 0x24c
 9272 0142 26490000 		.4byte	.LASF1210
 9273 0146 05       		.byte	0x5
 9274 0147 CD04     		.uleb128 0x24d
 9275 0149 C92B0100 		.4byte	.LASF1211
 9276 014d 05       		.byte	0x5
 9277 014e D304     		.uleb128 0x253
 9278 0150 20400000 		.4byte	.LASF1212
 9279 0154 05       		.byte	0x5
 9280 0155 D404     		.uleb128 0x254
 9281 0157 17C90000 		.4byte	.LASF1213
 9282 015b 05       		.byte	0x5
 9283 015c D504     		.uleb128 0x255
 9284 015e 41B20000 		.4byte	.LASF1214
 9285 0162 05       		.byte	0x5
 9286 0163 D604     		.uleb128 0x256
 9287 0165 B6CF0000 		.4byte	.LASF1215
 9288 0169 05       		.byte	0x5
 9289 016a D704     		.uleb128 0x257
 9290 016c 319C0000 		.4byte	.LASF1216
ARM GAS  /tmp/ccKtbbXa.s 			page 164


 9291 0170 05       		.byte	0x5
 9292 0171 D804     		.uleb128 0x258
 9293 0173 221F0100 		.4byte	.LASF1217
 9294 0177 05       		.byte	0x5
 9295 0178 D904     		.uleb128 0x259
 9296 017a 4C330100 		.4byte	.LASF1218
 9297 017e 05       		.byte	0x5
 9298 017f DA04     		.uleb128 0x25a
 9299 0181 616E0000 		.4byte	.LASF1219
 9300 0185 05       		.byte	0x5
 9301 0186 DB04     		.uleb128 0x25b
 9302 0188 B2600000 		.4byte	.LASF1220
 9303 018c 05       		.byte	0x5
 9304 018d E504     		.uleb128 0x265
 9305 018f F20B0100 		.4byte	.LASF1221
 9306 0193 05       		.byte	0x5
 9307 0194 E604     		.uleb128 0x266
 9308 0196 85C70000 		.4byte	.LASF1222
 9309 019a 05       		.byte	0x5
 9310 019b EA04     		.uleb128 0x26a
 9311 019d 552B0100 		.4byte	.LASF1223
 9312 01a1 05       		.byte	0x5
 9313 01a2 EB04     		.uleb128 0x26b
 9314 01a4 15060100 		.4byte	.LASF1224
 9315 01a8 00       		.byte	0
 9316              		.section	.debug_macro,"G",%progbits,wm4.message_pragmas.h.2.19f9da639d3b857b5eedec0176791f43,comda
 9317              	.Ldebug_macro25:
 9318 0000 0400     		.2byte	0x4
 9319 0002 00       		.byte	0
 9320 0003 05       		.byte	0x5
 9321 0004 02       		.uleb128 0x2
 9322 0005 9B500000 		.4byte	.LASF1225
 9323 0009 05       		.byte	0x5
 9324 000a 05       		.uleb128 0x5
 9325 000b 65FF0000 		.4byte	.LASF1226
 9326 000f 05       		.byte	0x5
 9327 0010 06       		.uleb128 0x6
 9328 0011 AB700000 		.4byte	.LASF1227
 9329 0015 05       		.byte	0x5
 9330 0016 07       		.uleb128 0x7
 9331 0017 2B3F0100 		.4byte	.LASF1228
 9332 001b 05       		.byte	0x5
 9333 001c 12       		.uleb128 0x12
 9334 001d 89D60000 		.4byte	.LASF1229
 9335 0021 05       		.byte	0x5
 9336 0022 13       		.uleb128 0x13
 9337 0023 067F0000 		.4byte	.LASF1230
 9338 0027 05       		.byte	0x5
 9339 0028 14       		.uleb128 0x14
 9340 0029 47470000 		.4byte	.LASF1231
 9341 002d 05       		.byte	0x5
 9342 002e 15       		.uleb128 0x15
 9343 002f 04220000 		.4byte	.LASF1232
 9344 0033 05       		.byte	0x5
 9345 0034 16       		.uleb128 0x16
 9346 0035 3CC70000 		.4byte	.LASF1233
 9347 0039 05       		.byte	0x5
ARM GAS  /tmp/ccKtbbXa.s 			page 165


 9348 003a 17       		.uleb128 0x17
 9349 003b 4B340100 		.4byte	.LASF1234
 9350 003f 05       		.byte	0x5
 9351 0040 20       		.uleb128 0x20
 9352 0041 C5340100 		.4byte	.LASF1235
 9353 0045 05       		.byte	0x5
 9354 0046 21       		.uleb128 0x21
 9355 0047 49FA0000 		.4byte	.LASF1236
 9356 004b 05       		.byte	0x5
 9357 004c 22       		.uleb128 0x22
 9358 004d 2CF90000 		.4byte	.LASF1237
 9359 0051 00       		.byte	0
 9360              		.section	.debug_macro,"G",%progbits,wm4.std.h.41.98eaba0fe9afe518eab028a73a8ce0e2,comdat
 9361              	.Ldebug_macro26:
 9362 0000 0400     		.2byte	0x4
 9363 0002 00       		.byte	0
 9364 0003 05       		.byte	0x5
 9365 0004 29       		.uleb128 0x29
 9366 0005 E1300100 		.4byte	.LASF1238
 9367 0009 05       		.byte	0x5
 9368 000a 2A       		.uleb128 0x2a
 9369 000b 94A20000 		.4byte	.LASF1239
 9370 000f 05       		.byte	0x5
 9371 0010 2C       		.uleb128 0x2c
 9372 0011 A6060000 		.4byte	.LASF1240
 9373 0015 05       		.byte	0x5
 9374 0016 2F       		.uleb128 0x2f
 9375 0017 E07E0000 		.4byte	.LASF1241
 9376 001b 05       		.byte	0x5
 9377 001c 32       		.uleb128 0x32
 9378 001d 32740000 		.4byte	.LASF1242
 9379 0021 05       		.byte	0x5
 9380 0022 4E       		.uleb128 0x4e
 9381 0023 E88F0000 		.4byte	.LASF1243
 9382 0027 05       		.byte	0x5
 9383 0028 52       		.uleb128 0x52
 9384 0029 D42D0100 		.4byte	.LASF1244
 9385 002d 05       		.byte	0x5
 9386 002e 55       		.uleb128 0x55
 9387 002f 4FE80000 		.4byte	.LASF1245
 9388 0033 05       		.byte	0x5
 9389 0034 56       		.uleb128 0x56
 9390 0035 D2450000 		.4byte	.LASF1246
 9391 0039 05       		.byte	0x5
 9392 003a 59       		.uleb128 0x59
 9393 003b C7400000 		.4byte	.LASF1247
 9394 003f 05       		.byte	0x5
 9395 0040 5E       		.uleb128 0x5e
 9396 0041 2E2F0100 		.4byte	.LASF1248
 9397 0045 05       		.byte	0x5
 9398 0046 63       		.uleb128 0x63
 9399 0047 C8280000 		.4byte	.LASF1249
 9400 004b 05       		.byte	0x5
 9401 004c 72       		.uleb128 0x72
 9402 004d 1B4A0000 		.4byte	.LASF1250
 9403 0051 05       		.byte	0x5
 9404 0052 73       		.uleb128 0x73
ARM GAS  /tmp/ccKtbbXa.s 			page 166


 9405 0053 09900000 		.4byte	.LASF1251
 9406 0057 05       		.byte	0x5
 9407 0058 75       		.uleb128 0x75
 9408 0059 AB4B0000 		.4byte	.LASF1252
 9409 005d 05       		.byte	0x5
 9410 005e 76       		.uleb128 0x76
 9411 005f 7F9C0000 		.4byte	.LASF1253
 9412 0063 05       		.byte	0x5
 9413 0064 77       		.uleb128 0x77
 9414 0065 1A400100 		.4byte	.LASF1254
 9415 0069 05       		.byte	0x5
 9416 006a 78       		.uleb128 0x78
 9417 006b 0C9C0000 		.4byte	.LASF1255
 9418 006f 05       		.byte	0x5
 9419 0070 7A       		.uleb128 0x7a
 9420 0071 BC210000 		.4byte	.LASF1256
 9421 0075 05       		.byte	0x5
 9422 0076 7B       		.uleb128 0x7b
 9423 0077 B7AF0000 		.4byte	.LASF1257
 9424 007b 05       		.byte	0x5
 9425 007c 7D       		.uleb128 0x7d
 9426 007d C6DA0000 		.4byte	.LASF1258
 9427 0081 05       		.byte	0x5
 9428 0082 7E       		.uleb128 0x7e
 9429 0083 DB570000 		.4byte	.LASF1259
 9430 0087 05       		.byte	0x5
 9431 0088 7F       		.uleb128 0x7f
 9432 0089 6D190000 		.4byte	.LASF1260
 9433 008d 05       		.byte	0x5
 9434 008e 8001     		.uleb128 0x80
 9435 0090 671E0100 		.4byte	.LASF1261
 9436 0094 05       		.byte	0x5
 9437 0095 8101     		.uleb128 0x81
 9438 0097 E8130100 		.4byte	.LASF1262
 9439 009b 05       		.byte	0x5
 9440 009c 8201     		.uleb128 0x82
 9441 009e FA380100 		.4byte	.LASF1263
 9442 00a2 05       		.byte	0x5
 9443 00a3 8501     		.uleb128 0x85
 9444 00a5 E3D40000 		.4byte	.LASF1264
 9445 00a9 05       		.byte	0x5
 9446 00aa 8801     		.uleb128 0x88
 9447 00ac 65E50000 		.4byte	.LASF1265
 9448 00b0 05       		.byte	0x5
 9449 00b1 8B01     		.uleb128 0x8b
 9450 00b3 87AA0000 		.4byte	.LASF1266
 9451 00b7 05       		.byte	0x5
 9452 00b8 8D01     		.uleb128 0x8d
 9453 00ba 31110000 		.4byte	.LASF1267
 9454 00be 05       		.byte	0x5
 9455 00bf 9501     		.uleb128 0x95
 9456 00c1 EC090100 		.4byte	.LASF1268
 9457 00c5 05       		.byte	0x5
 9458 00c6 9B01     		.uleb128 0x9b
 9459 00c8 41F40000 		.4byte	.LASF1269
 9460 00cc 05       		.byte	0x5
 9461 00cd 9C01     		.uleb128 0x9c
ARM GAS  /tmp/ccKtbbXa.s 			page 167


 9462 00cf A8330100 		.4byte	.LASF1270
 9463 00d3 05       		.byte	0x5
 9464 00d4 9D01     		.uleb128 0x9d
 9465 00d6 B0E60000 		.4byte	.LASF1271
 9466 00da 05       		.byte	0x5
 9467 00db 9F01     		.uleb128 0x9f
 9468 00dd D2640000 		.4byte	.LASF1272
 9469 00e1 05       		.byte	0x5
 9470 00e2 A101     		.uleb128 0xa1
 9471 00e4 D4090000 		.4byte	.LASF1273
 9472 00e8 05       		.byte	0x5
 9473 00e9 AA01     		.uleb128 0xaa
 9474 00eb 40A80000 		.4byte	.LASF1274
 9475 00ef 05       		.byte	0x5
 9476 00f0 AC01     		.uleb128 0xac
 9477 00f2 95290100 		.4byte	.LASF1275
 9478 00f6 05       		.byte	0x5
 9479 00f7 B501     		.uleb128 0xb5
 9480 00f9 EED80000 		.4byte	.LASF1276
 9481 00fd 05       		.byte	0x5
 9482 00fe C401     		.uleb128 0xc4
 9483 0100 21390100 		.4byte	.LASF1277
 9484 0104 05       		.byte	0x5
 9485 0105 DB01     		.uleb128 0xdb
 9486 0107 81290000 		.4byte	.LASF1278
 9487 010b 05       		.byte	0x5
 9488 010c 8D02     		.uleb128 0x10d
 9489 010e B1090000 		.4byte	.LASF1279
 9490 0112 05       		.byte	0x5
 9491 0113 8E02     		.uleb128 0x10e
 9492 0115 15340100 		.4byte	.LASF1280
 9493 0119 05       		.byte	0x5
 9494 011a 9502     		.uleb128 0x115
 9495 011c E2CC0000 		.4byte	.LASF1281
 9496 0120 00       		.byte	0
 9497              		.section	.debug_macro,"G",%progbits,wm4.float.h.29.cae0b78251c51e3ff449cb238a29ed5b,comdat
 9498              	.Ldebug_macro27:
 9499 0000 0400     		.2byte	0x4
 9500 0002 00       		.byte	0
 9501 0003 05       		.byte	0x5
 9502 0004 1D       		.uleb128 0x1d
 9503 0005 7F3F0100 		.4byte	.LASF1284
 9504 0009 06       		.byte	0x6
 9505 000a 20       		.uleb128 0x20
 9506 000b 19710000 		.4byte	.LASF1285
 9507 000f 05       		.byte	0x5
 9508 0010 21       		.uleb128 0x21
 9509 0011 B78F0000 		.4byte	.LASF1286
 9510 0015 06       		.byte	0x6
 9511 0016 24       		.uleb128 0x24
 9512 0017 CE8C0000 		.4byte	.LASF1287
 9513 001b 06       		.byte	0x6
 9514 001c 25       		.uleb128 0x25
 9515 001d CA3E0100 		.4byte	.LASF1288
 9516 0021 06       		.byte	0x6
 9517 0022 26       		.uleb128 0x26
 9518 0023 17BC0000 		.4byte	.LASF1289
ARM GAS  /tmp/ccKtbbXa.s 			page 168


 9519 0027 05       		.byte	0x5
 9520 0028 27       		.uleb128 0x27
 9521 0029 BE380000 		.4byte	.LASF1290
 9522 002d 05       		.byte	0x5
 9523 002e 28       		.uleb128 0x28
 9524 002f 246C0000 		.4byte	.LASF1291
 9525 0033 05       		.byte	0x5
 9526 0034 29       		.uleb128 0x29
 9527 0035 1E3C0100 		.4byte	.LASF1292
 9528 0039 06       		.byte	0x6
 9529 003a 32       		.uleb128 0x32
 9530 003b CF0D0000 		.4byte	.LASF1293
 9531 003f 06       		.byte	0x6
 9532 0040 33       		.uleb128 0x33
 9533 0041 0C160000 		.4byte	.LASF1294
 9534 0045 06       		.byte	0x6
 9535 0046 34       		.uleb128 0x34
 9536 0047 422A0100 		.4byte	.LASF1295
 9537 004b 05       		.byte	0x5
 9538 004c 35       		.uleb128 0x35
 9539 004d C5310100 		.4byte	.LASF1296
 9540 0051 05       		.byte	0x5
 9541 0052 36       		.uleb128 0x36
 9542 0053 5D200100 		.4byte	.LASF1297
 9543 0057 05       		.byte	0x5
 9544 0058 37       		.uleb128 0x37
 9545 0059 86190000 		.4byte	.LASF1298
 9546 005d 06       		.byte	0x6
 9547 005e 3A       		.uleb128 0x3a
 9548 005f C12A0100 		.4byte	.LASF1299
 9549 0063 06       		.byte	0x6
 9550 0064 3B       		.uleb128 0x3b
 9551 0065 B69C0000 		.4byte	.LASF1300
 9552 0069 06       		.byte	0x6
 9553 006a 3C       		.uleb128 0x3c
 9554 006b C0620000 		.4byte	.LASF1301
 9555 006f 05       		.byte	0x5
 9556 0070 3D       		.uleb128 0x3d
 9557 0071 56210000 		.4byte	.LASF1302
 9558 0075 05       		.byte	0x5
 9559 0076 3E       		.uleb128 0x3e
 9560 0077 E2180000 		.4byte	.LASF1303
 9561 007b 05       		.byte	0x5
 9562 007c 3F       		.uleb128 0x3f
 9563 007d 5F720000 		.4byte	.LASF1304
 9564 0081 06       		.byte	0x6
 9565 0082 46       		.uleb128 0x46
 9566 0083 8A040100 		.4byte	.LASF1305
 9567 0087 06       		.byte	0x6
 9568 0088 47       		.uleb128 0x47
 9569 0089 FD4E0000 		.4byte	.LASF1306
 9570 008d 06       		.byte	0x6
 9571 008e 48       		.uleb128 0x48
 9572 008f 85030100 		.4byte	.LASF1307
 9573 0093 05       		.byte	0x5
 9574 0094 49       		.uleb128 0x49
 9575 0095 4E080000 		.4byte	.LASF1308
ARM GAS  /tmp/ccKtbbXa.s 			page 169


 9576 0099 05       		.byte	0x5
 9577 009a 4A       		.uleb128 0x4a
 9578 009b B9570000 		.4byte	.LASF1309
 9579 009f 05       		.byte	0x5
 9580 00a0 4B       		.uleb128 0x4b
 9581 00a1 06730000 		.4byte	.LASF1310
 9582 00a5 06       		.byte	0x6
 9583 00a6 4E       		.uleb128 0x4e
 9584 00a7 3BBA0000 		.4byte	.LASF1311
 9585 00ab 06       		.byte	0x6
 9586 00ac 4F       		.uleb128 0x4f
 9587 00ad 88C50000 		.4byte	.LASF1312
 9588 00b1 06       		.byte	0x6
 9589 00b2 50       		.uleb128 0x50
 9590 00b3 41EA0000 		.4byte	.LASF1313
 9591 00b7 05       		.byte	0x5
 9592 00b8 51       		.uleb128 0x51
 9593 00b9 6A620000 		.4byte	.LASF1314
 9594 00bd 05       		.byte	0x5
 9595 00be 52       		.uleb128 0x52
 9596 00bf BC1B0100 		.4byte	.LASF1315
 9597 00c3 05       		.byte	0x5
 9598 00c4 53       		.uleb128 0x53
 9599 00c5 AF6D0000 		.4byte	.LASF1316
 9600 00c9 06       		.byte	0x6
 9601 00ca 5A       		.uleb128 0x5a
 9602 00cb B48B0000 		.4byte	.LASF1317
 9603 00cf 06       		.byte	0x6
 9604 00d0 5B       		.uleb128 0x5b
 9605 00d1 DF230100 		.4byte	.LASF1318
 9606 00d5 06       		.byte	0x6
 9607 00d6 5C       		.uleb128 0x5c
 9608 00d7 948A0000 		.4byte	.LASF1319
 9609 00db 05       		.byte	0x5
 9610 00dc 5D       		.uleb128 0x5d
 9611 00dd 8C170100 		.4byte	.LASF1320
 9612 00e1 05       		.byte	0x5
 9613 00e2 5E       		.uleb128 0x5e
 9614 00e3 35280000 		.4byte	.LASF1321
 9615 00e7 05       		.byte	0x5
 9616 00e8 5F       		.uleb128 0x5f
 9617 00e9 E6D10000 		.4byte	.LASF1322
 9618 00ed 06       		.byte	0x6
 9619 00ee 65       		.uleb128 0x65
 9620 00ef D6FC0000 		.4byte	.LASF1323
 9621 00f3 06       		.byte	0x6
 9622 00f4 66       		.uleb128 0x66
 9623 00f5 7DE30000 		.4byte	.LASF1324
 9624 00f9 06       		.byte	0x6
 9625 00fa 67       		.uleb128 0x67
 9626 00fb 5DDB0000 		.4byte	.LASF1325
 9627 00ff 05       		.byte	0x5
 9628 0100 68       		.uleb128 0x68
 9629 0101 F63D0000 		.4byte	.LASF1326
 9630 0105 05       		.byte	0x5
 9631 0106 69       		.uleb128 0x69
 9632 0107 96450000 		.4byte	.LASF1327
ARM GAS  /tmp/ccKtbbXa.s 			page 170


 9633 010b 05       		.byte	0x5
 9634 010c 6A       		.uleb128 0x6a
 9635 010d C6790000 		.4byte	.LASF1328
 9636 0111 06       		.byte	0x6
 9637 0112 6E       		.uleb128 0x6e
 9638 0113 E4F90000 		.4byte	.LASF1329
 9639 0117 06       		.byte	0x6
 9640 0118 6F       		.uleb128 0x6f
 9641 0119 1CF50000 		.4byte	.LASF1330
 9642 011d 06       		.byte	0x6
 9643 011e 70       		.uleb128 0x70
 9644 011f E2380100 		.4byte	.LASF1331
 9645 0123 05       		.byte	0x5
 9646 0124 71       		.uleb128 0x71
 9647 0125 D7930000 		.4byte	.LASF1332
 9648 0129 05       		.byte	0x5
 9649 012a 72       		.uleb128 0x72
 9650 012b D51D0000 		.4byte	.LASF1333
 9651 012f 05       		.byte	0x5
 9652 0130 73       		.uleb128 0x73
 9653 0131 82E10000 		.4byte	.LASF1334
 9654 0135 06       		.byte	0x6
 9655 0136 76       		.uleb128 0x76
 9656 0137 E7260100 		.4byte	.LASF1335
 9657 013b 06       		.byte	0x6
 9658 013c 77       		.uleb128 0x77
 9659 013d 5D040100 		.4byte	.LASF1336
 9660 0141 06       		.byte	0x6
 9661 0142 78       		.uleb128 0x78
 9662 0143 C1FF0000 		.4byte	.LASF1337
 9663 0147 05       		.byte	0x5
 9664 0148 79       		.uleb128 0x79
 9665 0149 1E600000 		.4byte	.LASF1338
 9666 014d 05       		.byte	0x5
 9667 014e 7A       		.uleb128 0x7a
 9668 014f F5910000 		.4byte	.LASF1339
 9669 0153 05       		.byte	0x5
 9670 0154 7B       		.uleb128 0x7b
 9671 0155 85E30000 		.4byte	.LASF1340
 9672 0159 06       		.byte	0x6
 9673 015a 7F       		.uleb128 0x7f
 9674 015b A6090000 		.4byte	.LASF1341
 9675 015f 05       		.byte	0x5
 9676 0160 8001     		.uleb128 0x80
 9677 0162 30D20000 		.4byte	.LASF1342
 9678 0166 06       		.byte	0x6
 9679 0167 C101     		.uleb128 0xc1
 9680 0169 8E570000 		.4byte	.LASF1172
 9681 016d 05       		.byte	0x5
 9682 016e C501     		.uleb128 0xc5
 9683 0170 804C0000 		.4byte	.LASF1170
 9684 0174 06       		.byte	0x6
 9685 0175 D001     		.uleb128 0xd0
 9686 0177 9E960000 		.4byte	.LASF1343
 9687 017b 05       		.byte	0x5
 9688 017c D101     		.uleb128 0xd1
 9689 017e E0C10000 		.4byte	.LASF1344
ARM GAS  /tmp/ccKtbbXa.s 			page 171


 9690 0182 00       		.byte	0
 9691              		.section	.debug_macro,"G",%progbits,wm4.string.h.8.c4b8571ce60dff2817f43fec8b86aecd,comdat
 9692              	.Ldebug_macro28:
 9693 0000 0400     		.2byte	0x4
 9694 0002 00       		.byte	0
 9695 0003 05       		.byte	0x5
 9696 0004 08       		.uleb128 0x8
 9697 0005 53B00000 		.4byte	.LASF1345
 9698 0009 05       		.byte	0x5
 9699 000a 0F       		.uleb128 0xf
 9700 000b 9C700000 		.4byte	.LASF944
 9701 000f 05       		.byte	0x5
 9702 0010 10       		.uleb128 0x10
 9703 0011 34EA0000 		.4byte	.LASF1346
 9704 0015 00       		.byte	0
 9705              		.section	.debug_macro,"G",%progbits,wm4.stddef.h.155.ba788add86a0e365f264484f110c3c29,comdat
 9706              	.Ldebug_macro29:
 9707 0000 0400     		.2byte	0x4
 9708 0002 00       		.byte	0
 9709 0003 06       		.byte	0x6
 9710 0004 9B01     		.uleb128 0x9b
 9711 0006 EC740000 		.4byte	.LASF921
 9712 000a 06       		.byte	0x6
 9713 000b E701     		.uleb128 0xe7
 9714 000d BE160100 		.4byte	.LASF939
 9715 0011 06       		.byte	0x6
 9716 0012 D402     		.uleb128 0x154
 9717 0014 ABEE0000 		.4byte	.LASF767
 9718 0018 06       		.byte	0x6
 9719 0019 8603     		.uleb128 0x186
 9720 001b 8B6B0000 		.4byte	.LASF940
 9721 001f 05       		.byte	0x5
 9722 0020 8B03     		.uleb128 0x18b
 9723 0022 7EEB0000 		.4byte	.LASF941
 9724 0026 06       		.byte	0x6
 9725 0027 9103     		.uleb128 0x191
 9726 0029 FE9E0000 		.4byte	.LASF768
 9727 002d 05       		.byte	0x5
 9728 002e 9603     		.uleb128 0x196
 9729 0030 0A9F0000 		.4byte	.LASF942
 9730 0034 00       		.byte	0
 9731              		.section	.debug_macro,"G",%progbits,wm4.pprz_algebra.h.48.e27d96e216b5b7bc59138cb613a0c51a,comdat
 9732              	.Ldebug_macro30:
 9733 0000 0400     		.2byte	0x4
 9734 0002 00       		.byte	0
 9735 0003 05       		.byte	0x5
 9736 0004 30       		.uleb128 0x30
 9737 0005 A4950000 		.4byte	.LASF1348
 9738 0009 05       		.byte	0x5
 9739 000a 3E       		.uleb128 0x3e
 9740 000b D3080000 		.4byte	.LASF1349
 9741 000f 05       		.byte	0x5
 9742 0010 44       		.uleb128 0x44
 9743 0011 BC880000 		.4byte	.LASF1350
 9744 0015 05       		.byte	0x5
 9745 0016 4A       		.uleb128 0x4a
 9746 0017 EF5C0000 		.4byte	.LASF1351
ARM GAS  /tmp/ccKtbbXa.s 			page 172


 9747 001b 05       		.byte	0x5
 9748 001c 50       		.uleb128 0x50
 9749 001d F0570000 		.4byte	.LASF1352
 9750 0021 05       		.byte	0x5
 9751 0022 56       		.uleb128 0x56
 9752 0023 FC0D0000 		.4byte	.LASF1353
 9753 0027 05       		.byte	0x5
 9754 0028 5C       		.uleb128 0x5c
 9755 0029 A8750000 		.4byte	.LASF1354
 9756 002d 05       		.byte	0x5
 9757 002e 62       		.uleb128 0x62
 9758 002f 0E200100 		.4byte	.LASF1355
 9759 0033 05       		.byte	0x5
 9760 0034 68       		.uleb128 0x68
 9761 0035 88F90000 		.4byte	.LASF1356
 9762 0039 05       		.byte	0x5
 9763 003a 6E       		.uleb128 0x6e
 9764 003b E1E20000 		.4byte	.LASF1357
 9765 003f 05       		.byte	0x5
 9766 0040 74       		.uleb128 0x74
 9767 0041 14160000 		.4byte	.LASF1358
 9768 0045 05       		.byte	0x5
 9769 0046 76       		.uleb128 0x76
 9770 0047 46850000 		.4byte	.LASF1359
 9771 004b 05       		.byte	0x5
 9772 004c 7D       		.uleb128 0x7d
 9773 004d F2C90000 		.4byte	.LASF1360
 9774 0051 05       		.byte	0x5
 9775 0052 8501     		.uleb128 0x85
 9776 0054 B4010000 		.4byte	.LASF1361
 9777 0058 05       		.byte	0x5
 9778 0059 8C01     		.uleb128 0x8c
 9779 005b EE1A0100 		.4byte	.LASF1362
 9780 005f 05       		.byte	0x5
 9781 0060 9301     		.uleb128 0x93
 9782 0062 28F50000 		.4byte	.LASF1363
 9783 0066 05       		.byte	0x5
 9784 0067 9A01     		.uleb128 0x9a
 9785 0069 54280100 		.4byte	.LASF1364
 9786 006d 05       		.byte	0x5
 9787 006e A101     		.uleb128 0xa1
 9788 0070 592E0000 		.4byte	.LASF1365
 9789 0074 05       		.byte	0x5
 9790 0075 A801     		.uleb128 0xa8
 9791 0077 232F0000 		.4byte	.LASF1366
 9792 007b 05       		.byte	0x5
 9793 007c AF01     		.uleb128 0xaf
 9794 007e CA1C0000 		.4byte	.LASF1367
 9795 0082 05       		.byte	0x5
 9796 0083 B601     		.uleb128 0xb6
 9797 0085 EB350000 		.4byte	.LASF1368
 9798 0089 05       		.byte	0x5
 9799 008a BD01     		.uleb128 0xbd
 9800 008c 822C0100 		.4byte	.LASF1369
 9801 0090 05       		.byte	0x5
 9802 0091 C401     		.uleb128 0xc4
 9803 0093 0B5E0000 		.4byte	.LASF1370
ARM GAS  /tmp/ccKtbbXa.s 			page 173


 9804 0097 05       		.byte	0x5
 9805 0098 CB01     		.uleb128 0xcb
 9806 009a 46320100 		.4byte	.LASF1371
 9807 009e 05       		.byte	0x5
 9808 009f D201     		.uleb128 0xd2
 9809 00a1 04770000 		.4byte	.LASF1372
 9810 00a5 05       		.byte	0x5
 9811 00a6 D901     		.uleb128 0xd9
 9812 00a8 D50C0000 		.4byte	.LASF1373
 9813 00ac 05       		.byte	0x5
 9814 00ad E001     		.uleb128 0xe0
 9815 00af 9AE50000 		.4byte	.LASF1374
 9816 00b3 05       		.byte	0x5
 9817 00b4 E701     		.uleb128 0xe7
 9818 00b6 F3B60000 		.4byte	.LASF1375
 9819 00ba 05       		.byte	0x5
 9820 00bb EE01     		.uleb128 0xee
 9821 00bd 34260000 		.4byte	.LASF1376
 9822 00c1 05       		.byte	0x5
 9823 00c2 F401     		.uleb128 0xf4
 9824 00c4 91370100 		.4byte	.LASF1377
 9825 00c8 05       		.byte	0x5
 9826 00c9 FA01     		.uleb128 0xfa
 9827 00cb 57280000 		.4byte	.LASF1378
 9828 00cf 05       		.byte	0x5
 9829 00d0 FC01     		.uleb128 0xfc
 9830 00d2 51370100 		.4byte	.LASF1379
 9831 00d6 05       		.byte	0x5
 9832 00d7 FE01     		.uleb128 0xfe
 9833 00d9 31300100 		.4byte	.LASF1380
 9834 00dd 05       		.byte	0x5
 9835 00de 8C02     		.uleb128 0x10c
 9836 00e0 645F0000 		.4byte	.LASF1381
 9837 00e4 05       		.byte	0x5
 9838 00e5 9202     		.uleb128 0x112
 9839 00e7 9F990000 		.4byte	.LASF1382
 9840 00eb 05       		.byte	0x5
 9841 00ec 9902     		.uleb128 0x119
 9842 00ee 7DE90000 		.4byte	.LASF1383
 9843 00f2 05       		.byte	0x5
 9844 00f3 A002     		.uleb128 0x120
 9845 00f5 E1210100 		.4byte	.LASF1384
 9846 00f9 05       		.byte	0x5
 9847 00fa A702     		.uleb128 0x127
 9848 00fc 40C60000 		.4byte	.LASF1385
 9849 0100 05       		.byte	0x5
 9850 0101 AF02     		.uleb128 0x12f
 9851 0103 288B0000 		.4byte	.LASF1386
 9852 0107 05       		.byte	0x5
 9853 0108 B602     		.uleb128 0x136
 9854 010a C0F60000 		.4byte	.LASF1387
 9855 010e 05       		.byte	0x5
 9856 010f BD02     		.uleb128 0x13d
 9857 0111 B70A0000 		.4byte	.LASF1388
 9858 0115 05       		.byte	0x5
 9859 0116 CA02     		.uleb128 0x14a
 9860 0118 FA0E0000 		.4byte	.LASF1389
ARM GAS  /tmp/ccKtbbXa.s 			page 174


 9861 011c 05       		.byte	0x5
 9862 011d D102     		.uleb128 0x151
 9863 011f 6C240100 		.4byte	.LASF1390
 9864 0123 05       		.byte	0x5
 9865 0124 D802     		.uleb128 0x158
 9866 0126 4C9F0000 		.4byte	.LASF1391
 9867 012a 05       		.byte	0x5
 9868 012b DF02     		.uleb128 0x15f
 9869 012d DA240000 		.4byte	.LASF1392
 9870 0131 05       		.byte	0x5
 9871 0132 E602     		.uleb128 0x166
 9872 0134 491D0000 		.4byte	.LASF1393
 9873 0138 05       		.byte	0x5
 9874 0139 ED02     		.uleb128 0x16d
 9875 013b C3280100 		.4byte	.LASF1394
 9876 013f 05       		.byte	0x5
 9877 0140 F402     		.uleb128 0x174
 9878 0142 7C350100 		.4byte	.LASF1395
 9879 0146 05       		.byte	0x5
 9880 0147 FB02     		.uleb128 0x17b
 9881 0149 492B0000 		.4byte	.LASF1396
 9882 014d 05       		.byte	0x5
 9883 014e 8203     		.uleb128 0x182
 9884 0150 5FCA0000 		.4byte	.LASF1397
 9885 0154 05       		.byte	0x5
 9886 0155 8903     		.uleb128 0x189
 9887 0157 41DA0000 		.4byte	.LASF1398
 9888 015b 05       		.byte	0x5
 9889 015c 9103     		.uleb128 0x191
 9890 015e 09530000 		.4byte	.LASF1399
 9891 0162 05       		.byte	0x5
 9892 0163 9703     		.uleb128 0x197
 9893 0165 16CD0000 		.4byte	.LASF1400
 9894 0169 05       		.byte	0x5
 9895 016a 9D03     		.uleb128 0x19d
 9896 016c 22150100 		.4byte	.LASF1401
 9897 0170 05       		.byte	0x5
 9898 0171 A303     		.uleb128 0x1a3
 9899 0173 D2040100 		.4byte	.LASF1402
 9900 0177 05       		.byte	0x5
 9901 0178 B403     		.uleb128 0x1b4
 9902 017a EEEB0000 		.4byte	.LASF1403
 9903 017e 05       		.byte	0x5
 9904 017f B603     		.uleb128 0x1b6
 9905 0181 41A30000 		.4byte	.LASF1404
 9906 0185 05       		.byte	0x5
 9907 0186 C203     		.uleb128 0x1c2
 9908 0188 E30C0100 		.4byte	.LASF1405
 9909 018c 05       		.byte	0x5
 9910 018d CF03     		.uleb128 0x1cf
 9911 018f 3AFB0000 		.4byte	.LASF1406
 9912 0193 05       		.byte	0x5
 9913 0194 DC03     		.uleb128 0x1dc
 9914 0196 A2770000 		.4byte	.LASF1407
 9915 019a 05       		.byte	0x5
 9916 019b E903     		.uleb128 0x1e9
 9917 019d 43BC0000 		.4byte	.LASF1408
ARM GAS  /tmp/ccKtbbXa.s 			page 175


 9918 01a1 05       		.byte	0x5
 9919 01a2 8204     		.uleb128 0x202
 9920 01a4 277E0000 		.4byte	.LASF1409
 9921 01a8 05       		.byte	0x5
 9922 01a9 8904     		.uleb128 0x209
 9923 01ab F2CA0000 		.4byte	.LASF1410
 9924 01af 05       		.byte	0x5
 9925 01b0 9604     		.uleb128 0x216
 9926 01b2 D6400100 		.4byte	.LASF1411
 9927 01b6 05       		.byte	0x5
 9928 01b7 A304     		.uleb128 0x223
 9929 01b9 690F0100 		.4byte	.LASF1412
 9930 01bd 05       		.byte	0x5
 9931 01be B004     		.uleb128 0x230
 9932 01c0 F3030000 		.4byte	.LASF1413
 9933 01c4 05       		.byte	0x5
 9934 01c5 C404     		.uleb128 0x244
 9935 01c7 8E5B0000 		.4byte	.LASF1414
 9936 01cb 05       		.byte	0x5
 9937 01cc CC04     		.uleb128 0x24c
 9938 01ce 3A0C0000 		.4byte	.LASF1415
 9939 01d2 05       		.byte	0x5
 9940 01d3 D404     		.uleb128 0x254
 9941 01d5 CD4B0000 		.4byte	.LASF1416
 9942 01d9 05       		.byte	0x5
 9943 01da DB04     		.uleb128 0x25b
 9944 01dc B3F80000 		.4byte	.LASF1417
 9945 01e0 05       		.byte	0x5
 9946 01e1 E304     		.uleb128 0x263
 9947 01e3 9A120100 		.4byte	.LASF1418
 9948 01e7 05       		.byte	0x5
 9949 01e8 EB04     		.uleb128 0x26b
 9950 01ea 013C0000 		.4byte	.LASF1419
 9951 01ee 05       		.byte	0x5
 9952 01ef F304     		.uleb128 0x273
 9953 01f1 12D30000 		.4byte	.LASF1420
 9954 01f5 05       		.byte	0x5
 9955 01f6 FB04     		.uleb128 0x27b
 9956 01f8 07620000 		.4byte	.LASF1421
 9957 01fc 05       		.byte	0x5
 9958 01fd 8205     		.uleb128 0x282
 9959 01ff 17B30000 		.4byte	.LASF1422
 9960 0203 05       		.byte	0x5
 9961 0204 8A05     		.uleb128 0x28a
 9962 0206 35400000 		.4byte	.LASF1423
 9963 020a 05       		.byte	0x5
 9964 020b 9405     		.uleb128 0x294
 9965 020d 0AAC0000 		.4byte	.LASF1424
 9966 0211 05       		.byte	0x5
 9967 0212 9705     		.uleb128 0x297
 9968 0214 77060100 		.4byte	.LASF1425
 9969 0218 05       		.byte	0x5
 9970 0219 9A05     		.uleb128 0x29a
 9971 021b 08020100 		.4byte	.LASF1426
 9972 021f 05       		.byte	0x5
 9973 0220 A705     		.uleb128 0x2a7
 9974 0222 4A660000 		.4byte	.LASF1427
ARM GAS  /tmp/ccKtbbXa.s 			page 176


 9975 0226 05       		.byte	0x5
 9976 0227 B305     		.uleb128 0x2b3
 9977 0229 1D920000 		.4byte	.LASF1428
 9978 022d 05       		.byte	0x5
 9979 022e C005     		.uleb128 0x2c0
 9980 0230 40700000 		.4byte	.LASF1429
 9981 0234 05       		.byte	0x5
 9982 0235 C505     		.uleb128 0x2c5
 9983 0237 90680000 		.4byte	.LASF1430
 9984 023b 05       		.byte	0x5
 9985 023c CB05     		.uleb128 0x2cb
 9986 023e BC440000 		.4byte	.LASF1431
 9987 0242 05       		.byte	0x5
 9988 0243 D105     		.uleb128 0x2d1
 9989 0245 F1F10000 		.4byte	.LASF1432
 9990 0249 05       		.byte	0x5
 9991 024a DD05     		.uleb128 0x2dd
 9992 024c 8FB40000 		.4byte	.LASF1433
 9993 0250 05       		.byte	0x5
 9994 0251 E905     		.uleb128 0x2e9
 9995 0253 4B1F0100 		.4byte	.LASF1434
 9996 0257 05       		.byte	0x5
 9997 0258 F005     		.uleb128 0x2f0
 9998 025a 81300000 		.4byte	.LASF1435
 9999 025e 05       		.byte	0x5
 10000 025f F705     		.uleb128 0x2f7
 10001 0261 DB1E0000 		.4byte	.LASF1436
 10002 0265 05       		.byte	0x5
 10003 0266 FD05     		.uleb128 0x2fd
 10004 0268 51050100 		.4byte	.LASF1437
 10005 026c 05       		.byte	0x5
 10006 026d 8306     		.uleb128 0x303
 10007 026f 99220100 		.4byte	.LASF1438
 10008 0273 05       		.byte	0x5
 10009 0274 8906     		.uleb128 0x309
 10010 0276 FC6A0000 		.4byte	.LASF1439
 10011 027a 05       		.byte	0x5
 10012 027b 8F06     		.uleb128 0x30f
 10013 027d 7B900000 		.4byte	.LASF1440
 10014 0281 05       		.byte	0x5
 10015 0282 9506     		.uleb128 0x315
 10016 0284 29A90000 		.4byte	.LASF1441
 10017 0288 05       		.byte	0x5
 10018 0289 9B06     		.uleb128 0x31b
 10019 028b 7B1F0000 		.4byte	.LASF1442
 10020 028f 05       		.byte	0x5
 10021 0290 A106     		.uleb128 0x321
 10022 0292 94120000 		.4byte	.LASF1443
 10023 0296 05       		.byte	0x5
 10024 0297 A706     		.uleb128 0x327
 10025 0299 19800000 		.4byte	.LASF1444
 10026 029d 05       		.byte	0x5
 10027 029e AD06     		.uleb128 0x32d
 10028 02a0 FD740000 		.4byte	.LASF1445
 10029 02a4 00       		.byte	0
 10030              		.section	.debug_macro,"G",%progbits,wm4.pprz_trig_int.h.28.80b82b769e81d2cc0f45c792443353a0,comdat
 10031              	.Ldebug_macro31:
ARM GAS  /tmp/ccKtbbXa.s 			page 177


 10032 0000 0400     		.2byte	0x4
 10033 0002 00       		.byte	0
 10034 0003 05       		.byte	0x5
 10035 0004 1C       		.uleb128 0x1c
 10036 0005 543A0000 		.4byte	.LASF1446
 10037 0009 05       		.byte	0x5
 10038 000a 28       		.uleb128 0x28
 10039 000b 63200000 		.4byte	.LASF1447
 10040 000f 05       		.byte	0x5
 10041 0010 37       		.uleb128 0x37
 10042 0011 58940000 		.4byte	.LASF1448
 10043 0015 05       		.byte	0x5
 10044 0016 38       		.uleb128 0x38
 10045 0017 E2690000 		.4byte	.LASF1449
 10046 001b 05       		.byte	0x5
 10047 001c 39       		.uleb128 0x39
 10048 001d 06140100 		.4byte	.LASF1450
 10049 0021 05       		.byte	0x5
 10050 0022 3A       		.uleb128 0x3a
 10051 0023 618A0000 		.4byte	.LASF1451
 10052 0027 05       		.byte	0x5
 10053 0028 3B       		.uleb128 0x3b
 10054 0029 8B540000 		.4byte	.LASF1452
 10055 002d 05       		.byte	0x5
 10056 002e 3E       		.uleb128 0x3e
 10057 002f 22590000 		.4byte	.LASF1453
 10058 0033 05       		.byte	0x5
 10059 0034 3F       		.uleb128 0x3f
 10060 0035 71690000 		.4byte	.LASF1454
 10061 0039 05       		.byte	0x5
 10062 003a 42       		.uleb128 0x42
 10063 003b 6B290100 		.4byte	.LASF1455
 10064 003f 05       		.byte	0x5
 10065 0040 44       		.uleb128 0x44
 10066 0041 27FB0000 		.4byte	.LASF1456
 10067 0045 05       		.byte	0x5
 10068 0046 45       		.uleb128 0x45
 10069 0047 E4070100 		.4byte	.LASF1457
 10070 004b 05       		.byte	0x5
 10071 004c 46       		.uleb128 0x46
 10072 004d D2F00000 		.4byte	.LASF1458
 10073 0051 05       		.byte	0x5
 10074 0052 6F       		.uleb128 0x6f
 10075 0053 7BD10000 		.4byte	.LASF1459
 10076 0057 05       		.byte	0x5
 10077 0058 70       		.uleb128 0x70
 10078 0059 766C0000 		.4byte	.LASF1460
 10079 005d 05       		.byte	0x5
 10080 005e 71       		.uleb128 0x71
 10081 005f 426C0000 		.4byte	.LASF1461
 10082 0063 05       		.byte	0x5
 10083 0064 72       		.uleb128 0x72
 10084 0065 AC720000 		.4byte	.LASF1462
 10085 0069 00       		.byte	0
 10086              		.section	.debug_macro,"G",%progbits,wm4.stdlib.h.13.4ed386f5c1a80d71e72172885d946ef2,comdat
 10087              	.Ldebug_macro32:
 10088 0000 0400     		.2byte	0x4
ARM GAS  /tmp/ccKtbbXa.s 			page 178


 10089 0002 00       		.byte	0
 10090 0003 05       		.byte	0x5
 10091 0004 0D       		.uleb128 0xd
 10092 0005 9C700000 		.4byte	.LASF944
 10093 0009 05       		.byte	0x5
 10094 000a 0E       		.uleb128 0xe
 10095 000b 15010100 		.4byte	.LASF750
 10096 000f 05       		.byte	0x5
 10097 0010 0F       		.uleb128 0xf
 10098 0011 34EA0000 		.4byte	.LASF1346
 10099 0015 00       		.byte	0
 10100              		.section	.debug_macro,"G",%progbits,wm4.alloca.h.8.dfc0c703c47ec3e69746825b17d9e66d,comdat
 10101              	.Ldebug_macro33:
 10102 0000 0400     		.2byte	0x4
 10103 0002 00       		.byte	0
 10104 0003 05       		.byte	0x5
 10105 0004 08       		.uleb128 0x8
 10106 0005 73A10000 		.4byte	.LASF1465
 10107 0009 06       		.byte	0x6
 10108 000a 0D       		.uleb128 0xd
 10109 000b 12010000 		.4byte	.LASF1466
 10110 000f 05       		.byte	0x5
 10111 0010 10       		.uleb128 0x10
 10112 0011 BC800000 		.4byte	.LASF1467
 10113 0015 00       		.byte	0
 10114              		.section	.debug_macro,"G",%progbits,wm4.stdlib.h.56.f4862cfbf4363a1db01842d5bdf72c18,comdat
 10115              	.Ldebug_macro34:
 10116 0000 0400     		.2byte	0x4
 10117 0002 00       		.byte	0
 10118 0003 05       		.byte	0x5
 10119 0004 38       		.uleb128 0x38
 10120 0005 88C90000 		.4byte	.LASF1468
 10121 0009 05       		.byte	0x5
 10122 000a 3C       		.uleb128 0x3c
 10123 000b 0A270100 		.4byte	.LASF1469
 10124 000f 05       		.byte	0x5
 10125 0010 3D       		.uleb128 0x3d
 10126 0011 2AE50000 		.4byte	.LASF1470
 10127 0015 05       		.byte	0x5
 10128 0016 3F       		.uleb128 0x3f
 10129 0017 2BE40000 		.4byte	.LASF1471
 10130 001b 05       		.byte	0x5
 10131 001c 43       		.uleb128 0x43
 10132 001d A31E0000 		.4byte	.LASF1472
 10133 0021 05       		.byte	0x5
 10134 0022 A801     		.uleb128 0xa8
 10135 0024 BF130100 		.4byte	.LASF1473
 10136 0028 00       		.byte	0
 10137              		.section	.debug_macro,"G",%progbits,wm4.pprz_algebra_int.h.68.47ddcb2493db04639df134fe827a9f17,com
 10138              	.Ldebug_macro35:
 10139 0000 0400     		.2byte	0x4
 10140 0002 00       		.byte	0
 10141 0003 05       		.byte	0x5
 10142 0004 44       		.uleb128 0x44
 10143 0005 A59C0000 		.4byte	.LASF1474
 10144 0009 05       		.byte	0x5
 10145 000a 45       		.uleb128 0x45
ARM GAS  /tmp/ccKtbbXa.s 			page 179


 10146 000b E7810000 		.4byte	.LASF1475
 10147 000f 05       		.byte	0x5
 10148 0010 46       		.uleb128 0x46
 10149 0011 D3940000 		.4byte	.LASF1476
 10150 0015 05       		.byte	0x5
 10151 0016 47       		.uleb128 0x47
 10152 0017 94B20000 		.4byte	.LASF1477
 10153 001b 05       		.byte	0x5
 10154 001c 49       		.uleb128 0x49
 10155 001d 6C550000 		.4byte	.LASF1478
 10156 0021 05       		.byte	0x5
 10157 0022 4A       		.uleb128 0x4a
 10158 0023 A58C0000 		.4byte	.LASF1479
 10159 0027 05       		.byte	0x5
 10160 0028 4B       		.uleb128 0x4b
 10161 0029 77FA0000 		.4byte	.LASF1480
 10162 002d 05       		.byte	0x5
 10163 002e 4C       		.uleb128 0x4c
 10164 002f 6B2A0100 		.4byte	.LASF1481
 10165 0033 05       		.byte	0x5
 10166 0034 4E       		.uleb128 0x4e
 10167 0035 53310000 		.4byte	.LASF1482
 10168 0039 05       		.byte	0x5
 10169 003a 4F       		.uleb128 0x4f
 10170 003b 039A0000 		.4byte	.LASF1483
 10171 003f 05       		.byte	0x5
 10172 0040 51       		.uleb128 0x51
 10173 0041 9C190000 		.4byte	.LASF1484
 10174 0045 05       		.byte	0x5
 10175 0046 5F       		.uleb128 0x5f
 10176 0047 B11A0100 		.4byte	.LASF1485
 10177 004b 05       		.byte	0x5
 10178 004c 74       		.uleb128 0x74
 10179 004d CAFF0000 		.4byte	.LASF1486
 10180 0051 05       		.byte	0x5
 10181 0052 75       		.uleb128 0x75
 10182 0053 B9D50000 		.4byte	.LASF1487
 10183 0057 05       		.byte	0x5
 10184 0058 76       		.uleb128 0x76
 10185 0059 E1250000 		.4byte	.LASF1488
 10186 005d 05       		.byte	0x5
 10187 005e 77       		.uleb128 0x77
 10188 005f AE160000 		.4byte	.LASF1489
 10189 0063 05       		.byte	0x5
 10190 0064 78       		.uleb128 0x78
 10191 0065 00720000 		.4byte	.LASF1490
 10192 0069 05       		.byte	0x5
 10193 006a 79       		.uleb128 0x79
 10194 006b F97C0000 		.4byte	.LASF1491
 10195 006f 05       		.byte	0x5
 10196 0070 7B       		.uleb128 0x7b
 10197 0071 1C410000 		.4byte	.LASF1492
 10198 0075 05       		.byte	0x5
 10199 0076 7C       		.uleb128 0x7c
 10200 0077 5C320000 		.4byte	.LASF1493
 10201 007b 05       		.byte	0x5
 10202 007c 7E       		.uleb128 0x7e
ARM GAS  /tmp/ccKtbbXa.s 			page 180


 10203 007d 028C0000 		.4byte	.LASF1494
 10204 0081 05       		.byte	0x5
 10205 0082 8301     		.uleb128 0x83
 10206 0084 4DF00000 		.4byte	.LASF1495
 10207 0088 05       		.byte	0x5
 10208 0089 9A01     		.uleb128 0x9a
 10209 008b 87750000 		.4byte	.LASF1496
 10210 008f 05       		.byte	0x5
 10211 0090 CD01     		.uleb128 0xcd
 10212 0092 202E0100 		.4byte	.LASF1497
 10213 0096 05       		.byte	0x5
 10214 0097 CE01     		.uleb128 0xce
 10215 0099 19350000 		.4byte	.LASF1498
 10216 009d 05       		.byte	0x5
 10217 009e CF01     		.uleb128 0xcf
 10218 00a0 3FAC0000 		.4byte	.LASF1499
 10219 00a4 05       		.byte	0x5
 10220 00a5 D001     		.uleb128 0xd0
 10221 00a7 FE2F0000 		.4byte	.LASF1500
 10222 00ab 05       		.byte	0x5
 10223 00ac D101     		.uleb128 0xd1
 10224 00ae 981E0100 		.4byte	.LASF1501
 10225 00b2 05       		.byte	0x5
 10226 00b3 D201     		.uleb128 0xd2
 10227 00b5 732F0100 		.4byte	.LASF1502
 10228 00b9 05       		.byte	0x5
 10229 00ba D301     		.uleb128 0xd3
 10230 00bc F14F0000 		.4byte	.LASF1503
 10231 00c0 05       		.byte	0x5
 10232 00c1 D401     		.uleb128 0xd4
 10233 00c3 62D40000 		.4byte	.LASF1504
 10234 00c7 05       		.byte	0x5
 10235 00c8 D501     		.uleb128 0xd5
 10236 00ca 741B0100 		.4byte	.LASF1505
 10237 00ce 05       		.byte	0x5
 10238 00cf D601     		.uleb128 0xd6
 10239 00d1 C7190000 		.4byte	.LASF1506
 10240 00d5 05       		.byte	0x5
 10241 00d6 D701     		.uleb128 0xd7
 10242 00d8 86620000 		.4byte	.LASF1507
 10243 00dc 05       		.byte	0x5
 10244 00dd D801     		.uleb128 0xd8
 10245 00df 45100000 		.4byte	.LASF1508
 10246 00e3 05       		.byte	0x5
 10247 00e4 D901     		.uleb128 0xd9
 10248 00e6 09830000 		.4byte	.LASF1509
 10249 00ea 05       		.byte	0x5
 10250 00eb DA01     		.uleb128 0xda
 10251 00ed F6320000 		.4byte	.LASF1510
 10252 00f1 05       		.byte	0x5
 10253 00f2 DB01     		.uleb128 0xdb
 10254 00f4 6C330100 		.4byte	.LASF1511
 10255 00f8 05       		.byte	0x5
 10256 00f9 DC01     		.uleb128 0xdc
 10257 00fb 4F2E0100 		.4byte	.LASF1512
 10258 00ff 05       		.byte	0x5
 10259 0100 DD01     		.uleb128 0xdd
ARM GAS  /tmp/ccKtbbXa.s 			page 181


 10260 0102 B6080100 		.4byte	.LASF1513
 10261 0106 05       		.byte	0x5
 10262 0107 DE01     		.uleb128 0xde
 10263 0109 D9BB0000 		.4byte	.LASF1514
 10264 010d 05       		.byte	0x5
 10265 010e DF01     		.uleb128 0xdf
 10266 0110 89FF0000 		.4byte	.LASF1515
 10267 0114 05       		.byte	0x5
 10268 0115 E001     		.uleb128 0xe0
 10269 0117 1F2E0000 		.4byte	.LASF1516
 10270 011b 05       		.byte	0x5
 10271 011c E201     		.uleb128 0xe2
 10272 011e FF330000 		.4byte	.LASF1517
 10273 0122 05       		.byte	0x5
 10274 0123 E701     		.uleb128 0xe7
 10275 0125 93ED0000 		.4byte	.LASF1518
 10276 0129 05       		.byte	0x5
 10277 012a EE01     		.uleb128 0xee
 10278 012c EE2F0100 		.4byte	.LASF1519
 10279 0130 05       		.byte	0x5
 10280 0131 F101     		.uleb128 0xf1
 10281 0133 BD190100 		.4byte	.LASF1520
 10282 0137 05       		.byte	0x5
 10283 0138 8A02     		.uleb128 0x10a
 10284 013a 25560000 		.4byte	.LASF1521
 10285 013e 05       		.byte	0x5
 10286 013f 8D02     		.uleb128 0x10d
 10287 0141 8A210100 		.4byte	.LASF1522
 10288 0145 05       		.byte	0x5
 10289 0146 9202     		.uleb128 0x112
 10290 0148 26430000 		.4byte	.LASF1523
 10291 014c 05       		.byte	0x5
 10292 014d 9702     		.uleb128 0x117
 10293 014f 0C7A0000 		.4byte	.LASF1524
 10294 0153 05       		.byte	0x5
 10295 0154 A002     		.uleb128 0x120
 10296 0156 30040100 		.4byte	.LASF1525
 10297 015a 05       		.byte	0x5
 10298 015b A102     		.uleb128 0x121
 10299 015d 5B210100 		.4byte	.LASF1526
 10300 0161 05       		.byte	0x5
 10301 0162 A302     		.uleb128 0x123
 10302 0164 EA2B0100 		.4byte	.LASF1527
 10303 0168 05       		.byte	0x5
 10304 0169 A902     		.uleb128 0x129
 10305 016b AA100000 		.4byte	.LASF1528
 10306 016f 05       		.byte	0x5
 10307 0170 AB02     		.uleb128 0x12b
 10308 0172 3CAB0000 		.4byte	.LASF1529
 10309 0176 05       		.byte	0x5
 10310 0177 B102     		.uleb128 0x131
 10311 0179 19010000 		.4byte	.LASF1530
 10312 017d 05       		.byte	0x5
 10313 017e BC02     		.uleb128 0x13c
 10314 0180 CD1A0000 		.4byte	.LASF1531
 10315 0184 05       		.byte	0x5
 10316 0185 C802     		.uleb128 0x148
ARM GAS  /tmp/ccKtbbXa.s 			page 182


 10317 0187 F4EE0000 		.4byte	.LASF1532
 10318 018b 05       		.byte	0x5
 10319 018c 9903     		.uleb128 0x199
 10320 018e 85F80000 		.4byte	.LASF1533
 10321 0192 05       		.byte	0x5
 10322 0193 9C03     		.uleb128 0x19c
 10323 0195 061A0100 		.4byte	.LASF1534
 10324 0199 05       		.byte	0x5
 10325 019a 9D03     		.uleb128 0x19d
 10326 019c 83170000 		.4byte	.LASF1535
 10327 01a0 05       		.byte	0x5
 10328 01a1 9E03     		.uleb128 0x19e
 10329 01a3 01080100 		.4byte	.LASF1536
 10330 01a7 05       		.byte	0x5
 10331 01a8 9F03     		.uleb128 0x19f
 10332 01aa 152D0000 		.4byte	.LASF1537
 10333 01ae 05       		.byte	0x5
 10334 01af A003     		.uleb128 0x1a0
 10335 01b1 0C4F0000 		.4byte	.LASF1538
 10336 01b5 05       		.byte	0x5
 10337 01b6 A103     		.uleb128 0x1a1
 10338 01b8 113E0100 		.4byte	.LASF1539
 10339 01bc 05       		.byte	0x5
 10340 01bd A303     		.uleb128 0x1a3
 10341 01bf 906B0000 		.4byte	.LASF1540
 10342 01c3 05       		.byte	0x5
 10343 01c4 A403     		.uleb128 0x1a4
 10344 01c6 DDEC0000 		.4byte	.LASF1541
 10345 01ca 05       		.byte	0x5
 10346 01cb A503     		.uleb128 0x1a5
 10347 01cd 0A9B0000 		.4byte	.LASF1542
 10348 01d1 05       		.byte	0x5
 10349 01d2 A603     		.uleb128 0x1a6
 10350 01d4 CD950000 		.4byte	.LASF1543
 10351 01d8 05       		.byte	0x5
 10352 01d9 8F04     		.uleb128 0x20f
 10353 01db E5F00000 		.4byte	.LASF1544
 10354 01df 05       		.byte	0x5
 10355 01e0 9004     		.uleb128 0x210
 10356 01e2 F2080100 		.4byte	.LASF1545
 10357 01e6 05       		.byte	0x5
 10358 01e7 9104     		.uleb128 0x211
 10359 01e9 02460000 		.4byte	.LASF1546
 10360 01ed 05       		.byte	0x5
 10361 01ee 9204     		.uleb128 0x212
 10362 01f0 E19C0000 		.4byte	.LASF1547
 10363 01f4 05       		.byte	0x5
 10364 01f5 9304     		.uleb128 0x213
 10365 01f7 555D0000 		.4byte	.LASF1548
 10366 01fb 05       		.byte	0x5
 10367 01fc 9404     		.uleb128 0x214
 10368 01fe 34140100 		.4byte	.LASF1549
 10369 0202 05       		.byte	0x5
 10370 0203 9504     		.uleb128 0x215
 10371 0205 553A0100 		.4byte	.LASF1550
 10372 0209 05       		.byte	0x5
 10373 020a 9604     		.uleb128 0x216
ARM GAS  /tmp/ccKtbbXa.s 			page 183


 10374 020c 47E00000 		.4byte	.LASF1551
 10375 0210 05       		.byte	0x5
 10376 0211 9704     		.uleb128 0x217
 10377 0213 E21B0000 		.4byte	.LASF1552
 10378 0217 05       		.byte	0x5
 10379 0218 9804     		.uleb128 0x218
 10380 021a 98AC0000 		.4byte	.LASF1553
 10381 021e 05       		.byte	0x5
 10382 021f 9904     		.uleb128 0x219
 10383 0221 98270100 		.4byte	.LASF1554
 10384 0225 05       		.byte	0x5
 10385 0226 9A04     		.uleb128 0x21a
 10386 0228 76FD0000 		.4byte	.LASF1555
 10387 022c 05       		.byte	0x5
 10388 022d 9B04     		.uleb128 0x21b
 10389 022f E3D00000 		.4byte	.LASF1556
 10390 0233 05       		.byte	0x5
 10391 0234 9C04     		.uleb128 0x21c
 10392 0236 B2B80000 		.4byte	.LASF1557
 10393 023a 05       		.byte	0x5
 10394 023b 9D04     		.uleb128 0x21d
 10395 023d 728E0000 		.4byte	.LASF1558
 10396 0241 05       		.byte	0x5
 10397 0242 A604     		.uleb128 0x226
 10398 0244 3DEC0000 		.4byte	.LASF1559
 10399 0248 05       		.byte	0x5
 10400 0249 AC04     		.uleb128 0x22c
 10401 024b 41830000 		.4byte	.LASF1560
 10402 024f 05       		.byte	0x5
 10403 0250 AD04     		.uleb128 0x22d
 10404 0252 B8C40000 		.4byte	.LASF1561
 10405 0256 05       		.byte	0x5
 10406 0257 AF04     		.uleb128 0x22f
 10407 0259 663D0100 		.4byte	.LASF1562
 10408 025d 05       		.byte	0x5
 10409 025e B504     		.uleb128 0x235
 10410 0260 DE6D0000 		.4byte	.LASF1563
 10411 0264 05       		.byte	0x5
 10412 0265 C004     		.uleb128 0x240
 10413 0267 90F70000 		.4byte	.LASF1564
 10414 026b 05       		.byte	0x5
 10415 026c C204     		.uleb128 0x242
 10416 026e 4F070100 		.4byte	.LASF1565
 10417 0272 05       		.byte	0x5
 10418 0273 C804     		.uleb128 0x248
 10419 0275 370A0000 		.4byte	.LASF1566
 10420 0279 05       		.byte	0x5
 10421 027a D204     		.uleb128 0x252
 10422 027c F1870000 		.4byte	.LASF1567
 10423 0280 05       		.byte	0x5
 10424 0281 D504     		.uleb128 0x255
 10425 0283 940A0100 		.4byte	.LASF1568
 10426 0287 05       		.byte	0x5
 10427 0288 D604     		.uleb128 0x256
 10428 028a 043D0000 		.4byte	.LASF1569
 10429 028e 05       		.byte	0x5
 10430 028f D704     		.uleb128 0x257
ARM GAS  /tmp/ccKtbbXa.s 			page 184


 10431 0291 62EA0000 		.4byte	.LASF1570
 10432 0295 05       		.byte	0x5
 10433 0296 D804     		.uleb128 0x258
 10434 0298 32890000 		.4byte	.LASF1571
 10435 029c 00       		.byte	0
 10436              		.section	.debug_macro,"G",%progbits,wm4.pprz_geodetic_int.h.131.fe55107db2937b2451ed1b1fe994519e,c
 10437              	.Ldebug_macro36:
 10438 0000 0400     		.2byte	0x4
 10439 0002 00       		.byte	0
 10440 0003 05       		.byte	0x5
 10441 0004 8301     		.uleb128 0x83
 10442 0006 B53C0100 		.4byte	.LASF1572
 10443 000a 05       		.byte	0x5
 10444 000b 8401     		.uleb128 0x84
 10445 000d 30DE0000 		.4byte	.LASF1573
 10446 0011 05       		.byte	0x5
 10447 0012 8501     		.uleb128 0x85
 10448 0014 0B150100 		.4byte	.LASF1574
 10449 0018 05       		.byte	0x5
 10450 0019 8601     		.uleb128 0x86
 10451 001b 529C0000 		.4byte	.LASF1575
 10452 001f 05       		.byte	0x5
 10453 0020 8701     		.uleb128 0x87
 10454 0022 A42A0100 		.4byte	.LASF1576
 10455 0026 05       		.byte	0x5
 10456 0027 8801     		.uleb128 0x88
 10457 0029 FA2C0100 		.4byte	.LASF1577
 10458 002d 05       		.byte	0x5
 10459 002e 8901     		.uleb128 0x89
 10460 0030 EA540000 		.4byte	.LASF1578
 10461 0034 05       		.byte	0x5
 10462 0035 8A01     		.uleb128 0x8a
 10463 0037 D0730000 		.4byte	.LASF1579
 10464 003b 05       		.byte	0x5
 10465 003c 8B01     		.uleb128 0x8b
 10466 003e 05D70000 		.4byte	.LASF1580
 10467 0042 05       		.byte	0x5
 10468 0043 8C01     		.uleb128 0x8c
 10469 0045 331A0000 		.4byte	.LASF1581
 10470 0049 05       		.byte	0x5
 10471 004a 8E01     		.uleb128 0x8e
 10472 004c E9F30000 		.4byte	.LASF1582
 10473 0050 05       		.byte	0x5
 10474 0051 9001     		.uleb128 0x90
 10475 0053 D21E0100 		.4byte	.LASF1583
 10476 0057 05       		.byte	0x5
 10477 0058 9601     		.uleb128 0x96
 10478 005a 53180100 		.4byte	.LASF1584
 10479 005e 05       		.byte	0x5
 10480 005f 9701     		.uleb128 0x97
 10481 0061 63B60000 		.4byte	.LASF1585
 10482 0065 05       		.byte	0x5
 10483 0066 9801     		.uleb128 0x98
 10484 0068 EA2D0100 		.4byte	.LASF1586
 10485 006c 05       		.byte	0x5
 10486 006d 9A01     		.uleb128 0x9a
 10487 006f 5B7D0000 		.4byte	.LASF1587
ARM GAS  /tmp/ccKtbbXa.s 			page 185


 10488 0073 05       		.byte	0x5
 10489 0074 A001     		.uleb128 0xa0
 10490 0076 43580000 		.4byte	.LASF1588
 10491 007a 05       		.byte	0x5
 10492 007b A601     		.uleb128 0xa6
 10493 007d 8C970000 		.4byte	.LASF1589
 10494 0081 05       		.byte	0x5
 10495 0082 AC01     		.uleb128 0xac
 10496 0084 AF2F0100 		.4byte	.LASF1590
 10497 0088 05       		.byte	0x5
 10498 0089 AD01     		.uleb128 0xad
 10499 008b DB8C0000 		.4byte	.LASF1591
 10500 008f 05       		.byte	0x5
 10501 0090 AE01     		.uleb128 0xae
 10502 0092 F7200000 		.4byte	.LASF1592
 10503 0096 05       		.byte	0x5
 10504 0097 B001     		.uleb128 0xb0
 10505 0099 29650000 		.4byte	.LASF1593
 10506 009d 05       		.byte	0x5
 10507 009e B601     		.uleb128 0xb6
 10508 00a0 61B90000 		.4byte	.LASF1594
 10509 00a4 05       		.byte	0x5
 10510 00a5 BC01     		.uleb128 0xbc
 10511 00a7 46870000 		.4byte	.LASF1595
 10512 00ab 05       		.byte	0x5
 10513 00ac C101     		.uleb128 0xc1
 10514 00ae D8410000 		.4byte	.LASF1596
 10515 00b2 05       		.byte	0x5
 10516 00b3 C701     		.uleb128 0xc7
 10517 00b5 42D70000 		.4byte	.LASF1597
 10518 00b9 05       		.byte	0x5
 10519 00ba C901     		.uleb128 0xc9
 10520 00bc 5FDF0000 		.4byte	.LASF1598
 10521 00c0 05       		.byte	0x5
 10522 00c1 CF01     		.uleb128 0xcf
 10523 00c3 10DA0000 		.4byte	.LASF1599
 10524 00c7 05       		.byte	0x5
 10525 00c8 D101     		.uleb128 0xd1
 10526 00ca C0F40000 		.4byte	.LASF1600
 10527 00ce 05       		.byte	0x5
 10528 00cf D601     		.uleb128 0xd6
 10529 00d1 3DD20000 		.4byte	.LASF1601
 10530 00d5 05       		.byte	0x5
 10531 00d6 D801     		.uleb128 0xd8
 10532 00d8 28A50000 		.4byte	.LASF1602
 10533 00dc 05       		.byte	0x5
 10534 00dd E401     		.uleb128 0xe4
 10535 00df 26130000 		.4byte	.LASF1603
 10536 00e3 05       		.byte	0x5
 10537 00e4 F001     		.uleb128 0xf0
 10538 00e6 EBDB0000 		.4byte	.LASF1604
 10539 00ea 05       		.byte	0x5
 10540 00eb FC01     		.uleb128 0xfc
 10541 00ed 151C0100 		.4byte	.LASF1605
 10542 00f1 05       		.byte	0x5
 10543 00f2 8302     		.uleb128 0x103
 10544 00f4 985A0000 		.4byte	.LASF1606
ARM GAS  /tmp/ccKtbbXa.s 			page 186


 10545 00f8 05       		.byte	0x5
 10546 00f9 8A02     		.uleb128 0x10a
 10547 00fb DB050000 		.4byte	.LASF1607
 10548 00ff 00       		.byte	0
 10549              		.section	.debug_macro,"G",%progbits,wm4.pprz_algebra_float.h.99.3ecbbede49507432559ec22e1139225e,c
 10550              	.Ldebug_macro37:
 10551 0000 0400     		.2byte	0x4
 10552 0002 00       		.byte	0
 10553 0003 05       		.byte	0x5
 10554 0004 63       		.uleb128 0x63
 10555 0005 27970000 		.4byte	.LASF1610
 10556 0009 05       		.byte	0x5
 10557 000a 8101     		.uleb128 0x81
 10558 000c 53160000 		.4byte	.LASF1611
 10559 0010 05       		.byte	0x5
 10560 0011 8401     		.uleb128 0x84
 10561 0013 942C0000 		.4byte	.LASF1612
 10562 0017 05       		.byte	0x5
 10563 0018 9A01     		.uleb128 0x9a
 10564 001a 78000000 		.4byte	.LASF1613
 10565 001e 05       		.byte	0x5
 10566 001f A101     		.uleb128 0xa1
 10567 0021 3AB10000 		.4byte	.LASF1614
 10568 0025 05       		.byte	0x5
 10569 0026 A401     		.uleb128 0xa4
 10570 0028 DF140100 		.4byte	.LASF1615
 10571 002c 05       		.byte	0x5
 10572 002d BB01     		.uleb128 0xbb
 10573 002f 6E5C0000 		.4byte	.LASF1616
 10574 0033 05       		.byte	0x5
 10575 0034 BF01     		.uleb128 0xbf
 10576 0036 E9390000 		.4byte	.LASF1617
 10577 003a 05       		.byte	0x5
 10578 003b C301     		.uleb128 0xc3
 10579 003d A83F0000 		.4byte	.LASF1618
 10580 0041 05       		.byte	0x5
 10581 0042 C501     		.uleb128 0xc5
 10582 0044 88840000 		.4byte	.LASF1619
 10583 0048 05       		.byte	0x5
 10584 0049 D601     		.uleb128 0xd6
 10585 004b 503B0000 		.4byte	.LASF1620
 10586 004f 05       		.byte	0x5
 10587 0050 D701     		.uleb128 0xd7
 10588 0052 80270000 		.4byte	.LASF1621
 10589 0056 05       		.byte	0x5
 10590 0057 D801     		.uleb128 0xd8
 10591 0059 5E480000 		.4byte	.LASF1622
 10592 005d 05       		.byte	0x5
 10593 005e DE01     		.uleb128 0xde
 10594 0060 AC630000 		.4byte	.LASF1623
 10595 0064 05       		.byte	0x5
 10596 0065 EA01     		.uleb128 0xea
 10597 0067 6E4D0000 		.4byte	.LASF1624
 10598 006b 05       		.byte	0x5
 10599 006c CD02     		.uleb128 0x14d
 10600 006e DB830000 		.4byte	.LASF1625
 10601 0072 05       		.byte	0x5
ARM GAS  /tmp/ccKtbbXa.s 			page 187


 10602 0073 D502     		.uleb128 0x155
 10603 0075 06C20000 		.4byte	.LASF1626
 10604 0079 05       		.byte	0x5
 10605 007a D602     		.uleb128 0x156
 10606 007c 1E440000 		.4byte	.LASF1627
 10607 0080 05       		.byte	0x5
 10608 0081 D702     		.uleb128 0x157
 10609 0083 179E0000 		.4byte	.LASF1628
 10610 0087 05       		.byte	0x5
 10611 0088 D802     		.uleb128 0x158
 10612 008a 23240000 		.4byte	.LASF1629
 10613 008e 05       		.byte	0x5
 10614 008f D902     		.uleb128 0x159
 10615 0091 32A00000 		.4byte	.LASF1630
 10616 0095 05       		.byte	0x5
 10617 0096 DA02     		.uleb128 0x15a
 10618 0098 98250100 		.4byte	.LASF1631
 10619 009c 05       		.byte	0x5
 10620 009d DB02     		.uleb128 0x15b
 10621 009f 05E70000 		.4byte	.LASF1632
 10622 00a3 05       		.byte	0x5
 10623 00a4 DC02     		.uleb128 0x15c
 10624 00a6 F2350100 		.4byte	.LASF1633
 10625 00aa 05       		.byte	0x5
 10626 00ab DD02     		.uleb128 0x15d
 10627 00ad 98510000 		.4byte	.LASF1634
 10628 00b1 05       		.byte	0x5
 10629 00b2 DE02     		.uleb128 0x15e
 10630 00b4 D6240100 		.4byte	.LASF1635
 10631 00b8 05       		.byte	0x5
 10632 00b9 DF02     		.uleb128 0x15f
 10633 00bb AB360100 		.4byte	.LASF1636
 10634 00bf 05       		.byte	0x5
 10635 00c0 E002     		.uleb128 0x160
 10636 00c2 2A730000 		.4byte	.LASF1637
 10637 00c6 05       		.byte	0x5
 10638 00c7 E102     		.uleb128 0x161
 10639 00c9 4E180000 		.4byte	.LASF1638
 10640 00cd 05       		.byte	0x5
 10641 00ce E202     		.uleb128 0x162
 10642 00d0 26390000 		.4byte	.LASF1639
 10643 00d4 05       		.byte	0x5
 10644 00d5 F502     		.uleb128 0x175
 10645 00d7 49980000 		.4byte	.LASF1640
 10646 00db 05       		.byte	0x5
 10647 00dc 9303     		.uleb128 0x193
 10648 00de DE4A0000 		.4byte	.LASF1641
 10649 00e2 05       		.byte	0x5
 10650 00e3 E903     		.uleb128 0x1e9
 10651 00e5 6C520000 		.4byte	.LASF1642
 10652 00e9 05       		.byte	0x5
 10653 00ea EA03     		.uleb128 0x1ea
 10654 00ec 29880000 		.4byte	.LASF1643
 10655 00f0 05       		.byte	0x5
 10656 00f1 EB03     		.uleb128 0x1eb
 10657 00f3 6CB10000 		.4byte	.LASF1644
 10658 00f7 05       		.byte	0x5
ARM GAS  /tmp/ccKtbbXa.s 			page 188


 10659 00f8 EC03     		.uleb128 0x1ec
 10660 00fa C2A20000 		.4byte	.LASF1645
 10661 00fe 05       		.byte	0x5
 10662 00ff ED03     		.uleb128 0x1ed
 10663 0101 68010100 		.4byte	.LASF1646
 10664 0105 05       		.byte	0x5
 10665 0106 EE03     		.uleb128 0x1ee
 10666 0108 65760000 		.4byte	.LASF1647
 10667 010c 05       		.byte	0x5
 10668 010d EF03     		.uleb128 0x1ef
 10669 010f DEE80000 		.4byte	.LASF1648
 10670 0113 05       		.byte	0x5
 10671 0114 F003     		.uleb128 0x1f0
 10672 0116 E26C0000 		.4byte	.LASF1649
 10673 011a 05       		.byte	0x5
 10674 011b F103     		.uleb128 0x1f1
 10675 011d 4A820000 		.4byte	.LASF1650
 10676 0121 05       		.byte	0x5
 10677 0122 F203     		.uleb128 0x1f2
 10678 0124 23710000 		.4byte	.LASF1651
 10679 0128 05       		.byte	0x5
 10680 0129 F303     		.uleb128 0x1f3
 10681 012b 09C80000 		.4byte	.LASF1652
 10682 012f 05       		.byte	0x5
 10683 0130 F403     		.uleb128 0x1f4
 10684 0132 700F0000 		.4byte	.LASF1653
 10685 0136 05       		.byte	0x5
 10686 0137 F503     		.uleb128 0x1f5
 10687 0139 71D70000 		.4byte	.LASF1654
 10688 013d 05       		.byte	0x5
 10689 013e F603     		.uleb128 0x1f6
 10690 0140 A7360000 		.4byte	.LASF1655
 10691 0144 05       		.byte	0x5
 10692 0145 F703     		.uleb128 0x1f7
 10693 0147 B0070000 		.4byte	.LASF1656
 10694 014b 05       		.byte	0x5
 10695 014c F803     		.uleb128 0x1f8
 10696 014e 47340000 		.4byte	.LASF1657
 10697 0152 05       		.byte	0x5
 10698 0153 F903     		.uleb128 0x1f9
 10699 0155 83020000 		.4byte	.LASF1658
 10700 0159 05       		.byte	0x5
 10701 015a FA03     		.uleb128 0x1fa
 10702 015c 13EE0000 		.4byte	.LASF1659
 10703 0160 05       		.byte	0x5
 10704 0161 FB03     		.uleb128 0x1fb
 10705 0163 9E310000 		.4byte	.LASF1660
 10706 0167 05       		.byte	0x5
 10707 0168 FC03     		.uleb128 0x1fc
 10708 016a 876E0000 		.4byte	.LASF1661
 10709 016e 05       		.byte	0x5
 10710 016f FD03     		.uleb128 0x1fd
 10711 0171 BBA90000 		.4byte	.LASF1662
 10712 0175 05       		.byte	0x5
 10713 0176 8704     		.uleb128 0x207
 10714 0178 4B810000 		.4byte	.LASF1663
 10715 017c 05       		.byte	0x5
ARM GAS  /tmp/ccKtbbXa.s 			page 189


 10716 017d 9304     		.uleb128 0x213
 10717 017f AB850000 		.4byte	.LASF1664
 10718 0183 05       		.byte	0x5
 10719 0184 9404     		.uleb128 0x214
 10720 0186 4F260100 		.4byte	.LASF1665
 10721 018a 05       		.byte	0x5
 10722 018b 9504     		.uleb128 0x215
 10723 018d C1860000 		.4byte	.LASF1666
 10724 0191 05       		.byte	0x5
 10725 0192 FE04     		.uleb128 0x27e
 10726 0194 68740000 		.4byte	.LASF1667
 10727 0198 00       		.byte	0
 10728              		.section	.debug_macro,"G",%progbits,wm4.pprz_algebra_double.h.32.7f91f703899e017f221f03c67eb8c9df,
 10729              	.Ldebug_macro38:
 10730 0000 0400     		.2byte	0x4
 10731 0002 00       		.byte	0
 10732 0003 05       		.byte	0x5
 10733 0004 20       		.uleb128 0x20
 10734 0005 FF6F0000 		.4byte	.LASF1669
 10735 0009 05       		.byte	0x5
 10736 000a 5B       		.uleb128 0x5b
 10737 000b 32600000 		.4byte	.LASF1670
 10738 000f 05       		.byte	0x5
 10739 0010 5E       		.uleb128 0x5e
 10740 0011 DF3C0100 		.4byte	.LASF1671
 10741 0015 05       		.byte	0x5
 10742 0016 C901     		.uleb128 0xc9
 10743 0018 96470000 		.4byte	.LASF1672
 10744 001c 05       		.byte	0x5
 10745 001d CA01     		.uleb128 0xca
 10746 001f 7B3E0000 		.4byte	.LASF1673
 10747 0023 05       		.byte	0x5
 10748 0024 CB01     		.uleb128 0xcb
 10749 0026 8BDE0000 		.4byte	.LASF1674
 10750 002a 05       		.byte	0x5
 10751 002b CC01     		.uleb128 0xcc
 10752 002d 1C8F0000 		.4byte	.LASF1675
 10753 0031 05       		.byte	0x5
 10754 0032 CD01     		.uleb128 0xcd
 10755 0034 65BA0000 		.4byte	.LASF1676
 10756 0038 00       		.byte	0
 10757              		.section	.debug_macro,"G",%progbits,wm4.pprz_geodetic_utm.h.31.75931423081a7967d00585c8ad115843,co
 10758              	.Ldebug_macro39:
 10759 0000 0400     		.2byte	0x4
 10760 0002 00       		.byte	0
 10761 0003 05       		.byte	0x5
 10762 0004 1F       		.uleb128 0x1f
 10763 0005 0B510000 		.4byte	.LASF1677
 10764 0009 05       		.byte	0x5
 10765 000a 28       		.uleb128 0x28
 10766 000b 5C550000 		.4byte	.LASF1678
 10767 000f 05       		.byte	0x5
 10768 0010 29       		.uleb128 0x29
 10769 0011 93A80000 		.4byte	.LASF1679
 10770 0015 05       		.byte	0x5
 10771 0016 2A       		.uleb128 0x2a
 10772 0017 445C0000 		.4byte	.LASF1680
ARM GAS  /tmp/ccKtbbXa.s 			page 190


 10773 001b 05       		.byte	0x5
 10774 001c 2B       		.uleb128 0x2b
 10775 001d D1420000 		.4byte	.LASF1681
 10776 0021 05       		.byte	0x5
 10777 0022 2C       		.uleb128 0x2c
 10778 0023 37190100 		.4byte	.LASF1682
 10779 0027 05       		.byte	0x5
 10780 0028 2D       		.uleb128 0x2d
 10781 0029 66DB0000 		.4byte	.LASF1683
 10782 002d 05       		.byte	0x5
 10783 002e 2F       		.uleb128 0x2f
 10784 002f 44500000 		.4byte	.LASF1684
 10785 0033 05       		.byte	0x5
 10786 0034 30       		.uleb128 0x30
 10787 0035 ED730000 		.4byte	.LASF1685
 10788 0039 05       		.byte	0x5
 10789 003a 31       		.uleb128 0x31
 10790 003b A0D40000 		.4byte	.LASF1686
 10791 003f 00       		.byte	0
 10792              		.section	.debug_line,"",%progbits
 10793              	.Ldebug_line0:
 10794 0000 E2070000 		.section	.debug_str,"MS",%progbits,1
 10794      03002403 
 10794      00000201 
 10794      FB0E0D00 
 10794      01010101 
 10795              	.LASF878:
 10796 0000 50524964 		.ascii	"PRIdMAX __PRIMAX(d)\000"
 10796      4D415820 
 10796      5F5F5052 
 10796      494D4158 
 10796      28642900 
 10797              	.LASF302:
 10798 0014 5F5F4C41 		.ascii	"__LACCUM_EPSILON__ 0x1P-31LK\000"
 10798      4343554D 
 10798      5F455053 
 10798      494C4F4E 
 10798      5F5F2030 
 10799              	.LASF405:
 10800 0031 5F5F7468 		.ascii	"__thumb__ 1\000"
 10800      756D625F 
 10800      5F203100 
 10801              	.LASF741:
 10802 003d 55494E54 		.ascii	"UINT16_C(c) __UINT16_C(c)\000"
 10802      31365F43 
 10802      28632920 
 10802      5F5F5549 
 10802      4E543136 
 10803              	.LASF293:
 10804 0057 5F5F5541 		.ascii	"__UACCUM_FBIT__ 16\000"
 10804      4343554D 
 10804      5F464249 
 10804      545F5F20 
 10804      313600
 10805              	.LASF403:
 10806 006a 5F5F4150 		.ascii	"__APCS_32__ 1\000"
 10806      43535F33 
ARM GAS  /tmp/ccKtbbXa.s 			page 191


 10806      325F5F20 
 10806      3100
 10807              	.LASF1613:
 10808 0078 464C4F41 		.ascii	"FLOAT_VECT2_NORMALIZE(_v) float_vect2_normalize(&(_"
 10808      545F5645 
 10808      4354325F 
 10808      4E4F524D 
 10808      414C495A 
 10809 00ab 76292900 		.ascii	"v))\000"
 10810              	.LASF1181:
 10811 00af 4D415448 		.ascii	"MATH_ERREXCEPT 2\000"
 10811      5F455252 
 10811      45584345 
 10811      50542032 
 10811      00
 10812              	.LASF30:
 10813 00c0 5F5F464C 		.ascii	"__FLOAT_WORD_ORDER__ __ORDER_LITTLE_ENDIAN__\000"
 10813      4F41545F 
 10813      574F5244 
 10813      5F4F5244 
 10813      45525F5F 
 10814              	.LASF773:
 10815 00ed 5F5F5052 		.ascii	"__PRI8FAST(x) __FAST8 __STRINGIFY(x)\000"
 10815      49384641 
 10815      53542878 
 10815      29205F5F 
 10815      46415354 
 10816              	.LASF1466:
 10817 0112 616C6C6F 		.ascii	"alloca\000"
 10817      636100
 10818              	.LASF1530:
 10819 0119 494E5433 		.ascii	"INT32_VECT3_LSHIFT(_o,_i,_l) { (_o).x = ((_i).x << "
 10819      325F5645 
 10819      4354335F 
 10819      4C534849 
 10819      4654285F 
 10820 014c 285F6C29 		.ascii	"(_l)); (_o).y = ((_i).y << (_l)); (_o).z = ((_i).z "
 10820      293B2028 
 10820      5F6F292E 
 10820      79203D20 
 10820      28285F69 
 10821 017f 3C3C2028 		.ascii	"<< (_l)); }\000"
 10821      5F6C2929 
 10821      3B207D00 
 10822              	.LASF153:
 10823 018b 5F5F464C 		.ascii	"__FLT_NORM_MAX__ 3.4028234663852886e+38F\000"
 10823      545F4E4F 
 10823      524D5F4D 
 10823      41585F5F 
 10823      20332E34 
 10824              	.LASF1361:
 10825 01b4 56454354 		.ascii	"VECT3_ASSIGN_ABS(_a,_x,_y,_z) { (_a).x = ABS(_x); ("
 10825      335F4153 
 10825      5349474E 
 10825      5F414253 
 10825      285F612C 
 10826 01e7 5F61292E 		.ascii	"_a).y = ABS(_y); (_a).z = ABS(_z); }\000"
ARM GAS  /tmp/ccKtbbXa.s 			page 192


 10826      79203D20 
 10826      41425328 
 10826      5F79293B 
 10826      20285F61 
 10827              	.LASF1169:
 10828 020c 4E414E20 		.ascii	"NAN (__builtin_nanf(\"\"))\000"
 10828      285F5F62 
 10828      75696C74 
 10828      696E5F6E 
 10828      616E6628 
 10829              	.LASF692:
 10830 0225 55494E54 		.ascii	"UINT_FAST32_MAX\000"
 10830      5F464153 
 10830      5433325F 
 10830      4D415800 
 10831              	.LASF435:
 10832 0235 5F5F4152 		.ascii	"__ARM_FEATURE_MATMUL_INT8\000"
 10832      4D5F4645 
 10832      41545552 
 10832      455F4D41 
 10832      544D554C 
 10833              	.LASF1029:
 10834 024f 5F524545 		.ascii	"_REENT_L64A_BUF(ptr) ((ptr)->_new._reent._l64a_buf)"
 10834      4E545F4C 
 10834      3634415F 
 10834      42554628 
 10834      70747229 
 10835 0282 00       		.ascii	"\000"
 10836              	.LASF1658:
 10837 0283 464C4F41 		.ascii	"FLOAT_QUAT_DERIVATIVE_LAGRANGE(_qd,_r,_q) WARNING(\""
 10837      545F5155 
 10837      41545F44 
 10837      45524956 
 10837      41544956 
 10838 02b6 464C4F41 		.ascii	"FLOAT_QUAT_DERIVATIVE_LAGRANGE macro is deprecated,"
 10838      545F5155 
 10838      41545F44 
 10838      45524956 
 10838      41544956 
 10839 02e9 20757365 		.ascii	" use the lower case function instead\") float_quat_"
 10839      20746865 
 10839      206C6F77 
 10839      65722063 
 10839      61736520 
 10840 031b 64657269 		.ascii	"derivative_lagrange(&(_qd), &(_r), &(_q))\000"
 10840      76617469 
 10840      76655F6C 
 10840      61677261 
 10840      6E676528 
 10841              	.LASF193:
 10842 0345 5F5F464C 		.ascii	"__FLT32_DIG__ 6\000"
 10842      5433325F 
 10842      4449475F 
 10842      5F203600 
 10843              	.LASF171:
 10844 0355 5F5F4442 		.ascii	"__DBL_EPSILON__ ((double)2.2204460492503131e-16L)\000"
 10844      4C5F4550 
ARM GAS  /tmp/ccKtbbXa.s 			page 193


 10844      53494C4F 
 10844      4E5F5F20 
 10844      2828646F 
 10845              	.LASF230:
 10846 0387 5F5F464C 		.ascii	"__FLT32X_MAX__ 1.7976931348623157e+308F32x\000"
 10846      54333258 
 10846      5F4D4158 
 10846      5F5F2031 
 10846      2E373937 
 10847              	.LASF294:
 10848 03b2 5F5F5541 		.ascii	"__UACCUM_IBIT__ 16\000"
 10848      4343554D 
 10848      5F494249 
 10848      545F5F20 
 10848      313600
 10849              	.LASF703:
 10850 03c5 494E5450 		.ascii	"INTPTR_MIN (-INTPTR_MAX - 1)\000"
 10850      54525F4D 
 10850      494E2028 
 10850      2D494E54 
 10850      5054525F 
 10851              	.LASF575:
 10852 03e2 5F5F4D49 		.ascii	"__MISC_VISIBLE 1\000"
 10852      53435F56 
 10852      49534942 
 10852      4C452031 
 10852      00
 10853              	.LASF1413:
 10854 03f3 4D415433 		.ascii	"MAT33_TRANS(_mat1,_mat2) { MAT33_ELMT((_mat1),0,0) "
 10854      335F5452 
 10854      414E5328 
 10854      5F6D6174 
 10854      312C5F6D 
 10855 0426 3D204D41 		.ascii	"= MAT33_ELMT((_mat2),0,0); MAT33_ELMT((_mat1),0,1) "
 10855      5433335F 
 10855      454C4D54 
 10855      28285F6D 
 10855      61743229 
 10856 0459 3D204D41 		.ascii	"= MAT33_ELMT((_mat2),1,0); MAT33_ELMT((_mat1),0,2) "
 10856      5433335F 
 10856      454C4D54 
 10856      28285F6D 
 10856      61743229 
 10857 048c 3D204D41 		.ascii	"= MAT33_ELMT((_mat2),2,0); MAT33_ELMT((_mat1),1,0) "
 10857      5433335F 
 10857      454C4D54 
 10857      28285F6D 
 10857      61743229 
 10858 04bf 3D204D41 		.ascii	"= MAT33_ELMT((_mat2),0,1); MAT33_ELMT((_mat1),1,1) "
 10858      5433335F 
 10858      454C4D54 
 10858      28285F6D 
 10858      61743229 
 10859 04f2 3D204D41 		.ascii	"= MAT33_ELMT((_mat2),1,1); MAT33_ELMT((_mat1),1,2) "
 10859      5433335F 
 10859      454C4D54 
 10859      28285F6D 
ARM GAS  /tmp/ccKtbbXa.s 			page 194


 10859      61743229 
 10860 0525 3D204D41 		.ascii	"= MAT33_ELMT((_mat2),2,1); MAT33_ELMT((_mat1),2,0) "
 10860      5433335F 
 10860      454C4D54 
 10860      28285F6D 
 10860      61743229 
 10861 0558 3D204D41 		.ascii	"= MAT33_ELMT((_mat2),0,2); MAT33_ELMT((_mat1),2,1) "
 10861      5433335F 
 10861      454C4D54 
 10861      28285F6D 
 10861      61743229 
 10862 058b 3D204D41 		.ascii	"= MAT33_ELMT((_mat2),1,2); MAT33_ELMT((_mat1),2,2) "
 10862      5433335F 
 10862      454C4D54 
 10862      28285F6D 
 10862      61743229 
 10863 05be 3D204D41 		.ascii	"= MAT33_ELMT((_mat2),2,2); }\000"
 10863      5433335F 
 10863      454C4D54 
 10863      28285F6D 
 10863      61743229 
 10864              	.LASF1607:
 10865 05db 55544D5F 		.ascii	"UTM_BFP_OF_REAL(_o,_i) { (_o).east = (int32_t)CM_OF"
 10865      4246505F 
 10865      4F465F52 
 10865      45414C28 
 10865      5F6F2C5F 
 10866 060e 5F4D2828 		.ascii	"_M((_i).east); (_o).north = (int32_t)CM_OF_M((_i).n"
 10866      5F69292E 
 10866      65617374 
 10866      293B2028 
 10866      5F6F292E 
 10867 0641 6F727468 		.ascii	"orth); (_o).alt = (int32_t)MM_OF_M((_i).alt); (_o)."
 10867      293B2028 
 10867      5F6F292E 
 10867      616C7420 
 10867      3D202869 
 10868 0674 7A6F6E65 		.ascii	"zone = (_i).zone; }\000"
 10868      203D2028 
 10868      5F69292E 
 10868      7A6F6E65 
 10868      3B207D00 
 10869              	.LASF126:
 10870 0688 5F5F494E 		.ascii	"__INT_FAST16_MAX__ 0x7fffffff\000"
 10870      545F4641 
 10870      53543136 
 10870      5F4D4158 
 10870      5F5F2030 
 10871              	.LASF1240:
 10872 06a6 50545228 		.ascii	"PTR(_f) &_f\000"
 10872      5F662920 
 10872      265F6600 
 10873              	.LASF615:
 10874 06b2 5F5F4C45 		.ascii	"__LEAST16 \"h\"\000"
 10874      41535431 
 10874      36202268 
 10874      2200
ARM GAS  /tmp/ccKtbbXa.s 			page 195


 10875              	.LASF19:
 10876 06c0 5F5F5349 		.ascii	"__SIZEOF_SHORT__ 2\000"
 10876      5A454F46 
 10876      5F53484F 
 10876      52545F5F 
 10876      203200
 10877              	.LASF1719:
 10878 06d3 75746D5F 		.ascii	"utm_d\000"
 10878      6400
 10879              	.LASF1001:
 10880 06d9 5F524545 		.ascii	"_REENT_CHECK_RAND48(ptr) \000"
 10880      4E545F43 
 10880      4845434B 
 10880      5F52414E 
 10880      44343828 
 10881              	.LASF208:
 10882 06f3 5F5F464C 		.ascii	"__FLT64_MANT_DIG__ 53\000"
 10882      5436345F 
 10882      4D414E54 
 10882      5F444947 
 10882      5F5F2035 
 10883              	.LASF662:
 10884 0709 55494E54 		.ascii	"UINT_LEAST16_MAX\000"
 10884      5F4C4541 
 10884      53543136 
 10884      5F4D4158 
 10884      00
 10885              	.LASF657:
 10886 071a 55494E54 		.ascii	"UINT_LEAST8_MAX __UINT_LEAST8_MAX__\000"
 10886      5F4C4541 
 10886      5354385F 
 10886      4D415820 
 10886      5F5F5549 
 10887              	.LASF687:
 10888 073e 55494E54 		.ascii	"UINT_FAST16_MAX __UINT_FAST16_MAX__\000"
 10888      5F464153 
 10888      5431365F 
 10888      4D415820 
 10888      5F5F5549 
 10889              	.LASF93:
 10890 0762 5F5F5349 		.ascii	"__SIG_ATOMIC_MAX__ 0x7fffffff\000"
 10890      475F4154 
 10890      4F4D4943 
 10890      5F4D4158 
 10890      5F5F2030 
 10891              	.LASF946:
 10892 0780 5F57494E 		.ascii	"_WINT_T \000"
 10892      545F5420 
 10892      00
 10893              	.LASF661:
 10894 0789 494E545F 		.ascii	"INT_LEAST16_MIN (-INT_LEAST16_MAX - 1)\000"
 10894      4C454153 
 10894      5431365F 
 10894      4D494E20 
 10894      282D494E 
 10895              	.LASF1656:
 10896 07b0 464C4F41 		.ascii	"FLOAT_QUAT_VMULT(v_out,q,v_in) WARNING(\"FLOAT_QUAT"
ARM GAS  /tmp/ccKtbbXa.s 			page 196


 10896      545F5155 
 10896      41545F56 
 10896      4D554C54 
 10896      28765F6F 
 10897 07e2 5F564D55 		.ascii	"_VMULT macro is deprecated, use the lower case func"
 10897      4C54206D 
 10897      6163726F 
 10897      20697320 
 10897      64657072 
 10898 0815 74696F6E 		.ascii	"tion instead\") float_quat_vmult(&(v_out), &(q), &("
 10898      20696E73 
 10898      74656164 
 10898      22292066 
 10898      6C6F6174 
 10899 0847 765F696E 		.ascii	"v_in))\000"
 10899      292900
 10900              	.LASF1308:
 10901 084e 464C545F 		.ascii	"FLT_MIN_10_EXP __FLT_MIN_10_EXP__\000"
 10901      4D494E5F 
 10901      31305F45 
 10901      5850205F 
 10901      5F464C54 
 10902              	.LASF660:
 10903 0870 494E545F 		.ascii	"INT_LEAST16_MIN\000"
 10903      4C454153 
 10903      5431365F 
 10903      4D494E00 
 10904              	.LASF205:
 10905 0880 5F5F464C 		.ascii	"__FLT32_HAS_INFINITY__ 1\000"
 10905      5433325F 
 10905      4841535F 
 10905      494E4649 
 10905      4E495459 
 10906              	.LASF1167:
 10907 0899 48554745 		.ascii	"HUGE_VALL (__builtin_huge_vall())\000"
 10907      5F56414C 
 10907      4C20285F 
 10907      5F627569 
 10907      6C74696E 
 10908              	.LASF964:
 10909 08bb 5F434C4F 		.ascii	"_CLOCK_T_ unsigned long\000"
 10909      434B5F54 
 10909      5F20756E 
 10909      7369676E 
 10909      6564206C 
 10910              	.LASF1349:
 10911 08d3 56454354 		.ascii	"VECT2_ASSIGN(_a,_x,_y) { (_a).x = (_x); (_a).y = (_"
 10911      325F4153 
 10911      5349474E 
 10911      285F612C 
 10911      5F782C5F 
 10912 0906 79293B20 		.ascii	"y); }\000"
 10912      7D00
 10913              	.LASF951:
 10914 090c 5F5F6861 		.ascii	"__have_longlong64 1\000"
 10914      76655F6C 
 10914      6F6E676C 
ARM GAS  /tmp/ccKtbbXa.s 			page 197


 10914      6F6E6736 
 10914      34203100 
 10915              	.LASF77:
 10916 0920 5F5F5054 		.ascii	"__PTRDIFF_MAX__ 0x7fffffff\000"
 10916      52444946 
 10916      465F4D41 
 10916      585F5F20 
 10916      30783766 
 10917              	.LASF1748:
 10918 093b 656E755F 		.ascii	"enu_of_ecef_point_i\000"
 10918      6F665F65 
 10918      6365665F 
 10918      706F696E 
 10918      745F6900 
 10919              	.LASF649:
 10920 094f 494E5436 		.ascii	"INT64_MIN (-INT64_MAX - 1)\000"
 10920      345F4D49 
 10920      4E20282D 
 10920      494E5436 
 10920      345F4D41 
 10921              	.LASF1062:
 10922 096a 5F5F474E 		.ascii	"__GNUCLIKE_BUILTIN_CONSTANT_P 1\000"
 10922      55434C49 
 10922      4B455F42 
 10922      55494C54 
 10922      494E5F43 
 10923              	.LASF211:
 10924 098a 5F5F464C 		.ascii	"__FLT64_MIN_10_EXP__ (-307)\000"
 10924      5436345F 
 10924      4D494E5F 
 10924      31305F45 
 10924      58505F5F 
 10925              	.LASF1341:
 10926 09a6 464C545F 		.ascii	"FLT_ROUNDS\000"
 10926      524F554E 
 10926      445300
 10927              	.LASF1279:
 10928 09b1 554E5553 		.ascii	"UNUSED __attribute__((__unused__))\000"
 10928      4544205F 
 10928      5F617474 
 10928      72696275 
 10928      74655F5F 
 10929              	.LASF1273:
 10930 09d4 44656164 		.ascii	"DeadBand(_x,_v) { if (_x > (_v)) _x = _x -(_v); els"
 10930      42616E64 
 10930      285F782C 
 10930      5F762920 
 10930      7B206966 
 10931 0a07 65206966 		.ascii	"e if (_x < -(_v)) _x = _x +(_v); else _x = 0; }\000"
 10931      20285F78 
 10931      203C202D 
 10931      285F7629 
 10931      29205F78 
 10932              	.LASF1566:
 10933 0a37 494E545F 		.ascii	"INT_RATES_LSHIFT(_o,_i,_r) { (_o).p = ((_i).p << (_"
 10933      52415445 
 10933      535F4C53 
ARM GAS  /tmp/ccKtbbXa.s 			page 198


 10933      48494654 
 10933      285F6F2C 
 10934 0a6a 7229293B 		.ascii	"r)); (_o).q = ((_i).q << (_r)); (_o).r = ((_i).r <<"
 10934      20285F6F 
 10934      292E7120 
 10934      3D202828 
 10934      5F69292E 
 10935 0a9d 20285F72 		.ascii	" (_r)); }\000"
 10935      29293B20 
 10935      7D00
 10936              	.LASF698:
 10937 0aa7 55494E54 		.ascii	"UINT_FAST64_MAX\000"
 10937      5F464153 
 10937      5436345F 
 10937      4D415800 
 10938              	.LASF1388:
 10939 0ab7 45554C45 		.ascii	"EULERS_BOUND_CUBE(_v,_min,_max) { (_v).phi = (_v).p"
 10939      52535F42 
 10939      4F554E44 
 10939      5F435542 
 10939      45285F76 
 10940 0aea 6869203C 		.ascii	"hi < (_min) ? (_min) : (_v).phi > (_max) ? (_max) :"
 10940      20285F6D 
 10940      696E2920 
 10940      3F20285F 
 10940      6D696E29 
 10941 0b1d 20285F76 		.ascii	" (_v).phi; (_v).theta = (_v).theta < (_min) ? (_min"
 10941      292E7068 
 10941      693B2028 
 10941      5F76292E 
 10941      74686574 
 10942 0b50 29203A20 		.ascii	") : (_v).theta > (_max) ? (_max) : (_v).theta; (_v)"
 10942      285F7629 
 10942      2E746865 
 10942      7461203E 
 10942      20285F6D 
 10943 0b83 2E707369 		.ascii	".psi = (_v).psi < (_min) ? (_min) : (_v).psi > (_ma"
 10943      203D2028 
 10943      5F76292E 
 10943      70736920 
 10943      3C20285F 
 10944 0bb6 7829203F 		.ascii	"x) ? (_max) : (_v).psi; }\000"
 10944      20285F6D 
 10944      61782920 
 10944      3A20285F 
 10944      76292E70 
 10945              	.LASF1123:
 10946 0bd0 5F5F7072 		.ascii	"__printflike(fmtarg,firstvararg) __attribute__((__f"
 10946      696E7466 
 10946      6C696B65 
 10946      28666D74 
 10946      6172672C 
 10947 0c03 6F726D61 		.ascii	"ormat__ (__printf__, fmtarg, firstvararg)))\000"
 10947      745F5F20 
 10947      285F5F70 
 10947      72696E74 
 10947      665F5F2C 
ARM GAS  /tmp/ccKtbbXa.s 			page 199


 10948              	.LASF0:
 10949 0c2f 5F5F5354 		.ascii	"__STDC__ 1\000"
 10949      44435F5F 
 10949      203100
 10950              	.LASF1415:
 10951 0c3a 51554154 		.ascii	"QUAT_DIFF(_qc,_qa,_qb) { (_qc).qi = (_qa).qi - (_qb"
 10951      5F444946 
 10951      46285F71 
 10951      632C5F71 
 10951      612C5F71 
 10952 0c6d 292E7169 		.ascii	").qi; (_qc).qx = (_qa).qx - (_qb).qx; (_qc).qy = (_"
 10952      3B20285F 
 10952      7163292E 
 10952      7178203D 
 10952      20285F71 
 10953 0ca0 7161292E 		.ascii	"qa).qy - (_qb).qy; (_qc).qz = (_qa).qz - (_qb).qz; "
 10953      7179202D 
 10953      20285F71 
 10953      62292E71 
 10953      793B2028 
 10954 0cd3 7D00     		.ascii	"}\000"
 10955              	.LASF1373:
 10956 0cd5 56454354 		.ascii	"VECT3_EW_MUL(_vo,_va,_vb) { (_vo).x = (_va).x * (_v"
 10956      335F4557 
 10956      5F4D554C 
 10956      285F766F 
 10956      2C5F7661 
 10957 0d08 62292E78 		.ascii	"b).x; (_vo).y = (_va).y * (_vb).y; (_vo).z = (_va)."
 10957      3B20285F 
 10957      766F292E 
 10957      79203D20 
 10957      285F7661 
 10958 0d3b 7A202A20 		.ascii	"z * (_vb).z; }\000"
 10958      285F7662 
 10958      292E7A3B 
 10958      207D00
 10959              	.LASF1144:
 10960 0d4a 5F4E756C 		.ascii	"_Null_unspecified \000"
 10960      6C5F756E 
 10960      73706563 
 10960      69666965 
 10960      642000
 10961              	.LASF824:
 10962 0d5d 50524978 		.ascii	"PRIxFAST16 __PRI16FAST(x)\000"
 10962      46415354 
 10962      3136205F 
 10962      5F505249 
 10962      31364641 
 10963              	.LASF274:
 10964 0d77 5F5F554C 		.ascii	"__ULLFRACT_IBIT__ 0\000"
 10964      4C465241 
 10964      43545F49 
 10964      4249545F 
 10964      5F203000 
 10965              	.LASF586:
 10966 0d8b 5F524541 		.ascii	"_READ_WRITE_BUFSIZE_TYPE int\000"
 10966      445F5752 
ARM GAS  /tmp/ccKtbbXa.s 			page 200


 10966      4954455F 
 10966      42554653 
 10966      495A455F 
 10967              	.LASF29:
 10968 0da8 5F5F4259 		.ascii	"__BYTE_ORDER__ __ORDER_LITTLE_ENDIAN__\000"
 10968      54455F4F 
 10968      52444552 
 10968      5F5F205F 
 10968      5F4F5244 
 10969              	.LASF1293:
 10970 0dcf 464C545F 		.ascii	"FLT_DIG\000"
 10970      44494700 
 10971              	.LASF196:
 10972 0dd7 5F5F464C 		.ascii	"__FLT32_MAX_EXP__ 128\000"
 10972      5433325F 
 10972      4D41585F 
 10972      4558505F 
 10972      5F203132 
 10973              	.LASF340:
 10974 0ded 5F5F5341 		.ascii	"__SA_FBIT__ 15\000"
 10974      5F464249 
 10974      545F5F20 
 10974      313500
 10975              	.LASF1353:
 10976 0dfc 56454354 		.ascii	"VECT2_SUM(_c,_a,_b) { (_c).x = (_a).x + (_b).x; (_c"
 10976      325F5355 
 10976      4D285F63 
 10976      2C5F612C 
 10976      5F622920 
 10977 0e2f 292E7920 		.ascii	").y = (_a).y + (_b).y; }\000"
 10977      3D20285F 
 10977      61292E79 
 10977      202B2028 
 10977      5F62292E 
 10978              	.LASF311:
 10979 0e48 5F5F4C4C 		.ascii	"__LLACCUM_MAX__ 0X7FFFFFFFFFFFFFFFP-31LLK\000"
 10979      41434355 
 10979      4D5F4D41 
 10979      585F5F20 
 10979      30583746 
 10980              	.LASF350:
 10981 0e72 5F5F5544 		.ascii	"__UDA_FBIT__ 32\000"
 10981      415F4642 
 10981      49545F5F 
 10981      20333200 
 10982              	.LASF455:
 10983 0e82 43485F44 		.ascii	"CH_DBG_ENABLE_STACK_CHECK TRUE\000"
 10983      42475F45 
 10983      4E41424C 
 10983      455F5354 
 10983      41434B5F 
 10984              	.LASF290:
 10985 0ea1 5F5F4143 		.ascii	"__ACCUM_MIN__ (-0X1P15K-0X1P15K)\000"
 10985      43554D5F 
 10985      4D494E5F 
 10985      5F20282D 
 10985      30583150 
ARM GAS  /tmp/ccKtbbXa.s 			page 201


 10986              	.LASF523:
 10987 0ec2 5050525A 		.ascii	"PPRZ_GEODETIC_H \000"
 10987      5F47454F 
 10987      44455449 
 10987      435F4820 
 10987      00
 10988              	.LASF48:
 10989 0ed3 5F5F5549 		.ascii	"__UINT64_TYPE__ long long unsigned int\000"
 10989      4E543634 
 10989      5F545950 
 10989      455F5F20 
 10989      6C6F6E67 
 10990              	.LASF1389:
 10991 0efa 52415445 		.ascii	"RATES_ASSIGN(_ra,_p,_q,_r) { (_ra).p = (_p); (_ra)."
 10991      535F4153 
 10991      5349474E 
 10991      285F7261 
 10991      2C5F702C 
 10992 0f2d 71203D20 		.ascii	"q = (_q); (_ra).r = (_r); }\000"
 10992      285F7129 
 10992      3B20285F 
 10992      7261292E 
 10992      72203D20 
 10993              	.LASF166:
 10994 0f49 5F5F4442 		.ascii	"__DBL_MAX_10_EXP__ 308\000"
 10994      4C5F4D41 
 10994      585F3130 
 10994      5F455850 
 10994      5F5F2033 
 10995              	.LASF666:
 10996 0f60 494E545F 		.ascii	"INT_LEAST32_MIN\000"
 10996      4C454153 
 10996      5433325F 
 10996      4D494E00 
 10997              	.LASF1653:
 10998 0f70 464C4F41 		.ascii	"FLOAT_QUAT_INV_COMP_NORM_SHORTEST(_b2c,_a2b,_a2c) W"
 10998      545F5155 
 10998      41545F49 
 10998      4E565F43 
 10998      4F4D505F 
 10999 0fa3 41524E49 		.ascii	"ARNING(\"FLOAT_QUAT_INV_COMP_NORM_SHORTEST macro is"
 10999      4E472822 
 10999      464C4F41 
 10999      545F5155 
 10999      41545F49 
 11000 0fd5 20646570 		.ascii	" deprecated, use the lower case function instead\")"
 11000      72656361 
 11000      7465642C 
 11000      20757365 
 11000      20746865 
 11001 1007 20666C6F 		.ascii	" float_quat_inv_comp_norm_shortest(&(_b2c), &(_a2b)"
 11001      61745F71 
 11001      7561745F 
 11001      696E765F 
 11001      636F6D70 
 11002 103a 2C202628 		.ascii	", &(_a2c))\000"
 11002      5F613263 
ARM GAS  /tmp/ccKtbbXa.s 			page 202


 11002      292900
 11003              	.LASF1508:
 11004 1045 54524947 		.ascii	"TRIG_FLOAT_OF_BFP(_ti) FLOAT_OF_BFP((_ti),INT32_TRI"
 11004      5F464C4F 
 11004      41545F4F 
 11004      465F4246 
 11004      50285F74 
 11005 1078 475F4652 		.ascii	"G_FRAC)\000"
 11005      41432900 
 11006              	.LASF135:
 11007 1080 5F5F5549 		.ascii	"__UINT_FAST64_MAX__ 0xffffffffffffffffULL\000"
 11007      4E545F46 
 11007      41535436 
 11007      345F4D41 
 11007      585F5F20 
 11008              	.LASF1528:
 11009 10aa 494E5433 		.ascii	"INT32_VECT3_NORM(_v) int32_sqrt(VECT3_NORM2(_v))\000"
 11009      325F5645 
 11009      4354335F 
 11009      4E4F524D 
 11009      285F7629 
 11010              	.LASF429:
 11011 10db 5F5F4152 		.ascii	"__ARM_FEATURE_IDIV 1\000"
 11011      4D5F4645 
 11011      41545552 
 11011      455F4944 
 11011      49562031 
 11012              	.LASF34:
 11013 10f0 5F5F5743 		.ascii	"__WCHAR_TYPE__ unsigned int\000"
 11013      4841525F 
 11013      54595045 
 11013      5F5F2075 
 11013      6E736967 
 11014              	.LASF1058:
 11015 110c 5F5F474E 		.ascii	"__GNUCLIKE___TYPEOF 1\000"
 11015      55434C49 
 11015      4B455F5F 
 11015      5F545950 
 11015      454F4620 
 11016              	.LASF341:
 11017 1122 5F5F5341 		.ascii	"__SA_IBIT__ 16\000"
 11017      5F494249 
 11017      545F5F20 
 11017      313600
 11018              	.LASF1267:
 11019 1131 426F756E 		.ascii	"BoundInverted(_x,_min,_max) { if ((_x < (_min)) && "
 11019      64496E76 
 11019      65727465 
 11019      64285F78 
 11019      2C5F6D69 
 11020 1164 285F7820 		.ascii	"(_x > (_max))) { if (abs(_x - (_min)) < abs(_x - (_"
 11020      3E20285F 
 11020      6D617829 
 11020      2929207B 
 11020      20696620 
 11021 1197 6D617829 		.ascii	"max))) _x = (_min); else _x = (_max); } }\000"
 11021      2929205F 
ARM GAS  /tmp/ccKtbbXa.s 			page 203


 11021      78203D20 
 11021      285F6D69 
 11021      6E293B20 
 11022              	.LASF1198:
 11023 11c1 4D415846 		.ascii	"MAXFLOAT 3.40282347e+38F\000"
 11023      4C4F4154 
 11023      20332E34 
 11023      30323832 
 11023      33343765 
 11024              	.LASF351:
 11025 11da 5F5F5544 		.ascii	"__UDA_IBIT__ 32\000"
 11025      415F4942 
 11025      49545F5F 
 11025      20333200 
 11026              	.LASF1024:
 11027 11ea 5F524545 		.ascii	"_REENT_MBRLEN_STATE(ptr) ((ptr)->_new._reent._mbrle"
 11027      4E545F4D 
 11027      42524C45 
 11027      4E5F5354 
 11027      41544528 
 11028 121d 6E5F7374 		.ascii	"n_state)\000"
 11028      61746529 
 11028      00
 11029              	.LASF440:
 11030 1226 5F5F454C 		.ascii	"__ELF__ 1\000"
 11030      465F5F20 
 11030      3100
 11031              	.LASF17:
 11032 1230 5F5F5349 		.ascii	"__SIZEOF_LONG__ 4\000"
 11032      5A454F46 
 11032      5F4C4F4E 
 11032      475F5F20 
 11032      3400
 11033              	.LASF609:
 11034 1242 5F5F494E 		.ascii	"__INT64 \"ll\"\000"
 11034      54363420 
 11034      226C6C22 
 11034      00
 11035              	.LASF945:
 11036 124f 5F5F6E65 		.ascii	"__need_wint_t \000"
 11036      65645F77 
 11036      696E745F 
 11036      742000
 11037              	.LASF1740:
 11038 125e 746D7078 		.ascii	"tmpx\000"
 11038      00
 11039              	.LASF836:
 11040 1263 5F5F5343 		.ascii	"__SCN32FAST(x) __FAST32 __STRINGIFY(x)\000"
 11040      4E333246 
 11040      41535428 
 11040      7829205F 
 11040      5F464153 
 11041              	.LASF504:
 11042 128a 5553455F 		.ascii	"USE_ADC 1\000"
 11042      41444320 
 11042      3100
 11043              	.LASF1443:
ARM GAS  /tmp/ccKtbbXa.s 			page 204


 11044 1294 41434345 		.ascii	"ACCELS_BFP_OF_REAL(_ef,_ei) { (_ef).x = ACCEL_BFP_O"
 11044      4C535F42 
 11044      46505F4F 
 11044      465F5245 
 11044      414C285F 
 11045 12c7 465F5245 		.ascii	"F_REAL((_ei).x); (_ef).y = ACCEL_BFP_OF_REAL((_ei)."
 11045      414C2828 
 11045      5F656929 
 11045      2E78293B 
 11045      20285F65 
 11046 12fa 79293B20 		.ascii	"y); (_ef).z = ACCEL_BFP_OF_REAL((_ei).z); }\000"
 11046      285F6566 
 11046      292E7A20 
 11046      3D204143 
 11046      43454C5F 
 11047              	.LASF1603:
 11048 1326 48494748 		.ascii	"HIGH_RES_RMAT_FLOAT_OF_BFP(_ef,_ei) { (_ef).m[0] = "
 11048      5F524553 
 11048      5F524D41 
 11048      545F464C 
 11048      4F41545F 
 11049 1359 464C4F41 		.ascii	"FLOAT_OF_BFP((_ei).m[0], HIGH_RES_TRIG_FRAC); (_ef)"
 11049      545F4F46 
 11049      5F424650 
 11049      28285F65 
 11049      69292E6D 
 11050 138c 2E6D5B31 		.ascii	".m[1] = FLOAT_OF_BFP((_ei).m[1], HIGH_RES_TRIG_FRAC"
 11050      5D203D20 
 11050      464C4F41 
 11050      545F4F46 
 11050      5F424650 
 11051 13bf 293B2028 		.ascii	"); (_ef).m[2] = FLOAT_OF_BFP((_ei).m[2], HIGH_RES_T"
 11051      5F656629 
 11051      2E6D5B32 
 11051      5D203D20 
 11051      464C4F41 
 11052 13f2 5249475F 		.ascii	"RIG_FRAC); (_ef).m[3] = FLOAT_OF_BFP((_ei).m[3], HI"
 11052      46524143 
 11052      293B2028 
 11052      5F656629 
 11052      2E6D5B33 
 11053 1425 47485F52 		.ascii	"GH_RES_TRIG_FRAC); (_ef).m[4] = FLOAT_OF_BFP((_ei)."
 11053      45535F54 
 11053      5249475F 
 11053      46524143 
 11053      293B2028 
 11054 1458 6D5B345D 		.ascii	"m[4], HIGH_RES_TRIG_FRAC); (_ef).m[5] = FLOAT_OF_BF"
 11054      2C204849 
 11054      47485F52 
 11054      45535F54 
 11054      5249475F 
 11055 148b 5028285F 		.ascii	"P((_ei).m[5], HIGH_RES_TRIG_FRAC); (_ef).m[6] = FLO"
 11055      6569292E 
 11055      6D5B355D 
 11055      2C204849 
 11055      47485F52 
 11056 14be 41545F4F 		.ascii	"AT_OF_BFP((_ei).m[6], HIGH_RES_TRIG_FRAC); (_ef).m["
ARM GAS  /tmp/ccKtbbXa.s 			page 205


 11056      465F4246 
 11056      5028285F 
 11056      6569292E 
 11056      6D5B365D 
 11057 14f1 375D203D 		.ascii	"7] = FLOAT_OF_BFP((_ei).m[7], HIGH_RES_TRIG_FRAC); "
 11057      20464C4F 
 11057      41545F4F 
 11057      465F4246 
 11057      5028285F 
 11058 1524 285F6566 		.ascii	"(_ef).m[8] = FLOAT_OF_BFP((_ei).m[8], HIGH_RES_TRIG"
 11058      292E6D5B 
 11058      385D203D 
 11058      20464C4F 
 11058      41545F4F 
 11059 1557 5F465241 		.ascii	"_FRAC); }\000"
 11059      43293B20 
 11059      7D00
 11060              	.LASF545:
 11061 1561 5F4D425F 		.ascii	"_MB_LEN_MAX 1\000"
 11061      4C454E5F 
 11061      4D415820 
 11061      3100
 11062              	.LASF752:
 11063 156f 5F5F5743 		.ascii	"__WCHAR_T__ \000"
 11063      4841525F 
 11063      545F5F20 
 11063      00
 11064              	.LASF445:
 11065 157c 434F5254 		.ascii	"CORTEX_USE_FPU TRUE\000"
 11065      45585F55 
 11065      53455F46 
 11065      50552054 
 11065      52554500 
 11066              	.LASF1729:
 11067 1590 6E65645F 		.ascii	"ned_of_lla_pos_i\000"
 11067      6F665F6C 
 11067      6C615F70 
 11067      6F735F69 
 11067      00
 11068              	.LASF527:
 11069 15a1 4C4C415F 		.ascii	"LLA_COPY(_pos1,_pos2) { (_pos1).lat = (_pos2).lat; "
 11069      434F5059 
 11069      285F706F 
 11069      73312C5F 
 11069      706F7332 
 11070 15d4 285F706F 		.ascii	"(_pos1).lon = (_pos2).lon; (_pos1).alt = (_pos2).al"
 11070      7331292E 
 11070      6C6F6E20 
 11070      3D20285F 
 11070      706F7332 
 11071 1607 743B207D 		.ascii	"t; }\000"
 11071      00
 11072              	.LASF1294:
 11073 160c 44424C5F 		.ascii	"DBL_DIG\000"
 11073      44494700 
 11074              	.LASF1358:
 11075 1614 56454354 		.ascii	"VECT2_DOT_PRODUCT(_v1,_v2) ((_v1).x*(_v2).x + (_v1)"
ARM GAS  /tmp/ccKtbbXa.s 			page 206


 11075      325F444F 
 11075      545F5052 
 11075      4F445543 
 11075      54285F76 
 11076 1647 2E792A28 		.ascii	".y*(_v2).y)\000"
 11076      5F763229 
 11076      2E792900 
 11077              	.LASF1611:
 11078 1653 464C4F41 		.ascii	"FLOAT_VECT2_ZERO(_v) VECT2_ASSIGN(_v, 0., 0.)\000"
 11078      545F5645 
 11078      4354325F 
 11078      5A45524F 
 11078      285F7629 
 11079              	.LASF902:
 11080 1681 5F535444 		.ascii	"_STDBOOL_H \000"
 11080      424F4F4C 
 11080      5F482000 
 11081              	.LASF718:
 11082 168d 5349475F 		.ascii	"SIG_ATOMIC_MIN\000"
 11082      41544F4D 
 11082      49435F4D 
 11082      494E00
 11083              	.LASF80:
 11084 169c 5F5F5348 		.ascii	"__SHRT_WIDTH__ 16\000"
 11084      52545F57 
 11084      49445448 
 11084      5F5F2031 
 11084      3600
 11085              	.LASF1489:
 11086 16ae 494E5433 		.ascii	"INT32_ANGLE_PI_2 (int32_t)ANGLE_BFP_OF_REAL( 1.5707"
 11086      325F414E 
 11086      474C455F 
 11086      50495F32 
 11086      2028696E 
 11087 16e1 39363332 		.ascii	"963267948966192313216916397514)\000"
 11087      36373934 
 11087      38393636 
 11087      31393233 
 11087      31333231 
 11088              	.LASF1078:
 11089 1701 5F5F5028 		.ascii	"__P(protos) protos\000"
 11089      70726F74 
 11089      6F732920 
 11089      70726F74 
 11089      6F7300
 11090              	.LASF65:
 11091 1714 5F5F494E 		.ascii	"__INTPTR_TYPE__ int\000"
 11091      54505452 
 11091      5F545950 
 11091      455F5F20 
 11091      696E7400 
 11092              	.LASF324:
 11093 1728 5F5F4451 		.ascii	"__DQ_FBIT__ 63\000"
 11093      5F464249 
 11093      545F5F20 
 11093      363300
 11094              	.LASF297:
ARM GAS  /tmp/ccKtbbXa.s 			page 207


 11095 1737 5F5F5541 		.ascii	"__UACCUM_EPSILON__ 0x1P-16UK\000"
 11095      4343554D 
 11095      5F455053 
 11095      494C4F4E 
 11095      5F5F2030 
 11096              	.LASF127:
 11097 1754 5F5F494E 		.ascii	"__INT_FAST16_WIDTH__ 32\000"
 11097      545F4641 
 11097      53543136 
 11097      5F574944 
 11097      54485F5F 
 11098              	.LASF158:
 11099 176c 5F5F464C 		.ascii	"__FLT_HAS_INFINITY__ 1\000"
 11099      545F4841 
 11099      535F494E 
 11099      46494E49 
 11099      54595F5F 
 11100              	.LASF1535:
 11101 1783 494E5433 		.ascii	"INT32_RMAT_COMP_INV(_m_a2b,_m_a2c,_m_b2c) WARNING(\""
 11101      325F524D 
 11101      41545F43 
 11101      4F4D505F 
 11101      494E5628 
 11102 17b6 494E5433 		.ascii	"INT32_RMAT_COMP_INV macro is deprecated, use the lo"
 11102      325F524D 
 11102      41545F43 
 11102      4F4D505F 
 11102      494E5620 
 11103 17e9 77657220 		.ascii	"wer case function instead\") int32_rmat_comp_inv(&("
 11103      63617365 
 11103      2066756E 
 11103      6374696F 
 11103      6E20696E 
 11104 181b 5F6D5F61 		.ascii	"_m_a2b), &(_m_a2c), &(_m_b2c))\000"
 11104      3262292C 
 11104      2026285F 
 11104      6D5F6132 
 11104      63292C20 
 11105              	.LASF900:
 11106 183a 53434E75 		.ascii	"SCNuPTR __SCNPTR(u)\000"
 11106      50545220 
 11106      5F5F5343 
 11106      4E505452 
 11106      28752900 
 11107              	.LASF1638:
 11108 184e 464C4F41 		.ascii	"FLOAT_RMAT_OF_QUAT(_rm,_q) WARNING(\"FLOAT_RMAT_OF_"
 11108      545F524D 
 11108      41545F4F 
 11108      465F5155 
 11108      4154285F 
 11109 1880 51554154 		.ascii	"QUAT macro is deprecated, use the lower case functi"
 11109      206D6163 
 11109      726F2069 
 11109      73206465 
 11109      70726563 
 11110 18b3 6F6E2069 		.ascii	"on instead\") float_rmat_of_quat(&(_rm), &(_q))\000"
 11110      6E737465 
ARM GAS  /tmp/ccKtbbXa.s 			page 208


 11110      61642229 
 11110      20666C6F 
 11110      61745F72 
 11111              	.LASF1303:
 11112 18e2 44424C5F 		.ascii	"DBL_MIN_EXP __DBL_MIN_EXP__\000"
 11112      4D494E5F 
 11112      45585020 
 11112      5F5F4442 
 11112      4C5F4D49 
 11113              	.LASF859:
 11114 18fe 50524964 		.ascii	"PRIdFAST32 __PRI32FAST(d)\000"
 11114      46415354 
 11114      3332205F 
 11114      5F505249 
 11114      33324641 
 11115              	.LASF1165:
 11116 1918 48554745 		.ascii	"HUGE_VAL (__builtin_huge_val())\000"
 11116      5F56414C 
 11116      20285F5F 
 11116      6275696C 
 11116      74696E5F 
 11117              	.LASF695:
 11118 1938 494E545F 		.ascii	"INT_FAST64_MAX __INT_FAST64_MAX__\000"
 11118      46415354 
 11118      36345F4D 
 11118      4158205F 
 11118      5F494E54 
 11119              	.LASF507:
 11120 195a 5553455F 		.ascii	"USE_BAROMETER TRUE\000"
 11120      4241524F 
 11120      4D455445 
 11120      52205452 
 11120      554500
 11121              	.LASF1260:
 11122 196d 4D696E28 		.ascii	"Min(x,y) (x < y ? x : y)\000"
 11122      782C7929 
 11122      20287820 
 11122      3C207920 
 11122      3F207820 
 11123              	.LASF1298:
 11124 1986 4C44424C 		.ascii	"LDBL_DIG __LDBL_DIG__\000"
 11124      5F444947 
 11124      205F5F4C 
 11124      44424C5F 
 11124      4449475F 
 11125              	.LASF1484:
 11126 199c 494E5433 		.ascii	"INT32_PERCENTAGE_FRAC 10\000"
 11126      325F5045 
 11126      5243454E 
 11126      54414745 
 11126      5F465241 
 11127              	.LASF805:
 11128 19b5 53434E69 		.ascii	"SCNi16 __SCN16(i)\000"
 11128      3136205F 
 11128      5F53434E 
 11128      31362869 
 11128      2900
ARM GAS  /tmp/ccKtbbXa.s 			page 209


 11129              	.LASF1506:
 11130 19c7 51554154 		.ascii	"QUAT1_FLOAT_OF_BFP(_qi) FLOAT_OF_BFP((_qi), INT32_Q"
 11130      315F464C 
 11130      4F41545F 
 11130      4F465F42 
 11130      4650285F 
 11131 19fa 5541545F 		.ascii	"UAT_FRAC)\000"
 11131      46524143 
 11131      2900
 11132              	.LASF1115:
 11133 1a04 5F5F7072 		.ascii	"__predict_true(exp) __builtin_expect((exp), 1)\000"
 11133      65646963 
 11133      745F7472 
 11133      75652865 
 11133      78702920 
 11134              	.LASF1581:
 11135 1a33 5241445F 		.ascii	"RAD_OF_EM7DEG(_r) (RadOfDeg(_r)/1e7)\000"
 11135      4F465F45 
 11135      4D374445 
 11135      47285F72 
 11135      29202852 
 11136              	.LASF810:
 11137 1a58 50524969 		.ascii	"PRIiLEAST16 __PRI16LEAST(i)\000"
 11137      4C454153 
 11137      54313620 
 11137      5F5F5052 
 11137      4931364C 
 11138              	.LASF1728:
 11139 1a74 656E755F 		.ascii	"enu_of_lla_vect_i\000"
 11139      6F665F6C 
 11139      6C615F76 
 11139      6563745F 
 11139      6900
 11140              	.LASF1717:
 11141 1a86 73657269 		.ascii	"serie_coeff_proj_mercator\000"
 11141      655F636F 
 11141      6566665F 
 11141      70726F6A 
 11141      5F6D6572 
 11142              	.LASF1092:
 11143 1aa0 5F5F616C 		.ascii	"__aligned(x) __attribute__((__aligned__(x)))\000"
 11143      69676E65 
 11143      64287829 
 11143      205F5F61 
 11143      74747269 
 11144              	.LASF1531:
 11145 1acd 494E5433 		.ascii	"INT32_MAT33_ZERO(_m) { MAT33_ELMT((_m), 0, 0) = 0; "
 11145      325F4D41 
 11145      5433335F 
 11145      5A45524F 
 11145      285F6D29 
 11146 1b00 4D415433 		.ascii	"MAT33_ELMT((_m), 0, 1) = 0; MAT33_ELMT((_m), 0, 2) "
 11146      335F454C 
 11146      4D542828 
 11146      5F6D292C 
 11146      20302C20 
 11147 1b33 3D20303B 		.ascii	"= 0; MAT33_ELMT((_m), 1, 0) = 0; MAT33_ELMT((_m), 1"
ARM GAS  /tmp/ccKtbbXa.s 			page 210


 11147      204D4154 
 11147      33335F45 
 11147      4C4D5428 
 11147      285F6D29 
 11148 1b66 2C203129 		.ascii	", 1) = 0; MAT33_ELMT((_m), 1, 2) = 0; MAT33_ELMT((_"
 11148      203D2030 
 11148      3B204D41 
 11148      5433335F 
 11148      454C4D54 
 11149 1b99 6D292C20 		.ascii	"m), 2, 0) = 0; MAT33_ELMT((_m), 2, 1) = 0; MAT33_EL"
 11149      322C2030 
 11149      29203D20 
 11149      303B204D 
 11149      41543333 
 11150 1bcc 4D542828 		.ascii	"MT((_m), 2, 2) = 0; }\000"
 11150      5F6D292C 
 11150      20322C20 
 11150      3229203D 
 11150      20303B20 
 11151              	.LASF1552:
 11152 1be2 494E5433 		.ascii	"INT32_QUAT_INV_COMP_NORM_SHORTEST(_b2c,_a2b,_a2c) W"
 11152      325F5155 
 11152      41545F49 
 11152      4E565F43 
 11152      4F4D505F 
 11153 1c15 41524E49 		.ascii	"ARNING(\"INT32_QUAT_INV_COMP_NORM_SHORTEST macro is"
 11153      4E472822 
 11153      494E5433 
 11153      325F5155 
 11153      41545F49 
 11154 1c47 20646570 		.ascii	" deprecated, use the lower case function instead\")"
 11154      72656361 
 11154      7465642C 
 11154      20757365 
 11154      20746865 
 11155 1c79 20696E74 		.ascii	" int32_quat_inv_comp_norm_shortest(&(_b2c), &(_a2b)"
 11155      33325F71 
 11155      7561745F 
 11155      696E765F 
 11155      636F6D70 
 11156 1cac 2C202628 		.ascii	", &(_a2c))\000"
 11156      5F613263 
 11156      292900
 11157              	.LASF207:
 11158 1cb7 5F5F4650 		.ascii	"__FP_FAST_FMAF32 1\000"
 11158      5F464153 
 11158      545F464D 
 11158      41463332 
 11158      203100
 11159              	.LASF1367:
 11160 1cca 56454354 		.ascii	"VECT3_SUM_SCALED(_c,_a,_b,_s) { (_c).x = (_a).x + ("
 11160      335F5355 
 11160      4D5F5343 
 11160      414C4544 
 11160      285F632C 
 11161 1cfd 5F73292A 		.ascii	"_s)*(_b).x; (_c).y = (_a).y + (_s)*(_b).y; (_c).z ="
 11161      285F6229 
ARM GAS  /tmp/ccKtbbXa.s 			page 211


 11161      2E783B20 
 11161      285F6329 
 11161      2E79203D 
 11162 1d30 20285F61 		.ascii	" (_a).z + (_s)*(_b).z; }\000"
 11162      292E7A20 
 11162      2B20285F 
 11162      73292A28 
 11162      5F62292E 
 11163              	.LASF1393:
 11164 1d49 52415445 		.ascii	"RATES_SUM(_c,_a,_b) { (_c).p = (_a).p + (_b).p; (_c"
 11164      535F5355 
 11164      4D285F63 
 11164      2C5F612C 
 11164      5F622920 
 11165 1d7c 292E7120 		.ascii	").q = (_a).q + (_b).q; (_c).r = (_a).r + (_b).r; }\000"
 11165      3D20285F 
 11165      61292E71 
 11165      202B2028 
 11165      5F62292E 
 11166              	.LASF913:
 11167 1daf 5F545F50 		.ascii	"_T_PTRDIFF_ \000"
 11167      54524449 
 11167      46465F20 
 11167      00
 11168              	.LASF1178:
 11169 1dbc 46505F49 		.ascii	"FP_ILOGB0 (-__INT_MAX__)\000"
 11169      4C4F4742 
 11169      3020282D 
 11169      5F5F494E 
 11169      545F4D41 
 11170              	.LASF1333:
 11171 1dd5 44424C5F 		.ascii	"DBL_EPSILON __DBL_EPSILON__\000"
 11171      45505349 
 11171      4C4F4E20 
 11171      5F5F4442 
 11171      4C5F4550 
 11172              	.LASF1463:
 11173 1df1 5F535444 		.ascii	"_STDLIB_H_ \000"
 11173      4C49425F 
 11173      485F2000 
 11174              	.LASF1207:
 11175 1dfd 4D5F315F 		.ascii	"M_1_PI 0.31830988618379067154\000"
 11175      50492030 
 11175      2E333138 
 11175      33303938 
 11175      38363138 
 11176              	.LASF1050:
 11177 1e1b 5F5F756E 		.ascii	"__unbounded \000"
 11177      626F756E 
 11177      64656420 
 11177      00
 11178              	.LASF109:
 11179 1e28 5F5F494E 		.ascii	"__INT_LEAST16_WIDTH__ 16\000"
 11179      545F4C45 
 11179      41535431 
 11179      365F5749 
 11179      4454485F 
ARM GAS  /tmp/ccKtbbXa.s 			page 212


 11180              	.LASF245:
 11181 1e41 5F5F5553 		.ascii	"__USFRACT_MIN__ 0.0UHR\000"
 11181      46524143 
 11181      545F4D49 
 11181      4E5F5F20 
 11181      302E3055 
 11182              	.LASF551:
 11183 1e58 5F465657 		.ascii	"_FVWRITE_IN_STREAMIO 1\000"
 11183      52495445 
 11183      5F494E5F 
 11183      53545245 
 11183      414D494F 
 11184              	.LASF543:
 11185 1e6f 5F57414E 		.ascii	"_WANT_REGISTER_FINI 1\000"
 11185      545F5245 
 11185      47495354 
 11185      45525F46 
 11185      494E4920 
 11186              	.LASF51:
 11187 1e85 5F5F494E 		.ascii	"__INT_LEAST32_TYPE__ long int\000"
 11187      545F4C45 
 11187      41535433 
 11187      325F5459 
 11187      50455F5F 
 11188              	.LASF1472:
 11189 1ea3 4D425F43 		.ascii	"MB_CUR_MAX __locale_mb_cur_max()\000"
 11189      55525F4D 
 11189      4158205F 
 11189      5F6C6F63 
 11189      616C655F 
 11190              	.LASF174:
 11191 1ec4 5F5F4442 		.ascii	"__DBL_HAS_INFINITY__ 1\000"
 11191      4C5F4841 
 11191      535F494E 
 11191      46494E49 
 11191      54595F5F 
 11192              	.LASF1436:
 11193 1edb 52415445 		.ascii	"RATES_FLOAT_OF_BFP(_rf,_ri) { (_rf).p = RATE_FLOAT_"
 11193      535F464C 
 11193      4F41545F 
 11193      4F465F42 
 11193      4650285F 
 11194 1f0e 4F465F42 		.ascii	"OF_BFP((_ri).p); (_rf).q = RATE_FLOAT_OF_BFP((_ri)."
 11194      46502828 
 11194      5F726929 
 11194      2E70293B 
 11194      20285F72 
 11195 1f41 71293B20 		.ascii	"q); (_rf).r = RATE_FLOAT_OF_BFP((_ri).r); }\000"
 11195      285F7266 
 11195      292E7220 
 11195      3D205241 
 11195      54455F46 
 11196              	.LASF1174:
 11197 1f6d 46505F49 		.ascii	"FP_INFINITE 1\000"
 11197      4E46494E 
 11197      49544520 
 11197      3100
ARM GAS  /tmp/ccKtbbXa.s 			page 213


 11198              	.LASF1442:
 11199 1f7b 41434345 		.ascii	"ACCELS_FLOAT_OF_BFP(_ef,_ei) { (_ef).x = ACCEL_FLOA"
 11199      4C535F46 
 11199      4C4F4154 
 11199      5F4F465F 
 11199      42465028 
 11200 1fae 545F4F46 		.ascii	"T_OF_BFP((_ei).x); (_ef).y = ACCEL_FLOAT_OF_BFP((_e"
 11200      5F424650 
 11200      28285F65 
 11200      69292E78 
 11200      293B2028 
 11201 1fe1 69292E79 		.ascii	"i).y); (_ef).z = ACCEL_FLOAT_OF_BFP((_ei).z); }\000"
 11201      293B2028 
 11201      5F656629 
 11201      2E7A203D 
 11201      20414343 
 11202              	.LASF1161:
 11203 2011 5F5F6E6F 		.ascii	"__no_lock_analysis __lock_annotate(no_thread_safety"
 11203      5F6C6F63 
 11203      6B5F616E 
 11203      616C7973 
 11203      6973205F 
 11204 2044 5F616E61 		.ascii	"_analysis)\000"
 11204      6C797369 
 11204      732900
 11205              	.LASF69:
 11206 204f 5F5F5348 		.ascii	"__SHRT_MAX__ 0x7fff\000"
 11206      52545F4D 
 11206      41585F5F 
 11206      20307837 
 11206      66666600 
 11207              	.LASF1447:
 11208 2063 5050525A 		.ascii	"PPRZ_TRIG_CONST \000"
 11208      5F545249 
 11208      475F434F 
 11208      4E535420 
 11208      00
 11209              	.LASF709:
 11210 2074 494E544D 		.ascii	"INTMAX_MIN (-INTMAX_MAX - 1)\000"
 11210      41585F4D 
 11210      494E2028 
 11210      2D494E54 
 11210      4D41585F 
 11211              	.LASF460:
 11212 2091 4354524C 		.ascii	"CTRL_TYPE_H \"firmwares/fixedwing/guidance/guidance"
 11212      5F545950 
 11212      455F4820 
 11212      22666972 
 11212      6D776172 
 11213 20c3 5F762E68 		.ascii	"_v.h\"\000"
 11213      2200
 11214              	.LASF107:
 11215 20c9 5F5F494E 		.ascii	"__INT_LEAST16_MAX__ 0x7fff\000"
 11215      545F4C45 
 11215      41535431 
 11215      365F4D41 
 11215      585F5F20 
ARM GAS  /tmp/ccKtbbXa.s 			page 214


 11216              	.LASF13:
 11217 20e4 5F5F4154 		.ascii	"__ATOMIC_ACQ_REL 4\000"
 11217      4F4D4943 
 11217      5F414351 
 11217      5F52454C 
 11217      203400
 11218              	.LASF1592:
 11219 20f7 45434546 		.ascii	"ECEF_DOUBLE_OF_BFP(_o,_i) VECT3_DOUBLE_OF_CM(_o, _i"
 11219      5F444F55 
 11219      424C455F 
 11219      4F465F42 
 11219      4650285F 
 11220 212a 2900     		.ascii	")\000"
 11221              	.LASF1019:
 11222 212c 5F524545 		.ascii	"_REENT_EMERGENCY(ptr) ((ptr)->_emergency)\000"
 11222      4E545F45 
 11222      4D455247 
 11222      454E4359 
 11222      28707472 
 11223              	.LASF1302:
 11224 2156 464C545F 		.ascii	"FLT_MIN_EXP __FLT_MIN_EXP__\000"
 11224      4D494E5F 
 11224      45585020 
 11224      5F5F464C 
 11224      545F4D49 
 11225              	.LASF1028:
 11226 2172 5F524545 		.ascii	"_REENT_WCSRTOMBS_STATE(ptr) ((ptr)->_new._reent._wc"
 11226      4E545F57 
 11226      43535254 
 11226      4F4D4253 
 11226      5F535441 
 11227 21a5 7372746F 		.ascii	"srtombs_state)\000"
 11227      6D62735F 
 11227      73746174 
 11227      652900
 11228              	.LASF1755:
 11229 21b4 73696E5F 		.ascii	"sin_lon\000"
 11229      6C6F6E00 
 11230              	.LASF1256:
 11231 21bc 4D4F6643 		.ascii	"MOfCm(_x) (((float)(_x))/100.)\000"
 11231      6D285F78 
 11231      29202828 
 11231      28666C6F 
 11231      61742928 
 11232              	.LASF1110:
 11233 21db 5F5F6661 		.ascii	"__fastcall __attribute__((__fastcall__))\000"
 11233      73746361 
 11233      6C6C205F 
 11233      5F617474 
 11233      72696275 
 11234              	.LASF1232:
 11235 2204 494E464F 		.ascii	"INFO(x) DO_PRAGMA(message (\"Info: \" x))\000"
 11235      28782920 
 11235      444F5F50 
 11235      5241474D 
 11235      41286D65 
 11236              	.LASF776:
ARM GAS  /tmp/ccKtbbXa.s 			page 215


 11237 222c 5052496F 		.ascii	"PRIo8 __PRI8(o)\000"
 11237      38205F5F 
 11237      50524938 
 11237      286F2900 
 11238              	.LASF1709:
 11239 223c 7A6F6E65 		.ascii	"zone\000"
 11239      00
 11240              	.LASF625:
 11241 2241 5F4E4F49 		.ascii	"_NOINLINE __attribute__ ((__noinline__))\000"
 11241      4E4C494E 
 11241      45205F5F 
 11241      61747472 
 11241      69627574 
 11242              	.LASF710:
 11243 226a 55494E54 		.ascii	"UINTMAX_MAX\000"
 11243      4D41585F 
 11243      4D415800 
 11244              	.LASF130:
 11245 2276 5F5F494E 		.ascii	"__INT_FAST64_MAX__ 0x7fffffffffffffffLL\000"
 11245      545F4641 
 11245      53543634 
 11245      5F4D4158 
 11245      5F5F2030 
 11246              	.LASF310:
 11247 229e 5F5F4C4C 		.ascii	"__LLACCUM_MIN__ (-0X1P31LLK-0X1P31LLK)\000"
 11247      41434355 
 11247      4D5F4D49 
 11247      4E5F5F20 
 11247      282D3058 
 11248              	.LASF363:
 11249 22c5 5F5F4743 		.ascii	"__GCC_ATOMIC_CHAR_LOCK_FREE 2\000"
 11249      435F4154 
 11249      4F4D4943 
 11249      5F434841 
 11249      525F4C4F 
 11250              	.LASF62:
 11251 22e3 5F5F5549 		.ascii	"__UINT_FAST16_TYPE__ unsigned int\000"
 11251      4E545F46 
 11251      41535431 
 11251      365F5459 
 11251      50455F5F 
 11252              	.LASF907:
 11253 2305 5F4D4154 		.ascii	"_MATH_H_ \000"
 11253      485F485F 
 11253      2000
 11254              	.LASF103:
 11255 230f 5F5F5549 		.ascii	"__UINT64_MAX__ 0xffffffffffffffffULL\000"
 11255      4E543634 
 11255      5F4D4158 
 11255      5F5F2030 
 11255      78666666 
 11256              	.LASF16:
 11257 2334 5F5F5349 		.ascii	"__SIZEOF_INT__ 4\000"
 11257      5A454F46 
 11257      5F494E54 
 11257      5F5F2034 
 11257      00
ARM GAS  /tmp/ccKtbbXa.s 			page 216


 11258              	.LASF1193:
 11259 2345 69736C65 		.ascii	"islessgreater(__x,__y) (__builtin_islessgreater (__"
 11259      73736772 
 11259      65617465 
 11259      72285F5F 
 11259      782C5F5F 
 11260 2378 782C205F 		.ascii	"x, __y))\000"
 11260      5F792929 
 11260      00
 11261              	.LASF888:
 11262 2381 53434E78 		.ascii	"SCNxMAX __SCNMAX(x)\000"
 11262      4D415820 
 11262      5F5F5343 
 11262      4E4D4158 
 11262      28782900 
 11263              	.LASF228:
 11264 2395 5F5F464C 		.ascii	"__FLT32X_MAX_10_EXP__ 308\000"
 11264      54333258 
 11264      5F4D4158 
 11264      5F31305F 
 11264      4558505F 
 11265              	.LASF594:
 11266 23af 5F5F696E 		.ascii	"__int20__\000"
 11266      7432305F 
 11266      5F00
 11267              	.LASF84:
 11268 23b9 5F5F5743 		.ascii	"__WCHAR_WIDTH__ 32\000"
 11268      4841525F 
 11268      57494454 
 11268      485F5F20 
 11268      333200
 11269              	.LASF40:
 11270 23cc 5F5F5349 		.ascii	"__SIG_ATOMIC_TYPE__ int\000"
 11270      475F4154 
 11270      4F4D4943 
 11270      5F545950 
 11270      455F5F20 
 11271              	.LASF933:
 11272 23e4 5F425344 		.ascii	"_BSD_SIZE_T_DEFINED_ \000"
 11272      5F53495A 
 11272      455F545F 
 11272      44454649 
 11272      4E45445F 
 11273              	.LASF1061:
 11274 23fa 5F5F474E 		.ascii	"__GNUCLIKE_CTOR_SECTION_HANDLING 1\000"
 11274      55434C49 
 11274      4B455F43 
 11274      544F525F 
 11274      53454354 
 11275              	.LASF592:
 11276 241d 73686F72 		.ascii	"short\000"
 11276      7400
 11277              	.LASF1629:
 11278 2423 464C4F41 		.ascii	"FLOAT_RMAT_COMP_INV(_m_a2b,_m_a2c,_m_b2c) WARNING(\""
 11278      545F524D 
 11278      41545F43 
 11278      4F4D505F 
ARM GAS  /tmp/ccKtbbXa.s 			page 217


 11278      494E5628 
 11279 2456 464C4F41 		.ascii	"FLOAT_RMAT_COMP_INV macro is deprecated, use the lo"
 11279      545F524D 
 11279      41545F43 
 11279      4F4D505F 
 11279      494E5620 
 11280 2489 77657220 		.ascii	"wer case function instead\") float_rmat_comp_inv(&("
 11280      63617365 
 11280      2066756E 
 11280      6374696F 
 11280      6E20696E 
 11281 24bb 5F6D5F61 		.ascii	"_m_a2b), &(_m_a2c), &(_m_b2c))\000"
 11281      3262292C 
 11281      2026285F 
 11281      6D5F6132 
 11281      63292C20 
 11282              	.LASF1392:
 11283 24da 52415445 		.ascii	"RATES_SUB(_a,_b) { (_a).p -= (_b).p; (_a).q -= (_b)"
 11283      535F5355 
 11283      42285F61 
 11283      2C5F6229 
 11283      207B2028 
 11284 250d 2E713B20 		.ascii	".q; (_a).r -= (_b).r; }\000"
 11284      285F6129 
 11284      2E72202D 
 11284      3D20285F 
 11284      62292E72 
 11285              	.LASF1197:
 11286 2525 5F5F7369 		.ascii	"__signgam_r(ptr) _REENT_SIGNGAM(ptr)\000"
 11286      676E6761 
 11286      6D5F7228 
 11286      70747229 
 11286      205F5245 
 11287              	.LASF797:
 11288 254a 5F5F5343 		.ascii	"__SCN16FAST(x) __FAST16 __STRINGIFY(x)\000"
 11288      4E313646 
 11288      41535428 
 11288      7829205F 
 11288      5F464153 
 11289              	.LASF119:
 11290 2571 5F5F5549 		.ascii	"__UINT16_C(c) c\000"
 11290      4E543136 
 11290      5F432863 
 11290      29206300 
 11291              	.LASF375:
 11292 2581 5F5F5052 		.ascii	"__PRAGMA_REDEFINE_EXTNAME 1\000"
 11292      41474D41 
 11292      5F524544 
 11292      4546494E 
 11292      455F4558 
 11293              	.LASF52:
 11294 259d 5F5F494E 		.ascii	"__INT_LEAST64_TYPE__ long long int\000"
 11294      545F4C45 
 11294      41535436 
 11294      345F5459 
 11294      50455F5F 
 11295              	.LASF1690:
ARM GAS  /tmp/ccKtbbXa.s 			page 218


 11296 25c0 696E7433 		.ascii	"int32_t\000"
 11296      325F7400 
 11297              	.LASF1097:
 11298 25c8 5F416C69 		.ascii	"_Alignas(x) __aligned(x)\000"
 11298      676E6173 
 11298      28782920 
 11298      5F5F616C 
 11298      69676E65 
 11299              	.LASF1488:
 11300 25e1 494E5433 		.ascii	"INT32_ANGLE_PI_4 (int32_t)ANGLE_BFP_OF_REAL( 0.7853"
 11300      325F414E 
 11300      474C455F 
 11300      50495F34 
 11300      2028696E 
 11301 2614 39383136 		.ascii	"981633974483096156608458198757)\000"
 11301      33333937 
 11301      34343833 
 11301      30393631 
 11301      35363630 
 11302              	.LASF1376:
 11303 2634 56454354 		.ascii	"VECT3_ABS(_vo,_vi) { (_vo).x = ABS((_vi).x); (_vo)."
 11303      335F4142 
 11303      53285F76 
 11303      6F2C5F76 
 11303      6929207B 
 11304 2667 79203D20 		.ascii	"y = ABS((_vi).y); (_vo).z = ABS((_vi).z); }\000"
 11304      41425328 
 11304      285F7669 
 11304      292E7929 
 11304      3B20285F 
 11305              	.LASF1730:
 11306 2693 656E755F 		.ascii	"enu_of_lla_pos_i\000"
 11306      6F665F6C 
 11306      6C615F70 
 11306      6F735F69 
 11306      00
 11307              	.LASF977:
 11308 26a4 5F5F6C6F 		.ascii	"__lock_acquire(lock) ((void) 0)\000"
 11308      636B5F61 
 11308      63717569 
 11308      7265286C 
 11308      6F636B29 
 11309              	.LASF1132:
 11310 26c4 5F5F7379 		.ascii	"__sym_compat(sym,impl,verid) __asm__(\".symver \" #"
 11310      6D5F636F 
 11310      6D706174 
 11310      2873796D 
 11310      2C696D70 
 11311 26f5 696D706C 		.ascii	"impl \", \" #sym \"@\" #verid)\000"
 11311      20222C20 
 11311      22202373 
 11311      796D2022 
 11311      40222023 
 11312              	.LASF736:
 11313 2710 494E5436 		.ascii	"INT64_C\000"
 11313      345F4300 
 11314              	.LASF1160:
ARM GAS  /tmp/ccKtbbXa.s 			page 219


 11315 2718 5F5F7265 		.ascii	"__requires_unlocked(...) __lock_annotate(locks_excl"
 11315      71756972 
 11315      65735F75 
 11315      6E6C6F63 
 11315      6B656428 
 11316 274b 75646564 		.ascii	"uded(__VA_ARGS__))\000"
 11316      285F5F56 
 11316      415F4152 
 11316      47535F5F 
 11316      292900
 11317              	.LASF870:
 11318 275e 5F5F5052 		.ascii	"__PRI64(x) __INT64 __STRINGIFY(x)\000"
 11318      49363428 
 11318      7829205F 
 11318      5F494E54 
 11318      3634205F 
 11319              	.LASF1621:
 11320 2780 464C4F41 		.ascii	"FLOAT_RATES_INTEGRATE_FI(_ra,_racc,_dt) WARNING(\"F"
 11320      545F5241 
 11320      5445535F 
 11320      494E5445 
 11320      47524154 
 11321 27b2 4C4F4154 		.ascii	"LOAT_RATES_INTEGRATE_FI macro is deprecated, use th"
 11321      5F524154 
 11321      45535F49 
 11321      4E544547 
 11321      52415445 
 11322 27e5 65206C6F 		.ascii	"e lower case function instead\") float_rates_integr"
 11322      77657220 
 11322      63617365 
 11322      2066756E 
 11322      6374696F 
 11323 2817 6174655F 		.ascii	"ate_fi(&(_ra), &(_racc), _dt)\000"
 11323      66692826 
 11323      285F7261 
 11323      292C2026 
 11323      285F7261 
 11324              	.LASF1321:
 11325 2835 44424C5F 		.ascii	"DBL_MAX_10_EXP __DBL_MAX_10_EXP__\000"
 11325      4D41585F 
 11325      31305F45 
 11325      5850205F 
 11325      5F44424C 
 11326              	.LASF1378:
 11327 2857 56454354 		.ascii	"VECT3_DOT_PRODUCT(_v1,_v2) ((_v1).x*(_v2).x + (_v1)"
 11327      335F444F 
 11327      545F5052 
 11327      4F445543 
 11327      54285F76 
 11328 288a 2E792A28 		.ascii	".y*(_v2).y + (_v1).z*(_v2).z)\000"
 11328      5F763229 
 11328      2E79202B 
 11328      20285F76 
 11328      31292E7A 
 11329              	.LASF373:
 11330 28a8 5F5F4841 		.ascii	"__HAVE_SPECULATION_SAFE_VALUE 1\000"
 11330      56455F53 
ARM GAS  /tmp/ccKtbbXa.s 			page 220


 11330      50454355 
 11330      4C415449 
 11330      4F4E5F53 
 11331              	.LASF1249:
 11332 28c8 4E6F726D 		.ascii	"NormCourseRad(x) { while (x < 0) x += 2*M_PI; while"
 11332      436F7572 
 11332      73655261 
 11332      64287829 
 11332      207B2077 
 11333 28fb 20287820 		.ascii	" (x >= 2*M_PI) x -= 2*M_PI; }\000"
 11333      3E3D2032 
 11333      2A4D5F50 
 11333      49292078 
 11333      202D3D20 
 11334              	.LASF499:
 11335 2919 54454D4F 		.ascii	"TEMOD_I2C_DEV i2c1\000"
 11335      445F4932 
 11335      435F4445 
 11335      56206932 
 11335      633100
 11336              	.LASF864:
 11337 292c 50524958 		.ascii	"PRIXFAST32 __PRI32FAST(X)\000"
 11337      46415354 
 11337      3332205F 
 11337      5F505249 
 11337      33324641 
 11338              	.LASF1004:
 11339 2946 5F524545 		.ascii	"_REENT_CHECK_ASCTIME_BUF(ptr) \000"
 11339      4E545F43 
 11339      4845434B 
 11339      5F415343 
 11339      54494D45 
 11340              	.LASF749:
 11341 2965 55494E54 		.ascii	"UINTMAX_C(c) __UINTMAX_C(c)\000"
 11341      4D41585F 
 11341      43286329 
 11341      205F5F55 
 11341      494E544D 
 11342              	.LASF1278:
 11343 2981 50657269 		.ascii	"PeriodicPrescaleBy10(_code_0,_code_1,_code_2,_code_"
 11343      6F646963 
 11343      50726573 
 11343      63616C65 
 11343      42793130 
 11344 29b4 332C5F63 		.ascii	"3,_code_4,_code_5,_code_6,_code_7,_code_8,_code_9) "
 11344      6F64655F 
 11344      342C5F63 
 11344      6F64655F 
 11344      352C5F63 
 11345 29e7 7B207374 		.ascii	"{ static uint8_t _cnt = 0; _cnt++; if (_cnt >= 10) "
 11345      61746963 
 11345      2075696E 
 11345      74385F74 
 11345      205F636E 
 11346 2a1a 5F636E74 		.ascii	"_cnt = 0; switch (_cnt) { case 0: _code_0; break; c"
 11346      203D2030 
 11346      3B207377 
ARM GAS  /tmp/ccKtbbXa.s 			page 221


 11346      69746368 
 11346      20285F63 
 11347 2a4d 61736520 		.ascii	"ase 1: _code_1; break; case 2: _code_2; break; case"
 11347      313A205F 
 11347      636F6465 
 11347      5F313B20 
 11347      62726561 
 11348 2a80 20333A20 		.ascii	" 3: _code_3; break; case 4: _code_4; break; case 5:"
 11348      5F636F64 
 11348      655F333B 
 11348      20627265 
 11348      616B3B20 
 11349 2ab3 205F636F 		.ascii	" _code_5; break; case 6: _code_6; break; case 7: _c"
 11349      64655F35 
 11349      3B206272 
 11349      65616B3B 
 11349      20636173 
 11350 2ae6 6F64655F 		.ascii	"ode_7; break; case 8: _code_8; break; case 9: defau"
 11350      373B2062 
 11350      7265616B 
 11350      3B206361 
 11350      73652038 
 11351 2b19 6C743A20 		.ascii	"lt: _code_9; break; } }\000"
 11351      5F636F64 
 11351      655F393B 
 11351      20627265 
 11351      616B3B20 
 11352              	.LASF183:
 11353 2b31 5F5F4C44 		.ascii	"__LDBL_DECIMAL_DIG__ 17\000"
 11353      424C5F44 
 11353      4543494D 
 11353      414C5F44 
 11353      49475F5F 
 11354              	.LASF1396:
 11355 2b49 52415445 		.ascii	"RATES_SMUL(_ro,_ri,_s) { (_ro).p = (_ri).p * (_s); "
 11355      535F534D 
 11355      554C285F 
 11355      726F2C5F 
 11355      72692C5F 
 11356 2b7c 285F726F 		.ascii	"(_ro).q = (_ri).q * (_s); (_ro).r = (_ri).r * (_s);"
 11356      292E7120 
 11356      3D20285F 
 11356      7269292E 
 11356      71202A20 
 11357 2baf 207D00   		.ascii	" }\000"
 11358              	.LASF234:
 11359 2bb2 5F5F464C 		.ascii	"__FLT32X_DENORM_MIN__ 4.9406564584124654e-324F32x\000"
 11359      54333258 
 11359      5F44454E 
 11359      4F524D5F 
 11359      4D494E5F 
 11360              	.LASF472:
 11361 2be4 4750535F 		.ascii	"GPS_UBX_NAV5_DYNAMICS NAV5_DYN_AIRBORNE_2G\000"
 11361      5542585F 
 11361      4E415635 
 11361      5F44594E 
 11361      414D4943 
ARM GAS  /tmp/ccKtbbXa.s 			page 222


 11362              	.LASF903:
 11363 2c0f 626F6F6C 		.ascii	"bool _Bool\000"
 11363      205F426F 
 11363      6F6C00
 11364              	.LASF1283:
 11365 2c1a 5050525A 		.ascii	"PPRZ_ALGEBRA_H \000"
 11365      5F414C47 
 11365      45425241 
 11365      5F482000 
 11366              	.LASF518:
 11367 2c2a 57494E44 		.ascii	"WIND_INFO 1\000"
 11367      5F494E46 
 11367      4F203100 
 11368              	.LASF845:
 11369 2c36 53434E6F 		.ascii	"SCNo32 __SCN32(o)\000"
 11369      3332205F 
 11369      5F53434E 
 11369      3332286F 
 11369      2900
 11370              	.LASF25:
 11371 2c48 5F5F4249 		.ascii	"__BIGGEST_ALIGNMENT__ 8\000"
 11371      47474553 
 11371      545F414C 
 11371      49474E4D 
 11371      454E545F 
 11372              	.LASF401:
 11373 2c60 5F5F4152 		.ascii	"__ARM_ARCH\000"
 11373      4D5F4152 
 11373      434800
 11374              	.LASF45:
 11375 2c6b 5F5F5549 		.ascii	"__UINT8_TYPE__ unsigned char\000"
 11375      4E54385F 
 11375      54595045 
 11375      5F5F2075 
 11375      6E736967 
 11376              	.LASF517:
 11377 2c88 5553455F 		.ascii	"USE_UART4 1\000"
 11377      55415254 
 11377      34203100 
 11378              	.LASF1612:
 11379 2c94 464C4F41 		.ascii	"FLOAT_VECT2_NORM(_v) sqrtf(VECT2_NORM2(_v))\000"
 11379      545F5645 
 11379      4354325F 
 11379      4E4F524D 
 11379      285F7629 
 11380              	.LASF1021:
 11381 2cc0 5F524545 		.ascii	"_REENT_MBLEN_STATE(ptr) ((ptr)->_new._reent._mblen_"
 11381      4E545F4D 
 11381      424C454E 
 11381      5F535441 
 11381      54452870 
 11382 2cf3 73746174 		.ascii	"state)\000"
 11382      652900
 11383              	.LASF195:
 11384 2cfa 5F5F464C 		.ascii	"__FLT32_MIN_10_EXP__ (-37)\000"
 11384      5433325F 
 11384      4D494E5F 
ARM GAS  /tmp/ccKtbbXa.s 			page 223


 11384      31305F45 
 11384      58505F5F 
 11385              	.LASF1537:
 11386 2d15 494E5433 		.ascii	"INT32_RMAT_TRANSP_VMULT(_vb,_m_b2a,_va) WARNING(\"I"
 11386      325F524D 
 11386      41545F54 
 11386      52414E53 
 11386      505F564D 
 11387 2d47 4E543332 		.ascii	"NT32_RMAT_TRANSP_VMULT macro is deprecated, use the"
 11387      5F524D41 
 11387      545F5452 
 11387      414E5350 
 11387      5F564D55 
 11388 2d7a 206C6F77 		.ascii	" lower case function instead\") int32_rmat_transp_v"
 11388      65722063 
 11388      61736520 
 11388      66756E63 
 11388      74696F6E 
 11389 2dac 6D756C74 		.ascii	"mult(&(_vb), &(_m_b2a), &(_va))\000"
 11389      2826285F 
 11389      7662292C 
 11389      2026285F 
 11389      6D5F6232 
 11390              	.LASF316:
 11391 2dcc 5F5F554C 		.ascii	"__ULLACCUM_MAX__ 0XFFFFFFFFFFFFFFFFP-32ULLK\000"
 11391      4C414343 
 11391      554D5F4D 
 11391      41585F5F 
 11391      20305846 
 11392              	.LASF314:
 11393 2df8 5F5F554C 		.ascii	"__ULLACCUM_IBIT__ 32\000"
 11393      4C414343 
 11393      554D5F49 
 11393      4249545F 
 11393      5F203332 
 11394              	.LASF3:
 11395 2e0d 5F5F5354 		.ascii	"__STDC_UTF_32__ 1\000"
 11395      44435F55 
 11395      54465F33 
 11395      325F5F20 
 11395      3100
 11396              	.LASF1516:
 11397 2e1f 4D41475F 		.ascii	"MAG_FLOAT_OF_BFP(_ai) FLOAT_OF_BFP((_ai), INT32_MAG"
 11397      464C4F41 
 11397      545F4F46 
 11397      5F424650 
 11397      285F6169 
 11398 2e52 5F465241 		.ascii	"_FRAC)\000"
 11398      432900
 11399              	.LASF1365:
 11400 2e59 56454354 		.ascii	"VECT3_SUM(_c,_a,_b) { (_c).x = (_a).x + (_b).x; (_c"
 11400      335F5355 
 11400      4D285F63 
 11400      2C5F612C 
 11400      5F622920 
 11401 2e8c 292E7920 		.ascii	").y = (_a).y + (_b).y; (_c).z = (_a).z + (_b).z; }\000"
 11401      3D20285F 
ARM GAS  /tmp/ccKtbbXa.s 			page 224


 11401      61292E79 
 11401      202B2028 
 11401      5F62292E 
 11402              	.LASF1744:
 11403 2ebf 656E755F 		.ascii	"enu_of_ecef_vect_i\000"
 11403      6F665F65 
 11403      6365665F 
 11403      76656374 
 11403      5F6900
 11404              	.LASF972:
 11405 2ed2 5F5F4C4F 		.ascii	"__LOCK_INIT_RECURSIVE(class,lock) static int lock ="
 11405      434B5F49 
 11405      4E49545F 
 11405      52454355 
 11405      52534956 
 11406 2f05 20303B00 		.ascii	" 0;\000"
 11407              	.LASF830:
 11408 2f09 53434E78 		.ascii	"SCNxFAST16 __SCN16FAST(x)\000"
 11408      46415354 
 11408      3136205F 
 11408      5F53434E 
 11408      31364641 
 11409              	.LASF1366:
 11410 2f23 56454354 		.ascii	"VECT3_ADD_SCALED(_a,_b,_s) { (_a).x += ((_b).x * (_"
 11410      335F4144 
 11410      445F5343 
 11410      414C4544 
 11410      285F612C 
 11411 2f56 7329293B 		.ascii	"s)); (_a).y += ((_b).y * (_s)); (_a).z += ((_b).z *"
 11411      20285F61 
 11411      292E7920 
 11411      2B3D2028 
 11411      285F6229 
 11412 2f89 20285F73 		.ascii	" (_s)); }\000"
 11412      29293B20 
 11412      7D00
 11413              	.LASF1191:
 11414 2f93 69736C65 		.ascii	"isless(__x,__y) (__builtin_isless (__x, __y))\000"
 11414      7373285F 
 11414      5F782C5F 
 11414      5F792920 
 11414      285F5F62 
 11415              	.LASF509:
 11416 2fc1 5553455F 		.ascii	"USE_GPS 1\000"
 11416      47505320 
 11416      3100
 11417              	.LASF410:
 11418 2fcb 5F5F4152 		.ascii	"__ARMEL__ 1\000"
 11418      4D454C5F 
 11418      5F203100 
 11419              	.LASF899:
 11420 2fd7 53434E6F 		.ascii	"SCNoPTR __SCNPTR(o)\000"
 11420      50545220 
 11420      5F5F5343 
 11420      4E505452 
 11420      286F2900 
 11421              	.LASF1738:
ARM GAS  /tmp/ccKtbbXa.s 			page 225


 11422 2feb 65636566 		.ascii	"ecef_of_ned_vect_i\000"
 11422      5F6F665F 
 11422      6E65645F 
 11422      76656374 
 11422      5F6900
 11423              	.LASF1500:
 11424 2ffe 444F5542 		.ascii	"DOUBLE_OF_BFP(_vbfp,_frac) ((double)(_vbfp)/(1<<(_f"
 11424      4C455F4F 
 11424      465F4246 
 11424      50285F76 
 11424      6266702C 
 11425 3031 72616329 		.ascii	"rac)))\000"
 11425      292900
 11426              	.LASF279:
 11427 3038 5F5F5341 		.ascii	"__SACCUM_IBIT__ 8\000"
 11427      4343554D 
 11427      5F494249 
 11427      545F5F20 
 11427      3800
 11428              	.LASF618:
 11429 304a 5F414E53 		.ascii	"_ANSIDECL_H_ \000"
 11429      49444543 
 11429      4C5F485F 
 11429      2000
 11430              	.LASF46:
 11431 3058 5F5F5549 		.ascii	"__UINT16_TYPE__ short unsigned int\000"
 11431      4E543136 
 11431      5F545950 
 11431      455F5F20 
 11431      73686F72 
 11432              	.LASF961:
 11433 307b 5F5F4558 		.ascii	"__EXP\000"
 11433      5000
 11434              	.LASF1435:
 11435 3081 51554154 		.ascii	"QUAT_BFP_OF_REAL(_qi,_qf) { (_qi).qi = QUAT1_BFP_OF"
 11435      5F424650 
 11435      5F4F465F 
 11435      5245414C 
 11435      285F7169 
 11436 30b4 5F524541 		.ascii	"_REAL((_qf).qi); (_qi).qx = QUAT1_BFP_OF_REAL((_qf)"
 11436      4C28285F 
 11436      7166292E 
 11436      7169293B 
 11436      20285F71 
 11437 30e7 2E717829 		.ascii	".qx); (_qi).qy = QUAT1_BFP_OF_REAL((_qf).qy); (_qi)"
 11437      3B20285F 
 11437      7169292E 
 11437      7179203D 
 11437      20515541 
 11438 311a 2E717A20 		.ascii	".qz = QUAT1_BFP_OF_REAL((_qf).qz); }\000"
 11438      3D205155 
 11438      4154315F 
 11438      4246505F 
 11438      4F465F52 
 11439              	.LASF1751:
 11440 313f 6C74705F 		.ascii	"ltp_def_from_ecef_i\000"
 11440      6465665F 
ARM GAS  /tmp/ccKtbbXa.s 			page 226


 11440      66726F6D 
 11440      5F656365 
 11440      665F6900 
 11441              	.LASF1482:
 11442 3153 494E5433 		.ascii	"INT32_ACCEL_FRAC 10\000"
 11442      325F4143 
 11442      43454C5F 
 11442      46524143 
 11442      20313000 
 11443              	.LASF926:
 11444 3167 5F545F53 		.ascii	"_T_SIZE_ \000"
 11444      495A455F 
 11444      2000
 11445              	.LASF200:
 11446 3171 5F5F464C 		.ascii	"__FLT32_NORM_MAX__ 3.4028234663852886e+38F32\000"
 11446      5433325F 
 11446      4E4F524D 
 11446      5F4D4158 
 11446      5F5F2033 
 11447              	.LASF1660:
 11448 319e 464C4F41 		.ascii	"FLOAT_QUAT_OF_AXIS_ANGLE(_q,_uv,_an) WARNING(\"FLOA"
 11448      545F5155 
 11448      41545F4F 
 11448      465F4158 
 11448      49535F41 
 11449 31d0 545F5155 		.ascii	"T_QUAT_OF_AXIS_ANGLE macro is deprecated, use the l"
 11449      41545F4F 
 11449      465F4158 
 11449      49535F41 
 11449      4E474C45 
 11450 3203 6F776572 		.ascii	"ower case function instead\") float_quat_of_axis_an"
 11450      20636173 
 11450      65206675 
 11450      6E637469 
 11450      6F6E2069 
 11451 3235 676C6528 		.ascii	"gle(&(_q), &(_uv), _an)\000"
 11451      26285F71 
 11451      292C2026 
 11451      285F7576 
 11451      292C205F 
 11452              	.LASF496:
 11453 324d 5348545F 		.ascii	"SHT_SDLOG TRUE\000"
 11453      53444C4F 
 11453      47205452 
 11453      554500
 11454              	.LASF1493:
 11455 325c 494E5433 		.ascii	"INT32_DEG_OF_RAD(_rad) (int32_t)(((int64_t)(_rad) *"
 11455      325F4445 
 11455      475F4F46 
 11455      5F524144 
 11455      285F7261 
 11456 328f 20383537 		.ascii	" 857374503)/14964008)\000"
 11456      33373435 
 11456      3033292F 
 11456      31343936 
 11456      34303038 
 11457              	.LASF236:
ARM GAS  /tmp/ccKtbbXa.s 			page 227


 11458 32a5 5F5F464C 		.ascii	"__FLT32X_HAS_INFINITY__ 1\000"
 11458      54333258 
 11458      5F484153 
 11458      5F494E46 
 11458      494E4954 
 11459              	.LASF983:
 11460 32bf 5F415445 		.ascii	"_ATEXIT_SIZE 32\000"
 11460      5849545F 
 11460      53495A45 
 11460      20333200 
 11461              	.LASF285:
 11462 32cf 5F5F5553 		.ascii	"__USACCUM_MIN__ 0.0UHK\000"
 11462      41434355 
 11462      4D5F4D49 
 11462      4E5F5F20 
 11462      302E3055 
 11463              	.LASF589:
 11464 32e6 7369676E 		.ascii	"signed\000"
 11464      656400
 11465              	.LASF740:
 11466 32ed 55494E54 		.ascii	"UINT16_C\000"
 11466      31365F43 
 11466      00
 11467              	.LASF1510:
 11468 32f6 504F535F 		.ascii	"POS_FLOAT_OF_BFP(_ai) FLOAT_OF_BFP((_ai), INT32_POS"
 11468      464C4F41 
 11468      545F4F46 
 11468      5F424650 
 11468      285F6169 
 11469 3329 5F465241 		.ascii	"_FRAC)\000"
 11469      432900
 11470              	.LASF122:
 11471 3330 5F5F5549 		.ascii	"__UINT_LEAST64_MAX__ 0xffffffffffffffffULL\000"
 11471      4E545F4C 
 11471      45415354 
 11471      36345F4D 
 11471      41585F5F 
 11472              	.LASF105:
 11473 335b 5F5F494E 		.ascii	"__INT8_C(c) c\000"
 11473      54385F43 
 11473      28632920 
 11473      6300
 11474              	.LASF1025:
 11475 3369 5F524545 		.ascii	"_REENT_MBRTOWC_STATE(ptr) ((ptr)->_new._reent._mbrt"
 11475      4E545F4D 
 11475      4252544F 
 11475      57435F53 
 11475      54415445 
 11476 339c 6F77635F 		.ascii	"owc_state)\000"
 11476      73746174 
 11476      652900
 11477              	.LASF802:
 11478 33a7 50524978 		.ascii	"PRIx16 __PRI16(x)\000"
 11478      3136205F 
 11478      5F505249 
 11478      31362878 
 11478      2900
ARM GAS  /tmp/ccKtbbXa.s 			page 228


 11479              	.LASF426:
 11480 33b9 5F5F4152 		.ascii	"__ARM_EABI__ 1\000"
 11480      4D5F4541 
 11480      42495F5F 
 11480      203100
 11481              	.LASF883:
 11482 33c8 50524958 		.ascii	"PRIXMAX __PRIMAX(X)\000"
 11482      4D415820 
 11482      5F5F5052 
 11482      494D4158 
 11482      28582900 
 11483              	.LASF1128:
 11484 33dc 5F5F7072 		.ascii	"__printf0like(fmtarg,firstvararg) \000"
 11484      696E7466 
 11484      306C696B 
 11484      6528666D 
 11484      74617267 
 11485              	.LASF1517:
 11486 33ff 494E545F 		.ascii	"INT_MULT_RSHIFT(_a,_b,_r) (((_a)*(_b))>>(_r))\000"
 11486      4D554C54 
 11486      5F525348 
 11486      49465428 
 11486      5F612C5F 
 11487              	.LASF745:
 11488 342d 55494E54 		.ascii	"UINT64_C(c) __UINT64_C(c)\000"
 11488      36345F43 
 11488      28632920 
 11488      5F5F5549 
 11488      4E543634 
 11489              	.LASF1657:
 11490 3447 464C4F41 		.ascii	"FLOAT_QUAT_DERIVATIVE(_qd,_r,_q) WARNING(\"FLOAT_QU"
 11490      545F5155 
 11490      41545F44 
 11490      45524956 
 11490      41544956 
 11491 3479 41545F44 		.ascii	"AT_DERIVATIVE macro is deprecated, use the lower ca"
 11491      45524956 
 11491      41544956 
 11491      45206D61 
 11491      63726F20 
 11492 34ac 73652066 		.ascii	"se function instead\") float_quat_derivative(&(_qd)"
 11492      756E6374 
 11492      696F6E20 
 11492      696E7374 
 11492      65616422 
 11493 34de 2C202628 		.ascii	", &(_r), &(_q))\000"
 11493      5F72292C 
 11493      2026285F 
 11493      71292900 
 11494              	.LASF202:
 11495 34ee 5F5F464C 		.ascii	"__FLT32_EPSILON__ 1.1920928955078125e-7F32\000"
 11495      5433325F 
 11495      45505349 
 11495      4C4F4E5F 
 11495      5F20312E 
 11496              	.LASF1498:
 11497 3519 4246505F 		.ascii	"BFP_OF_REAL(_vr,_frac) ((_vr)*(1<<(_frac)))\000"
ARM GAS  /tmp/ccKtbbXa.s 			page 229


 11497      4F465F52 
 11497      45414C28 
 11497      5F76722C 
 11497      5F667261 
 11498              	.LASF653:
 11499 3545 494E545F 		.ascii	"INT_LEAST8_MAX __INT_LEAST8_MAX__\000"
 11499      4C454153 
 11499      54385F4D 
 11499      4158205F 
 11499      5F494E54 
 11500              	.LASF905:
 11501 3567 66616C73 		.ascii	"false 0\000"
 11501      65203000 
 11502              	.LASF958:
 11503 356f 5F5F5F69 		.ascii	"___int_least16_t_defined 1\000"
 11503      6E745F6C 
 11503      65617374 
 11503      31365F74 
 11503      5F646566 
 11504              	.LASF803:
 11505 358a 50524958 		.ascii	"PRIX16 __PRI16(X)\000"
 11505      3136205F 
 11505      5F505249 
 11505      31362858 
 11505      2900
 11506              	.LASF99:
 11507 359c 5F5F494E 		.ascii	"__INT64_MAX__ 0x7fffffffffffffffLL\000"
 11507      5436345F 
 11507      4D41585F 
 11507      5F203078 
 11507      37666666 
 11508              	.LASF1072:
 11509 35bf 5F5F4343 		.ascii	"__CC_SUPPORTS___INLINE 1\000"
 11509      5F535550 
 11509      504F5254 
 11509      535F5F5F 
 11509      494E4C49 
 11510              	.LASF10:
 11511 35d8 5F5F4154 		.ascii	"__ATOMIC_SEQ_CST 5\000"
 11511      4F4D4943 
 11511      5F534551 
 11511      5F435354 
 11511      203500
 11512              	.LASF1368:
 11513 35eb 56454354 		.ascii	"VECT3_DIFF(_c,_a,_b) { (_c).x = (_a).x - (_b).x; (_"
 11513      335F4449 
 11513      4646285F 
 11513      632C5F61 
 11513      2C5F6229 
 11514 361e 63292E79 		.ascii	"c).y = (_a).y - (_b).y; (_c).z = (_a).z - (_b).z; }"
 11514      203D2028 
 11514      5F61292E 
 11514      79202D20 
 11514      285F6229 
 11515 3651 00       		.ascii	"\000"
 11516              	.LASF976:
 11517 3652 5F5F6C6F 		.ascii	"__lock_close_recursive(lock) ((void) 0)\000"
ARM GAS  /tmp/ccKtbbXa.s 			page 230


 11517      636B5F63 
 11517      6C6F7365 
 11517      5F726563 
 11517      75727369 
 11518              	.LASF508:
 11519 367a 5553455F 		.ascii	"USE_COMMANDS 1\000"
 11519      434F4D4D 
 11519      414E4453 
 11519      203100
 11520              	.LASF1007:
 11521 3689 5F524545 		.ascii	"_REENT_CHECK_SIGNAL_BUF(ptr) \000"
 11521      4E545F43 
 11521      4845434B 
 11521      5F534947 
 11521      4E414C5F 
 11522              	.LASF1655:
 11523 36a7 464C4F41 		.ascii	"FLOAT_QUAT_INTEGRATE(_q,_omega,_dt) WARNING(\"FLOAT"
 11523      545F5155 
 11523      41545F49 
 11523      4E544547 
 11523      52415445 
 11524 36d9 5F515541 		.ascii	"_QUAT_INTEGRATE macro is deprecated, use the lower "
 11524      545F494E 
 11524      54454752 
 11524      41544520 
 11524      6D616372 
 11525 370c 63617365 		.ascii	"case function instead\") float_quat_integrate(&(_q)"
 11525      2066756E 
 11525      6374696F 
 11525      6E20696E 
 11525      73746561 
 11526 373e 2C202628 		.ascii	", &(_omega), _dt)\000"
 11526      5F6F6D65 
 11526      6761292C 
 11526      205F6474 
 11526      2900
 11527              	.LASF227:
 11528 3750 5F5F464C 		.ascii	"__FLT32X_MAX_EXP__ 1024\000"
 11528      54333258 
 11528      5F4D4158 
 11528      5F455850 
 11528      5F5F2031 
 11529              	.LASF1075:
 11530 3768 5F5F4343 		.ascii	"__CC_SUPPORTS_WARNING 1\000"
 11530      5F535550 
 11530      504F5254 
 11530      535F5741 
 11530      524E494E 
 11531              	.LASF192:
 11532 3780 5F5F464C 		.ascii	"__FLT32_MANT_DIG__ 24\000"
 11532      5433325F 
 11532      4D414E54 
 11532      5F444947 
 11532      5F5F2032 
 11533              	.LASF61:
 11534 3796 5F5F5549 		.ascii	"__UINT_FAST8_TYPE__ unsigned int\000"
 11534      4E545F46 
ARM GAS  /tmp/ccKtbbXa.s 			page 231


 11534      41535438 
 11534      5F545950 
 11534      455F5F20 
 11535              	.LASF352:
 11536 37b7 5F5F5554 		.ascii	"__UTA_FBIT__ 64\000"
 11536      415F4642 
 11536      49545F5F 
 11536      20363400 
 11537              	.LASF162:
 11538 37c7 5F5F4442 		.ascii	"__DBL_DIG__ 15\000"
 11538      4C5F4449 
 11538      475F5F20 
 11538      313500
 11539              	.LASF701:
 11540 37d6 494E5450 		.ascii	"INTPTR_MAX __INTPTR_MAX__\000"
 11540      54525F4D 
 11540      4158205F 
 11540      5F494E54 
 11540      5054525F 
 11541              	.LASF950:
 11542 37f0 5F5F4558 		.ascii	"__EXP(x) __ ##x ##__\000"
 11542      50287829 
 11542      205F5F20 
 11542      23237820 
 11542      23235F5F 
 11543              	.LASF182:
 11544 3805 5F5F4445 		.ascii	"__DECIMAL_DIG__ 17\000"
 11544      43494D41 
 11544      4C5F4449 
 11544      475F5F20 
 11544      313700
 11545              	.LASF684:
 11546 3818 494E545F 		.ascii	"INT_FAST16_MIN\000"
 11546      46415354 
 11546      31365F4D 
 11546      494E00
 11547              	.LASF677:
 11548 3827 494E545F 		.ascii	"INT_FAST8_MAX __INT_FAST8_MAX__\000"
 11548      46415354 
 11548      385F4D41 
 11548      58205F5F 
 11548      494E545F 
 11549              	.LASF1044:
 11550 3847 5F5F6C6F 		.ascii	"__long_double_t long double\000"
 11550      6E675F64 
 11550      6F75626C 
 11550      655F7420 
 11550      6C6F6E67 
 11551              	.LASF1141:
 11552 3863 5F5F4445 		.ascii	"__DEQUALIFY(type,var) ((type)(__uintptr_t)(const vo"
 11552      5155414C 
 11552      49465928 
 11552      74797065 
 11552      2C766172 
 11553 3896 6C617469 		.ascii	"latile void *)(var))\000"
 11553      6C652076 
 11553      6F696420 
ARM GAS  /tmp/ccKtbbXa.s 			page 232


 11553      2A292876 
 11553      61722929 
 11554              	.LASF1053:
 11555 38ab 5F5F6861 		.ascii	"__has_feature(x) 0\000"
 11555      735F6665 
 11555      61747572 
 11555      65287829 
 11555      203000
 11556              	.LASF1290:
 11557 38be 464C545F 		.ascii	"FLT_MANT_DIG __FLT_MANT_DIG__\000"
 11557      4D414E54 
 11557      5F444947 
 11557      205F5F46 
 11557      4C545F4D 
 11558              	.LASF994:
 11559 38dc 5F524545 		.ascii	"_REENT_EMERGENCY_SIZE 25\000"
 11559      4E545F45 
 11559      4D455247 
 11559      454E4359 
 11559      5F53495A 
 11560              	.LASF353:
 11561 38f5 5F5F5554 		.ascii	"__UTA_IBIT__ 64\000"
 11561      415F4942 
 11561      49545F5F 
 11561      20363400 
 11562              	.LASF140:
 11563 3905 5F5F4743 		.ascii	"__GCC_IEC_559_COMPLEX 0\000"
 11563      435F4945 
 11563      435F3535 
 11563      395F434F 
 11563      4D504C45 
 11564              	.LASF744:
 11565 391d 55494E54 		.ascii	"UINT64_C\000"
 11565      36345F43 
 11565      00
 11566              	.LASF1639:
 11567 3926 464C4F41 		.ascii	"FLOAT_RMAT_INTEGRATE_FI(_rm,_omega,_dt) WARNING(\"F"
 11567      545F524D 
 11567      41545F49 
 11567      4E544547 
 11567      52415445 
 11568 3958 4C4F4154 		.ascii	"LOAT_RMAT_INTEGRATE_FI macro is deprecated, use the"
 11568      5F524D41 
 11568      545F494E 
 11568      54454752 
 11568      4154455F 
 11569 398b 206C6F77 		.ascii	" lower case function instead\") float_rmat_integrat"
 11569      65722063 
 11569      61736520 
 11569      66756E63 
 11569      74696F6E 
 11570 39bd 655F6669 		.ascii	"e_fi(&(_rm), &(_omega), &(_dt))\000"
 11570      2826285F 
 11570      726D292C 
 11570      2026285F 
 11570      6F6D6567 
 11571              	.LASF1712:
ARM GAS  /tmp/ccKtbbXa.s 			page 233


 11572 39dd 6C74705F 		.ascii	"ltp_of_ecef\000"
 11572      6F665F65 
 11572      63656600 
 11573              	.LASF1617:
 11574 39e9 464C4F41 		.ascii	"FLOAT_RATES_ZERO(_r) { RATES_ASSIGN(_r, 0., 0., 0.)"
 11574      545F5241 
 11574      5445535F 
 11574      5A45524F 
 11574      285F7229 
 11575 3a1c 3B207D00 		.ascii	"; }\000"
 11576              	.LASF259:
 11577 3a20 5F5F4C46 		.ascii	"__LFRACT_IBIT__ 0\000"
 11577      52414354 
 11577      5F494249 
 11577      545F5F20 
 11577      3000
 11578              	.LASF831:
 11579 3a32 5F5F5052 		.ascii	"__PRI32(x) __INT32 __STRINGIFY(x)\000"
 11579      49333228 
 11579      7829205F 
 11579      5F494E54 
 11579      3332205F 
 11580              	.LASF1446:
 11581 3a54 5050525A 		.ascii	"PPRZ_TRIG_INT_H \000"
 11581      5F545249 
 11581      475F494E 
 11581      545F4820 
 11581      00
 11582              	.LASF355:
 11583 3a65 5F5F5553 		.ascii	"__USER_LABEL_PREFIX__ \000"
 11583      45525F4C 
 11583      4142454C 
 11583      5F505245 
 11583      4649585F 
 11584              	.LASF1045:
 11585 3a7c 5F5F6174 		.ascii	"__attribute_malloc__ \000"
 11585      74726962 
 11585      7574655F 
 11585      6D616C6C 
 11585      6F635F5F 
 11586              	.LASF934:
 11587 3a92 5F53495A 		.ascii	"_SIZE_T_DECLARED \000"
 11587      455F545F 
 11587      4445434C 
 11587      41524544 
 11587      2000
 11588              	.LASF954:
 11589 3aa4 5F5F5F69 		.ascii	"___int16_t_defined 1\000"
 11589      6E743136 
 11589      5F745F64 
 11589      6566696E 
 11589      65642031 
 11590              	.LASF642:
 11591 3ab9 494E5433 		.ascii	"INT32_MIN\000"
 11591      325F4D49 
 11591      4E00
 11592              	.LASF1018:
ARM GAS  /tmp/ccKtbbXa.s 			page 234


 11593 3ac3 5F524545 		.ascii	"_REENT_TM(ptr) (&(ptr)->_new._reent._localtime_buf)"
 11593      4E545F54 
 11593      4D287074 
 11593      72292028 
 11593      26287074 
 11594 3af6 00       		.ascii	"\000"
 11595              	.LASF647:
 11596 3af7 494E5436 		.ascii	"INT64_MAX __INT64_MAX__\000"
 11596      345F4D41 
 11596      58205F5F 
 11596      494E5436 
 11596      345F4D41 
 11597              	.LASF1701:
 11598 3b0f 496E7433 		.ascii	"Int32RMat\000"
 11598      32524D61 
 11598      7400
 11599              	.LASF319:
 11600 3b19 5F5F5151 		.ascii	"__QQ_IBIT__ 0\000"
 11600      5F494249 
 11600      545F5F20 
 11600      3000
 11601              	.LASF1184:
 11602 3b27 69736669 		.ascii	"isfinite(__x) (__builtin_isfinite (__x))\000"
 11602      6E697465 
 11602      285F5F78 
 11602      2920285F 
 11602      5F627569 
 11603              	.LASF1620:
 11604 3b50 464C4F41 		.ascii	"FLOAT_VECT3_INTEGRATE_FI(_vo,_dv,_dt) WARNING(\"FLO"
 11604      545F5645 
 11604      4354335F 
 11604      494E5445 
 11604      47524154 
 11605 3b82 41545F56 		.ascii	"AT_VECT3_INTEGRATE_FI macro is deprecated, use the "
 11605      45435433 
 11605      5F494E54 
 11605      45475241 
 11605      54455F46 
 11606 3bb5 6C6F7765 		.ascii	"lower case function instead\") float_vect3_integrat"
 11606      72206361 
 11606      73652066 
 11606      756E6374 
 11606      696F6E20 
 11607 3be7 655F6669 		.ascii	"e_fi(&(_vo), &(_dv), _dt)\000"
 11607      2826285F 
 11607      766F292C 
 11607      2026285F 
 11607      6476292C 
 11608              	.LASF1419:
 11609 3c01 51554154 		.ascii	"QUAT_ADD(_qo,_qi) { (_qo).qi += (_qi).qi; (_qo).qx "
 11609      5F414444 
 11609      285F716F 
 11609      2C5F7169 
 11609      29207B20 
 11610 3c34 2B3D2028 		.ascii	"+= (_qi).qx; (_qo).qy += (_qi).qy; (_qo).qz += (_qi"
 11610      5F716929 
 11610      2E71783B 
ARM GAS  /tmp/ccKtbbXa.s 			page 235


 11610      20285F71 
 11610      6F292E71 
 11611 3c67 292E717A 		.ascii	").qz; }\000"
 11611      3B207D00 
 11612              	.LASF674:
 11613 3c6f 55494E54 		.ascii	"UINT_LEAST64_MAX\000"
 11613      5F4C4541 
 11613      53543634 
 11613      5F4D4158 
 11613      00
 11614              	.LASF1139:
 11615 3c80 5F5F4445 		.ascii	"__DECONST(type,var) ((type)(__uintptr_t)(const void"
 11615      434F4E53 
 11615      54287479 
 11615      70652C76 
 11615      61722920 
 11616 3cb3 202A2928 		.ascii	" *)(var))\000"
 11616      76617229 
 11616      2900
 11617              	.LASF520:
 11618 3cbd 5448554D 		.ascii	"THUMB_NO_INTERWORKING 1\000"
 11618      425F4E4F 
 11618      5F494E54 
 11618      4552574F 
 11618      524B494E 
 11619              	.LASF170:
 11620 3cd5 5F5F4442 		.ascii	"__DBL_MIN__ ((double)2.2250738585072014e-308L)\000"
 11620      4C5F4D49 
 11620      4E5F5F20 
 11620      2828646F 
 11620      75626C65 
 11621              	.LASF1569:
 11622 3d04 494E5433 		.ascii	"INT32_RATES_OF_EULERS_DOT(_r,_e,_ed) WARNING(\"INT3"
 11622      325F5241 
 11622      5445535F 
 11622      4F465F45 
 11622      554C4552 
 11623 3d36 325F5241 		.ascii	"2_RATES_OF_EULERS_DOT macro is deprecated, use the "
 11623      5445535F 
 11623      4F465F45 
 11623      554C4552 
 11623      535F444F 
 11624 3d69 6C6F7765 		.ascii	"lower case function instead\") int32_rates_of_euler"
 11624      72206361 
 11624      73652066 
 11624      756E6374 
 11624      696F6E20 
 11625 3d9b 735F646F 		.ascii	"s_dot_321(&(_r), &(_e), &(_ed))\000"
 11625      745F3332 
 11625      31282628 
 11625      5F72292C 
 11625      2026285F 
 11626              	.LASF1149:
 11627 3dbb 5F5F6C6F 		.ascii	"__lock_annotate(x) \000"
 11627      636B5F61 
 11627      6E6E6F74 
 11627      61746528 
ARM GAS  /tmp/ccKtbbXa.s 			page 236


 11627      78292000 
 11628              	.LASF124:
 11629 3dcf 5F5F494E 		.ascii	"__INT_FAST8_MAX__ 0x7fffffff\000"
 11629      545F4641 
 11629      5354385F 
 11629      4D41585F 
 11629      5F203078 
 11630              	.LASF753:
 11631 3dec 5F574348 		.ascii	"_WCHAR_T \000"
 11631      41525F54 
 11631      2000
 11632              	.LASF1326:
 11633 3df6 464C545F 		.ascii	"FLT_MAX __FLT_MAX__\000"
 11633      4D415820 
 11633      5F5F464C 
 11633      545F4D41 
 11633      585F5F00 
 11634              	.LASF125:
 11635 3e0a 5F5F494E 		.ascii	"__INT_FAST8_WIDTH__ 32\000"
 11635      545F4641 
 11635      5354385F 
 11635      57494454 
 11635      485F5F20 
 11636              	.LASF1741:
 11637 3e21 746D7079 		.ascii	"tmpy\000"
 11637      00
 11638              	.LASF1742:
 11639 3e26 746D707A 		.ascii	"tmpz\000"
 11639      00
 11640              	.LASF451:
 11641 3e2b 4241524F 		.ascii	"BARO_PERIODIC_FREQUENCY 50\000"
 11641      5F504552 
 11641      494F4449 
 11641      435F4652 
 11641      45515545 
 11642              	.LASF184:
 11643 3e46 5F5F4C44 		.ascii	"__LDBL_MAX__ 1.7976931348623157e+308L\000"
 11643      424C5F4D 
 11643      41585F5F 
 11643      20312E37 
 11643      39373639 
 11644              	.LASF688:
 11645 3e6c 494E545F 		.ascii	"INT_FAST32_MAX\000"
 11645      46415354 
 11645      33325F4D 
 11645      415800
 11646              	.LASF1673:
 11647 3e7b 444F5542 		.ascii	"DOUBLE_RMAT_OF_EULERS_321(_rm,_e) WARNING(\"DOUBLE_"
 11647      4C455F52 
 11647      4D41545F 
 11647      4F465F45 
 11647      554C4552 
 11648 3ead 524D4154 		.ascii	"RMAT_OF_EULERS_321 macro is deprecated, use the low"
 11648      5F4F465F 
 11648      45554C45 
 11648      52535F33 
 11648      3231206D 
ARM GAS  /tmp/ccKtbbXa.s 			page 237


 11649 3ee0 65722063 		.ascii	"er case function instead\") double_rmat_of_eulers(&"
 11649      61736520 
 11649      66756E63 
 11649      74696F6E 
 11649      20696E73 
 11650 3f12 285F726D 		.ascii	"(_rm), &(_e))\000"
 11650      292C2026 
 11650      285F6529 
 11650      2900
 11651              	.LASF416:
 11652 3f20 5F5F4152 		.ascii	"__ARM_FP16_ARGS\000"
 11652      4D5F4650 
 11652      31365F41 
 11652      52475300 
 11653              	.LASF194:
 11654 3f30 5F5F464C 		.ascii	"__FLT32_MIN_EXP__ (-125)\000"
 11654      5433325F 
 11654      4D494E5F 
 11654      4558505F 
 11654      5F20282D 
 11655              	.LASF443:
 11656 3f49 5553455F 		.ascii	"USE_ADC_WATCHDOG 1\000"
 11656      4144435F 
 11656      57415443 
 11656      48444F47 
 11656      203100
 11657              	.LASF270:
 11658 3f5c 5F5F4C4C 		.ascii	"__LLFRACT_MIN__ (-0.5LLR-0.5LLR)\000"
 11658      46524143 
 11658      545F4D49 
 11658      4E5F5F20 
 11658      282D302E 
 11659              	.LASF800:
 11660 3f7d 5052496F 		.ascii	"PRIo16 __PRI16(o)\000"
 11660      3136205F 
 11660      5F505249 
 11660      3136286F 
 11660      2900
 11661              	.LASF178:
 11662 3f8f 5F5F4C44 		.ascii	"__LDBL_MIN_EXP__ (-1021)\000"
 11662      424C5F4D 
 11662      494E5F45 
 11662      58505F5F 
 11662      20282D31 
 11663              	.LASF1618:
 11664 3fa8 464C4F41 		.ascii	"FLOAT_RATES_NORM(_v) (sqrtf((_v).p*(_v).p + (_v).q*"
 11664      545F5241 
 11664      5445535F 
 11664      4E4F524D 
 11664      285F7629 
 11665 3fdb 285F7629 		.ascii	"(_v).q + (_v).r*(_v).r))\000"
 11665      2E71202B 
 11665      20285F76 
 11665      292E722A 
 11665      285F7629 
 11666              	.LASF164:
 11667 3ff4 5F5F4442 		.ascii	"__DBL_MIN_10_EXP__ (-307)\000"
ARM GAS  /tmp/ccKtbbXa.s 			page 238


 11667      4C5F4D49 
 11667      4E5F3130 
 11667      5F455850 
 11667      5F5F2028 
 11668              	.LASF841:
 11669 400e 50524978 		.ascii	"PRIx32 __PRI32(x)\000"
 11669      3332205F 
 11669      5F505249 
 11669      33322878 
 11669      2900
 11670              	.LASF1212:
 11671 4020 4D5F5457 		.ascii	"M_TWOPI (M_PI * 2.0)\000"
 11671      4F504920 
 11671      284D5F50 
 11671      49202A20 
 11671      322E3029 
 11672              	.LASF1423:
 11673 4035 51554154 		.ascii	"QUAT_DOT_PRODUCT(_qa,_qb) ((_qa).qi * (_qb).qi + (_"
 11673      5F444F54 
 11673      5F50524F 
 11673      44554354 
 11673      285F7161 
 11674 4068 7161292E 		.ascii	"qa).qx * (_qb).qx + (_qa).qy * (_qb).qy + (_qa).qz "
 11674      7178202A 
 11674      20285F71 
 11674      62292E71 
 11674      78202B20 
 11675 409b 2A20285F 		.ascii	"* (_qb).qz)\000"
 11675      7162292E 
 11675      717A2900 
 11676              	.LASF255:
 11677 40a7 5F5F5546 		.ascii	"__UFRACT_MIN__ 0.0UR\000"
 11677      52414354 
 11677      5F4D494E 
 11677      5F5F2030 
 11677      2E305552 
 11678              	.LASF600:
 11679 40bc 5F5F696E 		.ascii	"__int20 +2\000"
 11679      74323020 
 11679      2B3200
 11680              	.LASF1247:
 11681 40c7 4E6F726D 		.ascii	"NormRadAngle(x) { while (x > M_PI) x -= 2 * M_PI; w"
 11681      52616441 
 11681      6E676C65 
 11681      28782920 
 11681      7B207768 
 11682 40fa 68696C65 		.ascii	"hile (x < -M_PI) x += 2 * M_PI; }\000"
 11682      20287820 
 11682      3C202D4D 
 11682      5F504929 
 11682      2078202B 
 11683              	.LASF1492:
 11684 411c 494E5433 		.ascii	"INT32_RAD_OF_DEG(_deg) (int32_t)(((int64_t)(_deg) *"
 11684      325F5241 
 11684      445F4F46 
 11684      5F444547 
 11684      285F6465 
ARM GAS  /tmp/ccKtbbXa.s 			page 239


 11685 414f 20313439 		.ascii	" 14964008)/857374503)\000"
 11685      36343030 
 11685      38292F38 
 11685      35373337 
 11685      34353033 
 11686              	.LASF148:
 11687 4165 5F5F464C 		.ascii	"__FLT_MIN_10_EXP__ (-37)\000"
 11687      545F4D49 
 11687      4E5F3130 
 11687      5F455850 
 11687      5F5F2028 
 11688              	.LASF671:
 11689 417e 494E545F 		.ascii	"INT_LEAST64_MAX __INT_LEAST64_MAX__\000"
 11689      4C454153 
 11689      5436345F 
 11689      4D415820 
 11689      5F5F494E 
 11690              	.LASF466:
 11691 41a2 46495845 		.ascii	"FIXEDWING_FIRMWARE 1\000"
 11691      4457494E 
 11691      475F4649 
 11691      524D5741 
 11691      52452031 
 11692              	.LASF335:
 11693 41b7 5F5F5544 		.ascii	"__UDQ_IBIT__ 0\000"
 11693      515F4942 
 11693      49545F5F 
 11693      203000
 11694              	.LASF1746:
 11695 41c6 656E755F 		.ascii	"enu_of_ecef_pos_i\000"
 11695      6F665F65 
 11695      6365665F 
 11695      706F735F 
 11695      6900
 11696              	.LASF1596:
 11697 41d8 4E45445F 		.ascii	"NED_BFP_OF_REAL(_o,_i) { (_o).x = (int32_t)POS_BFP_"
 11697      4246505F 
 11697      4F465F52 
 11697      45414C28 
 11697      5F6F2C5F 
 11698 420b 4F465F52 		.ascii	"OF_REAL((_i).x); (_o).y = (int32_t)POS_BFP_OF_REAL("
 11698      45414C28 
 11698      285F6929 
 11698      2E78293B 
 11698      20285F6F 
 11699 423e 285F6929 		.ascii	"(_i).y); (_o).z = (int32_t)POS_BFP_OF_REAL((_i).z);"
 11699      2E79293B 
 11699      20285F6F 
 11699      292E7A20 
 11699      3D202869 
 11700 4271 207D00   		.ascii	" }\000"
 11701              	.LASF161:
 11702 4274 5F5F4442 		.ascii	"__DBL_MANT_DIG__ 53\000"
 11702      4C5F4D41 
 11702      4E545F44 
 11702      49475F5F 
 11702      20353300 
ARM GAS  /tmp/ccKtbbXa.s 			page 240


 11703              	.LASF823:
 11704 4288 50524975 		.ascii	"PRIuFAST16 __PRI16FAST(u)\000"
 11704      46415354 
 11704      3136205F 
 11704      5F505249 
 11704      31364641 
 11705              	.LASF86:
 11706 42a2 5F5F5054 		.ascii	"__PTRDIFF_WIDTH__ 32\000"
 11706      52444946 
 11706      465F5749 
 11706      4454485F 
 11706      5F203332 
 11707              	.LASF1134:
 11708 42b7 5F5F4642 		.ascii	"__FBSDID(s) struct __hack\000"
 11708      53444944 
 11708      28732920 
 11708      73747275 
 11708      6374205F 
 11709              	.LASF1681:
 11710 42d1 44454C54 		.ascii	"DELTA_NORTH 0.\000"
 11710      415F4E4F 
 11710      52544820 
 11710      302E00
 11711              	.LASF854:
 11712 42e0 53434E64 		.ascii	"SCNdLEAST32 __SCN32LEAST(d)\000"
 11712      4C454153 
 11712      54333220 
 11712      5F5F5343 
 11712      4E33324C 
 11713              	.LASF315:
 11714 42fc 5F5F554C 		.ascii	"__ULLACCUM_MIN__ 0.0ULLK\000"
 11714      4C414343 
 11714      554D5F4D 
 11714      494E5F5F 
 11714      20302E30 
 11715              	.LASF763:
 11716 4315 5F5F494E 		.ascii	"__INT_WCHAR_T_H \000"
 11716      545F5743 
 11716      4841525F 
 11716      545F4820 
 11716      00
 11717              	.LASF1523:
 11718 4326 494E5433 		.ascii	"INT32_VECT2_LSHIFT(_o,_i,_l) { (_o).x = ((_i).x << "
 11718      325F5645 
 11718      4354325F 
 11718      4C534849 
 11718      4654285F 
 11719 4359 285F6C29 		.ascii	"(_l)); (_o).y = ((_i).y << (_l)); }\000"
 11719      293B2028 
 11719      5F6F292E 
 11719      79203D20 
 11719      28285F69 
 11720              	.LASF486:
 11721 437d 5050525A 		.ascii	"PPRZ_UART uart1\000"
 11721      5F554152 
 11721      54207561 
 11721      72743100 
ARM GAS  /tmp/ccKtbbXa.s 			page 241


 11722              	.LASF694:
 11723 438d 494E545F 		.ascii	"INT_FAST64_MAX\000"
 11723      46415354 
 11723      36345F4D 
 11723      415800
 11724              	.LASF898:
 11725 439c 53434E69 		.ascii	"SCNiPTR __SCNPTR(i)\000"
 11725      50545220 
 11725      5F5F5343 
 11725      4E505452 
 11725      28692900 
 11726              	.LASF1203:
 11727 43b0 4D5F4C4E 		.ascii	"M_LN10 2.30258509299404568402\000"
 11727      31302032 
 11727      2E333032 
 11727      35383530 
 11727      39323939 
 11728              	.LASF865:
 11729 43ce 53434E64 		.ascii	"SCNdFAST32 __SCN32FAST(d)\000"
 11729      46415354 
 11729      3332205F 
 11729      5F53434E 
 11729      33324641 
 11730              	.LASF564:
 11731 43e8 5F504F53 		.ascii	"_POSIX_SOURCE\000"
 11731      49585F53 
 11731      4F555243 
 11731      4500
 11732              	.LASF1711:
 11733 43f6 65636566 		.ascii	"ecef\000"
 11733      00
 11734              	.LASF938:
 11735 43fb 5F5F7369 		.ascii	"__size_t \000"
 11735      7A655F74 
 11735      2000
 11736              	.LASF75:
 11737 4405 5F5F5749 		.ascii	"__WINT_MAX__ 0xffffffffU\000"
 11737      4E545F4D 
 11737      41585F5F 
 11737      20307866 
 11737      66666666 
 11738              	.LASF1627:
 11739 441e 464C4F41 		.ascii	"FLOAT_RMAT_NORM(_m) WARNING(\"FLOAT_RMAT_NORM macro"
 11739      545F524D 
 11739      41545F4E 
 11739      4F524D28 
 11739      5F6D2920 
 11740 4450 20697320 		.ascii	" is deprecated, use the lower case function instead"
 11740      64657072 
 11740      65636174 
 11740      65642C20 
 11740      75736520 
 11741 4483 22292066 		.ascii	"\") float_rmat_norm(&(_m))\000"
 11741      6C6F6174 
 11741      5F726D61 
 11741      745F6E6F 
 11741      726D2826 
ARM GAS  /tmp/ccKtbbXa.s 			page 242


 11742              	.LASF1164:
 11743 449d 5F4D5F4C 		.ascii	"_M_LN2 0.693147180559945309417\000"
 11743      4E322030 
 11743      2E363933 
 11743      31343731 
 11743      38303535 
 11744              	.LASF1431:
 11745 44bc 45554C45 		.ascii	"EULERS_BFP_OF_REAL(_ei,_ef) { (_ei).phi = ANGLE_BFP"
 11745      52535F42 
 11745      46505F4F 
 11745      465F5245 
 11745      414C285F 
 11746 44ef 5F4F465F 		.ascii	"_OF_REAL((_ef).phi); (_ei).theta = ANGLE_BFP_OF_REA"
 11746      5245414C 
 11746      28285F65 
 11746      66292E70 
 11746      6869293B 
 11747 4522 4C28285F 		.ascii	"L((_ef).theta); (_ei).psi = ANGLE_BFP_OF_REAL((_ef)"
 11747      6566292E 
 11747      74686574 
 11747      61293B20 
 11747      285F6569 
 11748 4555 2E707369 		.ascii	".psi); }\000"
 11748      293B207D 
 11748      00
 11749              	.LASF415:
 11750 455e 5F5F4152 		.ascii	"__ARM_FP16_FORMAT_ALTERNATIVE\000"
 11750      4D5F4650 
 11750      31365F46 
 11750      4F524D41 
 11750      545F414C 
 11751              	.LASF1199:
 11752 457c 4D5F4520 		.ascii	"M_E 2.7182818284590452354\000"
 11752      322E3731 
 11752      38323831 
 11752      38323834 
 11752      35393034 
 11753              	.LASF1327:
 11754 4596 44424C5F 		.ascii	"DBL_MAX __DBL_MAX__\000"
 11754      4D415820 
 11754      5F5F4442 
 11754      4C5F4D41 
 11754      585F5F00 
 11755              	.LASF850:
 11756 45aa 5052496F 		.ascii	"PRIoLEAST32 __PRI32LEAST(o)\000"
 11756      4C454153 
 11756      54333220 
 11756      5F5F5052 
 11756      4933324C 
 11757              	.LASF704:
 11758 45c6 55494E54 		.ascii	"UINTPTR_MAX\000"
 11758      5054525F 
 11758      4D415800 
 11759              	.LASF1246:
 11760 45d2 436C6561 		.ascii	"ClearBit(a,n) a &= ~(1 << n)\000"
 11760      72426974 
 11760      28612C6E 
ARM GAS  /tmp/ccKtbbXa.s 			page 243


 11760      29206120 
 11760      263D207E 
 11761              	.LASF283:
 11762 45ef 5F5F5553 		.ascii	"__USACCUM_FBIT__ 8\000"
 11762      41434355 
 11762      4D5F4642 
 11762      49545F5F 
 11762      203800
 11763              	.LASF1546:
 11764 4602 494E5433 		.ascii	"INT32_QUAT_WRAP_SHORTEST(q) WARNING(\"INT32_QUAT_WR"
 11764      325F5155 
 11764      41545F57 
 11764      5241505F 
 11764      53484F52 
 11765 4634 41505F53 		.ascii	"AP_SHORTEST macro is deprecated, use the lower case"
 11765      484F5254 
 11765      45535420 
 11765      6D616372 
 11765      6F206973 
 11766 4667 2066756E 		.ascii	" function instead\") int32_quat_wrap_shortest(&(q))"
 11766      6374696F 
 11766      6E20696E 
 11766      73746561 
 11766      64222920 
 11767 4699 00       		.ascii	"\000"
 11768              	.LASF371:
 11769 469a 5F5F4743 		.ascii	"__GCC_ATOMIC_TEST_AND_SET_TRUEVAL 1\000"
 11769      435F4154 
 11769      4F4D4943 
 11769      5F544553 
 11769      545F414E 
 11770              	.LASF47:
 11771 46be 5F5F5549 		.ascii	"__UINT32_TYPE__ long unsigned int\000"
 11771      4E543332 
 11771      5F545950 
 11771      455F5F20 
 11771      6C6F6E67 
 11772              	.LASF155:
 11773 46e0 5F5F464C 		.ascii	"__FLT_EPSILON__ 1.1920928955078125e-7F\000"
 11773      545F4550 
 11773      53494C4F 
 11773      4E5F5F20 
 11773      312E3139 
 11774              	.LASF1059:
 11775 4707 5F5F474E 		.ascii	"__GNUCLIKE___OFFSETOF 1\000"
 11775      55434C49 
 11775      4B455F5F 
 11775      5F4F4646 
 11775      5345544F 
 11776              	.LASF1185:
 11777 471f 6973696E 		.ascii	"isinf(__x) (__builtin_isinf_sign (__x))\000"
 11777      66285F5F 
 11777      78292028 
 11777      5F5F6275 
 11777      696C7469 
 11778              	.LASF1231:
 11779 4747 544F444F 		.ascii	"TODO(x) DO_PRAGMA(message (\"TODO - \" x))\000"
ARM GAS  /tmp/ccKtbbXa.s 			page 244


 11779      28782920 
 11779      444F5F50 
 11779      5241474D 
 11779      41286D65 
 11780              	.LASF117:
 11781 4770 5F5F5549 		.ascii	"__UINT8_C(c) c\000"
 11781      4E54385F 
 11781      43286329 
 11781      206300
 11782              	.LASF1071:
 11783 477f 5F5F4343 		.ascii	"__CC_SUPPORTS_INLINE 1\000"
 11783      5F535550 
 11783      504F5254 
 11783      535F494E 
 11783      4C494E45 
 11784              	.LASF1672:
 11785 4796 444F5542 		.ascii	"DOUBLE_RMAT_OF_EULERS(_rm,_e) WARNING(\"DOUBLE_RMAT"
 11785      4C455F52 
 11785      4D41545F 
 11785      4F465F45 
 11785      554C4552 
 11786 47c8 5F4F465F 		.ascii	"_OF_EULERS macro is deprecated, use the lower case "
 11786      45554C45 
 11786      5253206D 
 11786      6163726F 
 11786      20697320 
 11787 47fb 66756E63 		.ascii	"function instead\") double_rmat_of_eulers(&(_rm), &"
 11787      74696F6E 
 11787      20696E73 
 11787      74656164 
 11787      22292064 
 11788 482d 285F6529 		.ascii	"(_e))\000"
 11788      2900
 11789              	.LASF394:
 11790 4833 5F5F4152 		.ascii	"__ARM_FEATURE_NUMERIC_MAXMIN\000"
 11790      4D5F4645 
 11790      41545552 
 11790      455F4E55 
 11790      4D455249 
 11791              	.LASF616:
 11792 4850 5F5F4C45 		.ascii	"__LEAST32 \"l\"\000"
 11792      41535433 
 11792      3220226C 
 11792      2200
 11793              	.LASF1622:
 11794 485e 464C4F41 		.ascii	"FLOAT_RATES_OF_EULER_DOT(_ra,_e,_ed) WARNING(\"FLOA"
 11794      545F5241 
 11794      5445535F 
 11794      4F465F45 
 11794      554C4552 
 11795 4890 545F5241 		.ascii	"T_RATES_OF_EULER_DOT macro is deprecated, use the l"
 11795      5445535F 
 11795      4F465F45 
 11795      554C4552 
 11795      5F444F54 
 11796 48c3 6F776572 		.ascii	"ower case function instead\") float_rates_of_euler_"
 11796      20636173 
ARM GAS  /tmp/ccKtbbXa.s 			page 245


 11796      65206675 
 11796      6E637469 
 11796      6F6E2069 
 11797 48f5 646F7428 		.ascii	"dot(&(_ra), &(_e), &(_ed))\000"
 11797      26285F72 
 11797      61292C20 
 11797      26285F65 
 11797      292C2026 
 11798              	.LASF731:
 11799 4910 494E5438 		.ascii	"INT8_C(c) __INT8_C(c)\000"
 11799      5F432863 
 11799      29205F5F 
 11799      494E5438 
 11799      5F432863 
 11800              	.LASF1210:
 11801 4926 4D5F5351 		.ascii	"M_SQRT2 1.41421356237309504880\000"
 11801      52543220 
 11801      312E3431 
 11801      34323133 
 11801      35363233 
 11802              	.LASF639:
 11803 4945 55494E54 		.ascii	"UINT16_MAX __UINT16_MAX__\000"
 11803      31365F4D 
 11803      4158205F 
 11803      5F55494E 
 11803      5431365F 
 11804              	.LASF1086:
 11805 495f 5F5F7765 		.ascii	"__weak_symbol __attribute__((__weak__))\000"
 11805      616B5F73 
 11805      796D626F 
 11805      6C205F5F 
 11805      61747472 
 11806              	.LASF1739:
 11807 4987 65636566 		.ascii	"ecef_of_enu_vect_i\000"
 11807      5F6F665F 
 11807      656E755F 
 11807      76656374 
 11807      5F6900
 11808              	.LASF1048:
 11809 499a 5F5F666C 		.ascii	"__flexarr [0]\000"
 11809      65786172 
 11809      72205B30 
 11809      5D00
 11810              	.LASF1012:
 11811 49a8 5F524545 		.ascii	"_REENT_RAND48_ADD(ptr) ((ptr)->_new._reent._r48._ad"
 11811      4E545F52 
 11811      414E4434 
 11811      385F4144 
 11811      44287074 
 11812 49db 642900   		.ascii	"d)\000"
 11813              	.LASF88:
 11814 49de 5F5F494E 		.ascii	"__INTMAX_MAX__ 0x7fffffffffffffffLL\000"
 11814      544D4158 
 11814      5F4D4158 
 11814      5F5F2030 
 11814      78376666 
 11815              	.LASF275:
ARM GAS  /tmp/ccKtbbXa.s 			page 246


 11816 4a02 5F5F554C 		.ascii	"__ULLFRACT_MIN__ 0.0ULLR\000"
 11816      4C465241 
 11816      43545F4D 
 11816      494E5F5F 
 11816      20302E30 
 11817              	.LASF1250:
 11818 4a1b 436C6F73 		.ascii	"CloseDegAngles(_c1,_c2) ({ float _diff = _c1 - _c2;"
 11818      65446567 
 11818      416E676C 
 11818      6573285F 
 11818      63312C5F 
 11819 4a4e 204E6F72 		.ascii	" NormCourse(_diff); 350 < _diff || _diff < 10; })\000"
 11819      6D436F75 
 11819      72736528 
 11819      5F646966 
 11819      66293B20 
 11820              	.LASF1694:
 11821 4a80 756E7369 		.ascii	"unsigned char\000"
 11821      676E6564 
 11821      20636861 
 11821      7200
 11822              	.LASF459:
 11823 4a8e 43485F44 		.ascii	"CH_DBG_SYSTEM_STATE_CHECK TRUE\000"
 11823      42475F53 
 11823      59535445 
 11823      4D5F5354 
 11823      4154455F 
 11824              	.LASF413:
 11825 4aad 5F5F4152 		.ascii	"__ARM_FP 4\000"
 11825      4D5F4650 
 11825      203400
 11826              	.LASF384:
 11827 4ab8 5F5F4152 		.ascii	"__ARM_FEATURE_QRDMX\000"
 11827      4D5F4645 
 11827      41545552 
 11827      455F5152 
 11827      444D5800 
 11828              	.LASF239:
 11829 4acc 5F5F5346 		.ascii	"__SFRACT_IBIT__ 0\000"
 11829      52414354 
 11829      5F494249 
 11829      545F5F20 
 11829      3000
 11830              	.LASF1641:
 11831 4ade 464C4F41 		.ascii	"FLOAT_QUAT_EXTRACT(_vo,_qi) QUAT_EXTRACT_Q(_vo, _qi"
 11831      545F5155 
 11831      41545F45 
 11831      58545241 
 11831      4354285F 
 11832 4b11 2900     		.ascii	")\000"
 11833              	.LASF981:
 11834 4b13 5F5F6C6F 		.ascii	"__lock_release(lock) ((void) 0)\000"
 11834      636B5F72 
 11834      656C6561 
 11834      7365286C 
 11834      6F636B29 
 11835              	.LASF26:
ARM GAS  /tmp/ccKtbbXa.s 			page 247


 11836 4b33 5F5F4F52 		.ascii	"__ORDER_LITTLE_ENDIAN__ 1234\000"
 11836      4445525F 
 11836      4C495454 
 11836      4C455F45 
 11836      4E444941 
 11837              	.LASF920:
 11838 4b50 5F505452 		.ascii	"_PTRDIFF_T_DECLARED \000"
 11838      44494646 
 11838      5F545F44 
 11838      45434C41 
 11838      52454420 
 11839              	.LASF1008:
 11840 4b65 5F524545 		.ascii	"_REENT_SIGNGAM(ptr) ((ptr)->_new._reent._gamma_sign"
 11840      4E545F53 
 11840      49474E47 
 11840      414D2870 
 11840      74722920 
 11841 4b98 67616D29 		.ascii	"gam)\000"
 11841      00
 11842              	.LASF146:
 11843 4b9d 5F5F464C 		.ascii	"__FLT_DIG__ 6\000"
 11843      545F4449 
 11843      475F5F20 
 11843      3600
 11844              	.LASF1252:
 11845 4bab 4465674F 		.ascii	"DegOfRad(x) ((x) * (180. / M_PI))\000"
 11845      66526164 
 11845      28782920 
 11845      28287829 
 11845      202A2028 
 11846              	.LASF1416:
 11847 4bcd 51554154 		.ascii	"QUAT_COPY(_qo,_qi) { (_qo).qi = (_qi).qi; (_qo).qx "
 11847      5F434F50 
 11847      59285F71 
 11847      6F2C5F71 
 11847      6929207B 
 11848 4c00 3D20285F 		.ascii	"= (_qi).qx; (_qo).qy = (_qi).qy; (_qo).qz = (_qi).q"
 11848      7169292E 
 11848      71783B20 
 11848      285F716F 
 11848      292E7179 
 11849 4c33 7A3B207D 		.ascii	"z; }\000"
 11849      00
 11850              	.LASF1095:
 11851 4c38 5F5F616C 		.ascii	"__alloc_size2(n,x) __attribute__((__alloc_size__(n,"
 11851      6C6F635F 
 11851      73697A65 
 11851      32286E2C 
 11851      7829205F 
 11852 4c6b 20782929 		.ascii	" x)))\000"
 11852      2900
 11853              	.LASF610:
 11854 4c71 5F5F4641 		.ascii	"__FAST8 \000"
 11854      53543820 
 11854      00
 11855              	.LASF1699:
 11856 4c7a 666C6F61 		.ascii	"float\000"
ARM GAS  /tmp/ccKtbbXa.s 			page 248


 11856      7400
 11857              	.LASF1170:
 11858 4c80 464C545F 		.ascii	"FLT_EVAL_METHOD __FLT_EVAL_METHOD__\000"
 11858      4556414C 
 11858      5F4D4554 
 11858      484F4420 
 11858      5F5F464C 
 11859              	.LASF458:
 11860 4ca4 43485F44 		.ascii	"CH_DBG_STATISTICS TRUE\000"
 11860      42475F53 
 11860      54415449 
 11860      53544943 
 11860      53205452 
 11861              	.LASF1721:
 11862 4cbb 6C6C615F 		.ascii	"lla_of_utm_i\000"
 11862      6F665F75 
 11862      746D5F69 
 11862      00
 11863              	.LASF963:
 11864 4cc8 756E7369 		.ascii	"unsigned signed\000"
 11864      676E6564 
 11864      20736967 
 11864      6E656400 
 11865              	.LASF529:
 11866 4cd8 55544D5F 		.ascii	"UTM_COPY(_u1,_u2) { (_u1).north = (_u2).north; (_u1"
 11866      434F5059 
 11866      285F7531 
 11866      2C5F7532 
 11866      29207B20 
 11867 4d0b 292E6561 		.ascii	").east = (_u2).east; (_u1).alt = (_u2).alt; (_u1).z"
 11867      7374203D 
 11867      20285F75 
 11867      32292E65 
 11867      6173743B 
 11868 4d3e 6F6E6520 		.ascii	"one = (_u2).zone; }\000"
 11868      3D20285F 
 11868      7532292E 
 11868      7A6F6E65 
 11868      3B207D00 
 11869              	.LASF118:
 11870 4d52 5F5F5549 		.ascii	"__UINT_LEAST16_MAX__ 0xffff\000"
 11870      4E545F4C 
 11870      45415354 
 11870      31365F4D 
 11870      41585F5F 
 11871              	.LASF1624:
 11872 4d6e 464C4F41 		.ascii	"FLOAT_MAT33_DIAG(_m,_d00,_d11,_d22) { MAT33_ELMT(_m"
 11872      545F4D41 
 11872      5433335F 
 11872      44494147 
 11872      285F6D2C 
 11873 4da1 2C20302C 		.ascii	", 0, 0) = _d00; MAT33_ELMT(_m, 0, 1) = 0.; MAT33_EL"
 11873      20302920 
 11873      3D205F64 
 11873      30303B20 
 11873      4D415433 
 11874 4dd4 4D54285F 		.ascii	"MT(_m, 0, 2) = 0.; MAT33_ELMT(_m, 1, 0) = 0.; MAT33"
ARM GAS  /tmp/ccKtbbXa.s 			page 249


 11874      6D2C2030 
 11874      2C203229 
 11874      203D2030 
 11874      2E3B204D 
 11875 4e07 5F454C4D 		.ascii	"_ELMT(_m, 1, 1) = _d11; MAT33_ELMT(_m, 1, 2) = 0.; "
 11875      54285F6D 
 11875      2C20312C 
 11875      20312920 
 11875      3D205F64 
 11876 4e3a 4D415433 		.ascii	"MAT33_ELMT(_m, 2, 0) = 0.; MAT33_ELMT(_m, 2, 1) = 0"
 11876      335F454C 
 11876      4D54285F 
 11876      6D2C2032 
 11876      2C203029 
 11877 4e6d 2E3B204D 		.ascii	".; MAT33_ELMT(_m, 2, 2) = _d22; }\000"
 11877      41543333 
 11877      5F454C4D 
 11877      54285F6D 
 11877      2C20322C 
 11878              	.LASF87:
 11879 4e8f 5F5F5349 		.ascii	"__SIZE_WIDTH__ 32\000"
 11879      5A455F57 
 11879      49445448 
 11879      5F5F2033 
 11879      3200
 11880              	.LASF1117:
 11881 4ea1 5F5F6E75 		.ascii	"__null_sentinel __attribute__((__sentinel__))\000"
 11881      6C6C5F73 
 11881      656E7469 
 11881      6E656C20 
 11881      5F5F6174 
 11882              	.LASF419:
 11883 4ecf 5F5F4152 		.ascii	"__ARM_FEATURE_FP16_FML\000"
 11883      4D5F4645 
 11883      41545552 
 11883      455F4650 
 11883      31365F46 
 11884              	.LASF1060:
 11885 4ee6 5F5F474E 		.ascii	"__GNUCLIKE___SECTION 1\000"
 11885      55434C49 
 11885      4B455F5F 
 11885      5F534543 
 11885      54494F4E 
 11886              	.LASF1306:
 11887 4efd 44424C5F 		.ascii	"DBL_MIN_10_EXP\000"
 11887      4D494E5F 
 11887      31305F45 
 11887      585000
 11888              	.LASF1538:
 11889 4f0c 494E5433 		.ascii	"INT32_RMAT_RATEMULT(_rb,_m_a2b,_ra) WARNING(\"INT32"
 11889      325F524D 
 11889      41545F52 
 11889      4154454D 
 11889      554C5428 
 11890 4f3e 5F524D41 		.ascii	"_RMAT_RATEMULT macro is deprecated, use the lower c"
 11890      545F5241 
 11890      54454D55 
ARM GAS  /tmp/ccKtbbXa.s 			page 250


 11890      4C54206D 
 11890      6163726F 
 11891 4f71 61736520 		.ascii	"ase function instead\") int32_rmat_ratemult(&(_rb),"
 11891      66756E63 
 11891      74696F6E 
 11891      20696E73 
 11891      74656164 
 11892 4fa3 2026285F 		.ascii	" &(_m_a2b), &(_ra))\000"
 11892      6D5F6132 
 11892      62292C20 
 11892      26285F72 
 11892      61292900 
 11893              	.LASF23:
 11894 4fb7 5F5F5349 		.ascii	"__SIZEOF_SIZE_T__ 4\000"
 11894      5A454F46 
 11894      5F53495A 
 11894      455F545F 
 11894      5F203400 
 11895              	.LASF473:
 11896 4fcb 4750535F 		.ascii	"GPS_UBX_UCENTER 1\000"
 11896      5542585F 
 11896      5543454E 
 11896      54455220 
 11896      3100
 11897              	.LASF894:
 11898 4fdd 50524975 		.ascii	"PRIuPTR __PRIPTR(u)\000"
 11898      50545220 
 11898      5F5F5052 
 11898      49505452 
 11898      28752900 
 11899              	.LASF1503:
 11900 4ff1 414E474C 		.ascii	"ANGLE_BFP_OF_REAL(_af) BFP_OF_REAL((_af), INT32_ANG"
 11900      455F4246 
 11900      505F4F46 
 11900      5F524541 
 11900      4C285F61 
 11901 5024 4C455F46 		.ascii	"LE_FRAC)\000"
 11901      52414329 
 11901      00
 11902              	.LASF85:
 11903 502d 5F5F5749 		.ascii	"__WINT_WIDTH__ 32\000"
 11903      4E545F57 
 11903      49445448 
 11903      5F5F2033 
 11903      3200
 11904              	.LASF1708:
 11905 503f 65617374 		.ascii	"east\000"
 11905      00
 11906              	.LASF1684:
 11907 5044 4C616D62 		.ascii	"LambdaOfUtmZone(utm_zone) RadOfDeg((utm_zone-1)*6-1"
 11907      64614F66 
 11907      55746D5A 
 11907      6F6E6528 
 11907      75746D5F 
 11908 5077 38302B33 		.ascii	"80+3)\000"
 11908      2900
 11909              	.LASF840:
ARM GAS  /tmp/ccKtbbXa.s 			page 251


 11910 507d 50524975 		.ascii	"PRIu32 __PRI32(u)\000"
 11910      3332205F 
 11910      5F505249 
 11910      33322875 
 11910      2900
 11911              	.LASF912:
 11912 508f 5F505452 		.ascii	"_PTRDIFF_T \000"
 11912      44494646 
 11912      5F542000 
 11913              	.LASF1225:
 11914 509b 4D455353 		.ascii	"MESSAGE_PRAGMAS_H \000"
 11914      4147455F 
 11914      50524147 
 11914      4D41535F 
 11914      482000
 11915              	.LASF470:
 11916 50ae 4750535F 		.ascii	"GPS_LED 3\000"
 11916      4C454420 
 11916      3300
 11917              	.LASF659:
 11918 50b8 494E545F 		.ascii	"INT_LEAST16_MAX __INT_LEAST16_MAX__\000"
 11918      4C454153 
 11918      5431365F 
 11918      4D415820 
 11918      5F5F494E 
 11919              	.LASF546:
 11920 50dc 48415645 		.ascii	"HAVE_INITFINI_ARRAY 1\000"
 11920      5F494E49 
 11920      5446494E 
 11920      495F4152 
 11920      52415920 
 11921              	.LASF494:
 11922 50f2 5348545F 		.ascii	"SHT_DAT_GPIO GPIOB,GPIO1\000"
 11922      4441545F 
 11922      4750494F 
 11922      20475049 
 11922      4F422C47 
 11923              	.LASF1677:
 11924 510b 5050525A 		.ascii	"PPRZ_GEODETIC_UTM_H \000"
 11924      5F47454F 
 11924      44455449 
 11924      435F5554 
 11924      4D5F4820 
 11925              	.LASF774:
 11926 5120 50524964 		.ascii	"PRId8 __PRI8(d)\000"
 11926      38205F5F 
 11926      50524938 
 11926      28642900 
 11927              	.LASF982:
 11928 5130 5F5F6C6F 		.ascii	"__lock_release_recursive(lock) ((void) 0)\000"
 11928      636B5F72 
 11928      656C6561 
 11928      73655F72 
 11928      65637572 
 11929              	.LASF1125:
 11930 515a 5F5F666F 		.ascii	"__format_arg(fmtarg) __attribute__((__format_arg__ "
 11930      726D6174 
ARM GAS  /tmp/ccKtbbXa.s 			page 252


 11930      5F617267 
 11930      28666D74 
 11930      61726729 
 11931 518d 28666D74 		.ascii	"(fmtarg)))\000"
 11931      61726729 
 11931      292900
 11932              	.LASF1634:
 11933 5198 464C4F41 		.ascii	"FLOAT_RMAT_OF_AXIS_ANGLE(_rm,_uv,_an) WARNING(\"FLO"
 11933      545F524D 
 11933      41545F4F 
 11933      465F4158 
 11933      49535F41 
 11934 51ca 41545F52 		.ascii	"AT_RMAT_OF_AXIS_ANGLE macro is deprecated, use the "
 11934      4D41545F 
 11934      4F465F41 
 11934      5849535F 
 11934      414E474C 
 11935 51fd 6C6F7765 		.ascii	"lower case function instead\") float_rmat_of_axis_a"
 11935      72206361 
 11935      73652066 
 11935      756E6374 
 11935      696F6E20 
 11936 522f 6E676C65 		.ascii	"ngle(&(_rm), &(_uv), _an)\000"
 11936      2826285F 
 11936      726D292C 
 11936      2026285F 
 11936      7576292C 
 11937              	.LASF880:
 11938 5249 5052496F 		.ascii	"PRIoMAX __PRIMAX(o)\000"
 11938      4D415820 
 11938      5F5F5052 
 11938      494D4158 
 11938      286F2900 
 11939              	.LASF682:
 11940 525d 494E545F 		.ascii	"INT_FAST16_MAX\000"
 11940      46415354 
 11940      31365F4D 
 11940      415800
 11941              	.LASF1642:
 11942 526c 464C4F41 		.ascii	"FLOAT_QUAT_ZERO(_q) WARNING(\"FLOAT_QUAT_ZERO macro"
 11942      545F5155 
 11942      41545F5A 
 11942      45524F28 
 11942      5F712920 
 11943 529e 20697320 		.ascii	" is deprecated, use the lower case function instead"
 11943      64657072 
 11943      65636174 
 11943      65642C20 
 11943      75736520 
 11944 52d1 22292066 		.ascii	"\") float_quat_identity(&(_q))\000"
 11944      6C6F6174 
 11944      5F717561 
 11944      745F6964 
 11944      656E7469 
 11945              	.LASF861:
 11946 52ef 5052496F 		.ascii	"PRIoFAST32 __PRI32FAST(o)\000"
 11946      46415354 
ARM GAS  /tmp/ccKtbbXa.s 			page 253


 11946      3332205F 
 11946      5F505249 
 11946      33324641 
 11947              	.LASF1399:
 11948 5309 52415445 		.ascii	"RATES_BOUND_CUBE(_v,_min,_max) { (_v).p = (_v).p < "
 11948      535F424F 
 11948      554E445F 
 11948      43554245 
 11948      285F762C 
 11949 533c 285F6D69 		.ascii	"(_min) ? (_min) : (_v).p > (_max) ? (_max) : (_v).p"
 11949      6E29203F 
 11949      20285F6D 
 11949      696E2920 
 11949      3A20285F 
 11950 536f 3B20285F 		.ascii	"; (_v).q = (_v).q < (_min) ? (_min) : (_v).q > (_ma"
 11950      76292E71 
 11950      203D2028 
 11950      5F76292E 
 11950      71203C20 
 11951 53a2 7829203F 		.ascii	"x) ? (_max) : (_v).q; (_v).r = (_v).r < (_min) ? (_"
 11951      20285F6D 
 11951      61782920 
 11951      3A20285F 
 11951      76292E71 
 11952 53d5 6D696E29 		.ascii	"min) : (_v).r > (_max) ? (_max) : (_v).r; }\000"
 11952      203A2028 
 11952      5F76292E 
 11952      72203E20 
 11952      285F6D61 
 11953              	.LASF562:
 11954 5401 5F444546 		.ascii	"_DEFAULT_SOURCE\000"
 11954      41554C54 
 11954      5F534F55 
 11954      52434500 
 11955              	.LASF1171:
 11956 5411 5F5F544D 		.ascii	"__TMP_FLT_EVAL_METHOD \000"
 11956      505F464C 
 11956      545F4556 
 11956      414C5F4D 
 11956      4554484F 
 11957              	.LASF681:
 11958 5428 55494E54 		.ascii	"UINT_FAST8_MAX __UINT_FAST8_MAX__\000"
 11958      5F464153 
 11958      54385F4D 
 11958      4158205F 
 11958      5F55494E 
 11959              	.LASF238:
 11960 544a 5F5F5346 		.ascii	"__SFRACT_FBIT__ 7\000"
 11960      52414354 
 11960      5F464249 
 11960      545F5F20 
 11960      3700
 11961              	.LASF203:
 11962 545c 5F5F464C 		.ascii	"__FLT32_DENORM_MIN__ 1.4012984643248171e-45F32\000"
 11962      5433325F 
 11962      44454E4F 
 11962      524D5F4D 
ARM GAS  /tmp/ccKtbbXa.s 			page 254


 11962      494E5F5F 
 11963              	.LASF1452:
 11964 548b 54524545 		.ascii	"TREE_SIZE_12 (TRIG_INT_VAL_MAX - 12)\000"
 11964      5F53495A 
 11964      455F3132 
 11964      20285452 
 11964      49475F49 
 11965              	.LASF453:
 11966 54b0 43485F44 		.ascii	"CH_DBG_ENABLE_ASSERTS TRUE\000"
 11966      42475F45 
 11966      4E41424C 
 11966      455F4153 
 11966      53455254 
 11967              	.LASF715:
 11968 54cb 50545244 		.ascii	"PTRDIFF_MIN (-PTRDIFF_MAX - 1)\000"
 11968      4946465F 
 11968      4D494E20 
 11968      282D5054 
 11968      52444946 
 11969              	.LASF1578:
 11970 54ea 454D3744 		.ascii	"EM7DEG_OF_DEG(_r) ((_r)*1e7)\000"
 11970      45475F4F 
 11970      465F4445 
 11970      47285F72 
 11970      29202828 
 11971              	.LASF480:
 11972 5507 4D41585F 		.ascii	"MAX_FLI 16\000"
 11972      464C4920 
 11972      313600
 11973              	.LASF851:
 11974 5512 50524975 		.ascii	"PRIuLEAST32 __PRI32LEAST(u)\000"
 11974      4C454153 
 11974      54333220 
 11974      5F5F5052 
 11974      4933324C 
 11975              	.LASF167:
 11976 552e 5F5F4442 		.ascii	"__DBL_DECIMAL_DIG__ 17\000"
 11976      4C5F4445 
 11976      43494D41 
 11976      4C5F4449 
 11976      475F5F20 
 11977              	.LASF18:
 11978 5545 5F5F5349 		.ascii	"__SIZEOF_LONG_LONG__ 8\000"
 11978      5A454F46 
 11978      5F4C4F4E 
 11978      475F4C4F 
 11978      4E475F5F 
 11979              	.LASF1678:
 11980 555c 4520302E 		.ascii	"E 0.08181919106\000"
 11980      30383138 
 11980      31393139 
 11980      31303600 
 11981              	.LASF1478:
 11982 556c 494E5433 		.ascii	"INT32_SPEED_FRAC 19\000"
 11982      325F5350 
 11982      4545445F 
 11982      46524143 
ARM GAS  /tmp/ccKtbbXa.s 			page 255


 11982      20313900 
 11983              	.LASF720:
 11984 5580 53495A45 		.ascii	"SIZE_MAX\000"
 11984      5F4D4158 
 11984      00
 11985              	.LASF59:
 11986 5589 5F5F494E 		.ascii	"__INT_FAST32_TYPE__ int\000"
 11986      545F4641 
 11986      53543332 
 11986      5F545950 
 11986      455F5F20 
 11987              	.LASF723:
 11988 55a1 57434841 		.ascii	"WCHAR_MAX __WCHAR_MAX__\000"
 11988      525F4D41 
 11988      58205F5F 
 11988      57434841 
 11988      525F4D41 
 11989              	.LASF1108:
 11990 55b9 5F5F6E6F 		.ascii	"__nonnull(x) __attribute__((__nonnull__ x))\000"
 11990      6E6E756C 
 11990      6C287829 
 11990      205F5F61 
 11990      74747269 
 11991              	.LASF198:
 11992 55e5 5F5F464C 		.ascii	"__FLT32_DECIMAL_DIG__ 9\000"
 11992      5433325F 
 11992      44454349 
 11992      4D414C5F 
 11992      4449475F 
 11993              	.LASF789:
 11994 55fd 50524975 		.ascii	"PRIuFAST8 __PRI8FAST(u)\000"
 11994      46415354 
 11994      38205F5F 
 11994      50524938 
 11994      46415354 
 11995              	.LASF777:
 11996 5615 50524975 		.ascii	"PRIu8 __PRI8(u)\000"
 11996      38205F5F 
 11996      50524938 
 11996      28752900 
 11997              	.LASF1521:
 11998 5625 494E5433 		.ascii	"INT32_VECT2_NORMALIZE(_v,_frac) WARNING(\"INT32_VEC"
 11998      325F5645 
 11998      4354325F 
 11998      4E4F524D 
 11998      414C495A 
 11999 5657 54325F4E 		.ascii	"T2_NORMALIZE macro is deprecated, use the lower cas"
 11999      4F524D41 
 11999      4C495A45 
 11999      206D6163 
 11999      726F2069 
 12000 568a 65206675 		.ascii	"e function instead\") int32_vect2_normalize(&(_v), "
 12000      6E637469 
 12000      6F6E2069 
 12000      6E737465 
 12000      61642229 
 12001 56bc 5F667261 		.ascii	"_frac)\000"
ARM GAS  /tmp/ccKtbbXa.s 			page 256


 12001      632900
 12002              	.LASF540:
 12003 56c3 5F5F4E45 		.ascii	"__NEWLIB_MINOR__ 3\000"
 12003      574C4942 
 12003      5F4D494E 
 12003      4F525F5F 
 12003      203300
 12004              	.LASF1026:
 12005 56d6 5F524545 		.ascii	"_REENT_MBSRTOWCS_STATE(ptr) ((ptr)->_new._reent._mb"
 12005      4E545F4D 
 12005      42535254 
 12005      4F574353 
 12005      5F535441 
 12006 5709 7372746F 		.ascii	"srtowcs_state)\000"
 12006      7763735F 
 12006      73746174 
 12006      652900
 12007              	.LASF1148:
 12008 5718 5F5F6461 		.ascii	"__datatype_type_tag(kind,type) \000"
 12008      74617479 
 12008      70655F74 
 12008      7970655F 
 12008      74616728 
 12009              	.LASF1177:
 12010 5738 46505F4E 		.ascii	"FP_NORMAL 4\000"
 12010      4F524D41 
 12010      4C203400 
 12011              	.LASF563:
 12012 5744 5F444546 		.ascii	"_DEFAULT_SOURCE 1\000"
 12012      41554C54 
 12012      5F534F55 
 12012      52434520 
 12012      3100
 12013              	.LASF759:
 12014 5756 5F574348 		.ascii	"_WCHAR_T_DEFINED_ \000"
 12014      41525F54 
 12014      5F444546 
 12014      494E4544 
 12014      5F2000
 12015              	.LASF557:
 12016 5769 5F5F4F42 		.ascii	"__OBSOLETE_MATH_DEFAULT 1\000"
 12016      534F4C45 
 12016      54455F4D 
 12016      4154485F 
 12016      44454641 
 12017              	.LASF1049:
 12018 5783 5F5F626F 		.ascii	"__bounded \000"
 12018      756E6465 
 12018      642000
 12019              	.LASF1172:
 12020 578e 464C545F 		.ascii	"FLT_EVAL_METHOD\000"
 12020      4556414C 
 12020      5F4D4554 
 12020      484F4400 
 12021              	.LASF35:
 12022 579e 5F5F5749 		.ascii	"__WINT_TYPE__ unsigned int\000"
 12022      4E545F54 
ARM GAS  /tmp/ccKtbbXa.s 			page 257


 12022      5950455F 
 12022      5F20756E 
 12022      7369676E 
 12023              	.LASF1309:
 12024 57b9 44424C5F 		.ascii	"DBL_MIN_10_EXP __DBL_MIN_10_EXP__\000"
 12024      4D494E5F 
 12024      31305F45 
 12024      5850205F 
 12024      5F44424C 
 12025              	.LASF1259:
 12026 57db 4F722878 		.ascii	"Or(x,y) ((x) || (y))\000"
 12026      2C792920 
 12026      28287829 
 12026      207C7C20 
 12026      28792929 
 12027              	.LASF1352:
 12028 57f0 56454354 		.ascii	"VECT2_SUB(_a,_b) { (_a).x -= (_b).x; (_a).y -= (_b)"
 12028      325F5355 
 12028      42285F61 
 12028      2C5F6229 
 12028      207B2028 
 12029 5823 2E793B20 		.ascii	".y; }\000"
 12029      7D00
 12030              	.LASF957:
 12031 5829 5F5F5F69 		.ascii	"___int_least8_t_defined 1\000"
 12031      6E745F6C 
 12031      65617374 
 12031      385F745F 
 12031      64656669 
 12032              	.LASF1588:
 12033 5843 56454354 		.ascii	"VECT3_FLOAT_OF_CM(_o,_i) { (_o).x = M_OF_CM((float)"
 12033      335F464C 
 12033      4F41545F 
 12033      4F465F43 
 12033      4D285F6F 
 12034 5876 285F6929 		.ascii	"(_i).x); (_o).y = M_OF_CM((float)(_i).y); (_o).z = "
 12034      2E78293B 
 12034      20285F6F 
 12034      292E7920 
 12034      3D204D5F 
 12035 58a9 4D5F4F46 		.ascii	"M_OF_CM((float)(_i).z); }\000"
 12035      5F434D28 
 12035      28666C6F 
 12035      61742928 
 12035      5F69292E 
 12036              	.LASF1147:
 12037 58c3 5F5F6172 		.ascii	"__arg_type_tag(arg_kind,arg_idx,type_tag_idx) \000"
 12037      675F7479 
 12037      70655F74 
 12037      61672861 
 12037      72675F6B 
 12038              	.LASF95:
 12039 58f2 5F5F5349 		.ascii	"__SIG_ATOMIC_WIDTH__ 32\000"
 12039      475F4154 
 12039      4F4D4943 
 12039      5F574944 
 12039      54485F5F 
ARM GAS  /tmp/ccKtbbXa.s 			page 258


 12040              	.LASF547:
 12041 590a 5F415445 		.ascii	"_ATEXIT_DYNAMIC_ALLOC 1\000"
 12041      5849545F 
 12041      44594E41 
 12041      4D49435F 
 12041      414C4C4F 
 12042              	.LASF1453:
 12043 5922 54524947 		.ascii	"TRIG_INT_RLE_LEN 3379\000"
 12043      5F494E54 
 12043      5F524C45 
 12043      5F4C454E 
 12043      20333337 
 12044              	.LASF97:
 12045 5938 5F5F494E 		.ascii	"__INT16_MAX__ 0x7fff\000"
 12045      5431365F 
 12045      4D41585F 
 12045      5F203078 
 12045      37666666 
 12046              	.LASF1737:
 12047 594d 65636566 		.ascii	"ecef_of_enu_point_i\000"
 12047      5F6F665F 
 12047      656E755F 
 12047      706F696E 
 12047      745F6900 
 12048              	.LASF145:
 12049 5961 5F5F464C 		.ascii	"__FLT_MANT_DIG__ 24\000"
 12049      545F4D41 
 12049      4E545F44 
 12049      49475F5F 
 12049      20323400 
 12050              	.LASF896:
 12051 5975 50524958 		.ascii	"PRIXPTR __PRIPTR(X)\000"
 12051      50545220 
 12051      5F5F5052 
 12051      49505452 
 12051      28582900 
 12052              	.LASF1156:
 12053 5989 5F5F6173 		.ascii	"__asserts_exclusive(...) __lock_annotate(assert_exc"
 12053      73657274 
 12053      735F6578 
 12053      636C7573 
 12053      69766528 
 12054 59bc 6C757369 		.ascii	"lusive_lock(__VA_ARGS__))\000"
 12054      76655F6C 
 12054      6F636B28 
 12054      5F5F5641 
 12054      5F415247 
 12055              	.LASF303:
 12056 59d6 5F5F554C 		.ascii	"__ULACCUM_FBIT__ 32\000"
 12056      41434355 
 12056      4D5F4642 
 12056      49545F5F 
 12056      20333200 
 12057              	.LASF1747:
 12058 59ea 6E65645F 		.ascii	"ned_of_ecef_point_i\000"
 12058      6F665F65 
 12058      6365665F 
ARM GAS  /tmp/ccKtbbXa.s 			page 259


 12058      706F696E 
 12058      745F6900 
 12059              	.LASF1066:
 12060 59fe 5F5F474E 		.ascii	"__GNUC_VA_LIST_COMPATIBILITY 1\000"
 12060      55435F56 
 12060      415F4C49 
 12060      53545F43 
 12060      4F4D5041 
 12061              	.LASF783:
 12062 5a1d 50524975 		.ascii	"PRIuLEAST8 __PRI8LEAST(u)\000"
 12062      4C454153 
 12062      5438205F 
 12062      5F505249 
 12062      384C4541 
 12063              	.LASF1157:
 12064 5a37 5F5F6173 		.ascii	"__asserts_shared(...) __lock_annotate(assert_shared"
 12064      73657274 
 12064      735F7368 
 12064      61726564 
 12064      282E2E2E 
 12065 5a6a 5F6C6F63 		.ascii	"_lock(__VA_ARGS__))\000"
 12065      6B285F5F 
 12065      56415F41 
 12065      5247535F 
 12065      5F292900 
 12066              	.LASF860:
 12067 5a7e 50524969 		.ascii	"PRIiFAST32 __PRI32FAST(i)\000"
 12067      46415354 
 12067      3332205F 
 12067      5F505249 
 12067      33324641 
 12068              	.LASF1606:
 12069 5a98 55544D5F 		.ascii	"UTM_DOUBLE_OF_BFP(_o,_i) { (_o).east = M_OF_CM((dou"
 12069      444F5542 
 12069      4C455F4F 
 12069      465F4246 
 12069      50285F6F 
 12070 5acb 626C6529 		.ascii	"ble)(_i).east); (_o).north = M_OF_CM((double)(_i).n"
 12070      285F6929 
 12070      2E656173 
 12070      74293B20 
 12070      285F6F29 
 12071 5afe 6F727468 		.ascii	"orth); (_o).alt = M_OF_MM((double)(_i).alt); (_o).z"
 12071      293B2028 
 12071      5F6F292E 
 12071      616C7420 
 12071      3D204D5F 
 12072 5b31 6F6E6520 		.ascii	"one = (_i).zone; }\000"
 12072      3D20285F 
 12072      69292E7A 
 12072      6F6E653B 
 12072      207D00
 12073              	.LASF399:
 12074 5b44 5F5F4152 		.ascii	"__ARM_ARCH_PROFILE 77\000"
 12074      4D5F4152 
 12074      43485F50 
 12074      524F4649 
ARM GAS  /tmp/ccKtbbXa.s 			page 260


 12074      4C452037 
 12075              	.LASF882:
 12076 5b5a 50524978 		.ascii	"PRIxMAX __PRIMAX(x)\000"
 12076      4D415820 
 12076      5F5F5052 
 12076      494D4158 
 12076      28782900 
 12077              	.LASF1069:
 12078 5b6e 5F5F474E 		.ascii	"__GNUCLIKE_MATH_BUILTIN_RELOPS \000"
 12078      55434C49 
 12078      4B455F4D 
 12078      4154485F 
 12078      4255494C 
 12079              	.LASF1414:
 12080 5b8e 51554154 		.ascii	"QUAT_ASSIGN(_q,_i,_x,_y,_z) { (_q).qi = (_i); (_q)."
 12080      5F415353 
 12080      49474E28 
 12080      5F712C5F 
 12080      692C5F78 
 12081 5bc1 7178203D 		.ascii	"qx = (_x); (_q).qy = (_y); (_q).qz = (_z); }\000"
 12081      20285F78 
 12081      293B2028 
 12081      5F71292E 
 12081      7179203D 
 12082              	.LASF476:
 12083 5bee 48414C5F 		.ascii	"HAL_USE_USB TRUE\000"
 12083      5553455F 
 12083      55534220 
 12083      54525545 
 12083      00
 12084              	.LASF304:
 12085 5bff 5F5F554C 		.ascii	"__ULACCUM_IBIT__ 32\000"
 12085      41434355 
 12085      4D5F4942 
 12085      49545F5F 
 12085      20333200 
 12086              	.LASF432:
 12087 5c13 5F5F4152 		.ascii	"__ARM_FEATURE_COPROC 15\000"
 12087      4D5F4645 
 12087      41545552 
 12087      455F434F 
 12087      50524F43 
 12088              	.LASF71:
 12089 5c2b 5F5F4C4F 		.ascii	"__LONG_MAX__ 0x7fffffffL\000"
 12089      4E475F4D 
 12089      41585F5F 
 12089      20307837 
 12089      66666666 
 12090              	.LASF1680:
 12091 5c44 44454C54 		.ascii	"DELTA_EAST 500000.\000"
 12091      415F4541 
 12091      53542035 
 12091      30303030 
 12091      302E00
 12092              	.LASF1196:
 12093 5c57 7369676E 		.ascii	"signgam (*__signgam())\000"
 12093      67616D20 
ARM GAS  /tmp/ccKtbbXa.s 			page 261


 12093      282A5F5F 
 12093      7369676E 
 12093      67616D28 
 12094              	.LASF1616:
 12095 5c6e 464C4F41 		.ascii	"FLOAT_VECT3_NORMALIZE(_v) float_vect3_normalize(&(_"
 12095      545F5645 
 12095      4354335F 
 12095      4E4F524D 
 12095      414C495A 
 12096 5ca1 76292900 		.ascii	"v))\000"
 12097              	.LASF761:
 12098 5ca5 5F574348 		.ascii	"_WCHAR_T_H \000"
 12098      41525F54 
 12098      5F482000 
 12099              	.LASF104:
 12100 5cb1 5F5F494E 		.ascii	"__INT_LEAST8_MAX__ 0x7f\000"
 12100      545F4C45 
 12100      41535438 
 12100      5F4D4158 
 12100      5F5F2030 
 12101              	.LASF328:
 12102 5cc9 5F5F5551 		.ascii	"__UQQ_FBIT__ 8\000"
 12102      515F4642 
 12102      49545F5F 
 12102      203800
 12103              	.LASF147:
 12104 5cd8 5F5F464C 		.ascii	"__FLT_MIN_EXP__ (-125)\000"
 12104      545F4D49 
 12104      4E5F4558 
 12104      505F5F20 
 12104      282D3132 
 12105              	.LASF1351:
 12106 5cef 56454354 		.ascii	"VECT2_ADD(_a,_b) { (_a).x += (_b).x; (_a).y += (_b)"
 12106      325F4144 
 12106      44285F61 
 12106      2C5F6229 
 12106      207B2028 
 12107 5d22 2E793B20 		.ascii	".y; }\000"
 12107      7D00
 12108              	.LASF1704:
 12109 5d28 4E656443 		.ascii	"NedCoor_i\000"
 12109      6F6F725F 
 12109      6900
 12110              	.LASF471:
 12111 5d32 4750535F 		.ascii	"GPS_TYPE_H \"modules/gps/gps_ubx.h\"\000"
 12111      54595045 
 12111      5F482022 
 12111      6D6F6475 
 12111      6C65732F 
 12112              	.LASF1548:
 12113 5d55 494E5433 		.ascii	"INT32_QUAT_COMP(_a2c,_a2b,_b2c) WARNING(\"INT32_QUA"
 12113      325F5155 
 12113      41545F43 
 12113      4F4D5028 
 12113      5F613263 
 12114 5d87 545F434F 		.ascii	"T_COMP macro is deprecated, use the lower case func"
 12114      4D50206D 
ARM GAS  /tmp/ccKtbbXa.s 			page 262


 12114      6163726F 
 12114      20697320 
 12114      64657072 
 12115 5dba 74696F6E 		.ascii	"tion instead\") int32_quat_comp(&(_a2c), &(_a2b), &"
 12115      20696E73 
 12115      74656164 
 12115      22292069 
 12115      6E743332 
 12116 5dec 285F6232 		.ascii	"(_b2c))\000"
 12116      63292900 
 12117              	.LASF123:
 12118 5df4 5F5F5549 		.ascii	"__UINT64_C(c) c ## ULL\000"
 12118      4E543634 
 12118      5F432863 
 12118      29206320 
 12118      23232055 
 12119              	.LASF1370:
 12120 5e0b 56454354 		.ascii	"VECT3_SDIV(_vo,_vi,_s) { (_vo).x = (_vi).x / (_s); "
 12120      335F5344 
 12120      4956285F 
 12120      766F2C5F 
 12120      76692C5F 
 12121 5e3e 285F766F 		.ascii	"(_vo).y = (_vi).y / (_s); (_vo).z = (_vi).z / (_s);"
 12121      292E7920 
 12121      3D20285F 
 12121      7669292E 
 12121      79202F20 
 12122 5e71 207D00   		.ascii	" }\000"
 12123              	.LASF144:
 12124 5e74 5F5F464C 		.ascii	"__FLT_RADIX__ 2\000"
 12124      545F5241 
 12124      4449585F 
 12124      5F203200 
 12125              	.LASF502:
 12126 5e84 55415254 		.ascii	"UART4_BAUD B38400\000"
 12126      345F4241 
 12126      55442042 
 12126      33383430 
 12126      3000
 12127              	.LASF348:
 12128 5e96 5F5F5553 		.ascii	"__USA_FBIT__ 16\000"
 12128      415F4642 
 12128      49545F5F 
 12128      20313600 
 12129              	.LASF602:
 12130 5ea6 696E7420 		.ascii	"int +2\000"
 12130      2B3200
 12131              	.LASF224:
 12132 5ead 5F5F464C 		.ascii	"__FLT32X_DIG__ 15\000"
 12132      54333258 
 12132      5F444947 
 12132      5F5F2031 
 12132      3500
 12133              	.LASF1707:
 12134 5ebf 6E6F7274 		.ascii	"north\000"
 12134      6800
 12135              	.LASF582:
ARM GAS  /tmp/ccKtbbXa.s 			page 263


 12136 5ec5 5F5F5241 		.ascii	"__RAND_MAX 0x7fffffff\000"
 12136      4E445F4D 
 12136      41582030 
 12136      78376666 
 12136      66666666 
 12137              	.LASF187:
 12138 5edb 5F5F4C44 		.ascii	"__LDBL_EPSILON__ 2.2204460492503131e-16L\000"
 12138      424C5F45 
 12138      5053494C 
 12138      4F4E5F5F 
 12138      20322E32 
 12139              	.LASF477:
 12140 5f04 49324331 		.ascii	"I2C1_CLOCK_SPEED 100000\000"
 12140      5F434C4F 
 12140      434B5F53 
 12140      50454544 
 12140      20313030 
 12141              	.LASF467:
 12142 5f1c 464C4947 		.ascii	"FLIGHTRECORDER_SDLOG 1\000"
 12142      48545245 
 12142      434F5244 
 12142      45525F53 
 12142      444C4F47 
 12143              	.LASF604:
 12144 5f33 5F494E54 		.ascii	"_INTPTR_EQ_INT \000"
 12144      5054525F 
 12144      45515F49 
 12144      4E542000 
 12145              	.LASF142:
 12146 5f43 5F5F464C 		.ascii	"__FLT_EVAL_METHOD_TS_18661_3__ 0\000"
 12146      545F4556 
 12146      414C5F4D 
 12146      4554484F 
 12146      445F5453 
 12147              	.LASF1381:
 12148 5f64 45554C45 		.ascii	"EULERS_COPY(_a,_b) { (_a).phi = (_b).phi; (_a).thet"
 12148      52535F43 
 12148      4F505928 
 12148      5F612C5F 
 12148      6229207B 
 12149 5f97 61203D20 		.ascii	"a = (_b).theta; (_a).psi = (_b).psi; }\000"
 12149      285F6229 
 12149      2E746865 
 12149      74613B20 
 12149      285F6129 
 12150              	.LASF322:
 12151 5fbe 5F5F5351 		.ascii	"__SQ_FBIT__ 31\000"
 12151      5F464249 
 12151      545F5F20 
 12151      333100
 12152              	.LASF90:
 12153 5fcd 5F5F5549 		.ascii	"__UINTMAX_MAX__ 0xffffffffffffffffULL\000"
 12153      4E544D41 
 12153      585F4D41 
 12153      585F5F20 
 12153      30786666 
 12154              	.LASF349:
ARM GAS  /tmp/ccKtbbXa.s 			page 264


 12155 5ff3 5F5F5553 		.ascii	"__USA_IBIT__ 16\000"
 12155      415F4942 
 12155      49545F5F 
 12155      20313600 
 12156              	.LASF292:
 12157 6003 5F5F4143 		.ascii	"__ACCUM_EPSILON__ 0x1P-15K\000"
 12157      43554D5F 
 12157      45505349 
 12157      4C4F4E5F 
 12157      5F203078 
 12158              	.LASF1338:
 12159 601e 464C545F 		.ascii	"FLT_MIN __FLT_MIN__\000"
 12159      4D494E20 
 12159      5F5F464C 
 12159      545F4D49 
 12159      4E5F5F00 
 12160              	.LASF1670:
 12161 6032 444F5542 		.ascii	"DOUBLE_VECT3_ROUND(_v) DOUBLE_VECT3_RINT(_v, _v)\000"
 12161      4C455F56 
 12161      45435433 
 12161      5F524F55 
 12161      4E44285F 
 12162              	.LASF301:
 12163 6063 5F5F4C41 		.ascii	"__LACCUM_MAX__ 0X7FFFFFFFFFFFFFFFP-31LK\000"
 12163      4343554D 
 12163      5F4D4158 
 12163      5F5F2030 
 12163      58374646 
 12164              	.LASF1003:
 12165 608b 5F524545 		.ascii	"_REENT_CHECK_TM(ptr) \000"
 12165      4E545F43 
 12165      4845434B 
 12165      5F544D28 
 12165      70747229 
 12166              	.LASF488:
 12167 60a1 5050525A 		.ascii	"PPRZ_VER_MAJOR 6\000"
 12167      5F564552 
 12167      5F4D414A 
 12167      4F522036 
 12167      00
 12168              	.LASF1220:
 12169 60b2 4D5F494E 		.ascii	"M_INVLN2 1.4426950408889633870E0\000"
 12169      564C4E32 
 12169      20312E34 
 12169      34323639 
 12169      35303430 
 12170              	.LASF1743:
 12171 60d3 6E65645F 		.ascii	"ned_of_ecef_vect_i\000"
 12171      6F665F65 
 12171      6365665F 
 12171      76656374 
 12171      5F6900
 12172              	.LASF1180:
 12173 60e6 4D415448 		.ascii	"MATH_ERRNO 1\000"
 12173      5F455252 
 12173      4E4F2031 
 12173      00
ARM GAS  /tmp/ccKtbbXa.s 			page 265


 12174              	.LASF1032:
 12175 60f3 5F524545 		.ascii	"_REENT_INIT_PTR(var) { memset((var), 0, sizeof(*(va"
 12175      4E545F49 
 12175      4E49545F 
 12175      50545228 
 12175      76617229 
 12176 6126 72292929 		.ascii	"r))); _REENT_INIT_PTR_ZEROED(var); }\000"
 12176      3B205F52 
 12176      45454E54 
 12176      5F494E49 
 12176      545F5054 
 12177              	.LASF690:
 12178 614b 494E545F 		.ascii	"INT_FAST32_MIN\000"
 12178      46415354 
 12178      33325F4D 
 12178      494E00
 12179              	.LASF252:
 12180 615a 5F5F4652 		.ascii	"__FRACT_EPSILON__ 0x1P-15R\000"
 12180      4143545F 
 12180      45505349 
 12180      4C4F4E5F 
 12180      5F203078 
 12181              	.LASF858:
 12182 6175 53434E78 		.ascii	"SCNxLEAST32 __SCN32LEAST(x)\000"
 12182      4C454153 
 12182      54333220 
 12182      5F5F5343 
 12182      4E33324C 
 12183              	.LASF541:
 12184 6191 5F5F4E45 		.ascii	"__NEWLIB_PATCHLEVEL__ 0\000"
 12184      574C4942 
 12184      5F504154 
 12184      43484C45 
 12184      56454C5F 
 12185              	.LASF974:
 12186 61a9 5F5F6C6F 		.ascii	"__lock_init_recursive(lock) ((void) 0)\000"
 12186      636B5F69 
 12186      6E69745F 
 12186      72656375 
 12186      72736976 
 12187              	.LASF782:
 12188 61d0 5052496F 		.ascii	"PRIoLEAST8 __PRI8LEAST(o)\000"
 12188      4C454153 
 12188      5438205F 
 12188      5F505249 
 12188      384C4541 
 12189              	.LASF368:
 12190 61ea 5F5F4743 		.ascii	"__GCC_ATOMIC_INT_LOCK_FREE 2\000"
 12190      435F4154 
 12190      4F4D4943 
 12190      5F494E54 
 12190      5F4C4F43 
 12191              	.LASF1421:
 12192 6207 51554154 		.ascii	"QUAT_EXTRACT_Q(_vo,_qi) { (_vo).x=(_qi).qx; (_vo).y"
 12192      5F455854 
 12192      52414354 
 12192      5F51285F 
ARM GAS  /tmp/ccKtbbXa.s 			page 266


 12192      766F2C5F 
 12193 623a 3D285F71 		.ascii	"=(_qi).qy; (_vo).z=(_qi).qz; }\000"
 12193      69292E71 
 12193      793B2028 
 12193      5F766F29 
 12193      2E7A3D28 
 12194              	.LASF81:
 12195 6259 5F5F494E 		.ascii	"__INT_WIDTH__ 32\000"
 12195      545F5749 
 12195      4454485F 
 12195      5F203332 
 12195      00
 12196              	.LASF1314:
 12197 626a 464C545F 		.ascii	"FLT_MAX_EXP __FLT_MAX_EXP__\000"
 12197      4D41585F 
 12197      45585020 
 12197      5F5F464C 
 12197      545F4D41 
 12198              	.LASF1507:
 12199 6286 54524947 		.ascii	"TRIG_BFP_OF_REAL(_tf) BFP_OF_REAL((_tf), INT32_TRIG"
 12199      5F424650 
 12199      5F4F465F 
 12199      5245414C 
 12199      285F7466 
 12200 62b9 5F465241 		.ascii	"_FRAC)\000"
 12200      432900
 12201              	.LASF1301:
 12202 62c0 4C44424C 		.ascii	"LDBL_MIN_EXP\000"
 12202      5F4D494E 
 12202      5F455850 
 12202      00
 12203              	.LASF1036:
 12204 62cd 5F474C4F 		.ascii	"_GLOBAL_REENT _global_impure_ptr\000"
 12204      42414C5F 
 12204      5245454E 
 12204      54205F67 
 12204      6C6F6261 
 12205              	.LASF209:
 12206 62ee 5F5F464C 		.ascii	"__FLT64_DIG__ 15\000"
 12206      5436345F 
 12206      4449475F 
 12206      5F203135 
 12206      00
 12207              	.LASF422:
 12208 62ff 5F5F4152 		.ascii	"__ARM_NEON\000"
 12208      4D5F4E45 
 12208      4F4E00
 12209              	.LASF519:
 12210 630a 5448554D 		.ascii	"THUMB_PRESENT 1\000"
 12210      425F5052 
 12210      4553454E 
 12210      54203100 
 12211              	.LASF424:
 12212 631a 5F5F4152 		.ascii	"__ARM_ARCH_7EM__ 1\000"
 12212      4D5F4152 
 12212      43485F37 
 12212      454D5F5F 
ARM GAS  /tmp/ccKtbbXa.s 			page 267


 12212      203100
 12213              	.LASF956:
 12214 632d 5F5F5F69 		.ascii	"___int64_t_defined 1\000"
 12214      6E743634 
 12214      5F745F64 
 12214      6566696E 
 12214      65642031 
 12215              	.LASF778:
 12216 6342 50524978 		.ascii	"PRIx8 __PRI8(x)\000"
 12216      38205F5F 
 12216      50524938 
 12216      28782900 
 12217              	.LASF544:
 12218 6352 5F524545 		.ascii	"_REENT_CHECK_VERIFY 1\000"
 12218      4E545F43 
 12218      4845434B 
 12218      5F564552 
 12218      49465920 
 12219              	.LASF1068:
 12220 6368 5F5F474E 		.ascii	"__GNUCLIKE_BUILTIN_NEXT_ARG 1\000"
 12220      55434C49 
 12220      4B455F42 
 12220      55494C54 
 12220      494E5F4E 
 12221              	.LASF791:
 12222 6386 50524958 		.ascii	"PRIXFAST8 __PRI8FAST(X)\000"
 12222      46415354 
 12222      38205F5F 
 12222      50524938 
 12222      46415354 
 12223              	.LASF676:
 12224 639e 494E545F 		.ascii	"INT_FAST8_MAX\000"
 12224      46415354 
 12224      385F4D41 
 12224      5800
 12225              	.LASF1623:
 12226 63ac 464C4F41 		.ascii	"FLOAT_MAT33_ZERO(_m) { MAT33_ELMT(_m, 0, 0) = 0.; M"
 12226      545F4D41 
 12226      5433335F 
 12226      5A45524F 
 12226      285F6D29 
 12227 63df 41543333 		.ascii	"AT33_ELMT(_m, 0, 1) = 0.; MAT33_ELMT(_m, 0, 2) = 0."
 12227      5F454C4D 
 12227      54285F6D 
 12227      2C20302C 
 12227      20312920 
 12228 6412 3B204D41 		.ascii	"; MAT33_ELMT(_m, 1, 0) = 0.; MAT33_ELMT(_m, 1, 1) ="
 12228      5433335F 
 12228      454C4D54 
 12228      285F6D2C 
 12228      20312C20 
 12229 6445 20302E3B 		.ascii	" 0.; MAT33_ELMT(_m, 1, 2) = 0.; MAT33_ELMT(_m, 2, 0"
 12229      204D4154 
 12229      33335F45 
 12229      4C4D5428 
 12229      5F6D2C20 
 12230 6478 29203D20 		.ascii	") = 0.; MAT33_ELMT(_m, 2, 1) = 0.; MAT33_ELMT(_m, 2"
ARM GAS  /tmp/ccKtbbXa.s 			page 268


 12230      302E3B20 
 12230      4D415433 
 12230      335F454C 
 12230      4D54285F 
 12231 64ab 2C203229 		.ascii	", 2) = 0.; }\000"
 12231      203D2030 
 12231      2E3B207D 
 12231      00
 12232              	.LASF229:
 12233 64b8 5F5F464C 		.ascii	"__FLT32X_DECIMAL_DIG__ 17\000"
 12233      54333258 
 12233      5F444543 
 12233      494D414C 
 12233      5F444947 
 12234              	.LASF1272:
 12235 64d2 416C6967 		.ascii	"Align(_x,_a1) (_x%_a1 ? _x + (_a1 - (_x%_a1)) : _x "
 12235      6E285F78 
 12235      2C5F6131 
 12235      2920285F 
 12235      78255F61 
 12236 6505 2900     		.ascii	")\000"
 12237              	.LASF365:
 12238 6507 5F5F4743 		.ascii	"__GCC_ATOMIC_CHAR32_T_LOCK_FREE 2\000"
 12238      435F4154 
 12238      4F4D4943 
 12238      5F434841 
 12238      5233325F 
 12239              	.LASF1593:
 12240 6529 4C4C415F 		.ascii	"LLA_BFP_OF_REAL(_o,_i) { (_o).lat = (int32_t)EM7DEG"
 12240      4246505F 
 12240      4F465F52 
 12240      45414C28 
 12240      5F6F2C5F 
 12241 655c 5F4F465F 		.ascii	"_OF_RAD((_i).lat); (_o).lon = (int32_t)EM7DEG_OF_RA"
 12241      52414428 
 12241      285F6929 
 12241      2E6C6174 
 12241      293B2028 
 12242 658f 4428285F 		.ascii	"D((_i).lon); (_o).alt = (int32_t)MM_OF_M((_i).alt);"
 12242      69292E6C 
 12242      6F6E293B 
 12242      20285F6F 
 12242      292E616C 
 12243 65c2 207D00   		.ascii	" }\000"
 12244              	.LASF493:
 12245 65c5 52414449 		.ascii	"RADIO_CONTROL_TYPE_PPM 1\000"
 12245      4F5F434F 
 12245      4E54524F 
 12245      4C5F5459 
 12245      50455F50 
 12246              	.LASF42:
 12247 65de 5F5F494E 		.ascii	"__INT16_TYPE__ short int\000"
 12247      5431365F 
 12247      54595045 
 12247      5F5F2073 
 12247      686F7274 
 12248              	.LASF465:
ARM GAS  /tmp/ccKtbbXa.s 			page 269


 12249 65f7 444F574E 		.ascii	"DOWNLINK_TRANSPORT pprz_tp\000"
 12249      4C494E4B 
 12249      5F545241 
 12249      4E53504F 
 12249      52542070 
 12250              	.LASF1010:
 12251 6612 5F524545 		.ascii	"_REENT_RAND48_SEED(ptr) ((ptr)->_new._reent._r48._s"
 12251      4E545F52 
 12251      414E4434 
 12251      385F5345 
 12251      45442870 
 12252 6645 65656429 		.ascii	"eed)\000"
 12252      00
 12253              	.LASF1427:
 12254 664a 524D4154 		.ascii	"RMAT_VECT3_MUL(_vout,_rmat,_vin) { (_vout).x = RMAT"
 12254      5F564543 
 12254      54335F4D 
 12254      554C285F 
 12254      766F7574 
 12255 667d 5F454C4D 		.ascii	"_ELMT((_rmat), 0, 0) * (_vin).x + RMAT_ELMT((_rmat)"
 12255      5428285F 
 12255      726D6174 
 12255      292C2030 
 12255      2C203029 
 12256 66b0 2C20302C 		.ascii	", 0, 1) * (_vin).y + RMAT_ELMT((_rmat), 0, 2) * (_v"
 12256      20312920 
 12256      2A20285F 
 12256      76696E29 
 12256      2E79202B 
 12257 66e3 696E292E 		.ascii	"in).z; (_vout).y = RMAT_ELMT((_rmat), 1, 0) * (_vin"
 12257      7A3B2028 
 12257      5F766F75 
 12257      74292E79 
 12257      203D2052 
 12258 6716 292E7820 		.ascii	").x + RMAT_ELMT((_rmat), 1, 1) * (_vin).y + RMAT_EL"
 12258      2B20524D 
 12258      41545F45 
 12258      4C4D5428 
 12258      285F726D 
 12259 6749 4D542828 		.ascii	"MT((_rmat), 1, 2) * (_vin).z; (_vout).z = RMAT_ELMT"
 12259      5F726D61 
 12259      74292C20 
 12259      312C2032 
 12259      29202A20 
 12260 677c 28285F72 		.ascii	"((_rmat), 2, 0) * (_vin).x + RMAT_ELMT((_rmat), 2, "
 12260      6D617429 
 12260      2C20322C 
 12260      20302920 
 12260      2A20285F 
 12261 67af 3129202A 		.ascii	"1) * (_vin).y + RMAT_ELMT((_rmat), 2, 2) * (_vin).z"
 12261      20285F76 
 12261      696E292E 
 12261      79202B20 
 12261      524D4154 
 12262 67e2 3B207D00 		.ascii	"; }\000"
 12263              	.LASF250:
 12264 67e6 5F5F4652 		.ascii	"__FRACT_MIN__ (-0.5R-0.5R)\000"
ARM GAS  /tmp/ccKtbbXa.s 			page 270


 12264      4143545F 
 12264      4D494E5F 
 12264      5F20282D 
 12264      302E3552 
 12265              	.LASF263:
 12266 6801 5F5F554C 		.ascii	"__ULFRACT_FBIT__ 32\000"
 12266      46524143 
 12266      545F4642 
 12266      49545F5F 
 12266      20333200 
 12267              	.LASF1070:
 12268 6815 5F5F474E 		.ascii	"__GNUCLIKE_BUILTIN_MEMCPY 1\000"
 12268      55434C49 
 12268      4B455F42 
 12268      55494C54 
 12268      494E5F4D 
 12269              	.LASF935:
 12270 6831 5F5F5F69 		.ascii	"___int_size_t_h \000"
 12270      6E745F73 
 12270      697A655F 
 12270      745F6820 
 12270      00
 12271              	.LASF1133:
 12272 6842 5F5F7379 		.ascii	"__sym_default(sym,impl,verid) __asm__(\".symver \" "
 12272      6D5F6465 
 12272      6661756C 
 12272      74287379 
 12272      6D2C696D 
 12273 6873 23696D70 		.ascii	"#impl \", \" #sym \"@@\" #verid)\000"
 12273      6C20222C 
 12273      20222023 
 12273      73796D20 
 12273      22404022 
 12274              	.LASF1430:
 12275 6890 45554C45 		.ascii	"EULERS_FLOAT_OF_BFP(_ef,_ei) { (_ef).phi = ANGLE_FL"
 12275      52535F46 
 12275      4C4F4154 
 12275      5F4F465F 
 12275      42465028 
 12276 68c3 4F41545F 		.ascii	"OAT_OF_BFP((_ei).phi); (_ef).theta = ANGLE_FLOAT_OF"
 12276      4F465F42 
 12276      46502828 
 12276      5F656929 
 12276      2E706869 
 12277 68f6 5F424650 		.ascii	"_BFP((_ei).theta); (_ef).psi = ANGLE_FLOAT_OF_BFP(("
 12277      28285F65 
 12277      69292E74 
 12277      68657461 
 12277      293B2028 
 12278 6929 5F656929 		.ascii	"_ei).psi); }\000"
 12278      2E707369 
 12278      293B207D 
 12278      00
 12279              	.LASF931:
 12280 6936 5F53495A 		.ascii	"_SIZE_T_DEFINED_ \000"
 12280      455F545F 
 12280      44454649 
ARM GAS  /tmp/ccKtbbXa.s 			page 271


 12280      4E45445F 
 12280      2000
 12281              	.LASF872:
 12282 6948 5F5F5052 		.ascii	"__PRI64LEAST(x) __LEAST64 __STRINGIFY(x)\000"
 12282      4936344C 
 12282      45415354 
 12282      28782920 
 12282      5F5F4C45 
 12283              	.LASF1454:
 12284 6971 54524947 		.ascii	"TRIG_INT_COMPR_LEN ((TRIG_INT_RLE_LEN + 1) / 2)\000"
 12284      5F494E54 
 12284      5F434F4D 
 12284      50525F4C 
 12284      454E2028 
 12285              	.LASF1736:
 12286 69a1 65636566 		.ascii	"ecef_of_ned_point_i\000"
 12286      5F6F665F 
 12286      6E65645F 
 12286      706F696E 
 12286      745F6900 
 12287              	.LASF369:
 12288 69b5 5F5F4743 		.ascii	"__GCC_ATOMIC_LONG_LOCK_FREE 2\000"
 12288      435F4154 
 12288      4F4D4943 
 12288      5F4C4F4E 
 12288      475F4C4F 
 12289              	.LASF627:
 12290 69d3 5F474343 		.ascii	"_GCC_STDINT_H \000"
 12290      5F535444 
 12290      494E545F 
 12290      482000
 12291              	.LASF1449:
 12292 69e2 54524947 		.ascii	"TRIG_INT_VAL_MAX 14\000"
 12292      5F494E54 
 12292      5F56414C 
 12292      5F4D4158 
 12292      20313400 
 12293              	.LASF893:
 12294 69f6 5052496F 		.ascii	"PRIoPTR __PRIPTR(o)\000"
 12294      50545220 
 12294      5F5F5052 
 12294      49505452 
 12294      286F2900 
 12295              	.LASF713:
 12296 6a0a 50545244 		.ascii	"PTRDIFF_MAX __PTRDIFF_MAX__\000"
 12296      4946465F 
 12296      4D415820 
 12296      5F5F5054 
 12296      52444946 
 12297              	.LASF439:
 12298 6a26 5F5F4758 		.ascii	"__GXX_TYPEINFO_EQUALITY_INLINE 0\000"
 12298      585F5459 
 12298      5045494E 
 12298      464F5F45 
 12298      5155414C 
 12299              	.LASF828:
 12300 6a47 53434E6F 		.ascii	"SCNoFAST16 __SCN16FAST(o)\000"
ARM GAS  /tmp/ccKtbbXa.s 			page 272


 12300      46415354 
 12300      3136205F 
 12300      5F53434E 
 12300      31364641 
 12301              	.LASF330:
 12302 6a61 5F5F5548 		.ascii	"__UHQ_FBIT__ 16\000"
 12302      515F4642 
 12302      49545F5F 
 12302      20313600 
 12303              	.LASF1693:
 12304 6a71 75696E74 		.ascii	"uint8_t\000"
 12304      385F7400 
 12305              	.LASF875:
 12306 6a79 5F5F5343 		.ascii	"__SCN64FAST(x) __FAST64 __STRINGIFY(x)\000"
 12306      4E363446 
 12306      41535428 
 12306      7829205F 
 12306      5F464153 
 12307              	.LASF452:
 12308 6aa0 424F4152 		.ascii	"BOARD_CONFIG \"boards/apogee/chibios/v1.0/board.h\""
 12308      445F434F 
 12308      4E464947 
 12308      2022626F 
 12308      61726473 
 12309 6ad1 00       		.ascii	"\000"
 12310              	.LASF769:
 12311 6ad2 5F535953 		.ascii	"_SYS__LOCALE_H \000"
 12311      5F5F4C4F 
 12311      43414C45 
 12311      5F482000 
 12312              	.LASF781:
 12313 6ae2 50524969 		.ascii	"PRIiLEAST8 __PRI8LEAST(i)\000"
 12313      4C454153 
 12313      5438205F 
 12313      5F505249 
 12313      384C4541 
 12314              	.LASF1439:
 12315 6afc 504F5349 		.ascii	"POSITIONS_BFP_OF_REAL(_ef,_ei) { (_ef).x = POS_BFP_"
 12315      54494F4E 
 12315      535F4246 
 12315      505F4F46 
 12315      5F524541 
 12316 6b2f 4F465F52 		.ascii	"OF_REAL((_ei).x); (_ef).y = POS_BFP_OF_REAL((_ei).y"
 12316      45414C28 
 12316      285F6569 
 12316      292E7829 
 12316      3B20285F 
 12317 6b62 293B2028 		.ascii	"); (_ef).z = POS_BFP_OF_REAL((_ei).z); }\000"
 12317      5F656629 
 12317      2E7A203D 
 12317      20504F53 
 12317      5F424650 
 12318              	.LASF940:
 12319 6b8b 4E554C4C 		.ascii	"NULL\000"
 12319      00
 12320              	.LASF1540:
 12321 6b90 494E5433 		.ascii	"INT32_RMAT_OF_QUAT(_rm,_q) WARNING(\"INT32_RMAT_OF_"
ARM GAS  /tmp/ccKtbbXa.s 			page 273


 12321      325F524D 
 12321      41545F4F 
 12321      465F5155 
 12321      4154285F 
 12322 6bc2 51554154 		.ascii	"QUAT macro is deprecated, use the lower case functi"
 12322      206D6163 
 12322      726F2069 
 12322      73206465 
 12322      70726563 
 12323 6bf5 6F6E2069 		.ascii	"on instead\") int32_rmat_of_quat(&(_rm), &(_q))\000"
 12323      6E737465 
 12323      61642229 
 12323      20696E74 
 12323      33325F72 
 12324              	.LASF1291:
 12325 6c24 44424C5F 		.ascii	"DBL_MANT_DIG __DBL_MANT_DIG__\000"
 12325      4D414E54 
 12325      5F444947 
 12325      205F5F44 
 12325      424C5F4D 
 12326              	.LASF1461:
 12327 6c42 494E5433 		.ascii	"INT32_ATAN2(_a,_y,_x) { _a = int32_atan2(_y, _x); }"
 12327      325F4154 
 12327      414E3228 
 12327      5F612C5F 
 12327      792C5F78 
 12328 6c75 00       		.ascii	"\000"
 12329              	.LASF1460:
 12330 6c76 5050525A 		.ascii	"PPRZ_ITRIG_COS(_c,_a) { _c = pprz_itrig_cos(_a); }\000"
 12330      5F495452 
 12330      49475F43 
 12330      4F53285F 
 12330      632C5F61 
 12331              	.LASF1067:
 12332 6ca9 5F5F636F 		.ascii	"__compiler_membar() __asm __volatile(\" \" : : : \""
 12332      6D70696C 
 12332      65725F6D 
 12332      656D6261 
 12332      72282920 
 12333 6cd9 6D656D6F 		.ascii	"memory\")\000"
 12333      72792229 
 12333      00
 12334              	.LASF1649:
 12335 6ce2 464C4F41 		.ascii	"FLOAT_QUAT_INV_COMP(_b2c,_a2b,_a2c) WARNING(\"FLOAT"
 12335      545F5155 
 12335      41545F49 
 12335      4E565F43 
 12335      4F4D5028 
 12336 6d14 5F515541 		.ascii	"_QUAT_INV_COMP macro is deprecated, use the lower c"
 12336      545F494E 
 12336      565F434F 
 12336      4D50206D 
 12336      6163726F 
 12337 6d47 61736520 		.ascii	"ase function instead\") float_quat_inv_comp(&(_b2c)"
 12337      66756E63 
 12337      74696F6E 
 12337      20696E73 
ARM GAS  /tmp/ccKtbbXa.s 			page 274


 12337      74656164 
 12338 6d79 2C202628 		.ascii	", &(_a2b), &(_a2c))\000"
 12338      5F613262 
 12338      292C2026 
 12338      285F6132 
 12338      63292900 
 12339              	.LASF577:
 12340 6d8d 5F5F5356 		.ascii	"__SVID_VISIBLE 1\000"
 12340      49445F56 
 12340      49534942 
 12340      4C452031 
 12340      00
 12341              	.LASF160:
 12342 6d9e 5F5F4650 		.ascii	"__FP_FAST_FMAF 1\000"
 12342      5F464153 
 12342      545F464D 
 12342      41462031 
 12342      00
 12343              	.LASF1316:
 12344 6daf 4C44424C 		.ascii	"LDBL_MAX_EXP __LDBL_MAX_EXP__\000"
 12344      5F4D4158 
 12344      5F455850 
 12344      205F5F4C 
 12344      44424C5F 
 12345              	.LASF74:
 12346 6dcd 5F5F5743 		.ascii	"__WCHAR_MIN__ 0U\000"
 12346      4841525F 
 12346      4D494E5F 
 12346      5F203055 
 12346      00
 12347              	.LASF1563:
 12348 6dde 494E5433 		.ascii	"INT32_EULERS_RSHIFT(_o,_i,_r) { (_o).phi = ((_i).ph"
 12348      325F4555 
 12348      4C455253 
 12348      5F525348 
 12348      49465428 
 12349 6e11 69203E3E 		.ascii	"i >> (_r)); (_o).theta = ((_i).theta >> (_r)); (_o)"
 12349      20285F72 
 12349      29293B20 
 12349      285F6F29 
 12349      2E746865 
 12350 6e44 2E707369 		.ascii	".psi = ((_i).psi >> (_r)); }\000"
 12350      203D2028 
 12350      285F6929 
 12350      2E707369 
 12350      203E3E20 
 12351              	.LASF1219:
 12352 6e61 4D5F4C4F 		.ascii	"M_LOG2_E _M_LN2\000"
 12352      47325F45 
 12352      205F4D5F 
 12352      4C4E3200 
 12353              	.LASF1002:
 12354 6e71 5F524545 		.ascii	"_REENT_CHECK_MP(ptr) \000"
 12354      4E545F43 
 12354      4845434B 
 12354      5F4D5028 
 12354      70747229 
ARM GAS  /tmp/ccKtbbXa.s 			page 275


 12355              	.LASF1661:
 12356 6e87 464C4F41 		.ascii	"FLOAT_QUAT_OF_ORIENTATION_VECT(_q,_ov) WARNING(\"FL"
 12356      545F5155 
 12356      41545F4F 
 12356      465F4F52 
 12356      49454E54 
 12357 6eb9 4F41545F 		.ascii	"OAT_QUAT_OF_ORIENTATION_VECT macro is deprecated, u"
 12357      51554154 
 12357      5F4F465F 
 12357      4F524945 
 12357      4E544154 
 12358 6eec 73652074 		.ascii	"se the lower case function instead\") float_quat_of"
 12358      6865206C 
 12358      6F776572 
 12358      20636173 
 12358      65206675 
 12359 6f1e 5F6F7269 		.ascii	"_orientation_vect(&(_q), &(_ov))\000"
 12359      656E7461 
 12359      74696F6E 
 12359      5F766563 
 12359      74282628 
 12360              	.LASF815:
 12361 6f3f 53434E64 		.ascii	"SCNdLEAST16 __SCN16LEAST(d)\000"
 12361      4C454153 
 12361      54313620 
 12361      5F5F5343 
 12361      4E31364C 
 12362              	.LASF764:
 12363 6f5b 5F474343 		.ascii	"_GCC_WCHAR_T \000"
 12363      5F574348 
 12363      41525F54 
 12363      2000
 12364              	.LASF829:
 12365 6f69 53434E75 		.ascii	"SCNuFAST16 __SCN16FAST(u)\000"
 12365      46415354 
 12365      3136205F 
 12365      5F53434E 
 12365      31364641 
 12366              	.LASF809:
 12367 6f83 50524964 		.ascii	"PRIdLEAST16 __PRI16LEAST(d)\000"
 12367      4C454153 
 12367      54313620 
 12367      5F5F5052 
 12367      4931364C 
 12368              	.LASF971:
 12369 6f9f 5F5F4C4F 		.ascii	"__LOCK_INIT(class,lock) static int lock = 0;\000"
 12369      434B5F49 
 12369      4E495428 
 12369      636C6173 
 12369      732C6C6F 
 12370              	.LASF1754:
 12371 6fcc 636F735F 		.ascii	"cos_lat\000"
 12371      6C617400 
 12372              	.LASF606:
 12373 6fd4 5F5F494E 		.ascii	"__INT8 \"hh\"\000"
 12373      54382022 
 12373      68682200 
ARM GAS  /tmp/ccKtbbXa.s 			page 276


 12374              	.LASF272:
 12375 6fe0 5F5F4C4C 		.ascii	"__LLFRACT_EPSILON__ 0x1P-63LLR\000"
 12375      46524143 
 12375      545F4550 
 12375      53494C4F 
 12375      4E5F5F20 
 12376              	.LASF1669:
 12377 6fff 5050525A 		.ascii	"PPRZ_ALGEBRA_DOUBLE_H \000"
 12377      5F414C47 
 12377      45425241 
 12377      5F444F55 
 12377      424C455F 
 12378              	.LASF131:
 12379 7016 5F5F494E 		.ascii	"__INT_FAST64_WIDTH__ 64\000"
 12379      545F4641 
 12379      53543634 
 12379      5F574944 
 12379      54485F5F 
 12380              	.LASF248:
 12381 702e 5F5F4652 		.ascii	"__FRACT_FBIT__ 15\000"
 12381      4143545F 
 12381      46424954 
 12381      5F5F2031 
 12381      3500
 12382              	.LASF1429:
 12383 7040 524D4154 		.ascii	"RMAT_COPY(_o,_i) { memcpy(&(_o), &(_i), sizeof(_o))"
 12383      5F434F50 
 12383      59285F6F 
 12383      2C5F6929 
 12383      207B206D 
 12384 7073 3B7D00   		.ascii	";}\000"
 12385              	.LASF1087:
 12386 7076 5F5F6465 		.ascii	"__dead2 __attribute__((__noreturn__))\000"
 12386      61643220 
 12386      5F5F6174 
 12386      74726962 
 12386      7574655F 
 12387              	.LASF944:
 12388 709c 5F5F6E65 		.ascii	"__need_size_t \000"
 12388      65645F73 
 12388      697A655F 
 12388      742000
 12389              	.LASF1227:
 12390 70ab 56414C55 		.ascii	"VALUE_TO_STRING(x) #x\000"
 12390      455F544F 
 12390      5F535452 
 12390      494E4728 
 12390      78292023 
 12391              	.LASF306:
 12392 70c1 5F5F554C 		.ascii	"__ULACCUM_MAX__ 0XFFFFFFFFFFFFFFFFP-32ULK\000"
 12392      41434355 
 12392      4D5F4D41 
 12392      585F5F20 
 12392      30584646 
 12393              	.LASF98:
 12394 70eb 5F5F494E 		.ascii	"__INT32_MAX__ 0x7fffffffL\000"
 12394      5433325F 
ARM GAS  /tmp/ccKtbbXa.s 			page 277


 12394      4D41585F 
 12394      5F203078 
 12394      37666666 
 12395              	.LASF1085:
 12396 7105 5F5F766F 		.ascii	"__volatile volatile\000"
 12396      6C617469 
 12396      6C652076 
 12396      6F6C6174 
 12396      696C6500 
 12397              	.LASF1285:
 12398 7119 464C545F 		.ascii	"FLT_RADIX\000"
 12398      52414449 
 12398      5800
 12399              	.LASF1651:
 12400 7123 464C4F41 		.ascii	"FLOAT_QUAT_COMP_NORM_SHORTEST(_a2c,_a2b,_b2c) WARNI"
 12400      545F5155 
 12400      41545F43 
 12400      4F4D505F 
 12400      4E4F524D 
 12401 7156 4E472822 		.ascii	"NG(\"FLOAT_QUAT_COMP_NORM_SHORTEST macro is depreca"
 12401      464C4F41 
 12401      545F5155 
 12401      41545F43 
 12401      4F4D505F 
 12402 7188 7465642C 		.ascii	"ted, use the lower case function instead\") float_q"
 12402      20757365 
 12402      20746865 
 12402      206C6F77 
 12402      65722063 
 12403 71ba 7561745F 		.ascii	"uat_comp_norm_shortest(&(_a2c), &(_a2b), &(_b2c))\000"
 12403      636F6D70 
 12403      5F6E6F72 
 12403      6D5F7368 
 12403      6F727465 
 12404              	.LASF358:
 12405 71ec 5F5F4348 		.ascii	"__CHAR_UNSIGNED__ 1\000"
 12405      41525F55 
 12405      4E534947 
 12405      4E45445F 
 12405      5F203100 
 12406              	.LASF1490:
 12407 7200 494E5433 		.ascii	"INT32_ANGLE_PI (int32_t)ANGLE_BFP_OF_REAL( 3.141592"
 12407      325F414E 
 12407      474C455F 
 12407      50492028 
 12407      696E7433 
 12408 7233 36353335 		.ascii	"6535897932384626433832795029)\000"
 12408      38393739 
 12408      33323338 
 12408      34363236 
 12408      34333338 
 12409              	.LASF766:
 12410 7251 5F425344 		.ascii	"_BSD_WCHAR_T_\000"
 12410      5F574348 
 12410      41525F54 
 12410      5F00
 12411              	.LASF1304:
ARM GAS  /tmp/ccKtbbXa.s 			page 278


 12412 725f 4C44424C 		.ascii	"LDBL_MIN_EXP __LDBL_MIN_EXP__\000"
 12412      5F4D494E 
 12412      5F455850 
 12412      205F5F4C 
 12412      44424C5F 
 12413              	.LASF68:
 12414 727d 5F5F5343 		.ascii	"__SCHAR_MAX__ 0x7f\000"
 12414      4841525F 
 12414      4D41585F 
 12414      5F203078 
 12414      376600
 12415              	.LASF374:
 12416 7290 5F5F4743 		.ascii	"__GCC_HAVE_DWARF2_CFI_ASM 1\000"
 12416      435F4841 
 12416      56455F44 
 12416      57415246 
 12416      325F4346 
 12417              	.LASF1462:
 12418 72ac 494E5433 		.ascii	"INT32_ATAN2_2(_a,_y,_x) { _a = int32_atan2_2(_y, _x"
 12418      325F4154 
 12418      414E325F 
 12418      32285F61 
 12418      2C5F792C 
 12419 72df 293B207D 		.ascii	"); }\000"
 12419      00
 12420              	.LASF635:
 12421 72e4 494E5431 		.ascii	"INT16_MAX __INT16_MAX__\000"
 12421      365F4D41 
 12421      58205F5F 
 12421      494E5431 
 12421      365F4D41 
 12422              	.LASF929:
 12423 72fc 5F53495A 		.ascii	"_SIZE_T_ \000"
 12423      455F545F 
 12423      2000
 12424              	.LASF1310:
 12425 7306 4C44424C 		.ascii	"LDBL_MIN_10_EXP __LDBL_MIN_10_EXP__\000"
 12425      5F4D494E 
 12425      5F31305F 
 12425      45585020 
 12425      5F5F4C44 
 12426              	.LASF1637:
 12427 732a 464C4F41 		.ascii	"FLOAT_RMAT_OF_EULERS_312(_rm,_e) WARNING(\"FLOAT_RM"
 12427      545F524D 
 12427      41545F4F 
 12427      465F4555 
 12427      4C455253 
 12428 735c 41545F4F 		.ascii	"AT_OF_EULERS_312 macro is deprecated, use the lower"
 12428      465F4555 
 12428      4C455253 
 12428      5F333132 
 12428      206D6163 
 12429 738f 20636173 		.ascii	" case function instead\") float_rmat_of_eulers_312("
 12429      65206675 
 12429      6E637469 
 12429      6F6E2069 
 12429      6E737465 
ARM GAS  /tmp/ccKtbbXa.s 			page 279


 12430 73c1 26285F72 		.ascii	"&(_rm), &(_e))\000"
 12430      6D292C20 
 12430      26285F65 
 12430      292900
 12431              	.LASF1579:
 12432 73d0 4445475F 		.ascii	"DEG_OF_EM7DEG(_r) ((_r)/1e7)\000"
 12432      4F465F45 
 12432      4D374445 
 12432      47285F72 
 12432      29202828 
 12433              	.LASF1685:
 12434 73ed 55746D5A 		.ascii	"UtmZoneOfLlaLonRad(lla_lon) (floor(DegOfRad(lla_lon"
 12434      6F6E654F 
 12434      664C6C61 
 12434      4C6F6E52 
 12434      6164286C 
 12435 7420 29202B20 		.ascii	") + 180) / 6) + 1\000"
 12435      31383029 
 12435      202F2036 
 12435      29202B20 
 12435      3100
 12436              	.LASF1242:
 12437 7432 54525545 		.ascii	"TRUE true\000"
 12437      20747275 
 12437      6500
 12438              	.LASF276:
 12439 743c 5F5F554C 		.ascii	"__ULLFRACT_MAX__ 0XFFFFFFFFFFFFFFFFP-64ULLR\000"
 12439      4C465241 
 12439      43545F4D 
 12439      41585F5F 
 12439      20305846 
 12440              	.LASF1667:
 12441 7468 4D414B45 		.ascii	"MAKE_MATRIX_PTR(_ptr,_mat,_rows) float * _ptr[_rows"
 12441      5F4D4154 
 12441      5249585F 
 12441      50545228 
 12441      5F707472 
 12442 749b 5D3B207B 		.ascii	"]; { int __i; for (__i = 0; __i < _rows; __i++) { _"
 12442      20696E74 
 12442      205F5F69 
 12442      3B20666F 
 12442      7220285F 
 12443 74ce 7074725B 		.ascii	"ptr[__i] = &_mat[__i][0]; } }\000"
 12443      5F5F695D 
 12443      203D2026 
 12443      5F6D6174 
 12443      5B5F5F69 
 12444              	.LASF921:
 12445 74ec 5F5F6E65 		.ascii	"__need_ptrdiff_t\000"
 12445      65645F70 
 12445      74726469 
 12445      66665F74 
 12445      00
 12446              	.LASF1445:
 12447 74fd 4D414753 		.ascii	"MAGS_BFP_OF_REAL(_ef,_ei) { (_ef).x = MAG_BFP_OF_RE"
 12447      5F424650 
 12447      5F4F465F 
ARM GAS  /tmp/ccKtbbXa.s 			page 280


 12447      5245414C 
 12447      285F6566 
 12448 7530 414C2828 		.ascii	"AL((_ei).x); (_ef).y = MAG_BFP_OF_REAL((_ei).y); (_"
 12448      5F656929 
 12448      2E78293B 
 12448      20285F65 
 12448      66292E79 
 12449 7563 6566292E 		.ascii	"ef).z = MAG_BFP_OF_REAL((_ei).z); }\000"
 12449      7A203D20 
 12449      4D41475F 
 12449      4246505F 
 12449      4F465F52 
 12450              	.LASF1496:
 12451 7587 494E5433 		.ascii	"INT32_TRIG_FRAC 14\000"
 12451      325F5452 
 12451      49475F46 
 12451      52414320 
 12451      313400
 12452              	.LASF338:
 12453 759a 5F5F4841 		.ascii	"__HA_FBIT__ 7\000"
 12453      5F464249 
 12453      545F5F20 
 12453      3700
 12454              	.LASF1354:
 12455 75a8 56454354 		.ascii	"VECT2_DIFF(_c,_a,_b) { (_c).x = (_a).x - (_b).x; (_"
 12455      325F4449 
 12455      4646285F 
 12455      632C5F61 
 12455      2C5F6229 
 12456 75db 63292E79 		.ascii	"c).y = (_a).y - (_b).y; }\000"
 12456      203D2028 
 12456      5F61292E 
 12456      79202D20 
 12456      285F6229 
 12457              	.LASF295:
 12458 75f5 5F5F5541 		.ascii	"__UACCUM_MIN__ 0.0UK\000"
 12458      4343554D 
 12458      5F4D494E 
 12458      5F5F2030 
 12458      2E30554B 
 12459              	.LASF1710:
 12460 760a 4C747044 		.ascii	"LtpDef_i\000"
 12460      65665F69 
 12460      00
 12461              	.LASF665:
 12462 7613 494E545F 		.ascii	"INT_LEAST32_MAX __INT_LEAST32_MAX__\000"
 12462      4C454153 
 12462      5433325F 
 12462      4D415820 
 12462      5F5F494E 
 12463              	.LASF1056:
 12464 7637 5F5F474E 		.ascii	"__GNUCLIKE_ASM 3\000"
 12464      55434C49 
 12464      4B455F41 
 12464      534D2033 
 12464      00
 12465              	.LASF430:
ARM GAS  /tmp/ccKtbbXa.s 			page 281


 12466 7648 5F5F4152 		.ascii	"__ARM_ASM_SYNTAX_UNIFIED__ 1\000"
 12466      4D5F4153 
 12466      4D5F5359 
 12466      4E544158 
 12466      5F554E49 
 12467              	.LASF1647:
 12468 7665 464C4F41 		.ascii	"FLOAT_QUAT_COMP(_a2c,_a2b,_b2c) WARNING(\"FLOAT_QUA"
 12468      545F5155 
 12468      41545F43 
 12468      4F4D5028 
 12468      5F613263 
 12469 7697 545F434F 		.ascii	"T_COMP macro is deprecated, use the lower case func"
 12469      4D50206D 
 12469      6163726F 
 12469      20697320 
 12469      64657072 
 12470 76ca 74696F6E 		.ascii	"tion instead\") float_quat_comp(&(_a2c), &(_a2b), &"
 12470      20696E73 
 12470      74656164 
 12470      22292066 
 12470      6C6F6174 
 12471 76fc 285F6232 		.ascii	"(_b2c))\000"
 12471      63292900 
 12472              	.LASF1372:
 12473 7704 56454354 		.ascii	"VECT3_EW_DIV(_vo,_va,_vb) { (_vo).x = (_va).x / (_v"
 12473      335F4557 
 12473      5F444956 
 12473      285F766F 
 12473      2C5F7661 
 12474 7737 62292E78 		.ascii	"b).x; (_vo).y = (_va).y / (_vb).y; (_vo).z = (_va)."
 12474      3B20285F 
 12474      766F292E 
 12474      79203D20 
 12474      285F7661 
 12475 776a 7A202F20 		.ascii	"z / (_vb).z; }\000"
 12475      285F7662 
 12475      292E7A3B 
 12475      207D00
 12476              	.LASF833:
 12477 7779 5F5F5052 		.ascii	"__PRI32LEAST(x) __LEAST32 __STRINGIFY(x)\000"
 12477      4933324C 
 12477      45415354 
 12477      28782920 
 12477      5F5F4C45 
 12478              	.LASF1407:
 12479 77a2 4D415433 		.ascii	"MAT33_VECT3_TRANSP_MUL(_vout,_mat,_vin) { (_vout).x"
 12479      335F5645 
 12479      4354335F 
 12479      5452414E 
 12479      53505F4D 
 12480 77d5 203D204D 		.ascii	" = MAT33_ELMT((_mat), 0, 0) * (_vin).x + MAT33_ELMT"
 12480      41543333 
 12480      5F454C4D 
 12480      5428285F 
 12480      6D617429 
 12481 7808 28285F6D 		.ascii	"((_mat), 1, 0) * (_vin).y + MAT33_ELMT((_mat), 2, 0"
 12481      6174292C 
ARM GAS  /tmp/ccKtbbXa.s 			page 282


 12481      20312C20 
 12481      3029202A 
 12481      20285F76 
 12482 783b 29202A20 		.ascii	") * (_vin).z; (_vout).y = MAT33_ELMT((_mat), 0, 1) "
 12482      285F7669 
 12482      6E292E7A 
 12482      3B20285F 
 12482      766F7574 
 12483 786e 2A20285F 		.ascii	"* (_vin).x + MAT33_ELMT((_mat), 1, 1) * (_vin).y + "
 12483      76696E29 
 12483      2E78202B 
 12483      204D4154 
 12483      33335F45 
 12484 78a1 4D415433 		.ascii	"MAT33_ELMT((_mat), 2, 1) * (_vin).z; (_vout).z = MA"
 12484      335F454C 
 12484      4D542828 
 12484      5F6D6174 
 12484      292C2032 
 12485 78d4 5433335F 		.ascii	"T33_ELMT((_mat), 0, 2) * (_vin).x + MAT33_ELMT((_ma"
 12485      454C4D54 
 12485      28285F6D 
 12485      6174292C 
 12485      20302C20 
 12486 7907 74292C20 		.ascii	"t), 1, 2) * (_vin).y + MAT33_ELMT((_mat), 2, 2) * ("
 12486      312C2032 
 12486      29202A20 
 12486      285F7669 
 12486      6E292E79 
 12487 793a 5F76696E 		.ascii	"_vin).z; }\000"
 12487      292E7A3B 
 12487      207D00
 12488              	.LASF159:
 12489 7945 5F5F464C 		.ascii	"__FLT_HAS_QUIET_NAN__ 1\000"
 12489      545F4841 
 12489      535F5155 
 12489      4945545F 
 12489      4E414E5F 
 12490              	.LASF1111:
 12491 795d 5F5F7265 		.ascii	"__result_use_check __attribute__((__warn_unused_res"
 12491      73756C74 
 12491      5F757365 
 12491      5F636865 
 12491      636B205F 
 12492 7990 756C745F 		.ascii	"ult__))\000"
 12492      5F292900 
 12493              	.LASF699:
 12494 7998 55494E54 		.ascii	"UINT_FAST64_MAX __UINT_FAST64_MAX__\000"
 12494      5F464153 
 12494      5436345F 
 12494      4D415820 
 12494      5F5F5549 
 12495              	.LASF596:
 12496 79bc 7369676E 		.ascii	"signed +0\000"
 12496      6564202B 
 12496      3000
 12497              	.LASF1328:
 12498 79c6 4C44424C 		.ascii	"LDBL_MAX __LDBL_MAX__\000"
ARM GAS  /tmp/ccKtbbXa.s 			page 283


 12498      5F4D4158 
 12498      205F5F4C 
 12498      44424C5F 
 12498      4D41585F 
 12499              	.LASF231:
 12500 79dc 5F5F464C 		.ascii	"__FLT32X_NORM_MAX__ 1.7976931348623157e+308F32x\000"
 12500      54333258 
 12500      5F4E4F52 
 12500      4D5F4D41 
 12500      585F5F20 
 12501              	.LASF1524:
 12502 7a0c 494E5433 		.ascii	"INT32_VECT2_SCALE_2(_a,_b,_num,_den) { (_a).x = ((_"
 12502      325F5645 
 12502      4354325F 
 12502      5343414C 
 12502      455F3228 
 12503 7a3f 62292E78 		.ascii	"b).x * (_num)) / (_den); (_a).y = ((_b).y * (_num))"
 12503      202A2028 
 12503      5F6E756D 
 12503      2929202F 
 12503      20285F64 
 12504 7a72 202F2028 		.ascii	" / (_den); }\000"
 12504      5F64656E 
 12504      293B207D 
 12504      00
 12505              	.LASF886:
 12506 7a7f 53434E6F 		.ascii	"SCNoMAX __SCNMAX(o)\000"
 12506      4D415820 
 12506      5F5F5343 
 12506      4E4D4158 
 12506      286F2900 
 12507              	.LASF826:
 12508 7a93 53434E64 		.ascii	"SCNdFAST16 __SCN16FAST(d)\000"
 12508      46415354 
 12508      3136205F 
 12508      5F53434E 
 12508      31364641 
 12509              	.LASF717:
 12510 7aad 5349475F 		.ascii	"SIG_ATOMIC_MAX __SIG_ATOMIC_MAX__\000"
 12510      41544F4D 
 12510      49435F4D 
 12510      4158205F 
 12510      5F534947 
 12511              	.LASF1000:
 12512 7acf 5F524545 		.ascii	"_REENT_INIT_PTR_ZEROED(var) { (var)->_stdin = _REEN"
 12512      4E545F49 
 12512      4E49545F 
 12512      5054525F 
 12512      5A45524F 
 12513 7b02 545F5354 		.ascii	"T_STDIO_STREAM(var, 0); (var)->_stdout = _REENT_STD"
 12513      44494F5F 
 12513      53545245 
 12513      414D2876 
 12513      61722C20 
 12514 7b35 494F5F53 		.ascii	"IO_STREAM(var, 1); (var)->_stderr = _REENT_STDIO_ST"
 12514      54524541 
 12514      4D287661 
ARM GAS  /tmp/ccKtbbXa.s 			page 284


 12514      722C2031 
 12514      293B2028 
 12515 7b68 5245414D 		.ascii	"REAM(var, 2); (var)->_new._reent._rand_next = 1; (v"
 12515      28766172 
 12515      2C203229 
 12515      3B202876 
 12515      6172292D 
 12516 7b9b 6172292D 		.ascii	"ar)->_new._reent._r48._seed[0] = _RAND48_SEED_0; (v"
 12516      3E5F6E65 
 12516      772E5F72 
 12516      65656E74 
 12516      2E5F7234 
 12517 7bce 6172292D 		.ascii	"ar)->_new._reent._r48._seed[1] = _RAND48_SEED_1; (v"
 12517      3E5F6E65 
 12517      772E5F72 
 12517      65656E74 
 12517      2E5F7234 
 12518 7c01 6172292D 		.ascii	"ar)->_new._reent._r48._seed[2] = _RAND48_SEED_2; (v"
 12518      3E5F6E65 
 12518      772E5F72 
 12518      65656E74 
 12518      2E5F7234 
 12519 7c34 6172292D 		.ascii	"ar)->_new._reent._r48._mult[0] = _RAND48_MULT_0; (v"
 12519      3E5F6E65 
 12519      772E5F72 
 12519      65656E74 
 12519      2E5F7234 
 12520 7c67 6172292D 		.ascii	"ar)->_new._reent._r48._mult[1] = _RAND48_MULT_1; (v"
 12520      3E5F6E65 
 12520      772E5F72 
 12520      65656E74 
 12520      2E5F7234 
 12521 7c9a 6172292D 		.ascii	"ar)->_new._reent._r48._mult[2] = _RAND48_MULT_2; (v"
 12521      3E5F6E65 
 12521      772E5F72 
 12521      65656E74 
 12521      2E5F7234 
 12522 7ccd 6172292D 		.ascii	"ar)->_new._reent._r48._add = _RAND48_ADD; }\000"
 12522      3E5F6E65 
 12522      772E5F72 
 12522      65656E74 
 12522      2E5F7234 
 12523              	.LASF1491:
 12524 7cf9 494E5433 		.ascii	"INT32_ANGLE_2_PI (int32_t)ANGLE_BFP_OF_REAL(2.*3.14"
 12524      325F414E 
 12524      474C455F 
 12524      325F5049 
 12524      2028696E 
 12525 7d2c 31353932 		.ascii	"15926535897932384626433832795029)\000"
 12525      36353335 
 12525      38393739 
 12525      33323338 
 12525      34363236 
 12526              	.LASF515:
 12527 7d4e 5553455F 		.ascii	"USE_PPM TRUE\000"
 12527      50504D20 
 12527      54525545 
ARM GAS  /tmp/ccKtbbXa.s 			page 285


 12527      00
 12528              	.LASF1587:
 12529 7d5b 56454354 		.ascii	"VECT3_CM_OF_REAL(_o,_i) { (_o).x = (int32_t)CM_OF_M"
 12529      335F434D 
 12529      5F4F465F 
 12529      5245414C 
 12529      285F6F2C 
 12530 7d8e 28285F69 		.ascii	"((_i).x); (_o).y = (int32_t)CM_OF_M((_i).y); (_o).z"
 12530      292E7829 
 12530      3B20285F 
 12530      6F292E79 
 12530      203D2028 
 12531 7dc1 203D2028 		.ascii	" = (int32_t)CM_OF_M((_i).z); }\000"
 12531      696E7433 
 12531      325F7429 
 12531      434D5F4F 
 12531      465F4D28 
 12532              	.LASF748:
 12533 7de0 55494E54 		.ascii	"UINTMAX_C\000"
 12533      4D41585F 
 12533      4300
 12534              	.LASF1014:
 12535 7dea 5F524545 		.ascii	"_REENT_MP_RESULT_K(ptr) ((ptr)->_result_k)\000"
 12535      4E545F4D 
 12535      505F5245 
 12535      53554C54 
 12535      5F4B2870 
 12536              	.LASF79:
 12537 7e15 5F5F5343 		.ascii	"__SCHAR_WIDTH__ 8\000"
 12537      4841525F 
 12537      57494454 
 12537      485F5F20 
 12537      3800
 12538              	.LASF1409:
 12539 7e27 4D415433 		.ascii	"MAT33_ROW_VECT3_SMUL(_mat,_row,_vin,_s) { MAT33_ELM"
 12539      335F524F 
 12539      575F5645 
 12539      4354335F 
 12539      534D554C 
 12540 7e5a 5428285F 		.ascii	"T((_mat), _row, 0) = (_vin).x * (_s); MAT33_ELMT((_"
 12540      6D617429 
 12540      2C205F72 
 12540      6F772C20 
 12540      3029203D 
 12541 7e8d 6D617429 		.ascii	"mat), _row, 1) = (_vin).y * (_s); MAT33_ELMT((_mat)"
 12541      2C205F72 
 12541      6F772C20 
 12541      3129203D 
 12541      20285F76 
 12542 7ec0 2C205F72 		.ascii	", _row, 2) = (_vin).z * (_s); }\000"
 12542      6F772C20 
 12542      3229203D 
 12542      20285F76 
 12542      696E292E 
 12543              	.LASF1241:
 12544 7ee0 46414C53 		.ascii	"FALSE false\000"
 12544      45206661 
ARM GAS  /tmp/ccKtbbXa.s 			page 286


 12544      6C736500 
 12545              	.LASF28:
 12546 7eec 5F5F4F52 		.ascii	"__ORDER_PDP_ENDIAN__ 3412\000"
 12546      4445525F 
 12546      5044505F 
 12546      454E4449 
 12546      414E5F5F 
 12547              	.LASF1230:
 12548 7f06 4D455353 		.ascii	"MESSAGE(x) DO_PRAGMA(message (x))\000"
 12548      41474528 
 12548      78292044 
 12548      4F5F5052 
 12548      41474D41 
 12549              	.LASF11:
 12550 7f28 5F5F4154 		.ascii	"__ATOMIC_ACQUIRE 2\000"
 12550      4F4D4943 
 12550      5F414351 
 12550      55495245 
 12550      203200
 12551              	.LASF129:
 12552 7f3b 5F5F494E 		.ascii	"__INT_FAST32_WIDTH__ 32\000"
 12552      545F4641 
 12552      53543332 
 12552      5F574944 
 12552      54485F5F 
 12553              	.LASF378:
 12554 7f53 5F5F5349 		.ascii	"__SIZEOF_PTRDIFF_T__ 4\000"
 12554      5A454F46 
 12554      5F505452 
 12554      44494646 
 12554      5F545F5F 
 12555              	.LASF60:
 12556 7f6a 5F5F494E 		.ascii	"__INT_FAST64_TYPE__ long long int\000"
 12556      545F4641 
 12556      53543634 
 12556      5F545950 
 12556      455F5F20 
 12557              	.LASF1107:
 12558 7f8c 5F5F6E6F 		.ascii	"__noinline __attribute__ ((__noinline__))\000"
 12558      696E6C69 
 12558      6E65205F 
 12558      5F617474 
 12558      72696275 
 12559              	.LASF288:
 12560 7fb6 5F5F4143 		.ascii	"__ACCUM_FBIT__ 15\000"
 12560      43554D5F 
 12560      46424954 
 12560      5F5F2031 
 12560      3500
 12561              	.LASF1046:
 12562 7fc8 5F5F6174 		.ascii	"__attribute_pure__ \000"
 12562      74726962 
 12562      7574655F 
 12562      70757265 
 12562      5F5F2000 
 12563              	.LASF548:
 12564 7fdc 5F484156 		.ascii	"_HAVE_LONG_DOUBLE 1\000"
ARM GAS  /tmp/ccKtbbXa.s 			page 287


 12564      455F4C4F 
 12564      4E475F44 
 12564      4F55424C 
 12564      45203100 
 12565              	.LASF113:
 12566 7ff0 5F5F494E 		.ascii	"__INT_LEAST64_MAX__ 0x7fffffffffffffffLL\000"
 12566      545F4C45 
 12566      41535436 
 12566      345F4D41 
 12566      585F5F20 
 12567              	.LASF1444:
 12568 8019 4D414753 		.ascii	"MAGS_FLOAT_OF_BFP(_ef,_ei) { (_ef).x = MAG_FLOAT_OF"
 12568      5F464C4F 
 12568      41545F4F 
 12568      465F4246 
 12568      50285F65 
 12569 804c 5F424650 		.ascii	"_BFP((_ei).x); (_ef).y = MAG_FLOAT_OF_BFP((_ei).y);"
 12569      28285F65 
 12569      69292E78 
 12569      293B2028 
 12569      5F656629 
 12570 807f 20285F65 		.ascii	" (_ef).z = MAG_FLOAT_OF_BFP((_ei).z); }\000"
 12570      66292E7A 
 12570      203D204D 
 12570      41475F46 
 12570      4C4F4154 
 12571              	.LASF380:
 12572 80a7 5F5F4152 		.ascii	"__ARM_FEATURE_QBIT 1\000"
 12572      4D5F4645 
 12572      41545552 
 12572      455F5142 
 12572      49542031 
 12573              	.LASF1467:
 12574 80bc 616C6C6F 		.ascii	"alloca(size) __builtin_alloca(size)\000"
 12574      63612873 
 12574      697A6529 
 12574      205F5F62 
 12574      75696C74 
 12575              	.LASF121:
 12576 80e0 5F5F5549 		.ascii	"__UINT32_C(c) c ## UL\000"
 12576      4E543332 
 12576      5F432863 
 12576      29206320 
 12576      23232055 
 12577              	.LASF892:
 12578 80f6 50524969 		.ascii	"PRIiPTR __PRIPTR(i)\000"
 12578      50545220 
 12578      5F5F5052 
 12578      49505452 
 12578      28692900 
 12579              	.LASF743:
 12580 810a 55494E54 		.ascii	"UINT32_C(c) __UINT32_C(c)\000"
 12580      33325F43 
 12580      28632920 
 12580      5F5F5549 
 12580      4E543332 
 12581              	.LASF535:
ARM GAS  /tmp/ccKtbbXa.s 			page 288


 12582 8124 5F494E54 		.ascii	"_INTTYPES_H \000"
 12582      54595045 
 12582      535F4820 
 12582      00
 12583              	.LASF383:
 12584 8131 5F5F4152 		.ascii	"__ARM_FEATURE_UNALIGNED 1\000"
 12584      4D5F4645 
 12584      41545552 
 12584      455F554E 
 12584      414C4947 
 12585              	.LASF1663:
 12586 814b 464C4F41 		.ascii	"FLOAT_EULERS_ZERO(_e) EULERS_ASSIGN(_e, 0., 0., 0.)"
 12586      545F4555 
 12586      4C455253 
 12586      5F5A4552 
 12586      4F285F65 
 12587 817e 3B00     		.ascii	";\000"
 12588              	.LASF611:
 12589 8180 5F5F4641 		.ascii	"__FAST16 \000"
 12589      53543136 
 12589      2000
 12590              	.LASF1093:
 12591 818a 5F5F7365 		.ascii	"__section(x) __attribute__((__section__(x)))\000"
 12591      6374696F 
 12591      6E287829 
 12591      205F5F61 
 12591      74747269 
 12592              	.LASF2:
 12593 81b7 5F5F5354 		.ascii	"__STDC_UTF_16__ 1\000"
 12593      44435F55 
 12593      54465F31 
 12593      365F5F20 
 12593      3100
 12594              	.LASF1745:
 12595 81c9 6E65645F 		.ascii	"ned_of_ecef_pos_i\000"
 12595      6F665F65 
 12595      6365665F 
 12595      706F735F 
 12595      6900
 12596              	.LASF1051:
 12597 81db 5F5F7074 		.ascii	"__ptrvalue \000"
 12597      7276616C 
 12597      75652000 
 12598              	.LASF1475:
 12599 81e7 494E5433 		.ascii	"INT32_POS_OF_CM 2.56\000"
 12599      325F504F 
 12599      535F4F46 
 12599      5F434D20 
 12599      322E3536 
 12600              	.LASF289:
 12601 81fc 5F5F4143 		.ascii	"__ACCUM_IBIT__ 16\000"
 12601      43554D5F 
 12601      49424954 
 12601      5F5F2031 
 12601      3600
 12602              	.LASF651:
 12603 820e 55494E54 		.ascii	"UINT64_MAX __UINT64_MAX__\000"
ARM GAS  /tmp/ccKtbbXa.s 			page 289


 12603      36345F4D 
 12603      4158205F 
 12603      5F55494E 
 12603      5436345F 
 12604              	.LASF1166:
 12605 8228 48554745 		.ascii	"HUGE_VALF (__builtin_huge_valf())\000"
 12605      5F56414C 
 12605      4620285F 
 12605      5F627569 
 12605      6C74696E 
 12606              	.LASF1650:
 12607 824a 464C4F41 		.ascii	"FLOAT_QUAT_COMP_INV(_a2b,_a2c,_b2c) WARNING(\"FLOAT"
 12607      545F5155 
 12607      41545F43 
 12607      4F4D505F 
 12607      494E5628 
 12608 827c 5F515541 		.ascii	"_QUAT_COMP_INV macro is deprecated, use the lower c"
 12608      545F434F 
 12608      4D505F49 
 12608      4E56206D 
 12608      6163726F 
 12609 82af 61736520 		.ascii	"ase function instead\") float_quat_comp_inv(&(_a2b)"
 12609      66756E63 
 12609      74696F6E 
 12609      20696E73 
 12609      74656164 
 12610 82e1 2C202628 		.ascii	", &(_a2c), &(_b2c))\000"
 12610      5F613263 
 12610      292C2026 
 12610      285F6232 
 12610      63292900 
 12611              	.LASF92:
 12612 82f5 5F5F494E 		.ascii	"__INTMAX_WIDTH__ 64\000"
 12612      544D4158 
 12612      5F574944 
 12612      54485F5F 
 12612      20363400 
 12613              	.LASF1509:
 12614 8309 504F535F 		.ascii	"POS_BFP_OF_REAL(_af) BFP_OF_REAL((_af), INT32_POS_F"
 12614      4246505F 
 12614      4F465F52 
 12614      45414C28 
 12614      5F616629 
 12615 833c 52414329 		.ascii	"RAC)\000"
 12615      00
 12616              	.LASF1560:
 12617 8341 494E5433 		.ascii	"INT32_EULERS_OF_RMAT(_e,_rm) WARNING(\"INT32_EULERS"
 12617      325F4555 
 12617      4C455253 
 12617      5F4F465F 
 12617      524D4154 
 12618 8373 5F4F465F 		.ascii	"_OF_RMAT macro is deprecated, use the lower case fu"
 12618      524D4154 
 12618      206D6163 
 12618      726F2069 
 12618      73206465 
 12619 83a6 6E637469 		.ascii	"nction instead\") int32_eulers_of_rmat(&(_e), &(_rm"
ARM GAS  /tmp/ccKtbbXa.s 			page 290


 12619      6F6E2069 
 12619      6E737465 
 12619      61642229 
 12619      20696E74 
 12620 83d8 292900   		.ascii	"))\000"
 12621              	.LASF1625:
 12622 83db 666C6F61 		.ascii	"float_rmat_of_eulers float_rmat_of_eulers_321\000"
 12622      745F726D 
 12622      61745F6F 
 12622      665F6575 
 12622      6C657273 
 12623              	.LASF392:
 12624 8409 5F5F4152 		.ascii	"__ARM_FEATURE_LDREX 7\000"
 12624      4D5F4645 
 12624      41545552 
 12624      455F4C44 
 12624      52455820 
 12625              	.LASF867:
 12626 841f 53434E6F 		.ascii	"SCNoFAST32 __SCN32FAST(o)\000"
 12626      46415354 
 12626      3332205F 
 12626      5F53434E 
 12626      33324641 
 12627              	.LASF115:
 12628 8439 5F5F494E 		.ascii	"__INT_LEAST64_WIDTH__ 64\000"
 12628      545F4C45 
 12628      41535436 
 12628      345F5749 
 12628      4454485F 
 12629              	.LASF855:
 12630 8452 53434E69 		.ascii	"SCNiLEAST32 __SCN32LEAST(i)\000"
 12630      4C454153 
 12630      54333220 
 12630      5F5F5343 
 12630      4E33324C 
 12631              	.LASF1146:
 12632 846e 5F5F4E55 		.ascii	"__NULLABILITY_PRAGMA_POP \000"
 12632      4C4C4142 
 12632      494C4954 
 12632      595F5052 
 12632      41474D41 
 12633              	.LASF1619:
 12634 8488 464C4F41 		.ascii	"FLOAT_RATES_LIN_CMB(_ro,_r1,_s1,_r2,_s2) { _ro.p = "
 12634      545F5241 
 12634      5445535F 
 12634      4C494E5F 
 12634      434D4228 
 12635 84bb 5F733120 		.ascii	"_s1 * _r1.p + _s2 * _r2.p; _ro.q = _s1 * _r1.q + _s"
 12635      2A205F72 
 12635      312E7020 
 12635      2B205F73 
 12635      32202A20 
 12636 84ee 32202A20 		.ascii	"2 * _r2.q; _ro.r = _s1 * _r1.r + _s2 * _r2.r; }\000"
 12636      5F72322E 
 12636      713B205F 
 12636      726F2E72 
 12636      203D205F 
ARM GAS  /tmp/ccKtbbXa.s 			page 291


 12637              	.LASF537:
 12638 851e 5F4E4557 		.ascii	"_NEWLIB_VERSION_H__ 1\000"
 12638      4C49425F 
 12638      56455253 
 12638      494F4E5F 
 12638      485F5F20 
 12639              	.LASF760:
 12640 8534 5F574348 		.ascii	"_WCHAR_T_DEFINED \000"
 12640      41525F54 
 12640      5F444546 
 12640      494E4544 
 12640      2000
 12641              	.LASF1359:
 12642 8546 56454354 		.ascii	"VECT2_NORM2(_v) ((_v).x*(_v).x + (_v).y*(_v).y)\000"
 12642      325F4E4F 
 12642      524D3228 
 12642      5F762920 
 12642      28285F76 
 12643              	.LASF947:
 12644 8576 5F5F6E65 		.ascii	"__need_wint_t\000"
 12644      65645F77 
 12644      696E745F 
 12644      7400
 12645              	.LASF388:
 12646 8584 5F5F4152 		.ascii	"__ARM_32BIT_STATE 1\000"
 12646      4D5F3332 
 12646      4249545F 
 12646      53544154 
 12646      45203100 
 12647              	.LASF9:
 12648 8598 5F5F4154 		.ascii	"__ATOMIC_RELAXED 0\000"
 12648      4F4D4943 
 12648      5F52454C 
 12648      41584544 
 12648      203000
 12649              	.LASF1664:
 12650 85ab 464C4F41 		.ascii	"FLOAT_EULERS_OF_RMAT(_e,_rm) WARNING(\"FLOAT_EULERS"
 12650      545F4555 
 12650      4C455253 
 12650      5F4F465F 
 12650      524D4154 
 12651 85dd 5F4F465F 		.ascii	"_OF_RMAT macro is deprecated, use the lower case fu"
 12651      524D4154 
 12651      206D6163 
 12651      726F2069 
 12651      73206465 
 12652 8610 6E637469 		.ascii	"nction instead\") float_eulers_of_rmat(&(_e), &(_rm"
 12652      6F6E2069 
 12652      6E737465 
 12652      61642229 
 12652      20666C6F 
 12653 8642 292900   		.ascii	"))\000"
 12654              	.LASF261:
 12655 8645 5F5F4C46 		.ascii	"__LFRACT_MAX__ 0X7FFFFFFFP-31LR\000"
 12655      52414354 
 12655      5F4D4158 
 12655      5F5F2030 
ARM GAS  /tmp/ccKtbbXa.s 			page 292


 12655      58374646 
 12656              	.LASF186:
 12657 8665 5F5F4C44 		.ascii	"__LDBL_MIN__ 2.2250738585072014e-308L\000"
 12657      424C5F4D 
 12657      494E5F5F 
 12657      20322E32 
 12657      32353037 
 12658              	.LASF281:
 12659 868b 5F5F5341 		.ascii	"__SACCUM_MAX__ 0X7FFFP-7HK\000"
 12659      4343554D 
 12659      5F4D4158 
 12659      5F5F2030 
 12659      58374646 
 12660              	.LASF876:
 12661 86a6 5F5F5052 		.ascii	"__PRIMAX(x) __STRINGIFY(x)\000"
 12661      494D4158 
 12661      28782920 
 12661      5F5F5354 
 12661      52494E47 
 12662              	.LASF1666:
 12663 86c1 464C4F41 		.ascii	"FLOAT_EULERS_NORM(_e) WARNING(\"FLOAT_EULERS_NORM m"
 12663      545F4555 
 12663      4C455253 
 12663      5F4E4F52 
 12663      4D285F65 
 12664 86f3 6163726F 		.ascii	"acro is deprecated, use the lower case function ins"
 12664      20697320 
 12664      64657072 
 12664      65636174 
 12664      65642C20 
 12665 8726 74656164 		.ascii	"tead\") float_eulers_norm(&(_e))\000"
 12665      22292066 
 12665      6C6F6174 
 12665      5F65756C 
 12665      6572735F 
 12666              	.LASF1595:
 12667 8746 4C4C415F 		.ascii	"LLA_DOUBLE_OF_BFP(_o,_i) { (_o).lat = RAD_OF_EM7DEG"
 12667      444F5542 
 12667      4C455F4F 
 12667      465F4246 
 12667      50285F6F 
 12668 8779 2828646F 		.ascii	"((double)(_i).lat); (_o).lon = RAD_OF_EM7DEG((doubl"
 12668      75626C65 
 12668      29285F69 
 12668      292E6C61 
 12668      74293B20 
 12669 87ac 6529285F 		.ascii	"e)(_i).lon); (_o).alt = M_OF_MM((double)(_i).alt); "
 12669      69292E6C 
 12669      6F6E293B 
 12669      20285F6F 
 12669      292E616C 
 12670 87df 7D00     		.ascii	"}\000"
 12671              	.LASF587:
 12672 87e1 5F535953 		.ascii	"_SYS__INTSUP_H \000"
 12672      5F5F494E 
 12672      54535550 
 12672      5F482000 
ARM GAS  /tmp/ccKtbbXa.s 			page 293


 12673              	.LASF1567:
 12674 87f1 696E7433 		.ascii	"int32_eulers_dot_of_rates int32_eulers_dot_321_of_r"
 12674      325F6575 
 12674      6C657273 
 12674      5F646F74 
 12674      5F6F665F 
 12675 8824 61746573 		.ascii	"ates\000"
 12675      00
 12676              	.LASF1643:
 12677 8829 464C4F41 		.ascii	"FLOAT_QUAT_INVERT(_qo,_qi) WARNING(\"FLOAT_QUAT_INV"
 12677      545F5155 
 12677      41545F49 
 12677      4E564552 
 12677      54285F71 
 12678 885b 45525420 		.ascii	"ERT macro is deprecated, use the lower case functio"
 12678      6D616372 
 12678      6F206973 
 12678      20646570 
 12678      72656361 
 12679 888e 6E20696E 		.ascii	"n instead\") float_quat_invert(&(_qo), &(_qi))\000"
 12679      73746561 
 12679      64222920 
 12679      666C6F61 
 12679      745F7175 
 12680              	.LASF1350:
 12681 88bc 56454354 		.ascii	"VECT2_COPY(_a,_b) { (_a).x = (_b).x; (_a).y = (_b)."
 12681      325F434F 
 12681      5059285F 
 12681      612C5F62 
 12681      29207B20 
 12682 88ef 793B207D 		.ascii	"y; }\000"
 12682      00
 12683              	.LASF576:
 12684 88f4 5F5F504F 		.ascii	"__POSIX_VISIBLE 200809\000"
 12684      5349585F 
 12684      56495349 
 12684      424C4520 
 12684      32303038 
 12685              	.LASF539:
 12686 890b 5F5F4E45 		.ascii	"__NEWLIB__ 3\000"
 12686      574C4942 
 12686      5F5F2033 
 12686      00
 12687              	.LASF251:
 12688 8918 5F5F4652 		.ascii	"__FRACT_MAX__ 0X7FFFP-15R\000"
 12688      4143545F 
 12688      4D41585F 
 12688      5F203058 
 12688      37464646 
 12689              	.LASF1571:
 12690 8932 494E5433 		.ascii	"INT32_EULERS_DOT_OF_RATES(_ed,_e,_r) WARNING(\"INT3"
 12690      325F4555 
 12690      4C455253 
 12690      5F444F54 
 12690      5F4F465F 
 12691 8964 325F4555 		.ascii	"2_EULERS_DOT_OF_RATES macro is deprecated, use the "
 12691      4C455253 
ARM GAS  /tmp/ccKtbbXa.s 			page 294


 12691      5F444F54 
 12691      5F4F465F 
 12691      52415445 
 12692 8997 6C6F7765 		.ascii	"lower case function instead\") int32_eulers_dot_321"
 12692      72206361 
 12692      73652066 
 12692      756E6374 
 12692      696F6E20 
 12693 89c9 5F6F665F 		.ascii	"_of_rates(&(_ed), &(_e), &(_r))\000"
 12693      72617465 
 12693      73282628 
 12693      5F656429 
 12693      2C202628 
 12694              	.LASF1112:
 12695 89e9 5F5F7265 		.ascii	"__returns_twice __attribute__((__returns_twice__))\000"
 12695      7475726E 
 12695      735F7477 
 12695      69636520 
 12695      5F5F6174 
 12696              	.LASF461:
 12697 8a1c 44415441 		.ascii	"DATALINK PPRZ\000"
 12697      4C494E4B 
 12697      20505052 
 12697      5A00
 12698              	.LASF1013:
 12699 8a2a 5F524545 		.ascii	"_REENT_MP_RESULT(ptr) ((ptr)->_result)\000"
 12699      4E545F4D 
 12699      505F5245 
 12699      53554C54 
 12699      28707472 
 12700              	.LASF139:
 12701 8a51 5F5F4743 		.ascii	"__GCC_IEC_559 0\000"
 12701      435F4945 
 12701      435F3535 
 12701      39203000 
 12702              	.LASF1451:
 12703 8a61 54524545 		.ascii	"TREE_SIZE_8 (TRIG_INT_VAL_MAX - 8)\000"
 12703      5F53495A 
 12703      455F3820 
 12703      28545249 
 12703      475F494E 
 12704              	.LASF566:
 12705 8a84 5F504F53 		.ascii	"_POSIX_C_SOURCE\000"
 12705      49585F43 
 12705      5F534F55 
 12705      52434500 
 12706              	.LASF1319:
 12707 8a94 4C44424C 		.ascii	"LDBL_MAX_10_EXP\000"
 12707      5F4D4158 
 12707      5F31305F 
 12707      45585000 
 12708              	.LASF233:
 12709 8aa4 5F5F464C 		.ascii	"__FLT32X_EPSILON__ 2.2204460492503131e-16F32x\000"
 12709      54333258 
 12709      5F455053 
 12709      494C4F4E 
 12709      5F5F2032 
ARM GAS  /tmp/ccKtbbXa.s 			page 295


 12710              	.LASF498:
 12711 8ad2 54454C45 		.ascii	"TELEMETRY_FREQUENCY 100\000"
 12711      4D455452 
 12711      595F4652 
 12711      45515545 
 12711      4E435920 
 12712              	.LASF863:
 12713 8aea 50524978 		.ascii	"PRIxFAST32 __PRI32FAST(x)\000"
 12713      46415354 
 12713      3332205F 
 12713      5F505249 
 12713      33324641 
 12714              	.LASF1759:
 12715 8b04 2F686F6D 		.ascii	"/home/argroos/paparazzi/sw/airborne\000"
 12715      652F6172 
 12715      67726F6F 
 12715      732F7061 
 12715      70617261 
 12716              	.LASF1386:
 12717 8b28 45554C45 		.ascii	"EULERS_SMUL(_eo,_ei,_s) { (_eo).phi = (_ei).phi * ("
 12717      52535F53 
 12717      4D554C28 
 12717      5F656F2C 
 12717      5F65692C 
 12718 8b5b 5F73293B 		.ascii	"_s); (_eo).theta = (_ei).theta * (_s); (_eo).psi = "
 12718      20285F65 
 12718      6F292E74 
 12718      68657461 
 12718      203D2028 
 12719 8b8e 285F6569 		.ascii	"(_ei).psi * (_s); }\000"
 12719      292E7073 
 12719      69202A20 
 12719      285F7329 
 12719      3B207D00 
 12720              	.LASF1734:
 12721 8ba2 65636566 		.ascii	"ecef_of_enu_pos_i\000"
 12721      5F6F665F 
 12721      656E755F 
 12721      706F735F 
 12721      6900
 12722              	.LASF1317:
 12723 8bb4 464C545F 		.ascii	"FLT_MAX_10_EXP\000"
 12723      4D41585F 
 12723      31305F45 
 12723      585000
 12724              	.LASF1031:
 12725 8bc3 5F524545 		.ascii	"_REENT_GETDATE_ERR_P(ptr) (&((ptr)->_new._reent._ge"
 12725      4E545F47 
 12725      45544441 
 12725      54455F45 
 12725      52525F50 
 12726 8bf6 74646174 		.ascii	"tdate_err))\000"
 12726      655F6572 
 12726      72292900 
 12727              	.LASF1494:
 12728 8c02 494E5433 		.ascii	"INT32_ANGLE_NORMALIZE(_a) { while ((_a) > INT32_ANG"
 12728      325F414E 
ARM GAS  /tmp/ccKtbbXa.s 			page 296


 12728      474C455F 
 12728      4E4F524D 
 12728      414C495A 
 12729 8c35 4C455F50 		.ascii	"LE_PI) (_a) -= INT32_ANGLE_2_PI; while ((_a) < -INT"
 12729      49292028 
 12729      5F612920 
 12729      2D3D2049 
 12729      4E543332 
 12730 8c68 33325F41 		.ascii	"32_ANGLE_PI) (_a) += INT32_ANGLE_2_PI; }\000"
 12730      4E474C45 
 12730      5F504929 
 12730      20285F61 
 12730      29202B3D 
 12731              	.LASF620:
 12732 8c91 5F454E44 		.ascii	"_END_STD_C \000"
 12732      5F535444 
 12732      5F432000 
 12733              	.LASF968:
 12734 8c9d 5F4E554C 		.ascii	"_NULL 0\000"
 12734      4C203000 
 12735              	.LASF1479:
 12736 8ca5 494E5433 		.ascii	"INT32_SPEED_OF_CM_S 5242.88\000"
 12736      325F5350 
 12736      4545445F 
 12736      4F465F43 
 12736      4D5F5320 
 12737              	.LASF751:
 12738 8cc1 5F5F7763 		.ascii	"__wchar_t__ \000"
 12738      6861725F 
 12738      745F5F20 
 12738      00
 12739              	.LASF1287:
 12740 8cce 464C545F 		.ascii	"FLT_MANT_DIG\000"
 12740      4D414E54 
 12740      5F444947 
 12740      00
 12741              	.LASF1591:
 12742 8cdb 45434546 		.ascii	"ECEF_FLOAT_OF_BFP(_o,_i) VECT3_FLOAT_OF_CM(_o, _i)\000"
 12742      5F464C4F 
 12742      41545F4F 
 12742      465F4246 
 12742      50285F6F 
 12743              	.LASF1716:
 12744 8d0e 55746D43 		.ascii	"UtmCoor_d\000"
 12744      6F6F725F 
 12744      6400
 12745              	.LASF1163:
 12746 8d18 5F5F7074 		.ascii	"__pt_guarded_by(x) __lock_annotate(pt_guarded_by(x)"
 12746      5F677561 
 12746      72646564 
 12746      5F627928 
 12746      7829205F 
 12747 8d4b 2900     		.ascii	")\000"
 12748              	.LASF765:
 12749 8d4d 5F574348 		.ascii	"_WCHAR_T_DECLARED \000"
 12749      41525F54 
 12749      5F444543 
ARM GAS  /tmp/ccKtbbXa.s 			page 297


 12749      4C415245 
 12749      442000
 12750              	.LASF1706:
 12751 8d60 55746D43 		.ascii	"UtmCoor_i\000"
 12751      6F6F725F 
 12751      6900
 12752              	.LASF1094:
 12753 8d6a 5F5F616C 		.ascii	"__alloc_size(x) __attribute__((__alloc_size__(x)))\000"
 12753      6C6F635F 
 12753      73697A65 
 12753      28782920 
 12753      5F5F6174 
 12754              	.LASF866:
 12755 8d9d 53434E69 		.ascii	"SCNiFAST32 __SCN32FAST(i)\000"
 12755      46415354 
 12755      3332205F 
 12755      5F53434E 
 12755      33324641 
 12756              	.LASF1005:
 12757 8db7 5F524545 		.ascii	"_REENT_CHECK_EMERGENCY(ptr) \000"
 12757      4E545F43 
 12757      4845434B 
 12757      5F454D45 
 12757      5247454E 
 12758              	.LASF554:
 12759 8dd4 5F554E42 		.ascii	"_UNBUF_STREAM_OPT 1\000"
 12759      55465F53 
 12759      54524541 
 12759      4D5F4F50 
 12759      54203100 
 12760              	.LASF438:
 12761 8de8 5F5F4152 		.ascii	"__ARM_BF16_FORMAT_ALTERNATIVE\000"
 12761      4D5F4246 
 12761      31365F46 
 12761      4F524D41 
 12761      545F414C 
 12762              	.LASF538:
 12763 8e06 5F4E4557 		.ascii	"_NEWLIB_VERSION \"3.3.0\"\000"
 12763      4C49425F 
 12763      56455253 
 12763      494F4E20 
 12763      22332E33 
 12764              	.LASF106:
 12765 8e1e 5F5F494E 		.ascii	"__INT_LEAST8_WIDTH__ 8\000"
 12765      545F4C45 
 12765      41535438 
 12765      5F574944 
 12765      54485F5F 
 12766              	.LASF5:
 12767 8e35 5F5F474E 		.ascii	"__GNUC__ 10\000"
 12767      55435F5F 
 12767      20313000 
 12768              	.LASF431:
 12769 8e41 5F5F4152 		.ascii	"__ARM_FEATURE_COPROC\000"
 12769      4D5F4645 
 12769      41545552 
 12769      455F434F 
ARM GAS  /tmp/ccKtbbXa.s 			page 298


 12769      50524F43 
 12770              	.LASF711:
 12771 8e56 55494E54 		.ascii	"UINTMAX_MAX __UINTMAX_MAX__\000"
 12771      4D41585F 
 12771      4D415820 
 12771      5F5F5549 
 12771      4E544D41 
 12772              	.LASF1558:
 12773 8e72 494E5433 		.ascii	"INT32_QUAT_OF_RMAT(_q,_r) WARNING(\"INT32_QUAT_OF_R"
 12773      325F5155 
 12773      41545F4F 
 12773      465F524D 
 12773      4154285F 
 12774 8ea4 4D415420 		.ascii	"MAT macro is deprecated, use the lower case functio"
 12774      6D616372 
 12774      6F206973 
 12774      20646570 
 12774      72656361 
 12775 8ed7 6E20696E 		.ascii	"n instead\") int32_quat_of_rmat(&(_q), &(_r))\000"
 12775      73746561 
 12775      64222920 
 12775      696E7433 
 12775      325F7175 
 12776              	.LASF58:
 12777 8f04 5F5F494E 		.ascii	"__INT_FAST16_TYPE__ int\000"
 12777      545F4641 
 12777      53543136 
 12777      5F545950 
 12777      455F5F20 
 12778              	.LASF1675:
 12779 8f1c 444F5542 		.ascii	"DOUBLE_EULERS_OF_QUAT(_e,_q) WARNING(\"DOUBLE_EULER"
 12779      4C455F45 
 12779      554C4552 
 12779      535F4F46 
 12779      5F515541 
 12780 8f4e 535F4F46 		.ascii	"S_OF_QUAT macro is deprecated, use the lower case f"
 12780      5F515541 
 12780      54206D61 
 12780      63726F20 
 12780      69732064 
 12781 8f81 756E6374 		.ascii	"unction instead\") double_eulers_of_quat(&(_e), &(_"
 12781      696F6E20 
 12781      696E7374 
 12781      65616422 
 12781      2920646F 
 12782 8fb3 71292900 		.ascii	"q))\000"
 12783              	.LASF1286:
 12784 8fb7 464C545F 		.ascii	"FLT_RADIX __FLT_RADIX__\000"
 12784      52414449 
 12784      58205F5F 
 12784      464C545F 
 12784      52414449 
 12785              	.LASF112:
 12786 8fcf 5F5F494E 		.ascii	"__INT_LEAST32_WIDTH__ 32\000"
 12786      545F4C45 
 12786      41535433 
 12786      325F5749 
ARM GAS  /tmp/ccKtbbXa.s 			page 299


 12786      4454485F 
 12787              	.LASF1243:
 12788 8fe8 6269745F 		.ascii	"bit_is_set(x,b) ((x >> b) & 0x1)\000"
 12788      69735F73 
 12788      65742878 
 12788      2C622920 
 12788      28287820 
 12789              	.LASF1251:
 12790 9009 436C6F73 		.ascii	"CloseRadAngles(_c1,_c2) ({ float _diff = _c1 - _c2;"
 12790      65526164 
 12790      416E676C 
 12790      6573285F 
 12790      63312C5F 
 12791 903c 204E6F72 		.ascii	" NormRadAngle(_diff); fabsf(_diff) < 0.0177; })\000"
 12791      6D526164 
 12791      416E676C 
 12791      65285F64 
 12791      69666629 
 12792              	.LASF337:
 12793 906c 5F5F5554 		.ascii	"__UTQ_IBIT__ 0\000"
 12793      515F4942 
 12793      49545F5F 
 12793      203000
 12794              	.LASF1440:
 12795 907b 53504545 		.ascii	"SPEEDS_FLOAT_OF_BFP(_ef,_ei) { (_ef).x = SPEED_FLOA"
 12795      44535F46 
 12795      4C4F4154 
 12795      5F4F465F 
 12795      42465028 
 12796 90ae 545F4F46 		.ascii	"T_OF_BFP((_ei).x); (_ef).y = SPEED_FLOAT_OF_BFP((_e"
 12796      5F424650 
 12796      28285F65 
 12796      69292E78 
 12796      293B2028 
 12797 90e1 69292E79 		.ascii	"i).y); (_ef).z = SPEED_FLOAT_OF_BFP((_ei).z); }\000"
 12797      293B2028 
 12797      5F656629 
 12797      2E7A203D 
 12797      20535045 
 12798              	.LASF377:
 12799 9111 5F5F5349 		.ascii	"__SIZEOF_WINT_T__ 4\000"
 12799      5A454F46 
 12799      5F57494E 
 12799      545F545F 
 12799      5F203400 
 12800              	.LASF808:
 12801 9125 53434E78 		.ascii	"SCNx16 __SCN16(x)\000"
 12801      3136205F 
 12801      5F53434E 
 12801      31362878 
 12801      2900
 12802              	.LASF678:
 12803 9137 494E545F 		.ascii	"INT_FAST8_MIN\000"
 12803      46415354 
 12803      385F4D49 
 12803      4E00
 12804              	.LASF450:
ARM GAS  /tmp/ccKtbbXa.s 			page 300


 12805 9145 41504F47 		.ascii	"APOGEE_BARO_SDLOG TRUE\000"
 12805      45455F42 
 12805      41524F5F 
 12805      53444C4F 
 12805      47205452 
 12806              	.LASF532:
 12807 915c 55544D5F 		.ascii	"UTM_OF_ENU_ADD(_utm,_pos,_utm0) { (_utm).east = (_u"
 12807      4F465F45 
 12807      4E555F41 
 12807      4444285F 
 12807      75746D2C 
 12808 918f 746D3029 		.ascii	"tm0).east + (_pos).x; (_utm).north = (_utm0).north "
 12808      2E656173 
 12808      74202B20 
 12808      285F706F 
 12808      73292E78 
 12809 91c2 2B20285F 		.ascii	"+ (_pos).y; (_utm).alt = (_utm0).alt + (_pos).z; }\000"
 12809      706F7329 
 12809      2E793B20 
 12809      285F7574 
 12809      6D292E61 
 12810              	.LASF1339:
 12811 91f5 44424C5F 		.ascii	"DBL_MIN __DBL_MIN__\000"
 12811      4D494E20 
 12811      5F5F4442 
 12811      4C5F4D49 
 12811      4E5F5F00 
 12812              	.LASF381:
 12813 9209 5F5F4152 		.ascii	"__ARM_FEATURE_SAT 1\000"
 12813      4D5F4645 
 12813      41545552 
 12813      455F5341 
 12813      54203100 
 12814              	.LASF1428:
 12815 921d 524D4154 		.ascii	"RMAT_VECT3_TRANSP_MUL(_vout,_rmat,_vin) { (_vout).x"
 12815      5F564543 
 12815      54335F54 
 12815      52414E53 
 12815      505F4D55 
 12816 9250 203D2052 		.ascii	" = RMAT_ELMT((_rmat), 0, 0) * (_vin).x + RMAT_ELMT("
 12816      4D41545F 
 12816      454C4D54 
 12816      28285F72 
 12816      6D617429 
 12817 9283 285F726D 		.ascii	"(_rmat), 1, 0) * (_vin).y + RMAT_ELMT((_rmat), 2, 0"
 12817      6174292C 
 12817      20312C20 
 12817      3029202A 
 12817      20285F76 
 12818 92b6 29202A20 		.ascii	") * (_vin).z; (_vout).y = RMAT_ELMT((_rmat), 0, 1) "
 12818      285F7669 
 12818      6E292E7A 
 12818      3B20285F 
 12818      766F7574 
 12819 92e9 2A20285F 		.ascii	"* (_vin).x + RMAT_ELMT((_rmat), 1, 1) * (_vin).y + "
 12819      76696E29 
 12819      2E78202B 
ARM GAS  /tmp/ccKtbbXa.s 			page 301


 12819      20524D41 
 12819      545F454C 
 12820 931c 524D4154 		.ascii	"RMAT_ELMT((_rmat), 2, 1) * (_vin).z; (_vout).z = RM"
 12820      5F454C4D 
 12820      5428285F 
 12820      726D6174 
 12820      292C2032 
 12821 934f 41545F45 		.ascii	"AT_ELMT((_rmat), 0, 2) * (_vin).x + RMAT_ELMT((_rma"
 12821      4C4D5428 
 12821      285F726D 
 12821      6174292C 
 12821      20302C20 
 12822 9382 74292C20 		.ascii	"t), 1, 2) * (_vin).y + RMAT_ELMT((_rmat), 2, 2) * ("
 12822      312C2032 
 12822      29202A20 
 12822      285F7669 
 12822      6E292E79 
 12823 93b5 5F76696E 		.ascii	"_vin).z; }\000"
 12823      292E7A3B 
 12823      207D00
 12824              	.LASF70:
 12825 93c0 5F5F494E 		.ascii	"__INT_MAX__ 0x7fffffff\000"
 12825      545F4D41 
 12825      585F5F20 
 12825      30783766 
 12825      66666666 
 12826              	.LASF1332:
 12827 93d7 464C545F 		.ascii	"FLT_EPSILON __FLT_EPSILON__\000"
 12827      45505349 
 12827      4C4F4E20 
 12827      5F5F464C 
 12827      545F4550 
 12828              	.LASF152:
 12829 93f3 5F5F464C 		.ascii	"__FLT_MAX__ 3.4028234663852886e+38F\000"
 12829      545F4D41 
 12829      585F5F20 
 12829      332E3430 
 12829      32383233 
 12830              	.LASF67:
 12831 9417 5F5F4758 		.ascii	"__GXX_ABI_VERSION 1014\000"
 12831      585F4142 
 12831      495F5645 
 12831      5253494F 
 12831      4E203130 
 12832              	.LASF49:
 12833 942e 5F5F494E 		.ascii	"__INT_LEAST8_TYPE__ signed char\000"
 12833      545F4C45 
 12833      41535438 
 12833      5F545950 
 12833      455F5F20 
 12834              	.LASF755:
 12835 944e 5F545F57 		.ascii	"_T_WCHAR \000"
 12835      43484152 
 12835      2000
 12836              	.LASF1448:
 12837 9458 54524947 		.ascii	"TRIG_INT_SIZE 6434\000"
 12837      5F494E54 
ARM GAS  /tmp/ccKtbbXa.s 			page 302


 12837      5F53495A 
 12837      45203634 
 12837      333400
 12838              	.LASF734:
 12839 946b 494E5433 		.ascii	"INT32_C\000"
 12839      325F4300 
 12840              	.LASF165:
 12841 9473 5F5F4442 		.ascii	"__DBL_MAX_EXP__ 1024\000"
 12841      4C5F4D41 
 12841      585F4558 
 12841      505F5F20 
 12841      31303234 
 12842              	.LASF1186:
 12843 9488 69736E61 		.ascii	"isnan(__x) (__builtin_isnan (__x))\000"
 12843      6E285F5F 
 12843      78292028 
 12843      5F5F6275 
 12843      696C7469 
 12844              	.LASF258:
 12845 94ab 5F5F4C46 		.ascii	"__LFRACT_FBIT__ 31\000"
 12845      52414354 
 12845      5F464249 
 12845      545F5F20 
 12845      333100
 12846              	.LASF408:
 12847 94be 5F5F4152 		.ascii	"__ARM_ARCH_ISA_THUMB\000"
 12847      4D5F4152 
 12847      43485F49 
 12847      53415F54 
 12847      48554D42 
 12848              	.LASF1476:
 12849 94d3 494E5433 		.ascii	"INT32_POS_OF_CM_NUM 64\000"
 12849      325F504F 
 12849      535F4F46 
 12849      5F434D5F 
 12849      4E554D20 
 12850              	.LASF376:
 12851 94ea 5F5F5349 		.ascii	"__SIZEOF_WCHAR_T__ 4\000"
 12851      5A454F46 
 12851      5F574348 
 12851      41525F54 
 12851      5F5F2034 
 12852              	.LASF746:
 12853 94ff 494E544D 		.ascii	"INTMAX_C\000"
 12853      41585F43 
 12853      00
 12854              	.LASF286:
 12855 9508 5F5F5553 		.ascii	"__USACCUM_MAX__ 0XFFFFP-8UHK\000"
 12855      41434355 
 12855      4D5F4D41 
 12855      585F5F20 
 12855      30584646 
 12856              	.LASF813:
 12857 9525 50524978 		.ascii	"PRIxLEAST16 __PRI16LEAST(x)\000"
 12857      4C454153 
 12857      54313620 
 12857      5F5F5052 
ARM GAS  /tmp/ccKtbbXa.s 			page 303


 12857      4931364C 
 12858              	.LASF1129:
 12859 9541 5F5F7374 		.ascii	"__strong_reference(sym,aliassym) extern __typeof (s"
 12859      726F6E67 
 12859      5F726566 
 12859      6572656E 
 12859      63652873 
 12860 9574 796D2920 		.ascii	"ym) aliassym __attribute__ ((__alias__ (#sym)))\000"
 12860      616C6961 
 12860      7373796D 
 12860      205F5F61 
 12860      74747269 
 12861              	.LASF1348:
 12862 95a4 53515541 		.ascii	"SQUARE(_a) ((_a)*(_a))\000"
 12862      5245285F 
 12862      61292028 
 12862      285F6129 
 12862      2A285F61 
 12863              	.LASF96:
 12864 95bb 5F5F494E 		.ascii	"__INT8_MAX__ 0x7f\000"
 12864      54385F4D 
 12864      41585F5F 
 12864      20307837 
 12864      6600
 12865              	.LASF1543:
 12866 95cd 494E5433 		.ascii	"INT32_RMAT_OF_EULERS_312(_rm,_e) WARNING(\"INT32_RM"
 12866      325F524D 
 12866      41545F4F 
 12866      465F4555 
 12866      4C455253 
 12867 95ff 41545F4F 		.ascii	"AT_OF_EULERS_312 macro is deprecated, use the lower"
 12867      465F4555 
 12867      4C455253 
 12867      5F333132 
 12867      206D6163 
 12868 9632 20636173 		.ascii	" case function instead\") int32_rmat_of_eulers_312("
 12868      65206675 
 12868      6E637469 
 12868      6F6E2069 
 12868      6E737465 
 12869 9664 26285F72 		.ascii	"&(_rm), &(_e))\000"
 12869      6D292C20 
 12869      26285F65 
 12869      292900
 12870              	.LASF757:
 12871 9673 5F574348 		.ascii	"_WCHAR_T_ \000"
 12871      41525F54 
 12871      5F2000
 12872              	.LASF110:
 12873 967e 5F5F494E 		.ascii	"__INT_LEAST32_MAX__ 0x7fffffffL\000"
 12873      545F4C45 
 12873      41535433 
 12873      325F4D41 
 12873      585F5F20 
 12874              	.LASF1343:
 12875 969e 44454349 		.ascii	"DECIMAL_DIG\000"
 12875      4D414C5F 
ARM GAS  /tmp/ccKtbbXa.s 			page 304


 12875      44494700 
 12876              	.LASF1063:
 12877 96aa 5F5F474E 		.ascii	"__GNUCLIKE_BUILTIN_VARARGS 1\000"
 12877      55434C49 
 12877      4B455F42 
 12877      55494C54 
 12877      494E5F56 
 12878              	.LASF491:
 12879 96c7 52414449 		.ascii	"RADIO_CONTROL 1\000"
 12879      4F5F434F 
 12879      4E54524F 
 12879      4C203100 
 12880              	.LASF1042:
 12881 96d7 5F5F4153 		.ascii	"__ASMNAME(cname) __XSTRING (__USER_LABEL_PREFIX__) "
 12881      4D4E414D 
 12881      4528636E 
 12881      616D6529 
 12881      205F5F58 
 12882 970a 636E616D 		.ascii	"cname\000"
 12882      6500
 12883              	.LASF1101:
 12884 9710 5F546872 		.ascii	"_Thread_local __thread\000"
 12884      6561645F 
 12884      6C6F6361 
 12884      6C205F5F 
 12884      74687265 
 12885              	.LASF1610:
 12886 9727 464C4F41 		.ascii	"FLOAT_ANGLE_NORMALIZE(_a) { while (_a > M_PI) _a -="
 12886      545F414E 
 12886      474C455F 
 12886      4E4F524D 
 12886      414C495A 
 12887 975a 2028322E 		.ascii	" (2.*M_PI); while (_a < -M_PI) _a += (2.*M_PI); }\000"
 12887      2A4D5F50 
 12887      49293B20 
 12887      7768696C 
 12887      6520285F 
 12888              	.LASF1589:
 12889 978c 56454354 		.ascii	"VECT3_DOUBLE_OF_CM(_o,_i) { (_o).x = M_OF_CM((doubl"
 12889      335F444F 
 12889      55424C45 
 12889      5F4F465F 
 12889      434D285F 
 12890 97bf 6529285F 		.ascii	"e)(_i).x); (_o).y = M_OF_CM((double)(_i).y); (_o).z"
 12890      69292E78 
 12890      293B2028 
 12890      5F6F292E 
 12890      79203D20 
 12891 97f2 203D204D 		.ascii	" = M_OF_CM((double)(_i).z); }\000"
 12891      5F4F465F 
 12891      434D2828 
 12891      646F7562 
 12891      6C652928 
 12892              	.LASF287:
 12893 9810 5F5F5553 		.ascii	"__USACCUM_EPSILON__ 0x1P-8UHK\000"
 12893      41434355 
 12893      4D5F4550 
ARM GAS  /tmp/ccKtbbXa.s 			page 305


 12893      53494C4F 
 12893      4E5F5F20 
 12894              	.LASF462:
 12895 982e 44454255 		.ascii	"DEBUG_GPS_UBX_UCENTER TRUE\000"
 12895      475F4750 
 12895      535F5542 
 12895      585F5543 
 12895      454E5445 
 12896              	.LASF1640:
 12897 9849 464C4F41 		.ascii	"FLOAT_QUAT_NORM2(_q) (SQUARE((_q).qi) + SQUARE((_q)"
 12897      545F5155 
 12897      41545F4E 
 12897      4F524D32 
 12897      285F7129 
 12898 987c 2E717829 		.ascii	".qx) + SQUARE((_q).qy) + SQUARE((_q).qz))\000"
 12898      202B2053 
 12898      51554152 
 12898      4528285F 
 12898      71292E71 
 12899              	.LASF312:
 12900 98a6 5F5F4C4C 		.ascii	"__LLACCUM_EPSILON__ 0x1P-31LLK\000"
 12900      41434355 
 12900      4D5F4550 
 12900      53494C4F 
 12900      4E5F5F20 
 12901              	.LASF925:
 12902 98c5 5F535953 		.ascii	"_SYS_SIZE_T_H \000"
 12902      5F53495A 
 12902      455F545F 
 12902      482000
 12903              	.LASF188:
 12904 98d4 5F5F4C44 		.ascii	"__LDBL_DENORM_MIN__ 4.9406564584124654e-324L\000"
 12904      424C5F44 
 12904      454E4F52 
 12904      4D5F4D49 
 12904      4E5F5F20 
 12905              	.LASF89:
 12906 9901 5F5F494E 		.ascii	"__INTMAX_C(c) c ## LL\000"
 12906      544D4158 
 12906      5F432863 
 12906      29206320 
 12906      2323204C 
 12907              	.LASF300:
 12908 9917 5F5F4C41 		.ascii	"__LACCUM_MIN__ (-0X1P31LK-0X1P31LK)\000"
 12908      4343554D 
 12908      5F4D494E 
 12908      5F5F2028 
 12908      2D305831 
 12909              	.LASF133:
 12910 993b 5F5F5549 		.ascii	"__UINT_FAST16_MAX__ 0xffffffffU\000"
 12910      4E545F46 
 12910      41535431 
 12910      365F4D41 
 12910      585F5F20 
 12911              	.LASF428:
 12912 995b 5F5F4152 		.ascii	"__ARM_ARCH_EXT_IDIV__ 1\000"
 12912      4D5F4152 
ARM GAS  /tmp/ccKtbbXa.s 			page 306


 12912      43485F45 
 12912      58545F49 
 12912      4449565F 
 12913              	.LASF64:
 12914 9973 5F5F5549 		.ascii	"__UINT_FAST64_TYPE__ long long unsigned int\000"
 12914      4E545F46 
 12914      41535436 
 12914      345F5459 
 12914      50455F5F 
 12915              	.LASF1382:
 12916 999f 45554C45 		.ascii	"EULERS_ASSIGN(_e,_phi,_theta,_psi) { (_e).phi = (_p"
 12916      52535F41 
 12916      53534947 
 12916      4E285F65 
 12916      2C5F7068 
 12917 99d2 6869293B 		.ascii	"hi); (_e).theta = (_theta); (_e).psi = (_psi); }\000"
 12917      20285F65 
 12917      292E7468 
 12917      65746120 
 12917      3D20285F 
 12918              	.LASF1483:
 12919 9a03 494E5433 		.ascii	"INT32_MAG_FRAC 11\000"
 12919      325F4D41 
 12919      475F4652 
 12919      41432031 
 12919      3100
 12920              	.LASF1009:
 12921 9a15 5F524545 		.ascii	"_REENT_RAND_NEXT(ptr) ((ptr)->_new._reent._rand_nex"
 12921      4E545F52 
 12921      414E445F 
 12921      4E455854 
 12921      28707472 
 12922 9a48 742900   		.ascii	"t)\000"
 12923              	.LASF481:
 12924 9a4b 4E415620 		.ascii	"NAV 1\000"
 12924      3100
 12925              	.LASF852:
 12926 9a51 50524978 		.ascii	"PRIxLEAST32 __PRI32LEAST(x)\000"
 12926      4C454153 
 12926      54333220 
 12926      5F5F5052 
 12926      4933324C 
 12927              	.LASF1152:
 12928 9a6d 5F5F6C6F 		.ascii	"__locks_shared(...) __lock_annotate(shared_lock_fun"
 12928      636B735F 
 12928      73686172 
 12928      6564282E 
 12928      2E2E2920 
 12929 9aa0 6374696F 		.ascii	"ction(__VA_ARGS__))\000"
 12929      6E285F5F 
 12929      56415F41 
 12929      5247535F 
 12929      5F292900 
 12930              	.LASF1065:
 12931 9ab4 5F5F474E 		.ascii	"__GNUCLIKE_BUILTIN_VAALIST 1\000"
 12931      55434C49 
 12931      4B455F42 
ARM GAS  /tmp/ccKtbbXa.s 			page 307


 12931      55494C54 
 12931      494E5F56 
 12932              	.LASF257:
 12933 9ad1 5F5F5546 		.ascii	"__UFRACT_EPSILON__ 0x1P-16UR\000"
 12933      52414354 
 12933      5F455053 
 12933      494C4F4E 
 12933      5F5F2030 
 12934              	.LASF444:
 12935 9aee 5050525A 		.ascii	"PPRZLINK_UNALIGNED_ACCESS 1\000"
 12935      4C494E4B 
 12935      5F554E41 
 12935      4C49474E 
 12935      45445F41 
 12936              	.LASF1542:
 12937 9b0a 494E5433 		.ascii	"INT32_RMAT_OF_EULERS_321(_rm,_e) WARNING(\"INT32_RM"
 12937      325F524D 
 12937      41545F4F 
 12937      465F4555 
 12937      4C455253 
 12938 9b3c 41545F4F 		.ascii	"AT_OF_EULERS_321 macro is deprecated, use the lower"
 12938      465F4555 
 12938      4C455253 
 12938      5F333231 
 12938      206D6163 
 12939 9b6f 20636173 		.ascii	" case function instead\") int32_rmat_of_eulers_321("
 12939      65206675 
 12939      6E637469 
 12939      6F6E2069 
 12939      6E737465 
 12940 9ba1 26285F72 		.ascii	"&(_rm), &(_e))\000"
 12940      6D292C20 
 12940      26285F65 
 12940      292900
 12941              	.LASF792:
 12942 9bb0 5F5F5052 		.ascii	"__PRI16(x) __INT16 __STRINGIFY(x)\000"
 12942      49313628 
 12942      7829205F 
 12942      5F494E54 
 12942      3136205F 
 12943              	.LASF78:
 12944 9bd2 5F5F5349 		.ascii	"__SIZE_MAX__ 0xffffffffU\000"
 12944      5A455F4D 
 12944      41585F5F 
 12944      20307866 
 12944      66666666 
 12945              	.LASF990:
 12946 9beb 5F52414E 		.ascii	"_RAND48_MULT_0 (0xe66d)\000"
 12946      4434385F 
 12946      4D554C54 
 12946      5F302028 
 12946      30786536 
 12947              	.LASF728:
 12948 9c03 57494E54 		.ascii	"WINT_MIN\000"
 12948      5F4D494E 
 12948      00
 12949              	.LASF1255:
ARM GAS  /tmp/ccKtbbXa.s 			page 308


 12950 9c0c 5261644F 		.ascii	"RadOfDeciDeg(x) ((x) * (M_PI/1800.))\000"
 12950      66446563 
 12950      69446567 
 12950      28782920 
 12950      28287829 
 12951              	.LASF1216:
 12952 9c31 4D5F4C4E 		.ascii	"M_LN2HI 6.9314718036912381649E-1\000"
 12952      32484920 
 12952      362E3933 
 12952      31343731 
 12952      38303336 
 12953              	.LASF1575:
 12954 9c52 4D5F4F46 		.ascii	"M_OF_MM(_mm) ((_mm)/1e3)\000"
 12954      5F4D4D28 
 12954      5F6D6D29 
 12954      2028285F 
 12954      6D6D292F 
 12955              	.LASF897:
 12956 9c6b 53434E64 		.ascii	"SCNdPTR __SCNPTR(d)\000"
 12956      50545220 
 12956      5F5F5343 
 12956      4E505452 
 12956      28642900 
 12957              	.LASF1253:
 12958 9c7f 44656369 		.ascii	"DeciDegOfRad(x) ((x) * (1800./ M_PI))\000"
 12958      4465674F 
 12958      66526164 
 12958      28782920 
 12958      28287829 
 12959              	.LASF1474:
 12960 9ca5 494E5433 		.ascii	"INT32_POS_FRAC 8\000"
 12960      325F504F 
 12960      535F4652 
 12960      41432038 
 12960      00
 12961              	.LASF1300:
 12962 9cb6 44424C5F 		.ascii	"DBL_MIN_EXP\000"
 12962      4D494E5F 
 12962      45585000 
 12963              	.LASF132:
 12964 9cc2 5F5F5549 		.ascii	"__UINT_FAST8_MAX__ 0xffffffffU\000"
 12964      4E545F46 
 12964      41535438 
 12964      5F4D4158 
 12964      5F5F2030 
 12965              	.LASF1547:
 12966 9ce1 494E5433 		.ascii	"INT32_QUAT_NORMALIZE(q) WARNING(\"INT32_QUAT_NORMAL"
 12966      325F5155 
 12966      41545F4E 
 12966      4F524D41 
 12966      4C495A45 
 12967 9d13 495A4520 		.ascii	"IZE macro is deprecated, use the lower case functio"
 12967      6D616372 
 12967      6F206973 
 12967      20646570 
 12967      72656361 
 12968 9d46 6E20696E 		.ascii	"n instead\") int32_quat_normalize(&(q))\000"
ARM GAS  /tmp/ccKtbbXa.s 			page 309


 12968      73746561 
 12968      64222920 
 12968      696E7433 
 12968      325F7175 
 12969              	.LASF483:
 12970 9d6d 50455249 		.ascii	"PERIODIC_TELEMETRY 1\000"
 12970      4F444943 
 12970      5F54454C 
 12970      454D4554 
 12970      52592031 
 12971              	.LASF1033:
 12972 9d82 5F4B6D61 		.ascii	"_Kmax (sizeof (size_t) << 3)\000"
 12972      78202873 
 12972      697A656F 
 12972      66202873 
 12972      697A655F 
 12973              	.LASF1035:
 12974 9d9f 5F524545 		.ascii	"_REENT _impure_ptr\000"
 12974      4E54205F 
 12974      696D7075 
 12974      72655F70 
 12974      747200
 12975              	.LASF1023:
 12976 9db2 5F524545 		.ascii	"_REENT_WCTOMB_STATE(ptr) ((ptr)->_new._reent._wctom"
 12976      4E545F57 
 12976      43544F4D 
 12976      425F5354 
 12976      41544528 
 12977 9de5 625F7374 		.ascii	"b_state)\000"
 12977      61746529 
 12977      00
 12978              	.LASF1195:
 12979 9dee 6C6F6732 		.ascii	"log2(x) (log (x) / _M_LN2)\000"
 12979      28782920 
 12979      286C6F67 
 12979      20287829 
 12979      202F205F 
 12980              	.LASF323:
 12981 9e09 5F5F5351 		.ascii	"__SQ_IBIT__ 0\000"
 12981      5F494249 
 12981      545F5F20 
 12981      3000
 12982              	.LASF1628:
 12983 9e17 464C4F41 		.ascii	"FLOAT_RMAT_COMP(_m_a2c,_m_a2b,_m_b2c) WARNING(\"FLO"
 12983      545F524D 
 12983      41545F43 
 12983      4F4D5028 
 12983      5F6D5F61 
 12984 9e49 41545F52 		.ascii	"AT_RMAT_COMP macro is deprecated, use the lower cas"
 12984      4D41545F 
 12984      434F4D50 
 12984      206D6163 
 12984      726F2069 
 12985 9e7c 65206675 		.ascii	"e function instead\") float_rmat_comp(&(_m_a2c), &("
 12985      6E637469 
 12985      6F6E2069 
 12985      6E737465 
ARM GAS  /tmp/ccKtbbXa.s 			page 310


 12985      61642229 
 12986 9eae 5F6D5F61 		.ascii	"_m_a2b), &(_m_b2c))\000"
 12986      3262292C 
 12986      2026285F 
 12986      6D5F6232 
 12986      63292900 
 12987              	.LASF685:
 12988 9ec2 494E545F 		.ascii	"INT_FAST16_MIN (-INT_FAST16_MAX - 1)\000"
 12988      46415354 
 12988      31365F4D 
 12988      494E2028 
 12988      2D494E54 
 12989              	.LASF395:
 12990 9ee7 5F5F4152 		.ascii	"__ARM_FEATURE_SIMD32 1\000"
 12990      4D5F4645 
 12990      41545552 
 12990      455F5349 
 12990      4D443332 
 12991              	.LASF768:
 12992 9efe 5F5F6E65 		.ascii	"__need_NULL\000"
 12992      65645F4E 
 12992      554C4C00 
 12993              	.LASF942:
 12994 9f0a 6F666673 		.ascii	"offsetof(TYPE,MEMBER) __builtin_offsetof (TYPE, MEM"
 12994      65746F66 
 12994      28545950 
 12994      452C4D45 
 12994      4D424552 
 12995 9f3d 42455229 		.ascii	"BER)\000"
 12995      00
 12996              	.LASF513:
 12997 9f42 5553455F 		.ascii	"USE_IMU 1\000"
 12997      494D5520 
 12997      3100
 12998              	.LASF1391:
 12999 9f4c 52415445 		.ascii	"RATES_ADD(_a,_b) { (_a).p += (_b).p; (_a).q += (_b)"
 12999      535F4144 
 12999      44285F61 
 12999      2C5F6229 
 12999      207B2028 
 13000 9f7f 2E713B20 		.ascii	".q; (_a).r += (_b).r; }\000"
 13000      285F6129 
 13000      2E72202B 
 13000      3D20285F 
 13000      62292E72 
 13001              	.LASF331:
 13002 9f97 5F5F5548 		.ascii	"__UHQ_IBIT__ 0\000"
 13002      515F4942 
 13002      49545F5F 
 13002      203000
 13003              	.LASF1122:
 13004 9fa6 5F5F636F 		.ascii	"__containerof(x,s,m) ({ const volatile __typeof(((s"
 13004      6E746169 
 13004      6E65726F 
 13004      6628782C 
 13004      732C6D29 
 13005 9fd9 202A2930 		.ascii	" *)0)->m) *__x = (x); __DEQUALIFY(s *, (const volat"
ARM GAS  /tmp/ccKtbbXa.s 			page 311


 13005      292D3E6D 
 13005      29202A5F 
 13005      5F78203D 
 13005      20287829 
 13006 a00c 696C6520 		.ascii	"ile char *)__x - __offsetof(s, m));})\000"
 13006      63686172 
 13006      202A295F 
 13006      5F78202D 
 13006      205F5F6F 
 13007              	.LASF1630:
 13008 a032 464C4F41 		.ascii	"FLOAT_RMAT_VMULT(_vb,_m_a2b,_va) WARNING(\"FLOAT_RM"
 13008      545F524D 
 13008      41545F56 
 13008      4D554C54 
 13008      285F7662 
 13009 a064 41545F56 		.ascii	"AT_VMULT macro is deprecated, use the lower case fu"
 13009      4D554C54 
 13009      206D6163 
 13009      726F2069 
 13009      73206465 
 13010 a097 6E637469 		.ascii	"nction instead\") float_rmat_vmult(&(_vb), &(_m_a2b"
 13010      6F6E2069 
 13010      6E737465 
 13010      61642229 
 13010      20666C6F 
 13011 a0c9 292C2026 		.ascii	"), &(_va))\000"
 13011      285F7661 
 13011      292900
 13012              	.LASF967:
 13013 a0d4 5F54494D 		.ascii	"_TIMER_T_ unsigned long\000"
 13013      45525F54 
 13013      5F20756E 
 13013      7369676E 
 13013      6564206C 
 13014              	.LASF1091:
 13015 a0ec 5F5F7061 		.ascii	"__packed __attribute__((__packed__))\000"
 13015      636B6564 
 13015      205F5F61 
 13015      74747269 
 13015      62757465 
 13016              	.LASF806:
 13017 a111 53434E6F 		.ascii	"SCNo16 __SCN16(o)\000"
 13017      3136205F 
 13017      5F53434E 
 13017      3136286F 
 13017      2900
 13018              	.LASF240:
 13019 a123 5F5F5346 		.ascii	"__SFRACT_MIN__ (-0.5HR-0.5HR)\000"
 13019      52414354 
 13019      5F4D494E 
 13019      5F5F2028 
 13019      2D302E35 
 13020              	.LASF406:
 13021 a141 5F5F7468 		.ascii	"__thumb2__ 1\000"
 13021      756D6232 
 13021      5F5F2031 
 13021      00
ARM GAS  /tmp/ccKtbbXa.s 			page 312


 13022              	.LASF359:
 13023 a14e 5F5F4743 		.ascii	"__GCC_HAVE_SYNC_COMPARE_AND_SWAP_1 1\000"
 13023      435F4841 
 13023      56455F53 
 13023      594E435F 
 13023      434F4D50 
 13024              	.LASF1465:
 13025 a173 5F4E4557 		.ascii	"_NEWLIB_ALLOCA_H \000"
 13025      4C49425F 
 13025      414C4C4F 
 13025      43415F48 
 13025      2000
 13026              	.LASF298:
 13027 a185 5F5F4C41 		.ascii	"__LACCUM_FBIT__ 31\000"
 13027      4343554D 
 13027      5F464249 
 13027      545F5F20 
 13027      333100
 13028              	.LASF847:
 13029 a198 53434E78 		.ascii	"SCNx32 __SCN32(x)\000"
 13029      3332205F 
 13029      5F53434E 
 13029      33322878 
 13029      2900
 13030              	.LASF885:
 13031 a1aa 53434E69 		.ascii	"SCNiMAX __SCNMAX(i)\000"
 13031      4D415820 
 13031      5F5F5343 
 13031      4E4D4158 
 13031      28692900 
 13032              	.LASF305:
 13033 a1be 5F5F554C 		.ascii	"__ULACCUM_MIN__ 0.0ULK\000"
 13033      41434355 
 13033      4D5F4D49 
 13033      4E5F5F20 
 13033      302E3055 
 13034              	.LASF190:
 13035 a1d5 5F5F4C44 		.ascii	"__LDBL_HAS_INFINITY__ 1\000"
 13035      424C5F48 
 13035      41535F49 
 13035      4E46494E 
 13035      4954595F 
 13036              	.LASF524:
 13037 a1ed 454E555F 		.ascii	"ENU_OF_TO_NED(_po,_pi) { (_po).x = (_pi).y; (_po).y"
 13037      4F465F54 
 13037      4F5F4E45 
 13037      44285F70 
 13037      6F2C5F70 
 13038 a220 203D2028 		.ascii	" = (_pi).x; (_po).z = -(_pi).z; }\000"
 13038      5F706929 
 13038      2E783B20 
 13038      285F706F 
 13038      292E7A20 
 13039              	.LASF318:
 13040 a242 5F5F5151 		.ascii	"__QQ_FBIT__ 7\000"
 13040      5F464249 
 13040      545F5F20 
ARM GAS  /tmp/ccKtbbXa.s 			page 313


 13040      3700
 13041              	.LASF1103:
 13042 a250 5F5F6D69 		.ascii	"__min_size(x) static (x)\000"
 13042      6E5F7369 
 13042      7A652878 
 13042      29207374 
 13042      61746963 
 13043              	.LASF849:
 13044 a269 50524969 		.ascii	"PRIiLEAST32 __PRI32LEAST(i)\000"
 13044      4C454153 
 13044      54333220 
 13044      5F5F5052 
 13044      4933324C 
 13045              	.LASF943:
 13046 a285 5F535953 		.ascii	"_SYS__TYPES_H \000"
 13046      5F5F5459 
 13046      5045535F 
 13046      482000
 13047              	.LASF1239:
 13048 a294 53545249 		.ascii	"STRINGIFY(s) _STRINGIFY(s)\000"
 13048      4E474946 
 13048      59287329 
 13048      205F5354 
 13048      52494E47 
 13049              	.LASF1732:
 13050 a2af 656E755F 		.ascii	"enu_of_lla_point_i\000"
 13050      6F665F6C 
 13050      6C615F70 
 13050      6F696E74 
 13050      5F6900
 13051              	.LASF1645:
 13052 a2c2 464C4F41 		.ascii	"FLOAT_QUAT_NORM(_q) WARNING(\"FLOAT_QUAT_NORM macro"
 13052      545F5155 
 13052      41545F4E 
 13052      4F524D28 
 13052      5F712920 
 13053 a2f4 20697320 		.ascii	" is deprecated, use the lower case function instead"
 13053      64657072 
 13053      65636174 
 13053      65642C20 
 13053      75736520 
 13054 a327 22292066 		.ascii	"\") float_quat_norm(&(_q))\000"
 13054      6C6F6174 
 13054      5F717561 
 13054      745F6E6F 
 13054      726D2826 
 13055              	.LASF1404:
 13056 a341 4D415433 		.ascii	"MAT33_COPY(_mat1,_mat2) { MAT33_ELMT((_mat1),0,0) ="
 13056      335F434F 
 13056      5059285F 
 13056      6D617431 
 13056      2C5F6D61 
 13057 a374 204D4154 		.ascii	" MAT33_ELMT((_mat2),0,0); MAT33_ELMT((_mat1),0,1) ="
 13057      33335F45 
 13057      4C4D5428 
 13057      285F6D61 
 13057      7432292C 
ARM GAS  /tmp/ccKtbbXa.s 			page 314


 13058 a3a7 204D4154 		.ascii	" MAT33_ELMT((_mat2),0,1); MAT33_ELMT((_mat1),0,2) ="
 13058      33335F45 
 13058      4C4D5428 
 13058      285F6D61 
 13058      7432292C 
 13059 a3da 204D4154 		.ascii	" MAT33_ELMT((_mat2),0,2); MAT33_ELMT((_mat1),1,0) ="
 13059      33335F45 
 13059      4C4D5428 
 13059      285F6D61 
 13059      7432292C 
 13060 a40d 204D4154 		.ascii	" MAT33_ELMT((_mat2),1,0); MAT33_ELMT((_mat1),1,1) ="
 13060      33335F45 
 13060      4C4D5428 
 13060      285F6D61 
 13060      7432292C 
 13061 a440 204D4154 		.ascii	" MAT33_ELMT((_mat2),1,1); MAT33_ELMT((_mat1),1,2) ="
 13061      33335F45 
 13061      4C4D5428 
 13061      285F6D61 
 13061      7432292C 
 13062 a473 204D4154 		.ascii	" MAT33_ELMT((_mat2),1,2); MAT33_ELMT((_mat1),2,0) ="
 13062      33335F45 
 13062      4C4D5428 
 13062      285F6D61 
 13062      7432292C 
 13063 a4a6 204D4154 		.ascii	" MAT33_ELMT((_mat2),2,0); MAT33_ELMT((_mat1),2,1) ="
 13063      33335F45 
 13063      4C4D5428 
 13063      285F6D61 
 13063      7432292C 
 13064 a4d9 204D4154 		.ascii	" MAT33_ELMT((_mat2),2,1); MAT33_ELMT((_mat1),2,2) ="
 13064      33335F45 
 13064      4C4D5428 
 13064      285F6D61 
 13064      7432292C 
 13065 a50c 204D4154 		.ascii	" MAT33_ELMT((_mat2),2,2); }\000"
 13065      33335F45 
 13065      4C4D5428 
 13065      285F6D61 
 13065      7432292C 
 13066              	.LASF1602:
 13067 a528 48494748 		.ascii	"HIGH_RES_RMAT_BFP_OF_REAL(_ei,_ef) { (_ei).m[0] = B"
 13067      5F524553 
 13067      5F524D41 
 13067      545F4246 
 13067      505F4F46 
 13068 a55b 46505F4F 		.ascii	"FP_OF_REAL((_ef).m[0], HIGH_RES_TRIG_FRAC); (_ei).m"
 13068      465F5245 
 13068      414C2828 
 13068      5F656629 
 13068      2E6D5B30 
 13069 a58e 5B315D20 		.ascii	"[1] = BFP_OF_REAL((_ef).m[1], HIGH_RES_TRIG_FRAC); "
 13069      3D204246 
 13069      505F4F46 
 13069      5F524541 
 13069      4C28285F 
 13070 a5c1 285F6569 		.ascii	"(_ei).m[2] = BFP_OF_REAL((_ef).m[2], HIGH_RES_TRIG_"
ARM GAS  /tmp/ccKtbbXa.s 			page 315


 13070      292E6D5B 
 13070      325D203D 
 13070      20424650 
 13070      5F4F465F 
 13071 a5f4 46524143 		.ascii	"FRAC); (_ei).m[3] = BFP_OF_REAL((_ef).m[3], HIGH_RE"
 13071      293B2028 
 13071      5F656929 
 13071      2E6D5B33 
 13071      5D203D20 
 13072 a627 535F5452 		.ascii	"S_TRIG_FRAC); (_ei).m[4] = BFP_OF_REAL((_ef).m[4], "
 13072      49475F46 
 13072      52414329 
 13072      3B20285F 
 13072      6569292E 
 13073 a65a 48494748 		.ascii	"HIGH_RES_TRIG_FRAC); (_ei).m[5] = BFP_OF_REAL((_ef)"
 13073      5F524553 
 13073      5F545249 
 13073      475F4652 
 13073      4143293B 
 13074 a68d 2E6D5B35 		.ascii	".m[5], HIGH_RES_TRIG_FRAC); (_ei).m[6] = BFP_OF_REA"
 13074      5D2C2048 
 13074      4947485F 
 13074      5245535F 
 13074      54524947 
 13075 a6c0 4C28285F 		.ascii	"L((_ef).m[6], HIGH_RES_TRIG_FRAC); (_ei).m[7] = BFP"
 13075      6566292E 
 13075      6D5B365D 
 13075      2C204849 
 13075      47485F52 
 13076 a6f3 5F4F465F 		.ascii	"_OF_REAL((_ef).m[7], HIGH_RES_TRIG_FRAC); (_ei).m[8"
 13076      5245414C 
 13076      28285F65 
 13076      66292E6D 
 13076      5B375D2C 
 13077 a726 5D203D20 		.ascii	"] = BFP_OF_REAL((_ef).m[8], HIGH_RES_TRIG_FRAC); }\000"
 13077      4246505F 
 13077      4F465F52 
 13077      45414C28 
 13077      285F6566 
 13078              	.LASF1135:
 13079 a759 5F5F5243 		.ascii	"__RCSID(s) struct __hack\000"
 13079      53494428 
 13079      73292073 
 13079      74727563 
 13079      74205F5F 
 13080              	.LASF979:
 13081 a772 5F5F6C6F 		.ascii	"__lock_try_acquire(lock) ((void) 0)\000"
 13081      636B5F74 
 13081      72795F61 
 13081      63717569 
 13081      7265286C 
 13082              	.LASF111:
 13083 a796 5F5F494E 		.ascii	"__INT32_C(c) c ## L\000"
 13083      5433325F 
 13083      43286329 
 13083      20632023 
 13083      23204C00 
ARM GAS  /tmp/ccKtbbXa.s 			page 316


 13084              	.LASF1055:
 13085 a7aa 5F5F454E 		.ascii	"__END_DECLS \000"
 13085      445F4445 
 13085      434C5320 
 13085      00
 13086              	.LASF333:
 13087 a7b7 5F5F5553 		.ascii	"__USQ_IBIT__ 0\000"
 13087      515F4942 
 13087      49545F5F 
 13087      203000
 13088              	.LASF216:
 13089 a7c6 5F5F464C 		.ascii	"__FLT64_NORM_MAX__ 1.7976931348623157e+308F64\000"
 13089      5436345F 
 13089      4E4F524D 
 13089      5F4D4158 
 13089      5F5F2031 
 13090              	.LASF700:
 13091 a7f4 494E5450 		.ascii	"INTPTR_MAX\000"
 13091      54525F4D 
 13091      415800
 13092              	.LASF599:
 13093 a7ff 73686F72 		.ascii	"short +1\000"
 13093      74202B31 
 13093      00
 13094              	.LASF1752:
 13095 a808 6C74705F 		.ascii	"ltp_of_ecef_rmat_from_lla_i\000"
 13095      6F665F65 
 13095      6365665F 
 13095      726D6174 
 13095      5F66726F 
 13096              	.LASF1064:
 13097 a824 5F5F474E 		.ascii	"__GNUCLIKE_BUILTIN_STDARG 1\000"
 13097      55434C49 
 13097      4B455F42 
 13097      55494C54 
 13097      494E5F53 
 13098              	.LASF1274:
 13099 a840 426C656E 		.ascii	"Blend(a,b,rho) (((rho)*(a))+(1-(rho))*(b))\000"
 13099      6428612C 
 13099      622C7268 
 13099      6F292028 
 13099      28287268 
 13100              	.LASF770:
 13101 a86b 5F5F5354 		.ascii	"__STRINGIFY(a) #a\000"
 13101      52494E47 
 13101      49465928 
 13101      61292023 
 13101      6100
 13102              	.LASF556:
 13103 a87d 5F5F4945 		.ascii	"__IEEE_LITTLE_ENDIAN \000"
 13103      45455F4C 
 13103      4954544C 
 13103      455F454E 
 13103      4449414E 
 13104              	.LASF1679:
 13105 a893 4B302030 		.ascii	"K0 0.9996\000"
 13105      2E393939 
ARM GAS  /tmp/ccKtbbXa.s 			page 317


 13105      3600
 13106              	.LASF693:
 13107 a89d 55494E54 		.ascii	"UINT_FAST32_MAX __UINT_FAST32_MAX__\000"
 13107      5F464153 
 13107      5433325F 
 13107      4D415820 
 13107      5F5F5549 
 13108              	.LASF619:
 13109 a8c1 5F424547 		.ascii	"_BEGIN_STD_C \000"
 13109      494E5F53 
 13109      54445F43 
 13109      2000
 13110              	.LASF1190:
 13111 a8cf 69736772 		.ascii	"isgreaterequal(__x,__y) (__builtin_isgreaterequal ("
 13111      65617465 
 13111      72657175 
 13111      616C285F 
 13111      5F782C5F 
 13112 a902 5F5F782C 		.ascii	"__x, __y))\000"
 13112      205F5F79 
 13112      292900
 13113              	.LASF742:
 13114 a90d 55494E54 		.ascii	"UINT32_C\000"
 13114      33325F43 
 13114      00
 13115              	.LASF1695:
 13116 a916 73686F72 		.ascii	"short unsigned int\000"
 13116      7420756E 
 13116      7369676E 
 13116      65642069 
 13116      6E7400
 13117              	.LASF1441:
 13118 a929 53504545 		.ascii	"SPEEDS_BFP_OF_REAL(_ef,_ei) { (_ef).x = SPEED_BFP_O"
 13118      44535F42 
 13118      46505F4F 
 13118      465F5245 
 13118      414C285F 
 13119 a95c 465F5245 		.ascii	"F_REAL((_ei).x); (_ef).y = SPEED_BFP_OF_REAL((_ei)."
 13119      414C2828 
 13119      5F656929 
 13119      2E78293B 
 13119      20285F65 
 13120 a98f 79293B20 		.ascii	"y); (_ef).z = SPEED_BFP_OF_REAL((_ei).z); }\000"
 13120      285F6566 
 13120      292E7A20 
 13120      3D205350 
 13120      4545445F 
 13121              	.LASF1662:
 13122 a9bb 464C4F41 		.ascii	"FLOAT_QUAT_OF_RMAT(_q,_r) WARNING(\"FLOAT_QUAT_OF_R"
 13122      545F5155 
 13122      41545F4F 
 13122      465F524D 
 13122      4154285F 
 13123 a9ed 4D415420 		.ascii	"MAT macro is deprecated, use the lower case functio"
 13123      6D616372 
 13123      6F206973 
 13123      20646570 
ARM GAS  /tmp/ccKtbbXa.s 			page 318


 13123      72656361 
 13124 aa20 6E20696E 		.ascii	"n instead\") float_quat_of_rmat(&(_q), &(_r))\000"
 13124      73746561 
 13124      64222920 
 13124      666C6F61 
 13124      745F7175 
 13125              	.LASF1687:
 13126 aa4d 7369676E 		.ascii	"signed char\000"
 13126      65642063 
 13126      68617200 
 13127              	.LASF960:
 13128 aa59 5F5F5F69 		.ascii	"___int_least64_t_defined 1\000"
 13128      6E745F6C 
 13128      65617374 
 13128      36345F74 
 13128      5F646566 
 13129              	.LASF506:
 13130 aa74 5553455F 		.ascii	"USE_AHRS_ALIGNER 1\000"
 13130      41485253 
 13130      5F414C49 
 13130      474E4552 
 13130      203100
 13131              	.LASF1266:
 13132 aa87 426F756E 		.ascii	"Bound(_x,_min,_max) { if (!(_x > (_min))) _x = (_mi"
 13132      64285F78 
 13132      2C5F6D69 
 13132      6E2C5F6D 
 13132      61782920 
 13133 aaba 6E293B20 		.ascii	"n); else if (!(_x < (_max))) _x = (_max); }\000"
 13133      656C7365 
 13133      20696620 
 13133      2821285F 
 13133      78203C20 
 13134              	.LASF922:
 13135 aae6 5F5F7369 		.ascii	"__size_t__ \000"
 13135      7A655F74 
 13135      5F5F2000 
 13136              	.LASF464:
 13137 aaf2 444F574E 		.ascii	"DOWNLINK_DEVICE uart1\000"
 13137      4C494E4B 
 13137      5F444556 
 13137      49434520 
 13137      75617274 
 13138              	.LASF1189:
 13139 ab08 69736772 		.ascii	"isgreater(__x,__y) (__builtin_isgreater (__x, __y))"
 13139      65617465 
 13139      72285F5F 
 13139      782C5F5F 
 13139      79292028 
 13140 ab3b 00       		.ascii	"\000"
 13141              	.LASF1529:
 13142 ab3c 494E5433 		.ascii	"INT32_VECT3_RSHIFT(_o,_i,_r) { (_o).x = ((_i).x >> "
 13142      325F5645 
 13142      4354335F 
 13142      52534849 
 13142      4654285F 
 13143 ab6f 285F7229 		.ascii	"(_r)); (_o).y = ((_i).y >> (_r)); (_o).z = ((_i).z "
ARM GAS  /tmp/ccKtbbXa.s 			page 319


 13143      293B2028 
 13143      5F6F292E 
 13143      79203D20 
 13143      28285F69 
 13144 aba2 3E3E2028 		.ascii	">> (_r)); }\000"
 13144      5F722929 
 13144      3B207D00 
 13145              	.LASF522:
 13146 abae 5050525A 		.ascii	"PPRZ_GEODETIC_INT_H \000"
 13146      5F47454F 
 13146      44455449 
 13146      435F494E 
 13146      545F4820 
 13147              	.LASF223:
 13148 abc3 5F5F464C 		.ascii	"__FLT32X_MANT_DIG__ 53\000"
 13148      54333258 
 13148      5F4D414E 
 13148      545F4449 
 13148      475F5F20 
 13149              	.LASF747:
 13150 abda 494E544D 		.ascii	"INTMAX_C(c) __INTMAX_C(c)\000"
 13150      41585F43 
 13150      28632920 
 13150      5F5F494E 
 13150      544D4158 
 13151              	.LASF727:
 13152 abf4 57494E54 		.ascii	"WINT_MAX __WINT_MAX__\000"
 13152      5F4D4158 
 13152      205F5F57 
 13152      494E545F 
 13152      4D41585F 
 13153              	.LASF1424:
 13154 ac0a 524D4154 		.ascii	"RMAT_ELMT(_rm,_row,_col) MAT33_ELMT(_rm, _row, _col"
 13154      5F454C4D 
 13154      54285F72 
 13154      6D2C5F72 
 13154      6F772C5F 
 13155 ac3d 2900     		.ascii	")\000"
 13156              	.LASF1499:
 13157 ac3f 464C4F41 		.ascii	"FLOAT_OF_BFP(_vbfp,_frac) ((float)(_vbfp)/(1<<(_fra"
 13157      545F4F46 
 13157      5F424650 
 13157      285F7662 
 13157      66702C5F 
 13158 ac72 63292929 		.ascii	"c)))\000"
 13158      00
 13159              	.LASF317:
 13160 ac77 5F5F554C 		.ascii	"__ULLACCUM_EPSILON__ 0x1P-32ULLK\000"
 13160      4C414343 
 13160      554D5F45 
 13160      5053494C 
 13160      4F4E5F5F 
 13161              	.LASF1553:
 13162 ac98 494E5433 		.ascii	"INT32_QUAT_DERIVATIVE(_qd,_r,_q) WARNING(\"INT32_QU"
 13162      325F5155 
 13162      41545F44 
 13162      45524956 
ARM GAS  /tmp/ccKtbbXa.s 			page 320


 13162      41544956 
 13163 acca 41545F44 		.ascii	"AT_DERIVATIVE macro is deprecated, use the lower ca"
 13163      45524956 
 13163      41544956 
 13163      45206D61 
 13163      63726F20 
 13164 acfd 73652066 		.ascii	"se function instead\") int32_quat_derivative(&(_qd)"
 13164      756E6374 
 13164      696F6E20 
 13164      696E7374 
 13164      65616422 
 13165 ad2f 2C202628 		.ascii	", &(_r), &(_q))\000"
 13165      5F72292C 
 13165      2026285F 
 13165      71292900 
 13166              	.LASF24:
 13167 ad3f 5F5F4348 		.ascii	"__CHAR_BIT__ 8\000"
 13167      41525F42 
 13167      49545F5F 
 13167      203800
 13168              	.LASF708:
 13169 ad4e 494E544D 		.ascii	"INTMAX_MIN\000"
 13169      41585F4D 
 13169      494E00
 13170              	.LASF36:
 13171 ad59 5F5F494E 		.ascii	"__INTMAX_TYPE__ long long int\000"
 13171      544D4158 
 13171      5F545950 
 13171      455F5F20 
 13171      6C6F6E67 
 13172              	.LASF1718:
 13173 ad77 73657269 		.ascii	"serie_coeff_proj_mercator_inverse\000"
 13173      655F636F 
 13173      6566665F 
 13173      70726F6A 
 13173      5F6D6572 
 13174              	.LASF580:
 13175 ad99 5F504F49 		.ascii	"_POINTER_INT long\000"
 13175      4E544552 
 13175      5F494E54 
 13175      206C6F6E 
 13175      6700
 13176              	.LASF832:
 13177 adab 5F5F5343 		.ascii	"__SCN32(x) __INT32 __STRINGIFY(x)\000"
 13177      4E333228 
 13177      7829205F 
 13177      5F494E54 
 13177      3332205F 
 13178              	.LASF999:
 13179 adcd 5F524545 		.ascii	"_REENT_INIT(var) { 0, _REENT_STDIO_STREAM(&(var), 0"
 13179      4E545F49 
 13179      4E495428 
 13179      76617229 
 13179      207B2030 
 13180 ae00 292C205F 		.ascii	"), _REENT_STDIO_STREAM(&(var), 1), _REENT_STDIO_STR"
 13180      5245454E 
 13180      545F5354 
ARM GAS  /tmp/ccKtbbXa.s 			page 321


 13180      44494F5F 
 13180      53545245 
 13181 ae33 45414D28 		.ascii	"EAM(&(var), 2), 0, \"\", 0, _NULL, 0, _NULL, _NULL,"
 13181      26287661 
 13181      72292C20 
 13181      32292C20 
 13181      302C2022 
 13182 ae64 20302C20 		.ascii	" 0, _NULL, _NULL, 0, _NULL, { { 0, _NULL, \"\", {0,"
 13182      5F4E554C 
 13182      4C2C205F 
 13182      4E554C4C 
 13182      2C20302C 
 13183 ae95 20302C20 		.ascii	" 0, 0, 0, 0, 0, 0, 0, 0}, 0, 1, { {_RAND48_SEED_0, "
 13183      302C2030 
 13183      2C20302C 
 13183      20302C20 
 13183      302C2030 
 13184 aec8 5F52414E 		.ascii	"_RAND48_SEED_1, _RAND48_SEED_2}, {_RAND48_MULT_0, _"
 13184      4434385F 
 13184      53454544 
 13184      5F312C20 
 13184      5F52414E 
 13185 aefb 52414E44 		.ascii	"RAND48_MULT_1, _RAND48_MULT_2}, _RAND48_ADD }, {0, "
 13185      34385F4D 
 13185      554C545F 
 13185      312C205F 
 13185      52414E44 
 13186 af2e 7B307D7D 		.ascii	"{0}}, {0, {0}}, {0, {0}}, \"\", \"\", 0, {0, {0}}, "
 13186      2C207B30 
 13186      2C207B30 
 13186      7D7D2C20 
 13186      7B302C20 
 13187 af5d 7B302C20 		.ascii	"{0, {0}}, {0, {0}}, {0, {0}}, {0, {0}} } }, _REENT_"
 13187      7B307D7D 
 13187      2C207B30 
 13187      2C207B30 
 13187      7D7D2C20 
 13188 af90 494E4954 		.ascii	"INIT_ATEXIT _NULL, {_NULL, 0, _NULL} }\000"
 13188      5F415445 
 13188      58495420 
 13188      5F4E554C 
 13188      4C2C207B 
 13189              	.LASF1257:
 13190 afb7 4D4F664D 		.ascii	"MOfMm(_x) (((float)(_x))/1000.)\000"
 13190      6D285F78 
 13190      29202828 
 13190      28666C6F 
 13190      61742928 
 13191              	.LASF386:
 13192 afd7 5F5F4152 		.ascii	"__ARM_FEATURE_DOTPROD\000"
 13192      4D5F4645 
 13192      41545552 
 13192      455F444F 
 13192      5450524F 
 13193              	.LASF1037:
 13194 afed 5F474C4F 		.ascii	"_GLOBAL_ATEXIT (_GLOBAL_REENT->_atexit)\000"
 13194      42414C5F 
ARM GAS  /tmp/ccKtbbXa.s 			page 322


 13194      41544558 
 13194      49542028 
 13194      5F474C4F 
 13195              	.LASF930:
 13196 b015 5F425344 		.ascii	"_BSD_SIZE_T_ \000"
 13196      5F53495A 
 13196      455F545F 
 13196      2000
 13197              	.LASF1116:
 13198 b023 5F5F7072 		.ascii	"__predict_false(exp) __builtin_expect((exp), 0)\000"
 13198      65646963 
 13198      745F6661 
 13198      6C736528 
 13198      65787029 
 13199              	.LASF1345:
 13200 b053 5F535452 		.ascii	"_STRING_H_ \000"
 13200      494E475F 
 13200      485F2000 
 13201              	.LASF38:
 13202 b05f 5F5F4348 		.ascii	"__CHAR16_TYPE__ short unsigned int\000"
 13202      41523136 
 13202      5F545950 
 13202      455F5F20 
 13202      73686F72 
 13203              	.LASF881:
 13204 b082 50524975 		.ascii	"PRIuMAX __PRIMAX(u)\000"
 13204      4D415820 
 13204      5F5F5052 
 13204      494D4158 
 13204      28752900 
 13205              	.LASF83:
 13206 b096 5F5F4C4F 		.ascii	"__LONG_LONG_WIDTH__ 64\000"
 13206      4E475F4C 
 13206      4F4E475F 
 13206      57494454 
 13206      485F5F20 
 13207              	.LASF217:
 13208 b0ad 5F5F464C 		.ascii	"__FLT64_MIN__ 2.2250738585072014e-308F64\000"
 13208      5436345F 
 13208      4D494E5F 
 13208      5F20322E 
 13208      32323530 
 13209              	.LASF136:
 13210 b0d6 5F5F494E 		.ascii	"__INTPTR_MAX__ 0x7fffffff\000"
 13210      54505452 
 13210      5F4D4158 
 13210      5F5F2030 
 13210      78376666 
 13211              	.LASF168:
 13212 b0f0 5F5F4442 		.ascii	"__DBL_MAX__ ((double)1.7976931348623157e+308L)\000"
 13212      4C5F4D41 
 13212      585F5F20 
 13212      2828646F 
 13212      75626C65 
 13213              	.LASF889:
 13214 b11f 5F5F5052 		.ascii	"__PRIPTR(x) __STRINGIFY(x)\000"
 13214      49505452 
ARM GAS  /tmp/ccKtbbXa.s 			page 323


 13214      28782920 
 13214      5F5F5354 
 13214      52494E47 
 13215              	.LASF1614:
 13216 b13a 464C4F41 		.ascii	"FLOAT_VECT3_ZERO(_v) VECT3_ASSIGN(_v, 0., 0., 0.)\000"
 13216      545F5645 
 13216      4354335F 
 13216      5A45524F 
 13216      285F7629 
 13217              	.LASF1644:
 13218 b16c 464C4F41 		.ascii	"FLOAT_QUAT_WRAP_SHORTEST(_q) WARNING(\"FLOAT_QUAT_W"
 13218      545F5155 
 13218      41545F57 
 13218      5241505F 
 13218      53484F52 
 13219 b19e 5241505F 		.ascii	"RAP_SHORTEST macro is deprecated, use the lower cas"
 13219      53484F52 
 13219      54455354 
 13219      206D6163 
 13219      726F2069 
 13220 b1d1 65206675 		.ascii	"e function instead\") float_quat_wrap_shortest(&(_q"
 13220      6E637469 
 13220      6F6E2069 
 13220      6E737465 
 13220      61642229 
 13221 b203 292900   		.ascii	"))\000"
 13222              	.LASF372:
 13223 b206 5F5F4743 		.ascii	"__GCC_ATOMIC_POINTER_LOCK_FREE 2\000"
 13223      435F4154 
 13223      4F4D4943 
 13223      5F504F49 
 13223      4E544552 
 13224              	.LASF1142:
 13225 b227 5F4E6F6E 		.ascii	"_Nonnull \000"
 13225      6E756C6C 
 13225      2000
 13226              	.LASF970:
 13227 b231 5F5F5359 		.ascii	"__SYS_LOCK_H__ \000"
 13227      535F4C4F 
 13227      434B5F48 
 13227      5F5F2000 
 13228              	.LASF1214:
 13229 b241 4D5F5351 		.ascii	"M_SQRTPI 1.77245385090551602792981\000"
 13229      52545049 
 13229      20312E37 
 13229      37323435 
 13229      33383530 
 13230              	.LASF991:
 13231 b264 5F52414E 		.ascii	"_RAND48_MULT_1 (0xdeec)\000"
 13231      4434385F 
 13231      4D554C54 
 13231      5F312028 
 13231      30786465 
 13232              	.LASF197:
 13233 b27c 5F5F464C 		.ascii	"__FLT32_MAX_10_EXP__ 38\000"
 13233      5433325F 
 13233      4D41585F 
ARM GAS  /tmp/ccKtbbXa.s 			page 324


 13233      31305F45 
 13233      58505F5F 
 13234              	.LASF1477:
 13235 b294 494E5433 		.ascii	"INT32_POS_OF_CM_DEN 25\000"
 13235      325F504F 
 13235      535F4F46 
 13235      5F434D5F 
 13235      44454E20 
 13236              	.LASF1011:
 13237 b2ab 5F524545 		.ascii	"_REENT_RAND48_MULT(ptr) ((ptr)->_new._reent._r48._m"
 13237      4E545F52 
 13237      414E4434 
 13237      385F4D55 
 13237      4C542870 
 13238 b2de 756C7429 		.ascii	"ult)\000"
 13238      00
 13239              	.LASF667:
 13240 b2e3 494E545F 		.ascii	"INT_LEAST32_MIN (-INT_LEAST32_MAX - 1)\000"
 13240      4C454153 
 13240      5433325F 
 13240      4D494E20 
 13240      282D494E 
 13241              	.LASF601:
 13242 b30a 5F5F696E 		.ascii	"__int20__ +2\000"
 13242      7432305F 
 13242      5F202B32 
 13242      00
 13243              	.LASF1422:
 13244 b317 51554154 		.ascii	"QUAT_SDIV(_qo,_qi,_s) { (_qo).qi = (_qi).qi / (_s);"
 13244      5F534449 
 13244      56285F71 
 13244      6F2C5F71 
 13244      692C5F73 
 13245 b34a 20285F71 		.ascii	" (_qo).qx = (_qi).qx / (_s); (_qo).qy = (_qi).qy / "
 13245      6F292E71 
 13245      78203D20 
 13245      285F7169 
 13245      292E7178 
 13246 b37d 285F7329 		.ascii	"(_s); (_qo).qz = (_qi).qz / (_s); }\000"
 13246      3B20285F 
 13246      716F292E 
 13246      717A203D 
 13246      20285F71 
 13247              	.LASF652:
 13248 b3a1 494E545F 		.ascii	"INT_LEAST8_MAX\000"
 13248      4C454153 
 13248      54385F4D 
 13248      415800
 13249              	.LASF1138:
 13250 b3b0 5F5F434F 		.ascii	"__COPYRIGHT(s) struct __hack\000"
 13250      50595249 
 13250      47485428 
 13250      73292073 
 13250      74727563 
 13251              	.LASF189:
 13252 b3cd 5F5F4C44 		.ascii	"__LDBL_HAS_DENORM__ 1\000"
 13252      424C5F48 
ARM GAS  /tmp/ccKtbbXa.s 			page 325


 13252      41535F44 
 13252      454E4F52 
 13252      4D5F5F20 
 13253              	.LASF1183:
 13254 b3e3 6670636C 		.ascii	"fpclassify(__x) (__builtin_fpclassify (FP_NAN, FP_I"
 13254      61737369 
 13254      6679285F 
 13254      5F782920 
 13254      285F5F62 
 13255 b416 4E46494E 		.ascii	"NFINITE, FP_NORMAL, FP_SUBNORMAL, FP_ZERO, __x))\000"
 13255      4954452C 
 13255      2046505F 
 13255      4E4F524D 
 13255      414C2C20 
 13256              	.LASF846:
 13257 b447 53434E75 		.ascii	"SCNu32 __SCN32(u)\000"
 13257      3332205F 
 13257      5F53434E 
 13257      33322875 
 13257      2900
 13258              	.LASF911:
 13259 b459 5F414E53 		.ascii	"_ANSI_STDDEF_H \000"
 13259      495F5354 
 13259      44444546 
 13259      5F482000 
 13260              	.LASF680:
 13261 b469 55494E54 		.ascii	"UINT_FAST8_MAX\000"
 13261      5F464153 
 13261      54385F4D 
 13261      415800
 13262              	.LASF414:
 13263 b478 5F5F4152 		.ascii	"__ARM_FP16_FORMAT_IEEE\000"
 13263      4D5F4650 
 13263      31365F46 
 13263      4F524D41 
 13263      545F4945 
 13264              	.LASF1433:
 13265 b48f 524D4154 		.ascii	"RMAT_FLOAT_OF_BFP(_ef,_ei) { (_ef).m[0] = TRIG_FLOA"
 13265      5F464C4F 
 13265      41545F4F 
 13265      465F4246 
 13265      50285F65 
 13266 b4c2 545F4F46 		.ascii	"T_OF_BFP((_ei).m[0]); (_ef).m[1] = TRIG_FLOAT_OF_BF"
 13266      5F424650 
 13266      28285F65 
 13266      69292E6D 
 13266      5B305D29 
 13267 b4f5 5028285F 		.ascii	"P((_ei).m[1]); (_ef).m[2] = TRIG_FLOAT_OF_BFP((_ei)"
 13267      6569292E 
 13267      6D5B315D 
 13267      293B2028 
 13267      5F656629 
 13268 b528 2E6D5B32 		.ascii	".m[2]); (_ef).m[3] = TRIG_FLOAT_OF_BFP((_ei).m[3]);"
 13268      5D293B20 
 13268      285F6566 
 13268      292E6D5B 
 13268      335D203D 
ARM GAS  /tmp/ccKtbbXa.s 			page 326


 13269 b55b 20285F65 		.ascii	" (_ef).m[4] = TRIG_FLOAT_OF_BFP((_ei).m[4]); (_ef)."
 13269      66292E6D 
 13269      5B345D20 
 13269      3D205452 
 13269      49475F46 
 13270 b58e 6D5B355D 		.ascii	"m[5] = TRIG_FLOAT_OF_BFP((_ei).m[5]); (_ef).m[6] = "
 13270      203D2054 
 13270      5249475F 
 13270      464C4F41 
 13270      545F4F46 
 13271 b5c1 54524947 		.ascii	"TRIG_FLOAT_OF_BFP((_ei).m[6]); (_ef).m[7] = TRIG_FL"
 13271      5F464C4F 
 13271      41545F4F 
 13271      465F4246 
 13271      5028285F 
 13272 b5f4 4F41545F 		.ascii	"OAT_OF_BFP((_ei).m[7]); (_ef).m[8] = TRIG_FLOAT_OF_"
 13272      4F465F42 
 13272      46502828 
 13272      5F656929 
 13272      2E6D5B37 
 13273 b627 42465028 		.ascii	"BFP((_ei).m[8]); }\000"
 13273      285F6569 
 13273      292E6D5B 
 13273      385D293B 
 13273      207D00
 13274              	.LASF796:
 13275 b63a 5F5F5343 		.ascii	"__SCN16LEAST(x) __LEAST16 __STRINGIFY(x)\000"
 13275      4E31364C 
 13275      45415354 
 13275      28782920 
 13275      5F5F4C45 
 13276              	.LASF1585:
 13277 b663 494E5433 		.ascii	"INT32_VECT3_NED_OF_ENU(_o,_i) VECT3_ENU_OF_NED(_o,_"
 13277      325F5645 
 13277      4354335F 
 13277      4E45445F 
 13277      4F465F45 
 13278 b696 692900   		.ascii	"i)\000"
 13279              	.LASF712:
 13280 b699 50545244 		.ascii	"PTRDIFF_MAX\000"
 13280      4946465F 
 13280      4D415800 
 13281              	.LASF992:
 13282 b6a5 5F52414E 		.ascii	"_RAND48_MULT_2 (0x0005)\000"
 13282      4434385F 
 13282      4D554C54 
 13282      5F322028 
 13282      30783030 
 13283              	.LASF966:
 13284 b6bd 5F434C4F 		.ascii	"_CLOCKID_T_ unsigned long\000"
 13284      434B4944 
 13284      5F545F20 
 13284      756E7369 
 13284      676E6564 
 13285              	.LASF1076:
 13286 b6d7 5F5F4343 		.ascii	"__CC_SUPPORTS_VARADIC_XXX 1\000"
 13286      5F535550 
ARM GAS  /tmp/ccKtbbXa.s 			page 327


 13286      504F5254 
 13286      535F5641 
 13286      52414449 
 13287              	.LASF1375:
 13288 b6f3 56454354 		.ascii	"VECT3_BOUND_BOX(_v,_v_min,_v_max) { if ((_v).x > (_"
 13288      335F424F 
 13288      554E445F 
 13288      424F5828 
 13288      5F762C5F 
 13289 b726 765F6D61 		.ascii	"v_max).x) (_v).x = (_v_max).x; else if ((_v).x < (_"
 13289      78292E78 
 13289      2920285F 
 13289      76292E78 
 13289      203D2028 
 13290 b759 765F6D69 		.ascii	"v_min).x) (_v).x = (_v_min).x; if ((_v).y > (_v_max"
 13290      6E292E78 
 13290      2920285F 
 13290      76292E78 
 13290      203D2028 
 13291 b78c 292E7929 		.ascii	").y) (_v).y = (_v_max).y; else if ((_v).y < (_v_min"
 13291      20285F76 
 13291      292E7920 
 13291      3D20285F 
 13291      765F6D61 
 13292 b7bf 292E7929 		.ascii	").y) (_v).y = (_v_min).y; if ((_v).z > (_v_max).z) "
 13292      20285F76 
 13292      292E7920 
 13292      3D20285F 
 13292      765F6D69 
 13293 b7f2 285F7629 		.ascii	"(_v).z = (_v_max).z; else if ((_v).z < (_v_min).z) "
 13293      2E7A203D 
 13293      20285F76 
 13293      5F6D6178 
 13293      292E7A3B 
 13294 b825 285F7629 		.ascii	"(_v).z = (_v_min).z; }\000"
 13294      2E7A203D 
 13294      20285F76 
 13294      5F6D696E 
 13294      292E7A3B 
 13295              	.LASF1140:
 13296 b83c 5F5F4445 		.ascii	"__DEVOLATILE(type,var) ((type)(__uintptr_t)(volatil"
 13296      564F4C41 
 13296      54494C45 
 13296      28747970 
 13296      652C7661 
 13297 b86f 6520766F 		.ascii	"e void *)(var))\000"
 13297      6964202A 
 13297      29287661 
 13297      72292900 
 13298              	.LASF848:
 13299 b87f 50524964 		.ascii	"PRIdLEAST32 __PRI32LEAST(d)\000"
 13299      4C454153 
 13299      54333220 
 13299      5F5F5052 
 13299      4933324C 
 13300              	.LASF212:
 13301 b89b 5F5F464C 		.ascii	"__FLT64_MAX_EXP__ 1024\000"
ARM GAS  /tmp/ccKtbbXa.s 			page 328


 13301      5436345F 
 13301      4D41585F 
 13301      4558505F 
 13301      5F203130 
 13302              	.LASF1557:
 13303 b8b2 494E5433 		.ascii	"INT32_QUAT_OF_AXIS_ANGLE(_q,_uv,_an) WARNING(\"INT3"
 13303      325F5155 
 13303      41545F4F 
 13303      465F4158 
 13303      49535F41 
 13304 b8e4 325F5155 		.ascii	"2_QUAT_OF_AXIS_ANGLE macro is deprecated, use the l"
 13304      41545F4F 
 13304      465F4158 
 13304      49535F41 
 13304      4E474C45 
 13305 b917 6F776572 		.ascii	"ower case function instead\") int32_quat_of_axis_an"
 13305      20636173 
 13305      65206675 
 13305      6E637469 
 13305      6F6E2069 
 13306 b949 676C6528 		.ascii	"gle(&(_q), &(_uv), _an)\000"
 13306      26285F71 
 13306      292C2026 
 13306      285F7576 
 13306      292C205F 
 13307              	.LASF1594:
 13308 b961 4C4C415F 		.ascii	"LLA_FLOAT_OF_BFP(_o,_i) { (_o).lat = RAD_OF_EM7DEG("
 13308      464C4F41 
 13308      545F4F46 
 13308      5F424650 
 13308      285F6F2C 
 13309 b994 28666C6F 		.ascii	"(float)(_i).lat); (_o).lon = RAD_OF_EM7DEG((float)("
 13309      61742928 
 13309      5F69292E 
 13309      6C617429 
 13309      3B20285F 
 13310 b9c7 5F69292E 		.ascii	"_i).lon); (_o).alt = M_OF_MM((float)(_i).alt); }\000"
 13310      6C6F6E29 
 13310      3B20285F 
 13310      6F292E61 
 13310      6C74203D 
 13311              	.LASF1150:
 13312 b9f8 5F5F6C6F 		.ascii	"__lockable __lock_annotate(lockable)\000"
 13312      636B6162 
 13312      6C65205F 
 13312      5F6C6F63 
 13312      6B5F616E 
 13313              	.LASF1052:
 13314 ba1d 5F5F6861 		.ascii	"__has_extension __has_feature\000"
 13314      735F6578 
 13314      74656E73 
 13314      696F6E20 
 13314      5F5F6861 
 13315              	.LASF1311:
 13316 ba3b 464C545F 		.ascii	"FLT_MAX_EXP\000"
 13316      4D41585F 
 13316      45585000 
ARM GAS  /tmp/ccKtbbXa.s 			page 329


 13317              	.LASF1205:
 13318 ba47 4D5F5049 		.ascii	"M_PI_2 1.57079632679489661923\000"
 13318      5F322031 
 13318      2E353730 
 13318      37393633 
 13318      32363739 
 13319              	.LASF1676:
 13320 ba65 444F5542 		.ascii	"DOUBLE_QUAT_VMULT(v_out,q,v_in) WARNING(\"DOUBLE_QU"
 13320      4C455F51 
 13320      5541545F 
 13320      564D554C 
 13320      5428765F 
 13321 ba97 41545F56 		.ascii	"AT_VMULT macro is deprecated, use the lower case fu"
 13321      4D554C54 
 13321      206D6163 
 13321      726F2069 
 13321      73206465 
 13322 baca 6E637469 		.ascii	"nction instead\") double_quat_vmult(&(v_out), &(q),"
 13322      6F6E2069 
 13322      6E737465 
 13322      61642229 
 13322      20646F75 
 13323 bafc 20262876 		.ascii	" &(v_in))\000"
 13323      5F696E29 
 13323      2900
 13324              	.LASF1155:
 13325 bb06 5F5F756E 		.ascii	"__unlocks(...) __lock_annotate(unlock_function(__VA"
 13325      6C6F636B 
 13325      73282E2E 
 13325      2E29205F 
 13325      5F6C6F63 
 13326 bb39 5F415247 		.ascii	"_ARGS__))\000"
 13326      535F5F29 
 13326      2900
 13327              	.LASF246:
 13328 bb43 5F5F5553 		.ascii	"__USFRACT_MAX__ 0XFFP-8UHR\000"
 13328      46524143 
 13328      545F4D41 
 13328      585F5F20 
 13328      30584646 
 13329              	.LASF482:
 13330 bb5e 50455249 		.ascii	"PERIODIC_FREQUENCY 100\000"
 13330      4F444943 
 13330      5F465245 
 13330      5155454E 
 13330      43592031 
 13331              	.LASF447:
 13332 bb75 41485253 		.ascii	"AHRS_ALIGNER_LED 2\000"
 13332      5F414C49 
 13332      474E4552 
 13332      5F4C4544 
 13332      203200
 13333              	.LASF1187:
 13334 bb88 69736E6F 		.ascii	"isnormal(__x) (__builtin_isnormal (__x))\000"
 13334      726D616C 
 13334      285F5F78 
 13334      2920285F 
ARM GAS  /tmp/ccKtbbXa.s 			page 330


 13334      5F627569 
 13335              	.LASF199:
 13336 bbb1 5F5F464C 		.ascii	"__FLT32_MAX__ 3.4028234663852886e+38F32\000"
 13336      5433325F 
 13336      4D41585F 
 13336      5F20332E 
 13336      34303238 
 13337              	.LASF1514:
 13338 bbd9 41434345 		.ascii	"ACCEL_FLOAT_OF_BFP(_ai) FLOAT_OF_BFP((_ai), INT32_A"
 13338      4C5F464C 
 13338      4F41545F 
 13338      4F465F42 
 13338      4650285F 
 13339 bc0c 4343454C 		.ascii	"CCEL_FRAC)\000"
 13339      5F465241 
 13339      432900
 13340              	.LASF1289:
 13341 bc17 4C44424C 		.ascii	"LDBL_MANT_DIG\000"
 13341      5F4D414E 
 13341      545F4449 
 13341      4700
 13342              	.LASF975:
 13343 bc25 5F5F6C6F 		.ascii	"__lock_close(lock) ((void) 0)\000"
 13343      636B5F63 
 13343      6C6F7365 
 13343      286C6F63 
 13343      6B292028 
 13344              	.LASF1408:
 13345 bc43 4D415433 		.ascii	"MAT33_INV(_minv,_m) { const float m00 = MAT33_ELMT("
 13345      335F494E 
 13345      56285F6D 
 13345      696E762C 
 13345      5F6D2920 
 13346 bc76 285F6D29 		.ascii	"(_m),1,1)*MAT33_ELMT((_m),2,2) - MAT33_ELMT((_m),1,"
 13346      2C312C31 
 13346      292A4D41 
 13346      5433335F 
 13346      454C4D54 
 13347 bca9 32292A4D 		.ascii	"2)*MAT33_ELMT((_m),2,1); const float m10 = MAT33_EL"
 13347      41543333 
 13347      5F454C4D 
 13347      5428285F 
 13347      6D292C32 
 13348 bcdc 4D542828 		.ascii	"MT((_m),0,1)*MAT33_ELMT((_m),2,2) - MAT33_ELMT((_m)"
 13348      5F6D292C 
 13348      302C3129 
 13348      2A4D4154 
 13348      33335F45 
 13349 bd0f 2C302C32 		.ascii	",0,2)*MAT33_ELMT((_m),2,1); const float m20 = MAT33"
 13349      292A4D41 
 13349      5433335F 
 13349      454C4D54 
 13349      28285F6D 
 13350 bd42 5F454C4D 		.ascii	"_ELMT((_m),0,1)*MAT33_ELMT((_m),1,2) - MAT33_ELMT(("
 13350      5428285F 
 13350      6D292C30 
 13350      2C31292A 
ARM GAS  /tmp/ccKtbbXa.s 			page 331


 13350      4D415433 
 13351 bd75 5F6D292C 		.ascii	"_m),0,2)*MAT33_ELMT((_m),1,1); const float m01 = MA"
 13351      302C3229 
 13351      2A4D4154 
 13351      33335F45 
 13351      4C4D5428 
 13352 bda8 5433335F 		.ascii	"T33_ELMT((_m),1,0)*MAT33_ELMT((_m),2,2) - MAT33_ELM"
 13352      454C4D54 
 13352      28285F6D 
 13352      292C312C 
 13352      30292A4D 
 13353 bddb 5428285F 		.ascii	"T((_m),1,2)*MAT33_ELMT((_m),2,0); const float m11 ="
 13353      6D292C31 
 13353      2C32292A 
 13353      4D415433 
 13353      335F454C 
 13354 be0e 204D4154 		.ascii	" MAT33_ELMT((_m),0,0)*MAT33_ELMT((_m),2,2) - MAT33_"
 13354      33335F45 
 13354      4C4D5428 
 13354      285F6D29 
 13354      2C302C30 
 13355 be41 454C4D54 		.ascii	"ELMT((_m),0,2)*MAT33_ELMT((_m),2,0); const float m2"
 13355      28285F6D 
 13355      292C302C 
 13355      32292A4D 
 13355      41543333 
 13356 be74 31203D20 		.ascii	"1 = MAT33_ELMT((_m),0,0)*MAT33_ELMT((_m),1,2) - MAT"
 13356      4D415433 
 13356      335F454C 
 13356      4D542828 
 13356      5F6D292C 
 13357 bea7 33335F45 		.ascii	"33_ELMT((_m),0,2)*MAT33_ELMT((_m),1,0); const float"
 13357      4C4D5428 
 13357      285F6D29 
 13357      2C302C32 
 13357      292A4D41 
 13358 beda 206D3032 		.ascii	" m02 = MAT33_ELMT((_m),1,0)*MAT33_ELMT((_m),2,1) - "
 13358      203D204D 
 13358      41543333 
 13358      5F454C4D 
 13358      5428285F 
 13359 bf0d 4D415433 		.ascii	"MAT33_ELMT((_m),1,1)*MAT33_ELMT((_m),2,0); const fl"
 13359      335F454C 
 13359      4D542828 
 13359      5F6D292C 
 13359      312C3129 
 13360 bf40 6F617420 		.ascii	"oat m12 = MAT33_ELMT((_m),0,0)*MAT33_ELMT((_m),2,1)"
 13360      6D313220 
 13360      3D204D41 
 13360      5433335F 
 13360      454C4D54 
 13361 bf73 202D204D 		.ascii	" - MAT33_ELMT((_m),0,1)*MAT33_ELMT((_m),2,0); const"
 13361      41543333 
 13361      5F454C4D 
 13361      5428285F 
 13361      6D292C30 
 13362 bfa6 20666C6F 		.ascii	" float m22 = MAT33_ELMT((_m),0,0)*MAT33_ELMT((_m),1"
ARM GAS  /tmp/ccKtbbXa.s 			page 332


 13362      6174206D 
 13362      3232203D 
 13362      204D4154 
 13362      33335F45 
 13363 bfd9 2C312920 		.ascii	",1) - MAT33_ELMT((_m),0,1)*MAT33_ELMT((_m),1,0); co"
 13363      2D204D41 
 13363      5433335F 
 13363      454C4D54 
 13363      28285F6D 
 13364 c00c 6E737420 		.ascii	"nst float det = MAT33_ELMT((_m),0,0)*m00 - MAT33_EL"
 13364      666C6F61 
 13364      74206465 
 13364      74203D20 
 13364      4D415433 
 13365 c03f 4D542828 		.ascii	"MT((_m),1,0)*m10 + MAT33_ELMT((_m),2,0)*m20; if (fa"
 13365      5F6D292C 
 13365      312C3029 
 13365      2A6D3130 
 13365      202B204D 
 13366 c072 62732864 		.ascii	"bs(det) > FLT_EPSILON) { MAT33_ELMT((_minv),0,0) = "
 13366      65742920 
 13366      3E20464C 
 13366      545F4550 
 13366      53494C4F 
 13367 c0a5 6D303020 		.ascii	"m00 / det; MAT33_ELMT((_minv),1,0) = -m01 / det; MA"
 13367      2F206465 
 13367      743B204D 
 13367      41543333 
 13367      5F454C4D 
 13368 c0d8 5433335F 		.ascii	"T33_ELMT((_minv),2,0) = m02 / det; MAT33_ELMT((_min"
 13368      454C4D54 
 13368      28285F6D 
 13368      696E7629 
 13368      2C322C30 
 13369 c10b 76292C30 		.ascii	"v),0,1) = -m10 / det; MAT33_ELMT((_minv),1,1) = m11"
 13369      2C312920 
 13369      3D202D6D 
 13369      3130202F 
 13369      20646574 
 13370 c13e 202F2064 		.ascii	" / det; MAT33_ELMT((_minv),2,1) = -m12 / det; MAT33"
 13370      65743B20 
 13370      4D415433 
 13370      335F454C 
 13370      4D542828 
 13371 c171 5F454C4D 		.ascii	"_ELMT((_minv),0,2) = m20 / det; MAT33_ELMT((_minv),"
 13371      5428285F 
 13371      6D696E76 
 13371      292C302C 
 13371      3229203D 
 13372 c1a4 312C3229 		.ascii	"1,2) = -m21 / det; MAT33_ELMT((_minv),2,2) = m22 / "
 13372      203D202D 
 13372      6D323120 
 13372      2F206465 
 13372      743B204D 
 13373 c1d7 6465743B 		.ascii	"det; } }\000"
 13373      207D207D 
 13373      00
ARM GAS  /tmp/ccKtbbXa.s 			page 333


 13374              	.LASF1344:
 13375 c1e0 44454349 		.ascii	"DECIMAL_DIG __DECIMAL_DIG__\000"
 13375      4D414C5F 
 13375      44494720 
 13375      5F5F4445 
 13375      43494D41 
 13376              	.LASF1175:
 13377 c1fc 46505F5A 		.ascii	"FP_ZERO 2\000"
 13377      45524F20 
 13377      3200
 13378              	.LASF1626:
 13379 c206 464C4F41 		.ascii	"FLOAT_RMAT_INV(_m_b2a,_m_a2b) WARNING(\"FLOAT_RMAT_"
 13379      545F524D 
 13379      41545F49 
 13379      4E56285F 
 13379      6D5F6232 
 13380 c238 494E5620 		.ascii	"INV macro is deprecated, use the lower case functio"
 13380      6D616372 
 13380      6F206973 
 13380      20646570 
 13380      72656361 
 13381 c26b 6E20696E 		.ascii	"n instead\") float_rmat_inv(&(_m_b2a), &(_m_a2b))\000"
 13381      73746561 
 13381      64222920 
 13381      666C6F61 
 13381      745F726D 
 13382              	.LASF1131:
 13383 c29c 5F5F7761 		.ascii	"__warn_references(sym,msg) __asm__(\".section .gnu."
 13383      726E5F72 
 13383      65666572 
 13383      656E6365 
 13383      73287379 
 13384 c2ce 7761726E 		.ascii	"warning.\" #sym); __asm__(\".asciz \\\"\" msg \"\\\""
 13384      696E672E 
 13384      22202373 
 13384      796D293B 
 13384      205F5F61 
 13385 c2fa 22293B20 		.ascii	"\"); __asm__(\".previous\")\000"
 13385      5F5F6173 
 13385      6D5F5F28 
 13385      222E7072 
 13385      6576696F 
 13386              	.LASF1017:
 13387 c313 5F524545 		.ascii	"_REENT_ASCTIME_BUF(ptr) ((ptr)->_new._reent._asctim"
 13387      4E545F41 
 13387      53435449 
 13387      4D455F42 
 13387      55462870 
 13388 c346 655F6275 		.ascii	"e_buf)\000"
 13388      662900
 13389              	.LASF1102:
 13390 c34d 5F5F6765 		.ascii	"__generic(expr,t,yes,no) __builtin_choose_expr( __b"
 13390      6E657269 
 13390      63286578 
 13390      70722C74 
 13390      2C796573 
 13391 c380 75696C74 		.ascii	"uiltin_types_compatible_p(__typeof(expr), t), yes, "
ARM GAS  /tmp/ccKtbbXa.s 			page 334


 13391      696E5F74 
 13391      79706573 
 13391      5F636F6D 
 13391      70617469 
 13392 c3b3 6E6F2900 		.ascii	"no)\000"
 13393              	.LASF332:
 13394 c3b7 5F5F5553 		.ascii	"__USQ_FBIT__ 32\000"
 13394      515F4642 
 13394      49545F5F 
 13394      20333200 
 13395              	.LASF820:
 13396 c3c7 50524964 		.ascii	"PRIdFAST16 __PRI16FAST(d)\000"
 13396      46415354 
 13396      3136205F 
 13396      5F505249 
 13396      31364641 
 13397              	.LASF57:
 13398 c3e1 5F5F494E 		.ascii	"__INT_FAST8_TYPE__ int\000"
 13398      545F4641 
 13398      5354385F 
 13398      54595045 
 13398      5F5F2069 
 13399              	.LASF354:
 13400 c3f8 5F5F5245 		.ascii	"__REGISTER_PREFIX__ \000"
 13400      47495354 
 13400      45525F50 
 13400      52454649 
 13400      585F5F20 
 13401              	.LASF1756:
 13402 c40d 636F735F 		.ascii	"cos_lon\000"
 13402      6C6F6E00 
 13403              	.LASF739:
 13404 c415 55494E54 		.ascii	"UINT8_C(c) __UINT8_C(c)\000"
 13404      385F4328 
 13404      6329205F 
 13404      5F55494E 
 13404      54385F43 
 13405              	.LASF644:
 13406 c42d 55494E54 		.ascii	"UINT32_MAX\000"
 13406      33325F4D 
 13406      415800
 13407              	.LASF436:
 13408 c438 5F5F4152 		.ascii	"__ARM_FEATURE_BF16_SCALAR_ARITHMETIC\000"
 13408      4D5F4645 
 13408      41545552 
 13408      455F4246 
 13408      31365F53 
 13409              	.LASF1043:
 13410 c45d 5F5F7074 		.ascii	"__ptr_t void *\000"
 13410      725F7420 
 13410      766F6964 
 13410      202A00
 13411              	.LASF484:
 13412 c46c 50455249 		.ascii	"PERIPHERALS_AUTO_INIT 1\000"
 13412      50484552 
 13412      414C535F 
 13412      4155544F 
ARM GAS  /tmp/ccKtbbXa.s 			page 335


 13412      5F494E49 
 13413              	.LASF869:
 13414 c484 53434E78 		.ascii	"SCNxFAST32 __SCN32FAST(x)\000"
 13414      46415354 
 13414      3332205F 
 13414      5F53434E 
 13414      33324641 
 13415              	.LASF249:
 13416 c49e 5F5F4652 		.ascii	"__FRACT_IBIT__ 0\000"
 13416      4143545F 
 13416      49424954 
 13416      5F5F2030 
 13416      00
 13417              	.LASF590:
 13418 c4af 756E7369 		.ascii	"unsigned\000"
 13418      676E6564 
 13418      00
 13419              	.LASF1561:
 13420 c4b8 494E5433 		.ascii	"INT32_EULERS_OF_QUAT(_e,_q) WARNING(\"INT32_EULERS_"
 13420      325F4555 
 13420      4C455253 
 13420      5F4F465F 
 13420      51554154 
 13421 c4ea 4F465F51 		.ascii	"OF_QUAT macro is deprecated, use the lower case fun"
 13421      55415420 
 13421      6D616372 
 13421      6F206973 
 13421      20646570 
 13422 c51d 6374696F 		.ascii	"ction instead\") int32_eulers_of_quat(&(_e), &(_q))"
 13422      6E20696E 
 13422      73746561 
 13422      64222920 
 13422      696E7433 
 13423 c54f 00       		.ascii	"\000"
 13424              	.LASF4:
 13425 c550 5F5F5354 		.ascii	"__STDC_HOSTED__ 1\000"
 13425      44435F48 
 13425      4F535445 
 13425      445F5F20 
 13425      3100
 13426              	.LASF1726:
 13427 c562 6C6C615F 		.ascii	"lla_of_ecef_i\000"
 13427      6F665F65 
 13427      6365665F 
 13427      6900
 13428              	.LASF91:
 13429 c570 5F5F5549 		.ascii	"__UINTMAX_C(c) c ## ULL\000"
 13429      4E544D41 
 13429      585F4328 
 13429      63292063 
 13429      20232320 
 13430              	.LASF1312:
 13431 c588 44424C5F 		.ascii	"DBL_MAX_EXP\000"
 13431      4D41585F 
 13431      45585000 
 13432              	.LASF1188:
 13433 c594 7369676E 		.ascii	"signbit(__x) ((sizeof(__x) == sizeof(float)) ? __bu"
ARM GAS  /tmp/ccKtbbXa.s 			page 336


 13433      62697428 
 13433      5F5F7829 
 13433      20282873 
 13433      697A656F 
 13434 c5c7 696C7469 		.ascii	"iltin_signbitf(__x) : (sizeof(__x) == sizeof(double"
 13434      6E5F7369 
 13434      676E6269 
 13434      7466285F 
 13434      5F782920 
 13435 c5fa 2929203F 		.ascii	")) ? __builtin_signbit (__x) : __builtin_signbitl(_"
 13435      205F5F62 
 13435      75696C74 
 13435      696E5F73 
 13435      69676E62 
 13436 c62d 5F782929 		.ascii	"_x))\000"
 13436      00
 13437              	.LASF1723:
 13438 c632 65636566 		.ascii	"ecef_of_lla_i\000"
 13438      5F6F665F 
 13438      6C6C615F 
 13438      6900
 13439              	.LASF1385:
 13440 c640 45554C45 		.ascii	"EULERS_DIFF(_c,_a,_b) { (_c).phi = (_a).phi - (_b)."
 13440      52535F44 
 13440      49464628 
 13440      5F632C5F 
 13440      612C5F62 
 13441 c673 7068693B 		.ascii	"phi; (_c).theta = (_a).theta - (_b).theta; (_c).psi"
 13441      20285F63 
 13441      292E7468 
 13441      65746120 
 13441      3D20285F 
 13442 c6a6 203D2028 		.ascii	" = (_a).psi - (_b).psi; }\000"
 13442      5F61292E 
 13442      70736920 
 13442      2D20285F 
 13442      62292E70 
 13443              	.LASF1158:
 13444 c6c0 5F5F7265 		.ascii	"__requires_exclusive(...) __lock_annotate(exclusive"
 13444      71756972 
 13444      65735F65 
 13444      78636C75 
 13444      73697665 
 13445 c6f3 5F6C6F63 		.ascii	"_locks_required(__VA_ARGS__))\000"
 13445      6B735F72 
 13445      65717569 
 13445      72656428 
 13445      5F5F5641 
 13446              	.LASF514:
 13447 c711 5553455F 		.ascii	"USE_LED 1\000"
 13447      4C454420 
 13447      3100
 13448              	.LASF790:
 13449 c71b 50524978 		.ascii	"PRIxFAST8 __PRI8FAST(x)\000"
 13449      46415354 
 13449      38205F5F 
 13449      50524938 
ARM GAS  /tmp/ccKtbbXa.s 			page 337


 13449      46415354 
 13450              	.LASF1689:
 13451 c733 6C6F6E67 		.ascii	"long int\000"
 13451      20696E74 
 13451      00
 13452              	.LASF1233:
 13453 c73c 494E464F 		.ascii	"INFO_VALUE(x,v) DO_PRAGMA(message (\"Info: \" x VAL"
 13453      5F56414C 
 13453      55452878 
 13453      2C762920 
 13453      444F5F50 
 13454 c76d 55452876 		.ascii	"UE(v)))\000"
 13454      29292900 
 13455              	.LASF76:
 13456 c775 5F5F5749 		.ascii	"__WINT_MIN__ 0U\000"
 13456      4E545F4D 
 13456      494E5F5F 
 13456      20305500 
 13457              	.LASF1222:
 13458 c785 5F4C4942 		.ascii	"_LIB_VERSION __fdlib_version\000"
 13458      5F564552 
 13458      53494F4E 
 13458      205F5F66 
 13458      646C6962 
 13459              	.LASF1015:
 13460 c7a2 5F524545 		.ascii	"_REENT_MP_P5S(ptr) ((ptr)->_p5s)\000"
 13460      4E545F4D 
 13460      505F5035 
 13460      53287074 
 13460      72292028 
 13461              	.LASF555:
 13462 c7c3 5F5F5359 		.ascii	"__SYS_CONFIG_H__ \000"
 13462      535F434F 
 13462      4E464947 
 13462      5F485F5F 
 13462      2000
 13463              	.LASF169:
 13464 c7d5 5F5F4442 		.ascii	"__DBL_NORM_MAX__ ((double)1.7976931348623157e+308L)"
 13464      4C5F4E4F 
 13464      524D5F4D 
 13464      41585F5F 
 13464      20282864 
 13465 c808 00       		.ascii	"\000"
 13466              	.LASF1652:
 13467 c809 464C4F41 		.ascii	"FLOAT_QUAT_COMP_INV_NORM_SHORTEST(_a2b,_a2c,_b2c) W"
 13467      545F5155 
 13467      41545F43 
 13467      4F4D505F 
 13467      494E565F 
 13468 c83c 41524E49 		.ascii	"ARNING(\"FLOAT_QUAT_COMP_INV_NORM_SHORTEST macro is"
 13468      4E472822 
 13468      464C4F41 
 13468      545F5155 
 13468      41545F43 
 13469 c86e 20646570 		.ascii	" deprecated, use the lower case function instead\")"
 13469      72656361 
 13469      7465642C 
ARM GAS  /tmp/ccKtbbXa.s 			page 338


 13469      20757365 
 13469      20746865 
 13470 c8a0 20666C6F 		.ascii	" float_quat_comp_inv_norm_shortest(&(_a2b), &(_a2c)"
 13470      61745F71 
 13470      7561745F 
 13470      636F6D70 
 13470      5F696E76 
 13471 c8d3 2C202628 		.ascii	", &(_b2c))\000"
 13471      5F623263 
 13471      292900
 13472              	.LASF634:
 13473 c8de 494E5431 		.ascii	"INT16_MAX\000"
 13473      365F4D41 
 13473      5800
 13474              	.LASF173:
 13475 c8e8 5F5F4442 		.ascii	"__DBL_HAS_DENORM__ 1\000"
 13475      4C5F4841 
 13475      535F4445 
 13475      4E4F524D 
 13475      5F5F2031 
 13476              	.LASF784:
 13477 c8fd 50524978 		.ascii	"PRIxLEAST8 __PRI8LEAST(x)\000"
 13477      4C454153 
 13477      5438205F 
 13477      5F505249 
 13477      384C4541 
 13478              	.LASF1213:
 13479 c917 4D5F3350 		.ascii	"M_3PI_4 2.3561944901923448370E0\000"
 13479      495F3420 
 13479      322E3335 
 13479      36313934 
 13479      34393031 
 13480              	.LASF570:
 13481 c937 5F5F4154 		.ascii	"__ATFILE_VISIBLE 1\000"
 13481      46494C45 
 13481      5F564953 
 13481      49424C45 
 13481      203100
 13482              	.LASF360:
 13483 c94a 5F5F4743 		.ascii	"__GCC_HAVE_SYNC_COMPARE_AND_SWAP_2 1\000"
 13483      435F4841 
 13483      56455F53 
 13483      594E435F 
 13483      434F4D50 
 13484              	.LASF213:
 13485 c96f 5F5F464C 		.ascii	"__FLT64_MAX_10_EXP__ 308\000"
 13485      5436345F 
 13485      4D41585F 
 13485      31305F45 
 13485      58505F5F 
 13486              	.LASF1468:
 13487 c988 5F5F636F 		.ascii	"__compar_fn_t_defined \000"
 13487      6D706172 
 13487      5F666E5F 
 13487      745F6465 
 13487      66696E65 
 13488              	.LASF1714:
ARM GAS  /tmp/ccKtbbXa.s 			page 339


 13489 c99f 45636566 		.ascii	"EcefCoor_d\000"
 13489      436F6F72 
 13489      5F6400
 13490              	.LASF814:
 13491 c9aa 50524958 		.ascii	"PRIXLEAST16 __PRI16LEAST(X)\000"
 13491      4C454153 
 13491      54313620 
 13491      5F5F5052 
 13491      4931364C 
 13492              	.LASF997:
 13493 c9c6 5F4E5F4C 		.ascii	"_N_LISTS 30\000"
 13493      49535453 
 13493      20333000 
 13494              	.LASF1702:
 13495 c9d2 45636566 		.ascii	"EcefCoor_i\000"
 13495      436F6F72 
 13495      5F6900
 13496              	.LASF33:
 13497 c9dd 5F5F5054 		.ascii	"__PTRDIFF_TYPE__ int\000"
 13497      52444946 
 13497      465F5459 
 13497      50455F5F 
 13497      20696E74 
 13498              	.LASF1360:
 13499 c9f2 56454354 		.ascii	"VECT3_ASSIGN(_a,_x,_y,_z) { (_a).x = (_x); (_a).y ="
 13499      335F4153 
 13499      5349474E 
 13499      285F612C 
 13499      5F782C5F 
 13500 ca25 20285F79 		.ascii	" (_y); (_a).z = (_z); }\000"
 13500      293B2028 
 13500      5F61292E 
 13500      7A203D20 
 13500      285F7A29 
 13501              	.LASF364:
 13502 ca3d 5F5F4743 		.ascii	"__GCC_ATOMIC_CHAR16_T_LOCK_FREE 2\000"
 13502      435F4154 
 13502      4F4D4943 
 13502      5F434841 
 13502      5231365F 
 13503              	.LASF1397:
 13504 ca5f 52415445 		.ascii	"RATES_SDIV(_ro,_ri,_s) { (_ro).p = (_ri).p / (_s) ;"
 13504      535F5344 
 13504      4956285F 
 13504      726F2C5F 
 13504      72692C5F 
 13505 ca92 20285F72 		.ascii	" (_ro).q = (_ri).q / (_s); (_ro).r = (_ri).r / (_s)"
 13505      6F292E71 
 13505      203D2028 
 13505      5F726929 
 13505      2E71202F 
 13506 cac5 3B207D00 		.ascii	"; }\000"
 13507              	.LASF356:
 13508 cac9 5F5F474E 		.ascii	"__GNUC_STDC_INLINE__ 1\000"
 13508      55435F53 
 13508      5444435F 
 13508      494E4C49 
ARM GAS  /tmp/ccKtbbXa.s 			page 340


 13508      4E455F5F 
 13509              	.LASF798:
 13510 cae0 50524964 		.ascii	"PRId16 __PRI16(d)\000"
 13510      3136205F 
 13510      5F505249 
 13510      31362864 
 13510      2900
 13511              	.LASF1410:
 13512 caf2 56454354 		.ascii	"VECT3_VECT3_TRANS_MUL(_mat,_v_a,_v_b) { MAT33_ELMT("
 13512      335F5645 
 13512      4354335F 
 13512      5452414E 
 13512      535F4D55 
 13513 cb25 285F6D61 		.ascii	"(_mat),0,0) = (_v_a).x*(_v_b).x; MAT33_ELMT((_mat),"
 13513      74292C30 
 13513      2C302920 
 13513      3D20285F 
 13513      765F6129 
 13514 cb58 302C3129 		.ascii	"0,1) = (_v_a).x*(_v_b).y; MAT33_ELMT((_mat),0,2) = "
 13514      203D2028 
 13514      5F765F61 
 13514      292E782A 
 13514      285F765F 
 13515 cb8b 285F765F 		.ascii	"(_v_a).x*(_v_b).z; MAT33_ELMT((_mat),1,0) = (_v_a)."
 13515      61292E78 
 13515      2A285F76 
 13515      5F62292E 
 13515      7A3B204D 
 13516 cbbe 792A285F 		.ascii	"y*(_v_b).x; MAT33_ELMT((_mat),1,1) = (_v_a).y*(_v_b"
 13516      765F6229 
 13516      2E783B20 
 13516      4D415433 
 13516      335F454C 
 13517 cbf1 292E793B 		.ascii	").y; MAT33_ELMT((_mat),1,2) = (_v_a).y*(_v_b).z; MA"
 13517      204D4154 
 13517      33335F45 
 13517      4C4D5428 
 13517      285F6D61 
 13518 cc24 5433335F 		.ascii	"T33_ELMT((_mat),2,0) = (_v_a).z*(_v_b).x; MAT33_ELM"
 13518      454C4D54 
 13518      28285F6D 
 13518      6174292C 
 13518      322C3029 
 13519 cc57 5428285F 		.ascii	"T((_mat),2,1) = (_v_a).z*(_v_b).y; MAT33_ELMT((_mat"
 13519      6D617429 
 13519      2C322C31 
 13519      29203D20 
 13519      285F765F 
 13520 cc8a 292C322C 		.ascii	"),2,2) = (_v_a).z*(_v_b).z; }\000"
 13520      3229203D 
 13520      20285F76 
 13520      5F61292E 
 13520      7A2A285F 
 13521              	.LASF650:
 13522 cca8 55494E54 		.ascii	"UINT64_MAX\000"
 13522      36345F4D 
 13522      415800
ARM GAS  /tmp/ccKtbbXa.s 			page 341


 13523              	.LASF1162:
 13524 ccb3 5F5F6775 		.ascii	"__guarded_by(x) __lock_annotate(guarded_by(x))\000"
 13524      61726465 
 13524      645F6279 
 13524      28782920 
 13524      5F5F6C6F 
 13525              	.LASF1281:
 13526 cce2 494E5445 		.ascii	"INTENTIONAL_FALLTHRU __attribute__ ((fallthrough));"
 13526      4E54494F 
 13526      4E414C5F 
 13526      46414C4C 
 13526      54485255 
 13527 cd15 00       		.ascii	"\000"
 13528              	.LASF1400:
 13529 cd16 52415445 		.ascii	"RATES_BOUND_BOX(_v,_v_min,_v_max) { if ((_v).p > (_"
 13529      535F424F 
 13529      554E445F 
 13529      424F5828 
 13529      5F762C5F 
 13530 cd49 765F6D61 		.ascii	"v_max).p) (_v).p = (_v_max).p; else if ((_v).p < (_"
 13530      78292E70 
 13530      2920285F 
 13530      76292E70 
 13530      203D2028 
 13531 cd7c 765F6D69 		.ascii	"v_min).p) (_v).p = (_v_min).p; if ((_v).q > (_v_max"
 13531      6E292E70 
 13531      2920285F 
 13531      76292E70 
 13531      203D2028 
 13532 cdaf 292E7129 		.ascii	").q) (_v).q = (_v_max).q; else if ((_v).q < (_v_min"
 13532      20285F76 
 13532      292E7120 
 13532      3D20285F 
 13532      765F6D61 
 13533 cde2 292E7129 		.ascii	").q) (_v).q = (_v_min).q; if ((_v).r > (_v_max).r) "
 13533      20285F76 
 13533      292E7120 
 13533      3D20285F 
 13533      765F6D69 
 13534 ce15 285F7629 		.ascii	"(_v).r = (_v_max).r; else if ((_v).r < (_v_min).r) "
 13534      2E72203D 
 13534      20285F76 
 13534      5F6D6178 
 13534      292E723B 
 13535 ce48 285F7629 		.ascii	"(_v).r = (_v_min).r; }\000"
 13535      2E72203D 
 13535      20285F76 
 13535      5F6D696E 
 13535      292E723B 
 13536              	.LASF583:
 13537 ce5f 5F5F4558 		.ascii	"__EXPORT \000"
 13537      504F5254 
 13537      2000
 13538              	.LASF1039:
 13539 ce69 5F5F504D 		.ascii	"__PMT(args) args\000"
 13539      54286172 
 13539      67732920 
ARM GAS  /tmp/ccKtbbXa.s 			page 342


 13539      61726773 
 13539      00
 13540              	.LASF525:
 13541 ce7a 56454354 		.ascii	"VECT2_ENU_OF_TO_NED(_po,_pi) { (_po).x = (_pi).y; ("
 13541      325F454E 
 13541      555F4F46 
 13541      5F544F5F 
 13541      4E454428 
 13542 cead 5F706F29 		.ascii	"_po).y = (_pi).x; }\000"
 13542      2E79203D 
 13542      20285F70 
 13542      69292E78 
 13542      3B207D00 
 13543              	.LASF916:
 13544 cec1 5F505452 		.ascii	"_PTRDIFF_T_ \000"
 13544      44494646 
 13544      5F545F20 
 13544      00
 13545              	.LASF528:
 13546 cece 4C54505F 		.ascii	"LTP_DEF_COPY(_def1,_def2) { LLA_COPY((_def1).lla, ("
 13546      4445465F 
 13546      434F5059 
 13546      285F6465 
 13546      66312C5F 
 13547 cf01 5F646566 		.ascii	"_def2).lla); VECT3_COPY((_def1).ecef, (_def2).ecef)"
 13547      32292E6C 
 13547      6C61293B 
 13547      20564543 
 13547      54335F43 
 13548 cf34 3B20524D 		.ascii	"; RMAT_COPY((_def1).ltp_of_ecef, (_def2).ltp_of_ece"
 13548      41545F43 
 13548      4F505928 
 13548      285F6465 
 13548      6631292E 
 13549 cf67 66293B20 		.ascii	"f); (_def1).hmsl = (_def2).hmsl; }\000"
 13549      285F6465 
 13549      6631292E 
 13549      686D736C 
 13549      203D2028 
 13550              	.LASF788:
 13551 cf8a 5052496F 		.ascii	"PRIoFAST8 __PRI8FAST(o)\000"
 13551      46415354 
 13551      38205F5F 
 13551      50524938 
 13551      46415354 
 13552              	.LASF441:
 13553 cfa2 5F5F5553 		.ascii	"__USES_INITFINI__ 1\000"
 13553      45535F49 
 13553      4E495446 
 13553      494E495F 
 13553      5F203100 
 13554              	.LASF1215:
 13555 cfb6 4D5F4C4E 		.ascii	"M_LN2LO 1.9082149292705877000E-10\000"
 13555      324C4F20 
 13555      312E3930 
 13555      38323134 
 13555      39323932 
ARM GAS  /tmp/ccKtbbXa.s 			page 343


 13556              	.LASF526:
 13557 cfd8 4C4C415F 		.ascii	"LLA_ASSIGN(_pos,_lat,_lon,_alt) { (_pos).lat = (_la"
 13557      41535349 
 13557      474E285F 
 13557      706F732C 
 13557      5F6C6174 
 13558 d00b 74293B20 		.ascii	"t); (_pos).lon = (_lon); (_pos).alt = (_alt); }\000"
 13558      285F706F 
 13558      73292E6C 
 13558      6F6E203D 
 13558      20285F6C 
 13559              	.LASF336:
 13560 d03b 5F5F5554 		.ascii	"__UTQ_FBIT__ 128\000"
 13560      515F4642 
 13560      49545F5F 
 13560      20313238 
 13560      00
 13561              	.LASF794:
 13562 d04c 5F5F5052 		.ascii	"__PRI16FAST(x) __FAST16 __STRINGIFY(x)\000"
 13562      49313646 
 13562      41535428 
 13562      7829205F 
 13562      5F464153 
 13563              	.LASF1127:
 13564 d073 5F5F7374 		.ascii	"__strftimelike(fmtarg,firstvararg) __attribute__((_"
 13564      72667469 
 13564      6D656C69 
 13564      6B652866 
 13564      6D746172 
 13565 d0a6 5F666F72 		.ascii	"_format__ (__strftime__, fmtarg, firstvararg)))\000"
 13565      6D61745F 
 13565      5F20285F 
 13565      5F737472 
 13565      6674696D 
 13566              	.LASF915:
 13567 d0d6 5F5F5054 		.ascii	"__PTRDIFF_T \000"
 13567      52444946 
 13567      465F5420 
 13567      00
 13568              	.LASF1556:
 13569 d0e3 494E5433 		.ascii	"INT32_QUAT_OF_EULERS(_q,_e) WARNING(\"INT32_QUAT_OF"
 13569      325F5155 
 13569      41545F4F 
 13569      465F4555 
 13569      4C455253 
 13570 d115 5F45554C 		.ascii	"_EULERS macro is deprecated, use the lower case fun"
 13570      45525320 
 13570      6D616372 
 13570      6F206973 
 13570      20646570 
 13571 d148 6374696F 		.ascii	"ction instead\") int32_quat_of_eulers(&(_q), &(_e))"
 13571      6E20696E 
 13571      73746561 
 13571      64222920 
 13571      696E7433 
 13572 d17a 00       		.ascii	"\000"
 13573              	.LASF1459:
ARM GAS  /tmp/ccKtbbXa.s 			page 344


 13574 d17b 5050525A 		.ascii	"PPRZ_ITRIG_SIN(_s,_a) { _s = pprz_itrig_sin(_a); }\000"
 13574      5F495452 
 13574      49475F53 
 13574      494E285F 
 13574      732C5F61 
 13575              	.LASF853:
 13576 d1ae 50524958 		.ascii	"PRIXLEAST32 __PRI32LEAST(X)\000"
 13576      4C454153 
 13576      54333220 
 13576      5F5F5052 
 13576      4933324C 
 13577              	.LASF242:
 13578 d1ca 5F5F5346 		.ascii	"__SFRACT_EPSILON__ 0x1P-7HR\000"
 13578      52414354 
 13578      5F455053 
 13578      494C4F4E 
 13578      5F5F2030 
 13579              	.LASF1322:
 13580 d1e6 4C44424C 		.ascii	"LDBL_MAX_10_EXP __LDBL_MAX_10_EXP__\000"
 13580      5F4D4158 
 13580      5F31305F 
 13580      45585020 
 13580      5F5F4C44 
 13581              	.LASF668:
 13582 d20a 55494E54 		.ascii	"UINT_LEAST32_MAX\000"
 13582      5F4C4541 
 13582      53543332 
 13582      5F4D4158 
 13582      00
 13583              	.LASF382:
 13584 d21b 5F5F4152 		.ascii	"__ARM_FEATURE_CRYPTO\000"
 13584      4D5F4645 
 13584      41545552 
 13584      455F4352 
 13584      5950544F 
 13585              	.LASF1342:
 13586 d230 464C545F 		.ascii	"FLT_ROUNDS 1\000"
 13586      524F554E 
 13586      44532031 
 13586      00
 13587              	.LASF1601:
 13588 d23d 494E5433 		.ascii	"INT32_VECT2_NED_OF_ENU(_o,_i) INT32_VECT2_ENU_OF_NE"
 13588      325F5645 
 13588      4354325F 
 13588      4E45445F 
 13588      4F465F45 
 13589 d270 44285F6F 		.ascii	"D(_o,_i)\000"
 13589      2C5F6929 
 13589      00
 13590              	.LASF614:
 13591 d279 5F5F4C45 		.ascii	"__LEAST8 \"hh\"\000"
 13591      41535438 
 13591      20226868 
 13591      2200
 13592              	.LASF269:
 13593 d287 5F5F4C4C 		.ascii	"__LLFRACT_IBIT__ 0\000"
 13593      46524143 
ARM GAS  /tmp/ccKtbbXa.s 			page 345


 13593      545F4942 
 13593      49545F5F 
 13593      203000
 13594              	.LASF204:
 13595 d29a 5F5F464C 		.ascii	"__FLT32_HAS_DENORM__ 1\000"
 13595      5433325F 
 13595      4841535F 
 13595      44454E4F 
 13595      524D5F5F 
 13596              	.LASF1126:
 13597 d2b1 5F5F7374 		.ascii	"__strfmonlike(fmtarg,firstvararg) __attribute__((__"
 13597      72666D6F 
 13597      6E6C696B 
 13597      6528666D 
 13597      74617267 
 13598 d2e4 666F726D 		.ascii	"format__ (__strfmon__, fmtarg, firstvararg)))\000"
 13598      61745F5F 
 13598      20285F5F 
 13598      73747266 
 13598      6D6F6E5F 
 13599              	.LASF1420:
 13600 d312 51554154 		.ascii	"QUAT_INVERT(_qo,_qi) { (_qo).qi = (_qi).qi; (_qo).q"
 13600      5F494E56 
 13600      45525428 
 13600      5F716F2C 
 13600      5F716929 
 13601 d345 78203D20 		.ascii	"x = -(_qi).qx; (_qo).qy = -(_qi).qy; (_qo).qz = -(_"
 13601      2D285F71 
 13601      69292E71 
 13601      783B2028 
 13601      5F716F29 
 13602 d378 7169292E 		.ascii	"qi).qz; }\000"
 13602      717A3B20 
 13602      7D00
 13603              	.LASF1282:
 13604 d382 5050525A 		.ascii	"PPRZ_ALGEBRA_INT_H \000"
 13604      5F414C47 
 13604      45425241 
 13604      5F494E54 
 13604      5F482000 
 13605              	.LASF474:
 13606 d396 48414C5F 		.ascii	"HAL_USE_RTC TRUE\000"
 13606      5553455F 
 13606      52544320 
 13606      54525545 
 13606      00
 13607              	.LASF643:
 13608 d3a7 494E5433 		.ascii	"INT32_MIN (-INT32_MAX - 1)\000"
 13608      325F4D49 
 13608      4E20282D 
 13608      494E5433 
 13608      325F4D41 
 13609              	.LASF417:
 13610 d3c2 5F5F4152 		.ascii	"__ARM_FEATURE_FP16_SCALAR_ARITHMETIC\000"
 13610      4D5F4645 
 13610      41545552 
 13610      455F4650 
ARM GAS  /tmp/ccKtbbXa.s 			page 346


 13610      31365F53 
 13611              	.LASF1106:
 13612 d3e7 5F5F616C 		.ascii	"__always_inline __inline__ __attribute__((__always_"
 13612      77617973 
 13612      5F696E6C 
 13612      696E6520 
 13612      5F5F696E 
 13613 d41a 696E6C69 		.ascii	"inline__))\000"
 13613      6E655F5F 
 13613      292900
 13614              	.LASF278:
 13615 d425 5F5F5341 		.ascii	"__SACCUM_FBIT__ 7\000"
 13615      4343554D 
 13615      5F464249 
 13615      545F5F20 
 13615      3700
 13616              	.LASF320:
 13617 d437 5F5F4851 		.ascii	"__HQ_FBIT__ 15\000"
 13617      5F464249 
 13617      545F5F20 
 13617      313500
 13618              	.LASF738:
 13619 d446 55494E54 		.ascii	"UINT8_C\000"
 13619      385F4300 
 13620              	.LASF309:
 13621 d44e 5F5F4C4C 		.ascii	"__LLACCUM_IBIT__ 32\000"
 13621      41434355 
 13621      4D5F4942 
 13621      49545F5F 
 13621      20333200 
 13622              	.LASF1504:
 13623 d462 414E474C 		.ascii	"ANGLE_FLOAT_OF_BFP(_ai) FLOAT_OF_BFP((_ai), INT32_A"
 13623      455F464C 
 13623      4F41545F 
 13623      4F465F42 
 13623      4650285F 
 13624 d495 4E474C45 		.ascii	"NGLE_FRAC)\000"
 13624      5F465241 
 13624      432900
 13625              	.LASF1686:
 13626 d4a0 55746D5A 		.ascii	"UtmZoneOfLlaLonDeg(lla_lon) (floor((lla_lon) / 1e7 "
 13626      6F6E654F 
 13626      664C6C61 
 13626      4C6F6E44 
 13626      6567286C 
 13627 d4d3 2B203138 		.ascii	"+ 180) / 6) + 1\000"
 13627      3029202F 
 13627      20362920 
 13627      2B203100 
 13628              	.LASF1264:
 13629 d4e3 41425328 		.ascii	"ABS(val) ((val) < 0 ? -(val) : (val))\000"
 13629      76616C29 
 13629      20282876 
 13629      616C2920 
 13629      3C203020 
 13630              	.LASF928:
 13631 d509 5F5F5349 		.ascii	"__SIZE_T \000"
ARM GAS  /tmp/ccKtbbXa.s 			page 347


 13631      5A455F54 
 13631      2000
 13632              	.LASF412:
 13633 d513 5F5F4152 		.ascii	"__ARM_FP\000"
 13633      4D5F4650 
 13633      00
 13634              	.LASF177:
 13635 d51c 5F5F4C44 		.ascii	"__LDBL_DIG__ 15\000"
 13635      424C5F44 
 13635      49475F5F 
 13635      20313500 
 13636              	.LASF39:
 13637 d52c 5F5F4348 		.ascii	"__CHAR32_TYPE__ long unsigned int\000"
 13637      41523332 
 13637      5F545950 
 13637      455F5F20 
 13637      6C6F6E67 
 13638              	.LASF719:
 13639 d54e 5349475F 		.ascii	"SIG_ATOMIC_MIN __SIG_ATOMIC_MIN__\000"
 13639      41544F4D 
 13639      49435F4D 
 13639      494E205F 
 13639      5F534947 
 13640              	.LASF969:
 13641 d570 5F5F4C6F 		.ascii	"__Long long\000"
 13641      6E67206C 
 13641      6F6E6700 
 13642              	.LASF1208:
 13643 d57c 4D5F325F 		.ascii	"M_2_PI 0.63661977236758134308\000"
 13643      50492030 
 13643      2E363336 
 13643      36313937 
 13643      37323336 
 13644              	.LASF367:
 13645 d59a 5F5F4743 		.ascii	"__GCC_ATOMIC_SHORT_LOCK_FREE 2\000"
 13645      435F4154 
 13645      4F4D4943 
 13645      5F53484F 
 13645      52545F4C 
 13646              	.LASF1487:
 13647 d5b9 494E5433 		.ascii	"INT32_RATE_FRAC 12\000"
 13647      325F5241 
 13647      54455F46 
 13647      52414320 
 13647      313200
 13648              	.LASF266:
 13649 d5cc 5F5F554C 		.ascii	"__ULFRACT_MAX__ 0XFFFFFFFFP-32ULR\000"
 13649      46524143 
 13649      545F4D41 
 13649      585F5F20 
 13649      30584646 
 13650              	.LASF779:
 13651 d5ee 50524958 		.ascii	"PRIX8 __PRI8(X)\000"
 13651      38205F5F 
 13651      50524938 
 13651      28582900 
 13652              	.LASF31:
ARM GAS  /tmp/ccKtbbXa.s 			page 348


 13653 d5fe 5F5F5349 		.ascii	"__SIZEOF_POINTER__ 4\000"
 13653      5A454F46 
 13653      5F504F49 
 13653      4E544552 
 13653      5F5F2034 
 13654              	.LASF1040:
 13655 d613 5F5F444F 		.ascii	"__DOTS , ...\000"
 13655      5453202C 
 13655      202E2E2E 
 13655      00
 13656              	.LASF404:
 13657 d620 5F5F4743 		.ascii	"__GCC_ASM_FLAG_OUTPUTS__ 1\000"
 13657      435F4153 
 13657      4D5F464C 
 13657      41475F4F 
 13657      55545055 
 13658              	.LASF959:
 13659 d63b 5F5F5F69 		.ascii	"___int_least32_t_defined 1\000"
 13659      6E745F6C 
 13659      65617374 
 13659      33325F74 
 13659      5F646566 
 13660              	.LASF1105:
 13661 d656 5F5F7075 		.ascii	"__pure __attribute__((__pure__))\000"
 13661      7265205F 
 13661      5F617474 
 13661      72696275 
 13661      74655F5F 
 13662              	.LASF801:
 13663 d677 50524975 		.ascii	"PRIu16 __PRI16(u)\000"
 13663      3136205F 
 13663      5F505249 
 13663      31362875 
 13663      2900
 13664              	.LASF1229:
 13665 d689 5741524E 		.ascii	"WARNING(x) DO_PRAGMA(GCC warning #x)\000"
 13665      494E4728 
 13665      78292044 
 13665      4F5F5052 
 13665      41474D41 
 13666              	.LASF675:
 13667 d6ae 55494E54 		.ascii	"UINT_LEAST64_MAX __UINT_LEAST64_MAX__\000"
 13667      5F4C4541 
 13667      53543634 
 13667      5F4D4158 
 13667      205F5F55 
 13668              	.LASF37:
 13669 d6d4 5F5F5549 		.ascii	"__UINTMAX_TYPE__ long long unsigned int\000"
 13669      4E544D41 
 13669      585F5459 
 13669      50455F5F 
 13669      206C6F6E 
 13670              	.LASF927:
 13671 d6fc 5F545F53 		.ascii	"_T_SIZE \000"
 13671      495A4520 
 13671      00
 13672              	.LASF1580:
ARM GAS  /tmp/ccKtbbXa.s 			page 349


 13673 d705 454D3744 		.ascii	"EM7DEG_OF_RAD(_r) (DegOfRad(_r)*1e7)\000"
 13673      45475F4F 
 13673      465F5241 
 13673      44285F72 
 13673      29202844 
 13674              	.LASF786:
 13675 d72a 50524964 		.ascii	"PRIdFAST8 __PRI8FAST(d)\000"
 13675      46415354 
 13675      38205F5F 
 13675      50524938 
 13675      46415354 
 13676              	.LASF1597:
 13677 d742 454E555F 		.ascii	"ENU_BFP_OF_REAL(_o,_i) NED_BFP_OF_REAL(_o, _i)\000"
 13677      4246505F 
 13677      4F465F52 
 13677      45414C28 
 13677      5F6F2C5F 
 13678              	.LASF1654:
 13679 d771 464C4F41 		.ascii	"FLOAT_QUAT_DIFFERENTIAL(q_out,w,dt) WARNING(\"FLOAT"
 13679      545F5155 
 13679      41545F44 
 13679      49464645 
 13679      52454E54 
 13680 d7a3 5F515541 		.ascii	"_QUAT_DIFFERENTIAL macro is deprecated, use the low"
 13680      545F4449 
 13680      46464552 
 13680      454E5449 
 13680      414C206D 
 13681 d7d6 65722063 		.ascii	"er case function instead\") float_quat_differential"
 13681      61736520 
 13681      66756E63 
 13681      74696F6E 
 13681      20696E73 
 13682 d808 28262871 		.ascii	"(&(q_out), &(w), dt)\000"
 13682      5F6F7574 
 13682      292C2026 
 13682      2877292C 
 13682      20647429 
 13683              	.LASF137:
 13684 d81d 5F5F494E 		.ascii	"__INTPTR_WIDTH__ 32\000"
 13684      54505452 
 13684      5F574944 
 13684      54485F5F 
 13684      20333200 
 13685              	.LASF593:
 13686 d831 5F5F696E 		.ascii	"__int20\000"
 13686      74323000 
 13687              	.LASF818:
 13688 d839 53434E75 		.ascii	"SCNuLEAST16 __SCN16LEAST(u)\000"
 13688      4C454153 
 13688      54313620 
 13688      5F5F5343 
 13688      4E31364C 
 13689              	.LASF1154:
 13690 d855 5F5F7472 		.ascii	"__trylocks_shared(...) __lock_annotate(shared_trylo"
 13690      796C6F63 
 13690      6B735F73 
ARM GAS  /tmp/ccKtbbXa.s 			page 350


 13690      68617265 
 13690      64282E2E 
 13691 d888 636B5F66 		.ascii	"ck_function(__VA_ARGS__))\000"
 13691      756E6374 
 13691      696F6E28 
 13691      5F5F5641 
 13691      5F415247 
 13692              	.LASF1020:
 13693 d8a2 5F524545 		.ascii	"_REENT_STRTOK_LAST(ptr) ((ptr)->_new._reent._strtok"
 13693      4E545F53 
 13693      5452544F 
 13693      4B5F4C41 
 13693      53542870 
 13694 d8d5 5F6C6173 		.ascii	"_last)\000"
 13694      742900
 13695              	.LASF702:
 13696 d8dc 494E5450 		.ascii	"INTPTR_MIN\000"
 13696      54525F4D 
 13696      494E00
 13697              	.LASF1735:
 13698 d8e7 656E755F 		.ascii	"enu_cm\000"
 13698      636D00
 13699              	.LASF1276:
 13700 d8ee 52756E58 		.ascii	"RunXTimesEvery(_jumpstart,_prescaler,_interval,_xti"
 13700      54696D65 
 13700      73457665 
 13700      7279285F 
 13700      6A756D70 
 13701 d921 6D65732C 		.ascii	"mes,_code) { static uint16_t prescaler = _jumpstart"
 13701      5F636F64 
 13701      6529207B 
 13701      20737461 
 13701      74696320 
 13702 d954 3B207374 		.ascii	"; static uint16_t xtimes = 0; prescaler++; if (pres"
 13702      61746963 
 13702      2075696E 
 13702      7431365F 
 13702      74207874 
 13703 d987 63616C65 		.ascii	"caler >= _prescaler + _interval*xtimes && xtimes < "
 13703      72203E3D 
 13703      205F7072 
 13703      65736361 
 13703      6C657220 
 13704 d9ba 5F787469 		.ascii	"_xtimes) { _code; xtimes++; } if (xtimes >= _xtimes"
 13704      6D657329 
 13704      207B205F 
 13704      636F6465 
 13704      3B207874 
 13705 d9ed 29207B20 		.ascii	") { xtimes = 0; prescaler = 0; } }\000"
 13705      7874696D 
 13705      6573203D 
 13705      20303B20 
 13705      70726573 
 13706              	.LASF1599:
 13707 da10 454E555F 		.ascii	"ENU_FLOAT_OF_BFP(_o,_i) NED_FLOAT_OF_BFP(_o, _i)\000"
 13707      464C4F41 
 13707      545F4F46 
ARM GAS  /tmp/ccKtbbXa.s 			page 351


 13707      5F424650 
 13707      285F6F2C 
 13708              	.LASF1398:
 13709 da41 52415445 		.ascii	"RATES_EWMULT_RSHIFT(c,a,b,_s) { (c).p = ((a).p * (b"
 13709      535F4557 
 13709      4D554C54 
 13709      5F525348 
 13709      49465428 
 13710 da74 292E7029 		.ascii	").p) >> (_s); (c).q = ((a).q * (b).q) >> (_s); (c)."
 13710      203E3E20 
 13710      285F7329 
 13710      3B202863 
 13710      292E7120 
 13711 daa7 72203D20 		.ascii	"r = ((a).r * (b).r) >> (_s); }\000"
 13711      28286129 
 13711      2E72202A 
 13711      20286229 
 13711      2E722920 
 13712              	.LASF1258:
 13713 dac6 416E6428 		.ascii	"And(x,y) ((x) && (y))\000"
 13713      782C7929 
 13713      20282878 
 13713      29202626 
 13713      20287929 
 13714              	.LASF560:
 13715 dadc 5F5F474E 		.ascii	"__GNUC_PREREQ(maj,min) ((__GNUC__ << 16) + __GNUC_M"
 13715      55435F50 
 13715      52455245 
 13715      51286D61 
 13715      6A2C6D69 
 13716 db0f 494E4F52 		.ascii	"INOR__ >= ((maj) << 16) + (min))\000"
 13716      5F5F203E 
 13716      3D202828 
 13716      6D616A29 
 13716      203C3C20 
 13717              	.LASF492:
 13718 db30 52414449 		.ascii	"RADIO_CONTROL_LED 4\000"
 13718      4F5F434F 
 13718      4E54524F 
 13718      4C5F4C45 
 13718      44203400 
 13719              	.LASF221:
 13720 db44 5F5F464C 		.ascii	"__FLT64_HAS_INFINITY__ 1\000"
 13720      5436345F 
 13720      4841535F 
 13720      494E4649 
 13720      4E495459 
 13721              	.LASF1325:
 13722 db5d 4C44424C 		.ascii	"LDBL_MAX\000"
 13722      5F4D4158 
 13722      00
 13723              	.LASF1683:
 13724 db66 4E20284B 		.ascii	"N (K0*A)\000"
 13724      302A4129 
 13724      00
 13725              	.LASF578:
 13726 db6f 5F5F5853 		.ascii	"__XSI_VISIBLE 0\000"
ARM GAS  /tmp/ccKtbbXa.s 			page 352


 13726      495F5649 
 13726      5349424C 
 13726      45203000 
 13727              	.LASF1204:
 13728 db7f 4D5F5049 		.ascii	"M_PI 3.14159265358979323846\000"
 13728      20332E31 
 13728      34313539 
 13728      32363533 
 13728      35383937 
 13729              	.LASF72:
 13730 db9b 5F5F4C4F 		.ascii	"__LONG_LONG_MAX__ 0x7fffffffffffffffLL\000"
 13730      4E475F4C 
 13730      4F4E475F 
 13730      4D41585F 
 13730      5F203078 
 13731              	.LASF793:
 13732 dbc2 5F5F5052 		.ascii	"__PRI16LEAST(x) __LEAST16 __STRINGIFY(x)\000"
 13732      4931364C 
 13732      45415354 
 13732      28782920 
 13732      5F5F4C45 
 13733              	.LASF1604:
 13734 dbeb 48494748 		.ascii	"HIGH_RES_RMAT_DOUBLE_OF_BFP(_ef,_ei) { (_ef).m[0] ="
 13734      5F524553 
 13734      5F524D41 
 13734      545F444F 
 13734      55424C45 
 13735 dc1e 20444F55 		.ascii	" DOUBLE_OF_BFP((_ei).m[0], HIGH_RES_TRIG_FRAC); (_e"
 13735      424C455F 
 13735      4F465F42 
 13735      46502828 
 13735      5F656929 
 13736 dc51 66292E6D 		.ascii	"f).m[1] = DOUBLE_OF_BFP((_ei).m[1], HIGH_RES_TRIG_F"
 13736      5B315D20 
 13736      3D20444F 
 13736      55424C45 
 13736      5F4F465F 
 13737 dc84 52414329 		.ascii	"RAC); (_ef).m[2] = DOUBLE_OF_BFP((_ei).m[2], HIGH_R"
 13737      3B20285F 
 13737      6566292E 
 13737      6D5B325D 
 13737      203D2044 
 13738 dcb7 45535F54 		.ascii	"ES_TRIG_FRAC); (_ef).m[3] = DOUBLE_OF_BFP((_ei).m[3"
 13738      5249475F 
 13738      46524143 
 13738      293B2028 
 13738      5F656629 
 13739 dcea 5D2C2048 		.ascii	"], HIGH_RES_TRIG_FRAC); (_ef).m[4] = DOUBLE_OF_BFP("
 13739      4947485F 
 13739      5245535F 
 13739      54524947 
 13739      5F465241 
 13740 dd1d 285F6569 		.ascii	"(_ei).m[4], HIGH_RES_TRIG_FRAC); (_ef).m[5] = DOUBL"
 13740      292E6D5B 
 13740      345D2C20 
 13740      48494748 
 13740      5F524553 
ARM GAS  /tmp/ccKtbbXa.s 			page 353


 13741 dd50 455F4F46 		.ascii	"E_OF_BFP((_ei).m[5], HIGH_RES_TRIG_FRAC); (_ef).m[6"
 13741      5F424650 
 13741      28285F65 
 13741      69292E6D 
 13741      5B355D2C 
 13742 dd83 5D203D20 		.ascii	"] = DOUBLE_OF_BFP((_ei).m[6], HIGH_RES_TRIG_FRAC); "
 13742      444F5542 
 13742      4C455F4F 
 13742      465F4246 
 13742      5028285F 
 13743 ddb6 285F6566 		.ascii	"(_ef).m[7] = DOUBLE_OF_BFP((_ei).m[7], HIGH_RES_TRI"
 13743      292E6D5B 
 13743      375D203D 
 13743      20444F55 
 13743      424C455F 
 13744 dde9 475F4652 		.ascii	"G_FRAC); (_ef).m[8] = DOUBLE_OF_BFP((_ei).m[8], HIG"
 13744      4143293B 
 13744      20285F65 
 13744      66292E6D 
 13744      5B385D20 
 13745 de1c 485F5245 		.ascii	"H_RES_TRIG_FRAC); }\000"
 13745      535F5452 
 13745      49475F46 
 13745      52414329 
 13745      3B207D00 
 13746              	.LASF1573:
 13747 de30 4D5F4F46 		.ascii	"M_OF_CM(_cm) ((_cm)/1e2)\000"
 13747      5F434D28 
 13747      5F636D29 
 13747      2028285F 
 13747      636D292F 
 13748              	.LASF754:
 13749 de49 5F545F57 		.ascii	"_T_WCHAR_ \000"
 13749      43484152 
 13749      5F2000
 13750              	.LASF1:
 13751 de54 5F5F5354 		.ascii	"__STDC_VERSION__ 199901L\000"
 13751      44435F56 
 13751      45525349 
 13751      4F4E5F5F 
 13751      20313939 
 13752              	.LASF260:
 13753 de6d 5F5F4C46 		.ascii	"__LFRACT_MIN__ (-0.5LR-0.5LR)\000"
 13753      52414354 
 13753      5F4D494E 
 13753      5F5F2028 
 13753      2D302E35 
 13754              	.LASF1674:
 13755 de8b 444F5542 		.ascii	"DOUBLE_QUAT_OF_EULERS(_q,_e) WARNING(\"DOUBLE_QUAT_"
 13755      4C455F51 
 13755      5541545F 
 13755      4F465F45 
 13755      554C4552 
 13756 debd 4F465F45 		.ascii	"OF_EULERS macro is deprecated, use the lower case f"
 13756      554C4552 
 13756      53206D61 
 13756      63726F20 
ARM GAS  /tmp/ccKtbbXa.s 			page 354


 13756      69732064 
 13757 def0 756E6374 		.ascii	"unction instead\") double_quat_of_eulers(&(_q), &(_"
 13757      696F6E20 
 13757      696E7374 
 13757      65616422 
 13757      2920646F 
 13758 df22 65292900 		.ascii	"e))\000"
 13759              	.LASF549:
 13760 df26 5F484156 		.ascii	"_HAVE_CC_INHIBIT_LOOP_TO_LIBCALL 1\000"
 13760      455F4343 
 13760      5F494E48 
 13760      49424954 
 13760      5F4C4F4F 
 13761              	.LASF1079:
 13762 df49 5F5F434F 		.ascii	"__CONCAT1(x,y) x ## y\000"
 13762      4E434154 
 13762      3128782C 
 13762      79292078 
 13762      20232320 
 13763              	.LASF1598:
 13764 df5f 4E45445F 		.ascii	"NED_FLOAT_OF_BFP(_o,_i) { (_o).x = POS_FLOAT_OF_BFP"
 13764      464C4F41 
 13764      545F4F46 
 13764      5F424650 
 13764      285F6F2C 
 13765 df92 28285F69 		.ascii	"((_i).x); (_o).y = POS_FLOAT_OF_BFP((_i).y); (_o).z"
 13765      292E7829 
 13765      3B20285F 
 13765      6F292E79 
 13765      203D2050 
 13766 dfc5 203D2050 		.ascii	" = POS_FLOAT_OF_BFP((_i).z); }\000"
 13766      4F535F46 
 13766      4C4F4154 
 13766      5F4F465F 
 13766      42465028 
 13767              	.LASF1136:
 13768 dfe4 5F5F5243 		.ascii	"__RCSID_SOURCE(s) struct __hack\000"
 13768      5349445F 
 13768      534F5552 
 13768      43452873 
 13768      29207374 
 13769              	.LASF837:
 13770 e004 50524964 		.ascii	"PRId32 __PRI32(d)\000"
 13770      3332205F 
 13770      5F505249 
 13770      33322864 
 13770      2900
 13771              	.LASF573:
 13772 e016 5F5F4953 		.ascii	"__ISO_C_VISIBLE 1999\000"
 13772      4F5F435F 
 13772      56495349 
 13772      424C4520 
 13772      31393939 
 13773              	.LASF857:
 13774 e02b 53434E75 		.ascii	"SCNuLEAST32 __SCN32LEAST(u)\000"
 13774      4C454153 
 13774      54333220 
ARM GAS  /tmp/ccKtbbXa.s 			page 355


 13774      5F5F5343 
 13774      4E33324C 
 13775              	.LASF1551:
 13776 e047 494E5433 		.ascii	"INT32_QUAT_COMP_NORM_SHORTEST(_a2c,_a2b,_b2c) WARNI"
 13776      325F5155 
 13776      41545F43 
 13776      4F4D505F 
 13776      4E4F524D 
 13777 e07a 4E472822 		.ascii	"NG(\"INT32_QUAT_COMP_NORM_SHORTEST macro is depreca"
 13777      494E5433 
 13777      325F5155 
 13777      41545F43 
 13777      4F4D505F 
 13778 e0ac 7465642C 		.ascii	"ted, use the lower case function instead\") int32_q"
 13778      20757365 
 13778      20746865 
 13778      206C6F77 
 13778      65722063 
 13779 e0de 7561745F 		.ascii	"uat_comp_norm_shortest(&(_a2c), &(_a2b), &(_b2c))\000"
 13779      636F6D70 
 13779      5F6E6F72 
 13779      6D5F7368 
 13779      6F727465 
 13780              	.LASF737:
 13781 e110 494E5436 		.ascii	"INT64_C(c) __INT64_C(c)\000"
 13781      345F4328 
 13781      6329205F 
 13781      5F494E54 
 13781      36345F43 
 13782              	.LASF370:
 13783 e128 5F5F4743 		.ascii	"__GCC_ATOMIC_LLONG_LOCK_FREE 1\000"
 13783      435F4154 
 13783      4F4D4943 
 13783      5F4C4C4F 
 13783      4E475F4C 
 13784              	.LASF1038:
 13785 e147 5F535953 		.ascii	"_SYS_CDEFS_H_ \000"
 13785      5F434445 
 13785      46535F48 
 13785      5F2000
 13786              	.LASF307:
 13787 e156 5F5F554C 		.ascii	"__ULACCUM_EPSILON__ 0x1P-32ULK\000"
 13787      41434355 
 13787      4D5F4550 
 13787      53494C4F 
 13787      4E5F5F20 
 13788              	.LASF1722:
 13789 e175 75746D5F 		.ascii	"utm_of_lla_i\000"
 13789      6F665F6C 
 13789      6C615F69 
 13789      00
 13790              	.LASF1334:
 13791 e182 4C44424C 		.ascii	"LDBL_EPSILON __LDBL_EPSILON__\000"
 13791      5F455053 
 13791      494C4F4E 
 13791      205F5F4C 
 13791      44424C5F 
ARM GAS  /tmp/ccKtbbXa.s 			page 356


 13792              	.LASF267:
 13793 e1a0 5F5F554C 		.ascii	"__ULFRACT_EPSILON__ 0x1P-32ULR\000"
 13793      46524143 
 13793      545F4550 
 13793      53494C4F 
 13793      4E5F5F20 
 13794              	.LASF446:
 13795 e1bf 41435455 		.ascii	"ACTUATORS 1\000"
 13795      41544F52 
 13795      53203100 
 13796              	.LASF1757:
 13797 e1cb 474E5520 		.ascii	"GNU C99 10.3.1 20210621 (release) -mcpu=cortex-m4 -"
 13797      43393920 
 13797      31302E33 
 13797      2E312032 
 13797      30323130 
 13798 e1fe 6D666C6F 		.ascii	"mfloat-abi=softfp -mfpu=fpv4-sp-d16 -mno-thumb-inte"
 13798      61742D61 
 13798      62693D73 
 13798      6F667466 
 13798      70202D6D 
 13799 e231 72776F72 		.ascii	"rwork -mthumb -march=armv7e-m+fp -g -ggdb3 -O0 -std"
 13799      6B202D6D 
 13799      7468756D 
 13799      62202D6D 
 13799      61726368 
 13800 e264 3D676E75 		.ascii	"=gnu99 -fno-inline -falign-functions=16 -fomit-fram"
 13800      3939202D 
 13800      666E6F2D 
 13800      696E6C69 
 13800      6E65202D 
 13801 e297 652D706F 		.ascii	"e-pointer -ffunction-sections -fdata-sections -fno-"
 13801      696E7465 
 13801      72202D66 
 13801      66756E63 
 13801      74696F6E 
 13802 e2ca 636F6D6D 		.ascii	"common\000"
 13802      6F6E00
 13803              	.LASF672:
 13804 e2d1 494E545F 		.ascii	"INT_LEAST64_MIN\000"
 13804      4C454153 
 13804      5436345F 
 13804      4D494E00 
 13805              	.LASF1357:
 13806 e2e1 56454354 		.ascii	"VECT2_STRIM(_v,_min,_max) { (_v).x = (_v).x < _min "
 13806      325F5354 
 13806      52494D28 
 13806      5F762C5F 
 13806      6D696E2C 
 13807 e314 3F205F6D 		.ascii	"? _min : (_v).x > _max ? _max : (_v).x; (_v).y = (_"
 13807      696E203A 
 13807      20285F76 
 13807      292E7820 
 13807      3E205F6D 
 13808 e347 76292E79 		.ascii	"v).y < _min ? _min : (_v).y > _max ? _max : (_v).y;"
 13808      203C205F 
 13808      6D696E20 
ARM GAS  /tmp/ccKtbbXa.s 			page 357


 13808      3F205F6D 
 13808      696E203A 
 13809 e37a 207D00   		.ascii	" }\000"
 13810              	.LASF1324:
 13811 e37d 44424C5F 		.ascii	"DBL_MAX\000"
 13811      4D415800 
 13812              	.LASF1340:
 13813 e385 4C44424C 		.ascii	"LDBL_MIN __LDBL_MIN__\000"
 13813      5F4D494E 
 13813      205F5F4C 
 13813      44424C5F 
 13813      4D494E5F 
 13814              	.LASF591:
 13815 e39b 63686172 		.ascii	"char\000"
 13815      00
 13816              	.LASF862:
 13817 e3a0 50524975 		.ascii	"PRIuFAST32 __PRI32FAST(u)\000"
 13817      46415354 
 13817      3332205F 
 13817      5F505249 
 13817      33324641 
 13818              	.LASF218:
 13819 e3ba 5F5F464C 		.ascii	"__FLT64_EPSILON__ 2.2204460492503131e-16F64\000"
 13819      5436345F 
 13819      45505349 
 13819      4C4F4E5F 
 13819      5F20322E 
 13820              	.LASF536:
 13821 e3e6 5F5F4E45 		.ascii	"__NEWLIB_H__ 1\000"
 13821      574C4942 
 13821      5F485F5F 
 13821      203100
 13822              	.LASF282:
 13823 e3f5 5F5F5341 		.ascii	"__SACCUM_EPSILON__ 0x1P-7HK\000"
 13823      4343554D 
 13823      5F455053 
 13823      494C4F4E 
 13823      5F5F2030 
 13824              	.LASF780:
 13825 e411 50524964 		.ascii	"PRIdLEAST8 __PRI8LEAST(d)\000"
 13825      4C454153 
 13825      5438205F 
 13825      5F505249 
 13825      384C4541 
 13826              	.LASF1471:
 13827 e42b 52414E44 		.ascii	"RAND_MAX __RAND_MAX\000"
 13827      5F4D4158 
 13827      205F5F52 
 13827      414E445F 
 13827      4D415800 
 13828              	.LASF313:
 13829 e43f 5F5F554C 		.ascii	"__ULLACCUM_FBIT__ 32\000"
 13829      4C414343 
 13829      554D5F46 
 13829      4249545F 
 13829      5F203332 
 13830              	.LASF1088:
ARM GAS  /tmp/ccKtbbXa.s 			page 358


 13831 e454 5F5F7075 		.ascii	"__pure2 __attribute__((__const__))\000"
 13831      72653220 
 13831      5F5F6174 
 13831      74726962 
 13831      7574655F 
 13832              	.LASF191:
 13833 e477 5F5F4C44 		.ascii	"__LDBL_HAS_QUIET_NAN__ 1\000"
 13833      424C5F48 
 13833      41535F51 
 13833      55494554 
 13833      5F4E414E 
 13834              	.LASF379:
 13835 e490 5F5F4152 		.ascii	"__ARM_FEATURE_DSP 1\000"
 13835      4D5F4645 
 13835      41545552 
 13835      455F4453 
 13835      50203100 
 13836              	.LASF1121:
 13837 e4a4 5F5F7261 		.ascii	"__rangeof(type,start,end) (__offsetof(type, end) - "
 13837      6E67656F 
 13837      66287479 
 13837      70652C73 
 13837      74617274 
 13838 e4d7 5F5F6F66 		.ascii	"__offsetof(type, start))\000"
 13838      66736574 
 13838      6F662874 
 13838      7970652C 
 13838      20737461 
 13839              	.LASF73:
 13840 e4f0 5F5F5743 		.ascii	"__WCHAR_MAX__ 0xffffffffU\000"
 13840      4841525F 
 13840      4D41585F 
 13840      5F203078 
 13840      66666666 
 13841              	.LASF1608:
 13842 e50a 5050525A 		.ascii	"PPRZ_GEODETIC_FLOAT_H \000"
 13842      5F47454F 
 13842      44455449 
 13842      435F464C 
 13842      4F41545F 
 13843              	.LASF924:
 13844 e521 5F53495A 		.ascii	"_SIZE_T \000"
 13844      455F5420 
 13844      00
 13845              	.LASF1470:
 13846 e52a 45584954 		.ascii	"EXIT_SUCCESS 0\000"
 13846      5F535543 
 13846      43455353 
 13846      203000
 13847              	.LASF567:
 13848 e539 5F504F53 		.ascii	"_POSIX_C_SOURCE 200809L\000"
 13848      49585F43 
 13848      5F534F55 
 13848      52434520 
 13848      32303038 
 13849              	.LASF895:
 13850 e551 50524978 		.ascii	"PRIxPTR __PRIPTR(x)\000"
ARM GAS  /tmp/ccKtbbXa.s 			page 359


 13850      50545220 
 13850      5F5F5052 
 13850      49505452 
 13850      28782900 
 13851              	.LASF1265:
 13852 e565 426F756E 		.ascii	"BoundUpper(_x,_max) { if (_x > (_max)) _x = (_max);"
 13852      64557070 
 13852      6572285F 
 13852      782C5F6D 
 13852      61782920 
 13853 e598 7D00     		.ascii	"}\000"
 13854              	.LASF1374:
 13855 e59a 56454354 		.ascii	"VECT3_BOUND_CUBE(_v,_min,_max) { if ((_v).x > (_max"
 13855      335F424F 
 13855      554E445F 
 13855      43554245 
 13855      285F762C 
 13856 e5cd 29292028 		.ascii	")) (_v).x = (_max); else if ((_v).x < (_min)) (_v)."
 13856      5F76292E 
 13856      78203D20 
 13856      285F6D61 
 13856      78293B20 
 13857 e600 78203D20 		.ascii	"x = (_min); if ((_v).y > (_max)) (_v).y = (_max); e"
 13857      285F6D69 
 13857      6E293B20 
 13857      69662028 
 13857      285F7629 
 13858 e633 6C736520 		.ascii	"lse if ((_v).y < (_min)) (_v).y = (_min); if ((_v)."
 13858      69662028 
 13858      285F7629 
 13858      2E79203C 
 13858      20285F6D 
 13859 e666 7A203E20 		.ascii	"z > (_max)) (_v).z = (_max); else if ((_v).z < (_mi"
 13859      285F6D61 
 13859      78292920 
 13859      285F7629 
 13859      2E7A203D 
 13860 e699 6E292920 		.ascii	"n)) (_v).z = (_min); }\000"
 13860      285F7629 
 13860      2E7A203D 
 13860      20285F6D 
 13860      696E293B 
 13861              	.LASF1271:
 13862 e6b0 436C6970 		.ascii	"ClipAbs(x,max) Clip(x, -(max), (max))\000"
 13862      41627328 
 13862      782C6D61 
 13862      78292043 
 13862      6C697028 
 13863              	.LASF822:
 13864 e6d6 5052496F 		.ascii	"PRIoFAST16 __PRI16FAST(o)\000"
 13864      46415354 
 13864      3136205F 
 13864      5F505249 
 13864      31364641 
 13865              	.LASF176:
 13866 e6f0 5F5F4C44 		.ascii	"__LDBL_MANT_DIG__ 53\000"
 13866      424C5F4D 
ARM GAS  /tmp/ccKtbbXa.s 			page 360


 13866      414E545F 
 13866      4449475F 
 13866      5F203533 
 13867              	.LASF1632:
 13868 e705 464C4F41 		.ascii	"FLOAT_RMAT_RATEMULT(_rb,_m_a2b,_ra) WARNING(\"FLOAT"
 13868      545F524D 
 13868      41545F52 
 13868      4154454D 
 13868      554C5428 
 13869 e737 5F524D41 		.ascii	"_RMAT_RATEMULT macro is deprecated, use the lower c"
 13869      545F5241 
 13869      54454D55 
 13869      4C54206D 
 13869      6163726F 
 13870 e76a 61736520 		.ascii	"ase function instead\") float_rmat_ratemult(&(_rb),"
 13870      66756E63 
 13870      74696F6E 
 13870      20696E73 
 13870      74656164 
 13871 e79c 2026285F 		.ascii	" &(_m_a2b), &(_ra))\000"
 13871      6D5F6132 
 13871      62292C20 
 13871      26285F72 
 13871      61292900 
 13872              	.LASF273:
 13873 e7b0 5F5F554C 		.ascii	"__ULLFRACT_FBIT__ 64\000"
 13873      4C465241 
 13873      43545F46 
 13873      4249545F 
 13873      5F203634 
 13874              	.LASF722:
 13875 e7c5 57434841 		.ascii	"WCHAR_MAX\000"
 13875      525F4D41 
 13875      5800
 13876              	.LASF325:
 13877 e7cf 5F5F4451 		.ascii	"__DQ_IBIT__ 0\000"
 13877      5F494249 
 13877      545F5F20 
 13877      3000
 13878              	.LASF215:
 13879 e7dd 5F5F464C 		.ascii	"__FLT64_MAX__ 1.7976931348623157e+308F64\000"
 13879      5436345F 
 13879      4D41585F 
 13879      5F20312E 
 13879      37393736 
 13880              	.LASF485:
 13881 e806 5050525A 		.ascii	"PPRZLINK_ENABLE_FD 1\000"
 13881      4C494E4B 
 13881      5F454E41 
 13881      424C455F 
 13881      46442031 
 13882              	.LASF932:
 13883 e81b 5F53495A 		.ascii	"_SIZE_T_DEFINED \000"
 13883      455F545F 
 13883      44454649 
 13883      4E454420 
 13883      00
ARM GAS  /tmp/ccKtbbXa.s 			page 361


 13884              	.LASF891:
 13885 e82c 50524964 		.ascii	"PRIdPTR __PRIPTR(d)\000"
 13885      50545220 
 13885      5F5F5052 
 13885      49505452 
 13885      28642900 
 13886              	.LASF654:
 13887 e840 494E545F 		.ascii	"INT_LEAST8_MIN\000"
 13887      4C454153 
 13887      54385F4D 
 13887      494E00
 13888              	.LASF1245:
 13889 e84f 53657442 		.ascii	"SetBit(a,n) a |= (1 << n)\000"
 13889      69742861 
 13889      2C6E2920 
 13889      61207C3D 
 13889      20283120 
 13890              	.LASF329:
 13891 e869 5F5F5551 		.ascii	"__UQQ_IBIT__ 0\000"
 13891      515F4942 
 13891      49545F5F 
 13891      203000
 13892              	.LASF149:
 13893 e878 5F5F464C 		.ascii	"__FLT_MAX_EXP__ 128\000"
 13893      545F4D41 
 13893      585F4558 
 13893      505F5F20 
 13893      31323800 
 13894              	.LASF953:
 13895 e88c 5F5F5F69 		.ascii	"___int8_t_defined 1\000"
 13895      6E74385F 
 13895      745F6465 
 13895      66696E65 
 13895      64203100 
 13896              	.LASF1206:
 13897 e8a0 4D5F5049 		.ascii	"M_PI_4 0.78539816339744830962\000"
 13897      5F342030 
 13897      2E373835 
 13897      33393831 
 13897      36333339 
 13898              	.LASF613:
 13899 e8be 5F5F4641 		.ascii	"__FAST64 \"ll\"\000"
 13899      53543634 
 13899      20226C6C 
 13899      2200
 13900              	.LASF1100:
 13901 e8cc 5F4E6F72 		.ascii	"_Noreturn __dead2\000"
 13901      65747572 
 13901      6E205F5F 
 13901      64656164 
 13901      3200
 13902              	.LASF1648:
 13903 e8de 464C4F41 		.ascii	"FLOAT_QUAT_MULT(_a2c,_a2b,_b2c) WARNING(\"FLOAT_QUA"
 13903      545F5155 
 13903      41545F4D 
 13903      554C5428 
 13903      5F613263 
ARM GAS  /tmp/ccKtbbXa.s 			page 362


 13904 e910 545F4D55 		.ascii	"T_MULT macro is deprecated, use the lower case func"
 13904      4C54206D 
 13904      6163726F 
 13904      20697320 
 13904      64657072 
 13905 e943 74696F6E 		.ascii	"tion instead\") float_quat_comp(&(_a2c), &(_a2b), &"
 13905      20696E73 
 13905      74656164 
 13905      22292066 
 13905      6C6F6174 
 13906 e975 285F6232 		.ascii	"(_b2c))\000"
 13906      63292900 
 13907              	.LASF1383:
 13908 e97d 45554C45 		.ascii	"EULERS_ADD(_a,_b) { (_a).phi += (_b).phi; (_a).thet"
 13908      52535F41 
 13908      4444285F 
 13908      612C5F62 
 13908      29207B20 
 13909 e9b0 61202B3D 		.ascii	"a += (_b).theta; (_a).psi += (_b).psi; }\000"
 13909      20285F62 
 13909      292E7468 
 13909      6574613B 
 13909      20285F61 
 13910              	.LASF906:
 13911 e9d9 5F5F626F 		.ascii	"__bool_true_false_are_defined 1\000"
 13911      6F6C5F74 
 13911      7275655F 
 13911      66616C73 
 13911      655F6172 
 13912              	.LASF1758:
 13913 e9f9 6D617468 		.ascii	"math/pprz_geodetic_int.c\000"
 13913      2F707072 
 13913      7A5F6765 
 13913      6F646574 
 13913      69635F69 
 13914              	.LASF433:
 13915 ea12 5F5F4152 		.ascii	"__ARM_FEATURE_CDE\000"
 13915      4D5F4645 
 13915      41545552 
 13915      455F4344 
 13915      4500
 13916              	.LASF571:
 13917 ea24 5F5F4253 		.ascii	"__BSD_VISIBLE 1\000"
 13917      445F5649 
 13917      5349424C 
 13917      45203100 
 13918              	.LASF1346:
 13919 ea34 5F5F6E65 		.ascii	"__need_NULL \000"
 13919      65645F4E 
 13919      554C4C20 
 13919      00
 13920              	.LASF1313:
 13921 ea41 4C44424C 		.ascii	"LDBL_MAX_EXP\000"
 13921      5F4D4158 
 13921      5F455850 
 13921      00
 13922              	.LASF391:
ARM GAS  /tmp/ccKtbbXa.s 			page 363


 13923 ea4e 5F5F4152 		.ascii	"__ARM_FEATURE_LDREX\000"
 13923      4D5F4645 
 13923      41545552 
 13923      455F4C44 
 13923      52455800 
 13924              	.LASF1570:
 13925 ea62 494E5433 		.ascii	"INT32_EULERS_DOT_321_OF_RATES(_ed,_e,_r) WARNING(\""
 13925      325F4555 
 13925      4C455253 
 13925      5F444F54 
 13925      5F333231 
 13926 ea94 494E5433 		.ascii	"INT32_EULERS_DOT_321_OF_RATES macro is deprecated, "
 13926      325F4555 
 13926      4C455253 
 13926      5F444F54 
 13926      5F333231 
 13927 eac7 75736520 		.ascii	"use the lower case function instead\") int32_eulers"
 13927      74686520 
 13927      6C6F7765 
 13927      72206361 
 13927      73652066 
 13928 eaf9 5F646F74 		.ascii	"_dot_321_of_rates(&(_ed), &(_e), &(_r))\000"
 13928      5F333231 
 13928      5F6F665F 
 13928      72617465 
 13928      73282628 
 13929              	.LASF120:
 13930 eb21 5F5F5549 		.ascii	"__UINT_LEAST32_MAX__ 0xffffffffUL\000"
 13930      4E545F4C 
 13930      45415354 
 13930      33325F4D 
 13930      41585F5F 
 13931              	.LASF1731:
 13932 eb43 6E65645F 		.ascii	"ned_of_lla_point_i\000"
 13932      6F665F6C 
 13932      6C615F70 
 13932      6F696E74 
 13932      5F6900
 13933              	.LASF1668:
 13934 eb56 5050525A 		.ascii	"PPRZ_GEODETIC_DOUBLE_H \000"
 13934      5F47454F 
 13934      44455449 
 13934      435F444F 
 13934      55424C45 
 13935              	.LASF605:
 13936 eb6e 5F494E54 		.ascii	"_INT32_EQ_LONG \000"
 13936      33325F45 
 13936      515F4C4F 
 13936      4E472000 
 13937              	.LASF941:
 13938 eb7e 4E554C4C 		.ascii	"NULL ((void *)0)\000"
 13938      20282876 
 13938      6F696420 
 13938      2A293029 
 13938      00
 13939              	.LASF247:
 13940 eb8f 5F5F5553 		.ascii	"__USFRACT_EPSILON__ 0x1P-8UHR\000"
ARM GAS  /tmp/ccKtbbXa.s 			page 364


 13940      46524143 
 13940      545F4550 
 13940      53494C4F 
 13940      4E5F5F20 
 13941              	.LASF879:
 13942 ebad 50524969 		.ascii	"PRIiMAX __PRIMAX(i)\000"
 13942      4D415820 
 13942      5F5F5052 
 13942      494D4158 
 13942      28692900 
 13943              	.LASF27:
 13944 ebc1 5F5F4F52 		.ascii	"__ORDER_BIG_ENDIAN__ 4321\000"
 13944      4445525F 
 13944      4249475F 
 13944      454E4449 
 13944      414E5F5F 
 13945              	.LASF390:
 13946 ebdb 5F5F4152 		.ascii	"__ARM_FEATURE_CMSE\000"
 13946      4D5F4645 
 13946      41545552 
 13946      455F434D 
 13946      534500
 13947              	.LASF1403:
 13948 ebee 4D415433 		.ascii	"MAT33_ELMT(_m,_row,_col) ((_m).m[(_row)*3+(_col)])\000"
 13948      335F454C 
 13948      4D54285F 
 13948      6D2C5F72 
 13948      6F772C5F 
 13949              	.LASF256:
 13950 ec21 5F5F5546 		.ascii	"__UFRACT_MAX__ 0XFFFFP-16UR\000"
 13950      52414354 
 13950      5F4D4158 
 13950      5F5F2030 
 13950      58464646 
 13951              	.LASF1559:
 13952 ec3d 494E545F 		.ascii	"INT_EULERS_ZERO(_e) EULERS_ASSIGN(_e, 0, 0, 0)\000"
 13952      45554C45 
 13952      52535F5A 
 13952      45524F28 
 13952      5F652920 
 13953              	.LASF949:
 13954 ec6c 5F4D4143 		.ascii	"_MACHINE__DEFAULT_TYPES_H \000"
 13954      48494E45 
 13954      5F5F4445 
 13954      4641554C 
 13954      545F5459 
 13955              	.LASF63:
 13956 ec87 5F5F5549 		.ascii	"__UINT_FAST32_TYPE__ unsigned int\000"
 13956      4E545F46 
 13956      41535433 
 13956      325F5459 
 13956      50455F5F 
 13957              	.LASF94:
 13958 eca9 5F5F5349 		.ascii	"__SIG_ATOMIC_MIN__ (-__SIG_ATOMIC_MAX__ - 1)\000"
 13958      475F4154 
 13958      4F4D4943 
 13958      5F4D494E 
ARM GAS  /tmp/ccKtbbXa.s 			page 365


 13958      5F5F2028 
 13959              	.LASF904:
 13960 ecd6 74727565 		.ascii	"true 1\000"
 13960      203100
 13961              	.LASF1541:
 13962 ecdd 494E5433 		.ascii	"INT32_RMAT_OF_EULERS(_rm,_e) WARNING(\"INT32_RMAT_O"
 13962      325F524D 
 13962      41545F4F 
 13962      465F4555 
 13962      4C455253 
 13963 ed0f 465F4555 		.ascii	"F_EULERS macro is deprecated, use the lower case fu"
 13963      4C455253 
 13963      206D6163 
 13963      726F2069 
 13963      73206465 
 13964 ed42 6E637469 		.ascii	"nction instead\") int32_rmat_of_eulers_321(&(_rm), "
 13964      6F6E2069 
 13964      6E737465 
 13964      61642229 
 13964      20696E74 
 13965 ed74 26285F65 		.ascii	"&(_e))\000"
 13965      292900
 13966              	.LASF735:
 13967 ed7b 494E5433 		.ascii	"INT32_C(c) __INT32_C(c)\000"
 13967      325F4328 
 13967      6329205F 
 13967      5F494E54 
 13967      33325F43 
 13968              	.LASF1518:
 13969 ed93 494E5433 		.ascii	"INT32_SQRT(_out,_in) WARNING(\"INT32_SQRT macro is "
 13969      325F5351 
 13969      5254285F 
 13969      6F75742C 
 13969      5F696E29 
 13970 edc5 64657072 		.ascii	"deprecated, use the lower case function instead\") "
 13970      65636174 
 13970      65642C20 
 13970      75736520 
 13970      74686520 
 13971 edf7 7B205F6F 		.ascii	"{ _out = int32_sqrt(_in); }\000"
 13971      7574203D 
 13971      20696E74 
 13971      33325F73 
 13971      71727428 
 13972              	.LASF1659:
 13973 ee13 464C4F41 		.ascii	"FLOAT_QUAT_OF_EULERS(_q,_e) WARNING(\"FLOAT_QUAT_OF"
 13973      545F5155 
 13973      41545F4F 
 13973      465F4555 
 13973      4C455253 
 13974 ee45 5F45554C 		.ascii	"_EULERS macro is deprecated, use the lower case fun"
 13974      45525320 
 13974      6D616372 
 13974      6F206973 
 13974      20646570 
 13975 ee78 6374696F 		.ascii	"ction instead\") float_quat_of_eulers(&(_q), &(_e))"
 13975      6E20696E 
ARM GAS  /tmp/ccKtbbXa.s 			page 366


 13975      73746561 
 13975      64222920 
 13975      666C6F61 
 13976 eeaa 00       		.ascii	"\000"
 13977              	.LASF767:
 13978 eeab 5F5F6E65 		.ascii	"__need_wchar_t\000"
 13978      65645F77 
 13978      63686172 
 13978      5F7400
 13979              	.LASF151:
 13980 eeba 5F5F464C 		.ascii	"__FLT_DECIMAL_DIG__ 9\000"
 13980      545F4445 
 13980      43494D41 
 13980      4C5F4449 
 13980      475F5F20 
 13981              	.LASF43:
 13982 eed0 5F5F494E 		.ascii	"__INT32_TYPE__ long int\000"
 13982      5433325F 
 13982      54595045 
 13982      5F5F206C 
 13982      6F6E6720 
 13983              	.LASF914:
 13984 eee8 5F545F50 		.ascii	"_T_PTRDIFF \000"
 13984      54524449 
 13984      46462000 
 13985              	.LASF1532:
 13986 eef4 494E5433 		.ascii	"INT32_MAT33_DIAG(_m,_d00,_d11,_d22) { MAT33_ELMT((_"
 13986      325F4D41 
 13986      5433335F 
 13986      44494147 
 13986      285F6D2C 
 13987 ef27 6D292C20 		.ascii	"m), 0, 0) = (_d00); MAT33_ELMT((_m), 0, 1) = 0; MAT"
 13987      302C2030 
 13987      29203D20 
 13987      285F6430 
 13987      30293B20 
 13988 ef5a 33335F45 		.ascii	"33_ELMT((_m), 0, 2) = 0; MAT33_ELMT((_m), 1, 0) = 0"
 13988      4C4D5428 
 13988      285F6D29 
 13988      2C20302C 
 13988      20322920 
 13989 ef8d 3B204D41 		.ascii	"; MAT33_ELMT((_m), 1, 1) = (_d11); MAT33_ELMT((_m),"
 13989      5433335F 
 13989      454C4D54 
 13989      28285F6D 
 13989      292C2031 
 13990 efc0 20312C20 		.ascii	" 1, 2) = 0; MAT33_ELMT((_m), 2, 0) = 0; MAT33_ELMT("
 13990      3229203D 
 13990      20303B20 
 13990      4D415433 
 13990      335F454C 
 13991 eff3 285F6D29 		.ascii	"(_m), 2, 1) = 0; MAT33_ELMT((_m), 2, 2) = (_d22); }"
 13991      2C20322C 
 13991      20312920 
 13991      3D20303B 
 13991      204D4154 
 13992 f026 00       		.ascii	"\000"
ARM GAS  /tmp/ccKtbbXa.s 			page 367


 13993              	.LASF284:
 13994 f027 5F5F5553 		.ascii	"__USACCUM_IBIT__ 8\000"
 13994      41434355 
 13994      4D5F4942 
 13994      49545F5F 
 13994      203800
 13995              	.LASF253:
 13996 f03a 5F5F5546 		.ascii	"__UFRACT_FBIT__ 16\000"
 13996      52414354 
 13996      5F464249 
 13996      545F5F20 
 13996      313600
 13997              	.LASF1495:
 13998 f04d 494E5433 		.ascii	"INT32_COURSE_NORMALIZE(_a) { while ((_a) < 0) (_a) "
 13998      325F434F 
 13998      55525345 
 13998      5F4E4F52 
 13998      4D414C49 
 13999 f080 2B3D2049 		.ascii	"+= INT32_ANGLE_2_PI; while ((_a) >= INT32_ANGLE_2_P"
 13999      4E543332 
 13999      5F414E47 
 13999      4C455F32 
 13999      5F50493B 
 14000 f0b3 49292028 		.ascii	"I) (_a) -= INT32_ANGLE_2_PI; }\000"
 14000      5F612920 
 14000      2D3D2049 
 14000      4E543332 
 14000      5F414E47 
 14001              	.LASF1458:
 14002 f0d2 54524545 		.ascii	"TREE_BUF_12_3 3474\000"
 14002      5F425546 
 14002      5F31325F 
 14002      33203334 
 14002      373400
 14003              	.LASF1544:
 14004 f0e5 494E5433 		.ascii	"INT32_QUAT_ZERO(_q) WARNING(\"INT32_QUAT_ZERO macro"
 14004      325F5155 
 14004      41545F5A 
 14004      45524F28 
 14004      5F712920 
 14005 f117 20697320 		.ascii	" is deprecated, use the lower case function instead"
 14005      64657072 
 14005      65636174 
 14005      65642C20 
 14005      75736520 
 14006 f14a 22292069 		.ascii	"\") int32_quat_identity(&(_q))\000"
 14006      6E743332 
 14006      5F717561 
 14006      745F6964 
 14006      656E7469 
 14007              	.LASF585:
 14008 f168 5F524541 		.ascii	"_READ_WRITE_RETURN_TYPE int\000"
 14008      445F5752 
 14008      4954455F 
 14008      52455455 
 14008      524E5F54 
 14009              	.LASF265:
ARM GAS  /tmp/ccKtbbXa.s 			page 368


 14010 f184 5F5F554C 		.ascii	"__ULFRACT_MIN__ 0.0ULR\000"
 14010      46524143 
 14010      545F4D49 
 14010      4E5F5F20 
 14010      302E3055 
 14011              	.LASF339:
 14012 f19b 5F5F4841 		.ascii	"__HA_IBIT__ 8\000"
 14012      5F494249 
 14012      545F5F20 
 14012      3800
 14013              	.LASF919:
 14014 f1a9 5F474343 		.ascii	"_GCC_PTRDIFF_T \000"
 14014      5F505452 
 14014      44494646 
 14014      5F542000 
 14015              	.LASF985:
 14016 f1b9 5F524545 		.ascii	"_REENT_INIT_ATEXIT _NULL, _ATEXIT_INIT,\000"
 14016      4E545F49 
 14016      4E49545F 
 14016      41544558 
 14016      4954205F 
 14017              	.LASF326:
 14018 f1e1 5F5F5451 		.ascii	"__TQ_FBIT__ 127\000"
 14018      5F464249 
 14018      545F5F20 
 14018      31323700 
 14019              	.LASF1432:
 14020 f1f1 524D4154 		.ascii	"RMAT_BFP_OF_REAL(_ei,_ef) { (_ei).m[0] = TRIG_BFP_O"
 14020      5F424650 
 14020      5F4F465F 
 14020      5245414C 
 14020      285F6569 
 14021 f224 465F5245 		.ascii	"F_REAL((_ef).m[0]); (_ei).m[1] = TRIG_BFP_OF_REAL(("
 14021      414C2828 
 14021      5F656629 
 14021      2E6D5B30 
 14021      5D293B20 
 14022 f257 5F656629 		.ascii	"_ef).m[1]); (_ei).m[2] = TRIG_BFP_OF_REAL((_ef).m[2"
 14022      2E6D5B31 
 14022      5D293B20 
 14022      285F6569 
 14022      292E6D5B 
 14023 f28a 5D293B20 		.ascii	"]); (_ei).m[3] = TRIG_BFP_OF_REAL((_ef).m[3]); (_ei"
 14023      285F6569 
 14023      292E6D5B 
 14023      335D203D 
 14023      20545249 
 14024 f2bd 292E6D5B 		.ascii	").m[4] = TRIG_BFP_OF_REAL((_ef).m[4]); (_ei).m[5] ="
 14024      345D203D 
 14024      20545249 
 14024      475F4246 
 14024      505F4F46 
 14025 f2f0 20545249 		.ascii	" TRIG_BFP_OF_REAL((_ef).m[5]); (_ei).m[6] = TRIG_BF"
 14025      475F4246 
 14025      505F4F46 
 14025      5F524541 
 14025      4C28285F 
ARM GAS  /tmp/ccKtbbXa.s 			page 369


 14026 f323 505F4F46 		.ascii	"P_OF_REAL((_ef).m[6]); (_ei).m[7] = TRIG_BFP_OF_REA"
 14026      5F524541 
 14026      4C28285F 
 14026      6566292E 
 14026      6D5B365D 
 14027 f356 4C28285F 		.ascii	"L((_ef).m[7]); (_ei).m[8] = TRIG_BFP_OF_REAL((_ef)."
 14027      6566292E 
 14027      6D5B375D 
 14027      293B2028 
 14027      5F656929 
 14028 f389 6D5B385D 		.ascii	"m[8]); }\000"
 14028      293B207D 
 14028      00
 14029              	.LASF66:
 14030 f392 5F5F5549 		.ascii	"__UINTPTR_TYPE__ unsigned int\000"
 14030      4E545054 
 14030      525F5459 
 14030      50455F5F 
 14030      20756E73 
 14031              	.LASF503:
 14032 f3b0 5542585F 		.ascii	"UBX_GPS_LINK uart4\000"
 14032      4750535F 
 14032      4C494E4B 
 14032      20756172 
 14032      743400
 14033              	.LASF1720:
 14034 f3c3 6C6C615F 		.ascii	"lla_d\000"
 14034      6400
 14035              	.LASF1173:
 14036 f3c9 46505F4E 		.ascii	"FP_NAN 0\000"
 14036      414E2030 
 14036      00
 14037              	.LASF15:
 14038 f3d2 5F5F4649 		.ascii	"__FINITE_MATH_ONLY__ 0\000"
 14038      4E495445 
 14038      5F4D4154 
 14038      485F4F4E 
 14038      4C595F5F 
 14039              	.LASF1582:
 14040 f3e9 48494748 		.ascii	"HIGH_RES_TRIG_FRAC 20\000"
 14040      5F524553 
 14040      5F545249 
 14040      475F4652 
 14040      41432032 
 14041              	.LASF633:
 14042 f3ff 55494E54 		.ascii	"UINT8_MAX __UINT8_MAX__\000"
 14042      385F4D41 
 14042      58205F5F 
 14042      55494E54 
 14042      385F4D41 
 14043              	.LASF334:
 14044 f417 5F5F5544 		.ascii	"__UDQ_FBIT__ 64\000"
 14044      515F4642 
 14044      49545F5F 
 14044      20363400 
 14045              	.LASF785:
 14046 f427 50524958 		.ascii	"PRIXLEAST8 __PRI8LEAST(X)\000"
ARM GAS  /tmp/ccKtbbXa.s 			page 370


 14046      4C454153 
 14046      5438205F 
 14046      5F505249 
 14046      384C4541 
 14047              	.LASF1269:
 14048 f441 426F756E 		.ascii	"BoundAbs(_x,_max) Bound(_x, -(_max), (_max))\000"
 14048      64416273 
 14048      285F782C 
 14048      5F6D6178 
 14048      2920426F 
 14049              	.LASF1201:
 14050 f46e 4D5F4C4F 		.ascii	"M_LOG10E 0.43429448190325182765\000"
 14050      47313045 
 14050      20302E34 
 14050      33343239 
 14050      34343831 
 14051              	.LASF1202:
 14052 f48e 4D5F4C4E 		.ascii	"M_LN2 _M_LN2\000"
 14052      32205F4D 
 14052      5F4C4E32 
 14052      00
 14053              	.LASF437:
 14054 f49b 5F5F4152 		.ascii	"__ARM_FEATURE_BF16_VECTOR_ARITHMETIC\000"
 14054      4D5F4645 
 14054      41545552 
 14054      455F4246 
 14054      31365F56 
 14055              	.LASF1600:
 14056 f4c0 494E5433 		.ascii	"INT32_VECT2_ENU_OF_NED(_o,_i) { (_o).x = (_i).y; (_"
 14056      325F5645 
 14056      4354325F 
 14056      454E555F 
 14056      4F465F4E 
 14057 f4f3 6F292E79 		.ascii	"o).y = (_i).x; }\000"
 14057      203D2028 
 14057      5F69292E 
 14057      783B207D 
 14057      00
 14058              	.LASF989:
 14059 f504 5F52414E 		.ascii	"_RAND48_SEED_2 (0x1234)\000"
 14059      4434385F 
 14059      53454544 
 14059      5F322028 
 14059      30783132 
 14060              	.LASF1330:
 14061 f51c 44424C5F 		.ascii	"DBL_EPSILON\000"
 14061      45505349 
 14061      4C4F4E00 
 14062              	.LASF1363:
 14063 f528 56454354 		.ascii	"VECT3_ADD(_a,_b) { (_a).x += (_b).x; (_a).y += (_b)"
 14063      335F4144 
 14063      44285F61 
 14063      2C5F6229 
 14063      207B2028 
 14064 f55b 2E793B20 		.ascii	".y; (_a).z += (_b).z; }\000"
 14064      285F6129 
 14064      2E7A202B 
ARM GAS  /tmp/ccKtbbXa.s 			page 371


 14064      3D20285F 
 14064      62292E7A 
 14065              	.LASF632:
 14066 f573 55494E54 		.ascii	"UINT8_MAX\000"
 14066      385F4D41 
 14066      5800
 14067              	.LASF844:
 14068 f57d 53434E69 		.ascii	"SCNi32 __SCN32(i)\000"
 14068      3332205F 
 14068      5F53434E 
 14068      33322869 
 14068      2900
 14069              	.LASF1113:
 14070 f58f 5F5F756E 		.ascii	"__unreachable() __builtin_unreachable()\000"
 14070      72656163 
 14070      6861626C 
 14070      65282920 
 14070      5F5F6275 
 14071              	.LASF511:
 14072 f5b7 5553455F 		.ascii	"USE_I2C1 1\000"
 14072      49324331 
 14072      203100
 14073              	.LASF475:
 14074 f5c2 48414C5F 		.ascii	"HAL_USE_SDC TRUE\000"
 14074      5553455F 
 14074      53444320 
 14074      54525545 
 14074      00
 14075              	.LASF396:
 14076 f5d3 5F5F4152 		.ascii	"__ARM_SIZEOF_MINIMAL_ENUM 1\000"
 14076      4D5F5349 
 14076      5A454F46 
 14076      5F4D494E 
 14076      494D414C 
 14077              	.LASF1130:
 14078 f5ef 5F5F7765 		.ascii	"__weak_reference(sym,alias) __asm__(\".weak \" #ali"
 14078      616B5F72 
 14078      65666572 
 14078      656E6365 
 14078      2873796D 
 14079 f620 6173293B 		.ascii	"as); __asm__(\".equ \" #alias \", \" #sym)\000"
 14079      205F5F61 
 14079      736D5F5F 
 14079      28222E65 
 14079      71752022 
 14080              	.LASF463:
 14081 f647 444F574E 		.ascii	"DOWNLINK 1\000"
 14081      4C494E4B 
 14081      203100
 14082              	.LASF114:
 14083 f652 5F5F494E 		.ascii	"__INT64_C(c) c ## LL\000"
 14083      5436345F 
 14083      43286329 
 14083      20632023 
 14083      23204C4C 
 14084              	.LASF607:
 14085 f667 5F5F494E 		.ascii	"__INT16 \"h\"\000"
ARM GAS  /tmp/ccKtbbXa.s 			page 372


 14085      54313620 
 14085      22682200 
 14086              	.LASF1691:
 14087 f673 696E7436 		.ascii	"int64_t\000"
 14087      345F7400 
 14088              	.LASF588:
 14089 f67b 5F5F5354 		.ascii	"__STDINT_EXP(x) __ ##x ##__\000"
 14089      44494E54 
 14089      5F455850 
 14089      28782920 
 14089      5F5F2023 
 14090              	.LASF658:
 14091 f697 494E545F 		.ascii	"INT_LEAST16_MAX\000"
 14091      4C454153 
 14091      5431365F 
 14091      4D415800 
 14092              	.LASF457:
 14093 f6a7 43485F44 		.ascii	"CH_DBG_FILL_THREADS TRUE\000"
 14093      42475F46 
 14093      494C4C5F 
 14093      54485245 
 14093      41445320 
 14094              	.LASF1387:
 14095 f6c0 45554C45 		.ascii	"EULERS_SDIV(_eo,_ei,_s) { (_eo).phi = (_ei).phi / ("
 14095      52535F53 
 14095      44495628 
 14095      5F656F2C 
 14095      5F65692C 
 14096 f6f3 5F73293B 		.ascii	"_s); (_eo).theta = (_ei).theta / (_s); (_eo).psi = "
 14096      20285F65 
 14096      6F292E74 
 14096      68657461 
 14096      203D2028 
 14097 f726 285F6569 		.ascii	"(_ei).psi / (_s); }\000"
 14097      292E7073 
 14097      69202F20 
 14097      285F7329 
 14097      3B207D00 
 14098              	.LASF342:
 14099 f73a 5F5F4441 		.ascii	"__DA_FBIT__ 31\000"
 14099      5F464249 
 14099      545F5F20 
 14099      333100
 14100              	.LASF201:
 14101 f749 5F5F464C 		.ascii	"__FLT32_MIN__ 1.1754943508222875e-38F32\000"
 14101      5433325F 
 14101      4D494E5F 
 14101      5F20312E 
 14101      31373534 
 14102              	.LASF721:
 14103 f771 53495A45 		.ascii	"SIZE_MAX __SIZE_MAX__\000"
 14103      5F4D4158 
 14103      205F5F53 
 14103      495A455F 
 14103      4D41585F 
 14104              	.LASF630:
 14105 f787 494E5438 		.ascii	"INT8_MIN\000"
ARM GAS  /tmp/ccKtbbXa.s 			page 373


 14105      5F4D494E 
 14105      00
 14106              	.LASF1564:
 14107 f790 494E545F 		.ascii	"INT_RATES_ZERO(_e) RATES_ASSIGN(_e, 0, 0, 0)\000"
 14107      52415445 
 14107      535F5A45 
 14107      524F285F 
 14107      65292052 
 14108              	.LASF1082:
 14109 f7bd 5F5F5853 		.ascii	"__XSTRING(x) __STRING(x)\000"
 14109      5452494E 
 14109      47287829 
 14109      205F5F53 
 14109      5452494E 
 14110              	.LASF1137:
 14111 f7d6 5F5F5343 		.ascii	"__SCCSID(s) struct __hack\000"
 14111      43534944 
 14111      28732920 
 14111      73747275 
 14111      6374205F 
 14112              	.LASF448:
 14113 f7f0 41485253 		.ascii	"AHRS_TYPE_H \"modules/ahrs/ahrs_float_dcm_wrapper.h"
 14113      5F545950 
 14113      455F4820 
 14113      226D6F64 
 14113      756C6573 
 14114 f822 2200     		.ascii	"\"\000"
 14115              	.LASF362:
 14116 f824 5F5F4743 		.ascii	"__GCC_ATOMIC_BOOL_LOCK_FREE 2\000"
 14116      435F4154 
 14116      4F4D4943 
 14116      5F424F4F 
 14116      4C5F4C4F 
 14117              	.LASF696:
 14118 f842 494E545F 		.ascii	"INT_FAST64_MIN\000"
 14118      46415354 
 14118      36345F4D 
 14118      494E00
 14119              	.LASF128:
 14120 f851 5F5F494E 		.ascii	"__INT_FAST32_MAX__ 0x7fffffff\000"
 14120      545F4641 
 14120      53543332 
 14120      5F4D4158 
 14120      5F5F2030 
 14121              	.LASF150:
 14122 f86f 5F5F464C 		.ascii	"__FLT_MAX_10_EXP__ 38\000"
 14122      545F4D41 
 14122      585F3130 
 14122      5F455850 
 14122      5F5F2033 
 14123              	.LASF1533:
 14124 f885 696E7433 		.ascii	"int32_rmat_of_eulers int32_rmat_of_eulers_321\000"
 14124      325F726D 
 14124      61745F6F 
 14124      665F6575 
 14124      6C657273 
 14125              	.LASF1417:
ARM GAS  /tmp/ccKtbbXa.s 			page 374


 14126 f8b3 51554154 		.ascii	"QUAT_EXPLEMENTARY(b,a) { (b).qi = -(a).qi; (b).qx ="
 14126      5F455850 
 14126      4C454D45 
 14126      4E544152 
 14126      5928622C 
 14127 f8e6 202D2861 		.ascii	" -(a).qx; (b).qy = -(a).qy; (b).qz = -(a).qz; }\000"
 14127      292E7178 
 14127      3B202862 
 14127      292E7179 
 14127      203D202D 
 14128              	.LASF729:
 14129 f916 57494E54 		.ascii	"WINT_MIN __WINT_MIN__\000"
 14129      5F4D494E 
 14129      205F5F57 
 14129      494E545F 
 14129      4D494E5F 
 14130              	.LASF1237:
 14131 f92c 5052494E 		.ascii	"PRINT_CONFIG_VAR(var) \000"
 14131      545F434F 
 14131      4E464947 
 14131      5F564152 
 14131      28766172 
 14132              	.LASF1034:
 14133 f943 5F5F4154 		.ascii	"__ATTRIBUTE_IMPURE_PTR__ \000"
 14133      54524942 
 14133      5554455F 
 14133      494D5055 
 14133      52455F50 
 14134              	.LASF343:
 14135 f95d 5F5F4441 		.ascii	"__DA_IBIT__ 32\000"
 14135      5F494249 
 14135      545F5F20 
 14135      333200
 14136              	.LASF1182:
 14137 f96c 6D617468 		.ascii	"math_errhandling MATH_ERRNO\000"
 14137      5F657272 
 14137      68616E64 
 14137      6C696E67 
 14137      204D4154 
 14138              	.LASF1356:
 14139 f988 56454354 		.ascii	"VECT2_SDIV(_vo,_vi,_s) { (_vo).x = (_vi).x / (_s); "
 14139      325F5344 
 14139      4956285F 
 14139      766F2C5F 
 14139      76692C5F 
 14140 f9bb 285F766F 		.ascii	"(_vo).y = (_vi).y / (_s); }\000"
 14140      292E7920 
 14140      3D20285F 
 14140      7669292E 
 14140      79202F20 
 14141              	.LASF411:
 14142 f9d7 5F5F5646 		.ascii	"__VFP_FP__ 1\000"
 14142      505F4650 
 14142      5F5F2031 
 14142      00
 14143              	.LASF1329:
 14144 f9e4 464C545F 		.ascii	"FLT_EPSILON\000"
ARM GAS  /tmp/ccKtbbXa.s 			page 375


 14144      45505349 
 14144      4C4F4E00 
 14145              	.LASF603:
 14146 f9f0 6C6F6E67 		.ascii	"long +4\000"
 14146      202B3400 
 14147              	.LASF1006:
 14148 f9f8 5F524545 		.ascii	"_REENT_CHECK_MISC(ptr) \000"
 14148      4E545F43 
 14148      4845434B 
 14148      5F4D4953 
 14148      43287074 
 14149              	.LASF542:
 14150 fa10 5F57414E 		.ascii	"_WANT_IO_LONG_LONG 1\000"
 14150      545F494F 
 14150      5F4C4F4E 
 14150      475F4C4F 
 14150      4E472031 
 14151              	.LASF640:
 14152 fa25 494E5433 		.ascii	"INT32_MAX\000"
 14152      325F4D41 
 14152      5800
 14153              	.LASF1700:
 14154 fa2f 646F7562 		.ascii	"double\000"
 14154      6C6500
 14155              	.LASF264:
 14156 fa36 5F5F554C 		.ascii	"__ULFRACT_IBIT__ 0\000"
 14156      46524143 
 14156      545F4942 
 14156      49545F5F 
 14156      203000
 14157              	.LASF1236:
 14158 fa49 5052494E 		.ascii	"PRINT_CONFIG_MSG_VALUE(x,v) \000"
 14158      545F434F 
 14158      4E464947 
 14158      5F4D5347 
 14158      5F56414C 
 14159              	.LASF489:
 14160 fa66 5050525A 		.ascii	"PPRZ_VER_MINOR 4\000"
 14160      5F564552 
 14160      5F4D494E 
 14160      4F522034 
 14160      00
 14161              	.LASF1480:
 14162 fa77 494E5433 		.ascii	"INT32_SPEED_OF_CM_S_NUM 41943\000"
 14162      325F5350 
 14162      4545445F 
 14162      4F465F43 
 14162      4D5F535F 
 14163              	.LASF842:
 14164 fa95 50524958 		.ascii	"PRIX32 __PRI32(X)\000"
 14164      3332205F 
 14164      5F505249 
 14164      33322858 
 14164      2900
 14165              	.LASF1733:
 14166 faa7 65636566 		.ascii	"ecef_of_ned_pos_i\000"
 14166      5F6F665F 
ARM GAS  /tmp/ccKtbbXa.s 			page 376


 14166      6E65645F 
 14166      706F735F 
 14166      6900
 14167              	.LASF1124:
 14168 fab9 5F5F7363 		.ascii	"__scanflike(fmtarg,firstvararg) __attribute__((__fo"
 14168      616E666C 
 14168      696B6528 
 14168      666D7461 
 14168      72672C66 
 14169 faec 726D6174 		.ascii	"rmat__ (__scanf__, fmtarg, firstvararg)))\000"
 14169      5F5F2028 
 14169      5F5F7363 
 14169      616E665F 
 14169      5F2C2066 
 14170              	.LASF490:
 14171 fb16 5050525A 		.ascii	"PPRZ_VER_PATCH 0\000"
 14171      5F564552 
 14171      5F504154 
 14171      43482030 
 14171      00
 14172              	.LASF1456:
 14173 fb27 54524545 		.ascii	"TREE_BUF_12_1 1035\000"
 14173      5F425546 
 14173      5F31325F 
 14173      31203130 
 14173      333500
 14174              	.LASF1406:
 14175 fb3a 4D415433 		.ascii	"MAT33_VECT3_MUL(_vout,_mat,_vin) { (_vout).x = MAT3"
 14175      335F5645 
 14175      4354335F 
 14175      4D554C28 
 14175      5F766F75 
 14176 fb6d 335F454C 		.ascii	"3_ELMT((_mat), 0, 0) * (_vin).x + MAT33_ELMT((_mat)"
 14176      4D542828 
 14176      5F6D6174 
 14176      292C2030 
 14176      2C203029 
 14177 fba0 2C20302C 		.ascii	", 0, 1) * (_vin).y + MAT33_ELMT((_mat), 0, 2) * (_v"
 14177      20312920 
 14177      2A20285F 
 14177      76696E29 
 14177      2E79202B 
 14178 fbd3 696E292E 		.ascii	"in).z; (_vout).y = MAT33_ELMT((_mat), 1, 0) * (_vin"
 14178      7A3B2028 
 14178      5F766F75 
 14178      74292E79 
 14178      203D204D 
 14179 fc06 292E7820 		.ascii	").x + MAT33_ELMT((_mat), 1, 1) * (_vin).y + MAT33_E"
 14179      2B204D41 
 14179      5433335F 
 14179      454C4D54 
 14179      28285F6D 
 14180 fc39 4C4D5428 		.ascii	"LMT((_mat), 1, 2) * (_vin).z; (_vout).z = MAT33_ELM"
 14180      285F6D61 
 14180      74292C20 
 14180      312C2032 
 14180      29202A20 
ARM GAS  /tmp/ccKtbbXa.s 			page 377


 14181 fc6c 5428285F 		.ascii	"T((_mat), 2, 0) * (_vin).x + MAT33_ELMT((_mat), 2, "
 14181      6D617429 
 14181      2C20322C 
 14181      20302920 
 14181      2A20285F 
 14182 fc9f 3129202A 		.ascii	"1) * (_vin).y + MAT33_ELMT((_mat), 2, 2) * (_vin).z"
 14182      20285F76 
 14182      696E292E 
 14182      79202B20 
 14182      4D415433 
 14183 fcd2 3B207D00 		.ascii	"; }\000"
 14184              	.LASF1323:
 14185 fcd6 464C545F 		.ascii	"FLT_MAX\000"
 14185      4D415800 
 14186              	.LASF21:
 14187 fcde 5F5F5349 		.ascii	"__SIZEOF_DOUBLE__ 8\000"
 14187      5A454F46 
 14187      5F444F55 
 14187      424C455F 
 14187      5F203800 
 14188              	.LASF134:
 14189 fcf2 5F5F5549 		.ascii	"__UINT_FAST32_MAX__ 0xffffffffU\000"
 14189      4E545F46 
 14189      41535433 
 14189      325F4D41 
 14189      585F5F20 
 14190              	.LASF180:
 14191 fd12 5F5F4C44 		.ascii	"__LDBL_MAX_EXP__ 1024\000"
 14191      424C5F4D 
 14191      41585F45 
 14191      58505F5F 
 14191      20313032 
 14192              	.LASF817:
 14193 fd28 53434E6F 		.ascii	"SCNoLEAST16 __SCN16LEAST(o)\000"
 14193      4C454153 
 14193      54313620 
 14193      5F5F5343 
 14193      4E31364C 
 14194              	.LASF469:
 14195 fd44 4749545F 		.ascii	"GIT_SHA1 232f532dc3af5329cebb0954554d3061da91f830\000"
 14195      53484131 
 14195      20323332 
 14195      66353332 
 14195      64633361 
 14196              	.LASF1555:
 14197 fd76 494E5433 		.ascii	"INT32_QUAT_VMULT(v_out,q,v_in) WARNING(\"INT32_QUAT"
 14197      325F5155 
 14197      41545F56 
 14197      4D554C54 
 14197      28765F6F 
 14198 fda8 5F564D55 		.ascii	"_VMULT macro is deprecated, use the lower case func"
 14198      4C54206D 
 14198      6163726F 
 14198      20697320 
 14198      64657072 
 14199 fddb 74696F6E 		.ascii	"tion instead\") int32_quat_vmult(&(v_out), &(q), &("
 14199      20696E73 
ARM GAS  /tmp/ccKtbbXa.s 			page 378


 14199      74656164 
 14199      22292069 
 14199      6E743332 
 14200 fe0d 765F696E 		.ascii	"v_in))\000"
 14200      292900
 14201              	.LASF758:
 14202 fe14 5F425344 		.ascii	"_BSD_WCHAR_T_ \000"
 14202      5F574348 
 14202      41525F54 
 14202      5F2000
 14203              	.LASF572:
 14204 fe23 5F5F474E 		.ascii	"__GNU_VISIBLE 0\000"
 14204      555F5649 
 14204      5349424C 
 14204      45203000 
 14205              	.LASF418:
 14206 fe33 5F5F4152 		.ascii	"__ARM_FEATURE_FP16_VECTOR_ARITHMETIC\000"
 14206      4D5F4645 
 14206      41545552 
 14206      455F4650 
 14206      31365F56 
 14207              	.LASF835:
 14208 fe58 5F5F5052 		.ascii	"__PRI32FAST(x) __FAST32 __STRINGIFY(x)\000"
 14208      49333246 
 14208      41535428 
 14208      7829205F 
 14208      5F464153 
 14209              	.LASF993:
 14210 fe7f 5F52414E 		.ascii	"_RAND48_ADD (0x000b)\000"
 14210      4434385F 
 14210      41444420 
 14210      28307830 
 14210      30306229 
 14211              	.LASF909:
 14212 fe94 5F535444 		.ascii	"_STDDEF_H \000"
 14212      4445465F 
 14212      482000
 14213              	.LASF987:
 14214 fe9f 5F52414E 		.ascii	"_RAND48_SEED_0 (0x330e)\000"
 14214      4434385F 
 14214      53454544 
 14214      5F302028 
 14214      30783333 
 14215              	.LASF775:
 14216 feb7 50524969 		.ascii	"PRIi8 __PRI8(i)\000"
 14216      38205F5F 
 14216      50524938 
 14216      28692900 
 14217              	.LASF623:
 14218 fec7 5F415454 		.ascii	"_ATTRIBUTE(attrs) __attribute__ (attrs)\000"
 14218      52494255 
 14218      54452861 
 14218      74747273 
 14218      29205F5F 
 14219              	.LASF397:
 14220 feef 5F5F4152 		.ascii	"__ARM_SIZEOF_WCHAR_T 4\000"
 14220      4D5F5349 
ARM GAS  /tmp/ccKtbbXa.s 			page 379


 14220      5A454F46 
 14220      5F574348 
 14220      41525F54 
 14221              	.LASF308:
 14222 ff06 5F5F4C4C 		.ascii	"__LLACCUM_FBIT__ 31\000"
 14222      41434355 
 14222      4D5F4642 
 14222      49545F5F 
 14222      20333100 
 14223              	.LASF1159:
 14224 ff1a 5F5F7265 		.ascii	"__requires_shared(...) __lock_annotate(shared_locks"
 14224      71756972 
 14224      65735F73 
 14224      68617265 
 14224      64282E2E 
 14225 ff4d 5F726571 		.ascii	"_required(__VA_ARGS__))\000"
 14225      75697265 
 14225      64285F5F 
 14225      56415F41 
 14225      5247535F 
 14226              	.LASF1226:
 14227 ff65 444F5F50 		.ascii	"DO_PRAGMA(x) _Pragma (#x)\000"
 14227      5241474D 
 14227      41287829 
 14227      205F5072 
 14227      61676D61 
 14228              	.LASF646:
 14229 ff7f 494E5436 		.ascii	"INT64_MAX\000"
 14229      345F4D41 
 14229      5800
 14230              	.LASF1515:
 14231 ff89 4D41475F 		.ascii	"MAG_BFP_OF_REAL(_af) BFP_OF_REAL((_af), INT32_MAG_F"
 14231      4246505F 
 14231      4F465F52 
 14231      45414C28 
 14231      5F616629 
 14232 ffbc 52414329 		.ascii	"RAC)\000"
 14232      00
 14233              	.LASF1337:
 14234 ffc1 4C44424C 		.ascii	"LDBL_MIN\000"
 14234      5F4D494E 
 14234      00
 14235              	.LASF1486:
 14236 ffca 494E5433 		.ascii	"INT32_ANGLE_FRAC 12\000"
 14236      325F414E 
 14236      474C455F 
 14236      46524143 
 14236      20313200 
 14237              	.LASF663:
 14238 ffde 55494E54 		.ascii	"UINT_LEAST16_MAX __UINT_LEAST16_MAX__\000"
 14238      5F4C4541 
 14238      53543136 
 14238      5F4D4158 
 14238      205F5F55 
 14239              	.LASF82:
 14240 10004 5F5F4C4F 		.ascii	"__LONG_WIDTH__ 32\000"
 14240      4E475F57 
ARM GAS  /tmp/ccKtbbXa.s 			page 380


 14240      49445448 
 14240      5F5F2033 
 14240      3200
 14241              	.LASF1016:
 14242 10016 5F524545 		.ascii	"_REENT_MP_FREELIST(ptr) ((ptr)->_freelist)\000"
 14242      4E545F4D 
 14242      505F4652 
 14242      45454C49 
 14242      53542870 
 14243              	.LASF673:
 14244 10041 494E545F 		.ascii	"INT_LEAST64_MIN (-INT_LEAST64_MAX - 1)\000"
 14244      4C454153 
 14244      5436345F 
 14244      4D494E20 
 14244      282D494E 
 14245              	.LASF1084:
 14246 10068 5F5F7369 		.ascii	"__signed signed\000"
 14246      676E6564 
 14246      20736967 
 14246      6E656400 
 14247              	.LASF579:
 14248 10078 5F5F5353 		.ascii	"__SSP_FORTIFY_LEVEL 0\000"
 14248      505F464F 
 14248      52544946 
 14248      595F4C45 
 14248      56454C20 
 14249              	.LASF856:
 14250 1008e 53434E6F 		.ascii	"SCNoLEAST32 __SCN32LEAST(o)\000"
 14250      4C454153 
 14250      54333220 
 14250      5F5F5343 
 14250      4E33324C 
 14251              	.LASF559:
 14252 100aa 5F535953 		.ascii	"_SYS_FEATURES_H \000"
 14252      5F464541 
 14252      54555245 
 14252      535F4820 
 14252      00
 14253              	.LASF500:
 14254 100bb 54454D50 		.ascii	"TEMP_TEMOD_SDLOG TRUE\000"
 14254      5F54454D 
 14254      4F445F53 
 14254      444C4F47 
 14254      20545255 
 14255              	.LASF400:
 14256 100d1 5F5F6172 		.ascii	"__arm__ 1\000"
 14256      6D5F5F20 
 14256      3100
 14257              	.LASF714:
 14258 100db 50545244 		.ascii	"PTRDIFF_MIN\000"
 14258      4946465F 
 14258      4D494E00 
 14259              	.LASF1114:
 14260 100e7 5F5F7265 		.ascii	"__restrict restrict\000"
 14260      73747269 
 14260      63742072 
 14260      65737472 
ARM GAS  /tmp/ccKtbbXa.s 			page 381


 14260      69637400 
 14261              	.LASF645:
 14262 100fb 55494E54 		.ascii	"UINT32_MAX __UINT32_MAX__\000"
 14262      33325F4D 
 14262      4158205F 
 14262      5F55494E 
 14262      5433325F 
 14263              	.LASF750:
 14264 10115 5F5F6E65 		.ascii	"__need_wchar_t \000"
 14264      65645F77 
 14264      63686172 
 14264      5F742000 
 14265              	.LASF962:
 14266 10125 5F5F7369 		.ascii	"__size_t\000"
 14266      7A655F74 
 14266      00
 14267              	.LASF669:
 14268 1012e 55494E54 		.ascii	"UINT_LEAST32_MAX __UINT_LEAST32_MAX__\000"
 14268      5F4C4541 
 14268      53543332 
 14268      5F4D4158 
 14268      205F5F55 
 14269              	.LASF884:
 14270 10154 53434E64 		.ascii	"SCNdMAX __SCNMAX(d)\000"
 14270      4D415820 
 14270      5F5F5343 
 14270      4E4D4158 
 14270      28642900 
 14271              	.LASF1646:
 14272 10168 464C4F41 		.ascii	"FLOAT_QUAT_NORMALIZE(_q) WARNING(\"FLOAT_QUAT_NORMA"
 14272      545F5155 
 14272      41545F4E 
 14272      4F524D41 
 14272      4C495A45 
 14273 1019a 4C495A45 		.ascii	"LIZE macro is deprecated, use the lower case functi"
 14273      206D6163 
 14273      726F2069 
 14273      73206465 
 14273      70726563 
 14274 101cd 6F6E2069 		.ascii	"on instead\") float_quat_normalize(&(_q))\000"
 14274      6E737465 
 14274      61642229 
 14274      20666C6F 
 14274      61745F71 
 14275              	.LASF838:
 14276 101f6 50524969 		.ascii	"PRIi32 __PRI32(i)\000"
 14276      3332205F 
 14276      5F505249 
 14276      33322869 
 14276      2900
 14277              	.LASF1426:
 14278 10208 524D4154 		.ascii	"RMAT_DIFF(_c,_a,_b) { (_c).m[0] = (_a).m[0] - (_b)."
 14278      5F444946 
 14278      46285F63 
 14278      2C5F612C 
 14278      5F622920 
 14279 1023b 6D5B305D 		.ascii	"m[0]; (_c).m[1] = (_a).m[1] - (_b).m[1]; (_c).m[2] "
ARM GAS  /tmp/ccKtbbXa.s 			page 382


 14279      3B20285F 
 14279      63292E6D 
 14279      5B315D20 
 14279      3D20285F 
 14280 1026e 3D20285F 		.ascii	"= (_a).m[2] - (_b).m[2]; (_c).m[3] = (_a).m[3] - (_"
 14280      61292E6D 
 14280      5B325D20 
 14280      2D20285F 
 14280      62292E6D 
 14281 102a1 62292E6D 		.ascii	"b).m[3]; (_c).m[4] = (_a).m[4] - (_b).m[4]; (_c).m["
 14281      5B335D3B 
 14281      20285F63 
 14281      292E6D5B 
 14281      345D203D 
 14282 102d4 355D203D 		.ascii	"5] = (_a).m[5] - (_b).m[5]; (_c).m[6] = (_a).m[6] -"
 14282      20285F61 
 14282      292E6D5B 
 14282      355D202D 
 14282      20285F62 
 14283 10307 20285F62 		.ascii	" (_b).m[6]; (_c).m[7] = (_a).m[7] - (_b).m[7]; (_c)"
 14283      292E6D5B 
 14283      365D3B20 
 14283      285F6329 
 14283      2E6D5B37 
 14284 1033a 2E6D5B38 		.ascii	".m[8] = (_a).m[8] - (_b).m[8]; }\000"
 14284      5D203D20 
 14284      285F6129 
 14284      2E6D5B38 
 14284      5D202D20 
 14285              	.LASF624:
 14286 1035b 5F454C49 		.ascii	"_ELIDABLE_INLINE static __inline__\000"
 14286      4441424C 
 14286      455F494E 
 14286      4C494E45 
 14286      20737461 
 14287              	.LASF730:
 14288 1037e 494E5438 		.ascii	"INT8_C\000"
 14288      5F4300
 14289              	.LASF1307:
 14290 10385 4C44424C 		.ascii	"LDBL_MIN_10_EXP\000"
 14290      5F4D494E 
 14290      5F31305F 
 14290      45585000 
 14291              	.LASF1096:
 14292 10395 5F5F616C 		.ascii	"__alloc_align(x) __attribute__((__alloc_align__(x))"
 14292      6C6F635F 
 14292      616C6967 
 14292      6E287829 
 14292      205F5F61 
 14293 103c8 2900     		.ascii	")\000"
 14294              	.LASF901:
 14295 103ca 53434E78 		.ascii	"SCNxPTR __SCNPTR(x)\000"
 14295      50545220 
 14295      5F5F5343 
 14295      4E505452 
 14295      28782900 
 14296              	.LASF691:
ARM GAS  /tmp/ccKtbbXa.s 			page 383


 14297 103de 494E545F 		.ascii	"INT_FAST32_MIN (-INT_FAST32_MAX - 1)\000"
 14297      46415354 
 14297      33325F4D 
 14297      494E2028 
 14297      2D494E54 
 14298              	.LASF612:
 14299 10403 5F5F4641 		.ascii	"__FAST32 \000"
 14299      53543332 
 14299      2000
 14300              	.LASF937:
 14301 1040d 5F53495A 		.ascii	"_SIZET_ \000"
 14301      45545F20 
 14301      00
 14302              	.LASF41:
 14303 10416 5F5F494E 		.ascii	"__INT8_TYPE__ signed char\000"
 14303      54385F54 
 14303      5950455F 
 14303      5F207369 
 14303      676E6564 
 14304              	.LASF1525:
 14305 10430 494E545F 		.ascii	"INT_VECT3_ZERO(_v) VECT3_ASSIGN(_v, 0, 0, 0)\000"
 14305      56454354 
 14305      335F5A45 
 14305      524F285F 
 14305      76292056 
 14306              	.LASF1336:
 14307 1045d 44424C5F 		.ascii	"DBL_MIN\000"
 14307      4D494E00 
 14308              	.LASF361:
 14309 10465 5F5F4743 		.ascii	"__GCC_HAVE_SYNC_COMPARE_AND_SWAP_4 1\000"
 14309      435F4841 
 14309      56455F53 
 14309      594E435F 
 14309      434F4D50 
 14310              	.LASF1305:
 14311 1048a 464C545F 		.ascii	"FLT_MIN_10_EXP\000"
 14311      4D494E5F 
 14311      31305F45 
 14311      585000
 14312              	.LASF1749:
 14313 10499 64656C74 		.ascii	"delta\000"
 14313      6100
 14314              	.LASF1119:
 14315 1049f 5F5F6869 		.ascii	"__hidden __attribute__((__visibility__(\"hidden\"))"
 14315      6464656E 
 14315      205F5F61 
 14315      74747269 
 14315      62757465 
 14316 104d0 2900     		.ascii	")\000"
 14317              	.LASF1402:
 14318 104d2 52415445 		.ascii	"RATES_ADD_SCALED_VECT(_ro,_v,_s) { (_ro).p += (_v)."
 14318      535F4144 
 14318      445F5343 
 14318      414C4544 
 14318      5F564543 
 14319 10505 78202A20 		.ascii	"x * (_s); (_ro).q += (_v).y * (_s); (_ro).r += (_v)"
 14319      285F7329 
ARM GAS  /tmp/ccKtbbXa.s 			page 384


 14319      3B20285F 
 14319      726F292E 
 14319      71202B3D 
 14320 10538 2E7A202A 		.ascii	".z * (_s); }\000"
 14320      20285F73 
 14320      293B207D 
 14320      00
 14321              	.LASF910:
 14322 10545 5F535444 		.ascii	"_STDDEF_H_ \000"
 14322      4445465F 
 14322      485F2000 
 14323              	.LASF1437:
 14324 10551 52415445 		.ascii	"RATES_BFP_OF_REAL(_ri,_rf) { (_ri).p = RATE_BFP_OF_"
 14324      535F4246 
 14324      505F4F46 
 14324      5F524541 
 14324      4C285F72 
 14325 10584 5245414C 		.ascii	"REAL((_rf).p); (_ri).q = RATE_BFP_OF_REAL((_rf).q);"
 14325      28285F72 
 14325      66292E70 
 14325      293B2028 
 14325      5F726929 
 14326 105b7 20285F72 		.ascii	" (_ri).r = RATE_BFP_OF_REAL((_rf).r); }\000"
 14326      69292E72 
 14326      203D2052 
 14326      4154455F 
 14326      4246505F 
 14327              	.LASF569:
 14328 105df 5F415446 		.ascii	"_ATFILE_SOURCE 1\000"
 14328      494C455F 
 14328      534F5552 
 14328      43452031 
 14328      00
 14329              	.LASF581:
 14330 105f0 5F5F5241 		.ascii	"__RAND_MAX\000"
 14330      4E445F4D 
 14330      415800
 14331              	.LASF868:
 14332 105fb 53434E75 		.ascii	"SCNuFAST32 __SCN32FAST(u)\000"
 14332      46415354 
 14332      3332205F 
 14332      5F53434E 
 14332      33324641 
 14333              	.LASF1224:
 14334 10615 5F504F53 		.ascii	"_POSIX_ __fdlibm_posix\000"
 14334      49585F20 
 14334      5F5F6664 
 14334      6C69626D 
 14334      5F706F73 
 14335              	.LASF561:
 14336 1062c 5F5F474E 		.ascii	"__GNUC_PREREQ__(ma,mi) __GNUC_PREREQ(ma, mi)\000"
 14336      55435F50 
 14336      52455245 
 14336      515F5F28 
 14336      6D612C6D 
 14337              	.LASF291:
 14338 10659 5F5F4143 		.ascii	"__ACCUM_MAX__ 0X7FFFFFFFP-15K\000"
ARM GAS  /tmp/ccKtbbXa.s 			page 385


 14338      43554D5F 
 14338      4D41585F 
 14338      5F203058 
 14338      37464646 
 14339              	.LASF1425:
 14340 10677 524D4154 		.ascii	"RMAT_TRACE(_rm) (RMAT_ELMT(_rm, 0, 0)+RMAT_ELMT(_rm"
 14340      5F545241 
 14340      4345285F 
 14340      726D2920 
 14340      28524D41 
 14341 106aa 2C20312C 		.ascii	", 1, 1)+RMAT_ELMT(_rm, 2, 2))\000"
 14341      2031292B 
 14341      524D4154 
 14341      5F454C4D 
 14341      54285F72 
 14342              	.LASF425:
 14343 106c8 5F5F4152 		.ascii	"__ARM_PCS 1\000"
 14343      4D5F5043 
 14343      53203100 
 14344              	.LASF210:
 14345 106d4 5F5F464C 		.ascii	"__FLT64_MIN_EXP__ (-1021)\000"
 14345      5436345F 
 14345      4D494E5F 
 14345      4558505F 
 14345      5F20282D 
 14346              	.LASF839:
 14347 106ee 5052496F 		.ascii	"PRIo32 __PRI32(o)\000"
 14347      3332205F 
 14347      5F505249 
 14347      3332286F 
 14347      2900
 14348              	.LASF973:
 14349 10700 5F5F6C6F 		.ascii	"__lock_init(lock) ((void) 0)\000"
 14349      636B5F69 
 14349      6E697428 
 14349      6C6F636B 
 14349      29202828 
 14350              	.LASF1143:
 14351 1071d 5F4E756C 		.ascii	"_Nullable \000"
 14351      6C61626C 
 14351      652000
 14352              	.LASF222:
 14353 10728 5F5F464C 		.ascii	"__FLT64_HAS_QUIET_NAN__ 1\000"
 14353      5436345F 
 14353      4841535F 
 14353      51554945 
 14353      545F4E41 
 14354              	.LASF421:
 14355 10742 5F5F4152 		.ascii	"__ARM_NEON__\000"
 14355      4D5F4E45 
 14355      4F4E5F5F 
 14355      00
 14356              	.LASF1565:
 14357 1074f 494E545F 		.ascii	"INT_RATES_RSHIFT(_o,_i,_r) { (_o).p = ((_i).p >> (_"
 14357      52415445 
 14357      535F5253 
 14357      48494654 
ARM GAS  /tmp/ccKtbbXa.s 			page 386


 14357      285F6F2C 
 14358 10782 7229293B 		.ascii	"r)); (_o).q = ((_i).q >> (_r)); (_o).r = ((_i).r >>"
 14358      20285F6F 
 14358      292E7120 
 14358      3D202828 
 14358      5F69292E 
 14359 107b5 20285F72 		.ascii	" (_r)); }\000"
 14359      29293B20 
 14359      7D00
 14360              	.LASF621:
 14361 107bf 5F4E4F54 		.ascii	"_NOTHROW \000"
 14361      48524F57 
 14361      2000
 14362              	.LASF1073:
 14363 107c9 5F5F4343 		.ascii	"__CC_SUPPORTS___INLINE__ 1\000"
 14363      5F535550 
 14363      504F5254 
 14363      535F5F5F 
 14363      494E4C49 
 14364              	.LASF1457:
 14365 107e4 54524545 		.ascii	"TREE_BUF_12_2 2145\000"
 14365      5F425546 
 14365      5F31325F 
 14365      32203231 
 14365      343500
 14366              	.LASF1715:
 14367 107f7 4C6C6143 		.ascii	"LlaCoor_d\000"
 14367      6F6F725F 
 14367      6400
 14368              	.LASF1536:
 14369 10801 494E5433 		.ascii	"INT32_RMAT_VMULT(_vb,_m_a2b,_va) WARNING(\"INT32_RM"
 14369      325F524D 
 14369      41545F56 
 14369      4D554C54 
 14369      285F7662 
 14370 10833 41545F56 		.ascii	"AT_VMULT macro is deprecated, use the lower case fu"
 14370      4D554C54 
 14370      206D6163 
 14370      726F2069 
 14370      73206465 
 14371 10866 6E637469 		.ascii	"nction instead\") int32_rmat_vmult(&(_vb), &(_m_a2b"
 14371      6F6E2069 
 14371      6E737465 
 14371      61642229 
 14371      20696E74 
 14372 10898 292C2026 		.ascii	"), &(_va))\000"
 14372      285F7661 
 14372      292900
 14373              	.LASF1703:
 14374 108a3 4C6C6143 		.ascii	"LlaCoor_i\000"
 14374      6F6F725F 
 14374      6900
 14375              	.LASF628:
 14376 108ad 494E5438 		.ascii	"INT8_MAX\000"
 14376      5F4D4158 
 14376      00
 14377              	.LASF1513:
ARM GAS  /tmp/ccKtbbXa.s 			page 387


 14378 108b6 41434345 		.ascii	"ACCEL_BFP_OF_REAL(_af) BFP_OF_REAL((_af), INT32_ACC"
 14378      4C5F4246 
 14378      505F4F46 
 14378      5F524541 
 14378      4C285F61 
 14379 108e9 454C5F46 		.ascii	"EL_FRAC)\000"
 14379      52414329 
 14379      00
 14380              	.LASF1545:
 14381 108f2 494E5433 		.ascii	"INT32_QUAT_NORM(n,q) WARNING(\"INT32_QUAT_NORM macr"
 14381      325F5155 
 14381      41545F4E 
 14381      4F524D28 
 14381      6E2C7129 
 14382 10924 6F206973 		.ascii	"o is deprecated, use the lower case function instea"
 14382      20646570 
 14382      72656361 
 14382      7465642C 
 14382      20757365 
 14383 10957 64222920 		.ascii	"d\") { n = int32_quat_norm(&(q)); }\000"
 14383      7B206E20 
 14383      3D20696E 
 14383      7433325F 
 14383      71756174 
 14384              	.LASF1209:
 14385 1097a 4D5F325F 		.ascii	"M_2_SQRTPI 1.12837916709551257390\000"
 14385      53515254 
 14385      50492031 
 14385      2E313238 
 14385      33373931 
 14386              	.LASF762:
 14387 1099c 5F5F5F69 		.ascii	"___int_wchar_t_h \000"
 14387      6E745F77 
 14387      63686172 
 14387      5F745F68 
 14387      2000
 14388              	.LASF280:
 14389 109ae 5F5F5341 		.ascii	"__SACCUM_MIN__ (-0X1P7HK-0X1P7HK)\000"
 14389      4343554D 
 14389      5F4D494E 
 14389      5F5F2028 
 14389      2D305831 
 14390              	.LASF812:
 14391 109d0 50524975 		.ascii	"PRIuLEAST16 __PRI16LEAST(u)\000"
 14391      4C454153 
 14391      54313620 
 14391      5F5F5052 
 14391      4931364C 
 14392              	.LASF1268:
 14393 109ec 426F756E 		.ascii	"BoundWrapped(_x,_min,_max) { if ((_max) > (_min)) B"
 14393      64577261 
 14393      70706564 
 14393      285F782C 
 14393      5F6D696E 
 14394 10a1f 6F756E64 		.ascii	"ound(_x, _min, _max) else BoundInverted(_x, _min, _"
 14394      285F782C 
 14394      205F6D69 
ARM GAS  /tmp/ccKtbbXa.s 			page 388


 14394      6E2C205F 
 14394      6D617829 
 14395 10a52 6D617829 		.ascii	"max) }\000"
 14395      207D00
 14396              	.LASF996:
 14397 10a59 5F524545 		.ascii	"_REENT_SIGNAL_SIZE 24\000"
 14397      4E545F53 
 14397      49474E41 
 14397      4C5F5349 
 14397      5A452032 
 14398              	.LASF724:
 14399 10a6f 57434841 		.ascii	"WCHAR_MIN\000"
 14399      525F4D49 
 14399      4E00
 14400              	.LASF225:
 14401 10a79 5F5F464C 		.ascii	"__FLT32X_MIN_EXP__ (-1021)\000"
 14401      54333258 
 14401      5F4D494E 
 14401      5F455850 
 14401      5F5F2028 
 14402              	.LASF1568:
 14403 10a94 494E5433 		.ascii	"INT32_RATES_OF_EULERS_DOT_321(_r,_e,_ed) WARNING(\""
 14403      325F5241 
 14403      5445535F 
 14403      4F465F45 
 14403      554C4552 
 14404 10ac6 494E5433 		.ascii	"INT32_RATES_OF_EULERS_DOT_321 macro is deprecated, "
 14404      325F5241 
 14404      5445535F 
 14404      4F465F45 
 14404      554C4552 
 14405 10af9 75736520 		.ascii	"use the lower case function instead\") int32_rates_"
 14405      74686520 
 14405      6C6F7765 
 14405      72206361 
 14405      73652066 
 14406 10b2b 6F665F65 		.ascii	"of_eulers_dot_321(&(_r), &(_e), &(_ed))\000"
 14406      756C6572 
 14406      735F646F 
 14406      745F3332 
 14406      31282628 
 14407              	.LASF531:
 14408 10b53 4E45445F 		.ascii	"NED_OF_UTM_DIFF(_pos,_utm1,_utm2) { (_pos).x = (_ut"
 14408      4F465F55 
 14408      544D5F44 
 14408      49464628 
 14408      5F706F73 
 14409 10b86 6D31292E 		.ascii	"m1).north - (_utm2).north; (_pos).y = (_utm1).east "
 14409      6E6F7274 
 14409      68202D20 
 14409      285F7574 
 14409      6D32292E 
 14410 10bb9 2D20285F 		.ascii	"- (_utm2).east; (_pos).z = -(_utm1).alt + (_utm2).a"
 14410      75746D32 
 14410      292E6561 
 14410      73743B20 
 14410      285F706F 
ARM GAS  /tmp/ccKtbbXa.s 			page 389


 14411 10bec 6C743B20 		.ascii	"lt; }\000"
 14411      7D00
 14412              	.LASF1221:
 14413 10bf2 5F4C4942 		.ascii	"_LIB_VERSION_TYPE enum __fdlibm_version\000"
 14413      5F564552 
 14413      53494F4E 
 14413      5F545950 
 14413      4520656E 
 14414              	.LASF917:
 14415 10c1a 5F425344 		.ascii	"_BSD_PTRDIFF_T_ \000"
 14415      5F505452 
 14415      44494646 
 14415      5F545F20 
 14415      00
 14416              	.LASF756:
 14417 10c2b 5F5F5743 		.ascii	"__WCHAR_T \000"
 14417      4841525F 
 14417      542000
 14418              	.LASF980:
 14419 10c36 5F5F6C6F 		.ascii	"__lock_try_acquire_recursive(lock) ((void) 0)\000"
 14419      636B5F74 
 14419      72795F61 
 14419      63717569 
 14419      72655F72 
 14420              	.LASF1074:
 14421 10c64 5F5F4343 		.ascii	"__CC_SUPPORTS___FUNC__ 1\000"
 14421      5F535550 
 14421      504F5254 
 14421      535F5F5F 
 14421      46554E43 
 14422              	.LASF873:
 14423 10c7d 5F5F5343 		.ascii	"__SCN64LEAST(x) __LEAST64 __STRINGIFY(x)\000"
 14423      4E36344C 
 14423      45415354 
 14423      28782920 
 14423      5F5F4C45 
 14424              	.LASF978:
 14425 10ca6 5F5F6C6F 		.ascii	"__lock_acquire_recursive(lock) ((void) 0)\000"
 14425      636B5F61 
 14425      63717569 
 14425      72655F72 
 14425      65637572 
 14426              	.LASF398:
 14427 10cd0 5F5F4152 		.ascii	"__ARM_ARCH_PROFILE\000"
 14427      4D5F4152 
 14427      43485F50 
 14427      524F4649 
 14427      4C4500
 14428              	.LASF1405:
 14429 10ce3 4D415433 		.ascii	"MAT33_MULT_SCALAR(_mat1,_scalar) { MAT33_ELMT((_mat"
 14429      335F4D55 
 14429      4C545F53 
 14429      43414C41 
 14429      52285F6D 
 14430 10d16 31292C30 		.ascii	"1),0,0) = MAT33_ELMT((_mat1),0,0)*_scalar; MAT33_EL"
 14430      2C302920 
 14430      3D204D41 
ARM GAS  /tmp/ccKtbbXa.s 			page 390


 14430      5433335F 
 14430      454C4D54 
 14431 10d49 4D542828 		.ascii	"MT((_mat1),0,1) = MAT33_ELMT((_mat1),0,1)*_scalar; "
 14431      5F6D6174 
 14431      31292C30 
 14431      2C312920 
 14431      3D204D41 
 14432 10d7c 4D415433 		.ascii	"MAT33_ELMT((_mat1),0,2) = MAT33_ELMT((_mat1),0,2)*_"
 14432      335F454C 
 14432      4D542828 
 14432      5F6D6174 
 14432      31292C30 
 14433 10daf 7363616C 		.ascii	"scalar; MAT33_ELMT((_mat1),1,0) = MAT33_ELMT((_mat1"
 14433      61723B20 
 14433      4D415433 
 14433      335F454C 
 14433      4D542828 
 14434 10de2 292C312C 		.ascii	"),1,0)*_scalar; MAT33_ELMT((_mat1),1,1) = MAT33_ELM"
 14434      30292A5F 
 14434      7363616C 
 14434      61723B20 
 14434      4D415433 
 14435 10e15 5428285F 		.ascii	"T((_mat1),1,1)*_scalar; MAT33_ELMT((_mat1),1,2) = M"
 14435      6D617431 
 14435      292C312C 
 14435      31292A5F 
 14435      7363616C 
 14436 10e48 41543333 		.ascii	"AT33_ELMT((_mat1),1,2)*_scalar; MAT33_ELMT((_mat1),"
 14436      5F454C4D 
 14436      5428285F 
 14436      6D617431 
 14436      292C312C 
 14437 10e7b 322C3029 		.ascii	"2,0) = MAT33_ELMT((_mat1),2,0)*_scalar; MAT33_ELMT("
 14437      203D204D 
 14437      41543333 
 14437      5F454C4D 
 14437      5428285F 
 14438 10eae 285F6D61 		.ascii	"(_mat1),2,1) = MAT33_ELMT((_mat1),2,1)*_scalar; MAT"
 14438      7431292C 
 14438      322C3129 
 14438      203D204D 
 14438      41543333 
 14439 10ee1 33335F45 		.ascii	"33_ELMT((_mat1),2,2) = MAT33_ELMT((_mat1),2,2)*_sca"
 14439      4C4D5428 
 14439      285F6D61 
 14439      7431292C 
 14439      322C3229 
 14440 10f14 6C61723B 		.ascii	"lar; }\000"
 14440      207D00
 14441              	.LASF299:
 14442 10f1b 5F5F4C41 		.ascii	"__LACCUM_IBIT__ 32\000"
 14442      4343554D 
 14442      5F494249 
 14442      545F5F20 
 14442      333200
 14443              	.LASF816:
 14444 10f2e 53434E69 		.ascii	"SCNiLEAST16 __SCN16LEAST(i)\000"
ARM GAS  /tmp/ccKtbbXa.s 			page 391


 14444      4C454153 
 14444      54313620 
 14444      5F5F5343 
 14444      4E31364C 
 14445              	.LASF565:
 14446 10f4a 5F504F53 		.ascii	"_POSIX_SOURCE 1\000"
 14446      49585F53 
 14446      4F555243 
 14446      45203100 
 14447              	.LASF108:
 14448 10f5a 5F5F494E 		.ascii	"__INT16_C(c) c\000"
 14448      5431365F 
 14448      43286329 
 14448      206300
 14449              	.LASF1412:
 14450 10f69 4D415433 		.ascii	"MAT33_MAT33_SUM(_mat1,_mat2,_mat3) { MAT33_ELMT((_m"
 14450      335F4D41 
 14450      5433335F 
 14450      53554D28 
 14450      5F6D6174 
 14451 10f9c 61743129 		.ascii	"at1),0,0) = MAT33_ELMT((_mat2),0,0)+MAT33_ELMT((_ma"
 14451      2C302C30 
 14451      29203D20 
 14451      4D415433 
 14451      335F454C 
 14452 10fcf 7433292C 		.ascii	"t3),0,0); MAT33_ELMT((_mat1),0,1) = MAT33_ELMT((_ma"
 14452      302C3029 
 14452      3B204D41 
 14452      5433335F 
 14452      454C4D54 
 14453 11002 7432292C 		.ascii	"t2),0,1)+MAT33_ELMT((_mat3),0,1); MAT33_ELMT((_mat1"
 14453      302C3129 
 14453      2B4D4154 
 14453      33335F45 
 14453      4C4D5428 
 14454 11035 292C302C 		.ascii	"),0,2) = MAT33_ELMT((_mat2),0,2)+MAT33_ELMT((_mat3)"
 14454      3229203D 
 14454      204D4154 
 14454      33335F45 
 14454      4C4D5428 
 14455 11068 2C302C32 		.ascii	",0,2); MAT33_ELMT((_mat1),1,0) = MAT33_ELMT((_mat2)"
 14455      293B204D 
 14455      41543333 
 14455      5F454C4D 
 14455      5428285F 
 14456 1109b 2C312C30 		.ascii	",1,0)+MAT33_ELMT((_mat3),1,0); MAT33_ELMT((_mat1),1"
 14456      292B4D41 
 14456      5433335F 
 14456      454C4D54 
 14456      28285F6D 
 14457 110ce 2C312920 		.ascii	",1) = MAT33_ELMT((_mat2),1,1)+MAT33_ELMT((_mat3),1,"
 14457      3D204D41 
 14457      5433335F 
 14457      454C4D54 
 14457      28285F6D 
 14458 11101 31293B20 		.ascii	"1); MAT33_ELMT((_mat1),1,2) = MAT33_ELMT((_mat2),1,"
 14458      4D415433 
ARM GAS  /tmp/ccKtbbXa.s 			page 392


 14458      335F454C 
 14458      4D542828 
 14458      5F6D6174 
 14459 11134 32292B4D 		.ascii	"2)+MAT33_ELMT((_mat3),1,2); MAT33_ELMT((_mat1),2,0)"
 14459      41543333 
 14459      5F454C4D 
 14459      5428285F 
 14459      6D617433 
 14460 11167 203D204D 		.ascii	" = MAT33_ELMT((_mat2),2,0)+MAT33_ELMT((_mat3),2,0);"
 14460      41543333 
 14460      5F454C4D 
 14460      5428285F 
 14460      6D617432 
 14461 1119a 204D4154 		.ascii	" MAT33_ELMT((_mat1),2,1) = MAT33_ELMT((_mat2),2,1)+"
 14461      33335F45 
 14461      4C4D5428 
 14461      285F6D61 
 14461      7431292C 
 14462 111cd 4D415433 		.ascii	"MAT33_ELMT((_mat3),2,1); MAT33_ELMT((_mat1),2,2) = "
 14462      335F454C 
 14462      4D542828 
 14462      5F6D6174 
 14462      33292C32 
 14463 11200 4D415433 		.ascii	"MAT33_ELMT((_mat2),2,2)+MAT33_ELMT((_mat3),2,2); }\000"
 14463      335F454C 
 14463      4D542828 
 14463      5F6D6174 
 14463      32292C32 
 14464              	.LASF821:
 14465 11233 50524969 		.ascii	"PRIiFAST16 __PRI16FAST(i)\000"
 14465      46415354 
 14465      3136205F 
 14465      5F505249 
 14465      31364641 
 14466              	.LASF918:
 14467 1124d 5F5F5F69 		.ascii	"___int_ptrdiff_t_h \000"
 14467      6E745F70 
 14467      74726469 
 14467      66665F74 
 14467      5F682000 
 14468              	.LASF636:
 14469 11261 494E5431 		.ascii	"INT16_MIN\000"
 14469      365F4D49 
 14469      4E00
 14470              	.LASF521:
 14471 1126b 5448554D 		.ascii	"THUMB 1\000"
 14471      42203100 
 14472              	.LASF1176:
 14473 11273 46505F53 		.ascii	"FP_SUBNORMAL 3\000"
 14473      55424E4F 
 14473      524D414C 
 14473      203300
 14474              	.LASF725:
 14475 11282 57434841 		.ascii	"WCHAR_MIN __WCHAR_MIN__\000"
 14475      525F4D49 
 14475      4E205F5F 
 14475      57434841 
ARM GAS  /tmp/ccKtbbXa.s 			page 393


 14475      525F4D49 
 14476              	.LASF1418:
 14477 1129a 51554154 		.ascii	"QUAT_SMUL(_qo,_qi,_s) { (_qo).qi = (_qi).qi * (_s);"
 14477      5F534D55 
 14477      4C285F71 
 14477      6F2C5F71 
 14477      692C5F73 
 14478 112cd 20285F71 		.ascii	" (_qo).qx = (_qi).qx * (_s); (_qo).qy = (_qi).qy * "
 14478      6F292E71 
 14478      78203D20 
 14478      285F7169 
 14478      292E7178 
 14479 11300 285F7329 		.ascii	"(_s); (_qo).qz = (_qi).qz * (_s); }\000"
 14479      3B20285F 
 14479      716F292E 
 14479      717A203D 
 14479      20285F71 
 14480              	.LASF1047:
 14481 11324 5F5F6174 		.ascii	"__attribute_format_strfmon__(a,b) \000"
 14481      74726962 
 14481      7574655F 
 14481      666F726D 
 14481      61745F73 
 14482              	.LASF1697:
 14483 11347 6C6F6E67 		.ascii	"long long unsigned int\000"
 14483      206C6F6E 
 14483      6720756E 
 14483      7369676E 
 14483      65642069 
 14484              	.LASF1750:
 14485 1135e 6C74705F 		.ascii	"ltp_def_from_lla_i\000"
 14485      6465665F 
 14485      66726F6D 
 14485      5F6C6C61 
 14485      5F6900
 14486              	.LASF516:
 14487 11371 5553455F 		.ascii	"USE_UART1 1\000"
 14487      55415254 
 14487      31203100 
 14488              	.LASF705:
 14489 1137d 55494E54 		.ascii	"UINTPTR_MAX __UINTPTR_MAX__\000"
 14489      5054525F 
 14489      4D415820 
 14489      5F5F5549 
 14489      4E545054 
 14490              	.LASF629:
 14491 11399 494E5438 		.ascii	"INT8_MAX __INT8_MAX__\000"
 14491      5F4D4158 
 14491      205F5F49 
 14491      4E54385F 
 14491      4D41585F 
 14492              	.LASF952:
 14493 113af 5F5F6861 		.ascii	"__have_long32 1\000"
 14493      76655F6C 
 14493      6F6E6733 
 14493      32203100 
 14494              	.LASF1473:
ARM GAS  /tmp/ccKtbbXa.s 			page 394


 14495 113bf 73747274 		.ascii	"strtodf strtof\000"
 14495      6F646620 
 14495      73747274 
 14495      6F6600
 14496              	.LASF100:
 14497 113ce 5F5F5549 		.ascii	"__UINT8_MAX__ 0xff\000"
 14497      4E54385F 
 14497      4D41585F 
 14497      5F203078 
 14497      666600
 14498              	.LASF534:
 14499 113e1 5354445F 		.ascii	"STD_H \000"
 14499      482000
 14500              	.LASF1262:
 14501 113e8 4C657373 		.ascii	"LessThan(_x,_y) ((_x) < (_y))\000"
 14501      5468616E 
 14501      285F782C 
 14501      5F792920 
 14501      28285F78 
 14502              	.LASF1450:
 14503 11406 54524545 		.ascii	"TREE_SIZE_4 (TRIG_INT_VAL_MAX - 4)\000"
 14503      5F53495A 
 14503      455F3420 
 14503      28545249 
 14503      475F494E 
 14504              	.LASF512:
 14505 11429 5553455F 		.ascii	"USE_I2C2 1\000"
 14505      49324332 
 14505      203100
 14506              	.LASF1549:
 14507 11434 494E5433 		.ascii	"INT32_QUAT_COMP_INV(_a2b,_a2c,_b2c) WARNING(\"INT32"
 14507      325F5155 
 14507      41545F43 
 14507      4F4D505F 
 14507      494E5628 
 14508 11466 5F515541 		.ascii	"_QUAT_COMP_INV macro is deprecated, use the lower c"
 14508      545F434F 
 14508      4D505F49 
 14508      4E56206D 
 14508      6163726F 
 14509 11499 61736520 		.ascii	"ase function instead\") int32_quat_comp_inv(&(_a2b)"
 14509      66756E63 
 14509      74696F6E 
 14509      20696E73 
 14509      74656164 
 14510 114cb 2C202628 		.ascii	", &(_a2c), &(_b2c))\000"
 14510      5F613263 
 14510      292C2026 
 14510      285F6232 
 14510      63292900 
 14511              	.LASF1615:
 14512 114df 464C4F41 		.ascii	"FLOAT_VECT3_NORM(_v) sqrtf(VECT3_NORM2(_v))\000"
 14512      545F5645 
 14512      4354335F 
 14512      4E4F524D 
 14512      285F7629 
 14513              	.LASF1574:
ARM GAS  /tmp/ccKtbbXa.s 			page 395


 14514 1150b 4D4D5F4F 		.ascii	"MM_OF_M(_m) ((_m)*1e3)\000"
 14514      465F4D28 
 14514      5F6D2920 
 14514      28285F6D 
 14514      292A3165 
 14515              	.LASF1401:
 14516 11522 52415445 		.ascii	"RATES_BOUND_BOX_ABS(_v,_v_max) { if ((_v).p > (_v_m"
 14516      535F424F 
 14516      554E445F 
 14516      424F585F 
 14516      41425328 
 14517 11555 6178292E 		.ascii	"ax).p) (_v).p = (_v_max).p; else if ((_v).p < -(_v_"
 14517      70292028 
 14517      5F76292E 
 14517      70203D20 
 14517      285F765F 
 14518 11588 6D617829 		.ascii	"max).p) (_v).p = -(_v_max).p; if ((_v).q > (_v_max)"
 14518      2E702920 
 14518      285F7629 
 14518      2E70203D 
 14518      202D285F 
 14519 115bb 2E712920 		.ascii	".q) (_v).q = (_v_max).q; else if ((_v).q < -(_v_max"
 14519      285F7629 
 14519      2E71203D 
 14519      20285F76 
 14519      5F6D6178 
 14520 115ee 292E7129 		.ascii	").q) (_v).q = -(_v_max).q; if ((_v).r > (_v_max).r)"
 14520      20285F76 
 14520      292E7120 
 14520      3D202D28 
 14520      5F765F6D 
 14521 11621 20285F76 		.ascii	" (_v).r = (_v_max).r; else if ((_v).r < -(_v_max).r"
 14521      292E7220 
 14521      3D20285F 
 14521      765F6D61 
 14521      78292E72 
 14522 11654 2920285F 		.ascii	") (_v).r = -(_v_max).r; }\000"
 14522      76292E72 
 14522      203D202D 
 14522      285F765F 
 14522      6D617829 
 14523              	.LASF501:
 14524 1166e 55415254 		.ascii	"UART1_BAUD B57600\000"
 14524      315F4241 
 14524      55442042 
 14524      35373630 
 14524      3000
 14525              	.LASF1027:
 14526 11680 5F524545 		.ascii	"_REENT_WCRTOMB_STATE(ptr) ((ptr)->_new._reent._wcrt"
 14526      4E545F57 
 14526      4352544F 
 14526      4D425F53 
 14526      54415445 
 14527 116b3 6F6D625F 		.ascii	"omb_state)\000"
 14527      73746174 
 14527      652900
 14528              	.LASF939:
ARM GAS  /tmp/ccKtbbXa.s 			page 396


 14529 116be 5F5F6E65 		.ascii	"__need_size_t\000"
 14529      65645F73 
 14529      697A655F 
 14529      7400
 14530              	.LASF1054:
 14531 116cc 5F5F4245 		.ascii	"__BEGIN_DECLS \000"
 14531      47494E5F 
 14531      4445434C 
 14531      532000
 14532              	.LASF1179:
 14533 116db 46505F49 		.ascii	"FP_ILOGBNAN __INT_MAX__\000"
 14533      4C4F4742 
 14533      4E414E20 
 14533      5F5F494E 
 14533      545F4D41 
 14534              	.LASF533:
 14535 116f3 55544D5F 		.ascii	"UTM_OF_NED_ADD(_utm,_pos,_utm0) { (_utm).east = (_u"
 14535      4F465F4E 
 14535      45445F41 
 14535      4444285F 
 14535      75746D2C 
 14536 11726 746D3029 		.ascii	"tm0).east + (_pos).y; (_utm).north = (_utm0).north "
 14536      2E656173 
 14536      74202B20 
 14536      285F706F 
 14536      73292E79 
 14537 11759 2B20285F 		.ascii	"+ (_pos).x; (_utm).alt = (_utm0).alt - (_pos).z; }\000"
 14537      706F7329 
 14537      2E783B20 
 14537      285F7574 
 14537      6D292E61 
 14538              	.LASF1320:
 14539 1178c 464C545F 		.ascii	"FLT_MAX_10_EXP __FLT_MAX_10_EXP__\000"
 14539      4D41585F 
 14539      31305F45 
 14539      5850205F 
 14539      5F464C54 
 14540              	.LASF986:
 14541 117ae 5F524545 		.ascii	"_REENT_SMALL_CHECK_INIT(ptr) \000"
 14541      4E545F53 
 14541      4D414C4C 
 14541      5F434845 
 14541      434B5F49 
 14542              	.LASF686:
 14543 117cc 55494E54 		.ascii	"UINT_FAST16_MAX\000"
 14543      5F464153 
 14543      5431365F 
 14543      4D415800 
 14544              	.LASF214:
 14545 117dc 5F5F464C 		.ascii	"__FLT64_DECIMAL_DIG__ 17\000"
 14545      5436345F 
 14545      44454349 
 14545      4D414C5F 
 14545      4449475F 
 14546              	.LASF138:
 14547 117f5 5F5F5549 		.ascii	"__UINTPTR_MAX__ 0xffffffffU\000"
 14547      4E545054 
ARM GAS  /tmp/ccKtbbXa.s 			page 397


 14547      525F4D41 
 14547      585F5F20 
 14547      30786666 
 14548              	.LASF387:
 14549 11811 5F5F4152 		.ascii	"__ARM_FEATURE_COMPLEX\000"
 14549      4D5F4645 
 14549      41545552 
 14549      455F434F 
 14549      4D504C45 
 14550              	.LASF497:
 14551 11827 5359535F 		.ascii	"SYS_TIME_LED 1\000"
 14551      54494D45 
 14551      5F4C4544 
 14551      203100
 14552              	.LASF510:
 14553 11836 5553455F 		.ascii	"USE_HARD_FAULT_RECOVERY TRUE\000"
 14553      48415244 
 14553      5F464155 
 14553      4C545F52 
 14553      45434F56 
 14554              	.LASF1584:
 14555 11853 56454354 		.ascii	"VECT3_NED_OF_ENU(_o,_i) VECT3_ENU_OF_NED(_o,_i)\000"
 14555      335F4E45 
 14555      445F4F46 
 14555      5F454E55 
 14555      285F6F2C 
 14556              	.LASF495:
 14557 11883 5348545F 		.ascii	"SHT_SCK_GPIO GPIOC,GPIO5\000"
 14557      53434B5F 
 14557      4750494F 
 14557      20475049 
 14557      4F432C47 
 14558              	.LASF1725:
 14559 1189c 6F75745F 		.ascii	"out_d\000"
 14559      6400
 14560              	.LASF14:
 14561 118a2 5F5F4154 		.ascii	"__ATOMIC_CONSUME 1\000"
 14561      4F4D4943 
 14561      5F434F4E 
 14561      53554D45 
 14561      203100
 14562              	.LASF1089:
 14563 118b5 5F5F756E 		.ascii	"__unused __attribute__((__unused__))\000"
 14563      75736564 
 14563      205F5F61 
 14563      74747269 
 14563      62757465 
 14564              	.LASF154:
 14565 118da 5F5F464C 		.ascii	"__FLT_MIN__ 1.1754943508222875e-38F\000"
 14565      545F4D49 
 14565      4E5F5F20 
 14565      312E3137 
 14565      35343934 
 14566              	.LASF50:
 14567 118fe 5F5F494E 		.ascii	"__INT_LEAST16_TYPE__ short int\000"
 14567      545F4C45 
 14567      41535431 
ARM GAS  /tmp/ccKtbbXa.s 			page 398


 14567      365F5459 
 14567      50455F5F 
 14568              	.LASF454:
 14569 1191d 43485F44 		.ascii	"CH_DBG_ENABLE_CHECKS TRUE\000"
 14569      42475F45 
 14569      4E41424C 
 14569      455F4348 
 14569      45434B53 
 14570              	.LASF1682:
 14571 11937 41203633 		.ascii	"A 6378137.0\000"
 14571      37383133 
 14571      372E3000 
 14572              	.LASF56:
 14573 11943 5F5F5549 		.ascii	"__UINT_LEAST64_TYPE__ long long unsigned int\000"
 14573      4E545F4C 
 14573      45415354 
 14573      36345F54 
 14573      5950455F 
 14574              	.LASF1151:
 14575 11970 5F5F6C6F 		.ascii	"__locks_exclusive(...) __lock_annotate(exclusive_lo"
 14575      636B735F 
 14575      6578636C 
 14575      75736976 
 14575      65282E2E 
 14576 119a3 636B5F66 		.ascii	"ck_function(__VA_ARGS__))\000"
 14576      756E6374 
 14576      696F6E28 
 14576      5F5F5641 
 14576      5F415247 
 14577              	.LASF1520:
 14578 119bd 494E5433 		.ascii	"INT32_VECT2_NORM(_v) int32_sqrt(VECT2_NORM2(_v))\000"
 14578      325F5645 
 14578      4354325F 
 14578      4E4F524D 
 14578      285F7629 
 14579              	.LASF641:
 14580 119ee 494E5433 		.ascii	"INT32_MAX __INT32_MAX__\000"
 14580      325F4D41 
 14580      58205F5F 
 14580      494E5433 
 14580      325F4D41 
 14581              	.LASF1534:
 14582 11a06 494E5433 		.ascii	"INT32_RMAT_COMP(_m_a2c,_m_a2b,_m_b2c) WARNING(\"INT"
 14582      325F524D 
 14582      41545F43 
 14582      4F4D5028 
 14582      5F6D5F61 
 14583 11a38 33325F52 		.ascii	"32_RMAT_COMP macro is deprecated, use the lower cas"
 14583      4D41545F 
 14583      434F4D50 
 14583      206D6163 
 14583      726F2069 
 14584 11a6b 65206675 		.ascii	"e function instead\") int32_rmat_comp(&(_m_a2c), &("
 14584      6E637469 
 14584      6F6E2069 
 14584      6E737465 
 14584      61642229 
ARM GAS  /tmp/ccKtbbXa.s 			page 399


 14585 11a9d 5F6D5F61 		.ascii	"_m_a2b), &(_m_b2c))\000"
 14585      3262292C 
 14585      2026285F 
 14585      6D5F6232 
 14585      63292900 
 14586              	.LASF1485:
 14587 11ab1 494E5433 		.ascii	"INT32_QUAT_FRAC 15\000"
 14587      325F5155 
 14587      41545F46 
 14587      52414320 
 14587      313500
 14588              	.LASF243:
 14589 11ac4 5F5F5553 		.ascii	"__USFRACT_FBIT__ 8\000"
 14589      46524143 
 14589      545F4642 
 14589      49545F5F 
 14589      203800
 14590              	.LASF468:
 14591 11ad7 4749545F 		.ascii	"GIT_DESC v6.4.0_stable\000"
 14591      44455343 
 14591      2076362E 
 14591      342E305F 
 14591      73746162 
 14592              	.LASF1362:
 14593 11aee 56454354 		.ascii	"VECT3_COPY(_a,_b) { (_a).x = (_b).x; (_a).y = (_b)."
 14593      335F434F 
 14593      5059285F 
 14593      612C5F62 
 14593      29207B20 
 14594 11b21 793B2028 		.ascii	"y; (_a).z = (_b).z; }\000"
 14594      5F61292E 
 14594      7A203D20 
 14594      285F6229 
 14594      2E7A3B20 
 14595              	.LASF1753:
 14596 11b37 73696E5F 		.ascii	"sin_lat\000"
 14596      6C617400 
 14597              	.LASF366:
 14598 11b3f 5F5F4743 		.ascii	"__GCC_ATOMIC_WCHAR_T_LOCK_FREE 2\000"
 14598      435F4154 
 14598      4F4D4943 
 14598      5F574348 
 14598      41525F54 
 14599              	.LASF268:
 14600 11b60 5F5F4C4C 		.ascii	"__LLFRACT_FBIT__ 63\000"
 14600      46524143 
 14600      545F4642 
 14600      49545F5F 
 14600      20363300 
 14601              	.LASF1505:
 14602 11b74 51554154 		.ascii	"QUAT1_BFP_OF_REAL(_qf) BFP_OF_REAL((_qf), INT32_QUA"
 14602      315F4246 
 14602      505F4F46 
 14602      5F524541 
 14602      4C285F71 
 14603 11ba7 545F4652 		.ascii	"T_FRAC)\000"
 14603      41432900 
ARM GAS  /tmp/ccKtbbXa.s 			page 400


 14604              	.LASF1713:
 14605 11baf 686D736C 		.ascii	"hmsl\000"
 14605      00
 14606              	.LASF732:
 14607 11bb4 494E5431 		.ascii	"INT16_C\000"
 14607      365F4300 
 14608              	.LASF1315:
 14609 11bbc 44424C5F 		.ascii	"DBL_MAX_EXP __DBL_MAX_EXP__\000"
 14609      4D41585F 
 14609      45585020 
 14609      5F5F4442 
 14609      4C5F4D41 
 14610              	.LASF877:
 14611 11bd8 5F5F5343 		.ascii	"__SCNMAX(x) __STRINGIFY(x)\000"
 14611      4E4D4158 
 14611      28782920 
 14611      5F5F5354 
 14611      52494E47 
 14612              	.LASF795:
 14613 11bf3 5F5F5343 		.ascii	"__SCN16(x) __INT16 __STRINGIFY(x)\000"
 14613      4E313628 
 14613      7829205F 
 14613      5F494E54 
 14613      3136205F 
 14614              	.LASF1605:
 14615 11c15 55544D5F 		.ascii	"UTM_FLOAT_OF_BFP(_o,_i) { (_o).east = M_OF_CM((floa"
 14615      464C4F41 
 14615      545F4F46 
 14615      5F424650 
 14615      285F6F2C 
 14616 11c48 7429285F 		.ascii	"t)(_i).east); (_o).north = M_OF_CM((float)(_i).nort"
 14616      69292E65 
 14616      61737429 
 14616      3B20285F 
 14616      6F292E6E 
 14617 11c7b 68293B20 		.ascii	"h); (_o).alt = M_OF_MM((float)(_i).alt); (_o).zone "
 14617      285F6F29 
 14617      2E616C74 
 14617      203D204D 
 14617      5F4F465F 
 14618 11cae 3D20285F 		.ascii	"= (_i).zone; }\000"
 14618      69292E7A 
 14618      6F6E653B 
 14618      207D00
 14619              	.LASF955:
 14620 11cbd 5F5F5F69 		.ascii	"___int32_t_defined 1\000"
 14620      6E743332 
 14620      5F745F64 
 14620      6566696E 
 14620      65642031 
 14621              	.LASF874:
 14622 11cd2 5F5F5052 		.ascii	"__PRI64FAST(x) __FAST64 __STRINGIFY(x)\000"
 14622      49363446 
 14622      41535428 
 14622      7829205F 
 14622      5F464153 
 14623              	.LASF598:
ARM GAS  /tmp/ccKtbbXa.s 			page 401


 14624 11cf9 63686172 		.ascii	"char +0\000"
 14624      202B3000 
 14625              	.LASF237:
 14626 11d01 5F5F464C 		.ascii	"__FLT32X_HAS_QUIET_NAN__ 1\000"
 14626      54333258 
 14626      5F484153 
 14626      5F515549 
 14626      45545F4E 
 14627              	.LASF568:
 14628 11d1c 5F415446 		.ascii	"_ATFILE_SOURCE\000"
 14628      494C455F 
 14628      534F5552 
 14628      434500
 14629              	.LASF262:
 14630 11d2b 5F5F4C46 		.ascii	"__LFRACT_EPSILON__ 0x1P-31LR\000"
 14630      52414354 
 14630      5F455053 
 14630      494C4F4E 
 14630      5F5F2030 
 14631              	.LASF834:
 14632 11d48 5F5F5343 		.ascii	"__SCN32LEAST(x) __LEAST32 __STRINGIFY(x)\000"
 14632      4E33324C 
 14632      45415354 
 14632      28782920 
 14632      5F5F4C45 
 14633              	.LASF55:
 14634 11d71 5F5F5549 		.ascii	"__UINT_LEAST32_TYPE__ long unsigned int\000"
 14634      4E545F4C 
 14634      45415354 
 14634      33325F54 
 14634      5950455F 
 14635              	.LASF819:
 14636 11d99 53434E78 		.ascii	"SCNxLEAST16 __SCN16LEAST(x)\000"
 14636      4C454153 
 14636      54313620 
 14636      5F5F5343 
 14636      4E31364C 
 14637              	.LASF163:
 14638 11db5 5F5F4442 		.ascii	"__DBL_MIN_EXP__ (-1021)\000"
 14638      4C5F4D49 
 14638      4E5F4558 
 14638      505F5F20 
 14638      282D3130 
 14639              	.LASF1118:
 14640 11dcd 5F5F6578 		.ascii	"__exported __attribute__((__visibility__(\"default\""
 14640      706F7274 
 14640      6564205F 
 14640      5F617474 
 14640      72696275 
 14641 11dff 29292900 		.ascii	")))\000"
 14642              	.LASF1145:
 14643 11e03 5F5F4E55 		.ascii	"__NULLABILITY_PRAGMA_PUSH \000"
 14643      4C4C4142 
 14643      494C4954 
 14643      595F5052 
 14643      41474D41 
 14644              	.LASF449:
ARM GAS  /tmp/ccKtbbXa.s 			page 402


 14645 11e1e 41502031 		.ascii	"AP 1\000"
 14645      00
 14646              	.LASF1609:
 14647 11e23 5050525A 		.ascii	"PPRZ_ALGEBRA_FLOAT_H \000"
 14647      5F414C47 
 14647      45425241 
 14647      5F464C4F 
 14647      41545F48 
 14648              	.LASF638:
 14649 11e39 55494E54 		.ascii	"UINT16_MAX\000"
 14649      31365F4D 
 14649      415800
 14650              	.LASF1077:
 14651 11e44 5F5F4343 		.ascii	"__CC_SUPPORTS_DYNAMIC_ARRAY_INIT 1\000"
 14651      5F535550 
 14651      504F5254 
 14651      535F4459 
 14651      4E414D49 
 14652              	.LASF1261:
 14653 11e67 4D617828 		.ascii	"Max(x,y) (x > y ? x : y)\000"
 14653      782C7929 
 14653      20287820 
 14653      3E207920 
 14653      3F207820 
 14654              	.LASF181:
 14655 11e80 5F5F4C44 		.ascii	"__LDBL_MAX_10_EXP__ 308\000"
 14655      424C5F4D 
 14655      41585F31 
 14655      305F4558 
 14655      505F5F20 
 14656              	.LASF1501:
 14657 11e98 52415445 		.ascii	"RATE_BFP_OF_REAL(_af) BFP_OF_REAL((_af), INT32_RATE"
 14657      5F424650 
 14657      5F4F465F 
 14657      5245414C 
 14657      285F6166 
 14658 11ecb 5F465241 		.ascii	"_FRAC)\000"
 14658      432900
 14659              	.LASF1583:
 14660 11ed2 56454354 		.ascii	"VECT3_ENU_OF_NED(_o,_i) { (_o).x = (_i).y; (_o).y ="
 14660      335F454E 
 14660      555F4F46 
 14660      5F4E4544 
 14660      285F6F2C 
 14661 11f05 20285F69 		.ascii	" (_i).x; (_o).z = -(_i).z; }\000"
 14661      292E783B 
 14661      20285F6F 
 14661      292E7A20 
 14661      3D202D28 
 14662              	.LASF1217:
 14663 11f22 4D5F5351 		.ascii	"M_SQRT3 1.73205080756887719000\000"
 14663      52543320 
 14663      312E3733 
 14663      32303530 
 14663      38303735 
 14664              	.LASF584:
 14665 11f41 5F5F494D 		.ascii	"__IMPORT \000"
ARM GAS  /tmp/ccKtbbXa.s 			page 403


 14665      504F5254 
 14665      2000
 14666              	.LASF1434:
 14667 11f4b 51554154 		.ascii	"QUAT_FLOAT_OF_BFP(_qf,_qi) { (_qf).qi = QUAT1_FLOAT"
 14667      5F464C4F 
 14667      41545F4F 
 14667      465F4246 
 14667      50285F71 
 14668 11f7e 5F4F465F 		.ascii	"_OF_BFP((_qi).qi); (_qf).qx = QUAT1_FLOAT_OF_BFP((_"
 14668      42465028 
 14668      285F7169 
 14668      292E7169 
 14668      293B2028 
 14669 11fb1 7169292E 		.ascii	"qi).qx); (_qf).qy = QUAT1_FLOAT_OF_BFP((_qi).qy); ("
 14669      7178293B 
 14669      20285F71 
 14669      66292E71 
 14669      79203D20 
 14670 11fe4 5F716629 		.ascii	"_qf).qz = QUAT1_FLOAT_OF_BFP((_qi).qz); }\000"
 14670      2E717A20 
 14670      3D205155 
 14670      4154315F 
 14670      464C4F41 
 14671              	.LASF1355:
 14672 1200e 56454354 		.ascii	"VECT2_SMUL(_vo,_vi,_s) { (_vo).x = (_vi).x * (_s); "
 14672      325F534D 
 14672      554C285F 
 14672      766F2C5F 
 14672      76692C5F 
 14673 12041 285F766F 		.ascii	"(_vo).y = (_vi).y * (_s); }\000"
 14673      292E7920 
 14673      3D20285F 
 14673      7669292E 
 14673      79202A20 
 14674              	.LASF1297:
 14675 1205d 44424C5F 		.ascii	"DBL_DIG __DBL_DIG__\000"
 14675      44494720 
 14675      5F5F4442 
 14675      4C5F4449 
 14675      475F5F00 
 14676              	.LASF44:
 14677 12071 5F5F494E 		.ascii	"__INT64_TYPE__ long long int\000"
 14677      5436345F 
 14677      54595045 
 14677      5F5F206C 
 14677      6F6E6720 
 14678              	.LASF655:
 14679 1208e 494E545F 		.ascii	"INT_LEAST8_MIN (-INT_LEAST8_MAX - 1)\000"
 14679      4C454153 
 14679      54385F4D 
 14679      494E2028 
 14679      2D494E54 
 14680              	.LASF385:
 14681 120b3 5F5F4152 		.ascii	"__ARM_FEATURE_CRC32\000"
 14681      4D5F4645 
 14681      41545552 
 14681      455F4352 
ARM GAS  /tmp/ccKtbbXa.s 			page 404


 14681      43333200 
 14682              	.LASF344:
 14683 120c7 5F5F5441 		.ascii	"__TA_FBIT__ 63\000"
 14683      5F464249 
 14683      545F5F20 
 14683      363300
 14684              	.LASF185:
 14685 120d6 5F5F4C44 		.ascii	"__LDBL_NORM_MAX__ 1.7976931348623157e+308L\000"
 14685      424C5F4E 
 14685      4F524D5F 
 14685      4D41585F 
 14685      5F20312E 
 14686              	.LASF1104:
 14687 12101 5F5F6D61 		.ascii	"__malloc_like __attribute__((__malloc__))\000"
 14687      6C6C6F63 
 14687      5F6C696B 
 14687      65205F5F 
 14687      61747472 
 14688              	.LASF219:
 14689 1212b 5F5F464C 		.ascii	"__FLT64_DENORM_MIN__ 4.9406564584124654e-324F64\000"
 14689      5436345F 
 14689      44454E4F 
 14689      524D5F4D 
 14689      494E5F5F 
 14690              	.LASF1526:
 14691 1215b 494E5433 		.ascii	"INT32_VECT3_ZERO(_v) VECT3_ASSIGN(_v, 0, 0, 0)\000"
 14691      325F5645 
 14691      4354335F 
 14691      5A45524F 
 14691      285F7629 
 14692              	.LASF1522:
 14693 1218a 494E5433 		.ascii	"INT32_VECT2_RSHIFT(_o,_i,_r) { (_o).x = ((_i).x >> "
 14693      325F5645 
 14693      4354325F 
 14693      52534849 
 14693      4654285F 
 14694 121bd 285F7229 		.ascii	"(_r)); (_o).y = ((_i).y >> (_r)); }\000"
 14694      293B2028 
 14694      5F6F292E 
 14694      79203D20 
 14694      28285F69 
 14695              	.LASF1384:
 14696 121e1 45554C45 		.ascii	"EULERS_SUB(_a,_b) { (_a).phi -= (_b).phi; (_a).thet"
 14696      52535F53 
 14696      5542285F 
 14696      612C5F62 
 14696      29207B20 
 14697 12214 61202D3D 		.ascii	"a -= (_b).theta; (_a).psi -= (_b).psi; }\000"
 14697      20285F62 
 14697      292E7468 
 14697      6574613B 
 14697      20285F61 
 14698              	.LASF626:
 14699 1223d 5F4E4F49 		.ascii	"_NOINLINE_STATIC _NOINLINE static\000"
 14699      4E4C494E 
 14699      455F5354 
 14699      41544943 
ARM GAS  /tmp/ccKtbbXa.s 			page 405


 14699      205F4E4F 
 14700              	.LASF622:
 14701 1225f 5F4C4F4E 		.ascii	"_LONG_DOUBLE long double\000"
 14701      475F444F 
 14701      55424C45 
 14701      206C6F6E 
 14701      6720646F 
 14702              	.LASF1090:
 14703 12278 5F5F7573 		.ascii	"__used __attribute__((__used__))\000"
 14703      6564205F 
 14703      5F617474 
 14703      72696275 
 14703      74655F5F 
 14704              	.LASF1438:
 14705 12299 504F5349 		.ascii	"POSITIONS_FLOAT_OF_BFP(_ef,_ei) { (_ef).x = POS_FLO"
 14705      54494F4E 
 14705      535F464C 
 14705      4F41545F 
 14705      4F465F42 
 14706 122cc 41545F4F 		.ascii	"AT_OF_BFP((_ei).x); (_ef).y = POS_FLOAT_OF_BFP((_ei"
 14706      465F4246 
 14706      5028285F 
 14706      6569292E 
 14706      78293B20 
 14707 122ff 292E7929 		.ascii	").y); (_ef).z = POS_FLOAT_OF_BFP((_ei).z); }\000"
 14707      3B20285F 
 14707      6566292E 
 14707      7A203D20 
 14707      504F535F 
 14708              	.LASF1168:
 14709 1232c 494E4649 		.ascii	"INFINITY (__builtin_inff())\000"
 14709      4E495459 
 14709      20285F5F 
 14709      6275696C 
 14709      74696E5F 
 14710              	.LASF558:
 14711 12348 5F5F4F42 		.ascii	"__OBSOLETE_MATH __OBSOLETE_MATH_DEFAULT\000"
 14711      534F4C45 
 14711      54455F4D 
 14711      41544820 
 14711      5F5F4F42 
 14712              	.LASF733:
 14713 12370 494E5431 		.ascii	"INT16_C(c) __INT16_C(c)\000"
 14713      365F4328 
 14713      6329205F 
 14713      5F494E54 
 14713      31365F43 
 14714              	.LASF345:
 14715 12388 5F5F5441 		.ascii	"__TA_IBIT__ 64\000"
 14715      5F494249 
 14715      545F5F20 
 14715      363400
 14716              	.LASF984:
 14717 12397 5F415445 		.ascii	"_ATEXIT_INIT {_NULL, 0, {_NULL}, {{_NULL}, {_NULL},"
 14717      5849545F 
 14717      494E4954 
 14717      207B5F4E 
ARM GAS  /tmp/ccKtbbXa.s 			page 406


 14717      554C4C2C 
 14718 123ca 20302C20 		.ascii	" 0, 0}}\000"
 14718      307D7D00 
 14719              	.LASF1347:
 14720 123d2 5F535452 		.ascii	"_STRINGS_H_ \000"
 14720      494E4753 
 14720      5F485F20 
 14720      00
 14721              	.LASF1318:
 14722 123df 44424C5F 		.ascii	"DBL_MAX_10_EXP\000"
 14722      4D41585F 
 14722      31305F45 
 14722      585000
 14723              	.LASF631:
 14724 123ee 494E5438 		.ascii	"INT8_MIN (-INT8_MAX - 1)\000"
 14724      5F4D494E 
 14724      20282D49 
 14724      4E54385F 
 14724      4D415820 
 14725              	.LASF235:
 14726 12407 5F5F464C 		.ascii	"__FLT32X_HAS_DENORM__ 1\000"
 14726      54333258 
 14726      5F484153 
 14726      5F44454E 
 14726      4F524D5F 
 14727              	.LASF998:
 14728 1241f 5F524545 		.ascii	"_REENT_STDIO_STREAM(var,index) &(var)->__sf[index]\000"
 14728      4E545F53 
 14728      5444494F 
 14728      5F535452 
 14728      45414D28 
 14729              	.LASF206:
 14730 12452 5F5F464C 		.ascii	"__FLT32_HAS_QUIET_NAN__ 1\000"
 14730      5433325F 
 14730      4841535F 
 14730      51554945 
 14730      545F4E41 
 14731              	.LASF1390:
 14732 1246c 52415445 		.ascii	"RATES_COPY(_a,_b) { (_a).p = (_b).p; (_a).q = (_b)."
 14732      535F434F 
 14732      5059285F 
 14732      612C5F62 
 14732      29207B20 
 14733 1249f 713B2028 		.ascii	"q; (_a).r = (_b).r; }\000"
 14733      5F61292E 
 14733      72203D20 
 14733      285F6229 
 14733      2E723B20 
 14734              	.LASF12:
 14735 124b5 5F5F4154 		.ascii	"__ATOMIC_RELEASE 3\000"
 14735      4F4D4943 
 14735      5F52454C 
 14735      45415345 
 14735      203300
 14736              	.LASF321:
 14737 124c8 5F5F4851 		.ascii	"__HQ_IBIT__ 0\000"
 14737      5F494249 
ARM GAS  /tmp/ccKtbbXa.s 			page 407


 14737      545F5F20 
 14737      3000
 14738              	.LASF1635:
 14739 124d6 464C4F41 		.ascii	"FLOAT_RMAT_OF_EULERS(_rm,_e) WARNING(\"FLOAT_RMAT_O"
 14739      545F524D 
 14739      41545F4F 
 14739      465F4555 
 14739      4C455253 
 14740 12508 465F4555 		.ascii	"F_EULERS macro is deprecated, use the lower case fu"
 14740      4C455253 
 14740      206D6163 
 14740      726F2069 
 14740      73206465 
 14741 1253b 6E637469 		.ascii	"nction instead\") float_rmat_of_eulers_321(&(_rm), "
 14741      6F6E2069 
 14741      6E737465 
 14741      61642229 
 14741      20666C6F 
 14742 1256d 26285F65 		.ascii	"&(_e))\000"
 14742      292900
 14743              	.LASF1692:
 14744 12574 6C6F6E67 		.ascii	"long long int\000"
 14744      206C6F6E 
 14744      6720696E 
 14744      7400
 14745              	.LASF141:
 14746 12582 5F5F464C 		.ascii	"__FLT_EVAL_METHOD__ 0\000"
 14746      545F4556 
 14746      414C5F4D 
 14746      4554484F 
 14746      445F5F20 
 14747              	.LASF1631:
 14748 12598 464C4F41 		.ascii	"FLOAT_RMAT_TRANSP_VMULT(_vb,_m_b2a,_va) WARNING(\"F"
 14748      545F524D 
 14748      41545F54 
 14748      52414E53 
 14748      505F564D 
 14749 125ca 4C4F4154 		.ascii	"LOAT_RMAT_TRANSP_VMULT macro is deprecated, use the"
 14749      5F524D41 
 14749      545F5452 
 14749      414E5350 
 14749      5F564D55 
 14750 125fd 206C6F77 		.ascii	" lower case function instead\") float_rmat_transp_v"
 14750      65722063 
 14750      61736520 
 14750      66756E63 
 14750      74696F6E 
 14751 1262f 6D756C74 		.ascii	"mult(&(_vb), &(_m_b2a), &(_va))\000"
 14751      2826285F 
 14751      7662292C 
 14751      2026285F 
 14751      6D5F6232 
 14752              	.LASF1665:
 14753 1264f 464C4F41 		.ascii	"FLOAT_EULERS_OF_QUAT(_e,_q) WARNING(\"FLOAT_EULERS_"
 14753      545F4555 
 14753      4C455253 
 14753      5F4F465F 
ARM GAS  /tmp/ccKtbbXa.s 			page 408


 14753      51554154 
 14754 12681 4F465F51 		.ascii	"OF_QUAT macro is deprecated, use the lower case fun"
 14754      55415420 
 14754      6D616372 
 14754      6F206973 
 14754      20646570 
 14755 126b4 6374696F 		.ascii	"ction instead\") float_eulers_of_quat(&(_e), &(_q))"
 14755      6E20696E 
 14755      73746561 
 14755      64222920 
 14755      666C6F61 
 14756 126e6 00       		.ascii	"\000"
 14757              	.LASF1335:
 14758 126e7 464C545F 		.ascii	"FLT_MIN\000"
 14758      4D494E00 
 14759              	.LASF553:
 14760 126ef 5F574944 		.ascii	"_WIDE_ORIENT 1\000"
 14760      455F4F52 
 14760      49454E54 
 14760      203100
 14761              	.LASF597:
 14762 126fe 756E7369 		.ascii	"unsigned +0\000"
 14762      676E6564 
 14762      202B3000 
 14763              	.LASF1469:
 14764 1270a 45584954 		.ascii	"EXIT_FAILURE 1\000"
 14764      5F464149 
 14764      4C555245 
 14764      203100
 14765              	.LASF595:
 14766 12719 6C6F6E67 		.ascii	"long\000"
 14766      00
 14767              	.LASF346:
 14768 1271e 5F5F5548 		.ascii	"__UHA_FBIT__ 8\000"
 14768      415F4642 
 14768      49545F5F 
 14768      203800
 14769              	.LASF799:
 14770 1272d 50524969 		.ascii	"PRIi16 __PRI16(i)\000"
 14770      3136205F 
 14770      5F505249 
 14770      31362869 
 14770      2900
 14771              	.LASF1194:
 14772 1273f 6973756E 		.ascii	"isunordered(__x,__y) (__builtin_isunordered (__x, _"
 14772      6F726465 
 14772      72656428 
 14772      5F5F782C 
 14772      5F5F7929 
 14773 12772 5F792929 		.ascii	"_y))\000"
 14773      00
 14774              	.LASF277:
 14775 12777 5F5F554C 		.ascii	"__ULLFRACT_EPSILON__ 0x1P-64ULLR\000"
 14775      4C465241 
 14775      43545F45 
 14775      5053494C 
 14775      4F4E5F5F 
ARM GAS  /tmp/ccKtbbXa.s 			page 409


 14776              	.LASF1554:
 14777 12798 494E5433 		.ascii	"INT32_QUAT_INTEGRATE_FI(_q,_hr,_omega,_f) WARNING(\""
 14777      325F5155 
 14777      41545F49 
 14777      4E544547 
 14777      52415445 
 14778 127cb 494E5433 		.ascii	"INT32_QUAT_INTEGRATE_FI macro is deprecated, use th"
 14778      325F5155 
 14778      41545F49 
 14778      4E544547 
 14778      52415445 
 14779 127fe 65206C6F 		.ascii	"e lower case function instead\") int32_quat_integra"
 14779      77657220 
 14779      63617365 
 14779      2066756E 
 14779      6374696F 
 14780 12830 74655F66 		.ascii	"te_fi(&(_q), &(_hr), &(_omega), _f)\000"
 14780      69282628 
 14780      5F71292C 
 14780      2026285F 
 14780      6872292C 
 14781              	.LASF1364:
 14782 12854 56454354 		.ascii	"VECT3_SUB(_a,_b) { (_a).x -= (_b).x; (_a).y -= (_b)"
 14782      335F5355 
 14782      42285F61 
 14782      2C5F6229 
 14782      207B2028 
 14783 12887 2E793B20 		.ascii	".y; (_a).z -= (_b).z; }\000"
 14783      285F6129 
 14783      2E7A202D 
 14783      3D20285F 
 14783      62292E7A 
 14784              	.LASF393:
 14785 1289f 5F5F4152 		.ascii	"__ARM_FEATURE_CLZ 1\000"
 14785      4D5F4645 
 14785      41545552 
 14785      455F434C 
 14785      5A203100 
 14786              	.LASF664:
 14787 128b3 494E545F 		.ascii	"INT_LEAST32_MAX\000"
 14787      4C454153 
 14787      5433325F 
 14787      4D415800 
 14788              	.LASF1394:
 14789 128c3 52415445 		.ascii	"RATES_SUM_SCALED(_c,_a,_b,_s) { (_c).p = (_a).p + ("
 14789      535F5355 
 14789      4D5F5343 
 14789      414C4544 
 14789      285F632C 
 14790 128f6 5F73292A 		.ascii	"_s)*(_b).p; (_c).q = (_a).q + (_s)*(_b).q; (_c).r ="
 14790      285F6229 
 14790      2E703B20 
 14790      285F6329 
 14790      2E71203D 
 14791 12929 20285F61 		.ascii	" (_a).r + (_s)*(_b).r; }\000"
 14791      292E7220 
 14791      2B20285F 
ARM GAS  /tmp/ccKtbbXa.s 			page 410


 14791      73292A28 
 14791      5F62292E 
 14792              	.LASF479:
 14793 12942 494E535F 		.ascii	"INS_TYPE_H \"modules/ins/ins_alt_float.h\"\000"
 14793      54595045 
 14793      5F482022 
 14793      6D6F6475 
 14793      6C65732F 
 14794              	.LASF1455:
 14795 1296b 4F4E455F 		.ascii	"ONE_MIN ((3 * 3) + 1)\000"
 14795      4D494E20 
 14795      28283320 
 14795      2A203329 
 14795      202B2031 
 14796              	.LASF420:
 14797 12981 5F5F4152 		.ascii	"__ARM_FEATURE_FMA 1\000"
 14797      4D5F4645 
 14797      41545552 
 14797      455F464D 
 14797      41203100 
 14798              	.LASF1275:
 14799 12995 52756E4F 		.ascii	"RunOnceEvery(_prescaler,_code) { static uint16_t pr"
 14799      6E636545 
 14799      76657279 
 14799      285F7072 
 14799      65736361 
 14800 129c8 65736361 		.ascii	"escaler = 0; prescaler++; if (prescaler >= _prescal"
 14800      6C657220 
 14800      3D20303B 
 14800      20707265 
 14800      7363616C 
 14801 129fb 65722920 		.ascii	"er) { prescaler = 0; _code; } }\000"
 14801      7B207072 
 14801      65736361 
 14801      6C657220 
 14801      3D20303B 
 14802              	.LASF617:
 14803 12a1b 5F5F4C45 		.ascii	"__LEAST64 \"ll\"\000"
 14803      41535436 
 14803      3420226C 
 14803      6C2200
 14804              	.LASF423:
 14805 12a2a 5F5F4152 		.ascii	"__ARM_NEON_FP\000"
 14805      4D5F4E45 
 14805      4F4E5F46 
 14805      5000
 14806              	.LASF427:
 14807 12a38 5F5F4644 		.ascii	"__FDPIC__\000"
 14807      5049435F 
 14807      5F00
 14808              	.LASF1295:
 14809 12a42 4C44424C 		.ascii	"LDBL_DIG\000"
 14809      5F444947 
 14809      00
 14810              	.LASF648:
 14811 12a4b 494E5436 		.ascii	"INT64_MIN\000"
 14811      345F4D49 
ARM GAS  /tmp/ccKtbbXa.s 			page 411


 14811      4E00
 14812              	.LASF101:
 14813 12a55 5F5F5549 		.ascii	"__UINT16_MAX__ 0xffff\000"
 14813      4E543136 
 14813      5F4D4158 
 14813      5F5F2030 
 14813      78666666 
 14814              	.LASF1481:
 14815 12a6b 494E5433 		.ascii	"INT32_SPEED_OF_CM_S_DEN 8\000"
 14815      325F5350 
 14815      4545445F 
 14815      4F465F43 
 14815      4D5F535F 
 14816              	.LASF402:
 14817 12a85 5F5F4152 		.ascii	"__ARM_ARCH 7\000"
 14817      4D5F4152 
 14817      43482037 
 14817      00
 14818              	.LASF254:
 14819 12a92 5F5F5546 		.ascii	"__UFRACT_IBIT__ 0\000"
 14819      52414354 
 14819      5F494249 
 14819      545F5F20 
 14819      3000
 14820              	.LASF1576:
 14821 12aa4 454D3752 		.ascii	"EM7RAD_OF_RAD(_r) ((_r)*1e7)\000"
 14821      41445F4F 
 14821      465F5241 
 14821      44285F72 
 14821      29202828 
 14822              	.LASF1299:
 14823 12ac1 464C545F 		.ascii	"FLT_MIN_EXP\000"
 14823      4D494E5F 
 14823      45585000 
 14824              	.LASF1030:
 14825 12acd 5F524545 		.ascii	"_REENT_SIGNAL_BUF(ptr) ((ptr)->_new._reent._signal_"
 14825      4E545F53 
 14825      49474E41 
 14825      4C5F4255 
 14825      46287074 
 14826 12b00 62756629 		.ascii	"buf)\000"
 14826      00
 14827              	.LASF1080:
 14828 12b05 5F5F434F 		.ascii	"__CONCAT(x,y) __CONCAT1(x,y)\000"
 14828      4E434154 
 14828      28782C79 
 14828      29205F5F 
 14828      434F4E43 
 14829              	.LASF175:
 14830 12b22 5F5F4442 		.ascii	"__DBL_HAS_QUIET_NAN__ 1\000"
 14830      4C5F4841 
 14830      535F5155 
 14830      4945545F 
 14830      4E414E5F 
 14831              	.LASF179:
 14832 12b3a 5F5F4C44 		.ascii	"__LDBL_MIN_10_EXP__ (-307)\000"
 14832      424C5F4D 
ARM GAS  /tmp/ccKtbbXa.s 			page 412


 14832      494E5F31 
 14832      305F4558 
 14832      505F5F20 
 14833              	.LASF1223:
 14834 12b55 5F494545 		.ascii	"_IEEE_ __fdlibm_ieee\000"
 14834      455F205F 
 14834      5F66646C 
 14834      69626D5F 
 14834      69656565 
 14835              	.LASF887:
 14836 12b6a 53434E75 		.ascii	"SCNuMAX __SCNMAX(u)\000"
 14836      4D415820 
 14836      5F5F5343 
 14836      4E4D4158 
 14836      28752900 
 14837              	.LASF871:
 14838 12b7e 5F5F5343 		.ascii	"__SCN64(x) __INT64 __STRINGIFY(x)\000"
 14838      4E363428 
 14838      7829205F 
 14838      5F494E54 
 14838      3634205F 
 14839              	.LASF357:
 14840 12ba0 5F5F4E4F 		.ascii	"__NO_INLINE__ 1\000"
 14840      5F494E4C 
 14840      494E455F 
 14840      5F203100 
 14841              	.LASF456:
 14842 12bb0 43485F44 		.ascii	"CH_DBG_ENABLE_TRACE TRUE\000"
 14842      42475F45 
 14842      4E41424C 
 14842      455F5452 
 14842      41434520 
 14843              	.LASF1211:
 14844 12bc9 4D5F5351 		.ascii	"M_SQRT1_2 0.70710678118654752440\000"
 14844      5254315F 
 14844      3220302E 
 14844      37303731 
 14844      30363738 
 14845              	.LASF1527:
 14846 12bea 494E5433 		.ascii	"INT32_VECT3_SCALE_2(_a,_b,_num,_den) { (_a).x = ((_"
 14846      325F5645 
 14846      4354335F 
 14846      5343414C 
 14846      455F3228 
 14847 12c1d 62292E78 		.ascii	"b).x * (_num)) / (_den); (_a).y = ((_b).y * (_num))"
 14847      202A2028 
 14847      5F6E756D 
 14847      2929202F 
 14847      20285F64 
 14848 12c50 202F2028 		.ascii	" / (_den); (_a).z = ((_b).z * (_num)) / (_den); }\000"
 14848      5F64656E 
 14848      293B2028 
 14848      5F61292E 
 14848      7A203D20 
 14849              	.LASF1369:
 14850 12c82 56454354 		.ascii	"VECT3_SMUL(_vo,_vi,_s) { (_vo).x = (_vi).x * (_s); "
 14850      335F534D 
ARM GAS  /tmp/ccKtbbXa.s 			page 413


 14850      554C285F 
 14850      766F2C5F 
 14850      76692C5F 
 14851 12cb5 285F766F 		.ascii	"(_vo).y = (_vi).y * (_s); (_vo).z = (_vi).z * (_s);"
 14851      292E7920 
 14851      3D20285F 
 14851      7669292E 
 14851      79202A20 
 14852 12ce8 207D00   		.ascii	" }\000"
 14853              	.LASF716:
 14854 12ceb 5349475F 		.ascii	"SIG_ATOMIC_MAX\000"
 14854      41544F4D 
 14854      49435F4D 
 14854      415800
 14855              	.LASF1577:
 14856 12cfa 5241445F 		.ascii	"RAD_OF_EM7RAD(_r) ((_r)/1e7)\000"
 14856      4F465F45 
 14856      4D375241 
 14856      44285F72 
 14856      29202828 
 14857              	.LASF244:
 14858 12d17 5F5F5553 		.ascii	"__USFRACT_IBIT__ 0\000"
 14858      46524143 
 14858      545F4942 
 14858      49545F5F 
 14858      203000
 14859              	.LASF772:
 14860 12d2a 5F5F5052 		.ascii	"__PRI8LEAST(x) __LEAST8 __STRINGIFY(x)\000"
 14860      49384C45 
 14860      41535428 
 14860      7829205F 
 14860      5F4C4541 
 14861              	.LASF226:
 14862 12d51 5F5F464C 		.ascii	"__FLT32X_MIN_10_EXP__ (-307)\000"
 14862      54333258 
 14862      5F4D494E 
 14862      5F31305F 
 14862      4558505F 
 14863              	.LASF726:
 14864 12d6e 57494E54 		.ascii	"WINT_MAX\000"
 14864      5F4D4158 
 14864      00
 14865              	.LASF771:
 14866 12d77 5F5F5052 		.ascii	"__PRI8(x) __INT8 __STRINGIFY(x)\000"
 14866      49382878 
 14866      29205F5F 
 14866      494E5438 
 14866      205F5F53 
 14867              	.LASF995:
 14868 12d97 5F524545 		.ascii	"_REENT_ASCTIME_SIZE 26\000"
 14868      4E545F41 
 14868      53435449 
 14868      4D455F53 
 14868      495A4520 
 14869              	.LASF143:
 14870 12dae 5F5F4445 		.ascii	"__DEC_EVAL_METHOD__ 2\000"
 14870      435F4556 
ARM GAS  /tmp/ccKtbbXa.s 			page 414


 14870      414C5F4D 
 14870      4554484F 
 14870      445F5F20 
 14871              	.LASF670:
 14872 12dc4 494E545F 		.ascii	"INT_LEAST64_MAX\000"
 14872      4C454153 
 14872      5436345F 
 14872      4D415800 
 14873              	.LASF1244:
 14874 12dd4 5F425628 		.ascii	"_BV(bit) (1 << (bit))\000"
 14874      62697429 
 14874      20283120 
 14874      3C3C2028 
 14874      62697429 
 14875              	.LASF1586:
 14876 12dea 494E5433 		.ascii	"INT32_VECT3_ENU_OF_NED(_o,_i) VECT3_ENU_OF_NED(_o,_"
 14876      325F5645 
 14876      4354335F 
 14876      454E555F 
 14876      4F465F4E 
 14877 12e1d 692900   		.ascii	"i)\000"
 14878              	.LASF1497:
 14879 12e20 4C424650 		.ascii	"LBFP_OF_REAL(_vr,_frac) ((_vr)*(1LL<<(_frac)))\000"
 14879      5F4F465F 
 14879      5245414C 
 14879      285F7672 
 14879      2C5F6672 
 14880              	.LASF1512:
 14881 12e4f 53504545 		.ascii	"SPEED_FLOAT_OF_BFP(_ai) FLOAT_OF_BFP((_ai), INT32_S"
 14881      445F464C 
 14881      4F41545F 
 14881      4F465F42 
 14881      4650285F 
 14882 12e82 50454544 		.ascii	"PEED_FRAC)\000"
 14882      5F465241 
 14882      432900
 14883              	.LASF552:
 14884 12e8d 5F465345 		.ascii	"_FSEEK_OPTIMIZATION 1\000"
 14884      454B5F4F 
 14884      5054494D 
 14884      495A4154 
 14884      494F4E20 
 14885              	.LASF1696:
 14886 12ea3 6C6F6E67 		.ascii	"long unsigned int\000"
 14886      20756E73 
 14886      69676E65 
 14886      6420696E 
 14886      7400
 14887              	.LASF936:
 14888 12eb5 5F474343 		.ascii	"_GCC_SIZE_T \000"
 14888      5F53495A 
 14888      455F5420 
 14888      00
 14889              	.LASF8:
 14890 12ec2 5F5F5645 		.ascii	"__VERSION__ \"10.3.1 20210621 (release)\"\000"
 14890      5253494F 
 14890      4E5F5F20 
ARM GAS  /tmp/ccKtbbXa.s 			page 415


 14890      2231302E 
 14890      332E3120 
 14891              	.LASF965:
 14892 12eea 5F54494D 		.ascii	"_TIME_T_ __int_least64_t\000"
 14892      455F545F 
 14892      205F5F69 
 14892      6E745F6C 
 14892      65617374 
 14893              	.LASF804:
 14894 12f03 53434E64 		.ascii	"SCNd16 __SCN16(d)\000"
 14894      3136205F 
 14894      5F53434E 
 14894      31362864 
 14894      2900
 14895              	.LASF241:
 14896 12f15 5F5F5346 		.ascii	"__SFRACT_MAX__ 0X7FP-7HR\000"
 14896      52414354 
 14896      5F4D4158 
 14896      5F5F2030 
 14896      58374650 
 14897              	.LASF1248:
 14898 12f2e 4E6F726D 		.ascii	"NormCourse(x) { while (x < 0) x += 360; while (x >="
 14898      436F7572 
 14898      73652878 
 14898      29207B20 
 14898      7768696C 
 14899 12f61 20333630 		.ascii	" 360) x -= 360; }\000"
 14899      29207820 
 14899      2D3D2033 
 14899      36303B20 
 14899      7D00
 14900              	.LASF1502:
 14901 12f73 52415445 		.ascii	"RATE_FLOAT_OF_BFP(_ai) FLOAT_OF_BFP((_ai), INT32_RA"
 14901      5F464C4F 
 14901      41545F4F 
 14901      465F4246 
 14901      50285F61 
 14902 12fa6 54455F46 		.ascii	"TE_FRAC)\000"
 14902      52414329 
 14902      00
 14903              	.LASF1590:
 14904 12faf 45434546 		.ascii	"ECEF_BFP_OF_REAL(_o,_i) VECT3_CM_OF_REAL(_o, _i)\000"
 14904      5F424650 
 14904      5F4F465F 
 14904      5245414C 
 14904      285F6F2C 
 14905              	.LASF1083:
 14906 12fe0 5F5F636F 		.ascii	"__const const\000"
 14906      6E737420 
 14906      636F6E73 
 14906      7400
 14907              	.LASF1519:
 14908 12fee 494E545F 		.ascii	"INT_VECT2_ZERO(_v) VECT2_ASSIGN(_v, 0, 0)\000"
 14908      56454354 
 14908      325F5A45 
 14908      524F285F 
 14908      76292056 
ARM GAS  /tmp/ccKtbbXa.s 			page 416


 14909              	.LASF22:
 14910 13018 5F5F5349 		.ascii	"__SIZEOF_LONG_DOUBLE__ 8\000"
 14910      5A454F46 
 14910      5F4C4F4E 
 14910      475F444F 
 14910      55424C45 
 14911              	.LASF1380:
 14912 13031 56454354 		.ascii	"VECT3_RATES_CROSS_VECT3(_vo,_r1,_v2) { (_vo).x = (_"
 14912      335F5241 
 14912      5445535F 
 14912      43524F53 
 14912      535F5645 
 14913 13064 7231292E 		.ascii	"r1).q*(_v2).z - (_r1).r*(_v2).y; (_vo).y = (_r1).r*"
 14913      712A285F 
 14913      7632292E 
 14913      7A202D20 
 14913      285F7231 
 14914 13097 285F7632 		.ascii	"(_v2).x - (_r1).p*(_v2).z; (_vo).z = (_r1).p*(_v2)."
 14914      292E7820 
 14914      2D20285F 
 14914      7231292E 
 14914      702A285F 
 14915 130ca 79202D20 		.ascii	"y - (_r1).q*(_v2).x; }\000"
 14915      285F7231 
 14915      292E712A 
 14915      285F7632 
 14915      292E783B 
 14916              	.LASF1238:
 14917 130e1 5F535452 		.ascii	"_STRINGIFY(s) #s\000"
 14917      494E4749 
 14917      46592873 
 14917      29202373 
 14917      00
 14918              	.LASF1109:
 14919 130f2 5F5F6E6F 		.ascii	"__nonnull_all __attribute__((__nonnull__))\000"
 14919      6E6E756C 
 14919      6C5F616C 
 14919      6C205F5F 
 14919      61747472 
 14920              	.LASF220:
 14921 1311d 5F5F464C 		.ascii	"__FLT64_HAS_DENORM__ 1\000"
 14921      5436345F 
 14921      4841535F 
 14921      44454E4F 
 14921      524D5F5F 
 14922              	.LASF172:
 14923 13134 5F5F4442 		.ascii	"__DBL_DENORM_MIN__ ((double)4.9406564584124654e-324"
 14923      4C5F4445 
 14923      4E4F524D 
 14923      5F4D494E 
 14923      5F5F2028 
 14924 13167 4C2900   		.ascii	"L)\000"
 14925              	.LASF157:
 14926 1316a 5F5F464C 		.ascii	"__FLT_HAS_DENORM__ 1\000"
 14926      545F4841 
 14926      535F4445 
 14926      4E4F524D 
ARM GAS  /tmp/ccKtbbXa.s 			page 417


 14926      5F5F2031 
 14927              	.LASF1057:
 14928 1317f 5F5F474E 		.ascii	"__GNUCLIKE_MATH_BUILTIN_CONSTANTS \000"
 14928      55434C49 
 14928      4B455F4D 
 14928      4154485F 
 14928      4255494C 
 14929              	.LASF656:
 14930 131a2 55494E54 		.ascii	"UINT_LEAST8_MAX\000"
 14930      5F4C4541 
 14930      5354385F 
 14930      4D415800 
 14931              	.LASF1724:
 14932 131b2 696E5F64 		.ascii	"in_d\000"
 14932      00
 14933              	.LASF407:
 14934 131b7 5F5F5448 		.ascii	"__THUMBEL__ 1\000"
 14934      554D4245 
 14934      4C5F5F20 
 14934      3100
 14935              	.LASF1296:
 14936 131c5 464C545F 		.ascii	"FLT_DIG __FLT_DIG__\000"
 14936      44494720 
 14936      5F5F464C 
 14936      545F4449 
 14936      475F5F00 
 14937              	.LASF811:
 14938 131d9 5052496F 		.ascii	"PRIoLEAST16 __PRI16LEAST(o)\000"
 14938      4C454153 
 14938      54313620 
 14938      5F5F5052 
 14938      4931364C 
 14939              	.LASF296:
 14940 131f5 5F5F5541 		.ascii	"__UACCUM_MAX__ 0XFFFFFFFFP-16UK\000"
 14940      4343554D 
 14940      5F4D4158 
 14940      5F5F2030 
 14940      58464646 
 14941              	.LASF679:
 14942 13215 494E545F 		.ascii	"INT_FAST8_MIN (-INT_FAST8_MAX - 1)\000"
 14942      46415354 
 14942      385F4D49 
 14942      4E20282D 
 14942      494E545F 
 14943              	.LASF327:
 14944 13238 5F5F5451 		.ascii	"__TQ_IBIT__ 0\000"
 14944      5F494249 
 14944      545F5F20 
 14944      3000
 14945              	.LASF1371:
 14946 13246 56454354 		.ascii	"VECT3_STRIM(_v,_min,_max) { (_v).x = (_v).x < _min "
 14946      335F5354 
 14946      52494D28 
 14946      5F762C5F 
 14946      6D696E2C 
 14947 13279 3F205F6D 		.ascii	"? _min : (_v).x > _max ? _max : (_v).x; (_v).y = (_"
 14947      696E203A 
ARM GAS  /tmp/ccKtbbXa.s 			page 418


 14947      20285F76 
 14947      292E7820 
 14947      3E205F6D 
 14948 132ac 76292E79 		.ascii	"v).y < _min ? _min : (_v).y > _max ? _max : (_v).y;"
 14948      203C205F 
 14948      6D696E20 
 14948      3F205F6D 
 14948      696E203A 
 14949 132df 20285F76 		.ascii	" (_v).z = (_v).z < _min ? _min : (_v).z > _max ? _m"
 14949      292E7A20 
 14949      3D20285F 
 14949      76292E7A 
 14949      203C205F 
 14950 13312 6178203A 		.ascii	"ax : (_v).z; }\000"
 14950      20285F76 
 14950      292E7A3B 
 14950      207D00
 14951              	.LASF232:
 14952 13321 5F5F464C 		.ascii	"__FLT32X_MIN__ 2.2250738585072014e-308F32x\000"
 14952      54333258 
 14952      5F4D494E 
 14952      5F5F2032 
 14952      2E323235 
 14953              	.LASF1218:
 14954 1334c 4D5F4956 		.ascii	"M_IVLN10 0.43429448190325182765\000"
 14954      4C4E3130 
 14954      20302E34 
 14954      33343239 
 14954      34343831 
 14955              	.LASF1511:
 14956 1336c 53504545 		.ascii	"SPEED_BFP_OF_REAL(_af) BFP_OF_REAL((_af), INT32_SPE"
 14956      445F4246 
 14956      505F4F46 
 14956      5F524541 
 14956      4C285F61 
 14957 1339f 45445F46 		.ascii	"ED_FRAC)\000"
 14957      52414329 
 14957      00
 14958              	.LASF1270:
 14959 133a8 436C6970 		.ascii	"Clip(_x,_min,_max) ( (_x) < (_min) ? (_min) : (_x) "
 14959      285F782C 
 14959      5F6D696E 
 14959      2C5F6D61 
 14959      78292028 
 14960 133db 3E20285F 		.ascii	"> (_max) ? (_max) : (_x) )\000"
 14960      6D617829 
 14960      203F2028 
 14960      5F6D6178 
 14960      29203A20 
 14961              	.LASF20:
 14962 133f6 5F5F5349 		.ascii	"__SIZEOF_FLOAT__ 4\000"
 14962      5A454F46 
 14962      5F464C4F 
 14962      41545F5F 
 14962      203400
 14963              	.LASF923:
 14964 13409 5F5F5349 		.ascii	"__SIZE_T__ \000"
ARM GAS  /tmp/ccKtbbXa.s 			page 419


 14964      5A455F54 
 14964      5F5F2000 
 14965              	.LASF1280:
 14966 13415 5745414B 		.ascii	"WEAK __attribute__((weak))\000"
 14966      205F5F61 
 14966      74747269 
 14966      62757465 
 14966      5F5F2828 
 14967              	.LASF32:
 14968 13430 5F5F5349 		.ascii	"__SIZE_TYPE__ unsigned int\000"
 14968      5A455F54 
 14968      5950455F 
 14968      5F20756E 
 14968      7369676E 
 14969              	.LASF1234:
 14970 1344b 494E464F 		.ascii	"INFO_VAR(var) DO_PRAGMA(message (\"INFO: \" #var \""
 14970      5F564152 
 14970      28766172 
 14970      2920444F 
 14970      5F505241 
 14971 1347b 203D2022 		.ascii	" = \" VALUE(var)))\000"
 14971      2056414C 
 14971      55452876 
 14971      61722929 
 14971      2900
 14972              	.LASF1192:
 14973 1348d 69736C65 		.ascii	"islessequal(__x,__y) (__builtin_islessequal (__x, _"
 14973      73736571 
 14973      75616C28 
 14973      5F5F782C 
 14973      5F5F7929 
 14974 134c0 5F792929 		.ascii	"_y))\000"
 14974      00
 14975              	.LASF1235:
 14976 134c5 5052494E 		.ascii	"PRINT_CONFIG_MSG(x) \000"
 14976      545F434F 
 14976      4E464947 
 14976      5F4D5347 
 14976      28782920 
 14977              	.LASF1098:
 14978 134da 5F416C69 		.ascii	"_Alignof(x) __alignof(x)\000"
 14978      676E6F66 
 14978      28782920 
 14978      5F5F616C 
 14978      69676E6F 
 14979              	.LASF1120:
 14980 134f3 5F5F6F66 		.ascii	"__offsetof(type,field) offsetof(type, field)\000"
 14980      66736574 
 14980      6F662874 
 14980      7970652C 
 14980      6669656C 
 14981              	.LASF53:
 14982 13520 5F5F5549 		.ascii	"__UINT_LEAST8_TYPE__ unsigned char\000"
 14982      4E545F4C 
 14982      45415354 
 14982      385F5459 
 14982      50455F5F 
ARM GAS  /tmp/ccKtbbXa.s 			page 420


 14983              	.LASF988:
 14984 13543 5F52414E 		.ascii	"_RAND48_SEED_1 (0xabcd)\000"
 14984      4434385F 
 14984      53454544 
 14984      5F312028 
 14984      30786162 
 14985              	.LASF574:
 14986 1355b 5F5F4C41 		.ascii	"__LARGEFILE_VISIBLE 0\000"
 14986      52474546 
 14986      494C455F 
 14986      56495349 
 14986      424C4520 
 14987              	.LASF706:
 14988 13571 494E544D 		.ascii	"INTMAX_MAX\000"
 14988      41585F4D 
 14988      415800
 14989              	.LASF1395:
 14990 1357c 52415445 		.ascii	"RATES_DIFF(_c,_a,_b) { (_c).p = (_a).p - (_b).p; (_"
 14990      535F4449 
 14990      4646285F 
 14990      632C5F61 
 14990      2C5F6229 
 14991 135af 63292E71 		.ascii	"c).q = (_a).q - (_b).q; (_c).r = (_a).r - (_b).r; }"
 14991      203D2028 
 14991      5F61292E 
 14991      71202D20 
 14991      285F6229 
 14992 135e2 00       		.ascii	"\000"
 14993              	.LASF1081:
 14994 135e3 5F5F5354 		.ascii	"__STRING(x) #x\000"
 14994      52494E47 
 14994      28782920 
 14994      237800
 14995              	.LASF1633:
 14996 135f2 464C4F41 		.ascii	"FLOAT_RMAT_TRANSP_RATEMULT(_rb,_m_b2a,_ra) WARNING("
 14996      545F524D 
 14996      41545F54 
 14996      52414E53 
 14996      505F5241 
 14997 13625 22464C4F 		.ascii	"\"FLOAT_RMAT_TRANSP_RATEMULT macro is deprecated, u"
 14997      41545F52 
 14997      4D41545F 
 14997      5452414E 
 14997      53505F52 
 14998 13657 73652074 		.ascii	"se the lower case function instead\") float_rmat_ra"
 14998      6865206C 
 14998      6F776572 
 14998      20636173 
 14998      65206675 
 14999 13689 74656D75 		.ascii	"temult(&(_rb), &(_m_b2a), &(_ra))\000"
 14999      6C742826 
 14999      285F7262 
 14999      292C2026 
 14999      285F6D5F 
 15000              	.LASF1636:
 15001 136ab 464C4F41 		.ascii	"FLOAT_RMAT_OF_EULERS_321(_rm,_e) WARNING(\"FLOAT_RM"
 15001      545F524D 
ARM GAS  /tmp/ccKtbbXa.s 			page 421


 15001      41545F4F 
 15001      465F4555 
 15001      4C455253 
 15002 136dd 41545F4F 		.ascii	"AT_OF_EULERS_321 macro is deprecated, use the lower"
 15002      465F4555 
 15002      4C455253 
 15002      5F333231 
 15002      206D6163 
 15003 13710 20636173 		.ascii	" case function instead\") float_rmat_of_eulers_321("
 15003      65206675 
 15003      6E637469 
 15003      6F6E2069 
 15003      6E737465 
 15004 13742 26285F72 		.ascii	"&(_rm), &(_e))\000"
 15004      6D292C20 
 15004      26285F65 
 15004      292900
 15005              	.LASF1379:
 15006 13751 56454354 		.ascii	"VECT3_NORM2(_v) ((_v).x*(_v).x + (_v).y*(_v).y + (_"
 15006      335F4E4F 
 15006      524D3228 
 15006      5F762920 
 15006      28285F76 
 15007 13784 76292E7A 		.ascii	"v).z*(_v).z)\000"
 15007      2A285F76 
 15007      292E7A29 
 15007      00
 15008              	.LASF1377:
 15009 13791 56454354 		.ascii	"VECT3_CROSS_PRODUCT(_vo,_v1,_v2) { (_vo).x = (_v1)."
 15009      335F4352 
 15009      4F53535F 
 15009      50524F44 
 15009      55435428 
 15010 137c4 792A285F 		.ascii	"y*(_v2).z - (_v1).z*(_v2).y; (_vo).y = (_v1).z*(_v2"
 15010      7632292E 
 15010      7A202D20 
 15010      285F7631 
 15010      292E7A2A 
 15011 137f7 292E7820 		.ascii	").x - (_v1).x*(_v2).z; (_vo).z = (_v1).x*(_v2).y - "
 15011      2D20285F 
 15011      7631292E 
 15011      782A285F 
 15011      7632292E 
 15012 1382a 285F7631 		.ascii	"(_v1).y*(_v2).x; }\000"
 15012      292E792A 
 15012      285F7632 
 15012      292E783B 
 15012      207D00
 15013              	.LASF1727:
 15014 1383d 6E65645F 		.ascii	"ned_of_lla_vect_i\000"
 15014      6F665F6C 
 15014      6C615F76 
 15014      6563745F 
 15014      6900
 15015              	.LASF637:
 15016 1384f 494E5431 		.ascii	"INT16_MIN (-INT16_MAX - 1)\000"
 15016      365F4D49 
ARM GAS  /tmp/ccKtbbXa.s 			page 422


 15016      4E20282D 
 15016      494E5431 
 15016      365F4D41 
 15017              	.LASF487:
 15018 1386a 5050525A 		.ascii	"PPRZ_VER \000"
 15018      5F564552 
 15018      2000
 15019              	.LASF807:
 15020 13874 53434E75 		.ascii	"SCNu16 __SCN16(u)\000"
 15020      3136205F 
 15020      5F53434E 
 15020      31362875 
 15020      2900
 15021              	.LASF1022:
 15022 13886 5F524545 		.ascii	"_REENT_MBTOWC_STATE(ptr) ((ptr)->_new._reent._mbtow"
 15022      4E545F4D 
 15022      42544F57 
 15022      435F5354 
 15022      41544528 
 15023 138b9 635F7374 		.ascii	"c_state)\000"
 15023      61746529 
 15023      00
 15024              	.LASF442:
 15025 138c2 5553455F 		.ascii	"USE_CHIBIOS_RTOS 1\000"
 15025      43484942 
 15025      494F535F 
 15025      52544F53 
 15025      203100
 15026              	.LASF1698:
 15027 138d5 756E7369 		.ascii	"unsigned int\000"
 15027      676E6564 
 15027      20696E74 
 15027      00
 15028              	.LASF1331:
 15029 138e2 4C44424C 		.ascii	"LDBL_EPSILON\000"
 15029      5F455053 
 15029      494C4F4E 
 15029      00
 15030              	.LASF505:
 15031 138ef 5553455F 		.ascii	"USE_AHRS 1\000"
 15031      41485253 
 15031      203100
 15032              	.LASF1263:
 15033 138fa 4D6F7265 		.ascii	"MoreThan(_x,_y) ((_x) > (_y))\000"
 15033      5468616E 
 15033      285F782C 
 15033      5F792920 
 15033      28285F78 
 15034              	.LASF1041:
 15035 13918 5F5F5448 		.ascii	"__THROW \000"
 15035      524F5720 
 15035      00
 15036              	.LASF1277:
 15037 13921 50657269 		.ascii	"PeriodicPrescaleBy5(_code_0,_code_1,_code_2,_code_3"
 15037      6F646963 
 15037      50726573 
 15037      63616C65 
ARM GAS  /tmp/ccKtbbXa.s 			page 423


 15037      42793528 
 15038 13954 2C5F636F 		.ascii	",_code_4) { static uint8_t _50hz = 0; _50hz++; if ("
 15038      64655F34 
 15038      29207B20 
 15038      73746174 
 15038      69632075 
 15039 13987 5F353068 		.ascii	"_50hz >= 5) _50hz = 0; switch (_50hz) { case 0: _co"
 15039      7A203E3D 
 15039      20352920 
 15039      5F353068 
 15039      7A203D20 
 15040 139ba 64655F30 		.ascii	"de_0; break; case 1: _code_1; break; case 2: _code_"
 15040      3B206272 
 15040      65616B3B 
 15040      20636173 
 15040      6520313A 
 15041 139ed 323B2062 		.ascii	"2; break; case 3: _code_3; break; case 4: _code_4; "
 15041      7265616B 
 15041      3B206361 
 15041      73652033 
 15041      3A205F63 
 15042 13a20 62726561 		.ascii	"break; } }\000"
 15042      6B3B207D 
 15042      207D00
 15043              	.LASF389:
 15044 13a2b 5F5F4152 		.ascii	"__ARM_FEATURE_MVE\000"
 15044      4D5F4645 
 15044      41545552 
 15044      455F4D56 
 15044      4500
 15045              	.LASF787:
 15046 13a3d 50524969 		.ascii	"PRIiFAST8 __PRI8FAST(i)\000"
 15046      46415354 
 15046      38205F5F 
 15046      50524938 
 15046      46415354 
 15047              	.LASF1550:
 15048 13a55 494E5433 		.ascii	"INT32_QUAT_INV_COMP(_b2c,_a2b,_a2c) WARNING(\"INT32"
 15048      325F5155 
 15048      41545F49 
 15048      4E565F43 
 15048      4F4D5028 
 15049 13a87 5F515541 		.ascii	"_QUAT_INV_COMP macro is deprecated, use the lower c"
 15049      545F494E 
 15049      565F434F 
 15049      4D50206D 
 15049      6163726F 
 15050 13aba 61736520 		.ascii	"ase function instead\") int32_quat_inv_comp(&(_b2c)"
 15050      66756E63 
 15050      74696F6E 
 15050      20696E73 
 15050      74656164 
 15051 13aec 2C202628 		.ascii	", &(_a2b), &(_a2c))\000"
 15051      5F613262 
 15051      292C2026 
 15051      285F6132 
 15051      63292900 
ARM GAS  /tmp/ccKtbbXa.s 			page 424


 15052              	.LASF683:
 15053 13b00 494E545F 		.ascii	"INT_FAST16_MAX __INT_FAST16_MAX__\000"
 15053      46415354 
 15053      31365F4D 
 15053      4158205F 
 15053      5F494E54 
 15054              	.LASF608:
 15055 13b22 5F5F494E 		.ascii	"__INT32 \"l\"\000"
 15055      54333220 
 15055      226C2200 
 15056              	.LASF347:
 15057 13b2e 5F5F5548 		.ascii	"__UHA_IBIT__ 8\000"
 15057      415F4942 
 15057      49545F5F 
 15057      203800
 15058              	.LASF530:
 15059 13b3d 454E555F 		.ascii	"ENU_OF_UTM_DIFF(_pos,_utm1,_utm2) { (_pos).x = (_ut"
 15059      4F465F55 
 15059      544D5F44 
 15059      49464628 
 15059      5F706F73 
 15060 13b70 6D31292E 		.ascii	"m1).east - (_utm2).east; (_pos).y = (_utm1).north -"
 15060      65617374 
 15060      202D2028 
 15060      5F75746D 
 15060      32292E65 
 15061 13ba3 20285F75 		.ascii	" (_utm2).north; (_pos).z = (_utm1).alt - (_utm2).al"
 15061      746D3229 
 15061      2E6E6F72 
 15061      74683B20 
 15061      285F706F 
 15062 13bd6 743B207D 		.ascii	"t; }\000"
 15062      00
 15063              	.LASF434:
 15064 13bdb 5F5F4152 		.ascii	"__ARM_FEATURE_CDE_COPROC\000"
 15064      4D5F4645 
 15064      41545552 
 15064      455F4344 
 15064      455F434F 
 15065              	.LASF271:
 15066 13bf4 5F5F4C4C 		.ascii	"__LLFRACT_MAX__ 0X7FFFFFFFFFFFFFFFP-63LLR\000"
 15066      46524143 
 15066      545F4D41 
 15066      585F5F20 
 15066      30583746 
 15067              	.LASF1292:
 15068 13c1e 4C44424C 		.ascii	"LDBL_MANT_DIG __LDBL_MANT_DIG__\000"
 15068      5F4D414E 
 15068      545F4449 
 15068      47205F5F 
 15068      4C44424C 
 15069              	.LASF1153:
 15070 13c3e 5F5F7472 		.ascii	"__trylocks_exclusive(...) __lock_annotate(exclusive"
 15070      796C6F63 
 15070      6B735F65 
 15070      78636C75 
 15070      73697665 
ARM GAS  /tmp/ccKtbbXa.s 			page 425


 15071 13c71 5F747279 		.ascii	"_trylock_function(__VA_ARGS__))\000"
 15071      6C6F636B 
 15071      5F66756E 
 15071      6374696F 
 15071      6E285F5F 
 15072              	.LASF825:
 15073 13c91 50524958 		.ascii	"PRIXFAST16 __PRI16FAST(X)\000"
 15073      46415354 
 15073      3136205F 
 15073      5F505249 
 15073      31364641 
 15074              	.LASF1688:
 15075 13cab 73686F72 		.ascii	"short int\000"
 15075      7420696E 
 15075      7400
 15076              	.LASF1572:
 15077 13cb5 434D5F4F 		.ascii	"CM_OF_M(_m) ((_m)*1e2)\000"
 15077      465F4D28 
 15077      5F6D2920 
 15077      28285F6D 
 15077      292A3165 
 15078              	.LASF948:
 15079 13ccc 5F4D4143 		.ascii	"_MACHINE__TYPES_H \000"
 15079      48494E45 
 15079      5F5F5459 
 15079      5045535F 
 15079      482000
 15080              	.LASF1671:
 15081 13cdf 444F5542 		.ascii	"DOUBLE_VECT3_RINT(_vout,_vin) { (_vout).x = rint((_"
 15081      4C455F56 
 15081      45435433 
 15081      5F52494E 
 15081      54285F76 
 15082 13d12 76696E29 		.ascii	"vin).x); (_vout).y = rint((_vin).y); (_vout).z = ri"
 15082      2E78293B 
 15082      20285F76 
 15082      6F757429 
 15082      2E79203D 
 15083 13d45 6E742828 		.ascii	"nt((_vin).z); }\000"
 15083      5F76696E 
 15083      292E7A29 
 15083      3B207D00 
 15084              	.LASF6:
 15085 13d55 5F5F474E 		.ascii	"__GNUC_MINOR__ 3\000"
 15085      55435F4D 
 15085      494E4F52 
 15085      5F5F2033 
 15085      00
 15086              	.LASF1562:
 15087 13d66 494E5433 		.ascii	"INT32_EULERS_LSHIFT(_o,_i,_r) { (_o).phi = ((_i).ph"
 15087      325F4555 
 15087      4C455253 
 15087      5F4C5348 
 15087      49465428 
 15088 13d99 69203C3C 		.ascii	"i << (_r)); (_o).theta = ((_i).theta << (_r)); (_o)"
 15088      20285F72 
 15088      29293B20 
ARM GAS  /tmp/ccKtbbXa.s 			page 426


 15088      285F6F29 
 15088      2E746865 
 15089 13dcc 2E707369 		.ascii	".psi = ((_i).psi << (_r)); }\000"
 15089      203D2028 
 15089      285F6929 
 15089      2E707369 
 15089      203C3C20 
 15090              	.LASF1099:
 15091 13de9 5F41746F 		.ascii	"_Atomic(T) struct { T volatile __val; }\000"
 15091      6D696328 
 15091      54292073 
 15091      74727563 
 15091      74207B20 
 15092              	.LASF1539:
 15093 13e11 494E5433 		.ascii	"INT32_RMAT_TRANSP_RATEMULT(_rb,_m_b2a,_ra) WARNING("
 15093      325F524D 
 15093      41545F54 
 15093      52414E53 
 15093      505F5241 
 15094 13e44 22494E54 		.ascii	"\"INT32_RMAT_TRANSP_RATEMULT macro is deprecated, u"
 15094      33325F52 
 15094      4D41545F 
 15094      5452414E 
 15094      53505F52 
 15095 13e76 73652074 		.ascii	"se the lower case function instead\") int32_rmat_ra"
 15095      6865206C 
 15095      6F776572 
 15095      20636173 
 15095      65206675 
 15096 13ea8 74656D75 		.ascii	"temult(&(_rb), &(_m_b2a), &(_ra))\000"
 15096      6C742826 
 15096      285F7262 
 15096      292C2026 
 15096      285F6D5F 
 15097              	.LASF1288:
 15098 13eca 44424C5F 		.ascii	"DBL_MANT_DIG\000"
 15098      4D414E54 
 15098      5F444947 
 15098      00
 15099              	.LASF1705:
 15100 13ed7 456E7543 		.ascii	"EnuCoor_i\000"
 15100      6F6F725F 
 15100      6900
 15101              	.LASF843:
 15102 13ee1 53434E64 		.ascii	"SCNd32 __SCN32(d)\000"
 15102      3332205F 
 15102      5F53434E 
 15102      33322864 
 15102      2900
 15103              	.LASF54:
 15104 13ef3 5F5F5549 		.ascii	"__UINT_LEAST16_TYPE__ short unsigned int\000"
 15104      4E545F4C 
 15104      45415354 
 15104      31365F54 
 15104      5950455F 
 15105              	.LASF550:
 15106 13f1c 5F4C4442 		.ascii	"_LDBL_EQ_DBL 1\000"
ARM GAS  /tmp/ccKtbbXa.s 			page 427


 15106      4C5F4551 
 15106      5F44424C 
 15106      203100
 15107              	.LASF1228:
 15108 13f2b 56414C55 		.ascii	"VALUE(x) VALUE_TO_STRING(x)\000"
 15108      45287829 
 15108      2056414C 
 15108      55455F54 
 15108      4F5F5354 
 15109              	.LASF707:
 15110 13f47 494E544D 		.ascii	"INTMAX_MAX __INTMAX_MAX__\000"
 15110      41585F4D 
 15110      4158205F 
 15110      5F494E54 
 15110      4D41585F 
 15111              	.LASF1200:
 15112 13f61 4D5F4C4F 		.ascii	"M_LOG2E 1.4426950408889634074\000"
 15112      47324520 
 15112      312E3434 
 15112      32363935 
 15112      30343038 
 15113              	.LASF1284:
 15114 13f7f 5F464C4F 		.ascii	"_FLOAT_H___ \000"
 15114      41545F48 
 15114      5F5F5F20 
 15114      00
 15115              	.LASF908:
 15116 13f8c 5F535953 		.ascii	"_SYS_REENT_H_ \000"
 15116      5F524545 
 15116      4E545F48 
 15116      5F2000
 15117              	.LASF156:
 15118 13f9b 5F5F464C 		.ascii	"__FLT_DENORM_MIN__ 1.4012984643248171e-45F\000"
 15118      545F4445 
 15118      4E4F524D 
 15118      5F4D494E 
 15118      5F5F2031 
 15119              	.LASF827:
 15120 13fc6 53434E69 		.ascii	"SCNiFAST16 __SCN16FAST(i)\000"
 15120      46415354 
 15120      3136205F 
 15120      5F53434E 
 15120      31364641 
 15121              	.LASF689:
 15122 13fe0 494E545F 		.ascii	"INT_FAST32_MAX __INT_FAST32_MAX__\000"
 15122      46415354 
 15122      33325F4D 
 15122      4158205F 
 15122      5F494E54 
 15123              	.LASF478:
 15124 14002 494D555F 		.ascii	"IMU_APOGEE_I2C_DEV i2c1\000"
 15124      41504F47 
 15124      45455F49 
 15124      32435F44 
 15124      45562069 
 15125              	.LASF1254:
 15126 1401a 5261644F 		.ascii	"RadOfDeg(x) ((x) * (M_PI/180.))\000"
ARM GAS  /tmp/ccKtbbXa.s 			page 428


 15126      66446567 
 15126      28782920 
 15126      28287829 
 15126      202A2028 
 15127              	.LASF697:
 15128 1403a 494E545F 		.ascii	"INT_FAST64_MIN (-INT_FAST64_MAX - 1)\000"
 15128      46415354 
 15128      36345F4D 
 15128      494E2028 
 15128      2D494E54 
 15129              	.LASF116:
 15130 1405f 5F5F5549 		.ascii	"__UINT_LEAST8_MAX__ 0xff\000"
 15130      4E545F4C 
 15130      45415354 
 15130      385F4D41 
 15130      585F5F20 
 15131              	.LASF409:
 15132 14078 5F5F4152 		.ascii	"__ARM_ARCH_ISA_THUMB 2\000"
 15132      4D5F4152 
 15132      43485F49 
 15132      53415F54 
 15132      48554D42 
 15133              	.LASF102:
 15134 1408f 5F5F5549 		.ascii	"__UINT32_MAX__ 0xffffffffUL\000"
 15134      4E543332 
 15134      5F4D4158 
 15134      5F5F2030 
 15134      78666666 
 15135              	.LASF1464:
 15136 140ab 5F4D4143 		.ascii	"_MACHSTDLIB_H_ \000"
 15136      48535444 
 15136      4C49425F 
 15136      485F2000 
 15137              	.LASF890:
 15138 140bb 5F5F5343 		.ascii	"__SCNPTR(x) __STRINGIFY(x)\000"
 15138      4E505452 
 15138      28782920 
 15138      5F5F5354 
 15138      52494E47 
 15139              	.LASF1411:
 15140 140d6 4D415433 		.ascii	"MAT33_MAT33_DIFF(_mat1,_mat2,_mat3) { MAT33_ELMT((_"
 15140      335F4D41 
 15140      5433335F 
 15140      44494646 
 15140      285F6D61 
 15141 14109 6D617431 		.ascii	"mat1),0,0) = MAT33_ELMT((_mat2),0,0)-MAT33_ELMT((_m"
 15141      292C302C 
 15141      3029203D 
 15141      204D4154 
 15141      33335F45 
 15142 1413c 61743329 		.ascii	"at3),0,0); MAT33_ELMT((_mat1),0,1) = MAT33_ELMT((_m"
 15142      2C302C30 
 15142      293B204D 
 15142      41543333 
 15142      5F454C4D 
 15143 1416f 61743229 		.ascii	"at2),0,1)-MAT33_ELMT((_mat3),0,1); MAT33_ELMT((_mat"
 15143      2C302C31 
ARM GAS  /tmp/ccKtbbXa.s 			page 429


 15143      292D4D41 
 15143      5433335F 
 15143      454C4D54 
 15144 141a2 31292C30 		.ascii	"1),0,2) = MAT33_ELMT((_mat2),0,2)-MAT33_ELMT((_mat3"
 15144      2C322920 
 15144      3D204D41 
 15144      5433335F 
 15144      454C4D54 
 15145 141d5 292C302C 		.ascii	"),0,2); MAT33_ELMT((_mat1),1,0) = MAT33_ELMT((_mat2"
 15145      32293B20 
 15145      4D415433 
 15145      335F454C 
 15145      4D542828 
 15146 14208 292C312C 		.ascii	"),1,0)-MAT33_ELMT((_mat3),1,0); MAT33_ELMT((_mat1),"
 15146      30292D4D 
 15146      41543333 
 15146      5F454C4D 
 15146      5428285F 
 15147 1423b 312C3129 		.ascii	"1,1) = MAT33_ELMT((_mat2),1,1)-MAT33_ELMT((_mat3),1"
 15147      203D204D 
 15147      41543333 
 15147      5F454C4D 
 15147      5428285F 
 15148 1426e 2C31293B 		.ascii	",1); MAT33_ELMT((_mat1),1,2) = MAT33_ELMT((_mat2),1"
 15148      204D4154 
 15148      33335F45 
 15148      4C4D5428 
 15148      285F6D61 
 15149 142a1 2C32292D 		.ascii	",2)-MAT33_ELMT((_mat3),1,2); MAT33_ELMT((_mat1),2,0"
 15149      4D415433 
 15149      335F454C 
 15149      4D542828 
 15149      5F6D6174 
 15150 142d4 29203D20 		.ascii	") = MAT33_ELMT((_mat2),2,0)-MAT33_ELMT((_mat3),2,0)"
 15150      4D415433 
 15150      335F454C 
 15150      4D542828 
 15150      5F6D6174 
 15151 14307 3B204D41 		.ascii	"; MAT33_ELMT((_mat1),2,1) = MAT33_ELMT((_mat2),2,1)"
 15151      5433335F 
 15151      454C4D54 
 15151      28285F6D 
 15151      61743129 
 15152 1433a 2D4D4154 		.ascii	"-MAT33_ELMT((_mat3),2,1); MAT33_ELMT((_mat1),2,2) ="
 15152      33335F45 
 15152      4C4D5428 
 15152      285F6D61 
 15152      7433292C 
 15153 1436d 204D4154 		.ascii	" MAT33_ELMT((_mat2),2,2)-MAT33_ELMT((_mat3),2,2); }"
 15153      33335F45 
 15153      4C4D5428 
 15153      285F6D61 
 15153      7432292C 
 15154 143a0 00       		.ascii	"\000"
 15155              	.LASF7:
 15156 143a1 5F5F474E 		.ascii	"__GNUC_PATCHLEVEL__ 1\000"
 15156      55435F50 
ARM GAS  /tmp/ccKtbbXa.s 			page 430


 15156      41544348 
 15156      4C455645 
 15156      4C5F5F20 
 15157              		.ident	"GCC: (15:10.3-2021.07-4) 10.3.1 20210621 (release)"
ARM GAS  /tmp/ccKtbbXa.s 			page 431


DEFINED SYMBOLS
                            *ABS*:0000000000000000 pprz_geodetic_int.c
     /tmp/ccKtbbXa.s:21     .text.ltp_of_ecef_rmat_from_lla_i:0000000000000000 $t
     /tmp/ccKtbbXa.s:30     .text.ltp_of_ecef_rmat_from_lla_i:0000000000000000 ltp_of_ecef_rmat_from_lla_i
     /tmp/ccKtbbXa.s:388    .text.ltp_of_ecef_rmat_from_lla_i:00000000000002f8 $d
     /tmp/ccKtbbXa.s:397    .text.ltp_def_from_ecef_i:0000000000000000 $t
     /tmp/ccKtbbXa.s:405    .text.ltp_def_from_ecef_i:0000000000000000 ltp_def_from_ecef_i
     /tmp/ccKtbbXa.s:2460   .text.lla_of_ecef_i:0000000000000000 lla_of_ecef_i
     /tmp/ccKtbbXa.s:456    .text.ltp_def_from_lla_i:0000000000000000 $t
     /tmp/ccKtbbXa.s:464    .text.ltp_def_from_lla_i:0000000000000000 ltp_def_from_lla_i
     /tmp/ccKtbbXa.s:2588   .text.ecef_of_lla_i:0000000000000000 ecef_of_lla_i
     /tmp/ccKtbbXa.s:515    .text.enu_of_ecef_point_i:0000000000000000 $t
     /tmp/ccKtbbXa.s:523    .text.enu_of_ecef_point_i:0000000000000000 enu_of_ecef_point_i
     /tmp/ccKtbbXa.s:905    .text.ned_of_ecef_point_i:0000000000000000 $t
     /tmp/ccKtbbXa.s:913    .text.ned_of_ecef_point_i:0000000000000000 ned_of_ecef_point_i
     /tmp/ccKtbbXa.s:954    .text.enu_of_ecef_pos_i:0000000000000000 $t
     /tmp/ccKtbbXa.s:962    .text.enu_of_ecef_pos_i:0000000000000000 enu_of_ecef_pos_i
     /tmp/ccKtbbXa.s:1032   .text.enu_of_ecef_pos_i:0000000000000074 $d
     /tmp/ccKtbbXa.s:1037   .text.ned_of_ecef_pos_i:0000000000000000 $t
     /tmp/ccKtbbXa.s:1045   .text.ned_of_ecef_pos_i:0000000000000000 ned_of_ecef_pos_i
     /tmp/ccKtbbXa.s:1086   .text.enu_of_ecef_vect_i:0000000000000000 $t
     /tmp/ccKtbbXa.s:1094   .text.enu_of_ecef_vect_i:0000000000000000 enu_of_ecef_vect_i
     /tmp/ccKtbbXa.s:1465   .text.ned_of_ecef_vect_i:0000000000000000 $t
     /tmp/ccKtbbXa.s:1473   .text.ned_of_ecef_vect_i:0000000000000000 ned_of_ecef_vect_i
     /tmp/ccKtbbXa.s:1514   .text.ecef_of_enu_vect_i:0000000000000000 $t
     /tmp/ccKtbbXa.s:1522   .text.ecef_of_enu_vect_i:0000000000000000 ecef_of_enu_vect_i
     /tmp/ccKtbbXa.s:1893   .text.ecef_of_ned_vect_i:0000000000000000 $t
     /tmp/ccKtbbXa.s:1901   .text.ecef_of_ned_vect_i:0000000000000000 ecef_of_ned_vect_i
     /tmp/ccKtbbXa.s:1942   .text.ecef_of_enu_point_i:0000000000000000 $t
     /tmp/ccKtbbXa.s:1950   .text.ecef_of_enu_point_i:0000000000000000 ecef_of_enu_point_i
     /tmp/ccKtbbXa.s:2001   .text.ecef_of_ned_point_i:0000000000000000 $t
     /tmp/ccKtbbXa.s:2009   .text.ecef_of_ned_point_i:0000000000000000 ecef_of_ned_point_i
     /tmp/ccKtbbXa.s:2050   .text.ecef_of_enu_pos_i:0000000000000000 $t
     /tmp/ccKtbbXa.s:2058   .text.ecef_of_enu_pos_i:0000000000000000 ecef_of_enu_pos_i
     /tmp/ccKtbbXa.s:2145   .text.ecef_of_ned_pos_i:0000000000000000 $t
     /tmp/ccKtbbXa.s:2153   .text.ecef_of_ned_pos_i:0000000000000000 ecef_of_ned_pos_i
     /tmp/ccKtbbXa.s:2194   .text.enu_of_lla_point_i:0000000000000000 $t
     /tmp/ccKtbbXa.s:2202   .text.enu_of_lla_point_i:0000000000000000 enu_of_lla_point_i
     /tmp/ccKtbbXa.s:2237   .text.ned_of_lla_point_i:0000000000000000 $t
     /tmp/ccKtbbXa.s:2245   .text.ned_of_lla_point_i:0000000000000000 ned_of_lla_point_i
     /tmp/ccKtbbXa.s:2280   .text.enu_of_lla_pos_i:0000000000000000 $t
     /tmp/ccKtbbXa.s:2288   .text.enu_of_lla_pos_i:0000000000000000 enu_of_lla_pos_i
     /tmp/ccKtbbXa.s:2323   .text.ned_of_lla_pos_i:0000000000000000 $t
     /tmp/ccKtbbXa.s:2331   .text.ned_of_lla_pos_i:0000000000000000 ned_of_lla_pos_i
     /tmp/ccKtbbXa.s:2366   .text.enu_of_lla_vect_i:0000000000000000 $t
     /tmp/ccKtbbXa.s:2374   .text.enu_of_lla_vect_i:0000000000000000 enu_of_lla_vect_i
     /tmp/ccKtbbXa.s:2409   .text.ned_of_lla_vect_i:0000000000000000 $t
     /tmp/ccKtbbXa.s:2417   .text.ned_of_lla_vect_i:0000000000000000 ned_of_lla_vect_i
     /tmp/ccKtbbXa.s:2452   .text.lla_of_ecef_i:0000000000000000 $t
     /tmp/ccKtbbXa.s:2570   .text.lla_of_ecef_i:00000000000000f8 $d
     /tmp/ccKtbbXa.s:2580   .text.ecef_of_lla_i:0000000000000000 $t
     /tmp/ccKtbbXa.s:2698   .text.ecef_of_lla_i:00000000000000f8 $d
     /tmp/ccKtbbXa.s:2708   .rodata.serie_coeff_proj_mercator:0000000000000000 $d
     /tmp/ccKtbbXa.s:2711   .rodata.serie_coeff_proj_mercator:0000000000000000 serie_coeff_proj_mercator
     /tmp/ccKtbbXa.s:2718   .rodata.serie_coeff_proj_mercator_inverse:0000000000000000 $d
     /tmp/ccKtbbXa.s:2721   .rodata.serie_coeff_proj_mercator_inverse:0000000000000000 serie_coeff_proj_mercator_inverse
     /tmp/ccKtbbXa.s:2728   .text.utm_of_lla_i:0000000000000000 $t
ARM GAS  /tmp/ccKtbbXa.s 			page 432


     /tmp/ccKtbbXa.s:2736   .text.utm_of_lla_i:0000000000000000 utm_of_lla_i
     /tmp/ccKtbbXa.s:2854   .text.utm_of_lla_i:0000000000000108 $d
     /tmp/ccKtbbXa.s:2864   .text.lla_of_utm_i:0000000000000000 $t
     /tmp/ccKtbbXa.s:2872   .text.lla_of_utm_i:0000000000000000 lla_of_utm_i
     /tmp/ccKtbbXa.s:2985   .text.lla_of_utm_i:0000000000000100 $d
                           .group:0000000000000000 wm4.0.69e5d6bfed3ffb311b2d25f556d4a257
                           .group:0000000000000000 wm4.pprz_geodetic.h.35.f3fa96d246078502d67afc0af687adaf
                           .group:0000000000000000 wm4._newlib_version.h.4.1ef4e12f167f8b69d7c30054be56050d
                           .group:0000000000000000 wm4.newlib.h.21.1ae2897bc09bbe4bc80ffb801fb02432
                           .group:0000000000000000 wm4.ieeefp.h.77.f33a4dce62116f6f5175ff8bae57a54c
                           .group:0000000000000000 wm4.features.h.22.026edb2397769f4ae13f35900dbdb560
                           .group:0000000000000000 wm4.config.h.224.c701144a7b0518c6ee9b9b5465b79f81
                           .group:0000000000000000 wm4._intsup.h.10.48bafbb683905c4daa4565a85aeeb264
                           .group:0000000000000000 wm4._ansi.h.8.aeadd4934928258a76627d21910677e3
                           .group:0000000000000000 wm4.stdint.h.29.6d480f4ba0f60596e88234283d42444f
                           .group:0000000000000000 wm4.stddef.h.260.a563f68b1b4acaeb10448e3f261a0d35
                           .group:0000000000000000 wm4.inttypes.h.28.1ed17ee9a58d8e8e1affb7ef0fc5d620
                           .group:0000000000000000 wm4.stdbool.h.29.07dce69c3b78884144b7f7bd19483461
                           .group:0000000000000000 wm4.stddef.h.39.d8490dfca3ef380c55ad4ddecdce92a9
                           .group:0000000000000000 wm4._types.h.20.dd0d04dca3800a0d2a6129b87f3adbb2
                           .group:0000000000000000 wm4.stddef.h.155.3588ebfdd1e8c7ede80509bb9c3b8009
                           .group:0000000000000000 wm4._default_types.h.6.959254cf5f09734ea7516c89e8bb21bd
                           .group:0000000000000000 wm4._types.h.127.34941de1b2539d59d5cac00e0dd27a45
                           .group:0000000000000000 wm4.reent.h.17.e292bf8b0bec6c96e131a54347145a30
                           .group:0000000000000000 wm4.lock.h.2.c0958401bd0ce484d507ee19aacab817
                           .group:0000000000000000 wm4.reent.h.77.dcd6129ff07fe81bd5636db29abe53b2
                           .group:0000000000000000 wm4.cdefs.h.49.3d0fe8ea14e93bda8c589d4f684b21b8
                           .group:0000000000000000 wm4.math.h.13.97100c05caf9f40dd9f5a3cda48ccc01
                           .group:0000000000000000 wm4.message_pragmas.h.2.19f9da639d3b857b5eedec0176791f43
                           .group:0000000000000000 wm4.std.h.41.98eaba0fe9afe518eab028a73a8ce0e2
                           .group:0000000000000000 wm4.float.h.29.cae0b78251c51e3ff449cb238a29ed5b
                           .group:0000000000000000 wm4.string.h.8.c4b8571ce60dff2817f43fec8b86aecd
                           .group:0000000000000000 wm4.stddef.h.155.ba788add86a0e365f264484f110c3c29
                           .group:0000000000000000 wm4.pprz_algebra.h.48.e27d96e216b5b7bc59138cb613a0c51a
                           .group:0000000000000000 wm4.pprz_trig_int.h.28.80b82b769e81d2cc0f45c792443353a0
                           .group:0000000000000000 wm4.stdlib.h.13.4ed386f5c1a80d71e72172885d946ef2
                           .group:0000000000000000 wm4.alloca.h.8.dfc0c703c47ec3e69746825b17d9e66d
                           .group:0000000000000000 wm4.stdlib.h.56.f4862cfbf4363a1db01842d5bdf72c18
                           .group:0000000000000000 wm4.pprz_algebra_int.h.68.47ddcb2493db04639df134fe827a9f17
                           .group:0000000000000000 wm4.pprz_geodetic_int.h.131.fe55107db2937b2451ed1b1fe994519e
                           .group:0000000000000000 wm4.pprz_algebra_float.h.99.3ecbbede49507432559ec22e1139225e
                           .group:0000000000000000 wm4.pprz_algebra_double.h.32.7f91f703899e017f221f03c67eb8c9df
                           .group:0000000000000000 wm4.pprz_geodetic_utm.h.31.75931423081a7967d00585c8ad115843

UNDEFINED SYMBOLS
__aeabi_i2d
__aeabi_dmul
__aeabi_ddiv
__aeabi_d2iz
sin
rint
cos
lla_of_ecef_d
ecef_of_lla_d
utm_of_lla_d
lla_of_utm_d
