ARM GAS  /tmp/ccrxQybi.s 			page 1


   1              		.cpu cortex-m4
   2              		.eabi_attribute 27, 1
   3              		.eabi_attribute 20, 1
   4              		.eabi_attribute 21, 1
   5              		.eabi_attribute 23, 3
   6              		.eabi_attribute 24, 1
   7              		.eabi_attribute 25, 1
   8              		.eabi_attribute 26, 1
   9              		.eabi_attribute 30, 6
  10              		.eabi_attribute 34, 1
  11              		.eabi_attribute 18, 4
  12              		.file	"pprz_orientation_conversion.c"
  13              		.text
  14              	.Ltext0:
  15              		.cfi_sections	.debug_frame
  16              		.section	.text.orientationCalcQuat_i,"ax",%progbits
  17              		.align	1
  18              		.p2align 4,,15
  19              		.global	orientationCalcQuat_i
  20              		.arch armv7e-m
  21              		.syntax unified
  22              		.thumb
  23              		.thumb_func
  24              		.fpu fpv4-sp-d16
  25              		.type	orientationCalcQuat_i, %function
  26              	orientationCalcQuat_i:
  27              	.LFB79:
  28              		.file 1 "math/pprz_orientation_conversion.c"
  29              		.loc 1 49 1
  30              		.cfi_startproc
  31              		@ args = 0, pretend = 0, frame = 8
  32              		@ frame_needed = 0, uses_anonymous_args = 0
  33 0000 00B5     		push	{lr}
  34              		.cfi_def_cfa_offset 4
  35              		.cfi_offset 14, -4
  36 0002 83B0     		sub	sp, sp, #12
  37              		.cfi_def_cfa_offset 16
  38 0004 0190     		str	r0, [sp, #4]
  39              		.loc 1 50 7
  40 0006 019B     		ldr	r3, [sp, #4]
  41 0008 1B78     		ldrb	r3, [r3]	@ zero_extendqisi2
  42 000a 03F00103 		and	r3, r3, #1
  43              		.loc 1 50 6
  44 000e 002B     		cmp	r3, #0
  45 0010 40F03381 		bne	.L9
  46              		.loc 1 54 7
  47 0014 019B     		ldr	r3, [sp, #4]
  48 0016 1B78     		ldrb	r3, [r3]	@ zero_extendqisi2
  49 0018 DB08     		lsrs	r3, r3, #3
  50 001a DBB2     		uxtb	r3, r3
  51 001c 03F00103 		and	r3, r3, #1
  52              		.loc 1 54 6
  53 0020 002B     		cmp	r3, #0
  54 0022 34D0     		beq	.L4
  55              		.loc 1 55 5
  56 0024 019B     		ldr	r3, [sp, #4]
  57 0026 D3ED117A 		vldr.32	s15, [r3, #68]
ARM GAS  /tmp/ccrxQybi.s 			page 2


  58 002a 9FED967A 		vldr.32	s14, .L10
  59 002e 67EE877A 		vmul.f32	s15, s15, s14
  60 0032 FDEEE77A 		vcvt.s32.f32	s15, s15
  61 0036 17EE902A 		vmov	r2, s15	@ int
  62 003a 019B     		ldr	r3, [sp, #4]
  63 003c 5A60     		str	r2, [r3, #4]
  64 003e 019B     		ldr	r3, [sp, #4]
  65 0040 D3ED127A 		vldr.32	s15, [r3, #72]
  66 0044 9FED8F7A 		vldr.32	s14, .L10
  67 0048 67EE877A 		vmul.f32	s15, s15, s14
  68 004c FDEEE77A 		vcvt.s32.f32	s15, s15
  69 0050 17EE902A 		vmov	r2, s15	@ int
  70 0054 019B     		ldr	r3, [sp, #4]
  71 0056 9A60     		str	r2, [r3, #8]
  72 0058 019B     		ldr	r3, [sp, #4]
  73 005a D3ED137A 		vldr.32	s15, [r3, #76]
  74 005e 9FED897A 		vldr.32	s14, .L10
  75 0062 67EE877A 		vmul.f32	s15, s15, s14
  76 0066 FDEEE77A 		vcvt.s32.f32	s15, s15
  77 006a 17EE902A 		vmov	r2, s15	@ int
  78 006e 019B     		ldr	r3, [sp, #4]
  79 0070 DA60     		str	r2, [r3, #12]
  80 0072 019B     		ldr	r3, [sp, #4]
  81 0074 D3ED147A 		vldr.32	s15, [r3, #80]
  82 0078 9FED827A 		vldr.32	s14, .L10
  83 007c 67EE877A 		vmul.f32	s15, s15, s14
  84 0080 FDEEE77A 		vcvt.s32.f32	s15, s15
  85 0084 17EE902A 		vmov	r2, s15	@ int
  86 0088 019B     		ldr	r3, [sp, #4]
  87 008a 1A61     		str	r2, [r3, #16]
  88 008c EDE0     		b	.L5
  89              	.L4:
  90              		.loc 1 56 14
  91 008e 019B     		ldr	r3, [sp, #4]
  92 0090 1B78     		ldrb	r3, [r3]	@ zero_extendqisi2
  93 0092 9B08     		lsrs	r3, r3, #2
  94 0094 DBB2     		uxtb	r3, r3
  95 0096 03F00103 		and	r3, r3, #1
  96              		.loc 1 56 13
  97 009a 002B     		cmp	r3, #0
  98 009c 08D0     		beq	.L6
  99              		.loc 1 57 5
 100 009e 019B     		ldr	r3, [sp, #4]
 101 00a0 1A1D     		adds	r2, r3, #4
 102 00a2 019B     		ldr	r3, [sp, #4]
 103 00a4 2033     		adds	r3, r3, #32
 104 00a6 1946     		mov	r1, r3
 105 00a8 1046     		mov	r0, r2
 106 00aa FFF7FEFF 		bl	int32_quat_of_rmat
 107 00ae DCE0     		b	.L5
 108              	.L6:
 109              		.loc 1 58 14
 110 00b0 019B     		ldr	r3, [sp, #4]
 111 00b2 1B78     		ldrb	r3, [r3]	@ zero_extendqisi2
 112 00b4 5B08     		lsrs	r3, r3, #1
 113 00b6 DBB2     		uxtb	r3, r3
 114 00b8 03F00103 		and	r3, r3, #1
ARM GAS  /tmp/ccrxQybi.s 			page 3


 115              		.loc 1 58 13
 116 00bc 002B     		cmp	r3, #0
 117 00be 08D0     		beq	.L7
 118              		.loc 1 59 5
 119 00c0 019B     		ldr	r3, [sp, #4]
 120 00c2 1A1D     		adds	r2, r3, #4
 121 00c4 019B     		ldr	r3, [sp, #4]
 122 00c6 1433     		adds	r3, r3, #20
 123 00c8 1946     		mov	r1, r3
 124 00ca 1046     		mov	r0, r2
 125 00cc FFF7FEFF 		bl	int32_quat_of_eulers
 126 00d0 CBE0     		b	.L5
 127              	.L7:
 128              		.loc 1 60 14
 129 00d2 019B     		ldr	r3, [sp, #4]
 130 00d4 1B78     		ldrb	r3, [r3]	@ zero_extendqisi2
 131 00d6 5B09     		lsrs	r3, r3, #5
 132 00d8 DBB2     		uxtb	r3, r3
 133 00da 03F00103 		and	r3, r3, #1
 134              		.loc 1 60 13
 135 00de 002B     		cmp	r3, #0
 136 00e0 00F08580 		beq	.L8
 137              		.loc 1 61 5
 138 00e4 019B     		ldr	r3, [sp, #4]
 139 00e6 D3ED187A 		vldr.32	s15, [r3, #96]
 140 00ea 9FED677A 		vldr.32	s14, .L10+4
 141 00ee 67EE877A 		vmul.f32	s15, s15, s14
 142 00f2 FDEEE77A 		vcvt.s32.f32	s15, s15
 143 00f6 17EE902A 		vmov	r2, s15	@ int
 144 00fa 019B     		ldr	r3, [sp, #4]
 145 00fc 1A62     		str	r2, [r3, #32]
 146 00fe 019B     		ldr	r3, [sp, #4]
 147 0100 D3ED197A 		vldr.32	s15, [r3, #100]
 148 0104 9FED607A 		vldr.32	s14, .L10+4
 149 0108 67EE877A 		vmul.f32	s15, s15, s14
 150 010c FDEEE77A 		vcvt.s32.f32	s15, s15
 151 0110 17EE902A 		vmov	r2, s15	@ int
 152 0114 019B     		ldr	r3, [sp, #4]
 153 0116 5A62     		str	r2, [r3, #36]
 154 0118 019B     		ldr	r3, [sp, #4]
 155 011a D3ED1A7A 		vldr.32	s15, [r3, #104]
 156 011e 9FED5A7A 		vldr.32	s14, .L10+4
 157 0122 67EE877A 		vmul.f32	s15, s15, s14
 158 0126 FDEEE77A 		vcvt.s32.f32	s15, s15
 159 012a 17EE902A 		vmov	r2, s15	@ int
 160 012e 019B     		ldr	r3, [sp, #4]
 161 0130 9A62     		str	r2, [r3, #40]
 162 0132 019B     		ldr	r3, [sp, #4]
 163 0134 D3ED1B7A 		vldr.32	s15, [r3, #108]
 164 0138 9FED537A 		vldr.32	s14, .L10+4
 165 013c 67EE877A 		vmul.f32	s15, s15, s14
 166 0140 FDEEE77A 		vcvt.s32.f32	s15, s15
 167 0144 17EE902A 		vmov	r2, s15	@ int
 168 0148 019B     		ldr	r3, [sp, #4]
 169 014a DA62     		str	r2, [r3, #44]
 170 014c 019B     		ldr	r3, [sp, #4]
 171 014e D3ED1C7A 		vldr.32	s15, [r3, #112]
ARM GAS  /tmp/ccrxQybi.s 			page 4


 172 0152 9FED4D7A 		vldr.32	s14, .L10+4
 173 0156 67EE877A 		vmul.f32	s15, s15, s14
 174 015a FDEEE77A 		vcvt.s32.f32	s15, s15
 175 015e 17EE902A 		vmov	r2, s15	@ int
 176 0162 019B     		ldr	r3, [sp, #4]
 177 0164 1A63     		str	r2, [r3, #48]
 178 0166 019B     		ldr	r3, [sp, #4]
 179 0168 D3ED1D7A 		vldr.32	s15, [r3, #116]
 180 016c 9FED467A 		vldr.32	s14, .L10+4
 181 0170 67EE877A 		vmul.f32	s15, s15, s14
 182 0174 FDEEE77A 		vcvt.s32.f32	s15, s15
 183 0178 17EE902A 		vmov	r2, s15	@ int
 184 017c 019B     		ldr	r3, [sp, #4]
 185 017e 5A63     		str	r2, [r3, #52]
 186 0180 019B     		ldr	r3, [sp, #4]
 187 0182 D3ED1E7A 		vldr.32	s15, [r3, #120]
 188 0186 9FED407A 		vldr.32	s14, .L10+4
 189 018a 67EE877A 		vmul.f32	s15, s15, s14
 190 018e FDEEE77A 		vcvt.s32.f32	s15, s15
 191 0192 17EE902A 		vmov	r2, s15	@ int
 192 0196 019B     		ldr	r3, [sp, #4]
 193 0198 9A63     		str	r2, [r3, #56]
 194 019a 019B     		ldr	r3, [sp, #4]
 195 019c D3ED1F7A 		vldr.32	s15, [r3, #124]
 196 01a0 9FED397A 		vldr.32	s14, .L10+4
 197 01a4 67EE877A 		vmul.f32	s15, s15, s14
 198 01a8 FDEEE77A 		vcvt.s32.f32	s15, s15
 199 01ac 17EE902A 		vmov	r2, s15	@ int
 200 01b0 019B     		ldr	r3, [sp, #4]
 201 01b2 DA63     		str	r2, [r3, #60]
 202 01b4 019B     		ldr	r3, [sp, #4]
 203 01b6 D3ED207A 		vldr.32	s15, [r3, #128]
 204 01ba 9FED337A 		vldr.32	s14, .L10+4
 205 01be 67EE877A 		vmul.f32	s15, s15, s14
 206 01c2 FDEEE77A 		vcvt.s32.f32	s15, s15
 207 01c6 17EE902A 		vmov	r2, s15	@ int
 208 01ca 019B     		ldr	r3, [sp, #4]
 209 01cc 1A64     		str	r2, [r3, #64]
 210              		.loc 1 62 5
 211 01ce 019B     		ldr	r3, [sp, #4]
 212 01d0 1B78     		ldrb	r3, [r3]	@ zero_extendqisi2
 213 01d2 43F00403 		orr	r3, r3, #4
 214 01d6 DAB2     		uxtb	r2, r3
 215 01d8 019B     		ldr	r3, [sp, #4]
 216 01da 1A70     		strb	r2, [r3]
 217              		.loc 1 63 5
 218 01dc 019B     		ldr	r3, [sp, #4]
 219 01de 1A1D     		adds	r2, r3, #4
 220 01e0 019B     		ldr	r3, [sp, #4]
 221 01e2 2033     		adds	r3, r3, #32
 222 01e4 1946     		mov	r1, r3
 223 01e6 1046     		mov	r0, r2
 224 01e8 FFF7FEFF 		bl	int32_quat_of_rmat
 225 01ec 3DE0     		b	.L5
 226              	.L8:
 227              		.loc 1 64 14
 228 01ee 019B     		ldr	r3, [sp, #4]
ARM GAS  /tmp/ccrxQybi.s 			page 5


 229 01f0 1B78     		ldrb	r3, [r3]	@ zero_extendqisi2
 230 01f2 1B09     		lsrs	r3, r3, #4
 231 01f4 DBB2     		uxtb	r3, r3
 232 01f6 03F00103 		and	r3, r3, #1
 233              		.loc 1 64 13
 234 01fa 002B     		cmp	r3, #0
 235 01fc 35D0     		beq	.L5
 236              		.loc 1 65 5
 237 01fe 019B     		ldr	r3, [sp, #4]
 238 0200 D3ED157A 		vldr.32	s15, [r3, #84]
 239 0204 9FED217A 		vldr.32	s14, .L10+8
 240 0208 67EE877A 		vmul.f32	s15, s15, s14
 241 020c FDEEE77A 		vcvt.s32.f32	s15, s15
 242 0210 17EE902A 		vmov	r2, s15	@ int
 243 0214 019B     		ldr	r3, [sp, #4]
 244 0216 5A61     		str	r2, [r3, #20]
 245 0218 019B     		ldr	r3, [sp, #4]
 246 021a D3ED167A 		vldr.32	s15, [r3, #88]
 247 021e 9FED1B7A 		vldr.32	s14, .L10+8
 248 0222 67EE877A 		vmul.f32	s15, s15, s14
 249 0226 FDEEE77A 		vcvt.s32.f32	s15, s15
 250 022a 17EE902A 		vmov	r2, s15	@ int
 251 022e 019B     		ldr	r3, [sp, #4]
 252 0230 9A61     		str	r2, [r3, #24]
 253 0232 019B     		ldr	r3, [sp, #4]
 254 0234 D3ED177A 		vldr.32	s15, [r3, #92]
 255 0238 9FED147A 		vldr.32	s14, .L10+8
 256 023c 67EE877A 		vmul.f32	s15, s15, s14
 257 0240 FDEEE77A 		vcvt.s32.f32	s15, s15
 258 0244 17EE902A 		vmov	r2, s15	@ int
 259 0248 019B     		ldr	r3, [sp, #4]
 260 024a DA61     		str	r2, [r3, #28]
 261              		.loc 1 66 5
 262 024c 019B     		ldr	r3, [sp, #4]
 263 024e 1B78     		ldrb	r3, [r3]	@ zero_extendqisi2
 264 0250 43F00203 		orr	r3, r3, #2
 265 0254 DAB2     		uxtb	r2, r3
 266 0256 019B     		ldr	r3, [sp, #4]
 267 0258 1A70     		strb	r2, [r3]
 268              		.loc 1 67 5
 269 025a 019B     		ldr	r3, [sp, #4]
 270 025c 1A1D     		adds	r2, r3, #4
 271 025e 019B     		ldr	r3, [sp, #4]
 272 0260 1433     		adds	r3, r3, #20
 273 0262 1946     		mov	r1, r3
 274 0264 1046     		mov	r0, r2
 275 0266 FFF7FEFF 		bl	int32_quat_of_eulers
 276              	.L5:
 277              		.loc 1 70 3
 278 026a 019B     		ldr	r3, [sp, #4]
 279 026c 1B78     		ldrb	r3, [r3]	@ zero_extendqisi2
 280 026e 43F00103 		orr	r3, r3, #1
 281 0272 DAB2     		uxtb	r2, r3
 282 0274 019B     		ldr	r3, [sp, #4]
 283 0276 1A70     		strb	r2, [r3]
 284 0278 00E0     		b	.L1
 285              	.L9:
ARM GAS  /tmp/ccrxQybi.s 			page 6


 286              		.loc 1 51 5
 287 027a 00BF     		nop
 288              	.L1:
 289              		.loc 1 71 1
 290 027c 03B0     		add	sp, sp, #12
 291              		.cfi_def_cfa_offset 4
 292              		@ sp needed
 293 027e 5DF804FB 		ldr	pc, [sp], #4
 294              	.L11:
 295 0282 00BF     		.align	2
 296              	.L10:
 297 0284 00000047 		.word	1191182336
 298 0288 00008046 		.word	1182793728
 299 028c 00008045 		.word	1166016512
 300              		.cfi_endproc
 301              	.LFE79:
 302              		.size	orientationCalcQuat_i, .-orientationCalcQuat_i
 303              		.section	.text.orientationCalcRMat_i,"ax",%progbits
 304              		.align	1
 305              		.p2align 4,,15
 306              		.global	orientationCalcRMat_i
 307              		.syntax unified
 308              		.thumb
 309              		.thumb_func
 310              		.fpu fpv4-sp-d16
 311              		.type	orientationCalcRMat_i, %function
 312              	orientationCalcRMat_i:
 313              	.LFB80:
 314              		.loc 1 74 1
 315              		.cfi_startproc
 316              		@ args = 0, pretend = 0, frame = 8
 317              		@ frame_needed = 0, uses_anonymous_args = 0
 318 0000 00B5     		push	{lr}
 319              		.cfi_def_cfa_offset 4
 320              		.cfi_offset 14, -4
 321 0002 83B0     		sub	sp, sp, #12
 322              		.cfi_def_cfa_offset 16
 323 0004 0190     		str	r0, [sp, #4]
 324              		.loc 1 75 7
 325 0006 019B     		ldr	r3, [sp, #4]
 326 0008 1B78     		ldrb	r3, [r3]	@ zero_extendqisi2
 327 000a 9B08     		lsrs	r3, r3, #2
 328 000c DBB2     		uxtb	r3, r3
 329 000e 03F00103 		and	r3, r3, #1
 330              		.loc 1 75 6
 331 0012 002B     		cmp	r3, #0
 332 0014 40F03481 		bne	.L20
 333              		.loc 1 79 7
 334 0018 019B     		ldr	r3, [sp, #4]
 335 001a 1B78     		ldrb	r3, [r3]	@ zero_extendqisi2
 336 001c 5B09     		lsrs	r3, r3, #5
 337 001e DBB2     		uxtb	r3, r3
 338 0020 03F00103 		and	r3, r3, #1
 339              		.loc 1 79 6
 340 0024 002B     		cmp	r3, #0
 341 0026 75D0     		beq	.L15
 342              		.loc 1 80 5
ARM GAS  /tmp/ccrxQybi.s 			page 7


 343 0028 019B     		ldr	r3, [sp, #4]
 344 002a D3ED187A 		vldr.32	s15, [r3, #96]
 345 002e 9FED967A 		vldr.32	s14, .L21
 346 0032 67EE877A 		vmul.f32	s15, s15, s14
 347 0036 FDEEE77A 		vcvt.s32.f32	s15, s15
 348 003a 17EE902A 		vmov	r2, s15	@ int
 349 003e 019B     		ldr	r3, [sp, #4]
 350 0040 1A62     		str	r2, [r3, #32]
 351 0042 019B     		ldr	r3, [sp, #4]
 352 0044 D3ED197A 		vldr.32	s15, [r3, #100]
 353 0048 9FED8F7A 		vldr.32	s14, .L21
 354 004c 67EE877A 		vmul.f32	s15, s15, s14
 355 0050 FDEEE77A 		vcvt.s32.f32	s15, s15
 356 0054 17EE902A 		vmov	r2, s15	@ int
 357 0058 019B     		ldr	r3, [sp, #4]
 358 005a 5A62     		str	r2, [r3, #36]
 359 005c 019B     		ldr	r3, [sp, #4]
 360 005e D3ED1A7A 		vldr.32	s15, [r3, #104]
 361 0062 9FED897A 		vldr.32	s14, .L21
 362 0066 67EE877A 		vmul.f32	s15, s15, s14
 363 006a FDEEE77A 		vcvt.s32.f32	s15, s15
 364 006e 17EE902A 		vmov	r2, s15	@ int
 365 0072 019B     		ldr	r3, [sp, #4]
 366 0074 9A62     		str	r2, [r3, #40]
 367 0076 019B     		ldr	r3, [sp, #4]
 368 0078 D3ED1B7A 		vldr.32	s15, [r3, #108]
 369 007c 9FED827A 		vldr.32	s14, .L21
 370 0080 67EE877A 		vmul.f32	s15, s15, s14
 371 0084 FDEEE77A 		vcvt.s32.f32	s15, s15
 372 0088 17EE902A 		vmov	r2, s15	@ int
 373 008c 019B     		ldr	r3, [sp, #4]
 374 008e DA62     		str	r2, [r3, #44]
 375 0090 019B     		ldr	r3, [sp, #4]
 376 0092 D3ED1C7A 		vldr.32	s15, [r3, #112]
 377 0096 9FED7C7A 		vldr.32	s14, .L21
 378 009a 67EE877A 		vmul.f32	s15, s15, s14
 379 009e FDEEE77A 		vcvt.s32.f32	s15, s15
 380 00a2 17EE902A 		vmov	r2, s15	@ int
 381 00a6 019B     		ldr	r3, [sp, #4]
 382 00a8 1A63     		str	r2, [r3, #48]
 383 00aa 019B     		ldr	r3, [sp, #4]
 384 00ac D3ED1D7A 		vldr.32	s15, [r3, #116]
 385 00b0 9FED757A 		vldr.32	s14, .L21
 386 00b4 67EE877A 		vmul.f32	s15, s15, s14
 387 00b8 FDEEE77A 		vcvt.s32.f32	s15, s15
 388 00bc 17EE902A 		vmov	r2, s15	@ int
 389 00c0 019B     		ldr	r3, [sp, #4]
 390 00c2 5A63     		str	r2, [r3, #52]
 391 00c4 019B     		ldr	r3, [sp, #4]
 392 00c6 D3ED1E7A 		vldr.32	s15, [r3, #120]
 393 00ca 9FED6F7A 		vldr.32	s14, .L21
 394 00ce 67EE877A 		vmul.f32	s15, s15, s14
 395 00d2 FDEEE77A 		vcvt.s32.f32	s15, s15
 396 00d6 17EE902A 		vmov	r2, s15	@ int
 397 00da 019B     		ldr	r3, [sp, #4]
 398 00dc 9A63     		str	r2, [r3, #56]
 399 00de 019B     		ldr	r3, [sp, #4]
ARM GAS  /tmp/ccrxQybi.s 			page 8


 400 00e0 D3ED1F7A 		vldr.32	s15, [r3, #124]
 401 00e4 9FED687A 		vldr.32	s14, .L21
 402 00e8 67EE877A 		vmul.f32	s15, s15, s14
 403 00ec FDEEE77A 		vcvt.s32.f32	s15, s15
 404 00f0 17EE902A 		vmov	r2, s15	@ int
 405 00f4 019B     		ldr	r3, [sp, #4]
 406 00f6 DA63     		str	r2, [r3, #60]
 407 00f8 019B     		ldr	r3, [sp, #4]
 408 00fa D3ED207A 		vldr.32	s15, [r3, #128]
 409 00fe 9FED627A 		vldr.32	s14, .L21
 410 0102 67EE877A 		vmul.f32	s15, s15, s14
 411 0106 FDEEE77A 		vcvt.s32.f32	s15, s15
 412 010a 17EE902A 		vmov	r2, s15	@ int
 413 010e 019B     		ldr	r3, [sp, #4]
 414 0110 1A64     		str	r2, [r3, #64]
 415 0112 ADE0     		b	.L16
 416              	.L15:
 417              		.loc 1 81 14
 418 0114 019B     		ldr	r3, [sp, #4]
 419 0116 1B78     		ldrb	r3, [r3]	@ zero_extendqisi2
 420 0118 03F00103 		and	r3, r3, #1
 421              		.loc 1 81 13
 422 011c 002B     		cmp	r3, #0
 423 011e 09D0     		beq	.L17
 424              		.loc 1 82 5
 425 0120 019B     		ldr	r3, [sp, #4]
 426 0122 03F12002 		add	r2, r3, #32
 427 0126 019B     		ldr	r3, [sp, #4]
 428 0128 0433     		adds	r3, r3, #4
 429 012a 1946     		mov	r1, r3
 430 012c 1046     		mov	r0, r2
 431 012e FFF7FEFF 		bl	int32_rmat_of_quat
 432 0132 9DE0     		b	.L16
 433              	.L17:
 434              		.loc 1 83 14
 435 0134 019B     		ldr	r3, [sp, #4]
 436 0136 1B78     		ldrb	r3, [r3]	@ zero_extendqisi2
 437 0138 5B08     		lsrs	r3, r3, #1
 438 013a DBB2     		uxtb	r3, r3
 439 013c 03F00103 		and	r3, r3, #1
 440              		.loc 1 83 13
 441 0140 002B     		cmp	r3, #0
 442 0142 09D0     		beq	.L18
 443              		.loc 1 84 5
 444 0144 019B     		ldr	r3, [sp, #4]
 445 0146 03F12002 		add	r2, r3, #32
 446 014a 019B     		ldr	r3, [sp, #4]
 447 014c 1433     		adds	r3, r3, #20
 448 014e 1946     		mov	r1, r3
 449 0150 1046     		mov	r0, r2
 450 0152 FFF7FEFF 		bl	int32_rmat_of_eulers_321
 451 0156 8BE0     		b	.L16
 452              	.L18:
 453              		.loc 1 85 14
 454 0158 019B     		ldr	r3, [sp, #4]
 455 015a 1B78     		ldrb	r3, [r3]	@ zero_extendqisi2
 456 015c DB08     		lsrs	r3, r3, #3
ARM GAS  /tmp/ccrxQybi.s 			page 9


 457 015e DBB2     		uxtb	r3, r3
 458 0160 03F00103 		and	r3, r3, #1
 459              		.loc 1 85 13
 460 0164 002B     		cmp	r3, #0
 461 0166 44D0     		beq	.L19
 462              		.loc 1 86 5
 463 0168 019B     		ldr	r3, [sp, #4]
 464 016a D3ED117A 		vldr.32	s15, [r3, #68]
 465 016e 9FED477A 		vldr.32	s14, .L21+4
 466 0172 67EE877A 		vmul.f32	s15, s15, s14
 467 0176 FDEEE77A 		vcvt.s32.f32	s15, s15
 468 017a 17EE902A 		vmov	r2, s15	@ int
 469 017e 019B     		ldr	r3, [sp, #4]
 470 0180 5A60     		str	r2, [r3, #4]
 471 0182 019B     		ldr	r3, [sp, #4]
 472 0184 D3ED127A 		vldr.32	s15, [r3, #72]
 473 0188 9FED407A 		vldr.32	s14, .L21+4
 474 018c 67EE877A 		vmul.f32	s15, s15, s14
 475 0190 FDEEE77A 		vcvt.s32.f32	s15, s15
 476 0194 17EE902A 		vmov	r2, s15	@ int
 477 0198 019B     		ldr	r3, [sp, #4]
 478 019a 9A60     		str	r2, [r3, #8]
 479 019c 019B     		ldr	r3, [sp, #4]
 480 019e D3ED137A 		vldr.32	s15, [r3, #76]
 481 01a2 9FED3A7A 		vldr.32	s14, .L21+4
 482 01a6 67EE877A 		vmul.f32	s15, s15, s14
 483 01aa FDEEE77A 		vcvt.s32.f32	s15, s15
 484 01ae 17EE902A 		vmov	r2, s15	@ int
 485 01b2 019B     		ldr	r3, [sp, #4]
 486 01b4 DA60     		str	r2, [r3, #12]
 487 01b6 019B     		ldr	r3, [sp, #4]
 488 01b8 D3ED147A 		vldr.32	s15, [r3, #80]
 489 01bc 9FED337A 		vldr.32	s14, .L21+4
 490 01c0 67EE877A 		vmul.f32	s15, s15, s14
 491 01c4 FDEEE77A 		vcvt.s32.f32	s15, s15
 492 01c8 17EE902A 		vmov	r2, s15	@ int
 493 01cc 019B     		ldr	r3, [sp, #4]
 494 01ce 1A61     		str	r2, [r3, #16]
 495              		.loc 1 87 5
 496 01d0 019B     		ldr	r3, [sp, #4]
 497 01d2 1B78     		ldrb	r3, [r3]	@ zero_extendqisi2
 498 01d4 43F00103 		orr	r3, r3, #1
 499 01d8 DAB2     		uxtb	r2, r3
 500 01da 019B     		ldr	r3, [sp, #4]
 501 01dc 1A70     		strb	r2, [r3]
 502              		.loc 1 88 5
 503 01de 019B     		ldr	r3, [sp, #4]
 504 01e0 03F12002 		add	r2, r3, #32
 505 01e4 019B     		ldr	r3, [sp, #4]
 506 01e6 0433     		adds	r3, r3, #4
 507 01e8 1946     		mov	r1, r3
 508 01ea 1046     		mov	r0, r2
 509 01ec FFF7FEFF 		bl	int32_rmat_of_quat
 510 01f0 3EE0     		b	.L16
 511              	.L19:
 512              		.loc 1 89 14
 513 01f2 019B     		ldr	r3, [sp, #4]
ARM GAS  /tmp/ccrxQybi.s 			page 10


 514 01f4 1B78     		ldrb	r3, [r3]	@ zero_extendqisi2
 515 01f6 1B09     		lsrs	r3, r3, #4
 516 01f8 DBB2     		uxtb	r3, r3
 517 01fa 03F00103 		and	r3, r3, #1
 518              		.loc 1 89 13
 519 01fe 002B     		cmp	r3, #0
 520 0200 36D0     		beq	.L16
 521              		.loc 1 90 5
 522 0202 019B     		ldr	r3, [sp, #4]
 523 0204 D3ED157A 		vldr.32	s15, [r3, #84]
 524 0208 9FED217A 		vldr.32	s14, .L21+8
 525 020c 67EE877A 		vmul.f32	s15, s15, s14
 526 0210 FDEEE77A 		vcvt.s32.f32	s15, s15
 527 0214 17EE902A 		vmov	r2, s15	@ int
 528 0218 019B     		ldr	r3, [sp, #4]
 529 021a 5A61     		str	r2, [r3, #20]
 530 021c 019B     		ldr	r3, [sp, #4]
 531 021e D3ED167A 		vldr.32	s15, [r3, #88]
 532 0222 9FED1B7A 		vldr.32	s14, .L21+8
 533 0226 67EE877A 		vmul.f32	s15, s15, s14
 534 022a FDEEE77A 		vcvt.s32.f32	s15, s15
 535 022e 17EE902A 		vmov	r2, s15	@ int
 536 0232 019B     		ldr	r3, [sp, #4]
 537 0234 9A61     		str	r2, [r3, #24]
 538 0236 019B     		ldr	r3, [sp, #4]
 539 0238 D3ED177A 		vldr.32	s15, [r3, #92]
 540 023c 9FED147A 		vldr.32	s14, .L21+8
 541 0240 67EE877A 		vmul.f32	s15, s15, s14
 542 0244 FDEEE77A 		vcvt.s32.f32	s15, s15
 543 0248 17EE902A 		vmov	r2, s15	@ int
 544 024c 019B     		ldr	r3, [sp, #4]
 545 024e DA61     		str	r2, [r3, #28]
 546              		.loc 1 91 5
 547 0250 019B     		ldr	r3, [sp, #4]
 548 0252 1B78     		ldrb	r3, [r3]	@ zero_extendqisi2
 549 0254 43F00203 		orr	r3, r3, #2
 550 0258 DAB2     		uxtb	r2, r3
 551 025a 019B     		ldr	r3, [sp, #4]
 552 025c 1A70     		strb	r2, [r3]
 553              		.loc 1 92 5
 554 025e 019B     		ldr	r3, [sp, #4]
 555 0260 03F12002 		add	r2, r3, #32
 556 0264 019B     		ldr	r3, [sp, #4]
 557 0266 1433     		adds	r3, r3, #20
 558 0268 1946     		mov	r1, r3
 559 026a 1046     		mov	r0, r2
 560 026c FFF7FEFF 		bl	int32_rmat_of_eulers_321
 561              	.L16:
 562              		.loc 1 95 3
 563 0270 019B     		ldr	r3, [sp, #4]
 564 0272 1B78     		ldrb	r3, [r3]	@ zero_extendqisi2
 565 0274 43F00403 		orr	r3, r3, #4
 566 0278 DAB2     		uxtb	r2, r3
 567 027a 019B     		ldr	r3, [sp, #4]
 568 027c 1A70     		strb	r2, [r3]
 569 027e 00E0     		b	.L12
 570              	.L20:
ARM GAS  /tmp/ccrxQybi.s 			page 11


 571              		.loc 1 76 5
 572 0280 00BF     		nop
 573              	.L12:
 574              		.loc 1 96 1
 575 0282 03B0     		add	sp, sp, #12
 576              		.cfi_def_cfa_offset 4
 577              		@ sp needed
 578 0284 5DF804FB 		ldr	pc, [sp], #4
 579              	.L22:
 580              		.align	2
 581              	.L21:
 582 0288 00008046 		.word	1182793728
 583 028c 00000047 		.word	1191182336
 584 0290 00008045 		.word	1166016512
 585              		.cfi_endproc
 586              	.LFE80:
 587              		.size	orientationCalcRMat_i, .-orientationCalcRMat_i
 588              		.section	.text.orientationCalcEulers_i,"ax",%progbits
 589              		.align	1
 590              		.p2align 4,,15
 591              		.global	orientationCalcEulers_i
 592              		.syntax unified
 593              		.thumb
 594              		.thumb_func
 595              		.fpu fpv4-sp-d16
 596              		.type	orientationCalcEulers_i, %function
 597              	orientationCalcEulers_i:
 598              	.LFB81:
 599              		.loc 1 99 1
 600              		.cfi_startproc
 601              		@ args = 0, pretend = 0, frame = 8
 602              		@ frame_needed = 0, uses_anonymous_args = 0
 603 0000 00B5     		push	{lr}
 604              		.cfi_def_cfa_offset 4
 605              		.cfi_offset 14, -4
 606 0002 83B0     		sub	sp, sp, #12
 607              		.cfi_def_cfa_offset 16
 608 0004 0190     		str	r0, [sp, #4]
 609              		.loc 1 100 7
 610 0006 019B     		ldr	r3, [sp, #4]
 611 0008 1B78     		ldrb	r3, [r3]	@ zero_extendqisi2
 612 000a 5B08     		lsrs	r3, r3, #1
 613 000c DBB2     		uxtb	r3, r3
 614 000e 03F00103 		and	r3, r3, #1
 615              		.loc 1 100 6
 616 0012 002B     		cmp	r3, #0
 617 0014 40F03581 		bne	.L31
 618              		.loc 1 104 7
 619 0018 019B     		ldr	r3, [sp, #4]
 620 001a 1B78     		ldrb	r3, [r3]	@ zero_extendqisi2
 621 001c 1B09     		lsrs	r3, r3, #4
 622 001e DBB2     		uxtb	r3, r3
 623 0020 03F00103 		and	r3, r3, #1
 624              		.loc 1 104 6
 625 0024 002B     		cmp	r3, #0
 626 0026 27D0     		beq	.L26
 627              		.loc 1 105 5
ARM GAS  /tmp/ccrxQybi.s 			page 12


 628 0028 019B     		ldr	r3, [sp, #4]
 629 002a D3ED157A 		vldr.32	s15, [r3, #84]
 630 002e 9FED977A 		vldr.32	s14, .L32
 631 0032 67EE877A 		vmul.f32	s15, s15, s14
 632 0036 FDEEE77A 		vcvt.s32.f32	s15, s15
 633 003a 17EE902A 		vmov	r2, s15	@ int
 634 003e 019B     		ldr	r3, [sp, #4]
 635 0040 5A61     		str	r2, [r3, #20]
 636 0042 019B     		ldr	r3, [sp, #4]
 637 0044 D3ED167A 		vldr.32	s15, [r3, #88]
 638 0048 9FED907A 		vldr.32	s14, .L32
 639 004c 67EE877A 		vmul.f32	s15, s15, s14
 640 0050 FDEEE77A 		vcvt.s32.f32	s15, s15
 641 0054 17EE902A 		vmov	r2, s15	@ int
 642 0058 019B     		ldr	r3, [sp, #4]
 643 005a 9A61     		str	r2, [r3, #24]
 644 005c 019B     		ldr	r3, [sp, #4]
 645 005e D3ED177A 		vldr.32	s15, [r3, #92]
 646 0062 9FED8A7A 		vldr.32	s14, .L32
 647 0066 67EE877A 		vmul.f32	s15, s15, s14
 648 006a FDEEE77A 		vcvt.s32.f32	s15, s15
 649 006e 17EE902A 		vmov	r2, s15	@ int
 650 0072 019B     		ldr	r3, [sp, #4]
 651 0074 DA61     		str	r2, [r3, #28]
 652 0076 FCE0     		b	.L27
 653              	.L26:
 654              		.loc 1 106 14
 655 0078 019B     		ldr	r3, [sp, #4]
 656 007a 1B78     		ldrb	r3, [r3]	@ zero_extendqisi2
 657 007c 9B08     		lsrs	r3, r3, #2
 658 007e DBB2     		uxtb	r3, r3
 659 0080 03F00103 		and	r3, r3, #1
 660              		.loc 1 106 13
 661 0084 002B     		cmp	r3, #0
 662 0086 09D0     		beq	.L28
 663              		.loc 1 107 5
 664 0088 019B     		ldr	r3, [sp, #4]
 665 008a 03F11402 		add	r2, r3, #20
 666 008e 019B     		ldr	r3, [sp, #4]
 667 0090 2033     		adds	r3, r3, #32
 668 0092 1946     		mov	r1, r3
 669 0094 1046     		mov	r0, r2
 670 0096 FFF7FEFF 		bl	int32_eulers_of_rmat
 671 009a EAE0     		b	.L27
 672              	.L28:
 673              		.loc 1 108 14
 674 009c 019B     		ldr	r3, [sp, #4]
 675 009e 1B78     		ldrb	r3, [r3]	@ zero_extendqisi2
 676 00a0 03F00103 		and	r3, r3, #1
 677              		.loc 1 108 13
 678 00a4 002B     		cmp	r3, #0
 679 00a6 09D0     		beq	.L29
 680              		.loc 1 109 5
 681 00a8 019B     		ldr	r3, [sp, #4]
 682 00aa 03F11402 		add	r2, r3, #20
 683 00ae 019B     		ldr	r3, [sp, #4]
 684 00b0 0433     		adds	r3, r3, #4
ARM GAS  /tmp/ccrxQybi.s 			page 13


 685 00b2 1946     		mov	r1, r3
 686 00b4 1046     		mov	r0, r2
 687 00b6 FFF7FEFF 		bl	int32_eulers_of_quat
 688 00ba DAE0     		b	.L27
 689              	.L29:
 690              		.loc 1 110 14
 691 00bc 019B     		ldr	r3, [sp, #4]
 692 00be 1B78     		ldrb	r3, [r3]	@ zero_extendqisi2
 693 00c0 5B09     		lsrs	r3, r3, #5
 694 00c2 DBB2     		uxtb	r3, r3
 695 00c4 03F00103 		and	r3, r3, #1
 696              		.loc 1 110 13
 697 00c8 002B     		cmp	r3, #0
 698 00ca 00F08680 		beq	.L30
 699              		.loc 1 111 5
 700 00ce 019B     		ldr	r3, [sp, #4]
 701 00d0 D3ED187A 		vldr.32	s15, [r3, #96]
 702 00d4 9FED6E7A 		vldr.32	s14, .L32+4
 703 00d8 67EE877A 		vmul.f32	s15, s15, s14
 704 00dc FDEEE77A 		vcvt.s32.f32	s15, s15
 705 00e0 17EE902A 		vmov	r2, s15	@ int
 706 00e4 019B     		ldr	r3, [sp, #4]
 707 00e6 1A62     		str	r2, [r3, #32]
 708 00e8 019B     		ldr	r3, [sp, #4]
 709 00ea D3ED197A 		vldr.32	s15, [r3, #100]
 710 00ee 9FED687A 		vldr.32	s14, .L32+4
 711 00f2 67EE877A 		vmul.f32	s15, s15, s14
 712 00f6 FDEEE77A 		vcvt.s32.f32	s15, s15
 713 00fa 17EE902A 		vmov	r2, s15	@ int
 714 00fe 019B     		ldr	r3, [sp, #4]
 715 0100 5A62     		str	r2, [r3, #36]
 716 0102 019B     		ldr	r3, [sp, #4]
 717 0104 D3ED1A7A 		vldr.32	s15, [r3, #104]
 718 0108 9FED617A 		vldr.32	s14, .L32+4
 719 010c 67EE877A 		vmul.f32	s15, s15, s14
 720 0110 FDEEE77A 		vcvt.s32.f32	s15, s15
 721 0114 17EE902A 		vmov	r2, s15	@ int
 722 0118 019B     		ldr	r3, [sp, #4]
 723 011a 9A62     		str	r2, [r3, #40]
 724 011c 019B     		ldr	r3, [sp, #4]
 725 011e D3ED1B7A 		vldr.32	s15, [r3, #108]
 726 0122 9FED5B7A 		vldr.32	s14, .L32+4
 727 0126 67EE877A 		vmul.f32	s15, s15, s14
 728 012a FDEEE77A 		vcvt.s32.f32	s15, s15
 729 012e 17EE902A 		vmov	r2, s15	@ int
 730 0132 019B     		ldr	r3, [sp, #4]
 731 0134 DA62     		str	r2, [r3, #44]
 732 0136 019B     		ldr	r3, [sp, #4]
 733 0138 D3ED1C7A 		vldr.32	s15, [r3, #112]
 734 013c 9FED547A 		vldr.32	s14, .L32+4
 735 0140 67EE877A 		vmul.f32	s15, s15, s14
 736 0144 FDEEE77A 		vcvt.s32.f32	s15, s15
 737 0148 17EE902A 		vmov	r2, s15	@ int
 738 014c 019B     		ldr	r3, [sp, #4]
 739 014e 1A63     		str	r2, [r3, #48]
 740 0150 019B     		ldr	r3, [sp, #4]
 741 0152 D3ED1D7A 		vldr.32	s15, [r3, #116]
ARM GAS  /tmp/ccrxQybi.s 			page 14


 742 0156 9FED4E7A 		vldr.32	s14, .L32+4
 743 015a 67EE877A 		vmul.f32	s15, s15, s14
 744 015e FDEEE77A 		vcvt.s32.f32	s15, s15
 745 0162 17EE902A 		vmov	r2, s15	@ int
 746 0166 019B     		ldr	r3, [sp, #4]
 747 0168 5A63     		str	r2, [r3, #52]
 748 016a 019B     		ldr	r3, [sp, #4]
 749 016c D3ED1E7A 		vldr.32	s15, [r3, #120]
 750 0170 9FED477A 		vldr.32	s14, .L32+4
 751 0174 67EE877A 		vmul.f32	s15, s15, s14
 752 0178 FDEEE77A 		vcvt.s32.f32	s15, s15
 753 017c 17EE902A 		vmov	r2, s15	@ int
 754 0180 019B     		ldr	r3, [sp, #4]
 755 0182 9A63     		str	r2, [r3, #56]
 756 0184 019B     		ldr	r3, [sp, #4]
 757 0186 D3ED1F7A 		vldr.32	s15, [r3, #124]
 758 018a 9FED417A 		vldr.32	s14, .L32+4
 759 018e 67EE877A 		vmul.f32	s15, s15, s14
 760 0192 FDEEE77A 		vcvt.s32.f32	s15, s15
 761 0196 17EE902A 		vmov	r2, s15	@ int
 762 019a 019B     		ldr	r3, [sp, #4]
 763 019c DA63     		str	r2, [r3, #60]
 764 019e 019B     		ldr	r3, [sp, #4]
 765 01a0 D3ED207A 		vldr.32	s15, [r3, #128]
 766 01a4 9FED3A7A 		vldr.32	s14, .L32+4
 767 01a8 67EE877A 		vmul.f32	s15, s15, s14
 768 01ac FDEEE77A 		vcvt.s32.f32	s15, s15
 769 01b0 17EE902A 		vmov	r2, s15	@ int
 770 01b4 019B     		ldr	r3, [sp, #4]
 771 01b6 1A64     		str	r2, [r3, #64]
 772              		.loc 1 112 5
 773 01b8 019B     		ldr	r3, [sp, #4]
 774 01ba 1B78     		ldrb	r3, [r3]	@ zero_extendqisi2
 775 01bc 43F00403 		orr	r3, r3, #4
 776 01c0 DAB2     		uxtb	r2, r3
 777 01c2 019B     		ldr	r3, [sp, #4]
 778 01c4 1A70     		strb	r2, [r3]
 779              		.loc 1 113 5
 780 01c6 019B     		ldr	r3, [sp, #4]
 781 01c8 03F11402 		add	r2, r3, #20
 782 01cc 019B     		ldr	r3, [sp, #4]
 783 01ce 2033     		adds	r3, r3, #32
 784 01d0 1946     		mov	r1, r3
 785 01d2 1046     		mov	r0, r2
 786 01d4 FFF7FEFF 		bl	int32_eulers_of_rmat
 787 01d8 4BE0     		b	.L27
 788              	.L30:
 789              		.loc 1 114 14
 790 01da 019B     		ldr	r3, [sp, #4]
 791 01dc 1B78     		ldrb	r3, [r3]	@ zero_extendqisi2
 792 01de DB08     		lsrs	r3, r3, #3
 793 01e0 DBB2     		uxtb	r3, r3
 794 01e2 03F00103 		and	r3, r3, #1
 795              		.loc 1 114 13
 796 01e6 002B     		cmp	r3, #0
 797 01e8 43D0     		beq	.L27
 798              		.loc 1 115 5
ARM GAS  /tmp/ccrxQybi.s 			page 15


 799 01ea 019B     		ldr	r3, [sp, #4]
 800 01ec D3ED117A 		vldr.32	s15, [r3, #68]
 801 01f0 9FED287A 		vldr.32	s14, .L32+8
 802 01f4 67EE877A 		vmul.f32	s15, s15, s14
 803 01f8 FDEEE77A 		vcvt.s32.f32	s15, s15
 804 01fc 17EE902A 		vmov	r2, s15	@ int
 805 0200 019B     		ldr	r3, [sp, #4]
 806 0202 5A60     		str	r2, [r3, #4]
 807 0204 019B     		ldr	r3, [sp, #4]
 808 0206 D3ED127A 		vldr.32	s15, [r3, #72]
 809 020a 9FED227A 		vldr.32	s14, .L32+8
 810 020e 67EE877A 		vmul.f32	s15, s15, s14
 811 0212 FDEEE77A 		vcvt.s32.f32	s15, s15
 812 0216 17EE902A 		vmov	r2, s15	@ int
 813 021a 019B     		ldr	r3, [sp, #4]
 814 021c 9A60     		str	r2, [r3, #8]
 815 021e 019B     		ldr	r3, [sp, #4]
 816 0220 D3ED137A 		vldr.32	s15, [r3, #76]
 817 0224 9FED1B7A 		vldr.32	s14, .L32+8
 818 0228 67EE877A 		vmul.f32	s15, s15, s14
 819 022c FDEEE77A 		vcvt.s32.f32	s15, s15
 820 0230 17EE902A 		vmov	r2, s15	@ int
 821 0234 019B     		ldr	r3, [sp, #4]
 822 0236 DA60     		str	r2, [r3, #12]
 823 0238 019B     		ldr	r3, [sp, #4]
 824 023a D3ED147A 		vldr.32	s15, [r3, #80]
 825 023e 9FED157A 		vldr.32	s14, .L32+8
 826 0242 67EE877A 		vmul.f32	s15, s15, s14
 827 0246 FDEEE77A 		vcvt.s32.f32	s15, s15
 828 024a 17EE902A 		vmov	r2, s15	@ int
 829 024e 019B     		ldr	r3, [sp, #4]
 830 0250 1A61     		str	r2, [r3, #16]
 831              		.loc 1 116 5
 832 0252 019B     		ldr	r3, [sp, #4]
 833 0254 1B78     		ldrb	r3, [r3]	@ zero_extendqisi2
 834 0256 43F00103 		orr	r3, r3, #1
 835 025a DAB2     		uxtb	r2, r3
 836 025c 019B     		ldr	r3, [sp, #4]
 837 025e 1A70     		strb	r2, [r3]
 838              		.loc 1 117 5
 839 0260 019B     		ldr	r3, [sp, #4]
 840 0262 03F11402 		add	r2, r3, #20
 841 0266 019B     		ldr	r3, [sp, #4]
 842 0268 0433     		adds	r3, r3, #4
 843 026a 1946     		mov	r1, r3
 844 026c 1046     		mov	r0, r2
 845 026e FFF7FEFF 		bl	int32_eulers_of_quat
 846              	.L27:
 847              		.loc 1 120 3
 848 0272 019B     		ldr	r3, [sp, #4]
 849 0274 1B78     		ldrb	r3, [r3]	@ zero_extendqisi2
 850 0276 43F00203 		orr	r3, r3, #2
 851 027a DAB2     		uxtb	r2, r3
 852 027c 019B     		ldr	r3, [sp, #4]
 853 027e 1A70     		strb	r2, [r3]
 854 0280 00E0     		b	.L23
 855              	.L31:
ARM GAS  /tmp/ccrxQybi.s 			page 16


 856              		.loc 1 101 5
 857 0282 00BF     		nop
 858              	.L23:
 859              		.loc 1 121 1
 860 0284 03B0     		add	sp, sp, #12
 861              		.cfi_def_cfa_offset 4
 862              		@ sp needed
 863 0286 5DF804FB 		ldr	pc, [sp], #4
 864              	.L33:
 865 028a 00BF     		.align	2
 866              	.L32:
 867 028c 00008045 		.word	1166016512
 868 0290 00008046 		.word	1182793728
 869 0294 00000047 		.word	1191182336
 870              		.cfi_endproc
 871              	.LFE81:
 872              		.size	orientationCalcEulers_i, .-orientationCalcEulers_i
 873              		.section	.text.orientationCalcQuat_f,"ax",%progbits
 874              		.align	1
 875              		.p2align 4,,15
 876              		.global	orientationCalcQuat_f
 877              		.syntax unified
 878              		.thumb
 879              		.thumb_func
 880              		.fpu fpv4-sp-d16
 881              		.type	orientationCalcQuat_f, %function
 882              	orientationCalcQuat_f:
 883              	.LFB82:
 884              		.loc 1 124 1
 885              		.cfi_startproc
 886              		@ args = 0, pretend = 0, frame = 8
 887              		@ frame_needed = 0, uses_anonymous_args = 0
 888 0000 00B5     		push	{lr}
 889              		.cfi_def_cfa_offset 4
 890              		.cfi_offset 14, -4
 891 0002 83B0     		sub	sp, sp, #12
 892              		.cfi_def_cfa_offset 16
 893 0004 0190     		str	r0, [sp, #4]
 894              		.loc 1 125 7
 895 0006 019B     		ldr	r3, [sp, #4]
 896 0008 1B78     		ldrb	r3, [r3]	@ zero_extendqisi2
 897 000a DB08     		lsrs	r3, r3, #3
 898 000c DBB2     		uxtb	r3, r3
 899 000e 03F00103 		and	r3, r3, #1
 900              		.loc 1 125 6
 901 0012 002B     		cmp	r3, #0
 902 0014 40F03581 		bne	.L42
 903              		.loc 1 129 7
 904 0018 019B     		ldr	r3, [sp, #4]
 905 001a 1B78     		ldrb	r3, [r3]	@ zero_extendqisi2
 906 001c 03F00103 		and	r3, r3, #1
 907              		.loc 1 129 6
 908 0020 002B     		cmp	r3, #0
 909 0022 34D0     		beq	.L37
 910              		.loc 1 130 5
 911 0024 019B     		ldr	r3, [sp, #4]
 912 0026 5B68     		ldr	r3, [r3, #4]
ARM GAS  /tmp/ccrxQybi.s 			page 17


 913 0028 07EE903A 		vmov	s15, r3	@ int
 914 002c B8EEE77A 		vcvt.f32.s32	s14, s15
 915 0030 DFED966A 		vldr.32	s13, .L43
 916 0034 C7EE267A 		vdiv.f32	s15, s14, s13
 917 0038 019B     		ldr	r3, [sp, #4]
 918 003a C3ED117A 		vstr.32	s15, [r3, #68]
 919 003e 019B     		ldr	r3, [sp, #4]
 920 0040 9B68     		ldr	r3, [r3, #8]
 921 0042 07EE903A 		vmov	s15, r3	@ int
 922 0046 B8EEE77A 		vcvt.f32.s32	s14, s15
 923 004a DFED906A 		vldr.32	s13, .L43
 924 004e C7EE267A 		vdiv.f32	s15, s14, s13
 925 0052 019B     		ldr	r3, [sp, #4]
 926 0054 C3ED127A 		vstr.32	s15, [r3, #72]
 927 0058 019B     		ldr	r3, [sp, #4]
 928 005a DB68     		ldr	r3, [r3, #12]
 929 005c 07EE903A 		vmov	s15, r3	@ int
 930 0060 B8EEE77A 		vcvt.f32.s32	s14, s15
 931 0064 DFED896A 		vldr.32	s13, .L43
 932 0068 C7EE267A 		vdiv.f32	s15, s14, s13
 933 006c 019B     		ldr	r3, [sp, #4]
 934 006e C3ED137A 		vstr.32	s15, [r3, #76]
 935 0072 019B     		ldr	r3, [sp, #4]
 936 0074 1B69     		ldr	r3, [r3, #16]
 937 0076 07EE903A 		vmov	s15, r3	@ int
 938 007a B8EEE77A 		vcvt.f32.s32	s14, s15
 939 007e DFED836A 		vldr.32	s13, .L43
 940 0082 C7EE267A 		vdiv.f32	s15, s14, s13
 941 0086 019B     		ldr	r3, [sp, #4]
 942 0088 C3ED147A 		vstr.32	s15, [r3, #80]
 943 008c F1E0     		b	.L38
 944              	.L37:
 945              		.loc 1 131 14
 946 008e 019B     		ldr	r3, [sp, #4]
 947 0090 1B78     		ldrb	r3, [r3]	@ zero_extendqisi2
 948 0092 5B09     		lsrs	r3, r3, #5
 949 0094 DBB2     		uxtb	r3, r3
 950 0096 03F00103 		and	r3, r3, #1
 951              		.loc 1 131 13
 952 009a 002B     		cmp	r3, #0
 953 009c 09D0     		beq	.L39
 954              		.loc 1 132 5
 955 009e 019B     		ldr	r3, [sp, #4]
 956 00a0 03F14402 		add	r2, r3, #68
 957 00a4 019B     		ldr	r3, [sp, #4]
 958 00a6 6033     		adds	r3, r3, #96
 959 00a8 1946     		mov	r1, r3
 960 00aa 1046     		mov	r0, r2
 961 00ac FFF7FEFF 		bl	float_quat_of_rmat
 962 00b0 DFE0     		b	.L38
 963              	.L39:
 964              		.loc 1 133 14
 965 00b2 019B     		ldr	r3, [sp, #4]
 966 00b4 1B78     		ldrb	r3, [r3]	@ zero_extendqisi2
 967 00b6 1B09     		lsrs	r3, r3, #4
 968 00b8 DBB2     		uxtb	r3, r3
 969 00ba 03F00103 		and	r3, r3, #1
ARM GAS  /tmp/ccrxQybi.s 			page 18


 970              		.loc 1 133 13
 971 00be 002B     		cmp	r3, #0
 972 00c0 09D0     		beq	.L40
 973              		.loc 1 134 5
 974 00c2 019B     		ldr	r3, [sp, #4]
 975 00c4 03F14402 		add	r2, r3, #68
 976 00c8 019B     		ldr	r3, [sp, #4]
 977 00ca 5433     		adds	r3, r3, #84
 978 00cc 1946     		mov	r1, r3
 979 00ce 1046     		mov	r0, r2
 980 00d0 FFF7FEFF 		bl	float_quat_of_eulers
 981 00d4 CDE0     		b	.L38
 982              	.L40:
 983              		.loc 1 135 14
 984 00d6 019B     		ldr	r3, [sp, #4]
 985 00d8 1B78     		ldrb	r3, [r3]	@ zero_extendqisi2
 986 00da 9B08     		lsrs	r3, r3, #2
 987 00dc DBB2     		uxtb	r3, r3
 988 00de 03F00103 		and	r3, r3, #1
 989              		.loc 1 135 13
 990 00e2 002B     		cmp	r3, #0
 991 00e4 00F08680 		beq	.L41
 992              		.loc 1 136 5
 993 00e8 019B     		ldr	r3, [sp, #4]
 994 00ea 1B6A     		ldr	r3, [r3, #32]
 995 00ec 07EE903A 		vmov	s15, r3	@ int
 996 00f0 B8EEE77A 		vcvt.f32.s32	s14, s15
 997 00f4 DFED666A 		vldr.32	s13, .L43+4
 998 00f8 C7EE267A 		vdiv.f32	s15, s14, s13
 999 00fc 019B     		ldr	r3, [sp, #4]
 1000 00fe C3ED187A 		vstr.32	s15, [r3, #96]
 1001 0102 019B     		ldr	r3, [sp, #4]
 1002 0104 5B6A     		ldr	r3, [r3, #36]
 1003 0106 07EE903A 		vmov	s15, r3	@ int
 1004 010a B8EEE77A 		vcvt.f32.s32	s14, s15
 1005 010e DFED606A 		vldr.32	s13, .L43+4
 1006 0112 C7EE267A 		vdiv.f32	s15, s14, s13
 1007 0116 019B     		ldr	r3, [sp, #4]
 1008 0118 C3ED197A 		vstr.32	s15, [r3, #100]
 1009 011c 019B     		ldr	r3, [sp, #4]
 1010 011e 9B6A     		ldr	r3, [r3, #40]
 1011 0120 07EE903A 		vmov	s15, r3	@ int
 1012 0124 B8EEE77A 		vcvt.f32.s32	s14, s15
 1013 0128 DFED596A 		vldr.32	s13, .L43+4
 1014 012c C7EE267A 		vdiv.f32	s15, s14, s13
 1015 0130 019B     		ldr	r3, [sp, #4]
 1016 0132 C3ED1A7A 		vstr.32	s15, [r3, #104]
 1017 0136 019B     		ldr	r3, [sp, #4]
 1018 0138 DB6A     		ldr	r3, [r3, #44]
 1019 013a 07EE903A 		vmov	s15, r3	@ int
 1020 013e B8EEE77A 		vcvt.f32.s32	s14, s15
 1021 0142 DFED536A 		vldr.32	s13, .L43+4
 1022 0146 C7EE267A 		vdiv.f32	s15, s14, s13
 1023 014a 019B     		ldr	r3, [sp, #4]
 1024 014c C3ED1B7A 		vstr.32	s15, [r3, #108]
 1025 0150 019B     		ldr	r3, [sp, #4]
 1026 0152 1B6B     		ldr	r3, [r3, #48]
ARM GAS  /tmp/ccrxQybi.s 			page 19


 1027 0154 07EE903A 		vmov	s15, r3	@ int
 1028 0158 B8EEE77A 		vcvt.f32.s32	s14, s15
 1029 015c DFED4C6A 		vldr.32	s13, .L43+4
 1030 0160 C7EE267A 		vdiv.f32	s15, s14, s13
 1031 0164 019B     		ldr	r3, [sp, #4]
 1032 0166 C3ED1C7A 		vstr.32	s15, [r3, #112]
 1033 016a 019B     		ldr	r3, [sp, #4]
 1034 016c 5B6B     		ldr	r3, [r3, #52]
 1035 016e 07EE903A 		vmov	s15, r3	@ int
 1036 0172 B8EEE77A 		vcvt.f32.s32	s14, s15
 1037 0176 DFED466A 		vldr.32	s13, .L43+4
 1038 017a C7EE267A 		vdiv.f32	s15, s14, s13
 1039 017e 019B     		ldr	r3, [sp, #4]
 1040 0180 C3ED1D7A 		vstr.32	s15, [r3, #116]
 1041 0184 019B     		ldr	r3, [sp, #4]
 1042 0186 9B6B     		ldr	r3, [r3, #56]
 1043 0188 07EE903A 		vmov	s15, r3	@ int
 1044 018c B8EEE77A 		vcvt.f32.s32	s14, s15
 1045 0190 DFED3F6A 		vldr.32	s13, .L43+4
 1046 0194 C7EE267A 		vdiv.f32	s15, s14, s13
 1047 0198 019B     		ldr	r3, [sp, #4]
 1048 019a C3ED1E7A 		vstr.32	s15, [r3, #120]
 1049 019e 019B     		ldr	r3, [sp, #4]
 1050 01a0 DB6B     		ldr	r3, [r3, #60]
 1051 01a2 07EE903A 		vmov	s15, r3	@ int
 1052 01a6 B8EEE77A 		vcvt.f32.s32	s14, s15
 1053 01aa DFED396A 		vldr.32	s13, .L43+4
 1054 01ae C7EE267A 		vdiv.f32	s15, s14, s13
 1055 01b2 019B     		ldr	r3, [sp, #4]
 1056 01b4 C3ED1F7A 		vstr.32	s15, [r3, #124]
 1057 01b8 019B     		ldr	r3, [sp, #4]
 1058 01ba 1B6C     		ldr	r3, [r3, #64]
 1059 01bc 07EE903A 		vmov	s15, r3	@ int
 1060 01c0 B8EEE77A 		vcvt.f32.s32	s14, s15
 1061 01c4 DFED326A 		vldr.32	s13, .L43+4
 1062 01c8 C7EE267A 		vdiv.f32	s15, s14, s13
 1063 01cc 019B     		ldr	r3, [sp, #4]
 1064 01ce C3ED207A 		vstr.32	s15, [r3, #128]
 1065              		.loc 1 137 5
 1066 01d2 019B     		ldr	r3, [sp, #4]
 1067 01d4 1B78     		ldrb	r3, [r3]	@ zero_extendqisi2
 1068 01d6 43F02003 		orr	r3, r3, #32
 1069 01da DAB2     		uxtb	r2, r3
 1070 01dc 019B     		ldr	r3, [sp, #4]
 1071 01de 1A70     		strb	r2, [r3]
 1072              		.loc 1 138 5
 1073 01e0 019B     		ldr	r3, [sp, #4]
 1074 01e2 03F14402 		add	r2, r3, #68
 1075 01e6 019B     		ldr	r3, [sp, #4]
 1076 01e8 6033     		adds	r3, r3, #96
 1077 01ea 1946     		mov	r1, r3
 1078 01ec 1046     		mov	r0, r2
 1079 01ee FFF7FEFF 		bl	float_quat_of_rmat
 1080 01f2 3EE0     		b	.L38
 1081              	.L41:
 1082              		.loc 1 139 14
 1083 01f4 019B     		ldr	r3, [sp, #4]
ARM GAS  /tmp/ccrxQybi.s 			page 20


 1084 01f6 1B78     		ldrb	r3, [r3]	@ zero_extendqisi2
 1085 01f8 5B08     		lsrs	r3, r3, #1
 1086 01fa DBB2     		uxtb	r3, r3
 1087 01fc 03F00103 		and	r3, r3, #1
 1088              		.loc 1 139 13
 1089 0200 002B     		cmp	r3, #0
 1090 0202 36D0     		beq	.L38
 1091              		.loc 1 140 5
 1092 0204 019B     		ldr	r3, [sp, #4]
 1093 0206 5B69     		ldr	r3, [r3, #20]
 1094 0208 07EE903A 		vmov	s15, r3	@ int
 1095 020c B8EEE77A 		vcvt.f32.s32	s14, s15
 1096 0210 DFED206A 		vldr.32	s13, .L43+8
 1097 0214 C7EE267A 		vdiv.f32	s15, s14, s13
 1098 0218 019B     		ldr	r3, [sp, #4]
 1099 021a C3ED157A 		vstr.32	s15, [r3, #84]
 1100 021e 019B     		ldr	r3, [sp, #4]
 1101 0220 9B69     		ldr	r3, [r3, #24]
 1102 0222 07EE903A 		vmov	s15, r3	@ int
 1103 0226 B8EEE77A 		vcvt.f32.s32	s14, s15
 1104 022a DFED1A6A 		vldr.32	s13, .L43+8
 1105 022e C7EE267A 		vdiv.f32	s15, s14, s13
 1106 0232 019B     		ldr	r3, [sp, #4]
 1107 0234 C3ED167A 		vstr.32	s15, [r3, #88]
 1108 0238 019B     		ldr	r3, [sp, #4]
 1109 023a DB69     		ldr	r3, [r3, #28]
 1110 023c 07EE903A 		vmov	s15, r3	@ int
 1111 0240 B8EEE77A 		vcvt.f32.s32	s14, s15
 1112 0244 DFED136A 		vldr.32	s13, .L43+8
 1113 0248 C7EE267A 		vdiv.f32	s15, s14, s13
 1114 024c 019B     		ldr	r3, [sp, #4]
 1115 024e C3ED177A 		vstr.32	s15, [r3, #92]
 1116              		.loc 1 141 5
 1117 0252 019B     		ldr	r3, [sp, #4]
 1118 0254 1B78     		ldrb	r3, [r3]	@ zero_extendqisi2
 1119 0256 43F01003 		orr	r3, r3, #16
 1120 025a DAB2     		uxtb	r2, r3
 1121 025c 019B     		ldr	r3, [sp, #4]
 1122 025e 1A70     		strb	r2, [r3]
 1123              		.loc 1 142 5
 1124 0260 019B     		ldr	r3, [sp, #4]
 1125 0262 03F14402 		add	r2, r3, #68
 1126 0266 019B     		ldr	r3, [sp, #4]
 1127 0268 5433     		adds	r3, r3, #84
 1128 026a 1946     		mov	r1, r3
 1129 026c 1046     		mov	r0, r2
 1130 026e FFF7FEFF 		bl	float_quat_of_eulers
 1131              	.L38:
 1132              		.loc 1 145 3
 1133 0272 019B     		ldr	r3, [sp, #4]
 1134 0274 1B78     		ldrb	r3, [r3]	@ zero_extendqisi2
 1135 0276 43F00803 		orr	r3, r3, #8
 1136 027a DAB2     		uxtb	r2, r3
 1137 027c 019B     		ldr	r3, [sp, #4]
 1138 027e 1A70     		strb	r2, [r3]
 1139 0280 00E0     		b	.L34
 1140              	.L42:
ARM GAS  /tmp/ccrxQybi.s 			page 21


 1141              		.loc 1 126 5
 1142 0282 00BF     		nop
 1143              	.L34:
 1144              		.loc 1 146 1
 1145 0284 03B0     		add	sp, sp, #12
 1146              		.cfi_def_cfa_offset 4
 1147              		@ sp needed
 1148 0286 5DF804FB 		ldr	pc, [sp], #4
 1149              	.L44:
 1150 028a 00BF     		.align	2
 1151              	.L43:
 1152 028c 00000047 		.word	1191182336
 1153 0290 00008046 		.word	1182793728
 1154 0294 00008045 		.word	1166016512
 1155              		.cfi_endproc
 1156              	.LFE82:
 1157              		.size	orientationCalcQuat_f, .-orientationCalcQuat_f
 1158              		.section	.text.orientationCalcRMat_f,"ax",%progbits
 1159              		.align	1
 1160              		.p2align 4,,15
 1161              		.global	orientationCalcRMat_f
 1162              		.syntax unified
 1163              		.thumb
 1164              		.thumb_func
 1165              		.fpu fpv4-sp-d16
 1166              		.type	orientationCalcRMat_f, %function
 1167              	orientationCalcRMat_f:
 1168              	.LFB83:
 1169              		.loc 1 149 1
 1170              		.cfi_startproc
 1171              		@ args = 0, pretend = 0, frame = 8
 1172              		@ frame_needed = 0, uses_anonymous_args = 0
 1173 0000 00B5     		push	{lr}
 1174              		.cfi_def_cfa_offset 4
 1175              		.cfi_offset 14, -4
 1176 0002 83B0     		sub	sp, sp, #12
 1177              		.cfi_def_cfa_offset 16
 1178 0004 0190     		str	r0, [sp, #4]
 1179              		.loc 1 150 7
 1180 0006 019B     		ldr	r3, [sp, #4]
 1181 0008 1B78     		ldrb	r3, [r3]	@ zero_extendqisi2
 1182 000a 5B09     		lsrs	r3, r3, #5
 1183 000c DBB2     		uxtb	r3, r3
 1184 000e 03F00103 		and	r3, r3, #1
 1185              		.loc 1 150 6
 1186 0012 002B     		cmp	r3, #0
 1187 0014 40F03481 		bne	.L53
 1188              		.loc 1 154 7
 1189 0018 019B     		ldr	r3, [sp, #4]
 1190 001a 1B78     		ldrb	r3, [r3]	@ zero_extendqisi2
 1191 001c 9B08     		lsrs	r3, r3, #2
 1192 001e DBB2     		uxtb	r3, r3
 1193 0020 03F00103 		and	r3, r3, #1
 1194              		.loc 1 154 6
 1195 0024 002B     		cmp	r3, #0
 1196 0026 75D0     		beq	.L48
 1197              		.loc 1 155 5
ARM GAS  /tmp/ccrxQybi.s 			page 22


 1198 0028 019B     		ldr	r3, [sp, #4]
 1199 002a 1B6A     		ldr	r3, [r3, #32]
 1200 002c 07EE903A 		vmov	s15, r3	@ int
 1201 0030 B8EEE77A 		vcvt.f32.s32	s14, s15
 1202 0034 DFED946A 		vldr.32	s13, .L54
 1203 0038 C7EE267A 		vdiv.f32	s15, s14, s13
 1204 003c 019B     		ldr	r3, [sp, #4]
 1205 003e C3ED187A 		vstr.32	s15, [r3, #96]
 1206 0042 019B     		ldr	r3, [sp, #4]
 1207 0044 5B6A     		ldr	r3, [r3, #36]
 1208 0046 07EE903A 		vmov	s15, r3	@ int
 1209 004a B8EEE77A 		vcvt.f32.s32	s14, s15
 1210 004e DFED8E6A 		vldr.32	s13, .L54
 1211 0052 C7EE267A 		vdiv.f32	s15, s14, s13
 1212 0056 019B     		ldr	r3, [sp, #4]
 1213 0058 C3ED197A 		vstr.32	s15, [r3, #100]
 1214 005c 019B     		ldr	r3, [sp, #4]
 1215 005e 9B6A     		ldr	r3, [r3, #40]
 1216 0060 07EE903A 		vmov	s15, r3	@ int
 1217 0064 B8EEE77A 		vcvt.f32.s32	s14, s15
 1218 0068 DFED876A 		vldr.32	s13, .L54
 1219 006c C7EE267A 		vdiv.f32	s15, s14, s13
 1220 0070 019B     		ldr	r3, [sp, #4]
 1221 0072 C3ED1A7A 		vstr.32	s15, [r3, #104]
 1222 0076 019B     		ldr	r3, [sp, #4]
 1223 0078 DB6A     		ldr	r3, [r3, #44]
 1224 007a 07EE903A 		vmov	s15, r3	@ int
 1225 007e B8EEE77A 		vcvt.f32.s32	s14, s15
 1226 0082 DFED816A 		vldr.32	s13, .L54
 1227 0086 C7EE267A 		vdiv.f32	s15, s14, s13
 1228 008a 019B     		ldr	r3, [sp, #4]
 1229 008c C3ED1B7A 		vstr.32	s15, [r3, #108]
 1230 0090 019B     		ldr	r3, [sp, #4]
 1231 0092 1B6B     		ldr	r3, [r3, #48]
 1232 0094 07EE903A 		vmov	s15, r3	@ int
 1233 0098 B8EEE77A 		vcvt.f32.s32	s14, s15
 1234 009c DFED7A6A 		vldr.32	s13, .L54
 1235 00a0 C7EE267A 		vdiv.f32	s15, s14, s13
 1236 00a4 019B     		ldr	r3, [sp, #4]
 1237 00a6 C3ED1C7A 		vstr.32	s15, [r3, #112]
 1238 00aa 019B     		ldr	r3, [sp, #4]
 1239 00ac 5B6B     		ldr	r3, [r3, #52]
 1240 00ae 07EE903A 		vmov	s15, r3	@ int
 1241 00b2 B8EEE77A 		vcvt.f32.s32	s14, s15
 1242 00b6 DFED746A 		vldr.32	s13, .L54
 1243 00ba C7EE267A 		vdiv.f32	s15, s14, s13
 1244 00be 019B     		ldr	r3, [sp, #4]
 1245 00c0 C3ED1D7A 		vstr.32	s15, [r3, #116]
 1246 00c4 019B     		ldr	r3, [sp, #4]
 1247 00c6 9B6B     		ldr	r3, [r3, #56]
 1248 00c8 07EE903A 		vmov	s15, r3	@ int
 1249 00cc B8EEE77A 		vcvt.f32.s32	s14, s15
 1250 00d0 DFED6D6A 		vldr.32	s13, .L54
 1251 00d4 C7EE267A 		vdiv.f32	s15, s14, s13
 1252 00d8 019B     		ldr	r3, [sp, #4]
 1253 00da C3ED1E7A 		vstr.32	s15, [r3, #120]
 1254 00de 019B     		ldr	r3, [sp, #4]
ARM GAS  /tmp/ccrxQybi.s 			page 23


 1255 00e0 DB6B     		ldr	r3, [r3, #60]
 1256 00e2 07EE903A 		vmov	s15, r3	@ int
 1257 00e6 B8EEE77A 		vcvt.f32.s32	s14, s15
 1258 00ea DFED676A 		vldr.32	s13, .L54
 1259 00ee C7EE267A 		vdiv.f32	s15, s14, s13
 1260 00f2 019B     		ldr	r3, [sp, #4]
 1261 00f4 C3ED1F7A 		vstr.32	s15, [r3, #124]
 1262 00f8 019B     		ldr	r3, [sp, #4]
 1263 00fa 1B6C     		ldr	r3, [r3, #64]
 1264 00fc 07EE903A 		vmov	s15, r3	@ int
 1265 0100 B8EEE77A 		vcvt.f32.s32	s14, s15
 1266 0104 DFED606A 		vldr.32	s13, .L54
 1267 0108 C7EE267A 		vdiv.f32	s15, s14, s13
 1268 010c 019B     		ldr	r3, [sp, #4]
 1269 010e C3ED207A 		vstr.32	s15, [r3, #128]
 1270 0112 ADE0     		b	.L49
 1271              	.L48:
 1272              		.loc 1 156 14
 1273 0114 019B     		ldr	r3, [sp, #4]
 1274 0116 1B78     		ldrb	r3, [r3]	@ zero_extendqisi2
 1275 0118 DB08     		lsrs	r3, r3, #3
 1276 011a DBB2     		uxtb	r3, r3
 1277 011c 03F00103 		and	r3, r3, #1
 1278              		.loc 1 156 13
 1279 0120 002B     		cmp	r3, #0
 1280 0122 09D0     		beq	.L50
 1281              		.loc 1 157 5
 1282 0124 019B     		ldr	r3, [sp, #4]
 1283 0126 03F16002 		add	r2, r3, #96
 1284 012a 019B     		ldr	r3, [sp, #4]
 1285 012c 4433     		adds	r3, r3, #68
 1286 012e 1946     		mov	r1, r3
 1287 0130 1046     		mov	r0, r2
 1288 0132 FFF7FEFF 		bl	float_rmat_of_quat
 1289 0136 9BE0     		b	.L49
 1290              	.L50:
 1291              		.loc 1 158 14
 1292 0138 019B     		ldr	r3, [sp, #4]
 1293 013a 1B78     		ldrb	r3, [r3]	@ zero_extendqisi2
 1294 013c 1B09     		lsrs	r3, r3, #4
 1295 013e DBB2     		uxtb	r3, r3
 1296 0140 03F00103 		and	r3, r3, #1
 1297              		.loc 1 158 13
 1298 0144 002B     		cmp	r3, #0
 1299 0146 09D0     		beq	.L51
 1300              		.loc 1 159 5
 1301 0148 019B     		ldr	r3, [sp, #4]
 1302 014a 03F16002 		add	r2, r3, #96
 1303 014e 019B     		ldr	r3, [sp, #4]
 1304 0150 5433     		adds	r3, r3, #84
 1305 0152 1946     		mov	r1, r3
 1306 0154 1046     		mov	r0, r2
 1307 0156 FFF7FEFF 		bl	float_rmat_of_eulers_321
 1308 015a 89E0     		b	.L49
 1309              	.L51:
 1310              		.loc 1 160 14
 1311 015c 019B     		ldr	r3, [sp, #4]
ARM GAS  /tmp/ccrxQybi.s 			page 24


 1312 015e 1B78     		ldrb	r3, [r3]	@ zero_extendqisi2
 1313 0160 03F00103 		and	r3, r3, #1
 1314              		.loc 1 160 13
 1315 0164 002B     		cmp	r3, #0
 1316 0166 44D0     		beq	.L52
 1317              		.loc 1 161 5
 1318 0168 019B     		ldr	r3, [sp, #4]
 1319 016a 5B68     		ldr	r3, [r3, #4]
 1320 016c 07EE903A 		vmov	s15, r3	@ int
 1321 0170 B8EEE77A 		vcvt.f32.s32	s14, s15
 1322 0174 DFED456A 		vldr.32	s13, .L54+4
 1323 0178 C7EE267A 		vdiv.f32	s15, s14, s13
 1324 017c 019B     		ldr	r3, [sp, #4]
 1325 017e C3ED117A 		vstr.32	s15, [r3, #68]
 1326 0182 019B     		ldr	r3, [sp, #4]
 1327 0184 9B68     		ldr	r3, [r3, #8]
 1328 0186 07EE903A 		vmov	s15, r3	@ int
 1329 018a B8EEE77A 		vcvt.f32.s32	s14, s15
 1330 018e DFED3F6A 		vldr.32	s13, .L54+4
 1331 0192 C7EE267A 		vdiv.f32	s15, s14, s13
 1332 0196 019B     		ldr	r3, [sp, #4]
 1333 0198 C3ED127A 		vstr.32	s15, [r3, #72]
 1334 019c 019B     		ldr	r3, [sp, #4]
 1335 019e DB68     		ldr	r3, [r3, #12]
 1336 01a0 07EE903A 		vmov	s15, r3	@ int
 1337 01a4 B8EEE77A 		vcvt.f32.s32	s14, s15
 1338 01a8 DFED386A 		vldr.32	s13, .L54+4
 1339 01ac C7EE267A 		vdiv.f32	s15, s14, s13
 1340 01b0 019B     		ldr	r3, [sp, #4]
 1341 01b2 C3ED137A 		vstr.32	s15, [r3, #76]
 1342 01b6 019B     		ldr	r3, [sp, #4]
 1343 01b8 1B69     		ldr	r3, [r3, #16]
 1344 01ba 07EE903A 		vmov	s15, r3	@ int
 1345 01be B8EEE77A 		vcvt.f32.s32	s14, s15
 1346 01c2 DFED326A 		vldr.32	s13, .L54+4
 1347 01c6 C7EE267A 		vdiv.f32	s15, s14, s13
 1348 01ca 019B     		ldr	r3, [sp, #4]
 1349 01cc C3ED147A 		vstr.32	s15, [r3, #80]
 1350              		.loc 1 162 5
 1351 01d0 019B     		ldr	r3, [sp, #4]
 1352 01d2 1B78     		ldrb	r3, [r3]	@ zero_extendqisi2
 1353 01d4 43F00803 		orr	r3, r3, #8
 1354 01d8 DAB2     		uxtb	r2, r3
 1355 01da 019B     		ldr	r3, [sp, #4]
 1356 01dc 1A70     		strb	r2, [r3]
 1357              		.loc 1 163 5
 1358 01de 019B     		ldr	r3, [sp, #4]
 1359 01e0 03F16002 		add	r2, r3, #96
 1360 01e4 019B     		ldr	r3, [sp, #4]
 1361 01e6 4433     		adds	r3, r3, #68
 1362 01e8 1946     		mov	r1, r3
 1363 01ea 1046     		mov	r0, r2
 1364 01ec FFF7FEFF 		bl	float_rmat_of_quat
 1365 01f0 3EE0     		b	.L49
 1366              	.L52:
 1367              		.loc 1 164 14
 1368 01f2 019B     		ldr	r3, [sp, #4]
ARM GAS  /tmp/ccrxQybi.s 			page 25


 1369 01f4 1B78     		ldrb	r3, [r3]	@ zero_extendqisi2
 1370 01f6 5B08     		lsrs	r3, r3, #1
 1371 01f8 DBB2     		uxtb	r3, r3
 1372 01fa 03F00103 		and	r3, r3, #1
 1373              		.loc 1 164 13
 1374 01fe 002B     		cmp	r3, #0
 1375 0200 36D0     		beq	.L49
 1376              		.loc 1 165 5
 1377 0202 019B     		ldr	r3, [sp, #4]
 1378 0204 5B69     		ldr	r3, [r3, #20]
 1379 0206 07EE903A 		vmov	s15, r3	@ int
 1380 020a B8EEE77A 		vcvt.f32.s32	s14, s15
 1381 020e DFED206A 		vldr.32	s13, .L54+8
 1382 0212 C7EE267A 		vdiv.f32	s15, s14, s13
 1383 0216 019B     		ldr	r3, [sp, #4]
 1384 0218 C3ED157A 		vstr.32	s15, [r3, #84]
 1385 021c 019B     		ldr	r3, [sp, #4]
 1386 021e 9B69     		ldr	r3, [r3, #24]
 1387 0220 07EE903A 		vmov	s15, r3	@ int
 1388 0224 B8EEE77A 		vcvt.f32.s32	s14, s15
 1389 0228 DFED196A 		vldr.32	s13, .L54+8
 1390 022c C7EE267A 		vdiv.f32	s15, s14, s13
 1391 0230 019B     		ldr	r3, [sp, #4]
 1392 0232 C3ED167A 		vstr.32	s15, [r3, #88]
 1393 0236 019B     		ldr	r3, [sp, #4]
 1394 0238 DB69     		ldr	r3, [r3, #28]
 1395 023a 07EE903A 		vmov	s15, r3	@ int
 1396 023e B8EEE77A 		vcvt.f32.s32	s14, s15
 1397 0242 DFED136A 		vldr.32	s13, .L54+8
 1398 0246 C7EE267A 		vdiv.f32	s15, s14, s13
 1399 024a 019B     		ldr	r3, [sp, #4]
 1400 024c C3ED177A 		vstr.32	s15, [r3, #92]
 1401              		.loc 1 166 5
 1402 0250 019B     		ldr	r3, [sp, #4]
 1403 0252 1B78     		ldrb	r3, [r3]	@ zero_extendqisi2
 1404 0254 43F01003 		orr	r3, r3, #16
 1405 0258 DAB2     		uxtb	r2, r3
 1406 025a 019B     		ldr	r3, [sp, #4]
 1407 025c 1A70     		strb	r2, [r3]
 1408              		.loc 1 167 5
 1409 025e 019B     		ldr	r3, [sp, #4]
 1410 0260 03F16002 		add	r2, r3, #96
 1411 0264 019B     		ldr	r3, [sp, #4]
 1412 0266 5433     		adds	r3, r3, #84
 1413 0268 1946     		mov	r1, r3
 1414 026a 1046     		mov	r0, r2
 1415 026c FFF7FEFF 		bl	float_rmat_of_eulers_321
 1416              	.L49:
 1417              		.loc 1 170 3
 1418 0270 019B     		ldr	r3, [sp, #4]
 1419 0272 1B78     		ldrb	r3, [r3]	@ zero_extendqisi2
 1420 0274 43F02003 		orr	r3, r3, #32
 1421 0278 DAB2     		uxtb	r2, r3
 1422 027a 019B     		ldr	r3, [sp, #4]
 1423 027c 1A70     		strb	r2, [r3]
 1424 027e 00E0     		b	.L45
 1425              	.L53:
ARM GAS  /tmp/ccrxQybi.s 			page 26


 1426              		.loc 1 151 5
 1427 0280 00BF     		nop
 1428              	.L45:
 1429              		.loc 1 171 1
 1430 0282 03B0     		add	sp, sp, #12
 1431              		.cfi_def_cfa_offset 4
 1432              		@ sp needed
 1433 0284 5DF804FB 		ldr	pc, [sp], #4
 1434              	.L55:
 1435              		.align	2
 1436              	.L54:
 1437 0288 00008046 		.word	1182793728
 1438 028c 00000047 		.word	1191182336
 1439 0290 00008045 		.word	1166016512
 1440              		.cfi_endproc
 1441              	.LFE83:
 1442              		.size	orientationCalcRMat_f, .-orientationCalcRMat_f
 1443              		.section	.text.orientationCalcEulers_f,"ax",%progbits
 1444              		.align	1
 1445              		.p2align 4,,15
 1446              		.global	orientationCalcEulers_f
 1447              		.syntax unified
 1448              		.thumb
 1449              		.thumb_func
 1450              		.fpu fpv4-sp-d16
 1451              		.type	orientationCalcEulers_f, %function
 1452              	orientationCalcEulers_f:
 1453              	.LFB84:
 1454              		.loc 1 174 1
 1455              		.cfi_startproc
 1456              		@ args = 0, pretend = 0, frame = 8
 1457              		@ frame_needed = 0, uses_anonymous_args = 0
 1458 0000 00B5     		push	{lr}
 1459              		.cfi_def_cfa_offset 4
 1460              		.cfi_offset 14, -4
 1461 0002 83B0     		sub	sp, sp, #12
 1462              		.cfi_def_cfa_offset 16
 1463 0004 0190     		str	r0, [sp, #4]
 1464              		.loc 1 175 7
 1465 0006 019B     		ldr	r3, [sp, #4]
 1466 0008 1B78     		ldrb	r3, [r3]	@ zero_extendqisi2
 1467 000a 1B09     		lsrs	r3, r3, #4
 1468 000c DBB2     		uxtb	r3, r3
 1469 000e 03F00103 		and	r3, r3, #1
 1470              		.loc 1 175 6
 1471 0012 002B     		cmp	r3, #0
 1472 0014 40F03581 		bne	.L64
 1473              		.loc 1 179 7
 1474 0018 019B     		ldr	r3, [sp, #4]
 1475 001a 1B78     		ldrb	r3, [r3]	@ zero_extendqisi2
 1476 001c 5B08     		lsrs	r3, r3, #1
 1477 001e DBB2     		uxtb	r3, r3
 1478 0020 03F00103 		and	r3, r3, #1
 1479              		.loc 1 179 6
 1480 0024 002B     		cmp	r3, #0
 1481 0026 27D0     		beq	.L59
 1482              		.loc 1 180 5
ARM GAS  /tmp/ccrxQybi.s 			page 27


 1483 0028 019B     		ldr	r3, [sp, #4]
 1484 002a 5B69     		ldr	r3, [r3, #20]
 1485 002c 07EE903A 		vmov	s15, r3	@ int
 1486 0030 B8EEE77A 		vcvt.f32.s32	s14, s15
 1487 0034 DFED956A 		vldr.32	s13, .L65
 1488 0038 C7EE267A 		vdiv.f32	s15, s14, s13
 1489 003c 019B     		ldr	r3, [sp, #4]
 1490 003e C3ED157A 		vstr.32	s15, [r3, #84]
 1491 0042 019B     		ldr	r3, [sp, #4]
 1492 0044 9B69     		ldr	r3, [r3, #24]
 1493 0046 07EE903A 		vmov	s15, r3	@ int
 1494 004a B8EEE77A 		vcvt.f32.s32	s14, s15
 1495 004e DFED8F6A 		vldr.32	s13, .L65
 1496 0052 C7EE267A 		vdiv.f32	s15, s14, s13
 1497 0056 019B     		ldr	r3, [sp, #4]
 1498 0058 C3ED167A 		vstr.32	s15, [r3, #88]
 1499 005c 019B     		ldr	r3, [sp, #4]
 1500 005e DB69     		ldr	r3, [r3, #28]
 1501 0060 07EE903A 		vmov	s15, r3	@ int
 1502 0064 B8EEE77A 		vcvt.f32.s32	s14, s15
 1503 0068 DFED886A 		vldr.32	s13, .L65
 1504 006c C7EE267A 		vdiv.f32	s15, s14, s13
 1505 0070 019B     		ldr	r3, [sp, #4]
 1506 0072 C3ED177A 		vstr.32	s15, [r3, #92]
 1507 0076 FCE0     		b	.L60
 1508              	.L59:
 1509              		.loc 1 181 14
 1510 0078 019B     		ldr	r3, [sp, #4]
 1511 007a 1B78     		ldrb	r3, [r3]	@ zero_extendqisi2
 1512 007c 5B09     		lsrs	r3, r3, #5
 1513 007e DBB2     		uxtb	r3, r3
 1514 0080 03F00103 		and	r3, r3, #1
 1515              		.loc 1 181 13
 1516 0084 002B     		cmp	r3, #0
 1517 0086 09D0     		beq	.L61
 1518              		.loc 1 182 5
 1519 0088 019B     		ldr	r3, [sp, #4]
 1520 008a 03F15402 		add	r2, r3, #84
 1521 008e 019B     		ldr	r3, [sp, #4]
 1522 0090 6033     		adds	r3, r3, #96
 1523 0092 1946     		mov	r1, r3
 1524 0094 1046     		mov	r0, r2
 1525 0096 FFF7FEFF 		bl	float_eulers_of_rmat
 1526 009a EAE0     		b	.L60
 1527              	.L61:
 1528              		.loc 1 183 14
 1529 009c 019B     		ldr	r3, [sp, #4]
 1530 009e 1B78     		ldrb	r3, [r3]	@ zero_extendqisi2
 1531 00a0 DB08     		lsrs	r3, r3, #3
 1532 00a2 DBB2     		uxtb	r3, r3
 1533 00a4 03F00103 		and	r3, r3, #1
 1534              		.loc 1 183 13
 1535 00a8 002B     		cmp	r3, #0
 1536 00aa 09D0     		beq	.L62
 1537              		.loc 1 184 5
 1538 00ac 019B     		ldr	r3, [sp, #4]
 1539 00ae 03F15402 		add	r2, r3, #84
ARM GAS  /tmp/ccrxQybi.s 			page 28


 1540 00b2 019B     		ldr	r3, [sp, #4]
 1541 00b4 4433     		adds	r3, r3, #68
 1542 00b6 1946     		mov	r1, r3
 1543 00b8 1046     		mov	r0, r2
 1544 00ba FFF7FEFF 		bl	float_eulers_of_quat
 1545 00be D8E0     		b	.L60
 1546              	.L62:
 1547              		.loc 1 185 14
 1548 00c0 019B     		ldr	r3, [sp, #4]
 1549 00c2 1B78     		ldrb	r3, [r3]	@ zero_extendqisi2
 1550 00c4 9B08     		lsrs	r3, r3, #2
 1551 00c6 DBB2     		uxtb	r3, r3
 1552 00c8 03F00103 		and	r3, r3, #1
 1553              		.loc 1 185 13
 1554 00cc 002B     		cmp	r3, #0
 1555 00ce 00F08680 		beq	.L63
 1556              		.loc 1 186 5
 1557 00d2 019B     		ldr	r3, [sp, #4]
 1558 00d4 1B6A     		ldr	r3, [r3, #32]
 1559 00d6 07EE903A 		vmov	s15, r3	@ int
 1560 00da B8EEE77A 		vcvt.f32.s32	s14, s15
 1561 00de DFED6C6A 		vldr.32	s13, .L65+4
 1562 00e2 C7EE267A 		vdiv.f32	s15, s14, s13
 1563 00e6 019B     		ldr	r3, [sp, #4]
 1564 00e8 C3ED187A 		vstr.32	s15, [r3, #96]
 1565 00ec 019B     		ldr	r3, [sp, #4]
 1566 00ee 5B6A     		ldr	r3, [r3, #36]
 1567 00f0 07EE903A 		vmov	s15, r3	@ int
 1568 00f4 B8EEE77A 		vcvt.f32.s32	s14, s15
 1569 00f8 DFED656A 		vldr.32	s13, .L65+4
 1570 00fc C7EE267A 		vdiv.f32	s15, s14, s13
 1571 0100 019B     		ldr	r3, [sp, #4]
 1572 0102 C3ED197A 		vstr.32	s15, [r3, #100]
 1573 0106 019B     		ldr	r3, [sp, #4]
 1574 0108 9B6A     		ldr	r3, [r3, #40]
 1575 010a 07EE903A 		vmov	s15, r3	@ int
 1576 010e B8EEE77A 		vcvt.f32.s32	s14, s15
 1577 0112 DFED5F6A 		vldr.32	s13, .L65+4
 1578 0116 C7EE267A 		vdiv.f32	s15, s14, s13
 1579 011a 019B     		ldr	r3, [sp, #4]
 1580 011c C3ED1A7A 		vstr.32	s15, [r3, #104]
 1581 0120 019B     		ldr	r3, [sp, #4]
 1582 0122 DB6A     		ldr	r3, [r3, #44]
 1583 0124 07EE903A 		vmov	s15, r3	@ int
 1584 0128 B8EEE77A 		vcvt.f32.s32	s14, s15
 1585 012c DFED586A 		vldr.32	s13, .L65+4
 1586 0130 C7EE267A 		vdiv.f32	s15, s14, s13
 1587 0134 019B     		ldr	r3, [sp, #4]
 1588 0136 C3ED1B7A 		vstr.32	s15, [r3, #108]
 1589 013a 019B     		ldr	r3, [sp, #4]
 1590 013c 1B6B     		ldr	r3, [r3, #48]
 1591 013e 07EE903A 		vmov	s15, r3	@ int
 1592 0142 B8EEE77A 		vcvt.f32.s32	s14, s15
 1593 0146 DFED526A 		vldr.32	s13, .L65+4
 1594 014a C7EE267A 		vdiv.f32	s15, s14, s13
 1595 014e 019B     		ldr	r3, [sp, #4]
 1596 0150 C3ED1C7A 		vstr.32	s15, [r3, #112]
ARM GAS  /tmp/ccrxQybi.s 			page 29


 1597 0154 019B     		ldr	r3, [sp, #4]
 1598 0156 5B6B     		ldr	r3, [r3, #52]
 1599 0158 07EE903A 		vmov	s15, r3	@ int
 1600 015c B8EEE77A 		vcvt.f32.s32	s14, s15
 1601 0160 DFED4B6A 		vldr.32	s13, .L65+4
 1602 0164 C7EE267A 		vdiv.f32	s15, s14, s13
 1603 0168 019B     		ldr	r3, [sp, #4]
 1604 016a C3ED1D7A 		vstr.32	s15, [r3, #116]
 1605 016e 019B     		ldr	r3, [sp, #4]
 1606 0170 9B6B     		ldr	r3, [r3, #56]
 1607 0172 07EE903A 		vmov	s15, r3	@ int
 1608 0176 B8EEE77A 		vcvt.f32.s32	s14, s15
 1609 017a DFED456A 		vldr.32	s13, .L65+4
 1610 017e C7EE267A 		vdiv.f32	s15, s14, s13
 1611 0182 019B     		ldr	r3, [sp, #4]
 1612 0184 C3ED1E7A 		vstr.32	s15, [r3, #120]
 1613 0188 019B     		ldr	r3, [sp, #4]
 1614 018a DB6B     		ldr	r3, [r3, #60]
 1615 018c 07EE903A 		vmov	s15, r3	@ int
 1616 0190 B8EEE77A 		vcvt.f32.s32	s14, s15
 1617 0194 DFED3E6A 		vldr.32	s13, .L65+4
 1618 0198 C7EE267A 		vdiv.f32	s15, s14, s13
 1619 019c 019B     		ldr	r3, [sp, #4]
 1620 019e C3ED1F7A 		vstr.32	s15, [r3, #124]
 1621 01a2 019B     		ldr	r3, [sp, #4]
 1622 01a4 1B6C     		ldr	r3, [r3, #64]
 1623 01a6 07EE903A 		vmov	s15, r3	@ int
 1624 01aa B8EEE77A 		vcvt.f32.s32	s14, s15
 1625 01ae DFED386A 		vldr.32	s13, .L65+4
 1626 01b2 C7EE267A 		vdiv.f32	s15, s14, s13
 1627 01b6 019B     		ldr	r3, [sp, #4]
 1628 01b8 C3ED207A 		vstr.32	s15, [r3, #128]
 1629              		.loc 1 187 5
 1630 01bc 019B     		ldr	r3, [sp, #4]
 1631 01be 1B78     		ldrb	r3, [r3]	@ zero_extendqisi2
 1632 01c0 43F02003 		orr	r3, r3, #32
 1633 01c4 DAB2     		uxtb	r2, r3
 1634 01c6 019B     		ldr	r3, [sp, #4]
 1635 01c8 1A70     		strb	r2, [r3]
 1636              		.loc 1 188 5
 1637 01ca 019B     		ldr	r3, [sp, #4]
 1638 01cc 03F15402 		add	r2, r3, #84
 1639 01d0 019B     		ldr	r3, [sp, #4]
 1640 01d2 6033     		adds	r3, r3, #96
 1641 01d4 1946     		mov	r1, r3
 1642 01d6 1046     		mov	r0, r2
 1643 01d8 FFF7FEFF 		bl	float_eulers_of_rmat
 1644 01dc 49E0     		b	.L60
 1645              	.L63:
 1646              		.loc 1 189 14
 1647 01de 019B     		ldr	r3, [sp, #4]
 1648 01e0 1B78     		ldrb	r3, [r3]	@ zero_extendqisi2
 1649 01e2 03F00103 		and	r3, r3, #1
 1650              		.loc 1 189 13
 1651 01e6 002B     		cmp	r3, #0
 1652 01e8 43D0     		beq	.L60
 1653              		.loc 1 190 5
ARM GAS  /tmp/ccrxQybi.s 			page 30


 1654 01ea 019B     		ldr	r3, [sp, #4]
 1655 01ec 5B68     		ldr	r3, [r3, #4]
 1656 01ee 07EE903A 		vmov	s15, r3	@ int
 1657 01f2 B8EEE77A 		vcvt.f32.s32	s14, s15
 1658 01f6 DFED276A 		vldr.32	s13, .L65+8
 1659 01fa C7EE267A 		vdiv.f32	s15, s14, s13
 1660 01fe 019B     		ldr	r3, [sp, #4]
 1661 0200 C3ED117A 		vstr.32	s15, [r3, #68]
 1662 0204 019B     		ldr	r3, [sp, #4]
 1663 0206 9B68     		ldr	r3, [r3, #8]
 1664 0208 07EE903A 		vmov	s15, r3	@ int
 1665 020c B8EEE77A 		vcvt.f32.s32	s14, s15
 1666 0210 DFED206A 		vldr.32	s13, .L65+8
 1667 0214 C7EE267A 		vdiv.f32	s15, s14, s13
 1668 0218 019B     		ldr	r3, [sp, #4]
 1669 021a C3ED127A 		vstr.32	s15, [r3, #72]
 1670 021e 019B     		ldr	r3, [sp, #4]
 1671 0220 DB68     		ldr	r3, [r3, #12]
 1672 0222 07EE903A 		vmov	s15, r3	@ int
 1673 0226 B8EEE77A 		vcvt.f32.s32	s14, s15
 1674 022a DFED1A6A 		vldr.32	s13, .L65+8
 1675 022e C7EE267A 		vdiv.f32	s15, s14, s13
 1676 0232 019B     		ldr	r3, [sp, #4]
 1677 0234 C3ED137A 		vstr.32	s15, [r3, #76]
 1678 0238 019B     		ldr	r3, [sp, #4]
 1679 023a 1B69     		ldr	r3, [r3, #16]
 1680 023c 07EE903A 		vmov	s15, r3	@ int
 1681 0240 B8EEE77A 		vcvt.f32.s32	s14, s15
 1682 0244 DFED136A 		vldr.32	s13, .L65+8
 1683 0248 C7EE267A 		vdiv.f32	s15, s14, s13
 1684 024c 019B     		ldr	r3, [sp, #4]
 1685 024e C3ED147A 		vstr.32	s15, [r3, #80]
 1686              		.loc 1 191 5
 1687 0252 019B     		ldr	r3, [sp, #4]
 1688 0254 1B78     		ldrb	r3, [r3]	@ zero_extendqisi2
 1689 0256 43F00803 		orr	r3, r3, #8
 1690 025a DAB2     		uxtb	r2, r3
 1691 025c 019B     		ldr	r3, [sp, #4]
 1692 025e 1A70     		strb	r2, [r3]
 1693              		.loc 1 192 5
 1694 0260 019B     		ldr	r3, [sp, #4]
 1695 0262 03F15402 		add	r2, r3, #84
 1696 0266 019B     		ldr	r3, [sp, #4]
 1697 0268 4433     		adds	r3, r3, #68
 1698 026a 1946     		mov	r1, r3
 1699 026c 1046     		mov	r0, r2
 1700 026e FFF7FEFF 		bl	float_eulers_of_quat
 1701              	.L60:
 1702              		.loc 1 195 3
 1703 0272 019B     		ldr	r3, [sp, #4]
 1704 0274 1B78     		ldrb	r3, [r3]	@ zero_extendqisi2
 1705 0276 43F01003 		orr	r3, r3, #16
 1706 027a DAB2     		uxtb	r2, r3
 1707 027c 019B     		ldr	r3, [sp, #4]
 1708 027e 1A70     		strb	r2, [r3]
 1709 0280 00E0     		b	.L56
 1710              	.L64:
ARM GAS  /tmp/ccrxQybi.s 			page 31


 1711              		.loc 1 176 5
 1712 0282 00BF     		nop
 1713              	.L56:
 1714              		.loc 1 196 1
 1715 0284 03B0     		add	sp, sp, #12
 1716              		.cfi_def_cfa_offset 4
 1717              		@ sp needed
 1718 0286 5DF804FB 		ldr	pc, [sp], #4
 1719              	.L66:
 1720 028a 00BF     		.align	2
 1721              	.L65:
 1722 028c 00008045 		.word	1166016512
 1723 0290 00008046 		.word	1182793728
 1724 0294 00000047 		.word	1191182336
 1725              		.cfi_endproc
 1726              	.LFE84:
 1727              		.size	orientationCalcEulers_f, .-orientationCalcEulers_f
 1728              		.text
 1729              	.Letext0:
 1730              		.file 2 "/usr/lib/gcc/arm-none-eabi/10.3.1/include/stdint.h"
 1731              		.file 3 "./math/pprz_algebra_int.h"
 1732              		.file 4 "./math/pprz_algebra_float.h"
 1733              		.file 5 "math/pprz_orientation_conversion.h"