ARM GAS  /tmp/ccKtbbXa.s 			page 1


   1              		.cpu cortex-m4
   2              		.eabi_attribute 27, 1
   3              		.eabi_attribute 20, 1
   4              		.eabi_attribute 21, 1
   5              		.eabi_attribute 23, 3
   6              		.eabi_attribute 24, 1
   7              		.eabi_attribute 25, 1
   8              		.eabi_attribute 26, 1
   9              		.eabi_attribute 30, 6
  10              		.eabi_attribute 34, 1
  11              		.eabi_attribute 18, 4
  12              		.file	"pprz_geodetic_int.c"
  13              		.text
  14              	.Ltext0:
  15              		.cfi_sections	.debug_frame
  16              		.global	__aeabi_i2d
  17              		.global	__aeabi_dmul
  18              		.global	__aeabi_ddiv
  19              		.global	__aeabi_d2iz
  20              		.section	.text.ltp_of_ecef_rmat_from_lla_i,"ax",%progbits
  21              		.align	1
  22              		.p2align 4,,15
  23              		.global	ltp_of_ecef_rmat_from_lla_i
  24              		.arch armv7e-m
  25              		.syntax unified
  26              		.thumb
  27              		.thumb_func
  28              		.fpu fpv4-sp-d16
  29              		.type	ltp_of_ecef_rmat_from_lla_i, %function
  30              	ltp_of_ecef_rmat_from_lla_i:
  31              	.LFB21:
  32              		.file 1 "math/pprz_geodetic_int.c"
  33              		.loc 1 35 1
  34              		.cfi_startproc
  35              		@ args = 0, pretend = 0, frame = 104
  36              		@ frame_needed = 0, uses_anonymous_args = 0
  37 0000 2DE9F04F 		push	{r4, r5, r6, r7, r8, r9, r10, fp, lr}
  38              		.cfi_def_cfa_offset 36
  39              		.cfi_offset 4, -36
  40              		.cfi_offset 5, -32
  41              		.cfi_offset 6, -28
  42              		.cfi_offset 7, -24
  43              		.cfi_offset 8, -20
  44              		.cfi_offset 9, -16
  45              		.cfi_offset 10, -12
  46              		.cfi_offset 11, -8
  47              		.cfi_offset 14, -4
  48 0004 9BB0     		sub	sp, sp, #108
  49              		.cfi_def_cfa_offset 144
  50 0006 1590     		str	r0, [sp, #84]
  51 0008 1491     		str	r1, [sp, #80]
  52              		.loc 1 43 26
  53 000a 149B     		ldr	r3, [sp, #80]
  54 000c 1B68     		ldr	r3, [r3]
  55 000e 1846     		mov	r0, r3
  56 0010 FFF7FEFF 		bl	__aeabi_i2d
  57 0014 B8A3     		adr	r3, .L2
ARM GAS  /tmp/ccKtbbXa.s 			page 2


  58 0016 D3E90023 		ldrd	r2, [r3]
  59 001a FFF7FEFF 		bl	__aeabi_dmul
  60 001e 0246     		mov	r2, r0
  61 0020 0B46     		mov	r3, r1
  62 0022 1046     		mov	r0, r2
  63 0024 1946     		mov	r1, r3
  64 0026 B6A3     		adr	r3, .L2+8
  65 0028 D3E90023 		ldrd	r2, [r3]
  66 002c FFF7FEFF 		bl	__aeabi_ddiv
  67 0030 0246     		mov	r2, r0
  68 0032 0B46     		mov	r3, r1
  69 0034 1046     		mov	r0, r2
  70 0036 1946     		mov	r1, r3
  71 0038 FFF7FEFF 		bl	sin
  72              		.loc 1 43 21
  73 003c 4FF00002 		mov	r2, #0
  74 0040 B14B     		ldr	r3, .L2+16
  75 0042 FFF7FEFF 		bl	__aeabi_dmul
  76 0046 0246     		mov	r2, r0
  77 0048 0B46     		mov	r3, r1
  78 004a 1046     		mov	r0, r2
  79 004c 1946     		mov	r1, r3
  80 004e FFF7FEFF 		bl	rint
  81 0052 0246     		mov	r2, r0
  82 0054 0B46     		mov	r3, r1
  83              		.loc 1 43 11
  84 0056 1046     		mov	r0, r2
  85 0058 1946     		mov	r1, r3
  86 005a FFF7FEFF 		bl	__aeabi_d2iz
  87 005e 0346     		mov	r3, r0
  88 0060 1993     		str	r3, [sp, #100]
  89              		.loc 1 44 26
  90 0062 149B     		ldr	r3, [sp, #80]
  91 0064 1B68     		ldr	r3, [r3]
  92 0066 1846     		mov	r0, r3
  93 0068 FFF7FEFF 		bl	__aeabi_i2d
  94 006c A2A3     		adr	r3, .L2
  95 006e D3E90023 		ldrd	r2, [r3]
  96 0072 FFF7FEFF 		bl	__aeabi_dmul
  97 0076 0246     		mov	r2, r0
  98 0078 0B46     		mov	r3, r1
  99 007a 1046     		mov	r0, r2
 100 007c 1946     		mov	r1, r3
 101 007e A0A3     		adr	r3, .L2+8
 102 0080 D3E90023 		ldrd	r2, [r3]
 103 0084 FFF7FEFF 		bl	__aeabi_ddiv
 104 0088 0246     		mov	r2, r0
 105 008a 0B46     		mov	r3, r1
 106 008c 1046     		mov	r0, r2
 107 008e 1946     		mov	r1, r3
 108 0090 FFF7FEFF 		bl	cos
 109              		.loc 1 44 21
 110 0094 4FF00002 		mov	r2, #0
 111 0098 9B4B     		ldr	r3, .L2+16
 112 009a FFF7FEFF 		bl	__aeabi_dmul
 113 009e 0246     		mov	r2, r0
 114 00a0 0B46     		mov	r3, r1
ARM GAS  /tmp/ccKtbbXa.s 			page 3


 115 00a2 1046     		mov	r0, r2
 116 00a4 1946     		mov	r1, r3
 117 00a6 FFF7FEFF 		bl	rint
 118 00aa 0246     		mov	r2, r0
 119 00ac 0B46     		mov	r3, r1
 120              		.loc 1 44 11
 121 00ae 1046     		mov	r0, r2
 122 00b0 1946     		mov	r1, r3
 123 00b2 FFF7FEFF 		bl	__aeabi_d2iz
 124 00b6 0346     		mov	r3, r0
 125 00b8 1893     		str	r3, [sp, #96]
 126              		.loc 1 45 26
 127 00ba 149B     		ldr	r3, [sp, #80]
 128 00bc 5B68     		ldr	r3, [r3, #4]
 129 00be 1846     		mov	r0, r3
 130 00c0 FFF7FEFF 		bl	__aeabi_i2d
 131 00c4 8CA3     		adr	r3, .L2
 132 00c6 D3E90023 		ldrd	r2, [r3]
 133 00ca FFF7FEFF 		bl	__aeabi_dmul
 134 00ce 0246     		mov	r2, r0
 135 00d0 0B46     		mov	r3, r1
 136 00d2 1046     		mov	r0, r2
 137 00d4 1946     		mov	r1, r3
 138 00d6 8AA3     		adr	r3, .L2+8
 139 00d8 D3E90023 		ldrd	r2, [r3]
 140 00dc FFF7FEFF 		bl	__aeabi_ddiv
 141 00e0 0246     		mov	r2, r0
 142 00e2 0B46     		mov	r3, r1
 143 00e4 1046     		mov	r0, r2
 144 00e6 1946     		mov	r1, r3
 145 00e8 FFF7FEFF 		bl	sin
 146              		.loc 1 45 21
 147 00ec 4FF00002 		mov	r2, #0
 148 00f0 854B     		ldr	r3, .L2+16
 149 00f2 FFF7FEFF 		bl	__aeabi_dmul
 150 00f6 0246     		mov	r2, r0
 151 00f8 0B46     		mov	r3, r1
 152 00fa 1046     		mov	r0, r2
 153 00fc 1946     		mov	r1, r3
 154 00fe FFF7FEFF 		bl	rint
 155 0102 0246     		mov	r2, r0
 156 0104 0B46     		mov	r3, r1
 157              		.loc 1 45 11
 158 0106 1046     		mov	r0, r2
 159 0108 1946     		mov	r1, r3
 160 010a FFF7FEFF 		bl	__aeabi_d2iz
 161 010e 0346     		mov	r3, r0
 162 0110 1793     		str	r3, [sp, #92]
 163              		.loc 1 46 26
 164 0112 149B     		ldr	r3, [sp, #80]
 165 0114 5B68     		ldr	r3, [r3, #4]
 166 0116 1846     		mov	r0, r3
 167 0118 FFF7FEFF 		bl	__aeabi_i2d
 168 011c 76A3     		adr	r3, .L2
 169 011e D3E90023 		ldrd	r2, [r3]
 170 0122 FFF7FEFF 		bl	__aeabi_dmul
 171 0126 0246     		mov	r2, r0
ARM GAS  /tmp/ccKtbbXa.s 			page 4


 172 0128 0B46     		mov	r3, r1
 173 012a 1046     		mov	r0, r2
 174 012c 1946     		mov	r1, r3
 175 012e 74A3     		adr	r3, .L2+8
 176 0130 D3E90023 		ldrd	r2, [r3]
 177 0134 FFF7FEFF 		bl	__aeabi_ddiv
 178 0138 0246     		mov	r2, r0
 179 013a 0B46     		mov	r3, r1
 180 013c 1046     		mov	r0, r2
 181 013e 1946     		mov	r1, r3
 182 0140 FFF7FEFF 		bl	cos
 183              		.loc 1 46 21
 184 0144 4FF00002 		mov	r2, #0
 185 0148 6F4B     		ldr	r3, .L2+16
 186 014a FFF7FEFF 		bl	__aeabi_dmul
 187 014e 0246     		mov	r2, r0
 188 0150 0B46     		mov	r3, r1
 189 0152 1046     		mov	r0, r2
 190 0154 1946     		mov	r1, r3
 191 0156 FFF7FEFF 		bl	rint
 192 015a 0246     		mov	r2, r0
 193 015c 0B46     		mov	r3, r1
 194              		.loc 1 46 11
 195 015e 1046     		mov	r0, r2
 196 0160 1946     		mov	r1, r3
 197 0162 FFF7FEFF 		bl	__aeabi_d2iz
 198 0166 0346     		mov	r3, r0
 199 0168 1693     		str	r3, [sp, #88]
 200              		.loc 1 49 23
 201 016a 179B     		ldr	r3, [sp, #92]
 202 016c 5A42     		rsbs	r2, r3, #0
 203              		.loc 1 49 21
 204 016e 159B     		ldr	r3, [sp, #84]
 205 0170 1A60     		str	r2, [r3]
 206              		.loc 1 50 21
 207 0172 159A     		ldr	r2, [sp, #84]
 208 0174 169B     		ldr	r3, [sp, #88]
 209 0176 5360     		str	r3, [r2, #4]
 210              		.loc 1 51 21
 211 0178 159A     		ldr	r2, [sp, #84]
 212 017a 0023     		movs	r3, #0
 213 017c 9360     		str	r3, [r2, #8]
 214              		.loc 1 52 35
 215 017e 199B     		ldr	r3, [sp, #100]
 216 0180 DA17     		asrs	r2, r3, #31
 217 0182 0693     		str	r3, [sp, #24]
 218 0184 0792     		str	r2, [sp, #28]
 219              		.loc 1 52 34
 220 0186 0023     		movs	r3, #0
 221 0188 DDE90601 		ldrd	r0, [sp, #24]
 222 018c 0246     		mov	r2, r0
 223 018e 5242     		negs	r2, r2
 224 0190 0092     		str	r2, [sp]
 225 0192 0A46     		mov	r2, r1
 226 0194 63EB0203 		sbc	r3, r3, r2
 227 0198 0193     		str	r3, [sp, #4]
 228              		.loc 1 52 54
ARM GAS  /tmp/ccKtbbXa.s 			page 5


 229 019a 169B     		ldr	r3, [sp, #88]
 230 019c DA17     		asrs	r2, r3, #31
 231 019e 0293     		str	r3, [sp, #8]
 232 01a0 0392     		str	r2, [sp, #12]
 233              		.loc 1 52 52
 234 01a2 DDE90001 		ldrd	r0, [sp]
 235 01a6 0B46     		mov	r3, r1
 236 01a8 029A     		ldr	r2, [sp, #8]
 237 01aa 02FB03F2 		mul	r2, r2, r3
 238 01ae 039B     		ldr	r3, [sp, #12]
 239 01b0 CDE90001 		strd	r0, [sp]
 240 01b4 0146     		mov	r1, r0
 241 01b6 01FB03F3 		mul	r3, r1, r3
 242 01ba 1344     		add	r3, r3, r2
 243 01bc 009A     		ldr	r2, [sp]
 244 01be 0299     		ldr	r1, [sp, #8]
 245 01c0 A2FB0145 		umull	r4, r5, r2, r1
 246 01c4 2B44     		add	r3, r3, r5
 247 01c6 1D46     		mov	r5, r3
 248              		.loc 1 52 72
 249 01c8 4FF00002 		mov	r2, #0
 250 01cc 4FF00003 		mov	r3, #0
 251 01d0 220D     		lsrs	r2, r4, #20
 252 01d2 42EA0532 		orr	r2, r2, r5, lsl #12
 253 01d6 2B15     		asrs	r3, r5, #20
 254              		.loc 1 52 21
 255 01d8 159B     		ldr	r3, [sp, #84]
 256 01da DA60     		str	r2, [r3, #12]
 257              		.loc 1 53 35
 258 01dc 199B     		ldr	r3, [sp, #100]
 259 01de DA17     		asrs	r2, r3, #31
 260 01e0 0893     		str	r3, [sp, #32]
 261 01e2 0992     		str	r2, [sp, #36]
 262              		.loc 1 53 34
 263 01e4 0023     		movs	r3, #0
 264 01e6 DDE90801 		ldrd	r0, [sp, #32]
 265 01ea 0246     		mov	r2, r0
 266 01ec 5242     		negs	r2, r2
 267 01ee 0A92     		str	r2, [sp, #40]
 268 01f0 0A46     		mov	r2, r1
 269 01f2 63EB0203 		sbc	r3, r3, r2
 270 01f6 0B93     		str	r3, [sp, #44]
 271              		.loc 1 53 54
 272 01f8 179B     		ldr	r3, [sp, #92]
 273 01fa DA17     		asrs	r2, r3, #31
 274 01fc 0493     		str	r3, [sp, #16]
 275 01fe 0592     		str	r2, [sp, #20]
 276              		.loc 1 53 52
 277 0200 DDE90A01 		ldrd	r0, [sp, #40]
 278 0204 0B46     		mov	r3, r1
 279 0206 DDE90445 		ldrd	r4, [sp, #16]
 280 020a 2246     		mov	r2, r4
 281 020c 02FB03F2 		mul	r2, r2, r3
 282 0210 CDE90445 		strd	r4, [sp, #16]
 283 0214 2B46     		mov	r3, r5
 284 0216 0446     		mov	r4, r0
 285 0218 0D46     		mov	r5, r1
ARM GAS  /tmp/ccKtbbXa.s 			page 6


 286 021a 2146     		mov	r1, r4
 287 021c 01FB03F3 		mul	r3, r1, r3
 288 0220 1344     		add	r3, r3, r2
 289 0222 2246     		mov	r2, r4
 290 0224 0499     		ldr	r1, [sp, #16]
 291 0226 A2FB0167 		umull	r6, r7, r2, r1
 292 022a 3B44     		add	r3, r3, r7
 293 022c 1F46     		mov	r7, r3
 294              		.loc 1 53 72
 295 022e 4FF00002 		mov	r2, #0
 296 0232 4FF00003 		mov	r3, #0
 297 0236 320D     		lsrs	r2, r6, #20
 298 0238 42EA0732 		orr	r2, r2, r7, lsl #12
 299 023c 3B15     		asrs	r3, r7, #20
 300              		.loc 1 53 21
 301 023e 159B     		ldr	r3, [sp, #84]
 302 0240 1A61     		str	r2, [r3, #16]
 303              		.loc 1 54 21
 304 0242 159B     		ldr	r3, [sp, #84]
 305 0244 189A     		ldr	r2, [sp, #96]
 306 0246 5A61     		str	r2, [r3, #20]
 307              		.loc 1 55 34
 308 0248 189B     		ldr	r3, [sp, #96]
 309 024a DA17     		asrs	r2, r3, #31
 310 024c 0C93     		str	r3, [sp, #48]
 311 024e 0D92     		str	r2, [sp, #52]
 312              		.loc 1 55 53
 313 0250 169B     		ldr	r3, [sp, #88]
 314 0252 DA17     		asrs	r2, r3, #31
 315 0254 0E93     		str	r3, [sp, #56]
 316 0256 0F92     		str	r2, [sp, #60]
 317              		.loc 1 55 51
 318 0258 DDE90C45 		ldrd	r4, [sp, #48]
 319 025c 2B46     		mov	r3, r5
 320 025e DDE90E67 		ldrd	r6, [sp, #56]
 321 0262 3246     		mov	r2, r6
 322 0264 02FB03F2 		mul	r2, r2, r3
 323 0268 3B46     		mov	r3, r7
 324 026a 2146     		mov	r1, r4
 325 026c 01FB03F3 		mul	r3, r1, r3
 326 0270 1344     		add	r3, r3, r2
 327 0272 2246     		mov	r2, r4
 328 0274 3146     		mov	r1, r6
 329 0276 A2FB01AB 		umull	r10, fp, r2, r1
 330 027a 5B44     		add	r3, r3, fp
 331 027c 9B46     		mov	fp, r3
 332              		.loc 1 55 71
 333 027e 4FF00002 		mov	r2, #0
 334 0282 4FF00003 		mov	r3, #0
 335 0286 4FEA1A52 		lsr	r2, r10, #20
 336 028a 42EA0B32 		orr	r2, r2, fp, lsl #12
 337 028e 4FEA2B53 		asr	r3, fp, #20
 338              		.loc 1 55 21
 339 0292 159B     		ldr	r3, [sp, #84]
 340 0294 9A61     		str	r2, [r3, #24]
 341              		.loc 1 56 34
 342 0296 189B     		ldr	r3, [sp, #96]
ARM GAS  /tmp/ccKtbbXa.s 			page 7


 343 0298 DA17     		asrs	r2, r3, #31
 344 029a 1093     		str	r3, [sp, #64]
 345 029c 1192     		str	r2, [sp, #68]
 346              		.loc 1 56 53
 347 029e 179B     		ldr	r3, [sp, #92]
 348 02a0 DA17     		asrs	r2, r3, #31
 349 02a2 1293     		str	r3, [sp, #72]
 350 02a4 1392     		str	r2, [sp, #76]
 351              		.loc 1 56 51
 352 02a6 DDE91045 		ldrd	r4, [sp, #64]
 353 02aa 2B46     		mov	r3, r5
 354 02ac DDE91267 		ldrd	r6, [sp, #72]
 355 02b0 3246     		mov	r2, r6
 356 02b2 02FB03F2 		mul	r2, r2, r3
 357 02b6 3B46     		mov	r3, r7
 358 02b8 2146     		mov	r1, r4
 359 02ba 01FB03F3 		mul	r3, r1, r3
 360 02be 1344     		add	r3, r3, r2
 361 02c0 2246     		mov	r2, r4
 362 02c2 3146     		mov	r1, r6
 363 02c4 A2FB0189 		umull	r8, r9, r2, r1
 364 02c8 4B44     		add	r3, r3, r9
 365 02ca 9946     		mov	r9, r3
 366              		.loc 1 56 71
 367 02cc 4FF00002 		mov	r2, #0
 368 02d0 4FF00003 		mov	r3, #0
 369 02d4 4FEA1852 		lsr	r2, r8, #20
 370 02d8 42EA0932 		orr	r2, r2, r9, lsl #12
 371 02dc 4FEA2953 		asr	r3, r9, #20
 372              		.loc 1 56 21
 373 02e0 159B     		ldr	r3, [sp, #84]
 374 02e2 DA61     		str	r2, [r3, #28]
 375              		.loc 1 57 21
 376 02e4 159B     		ldr	r3, [sp, #84]
 377 02e6 199A     		ldr	r2, [sp, #100]
 378 02e8 1A62     		str	r2, [r3, #32]
 379              		.loc 1 58 1
 380 02ea 00BF     		nop
 381 02ec 1BB0     		add	sp, sp, #108
 382              		.cfi_def_cfa_offset 36
 383              		@ sp needed
 384 02ee BDE8F08F 		pop	{r4, r5, r6, r7, r8, r9, r10, fp, pc}
 385              	.L3:
 386 02f2 00BFAFF3 		.align	3
 386      0080
 387              	.L2:
 388 02f8 399D52A2 		.word	-1571644103
 389 02fc 46DF913F 		.word	1066524486
 390 0300 00000000 		.word	0
 391 0304 D0126341 		.word	1097011920
 392 0308 00003041 		.word	1093664768
 393              		.cfi_endproc
 394              	.LFE21:
 395              		.size	ltp_of_ecef_rmat_from_lla_i, .-ltp_of_ecef_rmat_from_lla_i
 396              		.section	.text.ltp_def_from_ecef_i,"ax",%progbits
 397              		.align	1
 398              		.p2align 4,,15
ARM GAS  /tmp/ccKtbbXa.s 			page 8


 399              		.global	ltp_def_from_ecef_i
 400              		.syntax unified
 401              		.thumb
 402              		.thumb_func
 403              		.fpu fpv4-sp-d16
 404              		.type	ltp_def_from_ecef_i, %function
 405              	ltp_def_from_ecef_i:
 406              	.LFB22:
 407              		.loc 1 61 1
 408              		.cfi_startproc
 409              		@ args = 0, pretend = 0, frame = 8
 410              		@ frame_needed = 0, uses_anonymous_args = 0
 411 0000 00B5     		push	{lr}
 412              		.cfi_def_cfa_offset 4
 413              		.cfi_offset 14, -4
 414 0002 83B0     		sub	sp, sp, #12
 415              		.cfi_def_cfa_offset 16
 416 0004 0190     		str	r0, [sp, #4]
 417 0006 0091     		str	r1, [sp]
 418              		.loc 1 64 3
 419 0008 009B     		ldr	r3, [sp]
 420 000a 1A68     		ldr	r2, [r3]
 421 000c 019B     		ldr	r3, [sp, #4]
 422 000e 1A60     		str	r2, [r3]
 423 0010 009B     		ldr	r3, [sp]
 424 0012 5A68     		ldr	r2, [r3, #4]
 425 0014 019B     		ldr	r3, [sp, #4]
 426 0016 5A60     		str	r2, [r3, #4]
 427 0018 009B     		ldr	r3, [sp]
 428 001a 9A68     		ldr	r2, [r3, #8]
 429 001c 019B     		ldr	r3, [sp, #4]
 430 001e 9A60     		str	r2, [r3, #8]
 431              		.loc 1 66 3
 432 0020 019B     		ldr	r3, [sp, #4]
 433 0022 0C33     		adds	r3, r3, #12
 434 0024 019A     		ldr	r2, [sp, #4]
 435 0026 1146     		mov	r1, r2
 436 0028 1846     		mov	r0, r3
 437 002a FFF7FEFF 		bl	lla_of_ecef_i
 438              		.loc 1 68 3
 439 002e 019B     		ldr	r3, [sp, #4]
 440 0030 03F11802 		add	r2, r3, #24
 441 0034 019B     		ldr	r3, [sp, #4]
 442 0036 0C33     		adds	r3, r3, #12
 443 0038 1946     		mov	r1, r3
 444 003a 1046     		mov	r0, r2
 445 003c FFF7FEFF 		bl	ltp_of_ecef_rmat_from_lla_i
 446              		.loc 1 70 1
 447 0040 00BF     		nop
 448 0042 03B0     		add	sp, sp, #12
 449              		.cfi_def_cfa_offset 4
 450              		@ sp needed
 451 0044 5DF804FB 		ldr	pc, [sp], #4
 452              		.cfi_endproc
 453              	.LFE22:
 454              		.size	ltp_def_from_ecef_i, .-ltp_def_from_ecef_i
 455              		.section	.text.ltp_def_from_lla_i,"ax",%progbits
ARM GAS  /tmp/ccKtbbXa.s 			page 9


 456              		.align	1
 457              		.p2align 4,,15
 458              		.global	ltp_def_from_lla_i
 459              		.syntax unified
 460              		.thumb
 461              		.thumb_func
 462              		.fpu fpv4-sp-d16
 463              		.type	ltp_def_from_lla_i, %function
 464              	ltp_def_from_lla_i:
 465              	.LFB23:
 466              		.loc 1 73 1
 467              		.cfi_startproc
 468              		@ args = 0, pretend = 0, frame = 8
 469              		@ frame_needed = 0, uses_anonymous_args = 0
 470 0000 00B5     		push	{lr}
 471              		.cfi_def_cfa_offset 4
 472              		.cfi_offset 14, -4
 473 0002 83B0     		sub	sp, sp, #12
 474              		.cfi_def_cfa_offset 16
 475 0004 0190     		str	r0, [sp, #4]
 476 0006 0091     		str	r1, [sp]
 477              		.loc 1 76 3
 478 0008 009B     		ldr	r3, [sp]
 479 000a 1A68     		ldr	r2, [r3]
 480 000c 019B     		ldr	r3, [sp, #4]
 481 000e DA60     		str	r2, [r3, #12]
 482 0010 009B     		ldr	r3, [sp]
 483 0012 5A68     		ldr	r2, [r3, #4]
 484 0014 019B     		ldr	r3, [sp, #4]
 485 0016 1A61     		str	r2, [r3, #16]
 486 0018 009B     		ldr	r3, [sp]
 487 001a 9A68     		ldr	r2, [r3, #8]
 488 001c 019B     		ldr	r3, [sp, #4]
 489 001e 5A61     		str	r2, [r3, #20]
 490              		.loc 1 78 3
 491 0020 019A     		ldr	r2, [sp, #4]
 492 0022 019B     		ldr	r3, [sp, #4]
 493 0024 0C33     		adds	r3, r3, #12
 494 0026 1946     		mov	r1, r3
 495 0028 1046     		mov	r0, r2
 496 002a FFF7FEFF 		bl	ecef_of_lla_i
 497              		.loc 1 80 3
 498 002e 019B     		ldr	r3, [sp, #4]
 499 0030 03F11802 		add	r2, r3, #24
 500 0034 019B     		ldr	r3, [sp, #4]
 501 0036 0C33     		adds	r3, r3, #12
 502 0038 1946     		mov	r1, r3
 503 003a 1046     		mov	r0, r2
 504 003c FFF7FEFF 		bl	ltp_of_ecef_rmat_from_lla_i
 505              		.loc 1 82 1
 506 0040 00BF     		nop
 507 0042 03B0     		add	sp, sp, #12
 508              		.cfi_def_cfa_offset 4
 509              		@ sp needed
 510 0044 5DF804FB 		ldr	pc, [sp], #4
 511              		.cfi_endproc
 512              	.LFE23:
ARM GAS  /tmp/ccKtbbXa.s 			page 10


 513              		.size	ltp_def_from_lla_i, .-ltp_def_from_lla_i
 514              		.section	.text.enu_of_ecef_point_i,"ax",%progbits
 515              		.align	1
 516              		.p2align 4,,15
 517              		.global	enu_of_ecef_point_i
 518              		.syntax unified
 519              		.thumb
 520              		.thumb_func
 521              		.fpu fpv4-sp-d16
 522              		.type	enu_of_ecef_point_i, %function
 523              	enu_of_ecef_point_i:
 524              	.LFB24:
 525              		.loc 1 91 1
 526              		.cfi_startproc
 527              		@ args = 0, pretend = 0, frame = 256
 528              		@ frame_needed = 0, uses_anonymous_args = 0
 529              		@ link register save eliminated.
 530 0000 2DE9F00F 		push	{r4, r5, r6, r7, r8, r9, r10, fp}
 531              		.cfi_def_cfa_offset 32
 532              		.cfi_offset 4, -32
 533              		.cfi_offset 5, -28
 534              		.cfi_offset 6, -24
 535              		.cfi_offset 7, -20
 536              		.cfi_offset 8, -16
 537              		.cfi_offset 9, -12
 538              		.cfi_offset 10, -8
 539              		.cfi_offset 11, -4
 540 0004 C0B0     		sub	sp, sp, #256
 541              		.cfi_def_cfa_offset 288
 542 0006 3590     		str	r0, [sp, #212]
 543 0008 3491     		str	r1, [sp, #208]
 544 000a 3392     		str	r2, [sp, #204]
 545              		.loc 1 94 3
 546 000c 339B     		ldr	r3, [sp, #204]
 547 000e 1A68     		ldr	r2, [r3]
 548 0010 349B     		ldr	r3, [sp, #208]
 549 0012 1B68     		ldr	r3, [r3]
 550 0014 D31A     		subs	r3, r2, r3
 551 0016 3793     		str	r3, [sp, #220]
 552 0018 339B     		ldr	r3, [sp, #204]
 553 001a 5A68     		ldr	r2, [r3, #4]
 554 001c 349B     		ldr	r3, [sp, #208]
 555 001e 5B68     		ldr	r3, [r3, #4]
 556 0020 D31A     		subs	r3, r2, r3
 557 0022 3893     		str	r3, [sp, #224]
 558 0024 339B     		ldr	r3, [sp, #204]
 559 0026 9A68     		ldr	r2, [r3, #8]
 560 0028 349B     		ldr	r3, [sp, #208]
 561 002a 9B68     		ldr	r3, [r3, #8]
 562 002c D31A     		subs	r3, r2, r3
 563 002e 3993     		str	r3, [sp, #228]
 564              		.loc 1 95 51
 565 0030 349B     		ldr	r3, [sp, #208]
 566 0032 9B69     		ldr	r3, [r3, #24]
 567              		.loc 1 95 24
 568 0034 DA17     		asrs	r2, r3, #31
 569 0036 9A46     		mov	r10, r3
ARM GAS  /tmp/ccKtbbXa.s 			page 11


 570 0038 9346     		mov	fp, r2
 571              		.loc 1 95 62
 572 003a 379B     		ldr	r3, [sp, #220]
 573 003c DA17     		asrs	r2, r3, #31
 574 003e 1E46     		mov	r6, r3
 575 0040 1746     		mov	r7, r2
 576              		.loc 1 95 55
 577 0042 06FB0BF2 		mul	r2, r6, fp
 578 0046 0AFB07F3 		mul	r3, r10, r7
 579 004a 1344     		add	r3, r3, r2
 580 004c AAFB0689 		umull	r8, r9, r10, r6
 581 0050 4B44     		add	r3, r3, r9
 582 0052 9946     		mov	r9, r3
 583              		.loc 1 96 51
 584 0054 349B     		ldr	r3, [sp, #208]
 585 0056 DB69     		ldr	r3, [r3, #28]
 586              		.loc 1 96 24
 587 0058 DA17     		asrs	r2, r3, #31
 588 005a 0C93     		str	r3, [sp, #48]
 589 005c 0D92     		str	r2, [sp, #52]
 590              		.loc 1 96 62
 591 005e 389B     		ldr	r3, [sp, #224]
 592 0060 DA17     		asrs	r2, r3, #31
 593 0062 0E93     		str	r3, [sp, #56]
 594 0064 0F92     		str	r2, [sp, #60]
 595              		.loc 1 96 55
 596 0066 DDE90C67 		ldrd	r6, [sp, #48]
 597 006a 3B46     		mov	r3, r7
 598 006c DDE90EAB 		ldrd	r10, [sp, #56]
 599 0070 5246     		mov	r2, r10
 600 0072 02FB03F2 		mul	r2, r2, r3
 601 0076 5B46     		mov	r3, fp
 602 0078 3146     		mov	r1, r6
 603 007a 01FB03F3 		mul	r3, r1, r3
 604 007e 1344     		add	r3, r3, r2
 605 0080 3246     		mov	r2, r6
 606 0082 5146     		mov	r1, r10
 607 0084 A2FB0145 		umull	r4, r5, r2, r1
 608 0088 2B44     		add	r3, r3, r5
 609 008a 1D46     		mov	r5, r3
 610              		.loc 1 95 17
 611 008c 18EB0403 		adds	r3, r8, r4
 612 0090 2C93     		str	r3, [sp, #176]
 613 0092 49EB0503 		adc	r3, r9, r5
 614 0096 2D93     		str	r3, [sp, #180]
 615 0098 DDE92C34 		ldrd	r3, [sp, #176]
 616 009c CDE93E34 		strd	r3, [sp, #248]
 617              		.loc 1 98 27
 618 00a0 DDE93E23 		ldrd	r2, [sp, #248]
 619 00a4 4FF00000 		mov	r0, #0
 620 00a8 4FF00001 		mov	r1, #0
 621 00ac 100D     		lsrs	r0, r2, #20
 622 00ae 40EA0330 		orr	r0, r0, r3, lsl #12
 623 00b2 1915     		asrs	r1, r3, #20
 624              		.loc 1 98 12
 625 00b4 0246     		mov	r2, r0
 626              		.loc 1 98 10
ARM GAS  /tmp/ccKtbbXa.s 			page 12


 627 00b6 359B     		ldr	r3, [sp, #212]
 628 00b8 1A60     		str	r2, [r3]
 629              		.loc 1 99 51
 630 00ba 349B     		ldr	r3, [sp, #208]
 631 00bc 5B6A     		ldr	r3, [r3, #36]
 632              		.loc 1 99 24
 633 00be DA17     		asrs	r2, r3, #31
 634 00c0 1093     		str	r3, [sp, #64]
 635 00c2 1192     		str	r2, [sp, #68]
 636              		.loc 1 99 62
 637 00c4 379B     		ldr	r3, [sp, #220]
 638 00c6 DA17     		asrs	r2, r3, #31
 639 00c8 1293     		str	r3, [sp, #72]
 640 00ca 1392     		str	r2, [sp, #76]
 641              		.loc 1 99 55
 642 00cc DDE91045 		ldrd	r4, [sp, #64]
 643 00d0 2B46     		mov	r3, r5
 644 00d2 DDE91267 		ldrd	r6, [sp, #72]
 645 00d6 3246     		mov	r2, r6
 646 00d8 02FB03F2 		mul	r2, r2, r3
 647 00dc 3B46     		mov	r3, r7
 648 00de 2146     		mov	r1, r4
 649 00e0 01FB03F3 		mul	r3, r1, r3
 650 00e4 1344     		add	r3, r3, r2
 651 00e6 2246     		mov	r2, r4
 652 00e8 3146     		mov	r1, r6
 653 00ea A2FB0112 		umull	r1, r2, r2, r1
 654 00ee 0192     		str	r2, [sp, #4]
 655 00f0 0A46     		mov	r2, r1
 656 00f2 0092     		str	r2, [sp]
 657 00f4 019A     		ldr	r2, [sp, #4]
 658 00f6 1344     		add	r3, r3, r2
 659 00f8 0193     		str	r3, [sp, #4]
 660              		.loc 1 100 51
 661 00fa 349B     		ldr	r3, [sp, #208]
 662 00fc 9B6A     		ldr	r3, [r3, #40]
 663              		.loc 1 100 24
 664 00fe DA17     		asrs	r2, r3, #31
 665 0100 1493     		str	r3, [sp, #80]
 666 0102 1592     		str	r2, [sp, #84]
 667              		.loc 1 100 62
 668 0104 389B     		ldr	r3, [sp, #224]
 669 0106 DA17     		asrs	r2, r3, #31
 670 0108 1693     		str	r3, [sp, #88]
 671 010a 1792     		str	r2, [sp, #92]
 672              		.loc 1 100 55
 673 010c DDE91445 		ldrd	r4, [sp, #80]
 674 0110 2B46     		mov	r3, r5
 675 0112 DDE91667 		ldrd	r6, [sp, #88]
 676 0116 3246     		mov	r2, r6
 677 0118 02FB03F2 		mul	r2, r2, r3
 678 011c 3B46     		mov	r3, r7
 679 011e 2146     		mov	r1, r4
 680 0120 01FB03F3 		mul	r3, r1, r3
 681 0124 1344     		add	r3, r3, r2
 682 0126 2246     		mov	r2, r4
 683 0128 3146     		mov	r1, r6
ARM GAS  /tmp/ccKtbbXa.s 			page 13


 684 012a A2FB0112 		umull	r1, r2, r2, r1
 685 012e 0392     		str	r2, [sp, #12]
 686 0130 0A46     		mov	r2, r1
 687 0132 0292     		str	r2, [sp, #8]
 688 0134 039A     		ldr	r2, [sp, #12]
 689 0136 1344     		add	r3, r3, r2
 690 0138 0393     		str	r3, [sp, #12]
 691              		.loc 1 99 65
 692 013a DDE90045 		ldrd	r4, [sp]
 693 013e 2346     		mov	r3, r4
 694 0140 DDE90201 		ldrd	r0, [sp, #8]
 695 0144 0246     		mov	r2, r0
 696 0146 9B18     		adds	r3, r3, r2
 697 0148 1893     		str	r3, [sp, #96]
 698 014a 0B46     		mov	r3, r1
 699 014c 2A46     		mov	r2, r5
 700 014e 42EB0303 		adc	r3, r2, r3
 701 0152 1993     		str	r3, [sp, #100]
 702              		.loc 1 101 51
 703 0154 349B     		ldr	r3, [sp, #208]
 704 0156 DB6A     		ldr	r3, [r3, #44]
 705              		.loc 1 101 24
 706 0158 DA17     		asrs	r2, r3, #31
 707 015a 1A93     		str	r3, [sp, #104]
 708 015c 1B92     		str	r2, [sp, #108]
 709              		.loc 1 101 62
 710 015e 399B     		ldr	r3, [sp, #228]
 711 0160 DA17     		asrs	r2, r3, #31
 712 0162 1C93     		str	r3, [sp, #112]
 713 0164 1D92     		str	r2, [sp, #116]
 714              		.loc 1 101 55
 715 0166 DDE91A45 		ldrd	r4, [sp, #104]
 716 016a 2B46     		mov	r3, r5
 717 016c DDE91C67 		ldrd	r6, [sp, #112]
 718 0170 3246     		mov	r2, r6
 719 0172 02FB03F2 		mul	r2, r2, r3
 720 0176 3B46     		mov	r3, r7
 721 0178 2146     		mov	r1, r4
 722 017a 01FB03F3 		mul	r3, r1, r3
 723 017e 1344     		add	r3, r3, r2
 724 0180 2246     		mov	r2, r4
 725 0182 3146     		mov	r1, r6
 726 0184 A2FB0112 		umull	r1, r2, r2, r1
 727 0188 0592     		str	r2, [sp, #20]
 728 018a 0A46     		mov	r2, r1
 729 018c 0492     		str	r2, [sp, #16]
 730 018e 059A     		ldr	r2, [sp, #20]
 731 0190 1344     		add	r3, r3, r2
 732 0192 0593     		str	r3, [sp, #20]
 733              		.loc 1 99 17
 734 0194 DDE91845 		ldrd	r4, [sp, #96]
 735 0198 2346     		mov	r3, r4
 736 019a DDE90401 		ldrd	r0, [sp, #16]
 737 019e 0246     		mov	r2, r0
 738 01a0 9B18     		adds	r3, r3, r2
 739 01a2 2E93     		str	r3, [sp, #184]
 740 01a4 0B46     		mov	r3, r1
ARM GAS  /tmp/ccKtbbXa.s 			page 14


 741 01a6 2A46     		mov	r2, r5
 742 01a8 42EB0303 		adc	r3, r2, r3
 743 01ac 2F93     		str	r3, [sp, #188]
 744 01ae DDE92E34 		ldrd	r3, [sp, #184]
 745 01b2 CDE93C34 		strd	r3, [sp, #240]
 746              		.loc 1 102 27
 747 01b6 DDE93C23 		ldrd	r2, [sp, #240]
 748 01ba 4FF00000 		mov	r0, #0
 749 01be 4FF00001 		mov	r1, #0
 750 01c2 100D     		lsrs	r0, r2, #20
 751 01c4 40EA0330 		orr	r0, r0, r3, lsl #12
 752 01c8 1915     		asrs	r1, r3, #20
 753              		.loc 1 102 12
 754 01ca 0246     		mov	r2, r0
 755              		.loc 1 102 10
 756 01cc 359B     		ldr	r3, [sp, #212]
 757 01ce 5A60     		str	r2, [r3, #4]
 758              		.loc 1 103 51
 759 01d0 349B     		ldr	r3, [sp, #208]
 760 01d2 1B6B     		ldr	r3, [r3, #48]
 761              		.loc 1 103 24
 762 01d4 DA17     		asrs	r2, r3, #31
 763 01d6 1E93     		str	r3, [sp, #120]
 764 01d8 1F92     		str	r2, [sp, #124]
 765              		.loc 1 103 62
 766 01da 379B     		ldr	r3, [sp, #220]
 767 01dc DA17     		asrs	r2, r3, #31
 768 01de 2093     		str	r3, [sp, #128]
 769 01e0 2192     		str	r2, [sp, #132]
 770              		.loc 1 103 55
 771 01e2 DDE91E45 		ldrd	r4, [sp, #120]
 772 01e6 2B46     		mov	r3, r5
 773 01e8 DDE92067 		ldrd	r6, [sp, #128]
 774 01ec 3246     		mov	r2, r6
 775 01ee 02FB03F2 		mul	r2, r2, r3
 776 01f2 3B46     		mov	r3, r7
 777 01f4 2146     		mov	r1, r4
 778 01f6 01FB03F3 		mul	r3, r1, r3
 779 01fa 1344     		add	r3, r3, r2
 780 01fc 2246     		mov	r2, r4
 781 01fe 3146     		mov	r1, r6
 782 0200 A2FB0112 		umull	r1, r2, r2, r1
 783 0204 0792     		str	r2, [sp, #28]
 784 0206 0A46     		mov	r2, r1
 785 0208 0692     		str	r2, [sp, #24]
 786 020a 079A     		ldr	r2, [sp, #28]
 787 020c 1344     		add	r3, r3, r2
 788 020e 0793     		str	r3, [sp, #28]
 789              		.loc 1 104 51
 790 0210 349B     		ldr	r3, [sp, #208]
 791 0212 5B6B     		ldr	r3, [r3, #52]
 792              		.loc 1 104 24
 793 0214 DA17     		asrs	r2, r3, #31
 794 0216 2293     		str	r3, [sp, #136]
 795 0218 2392     		str	r2, [sp, #140]
 796              		.loc 1 104 62
 797 021a 389B     		ldr	r3, [sp, #224]
ARM GAS  /tmp/ccKtbbXa.s 			page 15


 798 021c DA17     		asrs	r2, r3, #31
 799 021e 2493     		str	r3, [sp, #144]
 800 0220 2592     		str	r2, [sp, #148]
 801              		.loc 1 104 55
 802 0222 DDE92245 		ldrd	r4, [sp, #136]
 803 0226 2B46     		mov	r3, r5
 804 0228 DDE92467 		ldrd	r6, [sp, #144]
 805 022c 3246     		mov	r2, r6
 806 022e 02FB03F2 		mul	r2, r2, r3
 807 0232 3B46     		mov	r3, r7
 808 0234 2146     		mov	r1, r4
 809 0236 01FB03F3 		mul	r3, r1, r3
 810 023a 1344     		add	r3, r3, r2
 811 023c 2246     		mov	r2, r4
 812 023e 3146     		mov	r1, r6
 813 0240 A2FB0112 		umull	r1, r2, r2, r1
 814 0244 0992     		str	r2, [sp, #36]
 815 0246 0A46     		mov	r2, r1
 816 0248 0892     		str	r2, [sp, #32]
 817 024a 099A     		ldr	r2, [sp, #36]
 818 024c 1344     		add	r3, r3, r2
 819 024e 0993     		str	r3, [sp, #36]
 820              		.loc 1 103 65
 821 0250 DDE90645 		ldrd	r4, [sp, #24]
 822 0254 2346     		mov	r3, r4
 823 0256 DDE90801 		ldrd	r0, [sp, #32]
 824 025a 0246     		mov	r2, r0
 825 025c 9B18     		adds	r3, r3, r2
 826 025e 2693     		str	r3, [sp, #152]
 827 0260 0B46     		mov	r3, r1
 828 0262 2A46     		mov	r2, r5
 829 0264 42EB0303 		adc	r3, r2, r3
 830 0268 2793     		str	r3, [sp, #156]
 831              		.loc 1 105 51
 832 026a 349B     		ldr	r3, [sp, #208]
 833 026c 9B6B     		ldr	r3, [r3, #56]
 834              		.loc 1 105 24
 835 026e DA17     		asrs	r2, r3, #31
 836 0270 2893     		str	r3, [sp, #160]
 837 0272 2992     		str	r2, [sp, #164]
 838              		.loc 1 105 62
 839 0274 399B     		ldr	r3, [sp, #228]
 840 0276 DA17     		asrs	r2, r3, #31
 841 0278 2A93     		str	r3, [sp, #168]
 842 027a 2B92     		str	r2, [sp, #172]
 843              		.loc 1 105 55
 844 027c DDE92845 		ldrd	r4, [sp, #160]
 845 0280 2B46     		mov	r3, r5
 846 0282 DDE92A67 		ldrd	r6, [sp, #168]
 847 0286 3246     		mov	r2, r6
 848 0288 02FB03F2 		mul	r2, r2, r3
 849 028c 3B46     		mov	r3, r7
 850 028e 2146     		mov	r1, r4
 851 0290 01FB03F3 		mul	r3, r1, r3
 852 0294 1344     		add	r3, r3, r2
 853 0296 2246     		mov	r2, r4
 854 0298 3146     		mov	r1, r6
ARM GAS  /tmp/ccKtbbXa.s 			page 16


 855 029a A2FB0112 		umull	r1, r2, r2, r1
 856 029e 0B92     		str	r2, [sp, #44]
 857 02a0 0A46     		mov	r2, r1
 858 02a2 0A92     		str	r2, [sp, #40]
 859 02a4 0B9A     		ldr	r2, [sp, #44]
 860 02a6 1344     		add	r3, r3, r2
 861 02a8 0B93     		str	r3, [sp, #44]
 862              		.loc 1 103 17
 863 02aa DDE92645 		ldrd	r4, [sp, #152]
 864 02ae 2346     		mov	r3, r4
 865 02b0 DDE90A01 		ldrd	r0, [sp, #40]
 866 02b4 0246     		mov	r2, r0
 867 02b6 9B18     		adds	r3, r3, r2
 868 02b8 3093     		str	r3, [sp, #192]
 869 02ba 0B46     		mov	r3, r1
 870 02bc 2A46     		mov	r2, r5
 871 02be 42EB0303 		adc	r3, r2, r3
 872 02c2 3193     		str	r3, [sp, #196]
 873 02c4 DDE93034 		ldrd	r3, [sp, #192]
 874 02c8 CDE93A34 		strd	r3, [sp, #232]
 875              		.loc 1 106 27
 876 02cc DDE93A01 		ldrd	r0, [sp, #232]
 877 02d0 4FF00002 		mov	r2, #0
 878 02d4 4FF00003 		mov	r3, #0
 879 02d8 020D     		lsrs	r2, r0, #20
 880 02da 42EA0132 		orr	r2, r2, r1, lsl #12
 881 02de 0B15     		asrs	r3, r1, #20
 882              		.loc 1 106 10
 883 02e0 359B     		ldr	r3, [sp, #212]
 884 02e2 9A60     		str	r2, [r3, #8]
 885              		.loc 1 108 1
 886 02e4 00BF     		nop
 887 02e6 40B0     		add	sp, sp, #256
 888              		.cfi_def_cfa_offset 32
 889              		@ sp needed
 890 02e8 BDE8F00F 		pop	{r4, r5, r6, r7, r8, r9, r10, fp}
 891              		.cfi_restore 11
 892              		.cfi_restore 10
 893              		.cfi_restore 9
 894              		.cfi_restore 8
 895              		.cfi_restore 7
 896              		.cfi_restore 6
 897              		.cfi_restore 5
 898              		.cfi_restore 4
 899              		.cfi_def_cfa_offset 0
 900 02ec 7047     		bx	lr
 901              		.cfi_endproc
 902              	.LFE24:
 903              		.size	enu_of_ecef_point_i, .-enu_of_ecef_point_i
 904 02ee 00BF     		.section	.text.ned_of_ecef_point_i,"ax",%progbits
 905              		.align	1
 906              		.p2align 4,,15
 907              		.global	ned_of_ecef_point_i
 908              		.syntax unified
 909              		.thumb
 910              		.thumb_func
 911              		.fpu fpv4-sp-d16
ARM GAS  /tmp/ccKtbbXa.s 			page 17


 912              		.type	ned_of_ecef_point_i, %function
 913              	ned_of_ecef_point_i:
 914              	.LFB25:
 915              		.loc 1 117 1
 916              		.cfi_startproc
 917              		@ args = 0, pretend = 0, frame = 32
 918              		@ frame_needed = 0, uses_anonymous_args = 0
 919 0000 00B5     		push	{lr}
 920              		.cfi_def_cfa_offset 4
 921              		.cfi_offset 14, -4
 922 0002 89B0     		sub	sp, sp, #36
 923              		.cfi_def_cfa_offset 40
 924 0004 0390     		str	r0, [sp, #12]
 925 0006 0291     		str	r1, [sp, #8]
 926 0008 0192     		str	r2, [sp, #4]
 927              		.loc 1 119 3
 928 000a 05AB     		add	r3, sp, #20
 929 000c 019A     		ldr	r2, [sp, #4]
 930 000e 0299     		ldr	r1, [sp, #8]
 931 0010 1846     		mov	r0, r3
 932 0012 FFF7FEFF 		bl	enu_of_ecef_point_i
 933              		.loc 1 120 3
 934 0016 069A     		ldr	r2, [sp, #24]
 935 0018 039B     		ldr	r3, [sp, #12]
 936 001a 1A60     		str	r2, [r3]
 937 001c 059A     		ldr	r2, [sp, #20]
 938 001e 039B     		ldr	r3, [sp, #12]
 939 0020 5A60     		str	r2, [r3, #4]
 940 0022 079B     		ldr	r3, [sp, #28]
 941 0024 5A42     		rsbs	r2, r3, #0
 942 0026 039B     		ldr	r3, [sp, #12]
 943 0028 9A60     		str	r2, [r3, #8]
 944              		.loc 1 121 1
 945 002a 00BF     		nop
 946 002c 09B0     		add	sp, sp, #36
 947              		.cfi_def_cfa_offset 4
 948              		@ sp needed
 949 002e 5DF804FB 		ldr	pc, [sp], #4
 950              		.cfi_endproc
 951              	.LFE25:
 952              		.size	ned_of_ecef_point_i, .-ned_of_ecef_point_i
 953 0032 00BF     		.section	.text.enu_of_ecef_pos_i,"ax",%progbits
 954              		.align	1
 955              		.p2align 4,,15
 956              		.global	enu_of_ecef_pos_i
 957              		.syntax unified
 958              		.thumb
 959              		.thumb_func
 960              		.fpu fpv4-sp-d16
 961              		.type	enu_of_ecef_pos_i, %function
 962              	enu_of_ecef_pos_i:
 963              	.LFB26:
 964              		.loc 1 130 1
 965              		.cfi_startproc
 966              		@ args = 0, pretend = 0, frame = 32
 967              		@ frame_needed = 0, uses_anonymous_args = 0
 968 0000 00B5     		push	{lr}
ARM GAS  /tmp/ccKtbbXa.s 			page 18


 969              		.cfi_def_cfa_offset 4
 970              		.cfi_offset 14, -4
 971 0002 89B0     		sub	sp, sp, #36
 972              		.cfi_def_cfa_offset 40
 973 0004 0390     		str	r0, [sp, #12]
 974 0006 0291     		str	r1, [sp, #8]
 975 0008 0192     		str	r2, [sp, #4]
 976              		.loc 1 132 3
 977 000a 05AB     		add	r3, sp, #20
 978 000c 019A     		ldr	r2, [sp, #4]
 979 000e 0299     		ldr	r1, [sp, #8]
 980 0010 1846     		mov	r0, r3
 981 0012 FFF7FEFF 		bl	enu_of_ecef_point_i
 982              		.loc 1 139 3
 983 0016 059B     		ldr	r3, [sp, #20]
 984 0018 9A01     		lsls	r2, r3, #6
 985 001a 039B     		ldr	r3, [sp, #12]
 986 001c 1A60     		str	r2, [r3]
 987 001e 069B     		ldr	r3, [sp, #24]
 988 0020 9A01     		lsls	r2, r3, #6
 989 0022 039B     		ldr	r3, [sp, #12]
 990 0024 5A60     		str	r2, [r3, #4]
 991 0026 079B     		ldr	r3, [sp, #28]
 992 0028 9A01     		lsls	r2, r3, #6
 993 002a 039B     		ldr	r3, [sp, #12]
 994 002c 9A60     		str	r2, [r3, #8]
 995              		.loc 1 140 3
 996 002e 039B     		ldr	r3, [sp, #12]
 997 0030 1B68     		ldr	r3, [r3]
 998 0032 104A     		ldr	r2, .L9
 999 0034 82FB0312 		smull	r1, r2, r2, r3
 1000 0038 D210     		asrs	r2, r2, #3
 1001 003a DB17     		asrs	r3, r3, #31
 1002 003c D21A     		subs	r2, r2, r3
 1003 003e 039B     		ldr	r3, [sp, #12]
 1004 0040 1A60     		str	r2, [r3]
 1005 0042 039B     		ldr	r3, [sp, #12]
 1006 0044 5B68     		ldr	r3, [r3, #4]
 1007 0046 0B4A     		ldr	r2, .L9
 1008 0048 82FB0312 		smull	r1, r2, r2, r3
 1009 004c D210     		asrs	r2, r2, #3
 1010 004e DB17     		asrs	r3, r3, #31
 1011 0050 D21A     		subs	r2, r2, r3
 1012 0052 039B     		ldr	r3, [sp, #12]
 1013 0054 5A60     		str	r2, [r3, #4]
 1014 0056 039B     		ldr	r3, [sp, #12]
 1015 0058 9B68     		ldr	r3, [r3, #8]
 1016 005a 064A     		ldr	r2, .L9
 1017 005c 82FB0312 		smull	r1, r2, r2, r3
 1018 0060 D210     		asrs	r2, r2, #3
 1019 0062 DB17     		asrs	r3, r3, #31
 1020 0064 D21A     		subs	r2, r2, r3
 1021 0066 039B     		ldr	r3, [sp, #12]
 1022 0068 9A60     		str	r2, [r3, #8]
 1023              		.loc 1 141 1
 1024 006a 00BF     		nop
 1025 006c 09B0     		add	sp, sp, #36
ARM GAS  /tmp/ccKtbbXa.s 			page 19


 1026              		.cfi_def_cfa_offset 4
 1027              		@ sp needed
 1028 006e 5DF804FB 		ldr	pc, [sp], #4
 1029              	.L10:
 1030 0072 00BF     		.align	2
 1031              	.L9:
 1032 0074 1F85EB51 		.word	1374389535
 1033              		.cfi_endproc
 1034              	.LFE26:
 1035              		.size	enu_of_ecef_pos_i, .-enu_of_ecef_pos_i
 1036              		.section	.text.ned_of_ecef_pos_i,"ax",%progbits
 1037              		.align	1
 1038              		.p2align 4,,15
 1039              		.global	ned_of_ecef_pos_i
 1040              		.syntax unified
 1041              		.thumb
 1042              		.thumb_func
 1043              		.fpu fpv4-sp-d16
 1044              		.type	ned_of_ecef_pos_i, %function
 1045              	ned_of_ecef_pos_i:
 1046              	.LFB27:
 1047              		.loc 1 150 1
 1048              		.cfi_startproc
 1049              		@ args = 0, pretend = 0, frame = 32
 1050              		@ frame_needed = 0, uses_anonymous_args = 0
 1051 0000 00B5     		push	{lr}
 1052              		.cfi_def_cfa_offset 4
 1053              		.cfi_offset 14, -4
 1054 0002 89B0     		sub	sp, sp, #36
 1055              		.cfi_def_cfa_offset 40
 1056 0004 0390     		str	r0, [sp, #12]
 1057 0006 0291     		str	r1, [sp, #8]
 1058 0008 0192     		str	r2, [sp, #4]
 1059              		.loc 1 152 3
 1060 000a 05AB     		add	r3, sp, #20
 1061 000c 019A     		ldr	r2, [sp, #4]
 1062 000e 0299     		ldr	r1, [sp, #8]
 1063 0010 1846     		mov	r0, r3
 1064 0012 FFF7FEFF 		bl	enu_of_ecef_pos_i
 1065              		.loc 1 153 3
 1066 0016 069A     		ldr	r2, [sp, #24]
 1067 0018 039B     		ldr	r3, [sp, #12]
 1068 001a 1A60     		str	r2, [r3]
 1069 001c 059A     		ldr	r2, [sp, #20]
 1070 001e 039B     		ldr	r3, [sp, #12]
 1071 0020 5A60     		str	r2, [r3, #4]
 1072 0022 079B     		ldr	r3, [sp, #28]
 1073 0024 5A42     		rsbs	r2, r3, #0
 1074 0026 039B     		ldr	r3, [sp, #12]
 1075 0028 9A60     		str	r2, [r3, #8]
 1076              		.loc 1 154 1
 1077 002a 00BF     		nop
 1078 002c 09B0     		add	sp, sp, #36
 1079              		.cfi_def_cfa_offset 4
 1080              		@ sp needed
 1081 002e 5DF804FB 		ldr	pc, [sp], #4
 1082              		.cfi_endproc
ARM GAS  /tmp/ccKtbbXa.s 			page 20


 1083              	.LFE27:
 1084              		.size	ned_of_ecef_pos_i, .-ned_of_ecef_pos_i
 1085 0032 00BF     		.section	.text.enu_of_ecef_vect_i,"ax",%progbits
 1086              		.align	1
 1087              		.p2align 4,,15
 1088              		.global	enu_of_ecef_vect_i
 1089              		.syntax unified
 1090              		.thumb
 1091              		.thumb_func
 1092              		.fpu fpv4-sp-d16
 1093              		.type	enu_of_ecef_vect_i, %function
 1094              	enu_of_ecef_vect_i:
 1095              	.LFB28:
 1096              		.loc 1 163 1
 1097              		.cfi_startproc
 1098              		@ args = 0, pretend = 0, frame = 240
 1099              		@ frame_needed = 0, uses_anonymous_args = 0
 1100              		@ link register save eliminated.
 1101 0000 2DE9F00F 		push	{r4, r5, r6, r7, r8, r9, r10, fp}
 1102              		.cfi_def_cfa_offset 32
 1103              		.cfi_offset 4, -32
 1104              		.cfi_offset 5, -28
 1105              		.cfi_offset 6, -24
 1106              		.cfi_offset 7, -20
 1107              		.cfi_offset 8, -16
 1108              		.cfi_offset 9, -12
 1109              		.cfi_offset 10, -8
 1110              		.cfi_offset 11, -4
 1111 0004 BCB0     		sub	sp, sp, #240
 1112              		.cfi_def_cfa_offset 272
 1113 0006 3590     		str	r0, [sp, #212]
 1114 0008 3491     		str	r1, [sp, #208]
 1115 000a 3392     		str	r2, [sp, #204]
 1116              		.loc 1 165 51
 1117 000c 349B     		ldr	r3, [sp, #208]
 1118 000e 9B69     		ldr	r3, [r3, #24]
 1119              		.loc 1 165 24
 1120 0010 DA17     		asrs	r2, r3, #31
 1121 0012 1E46     		mov	r6, r3
 1122 0014 1746     		mov	r7, r2
 1123              		.loc 1 165 61
 1124 0016 339B     		ldr	r3, [sp, #204]
 1125 0018 1B68     		ldr	r3, [r3]
 1126 001a DA17     		asrs	r2, r3, #31
 1127 001c 1C46     		mov	r4, r3
 1128 001e 1546     		mov	r5, r2
 1129              		.loc 1 165 55
 1130 0020 04FB07F2 		mul	r2, r4, r7
 1131 0024 06FB05F3 		mul	r3, r6, r5
 1132 0028 1344     		add	r3, r3, r2
 1133 002a A6FB04AB 		umull	r10, fp, r6, r4
 1134 002e 5B44     		add	r3, r3, fp
 1135 0030 9B46     		mov	fp, r3
 1136              		.loc 1 166 51
 1137 0032 349B     		ldr	r3, [sp, #208]
 1138 0034 DB69     		ldr	r3, [r3, #28]
 1139              		.loc 1 166 24
ARM GAS  /tmp/ccKtbbXa.s 			page 21


 1140 0036 DA17     		asrs	r2, r3, #31
 1141 0038 0C93     		str	r3, [sp, #48]
 1142 003a 0D92     		str	r2, [sp, #52]
 1143              		.loc 1 166 61
 1144 003c 339B     		ldr	r3, [sp, #204]
 1145 003e 5B68     		ldr	r3, [r3, #4]
 1146 0040 DA17     		asrs	r2, r3, #31
 1147 0042 0E93     		str	r3, [sp, #56]
 1148 0044 0F92     		str	r2, [sp, #60]
 1149              		.loc 1 166 55
 1150 0046 DDE90C45 		ldrd	r4, [sp, #48]
 1151 004a 2B46     		mov	r3, r5
 1152 004c DDE90E67 		ldrd	r6, [sp, #56]
 1153 0050 3246     		mov	r2, r6
 1154 0052 02FB03F2 		mul	r2, r2, r3
 1155 0056 3B46     		mov	r3, r7
 1156 0058 2146     		mov	r1, r4
 1157 005a 01FB03F3 		mul	r3, r1, r3
 1158 005e 1344     		add	r3, r3, r2
 1159 0060 2246     		mov	r2, r4
 1160 0062 3146     		mov	r1, r6
 1161 0064 A2FB0189 		umull	r8, r9, r2, r1
 1162 0068 4B44     		add	r3, r3, r9
 1163 006a 9946     		mov	r9, r3
 1164              		.loc 1 165 17
 1165 006c 1AEB0803 		adds	r3, r10, r8
 1166 0070 2C93     		str	r3, [sp, #176]
 1167 0072 4BEB0903 		adc	r3, fp, r9
 1168 0076 2D93     		str	r3, [sp, #180]
 1169 0078 DDE92C34 		ldrd	r3, [sp, #176]
 1170 007c CDE93A34 		strd	r3, [sp, #232]
 1171              		.loc 1 168 27
 1172 0080 DDE93A23 		ldrd	r2, [sp, #232]
 1173 0084 4FF00000 		mov	r0, #0
 1174 0088 4FF00001 		mov	r1, #0
 1175 008c 100D     		lsrs	r0, r2, #20
 1176 008e 40EA0330 		orr	r0, r0, r3, lsl #12
 1177 0092 1915     		asrs	r1, r3, #20
 1178              		.loc 1 168 12
 1179 0094 0246     		mov	r2, r0
 1180              		.loc 1 168 10
 1181 0096 359B     		ldr	r3, [sp, #212]
 1182 0098 1A60     		str	r2, [r3]
 1183              		.loc 1 169 51
 1184 009a 349B     		ldr	r3, [sp, #208]
 1185 009c 5B6A     		ldr	r3, [r3, #36]
 1186              		.loc 1 169 24
 1187 009e DA17     		asrs	r2, r3, #31
 1188 00a0 1093     		str	r3, [sp, #64]
 1189 00a2 1192     		str	r2, [sp, #68]
 1190              		.loc 1 169 61
 1191 00a4 339B     		ldr	r3, [sp, #204]
 1192 00a6 1B68     		ldr	r3, [r3]
 1193 00a8 DA17     		asrs	r2, r3, #31
 1194 00aa 1293     		str	r3, [sp, #72]
 1195 00ac 1392     		str	r2, [sp, #76]
 1196              		.loc 1 169 55
ARM GAS  /tmp/ccKtbbXa.s 			page 22


 1197 00ae DDE91045 		ldrd	r4, [sp, #64]
 1198 00b2 2B46     		mov	r3, r5
 1199 00b4 DDE91267 		ldrd	r6, [sp, #72]
 1200 00b8 3246     		mov	r2, r6
 1201 00ba 02FB03F2 		mul	r2, r2, r3
 1202 00be 3B46     		mov	r3, r7
 1203 00c0 2146     		mov	r1, r4
 1204 00c2 01FB03F3 		mul	r3, r1, r3
 1205 00c6 1344     		add	r3, r3, r2
 1206 00c8 2246     		mov	r2, r4
 1207 00ca 3146     		mov	r1, r6
 1208 00cc A2FB0112 		umull	r1, r2, r2, r1
 1209 00d0 0192     		str	r2, [sp, #4]
 1210 00d2 0A46     		mov	r2, r1
 1211 00d4 0092     		str	r2, [sp]
 1212 00d6 019A     		ldr	r2, [sp, #4]
 1213 00d8 1344     		add	r3, r3, r2
 1214 00da 0193     		str	r3, [sp, #4]
 1215              		.loc 1 170 51
 1216 00dc 349B     		ldr	r3, [sp, #208]
 1217 00de 9B6A     		ldr	r3, [r3, #40]
 1218              		.loc 1 170 24
 1219 00e0 DA17     		asrs	r2, r3, #31
 1220 00e2 1493     		str	r3, [sp, #80]
 1221 00e4 1592     		str	r2, [sp, #84]
 1222              		.loc 1 170 61
 1223 00e6 339B     		ldr	r3, [sp, #204]
 1224 00e8 5B68     		ldr	r3, [r3, #4]
 1225 00ea DA17     		asrs	r2, r3, #31
 1226 00ec 1693     		str	r3, [sp, #88]
 1227 00ee 1792     		str	r2, [sp, #92]
 1228              		.loc 1 170 55
 1229 00f0 DDE91445 		ldrd	r4, [sp, #80]
 1230 00f4 2B46     		mov	r3, r5
 1231 00f6 DDE91667 		ldrd	r6, [sp, #88]
 1232 00fa 3246     		mov	r2, r6
 1233 00fc 02FB03F2 		mul	r2, r2, r3
 1234 0100 3B46     		mov	r3, r7
 1235 0102 2146     		mov	r1, r4
 1236 0104 01FB03F3 		mul	r3, r1, r3
 1237 0108 1344     		add	r3, r3, r2
 1238 010a 2246     		mov	r2, r4
 1239 010c 3146     		mov	r1, r6
 1240 010e A2FB0112 		umull	r1, r2, r2, r1
 1241 0112 0392     		str	r2, [sp, #12]
 1242 0114 0A46     		mov	r2, r1
 1243 0116 0292     		str	r2, [sp, #8]
 1244 0118 039A     		ldr	r2, [sp, #12]
 1245 011a 1344     		add	r3, r3, r2
 1246 011c 0393     		str	r3, [sp, #12]
 1247              		.loc 1 169 65
 1248 011e DDE90045 		ldrd	r4, [sp]
 1249 0122 2346     		mov	r3, r4
 1250 0124 DDE90201 		ldrd	r0, [sp, #8]
 1251 0128 0246     		mov	r2, r0
 1252 012a 9B18     		adds	r3, r3, r2
 1253 012c 1893     		str	r3, [sp, #96]
ARM GAS  /tmp/ccKtbbXa.s 			page 23


 1254 012e 0B46     		mov	r3, r1
 1255 0130 2A46     		mov	r2, r5
 1256 0132 42EB0303 		adc	r3, r2, r3
 1257 0136 1993     		str	r3, [sp, #100]
 1258              		.loc 1 171 51
 1259 0138 349B     		ldr	r3, [sp, #208]
 1260 013a DB6A     		ldr	r3, [r3, #44]
 1261              		.loc 1 171 24
 1262 013c DA17     		asrs	r2, r3, #31
 1263 013e 1A93     		str	r3, [sp, #104]
 1264 0140 1B92     		str	r2, [sp, #108]
 1265              		.loc 1 171 61
 1266 0142 339B     		ldr	r3, [sp, #204]
 1267 0144 9B68     		ldr	r3, [r3, #8]
 1268 0146 DA17     		asrs	r2, r3, #31
 1269 0148 1C93     		str	r3, [sp, #112]
 1270 014a 1D92     		str	r2, [sp, #116]
 1271              		.loc 1 171 55
 1272 014c DDE91A45 		ldrd	r4, [sp, #104]
 1273 0150 2B46     		mov	r3, r5
 1274 0152 DDE91C67 		ldrd	r6, [sp, #112]
 1275 0156 3246     		mov	r2, r6
 1276 0158 02FB03F2 		mul	r2, r2, r3
 1277 015c 3B46     		mov	r3, r7
 1278 015e 2146     		mov	r1, r4
 1279 0160 01FB03F3 		mul	r3, r1, r3
 1280 0164 1344     		add	r3, r3, r2
 1281 0166 2246     		mov	r2, r4
 1282 0168 3146     		mov	r1, r6
 1283 016a A2FB0112 		umull	r1, r2, r2, r1
 1284 016e 0592     		str	r2, [sp, #20]
 1285 0170 0A46     		mov	r2, r1
 1286 0172 0492     		str	r2, [sp, #16]
 1287 0174 059A     		ldr	r2, [sp, #20]
 1288 0176 1344     		add	r3, r3, r2
 1289 0178 0593     		str	r3, [sp, #20]
 1290              		.loc 1 169 17
 1291 017a DDE91845 		ldrd	r4, [sp, #96]
 1292 017e 2346     		mov	r3, r4
 1293 0180 DDE90401 		ldrd	r0, [sp, #16]
 1294 0184 0246     		mov	r2, r0
 1295 0186 9B18     		adds	r3, r3, r2
 1296 0188 2E93     		str	r3, [sp, #184]
 1297 018a 0B46     		mov	r3, r1
 1298 018c 2A46     		mov	r2, r5
 1299 018e 42EB0303 		adc	r3, r2, r3
 1300 0192 2F93     		str	r3, [sp, #188]
 1301 0194 DDE92E34 		ldrd	r3, [sp, #184]
 1302 0198 CDE93834 		strd	r3, [sp, #224]
 1303              		.loc 1 172 27
 1304 019c DDE93823 		ldrd	r2, [sp, #224]
 1305 01a0 4FF00000 		mov	r0, #0
 1306 01a4 4FF00001 		mov	r1, #0
 1307 01a8 100D     		lsrs	r0, r2, #20
 1308 01aa 40EA0330 		orr	r0, r0, r3, lsl #12
 1309 01ae 1915     		asrs	r1, r3, #20
 1310              		.loc 1 172 12
ARM GAS  /tmp/ccKtbbXa.s 			page 24


 1311 01b0 0246     		mov	r2, r0
 1312              		.loc 1 172 10
 1313 01b2 359B     		ldr	r3, [sp, #212]
 1314 01b4 5A60     		str	r2, [r3, #4]
 1315              		.loc 1 173 51
 1316 01b6 349B     		ldr	r3, [sp, #208]
 1317 01b8 1B6B     		ldr	r3, [r3, #48]
 1318              		.loc 1 173 24
 1319 01ba DA17     		asrs	r2, r3, #31
 1320 01bc 1E93     		str	r3, [sp, #120]
 1321 01be 1F92     		str	r2, [sp, #124]
 1322              		.loc 1 173 61
 1323 01c0 339B     		ldr	r3, [sp, #204]
 1324 01c2 1B68     		ldr	r3, [r3]
 1325 01c4 DA17     		asrs	r2, r3, #31
 1326 01c6 2093     		str	r3, [sp, #128]
 1327 01c8 2192     		str	r2, [sp, #132]
 1328              		.loc 1 173 55
 1329 01ca DDE91E45 		ldrd	r4, [sp, #120]
 1330 01ce 2B46     		mov	r3, r5
 1331 01d0 DDE92067 		ldrd	r6, [sp, #128]
 1332 01d4 3246     		mov	r2, r6
 1333 01d6 02FB03F2 		mul	r2, r2, r3
 1334 01da 3B46     		mov	r3, r7
 1335 01dc 2146     		mov	r1, r4
 1336 01de 01FB03F3 		mul	r3, r1, r3
 1337 01e2 1344     		add	r3, r3, r2
 1338 01e4 2246     		mov	r2, r4
 1339 01e6 3146     		mov	r1, r6
 1340 01e8 A2FB0112 		umull	r1, r2, r2, r1
 1341 01ec 0792     		str	r2, [sp, #28]
 1342 01ee 0A46     		mov	r2, r1
 1343 01f0 0692     		str	r2, [sp, #24]
 1344 01f2 079A     		ldr	r2, [sp, #28]
 1345 01f4 1344     		add	r3, r3, r2
 1346 01f6 0793     		str	r3, [sp, #28]
 1347              		.loc 1 174 51
 1348 01f8 349B     		ldr	r3, [sp, #208]
 1349 01fa 5B6B     		ldr	r3, [r3, #52]
 1350              		.loc 1 174 24
 1351 01fc DA17     		asrs	r2, r3, #31
 1352 01fe 2293     		str	r3, [sp, #136]
 1353 0200 2392     		str	r2, [sp, #140]
 1354              		.loc 1 174 61
 1355 0202 339B     		ldr	r3, [sp, #204]
 1356 0204 5B68     		ldr	r3, [r3, #4]
 1357 0206 DA17     		asrs	r2, r3, #31
 1358 0208 2493     		str	r3, [sp, #144]
 1359 020a 2592     		str	r2, [sp, #148]
 1360              		.loc 1 174 55
 1361 020c DDE92245 		ldrd	r4, [sp, #136]
 1362 0210 2B46     		mov	r3, r5
 1363 0212 DDE92467 		ldrd	r6, [sp, #144]
 1364 0216 3246     		mov	r2, r6
 1365 0218 02FB03F2 		mul	r2, r2, r3
 1366 021c 3B46     		mov	r3, r7
 1367 021e 2146     		mov	r1, r4
ARM GAS  /tmp/ccKtbbXa.s 			page 25


 1368 0220 01FB03F3 		mul	r3, r1, r3
 1369 0224 1344     		add	r3, r3, r2
 1370 0226 2246     		mov	r2, r4
 1371 0228 3146     		mov	r1, r6
 1372 022a A2FB0112 		umull	r1, r2, r2, r1
 1373 022e 0992     		str	r2, [sp, #36]
 1374 0230 0A46     		mov	r2, r1
 1375 0232 0892     		str	r2, [sp, #32]
 1376 0234 099A     		ldr	r2, [sp, #36]
 1377 0236 1344     		add	r3, r3, r2
 1378 0238 0993     		str	r3, [sp, #36]
 1379              		.loc 1 173 65
 1380 023a DDE90645 		ldrd	r4, [sp, #24]
 1381 023e 2346     		mov	r3, r4
 1382 0240 DDE90801 		ldrd	r0, [sp, #32]
 1383 0244 0246     		mov	r2, r0
 1384 0246 9B18     		adds	r3, r3, r2
 1385 0248 2693     		str	r3, [sp, #152]
 1386 024a 0B46     		mov	r3, r1
 1387 024c 2A46     		mov	r2, r5
 1388 024e 42EB0303 		adc	r3, r2, r3
 1389 0252 2793     		str	r3, [sp, #156]
 1390              		.loc 1 175 51
 1391 0254 349B     		ldr	r3, [sp, #208]
 1392 0256 9B6B     		ldr	r3, [r3, #56]
 1393              		.loc 1 175 24
 1394 0258 DA17     		asrs	r2, r3, #31
 1395 025a 2893     		str	r3, [sp, #160]
 1396 025c 2992     		str	r2, [sp, #164]
 1397              		.loc 1 175 61
 1398 025e 339B     		ldr	r3, [sp, #204]
 1399 0260 9B68     		ldr	r3, [r3, #8]
 1400 0262 DA17     		asrs	r2, r3, #31
 1401 0264 2A93     		str	r3, [sp, #168]
 1402 0266 2B92     		str	r2, [sp, #172]
 1403              		.loc 1 175 55
 1404 0268 DDE92845 		ldrd	r4, [sp, #160]
 1405 026c 2B46     		mov	r3, r5
 1406 026e DDE92A67 		ldrd	r6, [sp, #168]
 1407 0272 3246     		mov	r2, r6
 1408 0274 02FB03F2 		mul	r2, r2, r3
 1409 0278 3B46     		mov	r3, r7
 1410 027a 2146     		mov	r1, r4
 1411 027c 01FB03F3 		mul	r3, r1, r3
 1412 0280 1344     		add	r3, r3, r2
 1413 0282 2246     		mov	r2, r4
 1414 0284 3146     		mov	r1, r6
 1415 0286 A2FB0112 		umull	r1, r2, r2, r1
 1416 028a 0B92     		str	r2, [sp, #44]
 1417 028c 0A46     		mov	r2, r1
 1418 028e 0A92     		str	r2, [sp, #40]
 1419 0290 0B9A     		ldr	r2, [sp, #44]
 1420 0292 1344     		add	r3, r3, r2
 1421 0294 0B93     		str	r3, [sp, #44]
 1422              		.loc 1 173 17
 1423 0296 DDE92645 		ldrd	r4, [sp, #152]
 1424 029a 2346     		mov	r3, r4
ARM GAS  /tmp/ccKtbbXa.s 			page 26


 1425 029c DDE90A01 		ldrd	r0, [sp, #40]
 1426 02a0 0246     		mov	r2, r0
 1427 02a2 9B18     		adds	r3, r3, r2
 1428 02a4 3093     		str	r3, [sp, #192]
 1429 02a6 0B46     		mov	r3, r1
 1430 02a8 2A46     		mov	r2, r5
 1431 02aa 42EB0303 		adc	r3, r2, r3
 1432 02ae 3193     		str	r3, [sp, #196]
 1433 02b0 DDE93034 		ldrd	r3, [sp, #192]
 1434 02b4 CDE93634 		strd	r3, [sp, #216]
 1435              		.loc 1 176 27
 1436 02b8 DDE93601 		ldrd	r0, [sp, #216]
 1437 02bc 4FF00002 		mov	r2, #0
 1438 02c0 4FF00003 		mov	r3, #0
 1439 02c4 020D     		lsrs	r2, r0, #20
 1440 02c6 42EA0132 		orr	r2, r2, r1, lsl #12
 1441 02ca 0B15     		asrs	r3, r1, #20
 1442              		.loc 1 176 10
 1443 02cc 359B     		ldr	r3, [sp, #212]
 1444 02ce 9A60     		str	r2, [r3, #8]
 1445              		.loc 1 178 1
 1446 02d0 00BF     		nop
 1447 02d2 3CB0     		add	sp, sp, #240
 1448              		.cfi_def_cfa_offset 32
 1449              		@ sp needed
 1450 02d4 BDE8F00F 		pop	{r4, r5, r6, r7, r8, r9, r10, fp}
 1451              		.cfi_restore 11
 1452              		.cfi_restore 10
 1453              		.cfi_restore 9
 1454              		.cfi_restore 8
 1455              		.cfi_restore 7
 1456              		.cfi_restore 6
 1457              		.cfi_restore 5
 1458              		.cfi_restore 4
 1459              		.cfi_def_cfa_offset 0
 1460 02d8 7047     		bx	lr
 1461              		.cfi_endproc
 1462              	.LFE28:
 1463              		.size	enu_of_ecef_vect_i, .-enu_of_ecef_vect_i
 1464 02da 00BF     		.section	.text.ned_of_ecef_vect_i,"ax",%progbits
 1465              		.align	1
 1466              		.p2align 4,,15
 1467              		.global	ned_of_ecef_vect_i
 1468              		.syntax unified
 1469              		.thumb
 1470              		.thumb_func
 1471              		.fpu fpv4-sp-d16
 1472              		.type	ned_of_ecef_vect_i, %function
 1473              	ned_of_ecef_vect_i:
 1474              	.LFB29:
 1475              		.loc 1 187 1
 1476              		.cfi_startproc
 1477              		@ args = 0, pretend = 0, frame = 32
 1478              		@ frame_needed = 0, uses_anonymous_args = 0
 1479 0000 00B5     		push	{lr}
 1480              		.cfi_def_cfa_offset 4
 1481              		.cfi_offset 14, -4
ARM GAS  /tmp/ccKtbbXa.s 			page 27


 1482 0002 89B0     		sub	sp, sp, #36
 1483              		.cfi_def_cfa_offset 40
 1484 0004 0390     		str	r0, [sp, #12]
 1485 0006 0291     		str	r1, [sp, #8]
 1486 0008 0192     		str	r2, [sp, #4]
 1487              		.loc 1 189 3
 1488 000a 05AB     		add	r3, sp, #20
 1489 000c 019A     		ldr	r2, [sp, #4]
 1490 000e 0299     		ldr	r1, [sp, #8]
 1491 0010 1846     		mov	r0, r3
 1492 0012 FFF7FEFF 		bl	enu_of_ecef_vect_i
 1493              		.loc 1 190 3
 1494 0016 069A     		ldr	r2, [sp, #24]
 1495 0018 039B     		ldr	r3, [sp, #12]
 1496 001a 1A60     		str	r2, [r3]
 1497 001c 059A     		ldr	r2, [sp, #20]
 1498 001e 039B     		ldr	r3, [sp, #12]
 1499 0020 5A60     		str	r2, [r3, #4]
 1500 0022 079B     		ldr	r3, [sp, #28]
 1501 0024 5A42     		rsbs	r2, r3, #0
 1502 0026 039B     		ldr	r3, [sp, #12]
 1503 0028 9A60     		str	r2, [r3, #8]
 1504              		.loc 1 191 1
 1505 002a 00BF     		nop
 1506 002c 09B0     		add	sp, sp, #36
 1507              		.cfi_def_cfa_offset 4
 1508              		@ sp needed
 1509 002e 5DF804FB 		ldr	pc, [sp], #4
 1510              		.cfi_endproc
 1511              	.LFE29:
 1512              		.size	ned_of_ecef_vect_i, .-ned_of_ecef_vect_i
 1513 0032 00BF     		.section	.text.ecef_of_enu_vect_i,"ax",%progbits
 1514              		.align	1
 1515              		.p2align 4,,15
 1516              		.global	ecef_of_enu_vect_i
 1517              		.syntax unified
 1518              		.thumb
 1519              		.thumb_func
 1520              		.fpu fpv4-sp-d16
 1521              		.type	ecef_of_enu_vect_i, %function
 1522              	ecef_of_enu_vect_i:
 1523              	.LFB30:
 1524              		.loc 1 200 1
 1525              		.cfi_startproc
 1526              		@ args = 0, pretend = 0, frame = 240
 1527              		@ frame_needed = 0, uses_anonymous_args = 0
 1528              		@ link register save eliminated.
 1529 0000 2DE9F00F 		push	{r4, r5, r6, r7, r8, r9, r10, fp}
 1530              		.cfi_def_cfa_offset 32
 1531              		.cfi_offset 4, -32
 1532              		.cfi_offset 5, -28
 1533              		.cfi_offset 6, -24
 1534              		.cfi_offset 7, -20
 1535              		.cfi_offset 8, -16
 1536              		.cfi_offset 9, -12
 1537              		.cfi_offset 10, -8
 1538              		.cfi_offset 11, -4
ARM GAS  /tmp/ccKtbbXa.s 			page 28


 1539 0004 BCB0     		sub	sp, sp, #240
 1540              		.cfi_def_cfa_offset 272
 1541 0006 3590     		str	r0, [sp, #212]
 1542 0008 3491     		str	r1, [sp, #208]
 1543 000a 3392     		str	r2, [sp, #204]
 1544              		.loc 1 202 51
 1545 000c 349B     		ldr	r3, [sp, #208]
 1546 000e 9B69     		ldr	r3, [r3, #24]
 1547              		.loc 1 202 24
 1548 0010 DA17     		asrs	r2, r3, #31
 1549 0012 1E46     		mov	r6, r3
 1550 0014 1746     		mov	r7, r2
 1551              		.loc 1 202 60
 1552 0016 339B     		ldr	r3, [sp, #204]
 1553 0018 1B68     		ldr	r3, [r3]
 1554 001a DA17     		asrs	r2, r3, #31
 1555 001c 1C46     		mov	r4, r3
 1556 001e 1546     		mov	r5, r2
 1557              		.loc 1 202 55
 1558 0020 04FB07F2 		mul	r2, r4, r7
 1559 0024 06FB05F3 		mul	r3, r6, r5
 1560 0028 1344     		add	r3, r3, r2
 1561 002a A6FB04AB 		umull	r10, fp, r6, r4
 1562 002e 5B44     		add	r3, r3, fp
 1563 0030 9B46     		mov	fp, r3
 1564              		.loc 1 203 51
 1565 0032 349B     		ldr	r3, [sp, #208]
 1566 0034 5B6A     		ldr	r3, [r3, #36]
 1567              		.loc 1 203 24
 1568 0036 DA17     		asrs	r2, r3, #31
 1569 0038 0C93     		str	r3, [sp, #48]
 1570 003a 0D92     		str	r2, [sp, #52]
 1571              		.loc 1 203 60
 1572 003c 339B     		ldr	r3, [sp, #204]
 1573 003e 5B68     		ldr	r3, [r3, #4]
 1574 0040 DA17     		asrs	r2, r3, #31
 1575 0042 0E93     		str	r3, [sp, #56]
 1576 0044 0F92     		str	r2, [sp, #60]
 1577              		.loc 1 203 55
 1578 0046 DDE90C45 		ldrd	r4, [sp, #48]
 1579 004a 2B46     		mov	r3, r5
 1580 004c DDE90E67 		ldrd	r6, [sp, #56]
 1581 0050 3246     		mov	r2, r6
 1582 0052 02FB03F2 		mul	r2, r2, r3
 1583 0056 3B46     		mov	r3, r7
 1584 0058 2146     		mov	r1, r4
 1585 005a 01FB03F3 		mul	r3, r1, r3
 1586 005e 1344     		add	r3, r3, r2
 1587 0060 2246     		mov	r2, r4
 1588 0062 3146     		mov	r1, r6
 1589 0064 A2FB0189 		umull	r8, r9, r2, r1
 1590 0068 4B44     		add	r3, r3, r9
 1591 006a 9946     		mov	r9, r3
 1592              		.loc 1 202 64
 1593 006c 1AEB0803 		adds	r3, r10, r8
 1594 0070 1093     		str	r3, [sp, #64]
 1595 0072 4BEB0903 		adc	r3, fp, r9
ARM GAS  /tmp/ccKtbbXa.s 			page 29


 1596 0076 1193     		str	r3, [sp, #68]
 1597              		.loc 1 204 51
 1598 0078 349B     		ldr	r3, [sp, #208]
 1599 007a 1B6B     		ldr	r3, [r3, #48]
 1600              		.loc 1 204 24
 1601 007c DA17     		asrs	r2, r3, #31
 1602 007e 1293     		str	r3, [sp, #72]
 1603 0080 1392     		str	r2, [sp, #76]
 1604              		.loc 1 204 60
 1605 0082 339B     		ldr	r3, [sp, #204]
 1606 0084 9B68     		ldr	r3, [r3, #8]
 1607 0086 DA17     		asrs	r2, r3, #31
 1608 0088 1493     		str	r3, [sp, #80]
 1609 008a 1592     		str	r2, [sp, #84]
 1610              		.loc 1 204 55
 1611 008c DDE91245 		ldrd	r4, [sp, #72]
 1612 0090 2B46     		mov	r3, r5
 1613 0092 DDE91467 		ldrd	r6, [sp, #80]
 1614 0096 3246     		mov	r2, r6
 1615 0098 02FB03F2 		mul	r2, r2, r3
 1616 009c 3B46     		mov	r3, r7
 1617 009e 2146     		mov	r1, r4
 1618 00a0 01FB03F3 		mul	r3, r1, r3
 1619 00a4 1344     		add	r3, r3, r2
 1620 00a6 2246     		mov	r2, r4
 1621 00a8 3146     		mov	r1, r6
 1622 00aa A2FB0112 		umull	r1, r2, r2, r1
 1623 00ae 0192     		str	r2, [sp, #4]
 1624 00b0 0A46     		mov	r2, r1
 1625 00b2 0092     		str	r2, [sp]
 1626 00b4 019A     		ldr	r2, [sp, #4]
 1627 00b6 1344     		add	r3, r3, r2
 1628 00b8 0193     		str	r3, [sp, #4]
 1629              		.loc 1 202 17
 1630 00ba DDE91045 		ldrd	r4, [sp, #64]
 1631 00be 2346     		mov	r3, r4
 1632 00c0 DDE90001 		ldrd	r0, [sp]
 1633 00c4 0246     		mov	r2, r0
 1634 00c6 9B18     		adds	r3, r3, r2
 1635 00c8 2C93     		str	r3, [sp, #176]
 1636 00ca 0B46     		mov	r3, r1
 1637 00cc 2A46     		mov	r2, r5
 1638 00ce 42EB0303 		adc	r3, r2, r3
 1639 00d2 2D93     		str	r3, [sp, #180]
 1640 00d4 DDE92C34 		ldrd	r3, [sp, #176]
 1641 00d8 CDE93A34 		strd	r3, [sp, #232]
 1642              		.loc 1 205 28
 1643 00dc DDE93A23 		ldrd	r2, [sp, #232]
 1644 00e0 4FF00000 		mov	r0, #0
 1645 00e4 4FF00001 		mov	r1, #0
 1646 00e8 100D     		lsrs	r0, r2, #20
 1647 00ea 40EA0330 		orr	r0, r0, r3, lsl #12
 1648 00ee 1915     		asrs	r1, r3, #20
 1649              		.loc 1 205 13
 1650 00f0 0246     		mov	r2, r0
 1651              		.loc 1 205 11
 1652 00f2 359B     		ldr	r3, [sp, #212]
ARM GAS  /tmp/ccKtbbXa.s 			page 30


 1653 00f4 1A60     		str	r2, [r3]
 1654              		.loc 1 207 51
 1655 00f6 349B     		ldr	r3, [sp, #208]
 1656 00f8 DB69     		ldr	r3, [r3, #28]
 1657              		.loc 1 207 24
 1658 00fa DA17     		asrs	r2, r3, #31
 1659 00fc 1693     		str	r3, [sp, #88]
 1660 00fe 1792     		str	r2, [sp, #92]
 1661              		.loc 1 207 60
 1662 0100 339B     		ldr	r3, [sp, #204]
 1663 0102 1B68     		ldr	r3, [r3]
 1664 0104 DA17     		asrs	r2, r3, #31
 1665 0106 1893     		str	r3, [sp, #96]
 1666 0108 1992     		str	r2, [sp, #100]
 1667              		.loc 1 207 55
 1668 010a DDE91645 		ldrd	r4, [sp, #88]
 1669 010e 2B46     		mov	r3, r5
 1670 0110 DDE91867 		ldrd	r6, [sp, #96]
 1671 0114 3246     		mov	r2, r6
 1672 0116 02FB03F2 		mul	r2, r2, r3
 1673 011a 3B46     		mov	r3, r7
 1674 011c 2146     		mov	r1, r4
 1675 011e 01FB03F3 		mul	r3, r1, r3
 1676 0122 1344     		add	r3, r3, r2
 1677 0124 2246     		mov	r2, r4
 1678 0126 3146     		mov	r1, r6
 1679 0128 A2FB0112 		umull	r1, r2, r2, r1
 1680 012c 0392     		str	r2, [sp, #12]
 1681 012e 0A46     		mov	r2, r1
 1682 0130 0292     		str	r2, [sp, #8]
 1683 0132 039A     		ldr	r2, [sp, #12]
 1684 0134 1344     		add	r3, r3, r2
 1685 0136 0393     		str	r3, [sp, #12]
 1686              		.loc 1 208 51
 1687 0138 349B     		ldr	r3, [sp, #208]
 1688 013a 9B6A     		ldr	r3, [r3, #40]
 1689              		.loc 1 208 24
 1690 013c DA17     		asrs	r2, r3, #31
 1691 013e 1A93     		str	r3, [sp, #104]
 1692 0140 1B92     		str	r2, [sp, #108]
 1693              		.loc 1 208 60
 1694 0142 339B     		ldr	r3, [sp, #204]
 1695 0144 5B68     		ldr	r3, [r3, #4]
 1696 0146 DA17     		asrs	r2, r3, #31
 1697 0148 1C93     		str	r3, [sp, #112]
 1698 014a 1D92     		str	r2, [sp, #116]
 1699              		.loc 1 208 55
 1700 014c DDE91A45 		ldrd	r4, [sp, #104]
 1701 0150 2B46     		mov	r3, r5
 1702 0152 DDE91C67 		ldrd	r6, [sp, #112]
 1703 0156 3246     		mov	r2, r6
 1704 0158 02FB03F2 		mul	r2, r2, r3
 1705 015c 3B46     		mov	r3, r7
 1706 015e 2146     		mov	r1, r4
 1707 0160 01FB03F3 		mul	r3, r1, r3
 1708 0164 1344     		add	r3, r3, r2
 1709 0166 2246     		mov	r2, r4
ARM GAS  /tmp/ccKtbbXa.s 			page 31


 1710 0168 3146     		mov	r1, r6
 1711 016a A2FB0112 		umull	r1, r2, r2, r1
 1712 016e 0592     		str	r2, [sp, #20]
 1713 0170 0A46     		mov	r2, r1
 1714 0172 0492     		str	r2, [sp, #16]
 1715 0174 059A     		ldr	r2, [sp, #20]
 1716 0176 1344     		add	r3, r3, r2
 1717 0178 0593     		str	r3, [sp, #20]
 1718              		.loc 1 207 64
 1719 017a DDE90245 		ldrd	r4, [sp, #8]
 1720 017e 2346     		mov	r3, r4
 1721 0180 DDE90401 		ldrd	r0, [sp, #16]
 1722 0184 0246     		mov	r2, r0
 1723 0186 9B18     		adds	r3, r3, r2
 1724 0188 1E93     		str	r3, [sp, #120]
 1725 018a 0B46     		mov	r3, r1
 1726 018c 2A46     		mov	r2, r5
 1727 018e 42EB0303 		adc	r3, r2, r3
 1728 0192 1F93     		str	r3, [sp, #124]
 1729              		.loc 1 209 51
 1730 0194 349B     		ldr	r3, [sp, #208]
 1731 0196 5B6B     		ldr	r3, [r3, #52]
 1732              		.loc 1 209 24
 1733 0198 DA17     		asrs	r2, r3, #31
 1734 019a 2093     		str	r3, [sp, #128]
 1735 019c 2192     		str	r2, [sp, #132]
 1736              		.loc 1 209 60
 1737 019e 339B     		ldr	r3, [sp, #204]
 1738 01a0 9B68     		ldr	r3, [r3, #8]
 1739 01a2 DA17     		asrs	r2, r3, #31
 1740 01a4 2293     		str	r3, [sp, #136]
 1741 01a6 2392     		str	r2, [sp, #140]
 1742              		.loc 1 209 55
 1743 01a8 DDE92045 		ldrd	r4, [sp, #128]
 1744 01ac 2B46     		mov	r3, r5
 1745 01ae DDE92267 		ldrd	r6, [sp, #136]
 1746 01b2 3246     		mov	r2, r6
 1747 01b4 02FB03F2 		mul	r2, r2, r3
 1748 01b8 3B46     		mov	r3, r7
 1749 01ba 2146     		mov	r1, r4
 1750 01bc 01FB03F3 		mul	r3, r1, r3
 1751 01c0 1344     		add	r3, r3, r2
 1752 01c2 2246     		mov	r2, r4
 1753 01c4 3146     		mov	r1, r6
 1754 01c6 A2FB0112 		umull	r1, r2, r2, r1
 1755 01ca 0792     		str	r2, [sp, #28]
 1756 01cc 0A46     		mov	r2, r1
 1757 01ce 0692     		str	r2, [sp, #24]
 1758 01d0 079A     		ldr	r2, [sp, #28]
 1759 01d2 1344     		add	r3, r3, r2
 1760 01d4 0793     		str	r3, [sp, #28]
 1761              		.loc 1 207 17
 1762 01d6 DDE91E45 		ldrd	r4, [sp, #120]
 1763 01da 2346     		mov	r3, r4
 1764 01dc DDE90601 		ldrd	r0, [sp, #24]
 1765 01e0 0246     		mov	r2, r0
 1766 01e2 9B18     		adds	r3, r3, r2
ARM GAS  /tmp/ccKtbbXa.s 			page 32


 1767 01e4 2E93     		str	r3, [sp, #184]
 1768 01e6 0B46     		mov	r3, r1
 1769 01e8 2A46     		mov	r2, r5
 1770 01ea 42EB0303 		adc	r3, r2, r3
 1771 01ee 2F93     		str	r3, [sp, #188]
 1772 01f0 DDE92E34 		ldrd	r3, [sp, #184]
 1773 01f4 CDE93834 		strd	r3, [sp, #224]
 1774              		.loc 1 210 28
 1775 01f8 DDE93823 		ldrd	r2, [sp, #224]
 1776 01fc 4FF00000 		mov	r0, #0
 1777 0200 4FF00001 		mov	r1, #0
 1778 0204 100D     		lsrs	r0, r2, #20
 1779 0206 40EA0330 		orr	r0, r0, r3, lsl #12
 1780 020a 1915     		asrs	r1, r3, #20
 1781              		.loc 1 210 13
 1782 020c 0246     		mov	r2, r0
 1783              		.loc 1 210 11
 1784 020e 359B     		ldr	r3, [sp, #212]
 1785 0210 5A60     		str	r2, [r3, #4]
 1786              		.loc 1 213 51
 1787 0212 349B     		ldr	r3, [sp, #208]
 1788 0214 DB6A     		ldr	r3, [r3, #44]
 1789              		.loc 1 213 24
 1790 0216 DA17     		asrs	r2, r3, #31
 1791 0218 2493     		str	r3, [sp, #144]
 1792 021a 2592     		str	r2, [sp, #148]
 1793              		.loc 1 213 60
 1794 021c 339B     		ldr	r3, [sp, #204]
 1795 021e 5B68     		ldr	r3, [r3, #4]
 1796 0220 DA17     		asrs	r2, r3, #31
 1797 0222 2693     		str	r3, [sp, #152]
 1798 0224 2792     		str	r2, [sp, #156]
 1799              		.loc 1 213 55
 1800 0226 DDE92445 		ldrd	r4, [sp, #144]
 1801 022a 2B46     		mov	r3, r5
 1802 022c DDE92667 		ldrd	r6, [sp, #152]
 1803 0230 3246     		mov	r2, r6
 1804 0232 02FB03F2 		mul	r2, r2, r3
 1805 0236 3B46     		mov	r3, r7
 1806 0238 2146     		mov	r1, r4
 1807 023a 01FB03F3 		mul	r3, r1, r3
 1808 023e 1344     		add	r3, r3, r2
 1809 0240 2246     		mov	r2, r4
 1810 0242 3146     		mov	r1, r6
 1811 0244 A2FB0112 		umull	r1, r2, r2, r1
 1812 0248 0992     		str	r2, [sp, #36]
 1813 024a 0A46     		mov	r2, r1
 1814 024c 0892     		str	r2, [sp, #32]
 1815 024e 099A     		ldr	r2, [sp, #36]
 1816 0250 1344     		add	r3, r3, r2
 1817 0252 0993     		str	r3, [sp, #36]
 1818              		.loc 1 214 51
 1819 0254 349B     		ldr	r3, [sp, #208]
 1820 0256 9B6B     		ldr	r3, [r3, #56]
 1821              		.loc 1 214 24
 1822 0258 DA17     		asrs	r2, r3, #31
 1823 025a 2893     		str	r3, [sp, #160]
ARM GAS  /tmp/ccKtbbXa.s 			page 33


 1824 025c 2992     		str	r2, [sp, #164]
 1825              		.loc 1 214 60
 1826 025e 339B     		ldr	r3, [sp, #204]
 1827 0260 9B68     		ldr	r3, [r3, #8]
 1828 0262 DA17     		asrs	r2, r3, #31
 1829 0264 2A93     		str	r3, [sp, #168]
 1830 0266 2B92     		str	r2, [sp, #172]
 1831              		.loc 1 214 55
 1832 0268 DDE92845 		ldrd	r4, [sp, #160]
 1833 026c 2B46     		mov	r3, r5
 1834 026e DDE92A67 		ldrd	r6, [sp, #168]
 1835 0272 3246     		mov	r2, r6
 1836 0274 02FB03F2 		mul	r2, r2, r3
 1837 0278 3B46     		mov	r3, r7
 1838 027a 2146     		mov	r1, r4
 1839 027c 01FB03F3 		mul	r3, r1, r3
 1840 0280 1344     		add	r3, r3, r2
 1841 0282 2246     		mov	r2, r4
 1842 0284 3146     		mov	r1, r6
 1843 0286 A2FB0112 		umull	r1, r2, r2, r1
 1844 028a 0B92     		str	r2, [sp, #44]
 1845 028c 0A46     		mov	r2, r1
 1846 028e 0A92     		str	r2, [sp, #40]
 1847 0290 0B9A     		ldr	r2, [sp, #44]
 1848 0292 1344     		add	r3, r3, r2
 1849 0294 0B93     		str	r3, [sp, #44]
 1850              		.loc 1 213 17
 1851 0296 DDE90845 		ldrd	r4, [sp, #32]
 1852 029a 2346     		mov	r3, r4
 1853 029c DDE90A01 		ldrd	r0, [sp, #40]
 1854 02a0 0246     		mov	r2, r0
 1855 02a2 9B18     		adds	r3, r3, r2
 1856 02a4 3093     		str	r3, [sp, #192]
 1857 02a6 0B46     		mov	r3, r1
 1858 02a8 2A46     		mov	r2, r5
 1859 02aa 42EB0303 		adc	r3, r2, r3
 1860 02ae 3193     		str	r3, [sp, #196]
 1861 02b0 DDE93034 		ldrd	r3, [sp, #192]
 1862 02b4 CDE93634 		strd	r3, [sp, #216]
 1863              		.loc 1 215 28
 1864 02b8 DDE93601 		ldrd	r0, [sp, #216]
 1865 02bc 4FF00002 		mov	r2, #0
 1866 02c0 4FF00003 		mov	r3, #0
 1867 02c4 020D     		lsrs	r2, r0, #20
 1868 02c6 42EA0132 		orr	r2, r2, r1, lsl #12
 1869 02ca 0B15     		asrs	r3, r1, #20
 1870              		.loc 1 215 11
 1871 02cc 359B     		ldr	r3, [sp, #212]
 1872 02ce 9A60     		str	r2, [r3, #8]
 1873              		.loc 1 217 1
 1874 02d0 00BF     		nop
 1875 02d2 3CB0     		add	sp, sp, #240
 1876              		.cfi_def_cfa_offset 32
 1877              		@ sp needed
 1878 02d4 BDE8F00F 		pop	{r4, r5, r6, r7, r8, r9, r10, fp}
 1879              		.cfi_restore 11
 1880              		.cfi_restore 10
ARM GAS  /tmp/ccKtbbXa.s 			page 34


 1881              		.cfi_restore 9
 1882              		.cfi_restore 8
 1883              		.cfi_restore 7
 1884              		.cfi_restore 6
 1885              		.cfi_restore 5
 1886              		.cfi_restore 4
 1887              		.cfi_def_cfa_offset 0
 1888 02d8 7047     		bx	lr
 1889              		.cfi_endproc
 1890              	.LFE30:
 1891              		.size	ecef_of_enu_vect_i, .-ecef_of_enu_vect_i
 1892 02da 00BF     		.section	.text.ecef_of_ned_vect_i,"ax",%progbits
 1893              		.align	1
 1894              		.p2align 4,,15
 1895              		.global	ecef_of_ned_vect_i
 1896              		.syntax unified
 1897              		.thumb
 1898              		.thumb_func
 1899              		.fpu fpv4-sp-d16
 1900              		.type	ecef_of_ned_vect_i, %function
 1901              	ecef_of_ned_vect_i:
 1902              	.LFB31:
 1903              		.loc 1 226 1
 1904              		.cfi_startproc
 1905              		@ args = 0, pretend = 0, frame = 32
 1906              		@ frame_needed = 0, uses_anonymous_args = 0
 1907 0000 00B5     		push	{lr}
 1908              		.cfi_def_cfa_offset 4
 1909              		.cfi_offset 14, -4
 1910 0002 89B0     		sub	sp, sp, #36
 1911              		.cfi_def_cfa_offset 40
 1912 0004 0390     		str	r0, [sp, #12]
 1913 0006 0291     		str	r1, [sp, #8]
 1914 0008 0192     		str	r2, [sp, #4]
 1915              		.loc 1 228 3
 1916 000a 019B     		ldr	r3, [sp, #4]
 1917 000c 5B68     		ldr	r3, [r3, #4]
 1918 000e 0593     		str	r3, [sp, #20]
 1919 0010 019B     		ldr	r3, [sp, #4]
 1920 0012 1B68     		ldr	r3, [r3]
 1921 0014 0693     		str	r3, [sp, #24]
 1922 0016 019B     		ldr	r3, [sp, #4]
 1923 0018 9B68     		ldr	r3, [r3, #8]
 1924 001a 5B42     		rsbs	r3, r3, #0
 1925 001c 0793     		str	r3, [sp, #28]
 1926              		.loc 1 229 3
 1927 001e 05AB     		add	r3, sp, #20
 1928 0020 1A46     		mov	r2, r3
 1929 0022 0299     		ldr	r1, [sp, #8]
 1930 0024 0398     		ldr	r0, [sp, #12]
 1931 0026 FFF7FEFF 		bl	ecef_of_enu_vect_i
 1932              		.loc 1 230 1
 1933 002a 00BF     		nop
 1934 002c 09B0     		add	sp, sp, #36
 1935              		.cfi_def_cfa_offset 4
 1936              		@ sp needed
 1937 002e 5DF804FB 		ldr	pc, [sp], #4
ARM GAS  /tmp/ccKtbbXa.s 			page 35


 1938              		.cfi_endproc
 1939              	.LFE31:
 1940              		.size	ecef_of_ned_vect_i, .-ecef_of_ned_vect_i
 1941 0032 00BF     		.section	.text.ecef_of_enu_point_i,"ax",%progbits
 1942              		.align	1
 1943              		.p2align 4,,15
 1944              		.global	ecef_of_enu_point_i
 1945              		.syntax unified
 1946              		.thumb
 1947              		.thumb_func
 1948              		.fpu fpv4-sp-d16
 1949              		.type	ecef_of_enu_point_i, %function
 1950              	ecef_of_enu_point_i:
 1951              	.LFB32:
 1952              		.loc 1 239 1
 1953              		.cfi_startproc
 1954              		@ args = 0, pretend = 0, frame = 16
 1955              		@ frame_needed = 0, uses_anonymous_args = 0
 1956 0000 00B5     		push	{lr}
 1957              		.cfi_def_cfa_offset 4
 1958              		.cfi_offset 14, -4
 1959 0002 85B0     		sub	sp, sp, #20
 1960              		.cfi_def_cfa_offset 24
 1961 0004 0390     		str	r0, [sp, #12]
 1962 0006 0291     		str	r1, [sp, #8]
 1963 0008 0192     		str	r2, [sp, #4]
 1964              		.loc 1 240 3
 1965 000a 019A     		ldr	r2, [sp, #4]
 1966 000c 0299     		ldr	r1, [sp, #8]
 1967 000e 0398     		ldr	r0, [sp, #12]
 1968 0010 FFF7FEFF 		bl	ecef_of_enu_vect_i
 1969              		.loc 1 241 3
 1970 0014 039B     		ldr	r3, [sp, #12]
 1971 0016 1A68     		ldr	r2, [r3]
 1972 0018 029B     		ldr	r3, [sp, #8]
 1973 001a 1B68     		ldr	r3, [r3]
 1974 001c 1A44     		add	r2, r2, r3
 1975 001e 039B     		ldr	r3, [sp, #12]
 1976 0020 1A60     		str	r2, [r3]
 1977 0022 039B     		ldr	r3, [sp, #12]
 1978 0024 5A68     		ldr	r2, [r3, #4]
 1979 0026 029B     		ldr	r3, [sp, #8]
 1980 0028 5B68     		ldr	r3, [r3, #4]
 1981 002a 1A44     		add	r2, r2, r3
 1982 002c 039B     		ldr	r3, [sp, #12]
 1983 002e 5A60     		str	r2, [r3, #4]
 1984 0030 039B     		ldr	r3, [sp, #12]
 1985 0032 9A68     		ldr	r2, [r3, #8]
 1986 0034 029B     		ldr	r3, [sp, #8]
 1987 0036 9B68     		ldr	r3, [r3, #8]
 1988 0038 1A44     		add	r2, r2, r3
 1989 003a 039B     		ldr	r3, [sp, #12]
 1990 003c 9A60     		str	r2, [r3, #8]
 1991              		.loc 1 242 1
 1992 003e 00BF     		nop
 1993 0040 05B0     		add	sp, sp, #20
 1994              		.cfi_def_cfa_offset 4
ARM GAS  /tmp/ccKtbbXa.s 			page 36


 1995              		@ sp needed
 1996 0042 5DF804FB 		ldr	pc, [sp], #4
 1997              		.cfi_endproc
 1998              	.LFE32:
 1999              		.size	ecef_of_enu_point_i, .-ecef_of_enu_point_i
 2000 0046 00BF     		.section	.text.ecef_of_ned_point_i,"ax",%progbits
 2001              		.align	1
 2002              		.p2align 4,,15
 2003              		.global	ecef_of_ned_point_i
 2004              		.syntax unified
 2005              		.thumb
 2006              		.thumb_func
 2007              		.fpu fpv4-sp-d16
 2008              		.type	ecef_of_ned_point_i, %function
 2009              	ecef_of_ned_point_i:
 2010              	.LFB33:
 2011              		.loc 1 251 1
 2012              		.cfi_startproc
 2013              		@ args = 0, pretend = 0, frame = 32
 2014              		@ frame_needed = 0, uses_anonymous_args = 0
 2015 0000 00B5     		push	{lr}
 2016              		.cfi_def_cfa_offset 4
 2017              		.cfi_offset 14, -4
 2018 0002 89B0     		sub	sp, sp, #36
 2019              		.cfi_def_cfa_offset 40
 2020 0004 0390     		str	r0, [sp, #12]
 2021 0006 0291     		str	r1, [sp, #8]
 2022 0008 0192     		str	r2, [sp, #4]
 2023              		.loc 1 253 3
 2024 000a 019B     		ldr	r3, [sp, #4]
 2025 000c 5B68     		ldr	r3, [r3, #4]
 2026 000e 0593     		str	r3, [sp, #20]
 2027 0010 019B     		ldr	r3, [sp, #4]
 2028 0012 1B68     		ldr	r3, [r3]
 2029 0014 0693     		str	r3, [sp, #24]
 2030 0016 019B     		ldr	r3, [sp, #4]
 2031 0018 9B68     		ldr	r3, [r3, #8]
 2032 001a 5B42     		rsbs	r3, r3, #0
 2033 001c 0793     		str	r3, [sp, #28]
 2034              		.loc 1 254 3
 2035 001e 05AB     		add	r3, sp, #20
 2036 0020 1A46     		mov	r2, r3
 2037 0022 0299     		ldr	r1, [sp, #8]
 2038 0024 0398     		ldr	r0, [sp, #12]
 2039 0026 FFF7FEFF 		bl	ecef_of_enu_point_i
 2040              		.loc 1 255 1
 2041 002a 00BF     		nop
 2042 002c 09B0     		add	sp, sp, #36
 2043              		.cfi_def_cfa_offset 4
 2044              		@ sp needed
 2045 002e 5DF804FB 		ldr	pc, [sp], #4
 2046              		.cfi_endproc
 2047              	.LFE33:
 2048              		.size	ecef_of_ned_point_i, .-ecef_of_ned_point_i
 2049 0032 00BF     		.section	.text.ecef_of_enu_pos_i,"ax",%progbits
 2050              		.align	1
 2051              		.p2align 4,,15
ARM GAS  /tmp/ccKtbbXa.s 			page 37


 2052              		.global	ecef_of_enu_pos_i
 2053              		.syntax unified
 2054              		.thumb
 2055              		.thumb_func
 2056              		.fpu fpv4-sp-d16
 2057              		.type	ecef_of_enu_pos_i, %function
 2058              	ecef_of_enu_pos_i:
 2059              	.LFB34:
 2060              		.loc 1 264 1
 2061              		.cfi_startproc
 2062              		@ args = 0, pretend = 0, frame = 32
 2063              		@ frame_needed = 0, uses_anonymous_args = 0
 2064 0000 00B5     		push	{lr}
 2065              		.cfi_def_cfa_offset 4
 2066              		.cfi_offset 14, -4
 2067 0002 89B0     		sub	sp, sp, #36
 2068              		.cfi_def_cfa_offset 40
 2069 0004 0390     		str	r0, [sp, #12]
 2070 0006 0291     		str	r1, [sp, #8]
 2071 0008 0192     		str	r2, [sp, #4]
 2072              		.loc 1 271 3
 2073 000a 019B     		ldr	r3, [sp, #4]
 2074 000c 1A68     		ldr	r2, [r3]
 2075 000e 1346     		mov	r3, r2
 2076 0010 9B00     		lsls	r3, r3, #2
 2077 0012 1344     		add	r3, r3, r2
 2078 0014 9A00     		lsls	r2, r3, #2
 2079 0016 1344     		add	r3, r3, r2
 2080 0018 0593     		str	r3, [sp, #20]
 2081 001a 019B     		ldr	r3, [sp, #4]
 2082 001c 5A68     		ldr	r2, [r3, #4]
 2083 001e 1346     		mov	r3, r2
 2084 0020 9B00     		lsls	r3, r3, #2
 2085 0022 1344     		add	r3, r3, r2
 2086 0024 9A00     		lsls	r2, r3, #2
 2087 0026 1344     		add	r3, r3, r2
 2088 0028 0693     		str	r3, [sp, #24]
 2089 002a 019B     		ldr	r3, [sp, #4]
 2090 002c 9A68     		ldr	r2, [r3, #8]
 2091 002e 1346     		mov	r3, r2
 2092 0030 9B00     		lsls	r3, r3, #2
 2093 0032 1344     		add	r3, r3, r2
 2094 0034 9A00     		lsls	r2, r3, #2
 2095 0036 1344     		add	r3, r3, r2
 2096 0038 0793     		str	r3, [sp, #28]
 2097              		.loc 1 272 3
 2098 003a 059B     		ldr	r3, [sp, #20]
 2099 003c 9B11     		asrs	r3, r3, #6
 2100 003e 0593     		str	r3, [sp, #20]
 2101 0040 069B     		ldr	r3, [sp, #24]
 2102 0042 9B11     		asrs	r3, r3, #6
 2103 0044 0693     		str	r3, [sp, #24]
 2104 0046 079B     		ldr	r3, [sp, #28]
 2105 0048 9B11     		asrs	r3, r3, #6
 2106 004a 0793     		str	r3, [sp, #28]
 2107              		.loc 1 273 3
 2108 004c 05AB     		add	r3, sp, #20
ARM GAS  /tmp/ccKtbbXa.s 			page 38


 2109 004e 1A46     		mov	r2, r3
 2110 0050 0299     		ldr	r1, [sp, #8]
 2111 0052 0398     		ldr	r0, [sp, #12]
 2112 0054 FFF7FEFF 		bl	ecef_of_enu_vect_i
 2113              		.loc 1 274 3
 2114 0058 039B     		ldr	r3, [sp, #12]
 2115 005a 1A68     		ldr	r2, [r3]
 2116 005c 029B     		ldr	r3, [sp, #8]
 2117 005e 1B68     		ldr	r3, [r3]
 2118 0060 1A44     		add	r2, r2, r3
 2119 0062 039B     		ldr	r3, [sp, #12]
 2120 0064 1A60     		str	r2, [r3]
 2121 0066 039B     		ldr	r3, [sp, #12]
 2122 0068 5A68     		ldr	r2, [r3, #4]
 2123 006a 029B     		ldr	r3, [sp, #8]
 2124 006c 5B68     		ldr	r3, [r3, #4]
 2125 006e 1A44     		add	r2, r2, r3
 2126 0070 039B     		ldr	r3, [sp, #12]
 2127 0072 5A60     		str	r2, [r3, #4]
 2128 0074 039B     		ldr	r3, [sp, #12]
 2129 0076 9A68     		ldr	r2, [r3, #8]
 2130 0078 029B     		ldr	r3, [sp, #8]
 2131 007a 9B68     		ldr	r3, [r3, #8]
 2132 007c 1A44     		add	r2, r2, r3
 2133 007e 039B     		ldr	r3, [sp, #12]
 2134 0080 9A60     		str	r2, [r3, #8]
 2135              		.loc 1 275 1
 2136 0082 00BF     		nop
 2137 0084 09B0     		add	sp, sp, #36
 2138              		.cfi_def_cfa_offset 4
 2139              		@ sp needed
 2140 0086 5DF804FB 		ldr	pc, [sp], #4
 2141              		.cfi_endproc
 2142              	.LFE34:
 2143              		.size	ecef_of_enu_pos_i, .-ecef_of_enu_pos_i
 2144 008a 00BF     		.section	.text.ecef_of_ned_pos_i,"ax",%progbits
 2145              		.align	1
 2146              		.p2align 4,,15
 2147              		.global	ecef_of_ned_pos_i
 2148              		.syntax unified
 2149              		.thumb
 2150              		.thumb_func
 2151              		.fpu fpv4-sp-d16
 2152              		.type	ecef_of_ned_pos_i, %function
 2153              	ecef_of_ned_pos_i:
 2154              	.LFB35:
 2155              		.loc 1 284 1
 2156              		.cfi_startproc
 2157              		@ args = 0, pretend = 0, frame = 32
 2158              		@ frame_needed = 0, uses_anonymous_args = 0
 2159 0000 00B5     		push	{lr}
 2160              		.cfi_def_cfa_offset 4
 2161              		.cfi_offset 14, -4
 2162 0002 89B0     		sub	sp, sp, #36
 2163              		.cfi_def_cfa_offset 40
 2164 0004 0390     		str	r0, [sp, #12]
 2165 0006 0291     		str	r1, [sp, #8]
ARM GAS  /tmp/ccKtbbXa.s 			page 39


 2166 0008 0192     		str	r2, [sp, #4]
 2167              		.loc 1 286 3
 2168 000a 019B     		ldr	r3, [sp, #4]
 2169 000c 5B68     		ldr	r3, [r3, #4]
 2170 000e 0593     		str	r3, [sp, #20]
 2171 0010 019B     		ldr	r3, [sp, #4]
 2172 0012 1B68     		ldr	r3, [r3]
 2173 0014 0693     		str	r3, [sp, #24]
 2174 0016 019B     		ldr	r3, [sp, #4]
 2175 0018 9B68     		ldr	r3, [r3, #8]
 2176 001a 5B42     		rsbs	r3, r3, #0
 2177 001c 0793     		str	r3, [sp, #28]
 2178              		.loc 1 287 3
 2179 001e 05AB     		add	r3, sp, #20
 2180 0020 1A46     		mov	r2, r3
 2181 0022 0299     		ldr	r1, [sp, #8]
 2182 0024 0398     		ldr	r0, [sp, #12]
 2183 0026 FFF7FEFF 		bl	ecef_of_enu_pos_i
 2184              		.loc 1 288 1
 2185 002a 00BF     		nop
 2186 002c 09B0     		add	sp, sp, #36
 2187              		.cfi_def_cfa_offset 4
 2188              		@ sp needed
 2189 002e 5DF804FB 		ldr	pc, [sp], #4
 2190              		.cfi_endproc
 2191              	.LFE35:
 2192              		.size	ecef_of_ned_pos_i, .-ecef_of_ned_pos_i
 2193 0032 00BF     		.section	.text.enu_of_lla_point_i,"ax",%progbits
 2194              		.align	1
 2195              		.p2align 4,,15
 2196              		.global	enu_of_lla_point_i
 2197              		.syntax unified
 2198              		.thumb
 2199              		.thumb_func
 2200              		.fpu fpv4-sp-d16
 2201              		.type	enu_of_lla_point_i, %function
 2202              	enu_of_lla_point_i:
 2203              	.LFB36:
 2204              		.loc 1 296 1
 2205              		.cfi_startproc
 2206              		@ args = 0, pretend = 0, frame = 32
 2207              		@ frame_needed = 0, uses_anonymous_args = 0
 2208 0000 00B5     		push	{lr}
 2209              		.cfi_def_cfa_offset 4
 2210              		.cfi_offset 14, -4
 2211 0002 89B0     		sub	sp, sp, #36
 2212              		.cfi_def_cfa_offset 40
 2213 0004 0390     		str	r0, [sp, #12]
 2214 0006 0291     		str	r1, [sp, #8]
 2215 0008 0192     		str	r2, [sp, #4]
 2216              		.loc 1 298 3
 2217 000a 05AB     		add	r3, sp, #20
 2218 000c 0199     		ldr	r1, [sp, #4]
 2219 000e 1846     		mov	r0, r3
 2220 0010 FFF7FEFF 		bl	ecef_of_lla_i
 2221              		.loc 1 299 3
 2222 0014 05AB     		add	r3, sp, #20
ARM GAS  /tmp/ccKtbbXa.s 			page 40


 2223 0016 1A46     		mov	r2, r3
 2224 0018 0299     		ldr	r1, [sp, #8]
 2225 001a 0398     		ldr	r0, [sp, #12]
 2226 001c FFF7FEFF 		bl	enu_of_ecef_point_i
 2227              		.loc 1 300 1
 2228 0020 00BF     		nop
 2229 0022 09B0     		add	sp, sp, #36
 2230              		.cfi_def_cfa_offset 4
 2231              		@ sp needed
 2232 0024 5DF804FB 		ldr	pc, [sp], #4
 2233              		.cfi_endproc
 2234              	.LFE36:
 2235              		.size	enu_of_lla_point_i, .-enu_of_lla_point_i
 2236              		.section	.text.ned_of_lla_point_i,"ax",%progbits
 2237              		.align	1
 2238              		.p2align 4,,15
 2239              		.global	ned_of_lla_point_i
 2240              		.syntax unified
 2241              		.thumb
 2242              		.thumb_func
 2243              		.fpu fpv4-sp-d16
 2244              		.type	ned_of_lla_point_i, %function
 2245              	ned_of_lla_point_i:
 2246              	.LFB37:
 2247              		.loc 1 308 1
 2248              		.cfi_startproc
 2249              		@ args = 0, pretend = 0, frame = 32
 2250              		@ frame_needed = 0, uses_anonymous_args = 0
 2251 0000 00B5     		push	{lr}
 2252              		.cfi_def_cfa_offset 4
 2253              		.cfi_offset 14, -4
 2254 0002 89B0     		sub	sp, sp, #36
 2255              		.cfi_def_cfa_offset 40
 2256 0004 0390     		str	r0, [sp, #12]
 2257 0006 0291     		str	r1, [sp, #8]
 2258 0008 0192     		str	r2, [sp, #4]
 2259              		.loc 1 310 3
 2260 000a 05AB     		add	r3, sp, #20
 2261 000c 0199     		ldr	r1, [sp, #4]
 2262 000e 1846     		mov	r0, r3
 2263 0010 FFF7FEFF 		bl	ecef_of_lla_i
 2264              		.loc 1 311 3
 2265 0014 05AB     		add	r3, sp, #20
 2266 0016 1A46     		mov	r2, r3
 2267 0018 0299     		ldr	r1, [sp, #8]
 2268 001a 0398     		ldr	r0, [sp, #12]
 2269 001c FFF7FEFF 		bl	ned_of_ecef_point_i
 2270              		.loc 1 312 1
 2271 0020 00BF     		nop
 2272 0022 09B0     		add	sp, sp, #36
 2273              		.cfi_def_cfa_offset 4
 2274              		@ sp needed
 2275 0024 5DF804FB 		ldr	pc, [sp], #4
 2276              		.cfi_endproc
 2277              	.LFE37:
 2278              		.size	ned_of_lla_point_i, .-ned_of_lla_point_i
 2279              		.section	.text.enu_of_lla_pos_i,"ax",%progbits
ARM GAS  /tmp/ccKtbbXa.s 			page 41


 2280              		.align	1
 2281              		.p2align 4,,15
 2282              		.global	enu_of_lla_pos_i
 2283              		.syntax unified
 2284              		.thumb
 2285              		.thumb_func
 2286              		.fpu fpv4-sp-d16
 2287              		.type	enu_of_lla_pos_i, %function
 2288              	enu_of_lla_pos_i:
 2289              	.LFB38:
 2290              		.loc 1 320 1
 2291              		.cfi_startproc
 2292              		@ args = 0, pretend = 0, frame = 32
 2293              		@ frame_needed = 0, uses_anonymous_args = 0
 2294 0000 00B5     		push	{lr}
 2295              		.cfi_def_cfa_offset 4
 2296              		.cfi_offset 14, -4
 2297 0002 89B0     		sub	sp, sp, #36
 2298              		.cfi_def_cfa_offset 40
 2299 0004 0390     		str	r0, [sp, #12]
 2300 0006 0291     		str	r1, [sp, #8]
 2301 0008 0192     		str	r2, [sp, #4]
 2302              		.loc 1 322 3
 2303 000a 05AB     		add	r3, sp, #20
 2304 000c 0199     		ldr	r1, [sp, #4]
 2305 000e 1846     		mov	r0, r3
 2306 0010 FFF7FEFF 		bl	ecef_of_lla_i
 2307              		.loc 1 323 3
 2308 0014 05AB     		add	r3, sp, #20
 2309 0016 1A46     		mov	r2, r3
 2310 0018 0299     		ldr	r1, [sp, #8]
 2311 001a 0398     		ldr	r0, [sp, #12]
 2312 001c FFF7FEFF 		bl	enu_of_ecef_pos_i
 2313              		.loc 1 324 1
 2314 0020 00BF     		nop
 2315 0022 09B0     		add	sp, sp, #36
 2316              		.cfi_def_cfa_offset 4
 2317              		@ sp needed
 2318 0024 5DF804FB 		ldr	pc, [sp], #4
 2319              		.cfi_endproc
 2320              	.LFE38:
 2321              		.size	enu_of_lla_pos_i, .-enu_of_lla_pos_i
 2322              		.section	.text.ned_of_lla_pos_i,"ax",%progbits
 2323              		.align	1
 2324              		.p2align 4,,15
 2325              		.global	ned_of_lla_pos_i
 2326              		.syntax unified
 2327              		.thumb
 2328              		.thumb_func
 2329              		.fpu fpv4-sp-d16
 2330              		.type	ned_of_lla_pos_i, %function
 2331              	ned_of_lla_pos_i:
 2332              	.LFB39:
 2333              		.loc 1 332 1
 2334              		.cfi_startproc
 2335              		@ args = 0, pretend = 0, frame = 32
 2336              		@ frame_needed = 0, uses_anonymous_args = 0
ARM GAS  /tmp/ccKtbbXa.s 			page 42


 2337 0000 00B5     		push	{lr}
 2338              		.cfi_def_cfa_offset 4
 2339              		.cfi_offset 14, -4
 2340 0002 89B0     		sub	sp, sp, #36
 2341              		.cfi_def_cfa_offset 40
 2342 0004 0390     		str	r0, [sp, #12]
 2343 0006 0291     		str	r1, [sp, #8]
 2344 0008 0192     		str	r2, [sp, #4]
 2345              		.loc 1 334 3
 2346 000a 05AB     		add	r3, sp, #20
 2347 000c 0199     		ldr	r1, [sp, #4]
 2348 000e 1846     		mov	r0, r3
 2349 0010 FFF7FEFF 		bl	ecef_of_lla_i
 2350              		.loc 1 335 3
 2351 0014 05AB     		add	r3, sp, #20
 2352 0016 1A46     		mov	r2, r3
 2353 0018 0299     		ldr	r1, [sp, #8]
 2354 001a 0398     		ldr	r0, [sp, #12]
 2355 001c FFF7FEFF 		bl	ned_of_ecef_pos_i
 2356              		.loc 1 336 1
 2357 0020 00BF     		nop
 2358 0022 09B0     		add	sp, sp, #36
 2359              		.cfi_def_cfa_offset 4
 2360              		@ sp needed
 2361 0024 5DF804FB 		ldr	pc, [sp], #4
 2362              		.cfi_endproc
 2363              	.LFE39:
 2364              		.size	ned_of_lla_pos_i, .-ned_of_lla_pos_i
 2365              		.section	.text.enu_of_lla_vect_i,"ax",%progbits
 2366              		.align	1
 2367              		.p2align 4,,15
 2368              		.global	enu_of_lla_vect_i
 2369              		.syntax unified
 2370              		.thumb
 2371              		.thumb_func
 2372              		.fpu fpv4-sp-d16
 2373              		.type	enu_of_lla_vect_i, %function
 2374              	enu_of_lla_vect_i:
 2375              	.LFB40:
 2376              		.loc 1 339 1
 2377              		.cfi_startproc
 2378              		@ args = 0, pretend = 0, frame = 32
 2379              		@ frame_needed = 0, uses_anonymous_args = 0
 2380 0000 00B5     		push	{lr}
 2381              		.cfi_def_cfa_offset 4
 2382              		.cfi_offset 14, -4
 2383 0002 89B0     		sub	sp, sp, #36
 2384              		.cfi_def_cfa_offset 40
 2385 0004 0390     		str	r0, [sp, #12]
 2386 0006 0291     		str	r1, [sp, #8]
 2387 0008 0192     		str	r2, [sp, #4]
 2388              		.loc 1 341 3
 2389 000a 05AB     		add	r3, sp, #20
 2390 000c 0199     		ldr	r1, [sp, #4]
 2391 000e 1846     		mov	r0, r3
 2392 0010 FFF7FEFF 		bl	ecef_of_lla_i
 2393              		.loc 1 342 3
ARM GAS  /tmp/ccKtbbXa.s 			page 43


 2394 0014 05AB     		add	r3, sp, #20
 2395 0016 1A46     		mov	r2, r3
 2396 0018 0299     		ldr	r1, [sp, #8]
 2397 001a 0398     		ldr	r0, [sp, #12]
 2398 001c FFF7FEFF 		bl	enu_of_ecef_vect_i
 2399              		.loc 1 343 1
 2400 0020 00BF     		nop
 2401 0022 09B0     		add	sp, sp, #36
 2402              		.cfi_def_cfa_offset 4
 2403              		@ sp needed
 2404 0024 5DF804FB 		ldr	pc, [sp], #4
 2405              		.cfi_endproc
 2406              	.LFE40:
 2407              		.size	enu_of_lla_vect_i, .-enu_of_lla_vect_i
 2408              		.section	.text.ned_of_lla_vect_i,"ax",%progbits
 2409              		.align	1
 2410              		.p2align 4,,15
 2411              		.global	ned_of_lla_vect_i
 2412              		.syntax unified
 2413              		.thumb
 2414              		.thumb_func
 2415              		.fpu fpv4-sp-d16
 2416              		.type	ned_of_lla_vect_i, %function
 2417              	ned_of_lla_vect_i:
 2418              	.LFB41:
 2419              		.loc 1 346 1
 2420              		.cfi_startproc
 2421              		@ args = 0, pretend = 0, frame = 32
 2422              		@ frame_needed = 0, uses_anonymous_args = 0
 2423 0000 00B5     		push	{lr}
 2424              		.cfi_def_cfa_offset 4
 2425              		.cfi_offset 14, -4
 2426 0002 89B0     		sub	sp, sp, #36
 2427              		.cfi_def_cfa_offset 40
 2428 0004 0390     		str	r0, [sp, #12]
 2429 0006 0291     		str	r1, [sp, #8]
 2430 0008 0192     		str	r2, [sp, #4]
 2431              		.loc 1 348 3
 2432 000a 05AB     		add	r3, sp, #20
 2433 000c 0199     		ldr	r1, [sp, #4]
 2434 000e 1846     		mov	r0, r3
 2435 0010 FFF7FEFF 		bl	ecef_of_lla_i
 2436              		.loc 1 349 3
 2437 0014 05AB     		add	r3, sp, #20
 2438 0016 1A46     		mov	r2, r3
 2439 0018 0299     		ldr	r1, [sp, #8]
 2440 001a 0398     		ldr	r0, [sp, #12]
 2441 001c FFF7FEFF 		bl	ned_of_ecef_vect_i
 2442              		.loc 1 350 1
 2443 0020 00BF     		nop
 2444 0022 09B0     		add	sp, sp, #36
 2445              		.cfi_def_cfa_offset 4
 2446              		@ sp needed
 2447 0024 5DF804FB 		ldr	pc, [sp], #4
 2448              		.cfi_endproc
 2449              	.LFE41:
 2450              		.size	ned_of_lla_vect_i, .-ned_of_lla_vect_i
ARM GAS  /tmp/ccKtbbXa.s 			page 44


 2451              		.section	.text.lla_of_ecef_i,"ax",%progbits
 2452              		.align	1
 2453              		.p2align 4,,15
 2454              		.global	lla_of_ecef_i
 2455              		.syntax unified
 2456              		.thumb
 2457              		.thumb_func
 2458              		.fpu fpv4-sp-d16
 2459              		.type	lla_of_ecef_i, %function
 2460              	lla_of_ecef_i:
 2461              	.LFB93:
 2462              		.loc 1 364 1
 2463              		.cfi_startproc
 2464              		@ args = 0, pretend = 0, frame = 56
 2465              		@ frame_needed = 0, uses_anonymous_args = 0
 2466 0000 00B5     		push	{lr}
 2467              		.cfi_def_cfa_offset 4
 2468              		.cfi_offset 14, -4
 2469 0002 8FB0     		sub	sp, sp, #60
 2470              		.cfi_def_cfa_offset 64
 2471 0004 0190     		str	r0, [sp, #4]
 2472 0006 0091     		str	r1, [sp]
 2473              		.loc 1 378 3
 2474 0008 009B     		ldr	r3, [sp]
 2475 000a 1B68     		ldr	r3, [r3]
 2476 000c 1846     		mov	r0, r3
 2477 000e FFF7FEFF 		bl	__aeabi_i2d
 2478 0012 4FF00002 		mov	r2, #0
 2479 0016 3C4B     		ldr	r3, .L27+16
 2480 0018 FFF7FEFF 		bl	__aeabi_ddiv
 2481 001c 0246     		mov	r2, r0
 2482 001e 0B46     		mov	r3, r1
 2483 0020 CDE90823 		strd	r2, [sp, #32]
 2484 0024 009B     		ldr	r3, [sp]
 2485 0026 5B68     		ldr	r3, [r3, #4]
 2486 0028 1846     		mov	r0, r3
 2487 002a FFF7FEFF 		bl	__aeabi_i2d
 2488 002e 4FF00002 		mov	r2, #0
 2489 0032 354B     		ldr	r3, .L27+16
 2490 0034 FFF7FEFF 		bl	__aeabi_ddiv
 2491 0038 0246     		mov	r2, r0
 2492 003a 0B46     		mov	r3, r1
 2493 003c CDE90A23 		strd	r2, [sp, #40]
 2494 0040 009B     		ldr	r3, [sp]
 2495 0042 9B68     		ldr	r3, [r3, #8]
 2496 0044 1846     		mov	r0, r3
 2497 0046 FFF7FEFF 		bl	__aeabi_i2d
 2498 004a 4FF00002 		mov	r2, #0
 2499 004e 2E4B     		ldr	r3, .L27+16
 2500 0050 FFF7FEFF 		bl	__aeabi_ddiv
 2501 0054 0246     		mov	r2, r0
 2502 0056 0B46     		mov	r3, r1
 2503 0058 CDE90C23 		strd	r2, [sp, #48]
 2504              		.loc 1 381 3
 2505 005c 08AA     		add	r2, sp, #32
 2506 005e 02AB     		add	r3, sp, #8
 2507 0060 1146     		mov	r1, r2
ARM GAS  /tmp/ccKtbbXa.s 			page 45


 2508 0062 1846     		mov	r0, r3
 2509 0064 FFF7FEFF 		bl	lla_of_ecef_d
 2510              		.loc 1 383 3
 2511 0068 DDE90201 		ldrd	r0, [sp, #8]
 2512 006c 22A3     		adr	r3, .L27
 2513 006e D3E90023 		ldrd	r2, [r3]
 2514 0072 FFF7FEFF 		bl	__aeabi_dmul
 2515 0076 0246     		mov	r2, r0
 2516 0078 0B46     		mov	r3, r1
 2517 007a 1046     		mov	r0, r2
 2518 007c 1946     		mov	r1, r3
 2519 007e 20A3     		adr	r3, .L27+8
 2520 0080 D3E90023 		ldrd	r2, [r3]
 2521 0084 FFF7FEFF 		bl	__aeabi_dmul
 2522 0088 0246     		mov	r2, r0
 2523 008a 0B46     		mov	r3, r1
 2524 008c 1046     		mov	r0, r2
 2525 008e 1946     		mov	r1, r3
 2526 0090 FFF7FEFF 		bl	__aeabi_d2iz
 2527 0094 0246     		mov	r2, r0
 2528 0096 019B     		ldr	r3, [sp, #4]
 2529 0098 1A60     		str	r2, [r3]
 2530 009a DDE90401 		ldrd	r0, [sp, #16]
 2531 009e 16A3     		adr	r3, .L27
 2532 00a0 D3E90023 		ldrd	r2, [r3]
 2533 00a4 FFF7FEFF 		bl	__aeabi_dmul
 2534 00a8 0246     		mov	r2, r0
 2535 00aa 0B46     		mov	r3, r1
 2536 00ac 1046     		mov	r0, r2
 2537 00ae 1946     		mov	r1, r3
 2538 00b0 13A3     		adr	r3, .L27+8
 2539 00b2 D3E90023 		ldrd	r2, [r3]
 2540 00b6 FFF7FEFF 		bl	__aeabi_dmul
 2541 00ba 0246     		mov	r2, r0
 2542 00bc 0B46     		mov	r3, r1
 2543 00be 1046     		mov	r0, r2
 2544 00c0 1946     		mov	r1, r3
 2545 00c2 FFF7FEFF 		bl	__aeabi_d2iz
 2546 00c6 0246     		mov	r2, r0
 2547 00c8 019B     		ldr	r3, [sp, #4]
 2548 00ca 5A60     		str	r2, [r3, #4]
 2549 00cc DDE90601 		ldrd	r0, [sp, #24]
 2550 00d0 4FF00002 		mov	r2, #0
 2551 00d4 0D4B     		ldr	r3, .L27+20
 2552 00d6 FFF7FEFF 		bl	__aeabi_dmul
 2553 00da 0246     		mov	r2, r0
 2554 00dc 0B46     		mov	r3, r1
 2555 00de 1046     		mov	r0, r2
 2556 00e0 1946     		mov	r1, r3
 2557 00e2 FFF7FEFF 		bl	__aeabi_d2iz
 2558 00e6 0246     		mov	r2, r0
 2559 00e8 019B     		ldr	r3, [sp, #4]
 2560 00ea 9A60     		str	r2, [r3, #8]
 2561              		.loc 1 386 1
 2562 00ec 00BF     		nop
 2563 00ee 0FB0     		add	sp, sp, #60
 2564              		.cfi_def_cfa_offset 4
ARM GAS  /tmp/ccKtbbXa.s 			page 46


 2565              		@ sp needed
 2566 00f0 5DF804FB 		ldr	pc, [sp], #4
 2567              	.L28:
 2568 00f4 AFF30080 		.align	3
 2569              	.L27:
 2570 00f8 F8C1631A 		.word	442745336
 2571 00fc DCA54C40 		.word	1078765020
 2572 0100 00000000 		.word	0
 2573 0104 D0126341 		.word	1097011920
 2574 0108 00005940 		.word	1079574528
 2575 010c 00408F40 		.word	1083129856
 2576              		.cfi_endproc
 2577              	.LFE93:
 2578              		.size	lla_of_ecef_i, .-lla_of_ecef_i
 2579              		.section	.text.ecef_of_lla_i,"ax",%progbits
 2580              		.align	1
 2581              		.p2align 4,,15
 2582              		.global	ecef_of_lla_i
 2583              		.syntax unified
 2584              		.thumb
 2585              		.thumb_func
 2586              		.fpu fpv4-sp-d16
 2587              		.type	ecef_of_lla_i, %function
 2588              	ecef_of_lla_i:
 2589              	.LFB94:
 2590              		.loc 1 393 1
 2591              		.cfi_startproc
 2592              		@ args = 0, pretend = 0, frame = 56
 2593              		@ frame_needed = 0, uses_anonymous_args = 0
 2594 0000 00B5     		push	{lr}
 2595              		.cfi_def_cfa_offset 4
 2596              		.cfi_offset 14, -4
 2597 0002 8FB0     		sub	sp, sp, #60
 2598              		.cfi_def_cfa_offset 64
 2599 0004 0190     		str	r0, [sp, #4]
 2600 0006 0091     		str	r1, [sp]
 2601              		.loc 1 407 3
 2602 0008 009B     		ldr	r3, [sp]
 2603 000a 1B68     		ldr	r3, [r3]
 2604 000c 1846     		mov	r0, r3
 2605 000e FFF7FEFF 		bl	__aeabi_i2d
 2606 0012 3BA3     		adr	r3, .L30+8
 2607 0014 D3E90023 		ldrd	r2, [r3]
 2608 0018 FFF7FEFF 		bl	__aeabi_dmul
 2609 001c 0246     		mov	r2, r0
 2610 001e 0B46     		mov	r3, r1
 2611 0020 1046     		mov	r0, r2
 2612 0022 1946     		mov	r1, r3
 2613 0024 38A3     		adr	r3, .L30+16
 2614 0026 D3E90023 		ldrd	r2, [r3]
 2615 002a FFF7FEFF 		bl	__aeabi_ddiv
 2616 002e 0246     		mov	r2, r0
 2617 0030 0B46     		mov	r3, r1
 2618 0032 CDE90823 		strd	r2, [sp, #32]
 2619 0036 009B     		ldr	r3, [sp]
 2620 0038 5B68     		ldr	r3, [r3, #4]
 2621 003a 1846     		mov	r0, r3
ARM GAS  /tmp/ccKtbbXa.s 			page 47


 2622 003c FFF7FEFF 		bl	__aeabi_i2d
 2623 0040 2FA3     		adr	r3, .L30+8
 2624 0042 D3E90023 		ldrd	r2, [r3]
 2625 0046 FFF7FEFF 		bl	__aeabi_dmul
 2626 004a 0246     		mov	r2, r0
 2627 004c 0B46     		mov	r3, r1
 2628 004e 1046     		mov	r0, r2
 2629 0050 1946     		mov	r1, r3
 2630 0052 2DA3     		adr	r3, .L30+16
 2631 0054 D3E90023 		ldrd	r2, [r3]
 2632 0058 FFF7FEFF 		bl	__aeabi_ddiv
 2633 005c 0246     		mov	r2, r0
 2634 005e 0B46     		mov	r3, r1
 2635 0060 CDE90A23 		strd	r2, [sp, #40]
 2636 0064 009B     		ldr	r3, [sp]
 2637 0066 9B68     		ldr	r3, [r3, #8]
 2638 0068 1846     		mov	r0, r3
 2639 006a FFF7FEFF 		bl	__aeabi_i2d
 2640 006e 4FF00002 		mov	r2, #0
 2641 0072 214B     		ldr	r3, .L30
 2642 0074 FFF7FEFF 		bl	__aeabi_ddiv
 2643 0078 0246     		mov	r2, r0
 2644 007a 0B46     		mov	r3, r1
 2645 007c CDE90C23 		strd	r2, [sp, #48]
 2646              		.loc 1 410 3
 2647 0080 08AA     		add	r2, sp, #32
 2648 0082 02AB     		add	r3, sp, #8
 2649 0084 1146     		mov	r1, r2
 2650 0086 1846     		mov	r0, r3
 2651 0088 FFF7FEFF 		bl	ecef_of_lla_d
 2652              		.loc 1 412 3
 2653 008c DDE90201 		ldrd	r0, [sp, #8]
 2654 0090 4FF00002 		mov	r2, #0
 2655 0094 194B     		ldr	r3, .L30+4
 2656 0096 FFF7FEFF 		bl	__aeabi_dmul
 2657 009a 0246     		mov	r2, r0
 2658 009c 0B46     		mov	r3, r1
 2659 009e 1046     		mov	r0, r2
 2660 00a0 1946     		mov	r1, r3
 2661 00a2 FFF7FEFF 		bl	__aeabi_d2iz
 2662 00a6 0246     		mov	r2, r0
 2663 00a8 019B     		ldr	r3, [sp, #4]
 2664 00aa 1A60     		str	r2, [r3]
 2665 00ac DDE90401 		ldrd	r0, [sp, #16]
 2666 00b0 4FF00002 		mov	r2, #0
 2667 00b4 114B     		ldr	r3, .L30+4
 2668 00b6 FFF7FEFF 		bl	__aeabi_dmul
 2669 00ba 0246     		mov	r2, r0
 2670 00bc 0B46     		mov	r3, r1
 2671 00be 1046     		mov	r0, r2
 2672 00c0 1946     		mov	r1, r3
 2673 00c2 FFF7FEFF 		bl	__aeabi_d2iz
 2674 00c6 0246     		mov	r2, r0
 2675 00c8 019B     		ldr	r3, [sp, #4]
 2676 00ca 5A60     		str	r2, [r3, #4]
 2677 00cc DDE90601 		ldrd	r0, [sp, #24]
 2678 00d0 4FF00002 		mov	r2, #0
ARM GAS  /tmp/ccKtbbXa.s 			page 48


 2679 00d4 094B     		ldr	r3, .L30+4
 2680 00d6 FFF7FEFF 		bl	__aeabi_dmul
 2681 00da 0246     		mov	r2, r0
 2682 00dc 0B46     		mov	r3, r1
 2683 00de 1046     		mov	r0, r2
 2684 00e0 1946     		mov	r1, r3
 2685 00e2 FFF7FEFF 		bl	__aeabi_d2iz
 2686 00e6 0246     		mov	r2, r0
 2687 00e8 019B     		ldr	r3, [sp, #4]
 2688 00ea 9A60     		str	r2, [r3, #8]
 2689              		.loc 1 415 1
 2690 00ec 00BF     		nop
 2691 00ee 0FB0     		add	sp, sp, #60
 2692              		.cfi_def_cfa_offset 4
 2693              		@ sp needed
 2694 00f0 5DF804FB 		ldr	pc, [sp], #4
 2695              	.L31:
 2696 00f4 AFF30080 		.align	3
 2697              	.L30:
 2698 00f8 00408F40 		.word	1083129856
 2699 00fc 00005940 		.word	1079574528
 2700 0100 399D52A2 		.word	-1571644103
 2701 0104 46DF913F 		.word	1066524486
 2702 0108 00000000 		.word	0
 2703 010c D0126341 		.word	1097011920
 2704              		.cfi_endproc
 2705              	.LFE94:
 2706              		.size	ecef_of_lla_i, .-ecef_of_lla_i
 2707              		.section	.rodata.serie_coeff_proj_mercator,"a"
 2708              		.align	2
 2709              		.type	serie_coeff_proj_mercator, %object
 2710              		.size	serie_coeff_proj_mercator, 20
 2711              	serie_coeff_proj_mercator:
 2712 0000 2E927F3F 		.word	1065325102
 2713 0004 063D5B3A 		.word	979057926
 2714 0008 CBE54B35 		.word	894166475
 2715 000c 8A53A430 		.word	816075658
 2716 0010 19A5292C 		.word	740926745
 2717              		.section	.rodata.serie_coeff_proj_mercator_inverse,"a"
 2718              		.align	2
 2719              		.type	serie_coeff_proj_mercator_inverse, %object
 2720              		.size	serie_coeff_proj_mercator_inverse, 20
 2721              	serie_coeff_proj_mercator_inverse:
 2722 0000 2E927F3F 		.word	1065325102
 2723 0004 419B5B3A 		.word	979082049
 2724 0008 B8A77D33 		.word	863872952
 2725 000c 48FE372F 		.word	792198728
 2726 0010 BECF702A 		.word	712036286
 2727              		.section	.text.utm_of_lla_i,"ax",%progbits
 2728              		.align	1
 2729              		.p2align 4,,15
 2730              		.global	utm_of_lla_i
 2731              		.syntax unified
 2732              		.thumb
 2733              		.thumb_func
 2734              		.fpu fpv4-sp-d16
 2735              		.type	utm_of_lla_i, %function
ARM GAS  /tmp/ccKtbbXa.s 			page 49


 2736              	utm_of_lla_i:
 2737              	.LFB95:
 2738              		.loc 1 424 1
 2739              		.cfi_startproc
 2740              		@ args = 0, pretend = 0, frame = 64
 2741              		@ frame_needed = 0, uses_anonymous_args = 0
 2742 0000 00B5     		push	{lr}
 2743              		.cfi_def_cfa_offset 4
 2744              		.cfi_offset 14, -4
 2745 0002 91B0     		sub	sp, sp, #68
 2746              		.cfi_def_cfa_offset 72
 2747 0004 0190     		str	r0, [sp, #4]
 2748 0006 0091     		str	r1, [sp]
 2749              		.loc 1 438 3
 2750 0008 009B     		ldr	r3, [sp]
 2751 000a 1B68     		ldr	r3, [r3]
 2752 000c 1846     		mov	r0, r3
 2753 000e FFF7FEFF 		bl	__aeabi_i2d
 2754 0012 3FA3     		adr	r3, .L33+8
 2755 0014 D3E90023 		ldrd	r2, [r3]
 2756 0018 FFF7FEFF 		bl	__aeabi_dmul
 2757 001c 0246     		mov	r2, r0
 2758 001e 0B46     		mov	r3, r1
 2759 0020 1046     		mov	r0, r2
 2760 0022 1946     		mov	r1, r3
 2761 0024 3CA3     		adr	r3, .L33+16
 2762 0026 D3E90023 		ldrd	r2, [r3]
 2763 002a FFF7FEFF 		bl	__aeabi_ddiv
 2764 002e 0246     		mov	r2, r0
 2765 0030 0B46     		mov	r3, r1
 2766 0032 CDE90A23 		strd	r2, [sp, #40]
 2767 0036 009B     		ldr	r3, [sp]
 2768 0038 5B68     		ldr	r3, [r3, #4]
 2769 003a 1846     		mov	r0, r3
 2770 003c FFF7FEFF 		bl	__aeabi_i2d
 2771 0040 33A3     		adr	r3, .L33+8
 2772 0042 D3E90023 		ldrd	r2, [r3]
 2773 0046 FFF7FEFF 		bl	__aeabi_dmul
 2774 004a 0246     		mov	r2, r0
 2775 004c 0B46     		mov	r3, r1
 2776 004e 1046     		mov	r0, r2
 2777 0050 1946     		mov	r1, r3
 2778 0052 31A3     		adr	r3, .L33+16
 2779 0054 D3E90023 		ldrd	r2, [r3]
 2780 0058 FFF7FEFF 		bl	__aeabi_ddiv
 2781 005c 0246     		mov	r2, r0
 2782 005e 0B46     		mov	r3, r1
 2783 0060 CDE90C23 		strd	r2, [sp, #48]
 2784 0064 009B     		ldr	r3, [sp]
 2785 0066 9B68     		ldr	r3, [r3, #8]
 2786 0068 1846     		mov	r0, r3
 2787 006a FFF7FEFF 		bl	__aeabi_i2d
 2788 006e 4FF00002 		mov	r2, #0
 2789 0072 254B     		ldr	r3, .L33
 2790 0074 FFF7FEFF 		bl	__aeabi_ddiv
 2791 0078 0246     		mov	r2, r0
 2792 007a 0B46     		mov	r3, r1
ARM GAS  /tmp/ccKtbbXa.s 			page 50


 2793 007c CDE90E23 		strd	r2, [sp, #56]
 2794              		.loc 1 441 19
 2795 0080 019B     		ldr	r3, [sp, #4]
 2796 0082 1B7B     		ldrb	r3, [r3, #12]	@ zero_extendqisi2
 2797              		.loc 1 441 14
 2798 0084 8DF82030 		strb	r3, [sp, #32]
 2799              		.loc 1 442 3
 2800 0088 0AAA     		add	r2, sp, #40
 2801 008a 02AB     		add	r3, sp, #8
 2802 008c 1146     		mov	r1, r2
 2803 008e 1846     		mov	r0, r3
 2804 0090 FFF7FEFF 		bl	utm_of_lla_d
 2805              		.loc 1 444 3
 2806 0094 DDE90401 		ldrd	r0, [sp, #16]
 2807 0098 4FF00002 		mov	r2, #0
 2808 009c 1B4B     		ldr	r3, .L33+4
 2809 009e FFF7FEFF 		bl	__aeabi_dmul
 2810 00a2 0246     		mov	r2, r0
 2811 00a4 0B46     		mov	r3, r1
 2812 00a6 1046     		mov	r0, r2
 2813 00a8 1946     		mov	r1, r3
 2814 00aa FFF7FEFF 		bl	__aeabi_d2iz
 2815 00ae 0246     		mov	r2, r0
 2816 00b0 019B     		ldr	r3, [sp, #4]
 2817 00b2 5A60     		str	r2, [r3, #4]
 2818 00b4 DDE90201 		ldrd	r0, [sp, #8]
 2819 00b8 4FF00002 		mov	r2, #0
 2820 00bc 134B     		ldr	r3, .L33+4
 2821 00be FFF7FEFF 		bl	__aeabi_dmul
 2822 00c2 0246     		mov	r2, r0
 2823 00c4 0B46     		mov	r3, r1
 2824 00c6 1046     		mov	r0, r2
 2825 00c8 1946     		mov	r1, r3
 2826 00ca FFF7FEFF 		bl	__aeabi_d2iz
 2827 00ce 0246     		mov	r2, r0
 2828 00d0 019B     		ldr	r3, [sp, #4]
 2829 00d2 1A60     		str	r2, [r3]
 2830 00d4 DDE90601 		ldrd	r0, [sp, #24]
 2831 00d8 4FF00002 		mov	r2, #0
 2832 00dc 0A4B     		ldr	r3, .L33
 2833 00de FFF7FEFF 		bl	__aeabi_dmul
 2834 00e2 0246     		mov	r2, r0
 2835 00e4 0B46     		mov	r3, r1
 2836 00e6 1046     		mov	r0, r2
 2837 00e8 1946     		mov	r1, r3
 2838 00ea FFF7FEFF 		bl	__aeabi_d2iz
 2839 00ee 0246     		mov	r2, r0
 2840 00f0 019B     		ldr	r3, [sp, #4]
 2841 00f2 9A60     		str	r2, [r3, #8]
 2842 00f4 9DF82020 		ldrb	r2, [sp, #32]	@ zero_extendqisi2
 2843 00f8 019B     		ldr	r3, [sp, #4]
 2844 00fa 1A73     		strb	r2, [r3, #12]
 2845              		.loc 1 446 1
 2846 00fc 00BF     		nop
 2847 00fe 11B0     		add	sp, sp, #68
 2848              		.cfi_def_cfa_offset 4
 2849              		@ sp needed
ARM GAS  /tmp/ccKtbbXa.s 			page 51


 2850 0100 5DF804FB 		ldr	pc, [sp], #4
 2851              	.L34:
 2852 0104 AFF30080 		.align	3
 2853              	.L33:
 2854 0108 00408F40 		.word	1083129856
 2855 010c 00005940 		.word	1079574528
 2856 0110 399D52A2 		.word	-1571644103
 2857 0114 46DF913F 		.word	1066524486
 2858 0118 00000000 		.word	0
 2859 011c D0126341 		.word	1097011920
 2860              		.cfi_endproc
 2861              	.LFE95:
 2862              		.size	utm_of_lla_i, .-utm_of_lla_i
 2863              		.section	.text.lla_of_utm_i,"ax",%progbits
 2864              		.align	1
 2865              		.p2align 4,,15
 2866              		.global	lla_of_utm_i
 2867              		.syntax unified
 2868              		.thumb
 2869              		.thumb_func
 2870              		.fpu fpv4-sp-d16
 2871              		.type	lla_of_utm_i, %function
 2872              	lla_of_utm_i:
 2873              	.LFB96:
 2874              		.loc 1 453 1
 2875              		.cfi_startproc
 2876              		@ args = 0, pretend = 0, frame = 64
 2877              		@ frame_needed = 0, uses_anonymous_args = 0
 2878 0000 00B5     		push	{lr}
 2879              		.cfi_def_cfa_offset 4
 2880              		.cfi_offset 14, -4
 2881 0002 91B0     		sub	sp, sp, #68
 2882              		.cfi_def_cfa_offset 72
 2883 0004 0190     		str	r0, [sp, #4]
 2884 0006 0091     		str	r1, [sp]
 2885              		.loc 1 466 3
 2886 0008 009B     		ldr	r3, [sp]
 2887 000a 5B68     		ldr	r3, [r3, #4]
 2888 000c 1846     		mov	r0, r3
 2889 000e FFF7FEFF 		bl	__aeabi_i2d
 2890 0012 4FF00002 		mov	r2, #0
 2891 0016 3E4B     		ldr	r3, .L36+16
 2892 0018 FFF7FEFF 		bl	__aeabi_ddiv
 2893 001c 0246     		mov	r2, r0
 2894 001e 0B46     		mov	r3, r1
 2895 0020 CDE90A23 		strd	r2, [sp, #40]
 2896 0024 009B     		ldr	r3, [sp]
 2897 0026 1B68     		ldr	r3, [r3]
 2898 0028 1846     		mov	r0, r3
 2899 002a FFF7FEFF 		bl	__aeabi_i2d
 2900 002e 4FF00002 		mov	r2, #0
 2901 0032 374B     		ldr	r3, .L36+16
 2902 0034 FFF7FEFF 		bl	__aeabi_ddiv
 2903 0038 0246     		mov	r2, r0
 2904 003a 0B46     		mov	r3, r1
 2905 003c CDE90823 		strd	r2, [sp, #32]
 2906 0040 009B     		ldr	r3, [sp]
ARM GAS  /tmp/ccKtbbXa.s 			page 52


 2907 0042 9B68     		ldr	r3, [r3, #8]
 2908 0044 1846     		mov	r0, r3
 2909 0046 FFF7FEFF 		bl	__aeabi_i2d
 2910 004a 4FF00002 		mov	r2, #0
 2911 004e 314B     		ldr	r3, .L36+20
 2912 0050 FFF7FEFF 		bl	__aeabi_ddiv
 2913 0054 0246     		mov	r2, r0
 2914 0056 0B46     		mov	r3, r1
 2915 0058 CDE90C23 		strd	r2, [sp, #48]
 2916 005c 009B     		ldr	r3, [sp]
 2917 005e 1B7B     		ldrb	r3, [r3, #12]	@ zero_extendqisi2
 2918 0060 8DF83830 		strb	r3, [sp, #56]
 2919              		.loc 1 469 3
 2920 0064 08AA     		add	r2, sp, #32
 2921 0066 02AB     		add	r3, sp, #8
 2922 0068 1146     		mov	r1, r2
 2923 006a 1846     		mov	r0, r3
 2924 006c FFF7FEFF 		bl	lla_of_utm_d
 2925              		.loc 1 471 3
 2926 0070 DDE90201 		ldrd	r0, [sp, #8]
 2927 0074 22A3     		adr	r3, .L36
 2928 0076 D3E90023 		ldrd	r2, [r3]
 2929 007a FFF7FEFF 		bl	__aeabi_dmul
 2930 007e 0246     		mov	r2, r0
 2931 0080 0B46     		mov	r3, r1
 2932 0082 1046     		mov	r0, r2
 2933 0084 1946     		mov	r1, r3
 2934 0086 20A3     		adr	r3, .L36+8
 2935 0088 D3E90023 		ldrd	r2, [r3]
 2936 008c FFF7FEFF 		bl	__aeabi_dmul
 2937 0090 0246     		mov	r2, r0
 2938 0092 0B46     		mov	r3, r1
 2939 0094 1046     		mov	r0, r2
 2940 0096 1946     		mov	r1, r3
 2941 0098 FFF7FEFF 		bl	__aeabi_d2iz
 2942 009c 0246     		mov	r2, r0
 2943 009e 019B     		ldr	r3, [sp, #4]
 2944 00a0 1A60     		str	r2, [r3]
 2945 00a2 DDE90401 		ldrd	r0, [sp, #16]
 2946 00a6 16A3     		adr	r3, .L36
 2947 00a8 D3E90023 		ldrd	r2, [r3]
 2948 00ac FFF7FEFF 		bl	__aeabi_dmul
 2949 00b0 0246     		mov	r2, r0
 2950 00b2 0B46     		mov	r3, r1
 2951 00b4 1046     		mov	r0, r2
 2952 00b6 1946     		mov	r1, r3
 2953 00b8 13A3     		adr	r3, .L36+8
 2954 00ba D3E90023 		ldrd	r2, [r3]
 2955 00be FFF7FEFF 		bl	__aeabi_dmul
 2956 00c2 0246     		mov	r2, r0
 2957 00c4 0B46     		mov	r3, r1
 2958 00c6 1046     		mov	r0, r2
 2959 00c8 1946     		mov	r1, r3
 2960 00ca FFF7FEFF 		bl	__aeabi_d2iz
 2961 00ce 0246     		mov	r2, r0
 2962 00d0 019B     		ldr	r3, [sp, #4]
 2963 00d2 5A60     		str	r2, [r3, #4]
ARM GAS  /tmp/ccKtbbXa.s 			page 53


 2964 00d4 DDE90601 		ldrd	r0, [sp, #24]
 2965 00d8 4FF00002 		mov	r2, #0
 2966 00dc 0D4B     		ldr	r3, .L36+20
 2967 00de FFF7FEFF 		bl	__aeabi_dmul
 2968 00e2 0246     		mov	r2, r0
 2969 00e4 0B46     		mov	r3, r1
 2970 00e6 1046     		mov	r0, r2
 2971 00e8 1946     		mov	r1, r3
 2972 00ea FFF7FEFF 		bl	__aeabi_d2iz
 2973 00ee 0246     		mov	r2, r0
 2974 00f0 019B     		ldr	r3, [sp, #4]
 2975 00f2 9A60     		str	r2, [r3, #8]
 2976              		.loc 1 474 1
 2977 00f4 00BF     		nop
 2978 00f6 11B0     		add	sp, sp, #68
 2979              		.cfi_def_cfa_offset 4
 2980              		@ sp needed
 2981 00f8 5DF804FB 		ldr	pc, [sp], #4
 2982              	.L37:
 2983 00fc AFF30080 		.align	3
 2984              	.L36:
 2985 0100 F8C1631A 		.word	442745336
 2986 0104 DCA54C40 		.word	1078765020
 2987 0108 00000000 		.word	0
 2988 010c D0126341 		.word	1097011920
 2989 0110 00005940 		.word	1079574528
 2990 0114 00408F40 		.word	1083129856
 2991              		.cfi_endproc
 2992              	.LFE96:
 2993              		.size	lla_of_utm_i, .-lla_of_utm_i
 2994              		.text
 2995              	.Letext0:
 2996              		.file 2 "/usr/lib/gcc/arm-none-eabi/10.3.1/include/stdint.h"
 2997              		.file 3 "math/pprz_algebra_int.h"
 2998              		.file 4 "math/pprz_geodetic_int.h"
 2999              		.file 5 "math/pprz_geodetic_double.h"
 3000              		.file 6 "./math/pprz_geodetic_utm.h"