ARM GAS  /tmp/ccEGu2gb.s 			page 1


   1              		.cpu cortex-m4
   2              		.eabi_attribute 27, 1
   3              		.eabi_attribute 20, 1
   4              		.eabi_attribute 21, 1
   5              		.eabi_attribute 23, 3
   6              		.eabi_attribute 24, 1
   7              		.eabi_attribute 25, 1
   8              		.eabi_attribute 26, 1
   9              		.eabi_attribute 30, 6
  10              		.eabi_attribute 34, 1
  11              		.eabi_attribute 18, 4
  12              		.file	"pprz_dl.c"
  13              		.text
  14              	.Ltext0:
  15              		.cfi_sections	.debug_frame
  16              		.section	.text.DlCheckAndParse,"ax",%progbits
  17              		.align	1
  18              		.p2align 4,,15
  19              		.arch armv7e-m
  20              		.syntax unified
  21              		.thumb
  22              		.thumb_func
  23              		.fpu fpv4-sp-d16
  24              		.type	DlCheckAndParse, %function
  25              	DlCheckAndParse:
  26              	.LFB489:
  27              		.file 1 "./modules/datalink/datalink.h"
  28              		.loc 1 79 1
  29              		.cfi_startproc
  30              		@ args = 4, pretend = 0, frame = 16
  31              		@ frame_needed = 0, uses_anonymous_args = 0
  32 0000 00B5     		push	{lr}
  33              		.cfi_def_cfa_offset 4
  34              		.cfi_offset 14, -4
  35 0002 85B0     		sub	sp, sp, #20
  36              		.cfi_def_cfa_offset 24
  37 0004 0390     		str	r0, [sp, #12]
  38 0006 0291     		str	r1, [sp, #8]
  39 0008 0192     		str	r2, [sp, #4]
  40 000a 0093     		str	r3, [sp]
  41              		.loc 1 87 7
  42 000c 009B     		ldr	r3, [sp]
  43 000e 1B78     		ldrb	r3, [r3]	@ zero_extendqisi2
  44              		.loc 1 87 6
  45 0010 002B     		cmp	r3, #0
  46 0012 14D0     		beq	.L4
  47              		.loc 1 88 8
  48 0014 9DF81830 		ldrb	r3, [sp, #24]	@ zero_extendqisi2
  49 0018 002B     		cmp	r3, #0
  50 001a 08D0     		beq	.L3
  51              		.loc 1 89 21
  52 001c 0A4B     		ldr	r3, .L5
  53 001e 0022     		movs	r2, #0
  54 0020 1A80     		strh	r2, [r3]	@ movhi
  55              		.loc 1 90 23
  56 0022 0A4B     		ldr	r3, .L5+4
  57 0024 1B88     		ldrh	r3, [r3]
ARM GAS  /tmp/ccEGu2gb.s 			page 2


  58 0026 0133     		adds	r3, r3, #1
  59 0028 9AB2     		uxth	r2, r3
  60 002a 084B     		ldr	r3, .L5+4
  61 002c 1A80     		strh	r2, [r3]	@ movhi
  62              	.L3:
  63              		.loc 1 92 5
  64 002e 019A     		ldr	r2, [sp, #4]
  65 0030 0299     		ldr	r1, [sp, #8]
  66 0032 0398     		ldr	r0, [sp, #12]
  67 0034 FFF7FEFF 		bl	dl_parse_msg
  68              		.loc 1 93 20
  69 0038 009B     		ldr	r3, [sp]
  70 003a 0022     		movs	r2, #0
  71 003c 1A70     		strb	r2, [r3]
  72              	.L4:
  73              		.loc 1 95 1
  74 003e 00BF     		nop
  75 0040 05B0     		add	sp, sp, #20
  76              		.cfi_def_cfa_offset 4
  77              		@ sp needed
  78 0042 5DF804FB 		ldr	pc, [sp], #4
  79              	.L6:
  80 0046 00BF     		.align	2
  81              	.L5:
  82 0048 00000000 		.word	datalink_time
  83 004c 00000000 		.word	datalink_nb_msgs
  84              		.cfi_endproc
  85              	.LFE489:
  86              		.size	DlCheckAndParse, .-DlCheckAndParse
  87              		.global	pprz_tp
  88              		.section	.bss.pprz_tp,"aw",%nobits
  89              		.align	2
  90              		.type	pprz_tp, %object
  91              		.size	pprz_tp, 304
  92              	pprz_tp:
  93 0000 00000000 		.space	304
  93      00000000 
  93      00000000 
  93      00000000 
  93      00000000 
  94              		.section	.text.pprz_dl_init,"ax",%progbits
  95              		.align	1
  96              		.p2align 4,,15
  97              		.global	pprz_dl_init
  98              		.syntax unified
  99              		.thumb
 100              		.thumb_func
 101              		.fpu fpv4-sp-d16
 102              		.type	pprz_dl_init, %function
 103              	pprz_dl_init:
 104              	.LFB490:
 105              		.file 2 "modules/datalink/pprz_dl.c"
 106              		.loc 2 36 1
 107              		.cfi_startproc
 108              		@ args = 0, pretend = 0, frame = 0
 109              		@ frame_needed = 0, uses_anonymous_args = 0
 110 0000 08B5     		push	{r3, lr}
ARM GAS  /tmp/ccEGu2gb.s 			page 3


 111              		.cfi_def_cfa_offset 8
 112              		.cfi_offset 3, -8
 113              		.cfi_offset 14, -4
 114              		.loc 2 37 3
 115 0002 0248     		ldr	r0, .L8
 116 0004 FFF7FEFF 		bl	pprz_transport_init
 117              		.loc 2 38 1
 118 0008 00BF     		nop
 119 000a 08BD     		pop	{r3, pc}
 120              	.L9:
 121              		.align	2
 122              	.L8:
 123 000c 00000000 		.word	pprz_tp
 124              		.cfi_endproc
 125              	.LFE490:
 126              		.size	pprz_dl_init, .-pprz_dl_init
 127              		.section	.text.pprz_dl_event,"ax",%progbits
 128              		.align	1
 129              		.p2align 4,,15
 130              		.global	pprz_dl_event
 131              		.syntax unified
 132              		.thumb
 133              		.thumb_func
 134              		.fpu fpv4-sp-d16
 135              		.type	pprz_dl_event, %function
 136              	pprz_dl_event:
 137              	.LFB491:
 138              		.loc 2 41 1
 139              		.cfi_startproc
 140              		@ args = 0, pretend = 0, frame = 0
 141              		@ frame_needed = 0, uses_anonymous_args = 0
 142 0000 00B5     		push	{lr}
 143              		.cfi_def_cfa_offset 4
 144              		.cfi_offset 14, -4
 145 0002 83B0     		sub	sp, sp, #12
 146              		.cfi_def_cfa_offset 16
 147              		.loc 2 42 3
 148 0004 084B     		ldr	r3, .L11
 149 0006 094A     		ldr	r2, .L11+4
 150 0008 0949     		ldr	r1, .L11+8
 151 000a 0A48     		ldr	r0, .L11+12
 152 000c FFF7FEFF 		bl	pprz_check_and_parse
 153              		.loc 2 43 3
 154 0010 0123     		movs	r3, #1
 155 0012 0093     		str	r3, [sp]
 156 0014 044B     		ldr	r3, .L11
 157 0016 054A     		ldr	r2, .L11+4
 158 0018 0749     		ldr	r1, .L11+16
 159 001a 0648     		ldr	r0, .L11+12
 160 001c FFF7FEFF 		bl	DlCheckAndParse
 161              		.loc 2 44 1
 162 0020 00BF     		nop
 163 0022 03B0     		add	sp, sp, #12
 164              		.cfi_def_cfa_offset 4
 165              		@ sp needed
 166 0024 5DF804FB 		ldr	pc, [sp], #4
 167              	.L12:
ARM GAS  /tmp/ccEGu2gb.s 			page 4


 168              		.align	2
 169              	.L11:
 170 0028 00000000 		.word	dl_msg_available
 171 002c 00000000 		.word	dl_buffer
 172 0030 00000000 		.word	pprz_tp
 173 0034 30020000 		.word	uart1+560
 174 0038 08010000 		.word	pprz_tp+264
 175              		.cfi_endproc
 176              	.LFE491:
 177              		.size	pprz_dl_event, .-pprz_dl_event
 178              		.text
 179              	.Letext0:
 180              		.file 3 "/usr/lib/gcc/arm-none-eabi/10.3.1/include/stdint.h"
 181              		.file 4 "/home/argroos/paparazzi/var/include/pprzlink/pprzlink_device.h"
 182              		.file 5 "/home/argroos/paparazzi/var/include/pprzlink/pprzlink_message.h"
 183              		.file 6 "/home/argroos/paparazzi/var/include/pprzlink/pprzlink_transport.h"
 184              		.file 7 "/home/argroos/paparazzi/var/include/pprzlink/pprz_transport.h"
 185              		.file 8 "./mcu_periph/uart.h"
 186              		.file 9 "./modules/datalink/pprz_dl.h"