ARM GAS  /tmp/ccmOeWky.s 			page 1


   1              		.cpu cortex-m4
   2              		.eabi_attribute 27, 1
   3              		.eabi_attribute 20, 1
   4              		.eabi_attribute 21, 1
   5              		.eabi_attribute 23, 3
   6              		.eabi_attribute 24, 1
   7              		.eabi_attribute 25, 1
   8              		.eabi_attribute 26, 1
   9              		.eabi_attribute 30, 6
  10              		.eabi_attribute 34, 1
  11              		.eabi_attribute 18, 4
  12              		.file	"pprz_transport.c"
  13              		.text
  14              	.Ltext0:
  15              		.cfi_sections	.debug_frame
  16              		.section	.text.get_pprz_trans,"ax",%progbits
  17              		.align	1
  18              		.p2align 4,,15
  19              		.arch armv7e-m
  20              		.syntax unified
  21              		.thumb
  22              		.thumb_func
  23              		.fpu fpv4-sp-d16
  24              		.type	get_pprz_trans, %function
  25              	get_pprz_trans:
  26              	.LFB5:
  27              		.file 1 "/home/argroos/paparazzi/var/share/pprzlink/src/pprz_transport.c"
  28              		.loc 1 52 1
  29              		.cfi_startproc
  30              		@ args = 0, pretend = 0, frame = 8
  31              		@ frame_needed = 0, uses_anonymous_args = 0
  32              		@ link register save eliminated.
  33 0000 82B0     		sub	sp, sp, #8
  34              		.cfi_def_cfa_offset 8
  35 0002 0190     		str	r0, [sp, #4]
  36              		.loc 1 53 39
  37 0004 019B     		ldr	r3, [sp, #4]
  38 0006 5B68     		ldr	r3, [r3, #4]
  39              		.loc 1 53 10
  40 0008 1B6A     		ldr	r3, [r3, #32]
  41              		.loc 1 54 1
  42 000a 1846     		mov	r0, r3
  43 000c 02B0     		add	sp, sp, #8
  44              		.cfi_def_cfa_offset 0
  45              		@ sp needed
  46 000e 7047     		bx	lr
  47              		.cfi_endproc
  48              	.LFE5:
  49              		.size	get_pprz_trans, .-get_pprz_trans
  50              		.section	.text.accumulate_checksum,"ax",%progbits
  51              		.align	1
  52              		.p2align 4,,15
  53              		.syntax unified
  54              		.thumb
  55              		.thumb_func
  56              		.fpu fpv4-sp-d16
  57              		.type	accumulate_checksum, %function
ARM GAS  /tmp/ccmOeWky.s 			page 2


  58              	accumulate_checksum:
  59              	.LFB6:
  60              		.loc 1 57 1
  61              		.cfi_startproc
  62              		@ args = 0, pretend = 0, frame = 8
  63              		@ frame_needed = 0, uses_anonymous_args = 0
  64              		@ link register save eliminated.
  65 0000 82B0     		sub	sp, sp, #8
  66              		.cfi_def_cfa_offset 8
  67 0002 0190     		str	r0, [sp, #4]
  68 0004 0B46     		mov	r3, r1
  69 0006 8DF80330 		strb	r3, [sp, #3]
  70              		.loc 1 58 18
  71 000a 019B     		ldr	r3, [sp, #4]
  72 000c 93F82C21 		ldrb	r2, [r3, #300]	@ zero_extendqisi2
  73 0010 9DF80330 		ldrb	r3, [sp, #3]
  74 0014 1344     		add	r3, r3, r2
  75 0016 DAB2     		uxtb	r2, r3
  76 0018 019B     		ldr	r3, [sp, #4]
  77 001a 83F82C21 		strb	r2, [r3, #300]
  78              		.loc 1 59 18
  79 001e 019B     		ldr	r3, [sp, #4]
  80 0020 93F82D21 		ldrb	r2, [r3, #301]	@ zero_extendqisi2
  81              		.loc 1 59 26
  82 0024 019B     		ldr	r3, [sp, #4]
  83 0026 93F82C31 		ldrb	r3, [r3, #300]	@ zero_extendqisi2
  84              		.loc 1 59 18
  85 002a 1344     		add	r3, r3, r2
  86 002c DAB2     		uxtb	r2, r3
  87 002e 019B     		ldr	r3, [sp, #4]
  88 0030 83F82D21 		strb	r2, [r3, #301]
  89              		.loc 1 60 1
  90 0034 00BF     		nop
  91 0036 02B0     		add	sp, sp, #8
  92              		.cfi_def_cfa_offset 0
  93              		@ sp needed
  94 0038 7047     		bx	lr
  95              		.cfi_endproc
  96              	.LFE6:
  97              		.size	accumulate_checksum, .-accumulate_checksum
  98 003a 00BF     		.section	.text.put_bytes,"ax",%progbits
  99              		.align	1
 100              		.p2align 4,,15
 101              		.syntax unified
 102              		.thumb
 103              		.thumb_func
 104              		.fpu fpv4-sp-d16
 105              		.type	put_bytes, %function
 106              	put_bytes:
 107              	.LFB7:
 108              		.loc 1 65 1
 109              		.cfi_startproc
 110              		@ args = 8, pretend = 0, frame = 24
 111              		@ frame_needed = 0, uses_anonymous_args = 0
 112 0000 10B5     		push	{r4, lr}
 113              		.cfi_def_cfa_offset 8
 114              		.cfi_offset 4, -8
ARM GAS  /tmp/ccmOeWky.s 			page 3


 115              		.cfi_offset 14, -4
 116 0002 86B0     		sub	sp, sp, #24
 117              		.cfi_def_cfa_offset 32
 118 0004 0390     		str	r0, [sp, #12]
 119 0006 0291     		str	r1, [sp, #8]
 120 0008 1146     		mov	r1, r2
 121 000a 1A46     		mov	r2, r3
 122 000c 0B46     		mov	r3, r1
 123 000e 8DF80730 		strb	r3, [sp, #7]
 124 0012 1346     		mov	r3, r2
 125 0014 8DF80630 		strb	r3, [sp, #6]
 126              		.loc 1 66 18
 127 0018 089B     		ldr	r3, [sp, #32]
 128 001a 0493     		str	r3, [sp, #16]
 129              		.loc 1 68 10
 130 001c 0023     		movs	r3, #0
 131 001e 0593     		str	r3, [sp, #20]
 132              		.loc 1 68 3
 133 0020 0CE0     		b	.L5
 134              	.L6:
 135              		.loc 1 69 5 discriminator 3
 136 0022 0398     		ldr	r0, [sp, #12]
 137 0024 FFF7FEFF 		bl	get_pprz_trans
 138              		.loc 1 69 47 discriminator 3
 139 0028 059B     		ldr	r3, [sp, #20]
 140 002a 049A     		ldr	r2, [sp, #16]
 141 002c 1344     		add	r3, r3, r2
 142              		.loc 1 69 5 discriminator 3
 143 002e 1B78     		ldrb	r3, [r3]	@ zero_extendqisi2
 144 0030 1946     		mov	r1, r3
 145 0032 FFF7FEFF 		bl	accumulate_checksum
 146              		.loc 1 68 25 discriminator 3
 147 0036 059B     		ldr	r3, [sp, #20]
 148 0038 0133     		adds	r3, r3, #1
 149 003a 0593     		str	r3, [sp, #20]
 150              	.L5:
 151              		.loc 1 68 17 discriminator 1
 152 003c BDF82430 		ldrh	r3, [sp, #36]
 153              		.loc 1 68 3 discriminator 1
 154 0040 059A     		ldr	r2, [sp, #20]
 155 0042 9A42     		cmp	r2, r3
 156 0044 EDDB     		blt	.L6
 157              		.loc 1 71 6
 158 0046 039B     		ldr	r3, [sp, #12]
 159 0048 9B68     		ldr	r3, [r3, #8]
 160              		.loc 1 71 11
 161 004a 9C68     		ldr	r4, [r3, #8]
 162              		.loc 1 71 27
 163 004c 039B     		ldr	r3, [sp, #12]
 164 004e 9B68     		ldr	r3, [r3, #8]
 165              		.loc 1 71 3
 166 0050 D869     		ldr	r0, [r3, #28]
 167 0052 BDF82430 		ldrh	r3, [sp, #36]
 168 0056 049A     		ldr	r2, [sp, #16]
 169 0058 0299     		ldr	r1, [sp, #8]
 170 005a A047     		blx	r4
 171              	.LVL0:
ARM GAS  /tmp/ccmOeWky.s 			page 4


 172              		.loc 1 72 1
 173 005c 00BF     		nop
 174 005e 06B0     		add	sp, sp, #24
 175              		.cfi_def_cfa_offset 8
 176              		@ sp needed
 177 0060 10BD     		pop	{r4, pc}
 178              		.cfi_endproc
 179              	.LFE7:
 180              		.size	put_bytes, .-put_bytes
 181 0062 00BF     		.section	.text.put_named_byte,"ax",%progbits
 182              		.align	1
 183              		.p2align 4,,15
 184              		.syntax unified
 185              		.thumb
 186              		.thumb_func
 187              		.fpu fpv4-sp-d16
 188              		.type	put_named_byte, %function
 189              	put_named_byte:
 190              	.LFB8:
 191              		.loc 1 77 1
 192              		.cfi_startproc
 193              		@ args = 8, pretend = 0, frame = 16
 194              		@ frame_needed = 0, uses_anonymous_args = 0
 195 0000 00B5     		push	{lr}
 196              		.cfi_def_cfa_offset 4
 197              		.cfi_offset 14, -4
 198 0002 85B0     		sub	sp, sp, #20
 199              		.cfi_def_cfa_offset 24
 200 0004 0390     		str	r0, [sp, #12]
 201 0006 0291     		str	r1, [sp, #8]
 202 0008 1146     		mov	r1, r2
 203 000a 1A46     		mov	r2, r3
 204 000c 0B46     		mov	r3, r1
 205 000e 8DF80730 		strb	r3, [sp, #7]
 206 0012 1346     		mov	r3, r2
 207 0014 8DF80630 		strb	r3, [sp, #6]
 208              		.loc 1 78 3
 209 0018 0398     		ldr	r0, [sp, #12]
 210 001a FFF7FEFF 		bl	get_pprz_trans
 211 001e 0246     		mov	r2, r0
 212 0020 9DF81830 		ldrb	r3, [sp, #24]	@ zero_extendqisi2
 213 0024 1946     		mov	r1, r3
 214 0026 1046     		mov	r0, r2
 215 0028 FFF7FEFF 		bl	accumulate_checksum
 216              		.loc 1 79 6
 217 002c 039B     		ldr	r3, [sp, #12]
 218 002e 9B68     		ldr	r3, [r3, #8]
 219              		.loc 1 79 11
 220 0030 5B68     		ldr	r3, [r3, #4]
 221              		.loc 1 79 25
 222 0032 039A     		ldr	r2, [sp, #12]
 223 0034 9268     		ldr	r2, [r2, #8]
 224              		.loc 1 79 3
 225 0036 D069     		ldr	r0, [r2, #28]
 226 0038 9DF81820 		ldrb	r2, [sp, #24]	@ zero_extendqisi2
 227 003c 0299     		ldr	r1, [sp, #8]
 228 003e 9847     		blx	r3
ARM GAS  /tmp/ccmOeWky.s 			page 5


 229              	.LVL1:
 230              		.loc 1 80 1
 231 0040 00BF     		nop
 232 0042 05B0     		add	sp, sp, #20
 233              		.cfi_def_cfa_offset 4
 234              		@ sp needed
 235 0044 5DF804FB 		ldr	pc, [sp], #4
 236              		.cfi_endproc
 237              	.LFE8:
 238              		.size	put_named_byte, .-put_named_byte
 239              		.section	.text.size_of,"ax",%progbits
 240              		.align	1
 241              		.p2align 4,,15
 242              		.syntax unified
 243              		.thumb
 244              		.thumb_func
 245              		.fpu fpv4-sp-d16
 246              		.type	size_of, %function
 247              	size_of:
 248              	.LFB9:
 249              		.loc 1 83 1
 250              		.cfi_startproc
 251              		@ args = 0, pretend = 0, frame = 8
 252              		@ frame_needed = 0, uses_anonymous_args = 0
 253              		@ link register save eliminated.
 254 0000 82B0     		sub	sp, sp, #8
 255              		.cfi_def_cfa_offset 8
 256 0002 0190     		str	r0, [sp, #4]
 257 0004 0B46     		mov	r3, r1
 258 0006 8DF80330 		strb	r3, [sp, #3]
 259              		.loc 1 85 14
 260 000a 9DF80330 		ldrb	r3, [sp, #3]
 261 000e 0433     		adds	r3, r3, #4
 262 0010 DBB2     		uxtb	r3, r3
 263              		.loc 1 86 1
 264 0012 1846     		mov	r0, r3
 265 0014 02B0     		add	sp, sp, #8
 266              		.cfi_def_cfa_offset 0
 267              		@ sp needed
 268 0016 7047     		bx	lr
 269              		.cfi_endproc
 270              	.LFE9:
 271              		.size	size_of, .-size_of
 272              		.section	.text.start_message,"ax",%progbits
 273              		.align	1
 274              		.p2align 4,,15
 275              		.syntax unified
 276              		.thumb
 277              		.thumb_func
 278              		.fpu fpv4-sp-d16
 279              		.type	start_message, %function
 280              	start_message:
 281              	.LFB10:
 282              		.loc 1 89 1
 283              		.cfi_startproc
 284              		@ args = 0, pretend = 0, frame = 24
 285              		@ frame_needed = 0, uses_anonymous_args = 0
ARM GAS  /tmp/ccmOeWky.s 			page 6


 286 0000 00B5     		push	{lr}
 287              		.cfi_def_cfa_offset 4
 288              		.cfi_offset 14, -4
 289 0002 87B0     		sub	sp, sp, #28
 290              		.cfi_def_cfa_offset 32
 291 0004 0390     		str	r0, [sp, #12]
 292 0006 0291     		str	r1, [sp, #8]
 293 0008 1346     		mov	r3, r2
 294 000a 8DF80730 		strb	r3, [sp, #7]
 295              		.loc 1 90 6
 296 000e 039B     		ldr	r3, [sp, #12]
 297 0010 9B68     		ldr	r3, [r3, #8]
 298              		.loc 1 90 11
 299 0012 5B68     		ldr	r3, [r3, #4]
 300              		.loc 1 90 25
 301 0014 039A     		ldr	r2, [sp, #12]
 302 0016 9268     		ldr	r2, [r2, #8]
 303              		.loc 1 90 3
 304 0018 D069     		ldr	r0, [r2, #28]
 305 001a 9922     		movs	r2, #153
 306 001c 0299     		ldr	r1, [sp, #8]
 307 001e 9847     		blx	r3
 308              	.LVL2:
 309              		.loc 1 91 27
 310 0020 9DF80730 		ldrb	r3, [sp, #7]	@ zero_extendqisi2
 311 0024 1946     		mov	r1, r3
 312 0026 0398     		ldr	r0, [sp, #12]
 313 0028 FFF7FEFF 		bl	size_of
 314 002c 0346     		mov	r3, r0
 315 002e 8DF81730 		strb	r3, [sp, #23]
 316              		.loc 1 92 6
 317 0032 039B     		ldr	r3, [sp, #12]
 318 0034 9B68     		ldr	r3, [r3, #8]
 319              		.loc 1 92 11
 320 0036 5B68     		ldr	r3, [r3, #4]
 321              		.loc 1 92 25
 322 0038 039A     		ldr	r2, [sp, #12]
 323 003a 9268     		ldr	r2, [r2, #8]
 324              		.loc 1 92 3
 325 003c D069     		ldr	r0, [r2, #28]
 326 003e 9DF81720 		ldrb	r2, [sp, #23]	@ zero_extendqisi2
 327 0042 0299     		ldr	r1, [sp, #8]
 328 0044 9847     		blx	r3
 329              	.LVL3:
 330              		.loc 1 93 3
 331 0046 0398     		ldr	r0, [sp, #12]
 332 0048 FFF7FEFF 		bl	get_pprz_trans
 333 004c 0246     		mov	r2, r0
 334              		.loc 1 93 32
 335 004e 9DF81730 		ldrb	r3, [sp, #23]
 336 0052 82F82C31 		strb	r3, [r2, #300]
 337              		.loc 1 94 3
 338 0056 0398     		ldr	r0, [sp, #12]
 339 0058 FFF7FEFF 		bl	get_pprz_trans
 340 005c 0246     		mov	r2, r0
 341              		.loc 1 94 32
 342 005e 9DF81730 		ldrb	r3, [sp, #23]
ARM GAS  /tmp/ccmOeWky.s 			page 7


 343 0062 82F82D31 		strb	r3, [r2, #301]
 344              		.loc 1 95 1
 345 0066 00BF     		nop
 346 0068 07B0     		add	sp, sp, #28
 347              		.cfi_def_cfa_offset 4
 348              		@ sp needed
 349 006a 5DF804FB 		ldr	pc, [sp], #4
 350              		.cfi_endproc
 351              	.LFE10:
 352              		.size	start_message, .-start_message
 353 006e 00BF     		.section	.text.end_message,"ax",%progbits
 354              		.align	1
 355              		.p2align 4,,15
 356              		.syntax unified
 357              		.thumb
 358              		.thumb_func
 359              		.fpu fpv4-sp-d16
 360              		.type	end_message, %function
 361              	end_message:
 362              	.LFB11:
 363              		.loc 1 98 1
 364              		.cfi_startproc
 365              		@ args = 0, pretend = 0, frame = 8
 366              		@ frame_needed = 0, uses_anonymous_args = 0
 367 0000 30B5     		push	{r4, r5, lr}
 368              		.cfi_def_cfa_offset 12
 369              		.cfi_offset 4, -12
 370              		.cfi_offset 5, -8
 371              		.cfi_offset 14, -4
 372 0002 83B0     		sub	sp, sp, #12
 373              		.cfi_def_cfa_offset 24
 374 0004 0190     		str	r0, [sp, #4]
 375 0006 0091     		str	r1, [sp]
 376              		.loc 1 99 6
 377 0008 019B     		ldr	r3, [sp, #4]
 378 000a 9B68     		ldr	r3, [r3, #8]
 379              		.loc 1 99 11
 380 000c 5C68     		ldr	r4, [r3, #4]
 381              		.loc 1 99 25
 382 000e 019B     		ldr	r3, [sp, #4]
 383 0010 9B68     		ldr	r3, [r3, #8]
 384              		.loc 1 99 3
 385 0012 DD69     		ldr	r5, [r3, #28]
 386              		.loc 1 99 44
 387 0014 0198     		ldr	r0, [sp, #4]
 388 0016 FFF7FEFF 		bl	get_pprz_trans
 389 001a 0346     		mov	r3, r0
 390              		.loc 1 99 3
 391 001c 93F82C31 		ldrb	r3, [r3, #300]	@ zero_extendqisi2
 392 0020 1A46     		mov	r2, r3
 393 0022 0099     		ldr	r1, [sp]
 394 0024 2846     		mov	r0, r5
 395 0026 A047     		blx	r4
 396              	.LVL4:
 397              		.loc 1 100 6
 398 0028 019B     		ldr	r3, [sp, #4]
 399 002a 9B68     		ldr	r3, [r3, #8]
ARM GAS  /tmp/ccmOeWky.s 			page 8


 400              		.loc 1 100 11
 401 002c 5C68     		ldr	r4, [r3, #4]
 402              		.loc 1 100 25
 403 002e 019B     		ldr	r3, [sp, #4]
 404 0030 9B68     		ldr	r3, [r3, #8]
 405              		.loc 1 100 3
 406 0032 DD69     		ldr	r5, [r3, #28]
 407              		.loc 1 100 44
 408 0034 0198     		ldr	r0, [sp, #4]
 409 0036 FFF7FEFF 		bl	get_pprz_trans
 410 003a 0346     		mov	r3, r0
 411              		.loc 1 100 3
 412 003c 93F82D31 		ldrb	r3, [r3, #301]	@ zero_extendqisi2
 413 0040 1A46     		mov	r2, r3
 414 0042 0099     		ldr	r1, [sp]
 415 0044 2846     		mov	r0, r5
 416 0046 A047     		blx	r4
 417              	.LVL5:
 418              		.loc 1 101 6
 419 0048 019B     		ldr	r3, [sp, #4]
 420 004a 9B68     		ldr	r3, [r3, #8]
 421              		.loc 1 101 11
 422 004c DB68     		ldr	r3, [r3, #12]
 423              		.loc 1 101 29
 424 004e 019A     		ldr	r2, [sp, #4]
 425 0050 9268     		ldr	r2, [r2, #8]
 426              		.loc 1 101 3
 427 0052 D269     		ldr	r2, [r2, #28]
 428 0054 0099     		ldr	r1, [sp]
 429 0056 1046     		mov	r0, r2
 430 0058 9847     		blx	r3
 431              	.LVL6:
 432              		.loc 1 102 1
 433 005a 00BF     		nop
 434 005c 03B0     		add	sp, sp, #12
 435              		.cfi_def_cfa_offset 12
 436              		@ sp needed
 437 005e 30BD     		pop	{r4, r5, pc}
 438              		.cfi_endproc
 439              	.LFE11:
 440              		.size	end_message, .-end_message
 441              		.section	.text.overrun,"ax",%progbits
 442              		.align	1
 443              		.p2align 4,,15
 444              		.syntax unified
 445              		.thumb
 446              		.thumb_func
 447              		.fpu fpv4-sp-d16
 448              		.type	overrun, %function
 449              	overrun:
 450              	.LFB12:
 451              		.loc 1 105 1
 452              		.cfi_startproc
 453              		@ args = 0, pretend = 0, frame = 8
 454              		@ frame_needed = 0, uses_anonymous_args = 0
 455              		@ link register save eliminated.
 456 0000 82B0     		sub	sp, sp, #8
ARM GAS  /tmp/ccmOeWky.s 			page 9


 457              		.cfi_def_cfa_offset 8
 458 0002 0190     		str	r0, [sp, #4]
 459              		.loc 1 106 6
 460 0004 019B     		ldr	r3, [sp, #4]
 461 0006 9B68     		ldr	r3, [r3, #8]
 462              		.loc 1 106 11
 463 0008 93F82220 		ldrb	r2, [r3, #34]	@ zero_extendqisi2
 464              		.loc 1 106 20
 465 000c 0132     		adds	r2, r2, #1
 466 000e D2B2     		uxtb	r2, r2
 467 0010 83F82220 		strb	r2, [r3, #34]
 468              		.loc 1 107 1
 469 0014 00BF     		nop
 470 0016 02B0     		add	sp, sp, #8
 471              		.cfi_def_cfa_offset 0
 472              		@ sp needed
 473 0018 7047     		bx	lr
 474              		.cfi_endproc
 475              	.LFE12:
 476              		.size	overrun, .-overrun
 477 001a 00BF     		.section	.text.count_bytes,"ax",%progbits
 478              		.align	1
 479              		.p2align 4,,15
 480              		.syntax unified
 481              		.thumb
 482              		.thumb_func
 483              		.fpu fpv4-sp-d16
 484              		.type	count_bytes, %function
 485              	count_bytes:
 486              	.LFB13:
 487              		.loc 1 110 1
 488              		.cfi_startproc
 489              		@ args = 0, pretend = 0, frame = 8
 490              		@ frame_needed = 0, uses_anonymous_args = 0
 491              		@ link register save eliminated.
 492 0000 82B0     		sub	sp, sp, #8
 493              		.cfi_def_cfa_offset 8
 494 0002 0190     		str	r0, [sp, #4]
 495 0004 0B46     		mov	r3, r1
 496 0006 8DF80330 		strb	r3, [sp, #3]
 497              		.loc 1 111 6
 498 000a 019B     		ldr	r3, [sp, #4]
 499 000c 9B68     		ldr	r3, [r3, #8]
 500              		.loc 1 111 22
 501 000e 596A     		ldr	r1, [r3, #36]
 502 0010 9DF80320 		ldrb	r2, [sp, #3]	@ zero_extendqisi2
 503              		.loc 1 111 6
 504 0014 019B     		ldr	r3, [sp, #4]
 505 0016 9B68     		ldr	r3, [r3, #8]
 506              		.loc 1 111 22
 507 0018 0A44     		add	r2, r2, r1
 508 001a 5A62     		str	r2, [r3, #36]
 509              		.loc 1 112 1
 510 001c 00BF     		nop
 511 001e 02B0     		add	sp, sp, #8
 512              		.cfi_def_cfa_offset 0
 513              		@ sp needed
ARM GAS  /tmp/ccmOeWky.s 			page 10


 514 0020 7047     		bx	lr
 515              		.cfi_endproc
 516              	.LFE13:
 517              		.size	count_bytes, .-count_bytes
 518 0022 00BF     		.section	.text.check_available_space,"ax",%progbits
 519              		.align	1
 520              		.p2align 4,,15
 521              		.syntax unified
 522              		.thumb
 523              		.thumb_func
 524              		.fpu fpv4-sp-d16
 525              		.type	check_available_space, %function
 526              	check_available_space:
 527              	.LFB14:
 528              		.loc 1 115 1
 529              		.cfi_startproc
 530              		@ args = 0, pretend = 0, frame = 16
 531              		@ frame_needed = 0, uses_anonymous_args = 0
 532 0000 00B5     		push	{lr}
 533              		.cfi_def_cfa_offset 4
 534              		.cfi_offset 14, -4
 535 0002 85B0     		sub	sp, sp, #20
 536              		.cfi_def_cfa_offset 24
 537 0004 0390     		str	r0, [sp, #12]
 538 0006 0291     		str	r1, [sp, #8]
 539 0008 1346     		mov	r3, r2
 540 000a ADF80630 		strh	r3, [sp, #6]	@ movhi
 541              		.loc 1 116 13
 542 000e 039B     		ldr	r3, [sp, #12]
 543 0010 9B68     		ldr	r3, [r3, #8]
 544              		.loc 1 116 18
 545 0012 1B68     		ldr	r3, [r3]
 546              		.loc 1 116 40
 547 0014 039A     		ldr	r2, [sp, #12]
 548 0016 9268     		ldr	r2, [r2, #8]
 549              		.loc 1 116 10
 550 0018 D069     		ldr	r0, [r2, #28]
 551 001a BDF80620 		ldrh	r2, [sp, #6]
 552 001e 0299     		ldr	r1, [sp, #8]
 553 0020 9847     		blx	r3
 554              	.LVL7:
 555 0022 0346     		mov	r3, r0
 556              		.loc 1 117 1
 557 0024 1846     		mov	r0, r3
 558 0026 05B0     		add	sp, sp, #20
 559              		.cfi_def_cfa_offset 4
 560              		@ sp needed
 561 0028 5DF804FB 		ldr	pc, [sp], #4
 562              		.cfi_endproc
 563              	.LFE14:
 564              		.size	check_available_space, .-check_available_space
 565              		.section	.text.pprz_transport_init,"ax",%progbits
 566              		.align	1
 567              		.p2align 4,,15
 568              		.global	pprz_transport_init
 569              		.syntax unified
 570              		.thumb
ARM GAS  /tmp/ccmOeWky.s 			page 11


 571              		.thumb_func
 572              		.fpu fpv4-sp-d16
 573              		.type	pprz_transport_init, %function
 574              	pprz_transport_init:
 575              	.LFB15:
 576              		.loc 1 121 1
 577              		.cfi_startproc
 578              		@ args = 0, pretend = 0, frame = 8
 579              		@ frame_needed = 0, uses_anonymous_args = 0
 580              		@ link register save eliminated.
 581 0000 82B0     		sub	sp, sp, #8
 582              		.cfi_def_cfa_offset 8
 583 0002 0190     		str	r0, [sp, #4]
 584              		.loc 1 122 13
 585 0004 019B     		ldr	r3, [sp, #4]
 586 0006 0022     		movs	r2, #0
 587 0008 83F80421 		strb	r2, [r3, #260]
 588              		.loc 1 123 28
 589 000c 019B     		ldr	r3, [sp, #4]
 590 000e 0022     		movs	r2, #0
 591 0010 83F80121 		strb	r2, [r3, #257]
 592              		.loc 1 124 23
 593 0014 019B     		ldr	r3, [sp, #4]
 594 0016 134A     		ldr	r2, .L17
 595 0018 C3F80821 		str	r2, [r3, #264]
 596              		.loc 1 125 37
 597 001c 019B     		ldr	r3, [sp, #4]
 598 001e 124A     		ldr	r2, .L17+4
 599 0020 C3F80C21 		str	r2, [r3, #268]
 600              		.loc 1 126 25
 601 0024 019B     		ldr	r3, [sp, #4]
 602 0026 114A     		ldr	r2, .L17+8
 603 0028 C3F81021 		str	r2, [r3, #272]
 604              		.loc 1 127 30
 605 002c 019B     		ldr	r3, [sp, #4]
 606 002e 104A     		ldr	r2, .L17+12
 607 0030 C3F81421 		str	r2, [r3, #276]
 608              		.loc 1 128 29
 609 0034 019B     		ldr	r3, [sp, #4]
 610 0036 0F4A     		ldr	r2, .L17+16
 611 0038 C3F81821 		str	r2, [r3, #280]
 612              		.loc 1 129 27
 613 003c 019B     		ldr	r3, [sp, #4]
 614 003e 0E4A     		ldr	r2, .L17+20
 615 0040 C3F81C21 		str	r2, [r3, #284]
 616              		.loc 1 130 23
 617 0044 019B     		ldr	r3, [sp, #4]
 618 0046 0D4A     		ldr	r2, .L17+24
 619 0048 C3F82021 		str	r2, [r3, #288]
 620              		.loc 1 131 27
 621 004c 019B     		ldr	r3, [sp, #4]
 622 004e 0C4A     		ldr	r2, .L17+28
 623 0050 C3F82421 		str	r2, [r3, #292]
 624              		.loc 1 132 20
 625 0054 019B     		ldr	r3, [sp, #4]
 626 0056 019A     		ldr	r2, [sp, #4]
 627 0058 C3F82821 		str	r2, [r3, #296]
ARM GAS  /tmp/ccmOeWky.s 			page 12


 628              		.loc 1 133 1
 629 005c 00BF     		nop
 630 005e 02B0     		add	sp, sp, #8
 631              		.cfi_def_cfa_offset 0
 632              		@ sp needed
 633 0060 7047     		bx	lr
 634              	.L18:
 635 0062 00BF     		.align	2
 636              	.L17:
 637 0064 00000000 		.word	size_of
 638 0068 00000000 		.word	check_available_space
 639 006c 00000000 		.word	put_bytes
 640 0070 00000000 		.word	put_named_byte
 641 0074 00000000 		.word	start_message
 642 0078 00000000 		.word	end_message
 643 007c 00000000 		.word	overrun
 644 0080 00000000 		.word	count_bytes
 645              		.cfi_endproc
 646              	.LFE15:
 647              		.size	pprz_transport_init, .-pprz_transport_init
 648              		.section	.text.parse_pprz,"ax",%progbits
 649              		.align	1
 650              		.p2align 4,,15
 651              		.global	parse_pprz
 652              		.syntax unified
 653              		.thumb
 654              		.thumb_func
 655              		.fpu fpv4-sp-d16
 656              		.type	parse_pprz, %function
 657              	parse_pprz:
 658              	.LFB16:
 659              		.loc 1 138 1
 660              		.cfi_startproc
 661              		@ args = 0, pretend = 0, frame = 8
 662              		@ frame_needed = 0, uses_anonymous_args = 0
 663              		@ link register save eliminated.
 664 0000 82B0     		sub	sp, sp, #8
 665              		.cfi_def_cfa_offset 8
 666 0002 0190     		str	r0, [sp, #4]
 667 0004 0B46     		mov	r3, r1
 668 0006 8DF80330 		strb	r3, [sp, #3]
 669              		.loc 1 139 12
 670 000a 019B     		ldr	r3, [sp, #4]
 671 000c 93F80431 		ldrb	r3, [r3, #260]	@ zero_extendqisi2
 672              		.loc 1 139 3
 673 0010 042B     		cmp	r3, #4
 674 0012 00F2A080 		bhi	.L36
 675 0016 01A2     		adr	r2, .L22
 676 0018 52F823F0 		ldr	pc, [r2, r3, lsl #2]
 677              		.p2align 2
 678              	.L22:
 679 001c 31000000 		.word	.L26+1
 680 0020 4D000000 		.word	.L25+1
 681 0024 A9000000 		.word	.L24+1
 682 0028 17010000 		.word	.L23+1
 683 002c 37010000 		.word	.L21+1
 684              		.p2align 1
ARM GAS  /tmp/ccmOeWky.s 			page 13


 685              	.L26:
 686              		.loc 1 141 10
 687 0030 9DF80330 		ldrb	r3, [sp, #3]	@ zero_extendqisi2
 688 0034 992B     		cmp	r3, #153
 689 0036 40F08A80 		bne	.L37
 690              		.loc 1 142 10
 691 003a 019B     		ldr	r3, [sp, #4]
 692 003c 93F80431 		ldrb	r3, [r3, #260]	@ zero_extendqisi2
 693              		.loc 1 142 18
 694 0040 0133     		adds	r3, r3, #1
 695 0042 DAB2     		uxtb	r2, r3
 696 0044 019B     		ldr	r3, [sp, #4]
 697 0046 83F80421 		strb	r2, [r3, #260]
 698              		.loc 1 144 7
 699 004a 80E0     		b	.L37
 700              	.L25:
 701              		.loc 1 146 22
 702 004c 019B     		ldr	r3, [sp, #4]
 703 004e 93F80131 		ldrb	r3, [r3, #257]
 704 0052 DBB2     		uxtb	r3, r3
 705              		.loc 1 146 10
 706 0054 002B     		cmp	r3, #0
 707 0056 08D0     		beq	.L29
 708              		.loc 1 147 20
 709 0058 019B     		ldr	r3, [sp, #4]
 710 005a 93F80231 		ldrb	r3, [r3, #258]	@ zero_extendqisi2
 711              		.loc 1 147 25
 712 005e 0133     		adds	r3, r3, #1
 713 0060 DAB2     		uxtb	r2, r3
 714 0062 019B     		ldr	r3, [sp, #4]
 715 0064 83F80221 		strb	r2, [r3, #258]
 716              		.loc 1 148 9
 717 0068 7AE0     		b	.L30
 718              	.L29:
 719              		.loc 1 150 35
 720 006a 9DF80330 		ldrb	r3, [sp, #3]
 721 006e 043B     		subs	r3, r3, #4
 722 0070 DAB2     		uxtb	r2, r3
 723              		.loc 1 150 31
 724 0072 019B     		ldr	r3, [sp, #4]
 725 0074 83F80021 		strb	r2, [r3, #256]
 726              		.loc 1 151 31
 727 0078 019B     		ldr	r3, [sp, #4]
 728 007a 9DF80320 		ldrb	r2, [sp, #3]
 729 007e 83F80721 		strb	r2, [r3, #263]
 730              		.loc 1 151 21
 731 0082 019B     		ldr	r3, [sp, #4]
 732 0084 93F80721 		ldrb	r2, [r3, #263]	@ zero_extendqisi2
 733              		.loc 1 151 18
 734 0088 019B     		ldr	r3, [sp, #4]
 735 008a 83F80621 		strb	r2, [r3, #262]
 736              		.loc 1 152 8
 737 008e 019B     		ldr	r3, [sp, #4]
 738 0090 93F80431 		ldrb	r3, [r3, #260]	@ zero_extendqisi2
 739              		.loc 1 152 16
 740 0094 0133     		adds	r3, r3, #1
 741 0096 DAB2     		uxtb	r2, r3
ARM GAS  /tmp/ccmOeWky.s 			page 14


 742 0098 019B     		ldr	r3, [sp, #4]
 743 009a 83F80421 		strb	r2, [r3, #260]
 744              		.loc 1 153 22
 745 009e 019B     		ldr	r3, [sp, #4]
 746 00a0 0022     		movs	r2, #0
 747 00a2 83F80521 		strb	r2, [r3, #261]
 748              		.loc 1 154 7
 749 00a6 55E0     		b	.L28
 750              	.L24:
 751              		.loc 1 156 28
 752 00a8 019B     		ldr	r3, [sp, #4]
 753 00aa 93F80531 		ldrb	r3, [r3, #261]	@ zero_extendqisi2
 754 00ae 1946     		mov	r1, r3
 755              		.loc 1 156 43
 756 00b0 019B     		ldr	r3, [sp, #4]
 757 00b2 9DF80320 		ldrb	r2, [sp, #3]
 758 00b6 5A54     		strb	r2, [r3, r1]
 759              		.loc 1 157 18
 760 00b8 019B     		ldr	r3, [sp, #4]
 761 00ba 93F80621 		ldrb	r2, [r3, #262]	@ zero_extendqisi2
 762 00be 9DF80330 		ldrb	r3, [sp, #3]
 763 00c2 1344     		add	r3, r3, r2
 764 00c4 DAB2     		uxtb	r2, r3
 765 00c6 019B     		ldr	r3, [sp, #4]
 766 00c8 83F80621 		strb	r2, [r3, #262]
 767              		.loc 1 157 35
 768 00cc 019B     		ldr	r3, [sp, #4]
 769 00ce 93F80721 		ldrb	r2, [r3, #263]	@ zero_extendqisi2
 770              		.loc 1 157 39
 771 00d2 019B     		ldr	r3, [sp, #4]
 772 00d4 93F80631 		ldrb	r3, [r3, #262]	@ zero_extendqisi2
 773              		.loc 1 157 35
 774 00d8 1344     		add	r3, r3, r2
 775 00da DAB2     		uxtb	r2, r3
 776 00dc 019B     		ldr	r3, [sp, #4]
 777 00de 83F80721 		strb	r2, [r3, #263]
 778              		.loc 1 158 8
 779 00e2 019B     		ldr	r3, [sp, #4]
 780 00e4 93F80531 		ldrb	r3, [r3, #261]	@ zero_extendqisi2
 781              		.loc 1 158 21
 782 00e8 0133     		adds	r3, r3, #1
 783 00ea DAB2     		uxtb	r2, r3
 784 00ec 019B     		ldr	r3, [sp, #4]
 785 00ee 83F80521 		strb	r2, [r3, #261]
 786              		.loc 1 159 12
 787 00f2 019B     		ldr	r3, [sp, #4]
 788 00f4 93F80521 		ldrb	r2, [r3, #261]	@ zero_extendqisi2
 789              		.loc 1 159 40
 790 00f8 019B     		ldr	r3, [sp, #4]
 791 00fa 93F80031 		ldrb	r3, [r3, #256]
 792 00fe DBB2     		uxtb	r3, r3
 793              		.loc 1 159 10
 794 0100 9A42     		cmp	r2, r3
 795 0102 26D1     		bne	.L38
 796              		.loc 1 160 10
 797 0104 019B     		ldr	r3, [sp, #4]
 798 0106 93F80431 		ldrb	r3, [r3, #260]	@ zero_extendqisi2
ARM GAS  /tmp/ccmOeWky.s 			page 15


 799              		.loc 1 160 18
 800 010a 0133     		adds	r3, r3, #1
 801 010c DAB2     		uxtb	r2, r3
 802 010e 019B     		ldr	r3, [sp, #4]
 803 0110 83F80421 		strb	r2, [r3, #260]
 804              		.loc 1 162 7
 805 0114 1DE0     		b	.L38
 806              	.L23:
 807              		.loc 1 164 17
 808 0116 019B     		ldr	r3, [sp, #4]
 809 0118 93F80631 		ldrb	r3, [r3, #262]	@ zero_extendqisi2
 810              		.loc 1 164 10
 811 011c 9DF80320 		ldrb	r2, [sp, #3]	@ zero_extendqisi2
 812 0120 9A42     		cmp	r2, r3
 813 0122 1AD1     		bne	.L39
 814              		.loc 1 167 8
 815 0124 019B     		ldr	r3, [sp, #4]
 816 0126 93F80431 		ldrb	r3, [r3, #260]	@ zero_extendqisi2
 817              		.loc 1 167 16
 818 012a 0133     		adds	r3, r3, #1
 819 012c DAB2     		uxtb	r2, r3
 820 012e 019B     		ldr	r3, [sp, #4]
 821 0130 83F80421 		strb	r2, [r3, #260]
 822              		.loc 1 168 7
 823 0134 0EE0     		b	.L28
 824              	.L21:
 825              		.loc 1 170 17
 826 0136 019B     		ldr	r3, [sp, #4]
 827 0138 93F80731 		ldrb	r3, [r3, #263]	@ zero_extendqisi2
 828              		.loc 1 170 10
 829 013c 9DF80320 		ldrb	r2, [sp, #3]	@ zero_extendqisi2
 830 0140 9A42     		cmp	r2, r3
 831 0142 0CD1     		bne	.L40
 832              		.loc 1 173 32
 833 0144 019B     		ldr	r3, [sp, #4]
 834 0146 0122     		movs	r2, #1
 835 0148 83F80121 		strb	r2, [r3, #257]
 836              		.loc 1 174 7
 837 014c 10E0     		b	.L34
 838              	.L37:
 839              		.loc 1 144 7
 840 014e 00BF     		nop
 841 0150 13E0     		b	.L19
 842              	.L38:
 843              		.loc 1 162 7
 844 0152 00BF     		nop
 845              	.L28:
 846              		.loc 1 178 3
 847 0154 11E0     		b	.L19
 848              	.L36:
 849              		.loc 1 176 7
 850 0156 00BF     		nop
 851 0158 02E0     		b	.L30
 852              	.L39:
 853              		.loc 1 165 9
 854 015a 00BF     		nop
 855 015c 00E0     		b	.L30
ARM GAS  /tmp/ccmOeWky.s 			page 16


 856              	.L40:
 857              		.loc 1 171 9
 858 015e 00BF     		nop
 859              	.L30:
 860              		.loc 1 180 14
 861 0160 019B     		ldr	r3, [sp, #4]
 862 0162 93F80331 		ldrb	r3, [r3, #259]	@ zero_extendqisi2
 863              		.loc 1 180 20
 864 0166 0133     		adds	r3, r3, #1
 865 0168 DAB2     		uxtb	r2, r3
 866 016a 019B     		ldr	r3, [sp, #4]
 867 016c 83F80321 		strb	r2, [r3, #259]
 868              	.L34:
 869              		.loc 1 182 13
 870 0170 019B     		ldr	r3, [sp, #4]
 871 0172 0022     		movs	r2, #0
 872 0174 83F80421 		strb	r2, [r3, #260]
 873              		.loc 1 183 3
 874 0178 00BF     		nop
 875              	.L19:
 876              		.loc 1 184 1
 877 017a 02B0     		add	sp, sp, #8
 878              		.cfi_def_cfa_offset 0
 879              		@ sp needed
 880 017c 7047     		bx	lr
 881              		.cfi_endproc
 882              	.LFE16:
 883              		.size	parse_pprz, .-parse_pprz
 884 017e 00BF     		.section	.text.pprz_check_and_parse,"ax",%progbits
 885              		.align	1
 886              		.p2align 4,,15
 887              		.global	pprz_check_and_parse
 888              		.syntax unified
 889              		.thumb
 890              		.thumb_func
 891              		.fpu fpv4-sp-d16
 892              		.type	pprz_check_and_parse, %function
 893              	pprz_check_and_parse:
 894              	.LFB17:
 895              		.loc 1 189 1
 896              		.cfi_startproc
 897              		@ args = 0, pretend = 0, frame = 24
 898              		@ frame_needed = 0, uses_anonymous_args = 0
 899 0000 00B5     		push	{lr}
 900              		.cfi_def_cfa_offset 4
 901              		.cfi_offset 14, -4
 902 0002 87B0     		sub	sp, sp, #28
 903              		.cfi_def_cfa_offset 32
 904 0004 0390     		str	r0, [sp, #12]
 905 0006 0291     		str	r1, [sp, #8]
 906 0008 0192     		str	r2, [sp, #4]
 907 000a 0093     		str	r3, [sp]
 908              		.loc 1 191 10
 909 000c 039B     		ldr	r3, [sp, #12]
 910 000e 1B69     		ldr	r3, [r3, #16]
 911              		.loc 1 191 7
 912 0010 039A     		ldr	r2, [sp, #12]
ARM GAS  /tmp/ccmOeWky.s 			page 17


 913 0012 D269     		ldr	r2, [r2, #28]
 914 0014 1046     		mov	r0, r2
 915 0016 9847     		blx	r3
 916              	.LVL8:
 917 0018 0346     		mov	r3, r0
 918              		.loc 1 191 6
 919 001a 002B     		cmp	r3, #0
 920 001c 44D0     		beq	.L48
 921              		.loc 1 192 11
 922 001e 0AE0     		b	.L43
 923              	.L45:
 924              		.loc 1 193 28
 925 0020 039B     		ldr	r3, [sp, #12]
 926 0022 5B69     		ldr	r3, [r3, #20]
 927              		.loc 1 193 7
 928 0024 039A     		ldr	r2, [sp, #12]
 929 0026 D269     		ldr	r2, [r2, #28]
 930 0028 1046     		mov	r0, r2
 931 002a 9847     		blx	r3
 932              	.LVL9:
 933 002c 0346     		mov	r3, r0
 934 002e 1946     		mov	r1, r3
 935 0030 0298     		ldr	r0, [sp, #8]
 936 0032 FFF7FEFF 		bl	parse_pprz
 937              	.L43:
 938              		.loc 1 192 15
 939 0036 039B     		ldr	r3, [sp, #12]
 940 0038 1B69     		ldr	r3, [r3, #16]
 941              		.loc 1 192 12
 942 003a 039A     		ldr	r2, [sp, #12]
 943 003c D269     		ldr	r2, [r2, #28]
 944 003e 1046     		mov	r0, r2
 945 0040 9847     		blx	r3
 946              	.LVL10:
 947 0042 0346     		mov	r3, r0
 948              		.loc 1 192 11
 949 0044 002B     		cmp	r3, #0
 950 0046 08D0     		beq	.L44
 951              		.loc 1 192 64 discriminator 1
 952 0048 029B     		ldr	r3, [sp, #8]
 953 004a 93F80131 		ldrb	r3, [r3, #257]
 954 004e DBB2     		uxtb	r3, r3
 955              		.loc 1 192 48 discriminator 1
 956 0050 83F00103 		eor	r3, r3, #1
 957 0054 DBB2     		uxtb	r3, r3
 958              		.loc 1 192 45 discriminator 1
 959 0056 002B     		cmp	r3, #0
 960 0058 E2D1     		bne	.L45
 961              	.L44:
 962              		.loc 1 195 24
 963 005a 029B     		ldr	r3, [sp, #8]
 964 005c 93F80131 		ldrb	r3, [r3, #257]
 965 0060 DBB2     		uxtb	r3, r3
 966              		.loc 1 195 8
 967 0062 002B     		cmp	r3, #0
 968 0064 20D0     		beq	.L48
 969              		.loc 1 196 14
ARM GAS  /tmp/ccmOeWky.s 			page 18


 970 0066 0023     		movs	r3, #0
 971 0068 8DF81730 		strb	r3, [sp, #23]
 972              		.loc 1 196 7
 973 006c 0DE0     		b	.L46
 974              	.L47:
 975              		.loc 1 197 41 discriminator 3
 976 006e 9DF81720 		ldrb	r2, [sp, #23]	@ zero_extendqisi2
 977              		.loc 1 197 12 discriminator 3
 978 0072 9DF81730 		ldrb	r3, [sp, #23]	@ zero_extendqisi2
 979 0076 0199     		ldr	r1, [sp, #4]
 980 0078 0B44     		add	r3, r3, r1
 981              		.loc 1 197 41 discriminator 3
 982 007a 0299     		ldr	r1, [sp, #8]
 983 007c 8A5C     		ldrb	r2, [r1, r2]	@ zero_extendqisi2
 984              		.loc 1 197 16 discriminator 3
 985 007e 1A70     		strb	r2, [r3]
 986              		.loc 1 196 53 discriminator 3
 987 0080 9DF81730 		ldrb	r3, [sp, #23]	@ zero_extendqisi2
 988 0084 0133     		adds	r3, r3, #1
 989 0086 8DF81730 		strb	r3, [sp, #23]
 990              	.L46:
 991              		.loc 1 196 38 discriminator 1
 992 008a 029B     		ldr	r3, [sp, #8]
 993 008c 93F80031 		ldrb	r3, [r3, #256]
 994 0090 DBB2     		uxtb	r3, r3
 995              		.loc 1 196 7 discriminator 1
 996 0092 9DF81720 		ldrb	r2, [sp, #23]	@ zero_extendqisi2
 997 0096 9A42     		cmp	r2, r3
 998 0098 E9D3     		bcc	.L47
 999              		.loc 1 199 22
 1000 009a 009B     		ldr	r3, [sp]
 1001 009c 0122     		movs	r2, #1
 1002 009e 1A70     		strb	r2, [r3]
 1003              		.loc 1 200 36
 1004 00a0 029B     		ldr	r3, [sp, #8]
 1005 00a2 0022     		movs	r2, #0
 1006 00a4 83F80121 		strb	r2, [r3, #257]
 1007              	.L48:
 1008              		.loc 1 203 1
 1009 00a8 00BF     		nop
 1010 00aa 07B0     		add	sp, sp, #28
 1011              		.cfi_def_cfa_offset 4
 1012              		@ sp needed
 1013 00ac 5DF804FB 		ldr	pc, [sp], #4
 1014              		.cfi_endproc
 1015              	.LFE17:
 1016              		.size	pprz_check_and_parse, .-pprz_check_and_parse
 1017              		.text
 1018              	.Letext0:
 1019              		.file 2 "/usr/lib/gcc/arm-none-eabi/10.3.1/include/stdint.h"
 1020              		.file 3 "/home/argroos/paparazzi/var/include/pprzlink/pprzlink_device.h"
 1021              		.file 4 "/home/argroos/paparazzi/var/include/pprzlink/pprzlink_message.h"
 1022              		.file 5 "/home/argroos/paparazzi/var/include/pprzlink/pprzlink_transport.h"
 1023              		.file 6 "/home/argroos/paparazzi/var/include/pprzlink/pprz_transport.h"