ARM GAS  /tmp/ccUABaUt.s 			page 1


   1              		.cpu cortex-m4
   2              		.eabi_attribute 27, 1
   3              		.eabi_attribute 20, 1
   4              		.eabi_attribute 21, 1
   5              		.eabi_attribute 23, 3
   6              		.eabi_attribute 24, 1
   7              		.eabi_attribute 25, 1
   8              		.eabi_attribute 26, 1
   9              		.eabi_attribute 30, 6
  10              		.eabi_attribute 34, 1
  11              		.eabi_attribute 18, 4
  12              		.file	"baro_board_common.c"
  13              		.text
  14              	.Ltext0:
  15              		.cfi_sections	.debug_frame
  16              		.section	.text.baro_board_init,"ax",%progbits
  17              		.align	1
  18              		.p2align 4,,15
  19              		.global	baro_board_init
  20              		.arch armv7e-m
  21              		.syntax unified
  22              		.thumb
  23              		.thumb_func
  24              		.fpu fpv4-sp-d16
  25              		.type	baro_board_init, %function
  26              	baro_board_init:
  27              	.LFB0:
  28              		.file 1 "modules/sensors/baro_board_common.c"
  29              		.loc 1 37 1
  30              		.cfi_startproc
  31              		@ args = 0, pretend = 0, frame = 0
  32              		@ frame_needed = 0, uses_anonymous_args = 0
  33 0000 08B5     		push	{r3, lr}
  34              		.cfi_def_cfa_offset 8
  35              		.cfi_offset 3, -8
  36              		.cfi_offset 14, -4
  37              		.loc 1 39 3
  38 0002 FFF7FEFF 		bl	baro_init
  39              		.loc 1 41 1
  40 0006 00BF     		nop
  41 0008 08BD     		pop	{r3, pc}
  42              		.cfi_endproc
  43              	.LFE0:
  44              		.size	baro_board_init, .-baro_board_init
  45 000a 00BF     		.section	.text.baro_board_periodic,"ax",%progbits
  46              		.align	1
  47              		.p2align 4,,15
  48              		.global	baro_board_periodic
  49              		.syntax unified
  50              		.thumb
  51              		.thumb_func
  52              		.fpu fpv4-sp-d16
  53              		.type	baro_board_periodic, %function
  54              	baro_board_periodic:
  55              	.LFB1:
  56              		.loc 1 44 1
  57              		.cfi_startproc
ARM GAS  /tmp/ccUABaUt.s 			page 2


  58              		@ args = 0, pretend = 0, frame = 0
  59              		@ frame_needed = 0, uses_anonymous_args = 0
  60 0000 08B5     		push	{r3, lr}
  61              		.cfi_def_cfa_offset 8
  62              		.cfi_offset 3, -8
  63              		.cfi_offset 14, -4
  64              		.loc 1 46 3
  65 0002 FFF7FEFF 		bl	baro_periodic
  66              		.loc 1 48 1
  67 0006 00BF     		nop
  68 0008 08BD     		pop	{r3, pc}
  69              		.cfi_endproc
  70              	.LFE1:
  71              		.size	baro_board_periodic, .-baro_board_periodic
  72 000a 00BF     		.section	.text.baro_board_event,"ax",%progbits
  73              		.align	1
  74              		.p2align 4,,15
  75              		.global	baro_board_event
  76              		.syntax unified
  77              		.thumb
  78              		.thumb_func
  79              		.fpu fpv4-sp-d16
  80              		.type	baro_board_event, %function
  81              	baro_board_event:
  82              	.LFB2:
  83              		.loc 1 51 1
  84              		.cfi_startproc
  85              		@ args = 0, pretend = 0, frame = 0
  86              		@ frame_needed = 0, uses_anonymous_args = 0
  87 0000 08B5     		push	{r3, lr}
  88              		.cfi_def_cfa_offset 8
  89              		.cfi_offset 3, -8
  90              		.cfi_offset 14, -4
  91              		.loc 1 53 3
  92 0002 FFF7FEFF 		bl	apogee_baro_event
  93              		.loc 1 55 1
  94 0006 00BF     		nop
  95 0008 08BD     		pop	{r3, pc}
  96              		.cfi_endproc
  97              	.LFE2:
  98              		.size	baro_board_event, .-baro_board_event
  99 000a 00BF     		.text
 100              	.Letext0: