ARM GAS  /tmp/ccokh7sz.s 			page 1


   1              		.cpu cortex-m4
   2              		.eabi_attribute 27, 1
   3              		.eabi_attribute 20, 1
   4              		.eabi_attribute 21, 1
   5              		.eabi_attribute 23, 3
   6              		.eabi_attribute 24, 1
   7              		.eabi_attribute 25, 1
   8              		.eabi_attribute 26, 1
   9              		.eabi_attribute 30, 6
  10              		.eabi_attribute 34, 1
  11              		.eabi_attribute 18, 4
  12              		.file	"mpu60x0_i2c.c"
  13              		.text
  14              	.Ltext0:
  15              		.cfi_sections	.debug_frame
  16              		.section	.text.mpu60x0_i2c_init,"ax",%progbits
  17              		.align	1
  18              		.p2align 4,,15
  19              		.global	mpu60x0_i2c_init
  20              		.arch armv7e-m
  21              		.syntax unified
  22              		.thumb
  23              		.thumb_func
  24              		.fpu fpv4-sp-d16
  25              		.type	mpu60x0_i2c_init, %function
  26              	mpu60x0_i2c_init:
  27              	.LFB25:
  28              		.file 1 "peripherals/mpu60x0_i2c.c"
  29              		.loc 1 32 1
  30              		.cfi_startproc
  31              		@ args = 0, pretend = 0, frame = 16
  32              		@ frame_needed = 0, uses_anonymous_args = 0
  33 0000 00B5     		push	{lr}
  34              		.cfi_def_cfa_offset 4
  35              		.cfi_offset 14, -4
  36 0002 85B0     		sub	sp, sp, #20
  37              		.cfi_def_cfa_offset 24
  38 0004 0390     		str	r0, [sp, #12]
  39 0006 0291     		str	r1, [sp, #8]
  40 0008 1346     		mov	r3, r2
  41 000a 8DF80730 		strb	r3, [sp, #7]
  42              		.loc 1 34 14
  43 000e 039B     		ldr	r3, [sp, #12]
  44 0010 029A     		ldr	r2, [sp, #8]
  45 0012 1A60     		str	r2, [r3]
  46              		.loc 1 37 29
  47 0014 039B     		ldr	r3, [sp, #12]
  48 0016 9DF80720 		ldrb	r2, [sp, #7]
  49 001a 5A71     		strb	r2, [r3, #5]
  50              		.loc 1 39 25
  51 001c 039B     		ldr	r3, [sp, #12]
  52 001e 0422     		movs	r2, #4
  53 0020 83F82920 		strb	r2, [r3, #41]
  54              		.loc 1 42 3
  55 0024 039B     		ldr	r3, [sp, #12]
  56 0026 4C33     		adds	r3, r3, #76
  57 0028 1846     		mov	r0, r3
ARM GAS  /tmp/ccokh7sz.s 			page 2


  58 002a FFF7FEFF 		bl	mpu60x0_set_default_config
  59              		.loc 1 44 23
  60 002e 039B     		ldr	r3, [sp, #12]
  61 0030 0022     		movs	r2, #0
  62 0032 83F82A20 		strb	r2, [r3, #42]
  63              		.loc 1 45 27
  64 0036 039B     		ldr	r3, [sp, #12]
  65 0038 0022     		movs	r2, #0
  66 003a 83F85620 		strb	r2, [r3, #86]
  67              		.loc 1 46 27
  68 003e 039B     		ldr	r3, [sp, #12]
  69 0040 0022     		movs	r2, #0
  70 0042 83F85520 		strb	r2, [r3, #85]
  71              		.loc 1 48 26
  72 0046 039B     		ldr	r3, [sp, #12]
  73 0048 0022     		movs	r2, #0
  74 004a 83F87420 		strb	r2, [r3, #116]
  75              		.loc 1 49 1
  76 004e 00BF     		nop
  77 0050 05B0     		add	sp, sp, #20
  78              		.cfi_def_cfa_offset 4
  79              		@ sp needed
  80 0052 5DF804FB 		ldr	pc, [sp], #4
  81              		.cfi_endproc
  82              	.LFE25:
  83              		.size	mpu60x0_i2c_init, .-mpu60x0_i2c_init
  84              		.section	.text.mpu60x0_i2c_write_to_reg,"ax",%progbits
  85              		.align	1
  86              		.p2align 4,,15
  87              		.syntax unified
  88              		.thumb
  89              		.thumb_func
  90              		.fpu fpv4-sp-d16
  91              		.type	mpu60x0_i2c_write_to_reg, %function
  92              	mpu60x0_i2c_write_to_reg:
  93              	.LFB26:
  94              		.loc 1 53 1
  95              		.cfi_startproc
  96              		@ args = 0, pretend = 0, frame = 16
  97              		@ frame_needed = 0, uses_anonymous_args = 0
  98 0000 00B5     		push	{lr}
  99              		.cfi_def_cfa_offset 4
 100              		.cfi_offset 14, -4
 101 0002 85B0     		sub	sp, sp, #20
 102              		.cfi_def_cfa_offset 24
 103 0004 0190     		str	r0, [sp, #4]
 104 0006 0B46     		mov	r3, r1
 105 0008 8DF80330 		strb	r3, [sp, #3]
 106 000c 1346     		mov	r3, r2
 107 000e 8DF80230 		strb	r3, [sp, #2]
 108              		.loc 1 54 23
 109 0012 019B     		ldr	r3, [sp, #4]
 110 0014 0393     		str	r3, [sp, #12]
 111              		.loc 1 55 29
 112 0016 039B     		ldr	r3, [sp, #12]
 113 0018 9DF80320 		ldrb	r2, [sp, #3]
 114 001c 5A72     		strb	r2, [r3, #9]
ARM GAS  /tmp/ccokh7sz.s 			page 3


 115              		.loc 1 56 29
 116 001e 039B     		ldr	r3, [sp, #12]
 117 0020 9DF80220 		ldrb	r2, [sp, #2]
 118 0024 9A72     		strb	r2, [r3, #10]
 119              		.loc 1 57 3
 120 0026 039B     		ldr	r3, [sp, #12]
 121 0028 1868     		ldr	r0, [r3]
 122 002a 039B     		ldr	r3, [sp, #12]
 123 002c 191D     		adds	r1, r3, #4
 124 002e 039B     		ldr	r3, [sp, #12]
 125 0030 5A79     		ldrb	r2, [r3, #5]	@ zero_extendqisi2
 126 0032 0223     		movs	r3, #2
 127 0034 FFF7FEFF 		bl	i2c_transmit
 128              		.loc 1 58 1
 129 0038 00BF     		nop
 130 003a 05B0     		add	sp, sp, #20
 131              		.cfi_def_cfa_offset 4
 132              		@ sp needed
 133 003c 5DF804FB 		ldr	pc, [sp], #4
 134              		.cfi_endproc
 135              	.LFE26:
 136              		.size	mpu60x0_i2c_write_to_reg, .-mpu60x0_i2c_write_to_reg
 137              		.section	.text.mpu60x0_i2c_start_configure,"ax",%progbits
 138              		.align	1
 139              		.p2align 4,,15
 140              		.global	mpu60x0_i2c_start_configure
 141              		.syntax unified
 142              		.thumb
 143              		.thumb_func
 144              		.fpu fpv4-sp-d16
 145              		.type	mpu60x0_i2c_start_configure, %function
 146              	mpu60x0_i2c_start_configure:
 147              	.LFB27:
 148              		.loc 1 62 1
 149              		.cfi_startproc
 150              		@ args = 0, pretend = 0, frame = 8
 151              		@ frame_needed = 0, uses_anonymous_args = 0
 152 0000 00B5     		push	{lr}
 153              		.cfi_def_cfa_offset 4
 154              		.cfi_offset 14, -4
 155 0002 83B0     		sub	sp, sp, #12
 156              		.cfi_def_cfa_offset 16
 157 0004 0190     		str	r0, [sp, #4]
 158              		.loc 1 63 18
 159 0006 019B     		ldr	r3, [sp, #4]
 160 0008 93F85530 		ldrb	r3, [r3, #85]	@ zero_extendqisi2
 161              		.loc 1 63 6
 162 000c 002B     		cmp	r3, #0
 163 000e 1AD1     		bne	.L6
 164              		.loc 1 64 16
 165 0010 019B     		ldr	r3, [sp, #4]
 166 0012 93F85530 		ldrb	r3, [r3, #85]	@ zero_extendqisi2
 167              		.loc 1 64 28
 168 0016 0133     		adds	r3, r3, #1
 169 0018 DAB2     		uxtb	r2, r3
 170 001a 019B     		ldr	r3, [sp, #4]
 171 001c 83F85520 		strb	r2, [r3, #85]
ARM GAS  /tmp/ccokh7sz.s 			page 4


 172              		.loc 1 65 23
 173 0020 019B     		ldr	r3, [sp, #4]
 174 0022 93F82930 		ldrb	r3, [r3, #41]
 175 0026 DBB2     		uxtb	r3, r3
 176              		.loc 1 65 8
 177 0028 022B     		cmp	r3, #2
 178 002a 05D0     		beq	.L5
 179              		.loc 1 65 67 discriminator 1
 180 002c 019B     		ldr	r3, [sp, #4]
 181 002e 93F82930 		ldrb	r3, [r3, #41]
 182 0032 DBB2     		uxtb	r3, r3
 183              		.loc 1 65 50 discriminator 1
 184 0034 042B     		cmp	r3, #4
 185 0036 06D1     		bne	.L6
 186              	.L5:
 187              		.loc 1 66 7
 188 0038 019B     		ldr	r3, [sp, #4]
 189 003a 4C33     		adds	r3, r3, #76
 190 003c 1A46     		mov	r2, r3
 191 003e 0199     		ldr	r1, [sp, #4]
 192 0040 0348     		ldr	r0, .L7
 193 0042 FFF7FEFF 		bl	mpu60x0_send_config
 194              	.L6:
 195              		.loc 1 69 1
 196 0046 00BF     		nop
 197 0048 03B0     		add	sp, sp, #12
 198              		.cfi_def_cfa_offset 4
 199              		@ sp needed
 200 004a 5DF804FB 		ldr	pc, [sp], #4
 201              	.L8:
 202 004e 00BF     		.align	2
 203              	.L7:
 204 0050 00000000 		.word	mpu60x0_i2c_write_to_reg
 205              		.cfi_endproc
 206              	.LFE27:
 207              		.size	mpu60x0_i2c_start_configure, .-mpu60x0_i2c_start_configure
 208              		.section	.text.mpu60x0_i2c_read,"ax",%progbits
 209              		.align	1
 210              		.p2align 4,,15
 211              		.global	mpu60x0_i2c_read
 212              		.syntax unified
 213              		.thumb
 214              		.thumb_func
 215              		.fpu fpv4-sp-d16
 216              		.type	mpu60x0_i2c_read, %function
 217              	mpu60x0_i2c_read:
 218              	.LFB28:
 219              		.loc 1 72 1
 220              		.cfi_startproc
 221              		@ args = 0, pretend = 0, frame = 8
 222              		@ frame_needed = 0, uses_anonymous_args = 0
 223 0000 00B5     		push	{lr}
 224              		.cfi_def_cfa_offset 4
 225              		.cfi_offset 14, -4
 226 0002 85B0     		sub	sp, sp, #20
 227              		.cfi_def_cfa_offset 24
 228 0004 0390     		str	r0, [sp, #12]
ARM GAS  /tmp/ccokh7sz.s 			page 5


 229              		.loc 1 73 18
 230 0006 039B     		ldr	r3, [sp, #12]
 231 0008 93F85630 		ldrb	r3, [r3, #86]	@ zero_extendqisi2
 232              		.loc 1 73 6
 233 000c 002B     		cmp	r3, #0
 234 000e 16D0     		beq	.L11
 235              		.loc 1 73 48 discriminator 1
 236 0010 039B     		ldr	r3, [sp, #12]
 237 0012 93F82930 		ldrb	r3, [r3, #41]
 238 0016 DBB2     		uxtb	r3, r3
 239              		.loc 1 73 31 discriminator 1
 240 0018 042B     		cmp	r3, #4
 241 001a 10D1     		bne	.L11
 242              		.loc 1 75 27
 243 001c 039B     		ldr	r3, [sp, #12]
 244 001e 3A22     		movs	r2, #58
 245 0020 5A72     		strb	r2, [r3, #9]
 246              		.loc 1 76 5
 247 0022 039B     		ldr	r3, [sp, #12]
 248 0024 1868     		ldr	r0, [r3]
 249 0026 039B     		ldr	r3, [sp, #12]
 250 0028 191D     		adds	r1, r3, #4
 251 002a 039B     		ldr	r3, [sp, #12]
 252 002c 5A79     		ldrb	r2, [r3, #5]	@ zero_extendqisi2
 253              		.loc 1 76 92
 254 002e 039B     		ldr	r3, [sp, #12]
 255 0030 93F85430 		ldrb	r3, [r3, #84]	@ zero_extendqisi2
 256              		.loc 1 76 5
 257 0034 9BB2     		uxth	r3, r3
 258 0036 0093     		str	r3, [sp]
 259 0038 0123     		movs	r3, #1
 260 003a FFF7FEFF 		bl	i2c_transceive
 261              	.L11:
 262              		.loc 1 78 1
 263 003e 00BF     		nop
 264 0040 05B0     		add	sp, sp, #20
 265              		.cfi_def_cfa_offset 4
 266              		@ sp needed
 267 0042 5DF804FB 		ldr	pc, [sp], #4
 268              		.cfi_endproc
 269              	.LFE28:
 270              		.size	mpu60x0_i2c_read, .-mpu60x0_i2c_read
 271 0046 00BF     		.section	.text.mpu60x0_i2c_event,"ax",%progbits
 272              		.align	1
 273              		.p2align 4,,15
 274              		.global	mpu60x0_i2c_event
 275              		.syntax unified
 276              		.thumb
 277              		.thumb_func
 278              		.fpu fpv4-sp-d16
 279              		.type	mpu60x0_i2c_event, %function
 280              	mpu60x0_i2c_event:
 281              	.LFB29:
 282              		.loc 1 83 1
 283              		.cfi_startproc
 284              		@ args = 0, pretend = 0, frame = 16
 285              		@ frame_needed = 0, uses_anonymous_args = 0
ARM GAS  /tmp/ccokh7sz.s 			page 6


 286 0000 00B5     		push	{lr}
 287              		.cfi_def_cfa_offset 4
 288              		.cfi_offset 14, -4
 289 0002 85B0     		sub	sp, sp, #20
 290              		.cfi_def_cfa_offset 24
 291 0004 0190     		str	r0, [sp, #4]
 292              		.loc 1 84 18
 293 0006 019B     		ldr	r3, [sp, #4]
 294 0008 93F85630 		ldrb	r3, [r3, #86]	@ zero_extendqisi2
 295              		.loc 1 84 6
 296 000c 002B     		cmp	r3, #0
 297 000e 00F0A880 		beq	.L13
 298              		.loc 1 85 23
 299 0012 019B     		ldr	r3, [sp, #4]
 300 0014 93F82930 		ldrb	r3, [r3, #41]
 301 0018 DBB2     		uxtb	r3, r3
 302              		.loc 1 85 8
 303 001a 032B     		cmp	r3, #3
 304 001c 04D1     		bne	.L14
 305              		.loc 1 86 29
 306 001e 019B     		ldr	r3, [sp, #4]
 307 0020 0422     		movs	r2, #4
 308 0022 83F82920 		strb	r2, [r3, #41]
 309              		.loc 1 132 1
 310 0026 CBE0     		b	.L21
 311              	.L14:
 312              		.loc 1 87 30
 313 0028 019B     		ldr	r3, [sp, #4]
 314 002a 93F82930 		ldrb	r3, [r3, #41]
 315 002e DBB2     		uxtb	r3, r3
 316              		.loc 1 87 15
 317 0030 022B     		cmp	r3, #2
 318 0032 40F0C580 		bne	.L21
 319              		.loc 1 89 11
 320 0036 019B     		ldr	r3, [sp, #4]
 321 0038 5B7A     		ldrb	r3, [r3, #9]
 322 003a DBB2     		uxtb	r3, r3
 323 003c 03F00103 		and	r3, r3, #1
 324              		.loc 1 89 10
 325 0040 002B     		cmp	r3, #0
 326 0042 00F08980 		beq	.L16
 327              	.LBB2:
 328              		.loc 1 91 34
 329 0046 019B     		ldr	r3, [sp, #4]
 330 0048 9B7A     		ldrb	r3, [r3, #10]
 331 004a DBB2     		uxtb	r3, r3
 332 004c 1B02     		lsls	r3, r3, #8
 333 004e 1AB2     		sxth	r2, r3
 334 0050 019B     		ldr	r3, [sp, #4]
 335 0052 DB7A     		ldrb	r3, [r3, #11]
 336 0054 DBB2     		uxtb	r3, r3
 337 0056 1BB2     		sxth	r3, r3
 338 0058 1343     		orrs	r3, r3, r2
 339 005a 1AB2     		sxth	r2, r3
 340              		.loc 1 91 32
 341 005c 019B     		ldr	r3, [sp, #4]
 342 005e 9A85     		strh	r2, [r3, #44]	@ movhi
ARM GAS  /tmp/ccokh7sz.s 			page 7


 343              		.loc 1 92 34
 344 0060 019B     		ldr	r3, [sp, #4]
 345 0062 1B7B     		ldrb	r3, [r3, #12]
 346 0064 DBB2     		uxtb	r3, r3
 347 0066 1B02     		lsls	r3, r3, #8
 348 0068 1AB2     		sxth	r2, r3
 349 006a 019B     		ldr	r3, [sp, #4]
 350 006c 5B7B     		ldrb	r3, [r3, #13]
 351 006e DBB2     		uxtb	r3, r3
 352 0070 1BB2     		sxth	r3, r3
 353 0072 1343     		orrs	r3, r3, r2
 354 0074 1AB2     		sxth	r2, r3
 355              		.loc 1 92 32
 356 0076 019B     		ldr	r3, [sp, #4]
 357 0078 DA85     		strh	r2, [r3, #46]	@ movhi
 358              		.loc 1 93 34
 359 007a 019B     		ldr	r3, [sp, #4]
 360 007c 9B7B     		ldrb	r3, [r3, #14]
 361 007e DBB2     		uxtb	r3, r3
 362 0080 1B02     		lsls	r3, r3, #8
 363 0082 1AB2     		sxth	r2, r3
 364 0084 019B     		ldr	r3, [sp, #4]
 365 0086 DB7B     		ldrb	r3, [r3, #15]
 366 0088 DBB2     		uxtb	r3, r3
 367 008a 1BB2     		sxth	r3, r3
 368 008c 1343     		orrs	r3, r3, r2
 369 008e 1AB2     		sxth	r2, r3
 370              		.loc 1 93 32
 371 0090 019B     		ldr	r3, [sp, #4]
 372 0092 1A86     		strh	r2, [r3, #48]	@ movhi
 373              		.loc 1 94 35
 374 0094 019B     		ldr	r3, [sp, #4]
 375 0096 9B7C     		ldrb	r3, [r3, #18]
 376 0098 DBB2     		uxtb	r3, r3
 377 009a 1B02     		lsls	r3, r3, #8
 378 009c 1AB2     		sxth	r2, r3
 379 009e 019B     		ldr	r3, [sp, #4]
 380 00a0 DB7C     		ldrb	r3, [r3, #19]
 381 00a2 DBB2     		uxtb	r3, r3
 382 00a4 1BB2     		sxth	r3, r3
 383 00a6 1343     		orrs	r3, r3, r2
 384 00a8 1AB2     		sxth	r2, r3
 385              		.loc 1 94 33
 386 00aa 019B     		ldr	r3, [sp, #4]
 387 00ac 5A86     		strh	r2, [r3, #50]	@ movhi
 388              		.loc 1 95 35
 389 00ae 019B     		ldr	r3, [sp, #4]
 390 00b0 1B7D     		ldrb	r3, [r3, #20]
 391 00b2 DBB2     		uxtb	r3, r3
 392 00b4 1B02     		lsls	r3, r3, #8
 393 00b6 1AB2     		sxth	r2, r3
 394 00b8 019B     		ldr	r3, [sp, #4]
 395 00ba 5B7D     		ldrb	r3, [r3, #21]
 396 00bc DBB2     		uxtb	r3, r3
 397 00be 1BB2     		sxth	r3, r3
 398 00c0 1343     		orrs	r3, r3, r2
 399 00c2 1AB2     		sxth	r2, r3
ARM GAS  /tmp/ccokh7sz.s 			page 8


 400              		.loc 1 95 33
 401 00c4 019B     		ldr	r3, [sp, #4]
 402 00c6 9A86     		strh	r2, [r3, #52]	@ movhi
 403              		.loc 1 96 35
 404 00c8 019B     		ldr	r3, [sp, #4]
 405 00ca 9B7D     		ldrb	r3, [r3, #22]
 406 00cc DBB2     		uxtb	r3, r3
 407 00ce 1B02     		lsls	r3, r3, #8
 408 00d0 1AB2     		sxth	r2, r3
 409 00d2 019B     		ldr	r3, [sp, #4]
 410 00d4 DB7D     		ldrb	r3, [r3, #23]
 411 00d6 DBB2     		uxtb	r3, r3
 412 00d8 1BB2     		sxth	r3, r3
 413 00da 1343     		orrs	r3, r3, r2
 414 00dc 1AB2     		sxth	r2, r3
 415              		.loc 1 96 33
 416 00de 019B     		ldr	r3, [sp, #4]
 417 00e0 DA86     		strh	r2, [r3, #54]	@ movhi
 418              		.loc 1 98 28
 419 00e2 019B     		ldr	r3, [sp, #4]
 420 00e4 1B7C     		ldrb	r3, [r3, #16]
 421 00e6 DBB2     		uxtb	r3, r3
 422 00e8 1B02     		lsls	r3, r3, #8
 423 00ea 1AB2     		sxth	r2, r3
 424 00ec 019B     		ldr	r3, [sp, #4]
 425 00ee 5B7C     		ldrb	r3, [r3, #17]
 426 00f0 DBB2     		uxtb	r3, r3
 427 00f2 1BB2     		sxth	r3, r3
 428              		.loc 1 98 17
 429 00f4 1343     		orrs	r3, r3, r2
 430 00f6 ADF80E30 		strh	r3, [sp, #14]	@ movhi
 431              		.loc 1 99 21
 432 00fa BDF90E30 		ldrsh	r3, [sp, #14]
 433 00fe 07EE903A 		vmov	s15, r3	@ int
 434 0102 B8EEE77A 		vcvt.f32.s32	s14, s15
 435              		.loc 1 99 37
 436 0106 DFED306A 		vldr.32	s13, .L25
 437 010a C7EE267A 		vdiv.f32	s15, s14, s13
 438              		.loc 1 99 46
 439 010e 9FED2F7A 		vldr.32	s14, .L25+4
 440 0112 77EE877A 		vadd.f32	s15, s15, s14
 441              		.loc 1 99 19
 442 0116 019B     		ldr	r3, [sp, #4]
 443 0118 C3ED0E7A 		vstr.32	s15, [r3, #56]
 444              		.loc 1 102 25
 445 011c 019B     		ldr	r3, [sp, #4]
 446 011e 93F85730 		ldrb	r3, [r3, #87]	@ zero_extendqisi2
 447              		.loc 1 102 37
 448 0122 83F00103 		eor	r3, r3, #1
 449 0126 DBB2     		uxtb	r3, r3
 450              		.loc 1 102 12
 451 0128 002B     		cmp	r3, #0
 452 012a 11D0     		beq	.L17
 453              		.loc 1 102 62 discriminator 1
 454 012c 019B     		ldr	r3, [sp, #4]
 455 012e 93F85830 		ldrb	r3, [r3, #88]	@ zero_extendqisi2
 456              		.loc 1 102 47 discriminator 1
ARM GAS  /tmp/ccokh7sz.s 			page 9


 457 0132 002B     		cmp	r3, #0
 458 0134 0CD0     		beq	.L17
 459              		.loc 1 108 21
 460 0136 019B     		ldr	r3, [sp, #4]
 461 0138 03F13C00 		add	r0, r3, #60
 462              		.loc 1 108 45
 463 013c 019B     		ldr	r3, [sp, #4]
 464 013e 03F11801 		add	r1, r3, #24
 465              		.loc 1 108 84
 466 0142 019B     		ldr	r3, [sp, #4]
 467 0144 93F85430 		ldrb	r3, [r3, #84]	@ zero_extendqisi2
 468              		.loc 1 108 94
 469 0148 0F3B     		subs	r3, r3, #15
 470              		.loc 1 108 11
 471 014a 1A46     		mov	r2, r3
 472 014c FFF7FEFF 		bl	memcpy
 473              	.L17:
 474              		.loc 1 112 29
 475 0150 019B     		ldr	r3, [sp, #4]
 476 0152 0122     		movs	r2, #1
 477 0154 83F82A20 		strb	r2, [r3, #42]
 478              	.L16:
 479              	.LBE2:
 480              		.loc 1 114 29
 481 0158 019B     		ldr	r3, [sp, #4]
 482 015a 0422     		movs	r2, #4
 483 015c 83F82920 		strb	r2, [r3, #41]
 484              		.loc 1 132 1
 485 0160 2EE0     		b	.L21
 486              	.L13:
 487              		.loc 1 116 25
 488 0162 019B     		ldr	r3, [sp, #4]
 489 0164 93F85530 		ldrb	r3, [r3, #85]	@ zero_extendqisi2
 490              		.loc 1 116 13
 491 0168 002B     		cmp	r3, #0
 492 016a 24D0     		beq	.L22
 493              		.loc 1 117 27
 494 016c 019B     		ldr	r3, [sp, #4]
 495 016e 93F82930 		ldrb	r3, [r3, #41]
 496 0172 DBB2     		uxtb	r3, r3
 497              		.loc 1 117 5
 498 0174 042B     		cmp	r3, #4
 499 0176 0DD0     		beq	.L18
 500 0178 042B     		cmp	r3, #4
 501 017a 1EDC     		bgt	.L23
 502 017c 022B     		cmp	r3, #2
 503 017e 09D0     		beq	.L18
 504 0180 032B     		cmp	r3, #3
 505 0182 1AD1     		bne	.L23
 506              		.loc 1 119 20
 507 0184 019B     		ldr	r3, [sp, #4]
 508 0186 93F85530 		ldrb	r3, [r3, #85]	@ zero_extendqisi2
 509              		.loc 1 119 32
 510 018a 013B     		subs	r3, r3, #1
 511 018c DAB2     		uxtb	r2, r3
 512 018e 019B     		ldr	r3, [sp, #4]
 513 0190 83F85520 		strb	r2, [r3, #85]
ARM GAS  /tmp/ccokh7sz.s 			page 10


 514              	.L18:
 515              		.loc 1 123 9
 516 0194 019B     		ldr	r3, [sp, #4]
 517 0196 4C33     		adds	r3, r3, #76
 518 0198 1A46     		mov	r2, r3
 519 019a 0199     		ldr	r1, [sp, #4]
 520 019c 0C48     		ldr	r0, .L25+8
 521 019e FFF7FEFF 		bl	mpu60x0_send_config
 522              		.loc 1 124 24
 523 01a2 019B     		ldr	r3, [sp, #4]
 524 01a4 93F85630 		ldrb	r3, [r3, #86]	@ zero_extendqisi2
 525              		.loc 1 124 12
 526 01a8 002B     		cmp	r3, #0
 527 01aa 08D0     		beq	.L24
 528              		.loc 1 125 33
 529 01ac 019B     		ldr	r3, [sp, #4]
 530 01ae 0422     		movs	r2, #4
 531 01b0 83F82920 		strb	r2, [r3, #41]
 532              		.loc 1 127 9
 533 01b4 03E0     		b	.L24
 534              	.L22:
 535              		.loc 1 131 3
 536 01b6 00BF     		nop
 537 01b8 02E0     		b	.L21
 538              	.L23:
 539              		.loc 1 129 9
 540 01ba 00BF     		nop
 541 01bc 00E0     		b	.L21
 542              	.L24:
 543              		.loc 1 127 9
 544 01be 00BF     		nop
 545              	.L21:
 546              		.loc 1 132 1
 547 01c0 00BF     		nop
 548 01c2 05B0     		add	sp, sp, #20
 549              		.cfi_def_cfa_offset 4
 550              		@ sp needed
 551 01c4 5DF804FB 		ldr	pc, [sp], #4
 552              	.L26:
 553              		.align	2
 554              	.L25:
 555 01c8 0000AA43 		.word	1135214592
 556 01cc B81E1242 		.word	1108483768
 557 01d0 00000000 		.word	mpu60x0_i2c_write_to_reg
 558              		.cfi_endproc
 559              	.LFE29:
 560              		.size	mpu60x0_i2c_event, .-mpu60x0_i2c_event
 561              		.section	.text.mpu60x0_configure_i2c_slaves,"ax",%progbits
 562              		.align	1
 563              		.p2align 4,,15
 564              		.global	mpu60x0_configure_i2c_slaves
 565              		.syntax unified
 566              		.thumb
 567              		.thumb_func
 568              		.fpu fpv4-sp-d16
 569              		.type	mpu60x0_configure_i2c_slaves, %function
 570              	mpu60x0_configure_i2c_slaves:
ARM GAS  /tmp/ccokh7sz.s 			page 11


 571              	.LFB30:
 572              		.loc 1 136 1
 573              		.cfi_startproc
 574              		@ args = 0, pretend = 0, frame = 16
 575              		@ frame_needed = 0, uses_anonymous_args = 0
 576 0000 00B5     		push	{lr}
 577              		.cfi_def_cfa_offset 4
 578              		.cfi_offset 14, -4
 579 0002 85B0     		sub	sp, sp, #20
 580              		.cfi_def_cfa_offset 24
 581 0004 0190     		str	r0, [sp, #4]
 582 0006 0091     		str	r1, [sp]
 583              		.loc 1 137 23
 584 0008 009B     		ldr	r3, [sp]
 585 000a 0393     		str	r3, [sp, #12]
 586              		.loc 1 139 14
 587 000c 039B     		ldr	r3, [sp, #12]
 588 000e 93F87430 		ldrb	r3, [r3, #116]	@ zero_extendqisi2
 589              		.loc 1 139 6
 590 0012 002B     		cmp	r3, #0
 591 0014 07D1     		bne	.L28
 592              		.loc 1 140 12
 593 0016 039B     		ldr	r3, [sp, #12]
 594 0018 93F87430 		ldrb	r3, [r3, #116]	@ zero_extendqisi2
 595              		.loc 1 140 31
 596 001c 0133     		adds	r3, r3, #1
 597 001e DAB2     		uxtb	r2, r3
 598 0020 039B     		ldr	r3, [sp, #12]
 599 0022 83F87420 		strb	r2, [r3, #116]
 600              	.L28:
 601              		.loc 1 143 18
 602 0026 039B     		ldr	r3, [sp, #12]
 603 0028 93F87430 		ldrb	r3, [r3, #116]	@ zero_extendqisi2
 604              		.loc 1 143 3
 605 002c 013B     		subs	r3, r3, #1
 606 002e 082B     		cmp	r3, #8
 607 0030 00F2B980 		bhi	.L47
 608 0034 01A2     		adr	r2, .L31
 609 0036 52F823F0 		ldr	pc, [r2, r3, lsl #2]
 610 003a 00BF     		.p2align 2
 611              	.L31:
 612 003c 61000000 		.word	.L39+1
 613 0040 7D000000 		.word	.L38+1
 614 0044 99000000 		.word	.L37+1
 615 0048 F5000000 		.word	.L36+1
 616 004c 25010000 		.word	.L35+1
 617 0050 4B010000 		.word	.L34+1
 618 0054 6B010000 		.word	.L33+1
 619 0058 87010000 		.word	.L32+1
 620 005c A3010000 		.word	.L30+1
 621              		.p2align 1
 622              	.L39:
 623              		.loc 1 145 7
 624 0060 019B     		ldr	r3, [sp, #4]
 625 0062 0022     		movs	r2, #0
 626 0064 6A21     		movs	r1, #106
 627 0066 0098     		ldr	r0, [sp]
ARM GAS  /tmp/ccokh7sz.s 			page 12


 628 0068 9847     		blx	r3
 629              	.LVL0:
 630              		.loc 1 146 14
 631 006a 039B     		ldr	r3, [sp, #12]
 632 006c 93F87430 		ldrb	r3, [r3, #116]	@ zero_extendqisi2
 633              		.loc 1 146 33
 634 0070 0133     		adds	r3, r3, #1
 635 0072 DAB2     		uxtb	r2, r3
 636 0074 039B     		ldr	r3, [sp, #12]
 637 0076 83F87420 		strb	r2, [r3, #116]
 638              		.loc 1 147 7
 639 007a 95E0     		b	.L40
 640              	.L38:
 641              		.loc 1 150 7
 642 007c 019B     		ldr	r3, [sp, #4]
 643 007e 0222     		movs	r2, #2
 644 0080 3721     		movs	r1, #55
 645 0082 0098     		ldr	r0, [sp]
 646 0084 9847     		blx	r3
 647              	.LVL1:
 648              		.loc 1 151 14
 649 0086 039B     		ldr	r3, [sp, #12]
 650 0088 93F87430 		ldrb	r3, [r3, #116]	@ zero_extendqisi2
 651              		.loc 1 151 33
 652 008c 0133     		adds	r3, r3, #1
 653 008e DAB2     		uxtb	r2, r3
 654 0090 039B     		ldr	r3, [sp, #12]
 655 0092 83F87420 		strb	r2, [r3, #116]
 656              		.loc 1 152 7
 657 0096 87E0     		b	.L40
 658              	.L37:
 659              		.loc 1 155 26
 660 0098 039B     		ldr	r3, [sp, #12]
 661 009a 93F85920 		ldrb	r2, [r3, #89]	@ zero_extendqisi2
 662              		.loc 1 155 58
 663 009e 039B     		ldr	r3, [sp, #12]
 664 00a0 93F85830 		ldrb	r3, [r3, #88]	@ zero_extendqisi2
 665              		.loc 1 155 10
 666 00a4 9A42     		cmp	r2, r3
 667 00a6 1BD2     		bcs	.L41
 668              		.loc 1 155 87 discriminator 1
 669 00a8 039B     		ldr	r3, [sp, #12]
 670 00aa 93F85930 		ldrb	r3, [r3, #89]	@ zero_extendqisi2
 671              		.loc 1 155 69 discriminator 1
 672 00ae 042B     		cmp	r3, #4
 673 00b0 16D8     		bhi	.L41
 674              		.loc 1 157 51
 675 00b2 039B     		ldr	r3, [sp, #12]
 676 00b4 93F85930 		ldrb	r3, [r3, #89]	@ zero_extendqisi2
 677              		.loc 1 157 66
 678 00b8 039A     		ldr	r2, [sp, #12]
 679 00ba 1633     		adds	r3, r3, #22
 680 00bc 9B00     		lsls	r3, r3, #2
 681 00be 1344     		add	r3, r3, r2
 682 00c0 5B68     		ldr	r3, [r3, #4]
 683              		.loc 1 157 13
 684 00c2 0099     		ldr	r1, [sp]
ARM GAS  /tmp/ccokh7sz.s 			page 13


 685 00c4 0198     		ldr	r0, [sp, #4]
 686 00c6 9847     		blx	r3
 687              	.LVL2:
 688 00c8 0346     		mov	r3, r0
 689              		.loc 1 157 12
 690 00ca 002B     		cmp	r3, #0
 691 00cc 11D0     		beq	.L43
 692              		.loc 1 158 26
 693 00ce 039B     		ldr	r3, [sp, #12]
 694 00d0 93F85930 		ldrb	r3, [r3, #89]	@ zero_extendqisi2
 695              		.loc 1 158 40
 696 00d4 0133     		adds	r3, r3, #1
 697 00d6 DAB2     		uxtb	r2, r3
 698 00d8 039B     		ldr	r3, [sp, #12]
 699 00da 83F85920 		strb	r2, [r3, #89]
 700              		.loc 1 157 12
 701 00de 08E0     		b	.L43
 702              	.L41:
 703              		.loc 1 163 16
 704 00e0 039B     		ldr	r3, [sp, #12]
 705 00e2 93F87430 		ldrb	r3, [r3, #116]	@ zero_extendqisi2
 706              		.loc 1 163 35
 707 00e6 0133     		adds	r3, r3, #1
 708 00e8 DAB2     		uxtb	r2, r3
 709 00ea 039B     		ldr	r3, [sp, #12]
 710 00ec 83F87420 		strb	r2, [r3, #116]
 711              		.loc 1 165 7
 712 00f0 5AE0     		b	.L40
 713              	.L43:
 714              		.loc 1 165 7 is_stmt 0 discriminator 1
 715 00f2 59E0     		b	.L40
 716              	.L36:
 717              		.loc 1 167 26 is_stmt 1
 718 00f4 039B     		ldr	r3, [sp, #12]
 719 00f6 93F85730 		ldrb	r3, [r3, #87]	@ zero_extendqisi2
 720              		.loc 1 167 10
 721 00fa 002B     		cmp	r3, #0
 722 00fc 04D0     		beq	.L44
 723              		.loc 1 169 36
 724 00fe 039B     		ldr	r3, [sp, #12]
 725 0100 0922     		movs	r2, #9
 726 0102 83F87420 		strb	r2, [r3, #116]
 727              		.loc 1 175 7
 728 0106 4FE0     		b	.L40
 729              	.L44:
 730              		.loc 1 172 9
 731 0108 019B     		ldr	r3, [sp, #4]
 732 010a 0022     		movs	r2, #0
 733 010c 3721     		movs	r1, #55
 734 010e 0098     		ldr	r0, [sp]
 735 0110 9847     		blx	r3
 736              	.LVL3:
 737              		.loc 1 173 16
 738 0112 039B     		ldr	r3, [sp, #12]
 739 0114 93F87430 		ldrb	r3, [r3, #116]	@ zero_extendqisi2
 740              		.loc 1 173 35
 741 0118 0133     		adds	r3, r3, #1
ARM GAS  /tmp/ccokh7sz.s 			page 14


 742 011a DAB2     		uxtb	r2, r3
 743 011c 039B     		ldr	r3, [sp, #12]
 744 011e 83F87420 		strb	r2, [r3, #116]
 745              		.loc 1 175 7
 746 0122 41E0     		b	.L40
 747              	.L35:
 748              		.loc 1 179 42
 749 0124 039B     		ldr	r3, [sp, #12]
 750 0126 93F87030 		ldrb	r3, [r3, #112]	@ zero_extendqisi2
 751              		.loc 1 178 7
 752 012a 43F01003 		orr	r3, r3, #16
 753 012e DAB2     		uxtb	r2, r3
 754 0130 019B     		ldr	r3, [sp, #4]
 755 0132 2421     		movs	r1, #36
 756 0134 0098     		ldr	r0, [sp]
 757 0136 9847     		blx	r3
 758              	.LVL4:
 759              		.loc 1 180 14
 760 0138 039B     		ldr	r3, [sp, #12]
 761 013a 93F87430 		ldrb	r3, [r3, #116]	@ zero_extendqisi2
 762              		.loc 1 180 33
 763 013e 0133     		adds	r3, r3, #1
 764 0140 DAB2     		uxtb	r2, r3
 765 0142 039B     		ldr	r3, [sp, #12]
 766 0144 83F87420 		strb	r2, [r3, #116]
 767              		.loc 1 181 7
 768 0148 2EE0     		b	.L40
 769              	.L34:
 770              		.loc 1 184 7
 771 014a 039B     		ldr	r3, [sp, #12]
 772 014c 93F87120 		ldrb	r2, [r3, #113]	@ zero_extendqisi2
 773 0150 019B     		ldr	r3, [sp, #4]
 774 0152 6721     		movs	r1, #103
 775 0154 0098     		ldr	r0, [sp]
 776 0156 9847     		blx	r3
 777              	.LVL5:
 778              		.loc 1 185 14
 779 0158 039B     		ldr	r3, [sp, #12]
 780 015a 93F87430 		ldrb	r3, [r3, #116]	@ zero_extendqisi2
 781              		.loc 1 185 33
 782 015e 0133     		adds	r3, r3, #1
 783 0160 DAB2     		uxtb	r2, r3
 784 0162 039B     		ldr	r3, [sp, #12]
 785 0164 83F87420 		strb	r2, [r3, #116]
 786              		.loc 1 186 7
 787 0168 1EE0     		b	.L40
 788              	.L33:
 789              		.loc 1 189 7
 790 016a 019B     		ldr	r3, [sp, #4]
 791 016c 0022     		movs	r2, #0
 792 016e 3421     		movs	r1, #52
 793 0170 0098     		ldr	r0, [sp]
 794 0172 9847     		blx	r3
 795              	.LVL6:
 796              		.loc 1 190 14
 797 0174 039B     		ldr	r3, [sp, #12]
 798 0176 93F87430 		ldrb	r3, [r3, #116]	@ zero_extendqisi2
ARM GAS  /tmp/ccokh7sz.s 			page 15


 799              		.loc 1 190 33
 800 017a 0133     		adds	r3, r3, #1
 801 017c DAB2     		uxtb	r2, r3
 802 017e 039B     		ldr	r3, [sp, #12]
 803 0180 83F87420 		strb	r2, [r3, #116]
 804              		.loc 1 191 7
 805 0184 10E0     		b	.L40
 806              	.L32:
 807              		.loc 1 194 7
 808 0186 019B     		ldr	r3, [sp, #4]
 809 0188 2022     		movs	r2, #32
 810 018a 6A21     		movs	r1, #106
 811 018c 0098     		ldr	r0, [sp]
 812 018e 9847     		blx	r3
 813              	.LVL7:
 814              		.loc 1 195 14
 815 0190 039B     		ldr	r3, [sp, #12]
 816 0192 93F87430 		ldrb	r3, [r3, #116]	@ zero_extendqisi2
 817              		.loc 1 195 33
 818 0196 0133     		adds	r3, r3, #1
 819 0198 DAB2     		uxtb	r2, r3
 820 019a 039B     		ldr	r3, [sp, #12]
 821 019c 83F87420 		strb	r2, [r3, #116]
 822              		.loc 1 196 7
 823 01a0 02E0     		b	.L40
 824              	.L30:
 825              		.loc 1 198 14
 826 01a2 0123     		movs	r3, #1
 827 01a4 01E0     		b	.L46
 828              	.L47:
 829              		.loc 1 200 7
 830 01a6 00BF     		nop
 831              	.L40:
 832              		.loc 1 202 10
 833 01a8 0023     		movs	r3, #0
 834              	.L46:
 835              		.loc 1 203 1
 836 01aa 1846     		mov	r0, r3
 837 01ac 05B0     		add	sp, sp, #20
 838              		.cfi_def_cfa_offset 4
 839              		@ sp needed
 840 01ae 5DF804FB 		ldr	pc, [sp], #4
 841              		.cfi_endproc
 842              	.LFE30:
 843              		.size	mpu60x0_configure_i2c_slaves, .-mpu60x0_configure_i2c_slaves
 844 01b2 00BF     		.text
 845              	.Letext0:
 846              		.file 2 "/usr/lib/gcc/arm-none-eabi/10.3.1/include/stdint.h"
 847              		.file 3 "./math/pprz_algebra_int.h"
 848              		.file 4 "./mcu_periph/i2c.h"
 849              		.file 5 "./peripherals/mpu60x0_regs.h"
 850              		.file 6 "./peripherals/mpu60x0.h"
 851              		.file 7 "./peripherals/mpu60x0_i2c.h"