ARM GAS  /tmp/ccZm62RO.s 			page 1


   1              		.cpu cortex-m4
   2              		.eabi_attribute 27, 1
   3              		.eabi_attribute 20, 1
   4              		.eabi_attribute 21, 1
   5              		.eabi_attribute 23, 3
   6              		.eabi_attribute 24, 1
   7              		.eabi_attribute 25, 1
   8              		.eabi_attribute 26, 1
   9              		.eabi_attribute 30, 6
  10              		.eabi_attribute 34, 1
  11              		.eabi_attribute 18, 4
  12              		.file	"mpu60x0.c"
  13              		.text
  14              	.Ltext0:
  15              		.cfi_sections	.debug_frame
  16              		.global	MPU60X0_GYRO_SENS
  17              		.section	.rodata.MPU60X0_GYRO_SENS,"a"
  18              		.align	2
  19              		.type	MPU60X0_GYRO_SENS, %object
  20              		.size	MPU60X0_GYRO_SENS, 16
  21              	MPU60X0_GYRO_SENS:
  22 0000 747D0B3F 		.word	1057717620
  23 0004 957D8B3F 		.word	1066106261
  24 0008 6B7D0B40 		.word	1074494827
  25 000c 6B7D8B40 		.word	1082883435
  26              		.global	MPU60X0_GYRO_SENS_FRAC
  27              		.section	.rodata.MPU60X0_GYRO_SENS_FRAC,"a"
  28              		.align	2
  29              		.type	MPU60X0_GYRO_SENS_FRAC, %object
  30              		.size	MPU60X0_GYRO_SENS_FRAC, 96
  31              	MPU60X0_GYRO_SENS_FRAC:
  32 0000 7F4B0000 		.word	19327
  33 0004 7F4B0000 		.word	19327
  34 0008 7F4B0000 		.word	19327
  35 000c 8E8A0000 		.word	35470
  36 0010 8E8A0000 		.word	35470
  37 0014 8E8A0000 		.word	35470
  38 0018 3FE10000 		.word	57663
  39 001c 3FE10000 		.word	57663
  40 0020 3FE10000 		.word	57663
  41 0024 B1CE0000 		.word	52913
  42 0028 B1CE0000 		.word	52913
  43 002c B1CE0000 		.word	52913
  44 0030 5F470000 		.word	18271
  45 0034 5F470000 		.word	18271
  46 0038 5F470000 		.word	18271
  47 003c BF200000 		.word	8383
  48 0040 BF200000 		.word	8383
  49 0044 BF200000 		.word	8383
  50 0048 BE8E0000 		.word	36542
  51 004c BE8E0000 		.word	36542
  52 0050 BE8E0000 		.word	36542
  53 0054 BF200000 		.word	8383
  54 0058 BF200000 		.word	8383
  55 005c BF200000 		.word	8383
  56              		.global	MPU60X0_ACCEL_SENS
  57              		.section	.rodata.MPU60X0_ACCEL_SENS,"a"
ARM GAS  /tmp/ccZm62RO.s 			page 2


  58              		.align	2
  59              		.type	MPU60X0_ACCEL_SENS, %object
  60              		.size	MPU60X0_ACCEL_SENS, 16
  61              	MPU60X0_ACCEL_SENS:
  62 0000 C3F51C3F 		.word	1058862531
  63 0004 C3F59C3F 		.word	1067251139
  64 0008 C3F51C40 		.word	1075639747
  65 000c C3F59C40 		.word	1084028355
  66              		.global	MPU60X0_ACCEL_SENS_FRAC
  67              		.section	.rodata.MPU60X0_ACCEL_SENS_FRAC,"a"
  68              		.align	2
  69              		.type	MPU60X0_ACCEL_SENS_FRAC, %object
  70              		.size	MPU60X0_ACCEL_SENS_FRAC, 96
  71              	MPU60X0_ACCEL_SENS_FRAC:
  72 0000 D5030000 		.word	981
  73 0004 D5030000 		.word	981
  74 0008 D5030000 		.word	981
  75 000c 40060000 		.word	1600
  76 0010 40060000 		.word	1600
  77 0014 40060000 		.word	1600
  78 0018 D5030000 		.word	981
  79 001c D5030000 		.word	981
  80 0020 D5030000 		.word	981
  81 0024 20030000 		.word	800
  82 0028 20030000 		.word	800
  83 002c 20030000 		.word	800
  84 0030 D5030000 		.word	981
  85 0034 D5030000 		.word	981
  86 0038 D5030000 		.word	981
  87 003c 90010000 		.word	400
  88 0040 90010000 		.word	400
  89 0044 90010000 		.word	400
  90 0048 D5030000 		.word	981
  91 004c D5030000 		.word	981
  92 0050 D5030000 		.word	981
  93 0054 C8000000 		.word	200
  94 0058 C8000000 		.word	200
  95 005c C8000000 		.word	200
  96              		.section	.text.mpu60x0_set_default_config,"ax",%progbits
  97              		.align	1
  98              		.p2align 4,,15
  99              		.global	mpu60x0_set_default_config
 100              		.arch armv7e-m
 101              		.syntax unified
 102              		.thumb
 103              		.thumb_func
 104              		.fpu fpv4-sp-d16
 105              		.type	mpu60x0_set_default_config, %function
 106              	mpu60x0_set_default_config:
 107              	.LFB21:
 108              		.file 1 "peripherals/mpu60x0.c"
 109              		.loc 1 68 1
 110              		.cfi_startproc
 111              		@ args = 0, pretend = 0, frame = 8
 112              		@ frame_needed = 0, uses_anonymous_args = 0
 113              		@ link register save eliminated.
 114 0000 82B0     		sub	sp, sp, #8
ARM GAS  /tmp/ccZm62RO.s 			page 3


 115              		.cfi_def_cfa_offset 8
 116 0002 0190     		str	r0, [sp, #4]
 117              		.loc 1 69 11
 118 0004 019B     		ldr	r3, [sp, #4]
 119 0006 0022     		movs	r2, #0
 120 0008 1A70     		strb	r2, [r3]
 121              		.loc 1 70 14
 122 000a 019B     		ldr	r3, [sp, #4]
 123 000c 0122     		movs	r2, #1
 124 000e DA71     		strb	r2, [r3, #7]
 125              		.loc 1 71 17
 126 0010 019B     		ldr	r3, [sp, #4]
 127 0012 0022     		movs	r2, #0
 128 0014 5A70     		strb	r2, [r3, #1]
 129              		.loc 1 72 15
 130 0016 019B     		ldr	r3, [sp, #4]
 131 0018 0222     		movs	r2, #2
 132 001a 9A70     		strb	r2, [r3, #2]
 133              		.loc 1 73 19
 134 001c 019B     		ldr	r3, [sp, #4]
 135 001e 0222     		movs	r2, #2
 136 0020 DA70     		strb	r2, [r3, #3]
 137              		.loc 1 74 17
 138 0022 019B     		ldr	r3, [sp, #4]
 139 0024 0322     		movs	r2, #3
 140 0026 1A71     		strb	r2, [r3, #4]
 141              		.loc 1 75 18
 142 0028 019B     		ldr	r3, [sp, #4]
 143 002a 0322     		movs	r2, #3
 144 002c 5A71     		strb	r2, [r3, #5]
 145              		.loc 1 76 22
 146 002e 019B     		ldr	r3, [sp, #4]
 147 0030 0022     		movs	r2, #0
 148 0032 9A71     		strb	r2, [r3, #6]
 149              		.loc 1 82 15
 150 0034 019B     		ldr	r3, [sp, #4]
 151 0036 0F22     		movs	r2, #15
 152 0038 1A72     		strb	r2, [r3, #8]
 153              		.loc 1 83 16
 154 003a 019B     		ldr	r3, [sp, #4]
 155 003c 0022     		movs	r2, #0
 156 003e 1A73     		strb	r2, [r3, #12]
 157              		.loc 1 84 20
 158 0040 019B     		ldr	r3, [sp, #4]
 159 0042 0022     		movs	r2, #0
 160 0044 5A73     		strb	r2, [r3, #13]
 161              		.loc 1 86 17
 162 0046 019B     		ldr	r3, [sp, #4]
 163 0048 0022     		movs	r2, #0
 164 004a DA72     		strb	r2, [r3, #11]
 165              		.loc 1 87 1
 166 004c 00BF     		nop
 167 004e 02B0     		add	sp, sp, #8
 168              		.cfi_def_cfa_offset 0
 169              		@ sp needed
 170 0050 7047     		bx	lr
 171              		.cfi_endproc
ARM GAS  /tmp/ccZm62RO.s 			page 4


 172              	.LFE21:
 173              		.size	mpu60x0_set_default_config, .-mpu60x0_set_default_config
 174 0052 00BF     		.section	.text.mpu60x0_send_config,"ax",%progbits
 175              		.align	1
 176              		.p2align 4,,15
 177              		.global	mpu60x0_send_config
 178              		.syntax unified
 179              		.thumb
 180              		.thumb_func
 181              		.fpu fpv4-sp-d16
 182              		.type	mpu60x0_send_config, %function
 183              	mpu60x0_send_config:
 184              	.LFB22:
 185              		.loc 1 90 1
 186              		.cfi_startproc
 187              		@ args = 0, pretend = 0, frame = 16
 188              		@ frame_needed = 0, uses_anonymous_args = 0
 189 0000 00B5     		push	{lr}
 190              		.cfi_def_cfa_offset 4
 191              		.cfi_offset 14, -4
 192 0002 85B0     		sub	sp, sp, #20
 193              		.cfi_def_cfa_offset 24
 194 0004 0390     		str	r0, [sp, #12]
 195 0006 0291     		str	r1, [sp, #8]
 196 0008 0192     		str	r2, [sp, #4]
 197              		.loc 1 91 17
 198 000a 019B     		ldr	r3, [sp, #4]
 199 000c 5B7A     		ldrb	r3, [r3, #9]	@ zero_extendqisi2
 200              		.loc 1 91 3
 201 000e 013B     		subs	r3, r3, #1
 202 0010 0B2B     		cmp	r3, #11
 203 0012 00F2C480 		bhi	.L22
 204 0016 01A2     		adr	r2, .L5
 205 0018 52F823F0 		ldr	pc, [r2, r3, lsl #2]
 206              		.p2align 2
 207              	.L5:
 208 001c 4D000000 		.word	.L16+1
 209 0020 65000000 		.word	.L15+1
 210 0024 7D000000 		.word	.L14+1
 211 0028 97000000 		.word	.L13+1
 212 002c B1000000 		.word	.L12+1
 213 0030 CB000000 		.word	.L11+1
 214 0034 E9000000 		.word	.L10+1
 215 0038 07010000 		.word	.L9+1
 216 003c 29010000 		.word	.L8+1
 217 0040 5B010000 		.word	.L7+1
 218 0044 77010000 		.word	.L6+1
 219 0048 97010000 		.word	.L4+1
 220              		.p2align 1
 221              	.L16:
 222              		.loc 1 94 7
 223 004c 039B     		ldr	r3, [sp, #12]
 224 004e 4022     		movs	r2, #64
 225 0050 6B21     		movs	r1, #107
 226 0052 0298     		ldr	r0, [sp, #8]
 227 0054 9847     		blx	r3
 228              	.LVL0:
ARM GAS  /tmp/ccZm62RO.s 			page 5


 229              		.loc 1 95 13
 230 0056 019B     		ldr	r3, [sp, #4]
 231 0058 5B7A     		ldrb	r3, [r3, #9]	@ zero_extendqisi2
 232              		.loc 1 95 26
 233 005a 0133     		adds	r3, r3, #1
 234 005c DAB2     		uxtb	r2, r3
 235 005e 019B     		ldr	r3, [sp, #4]
 236 0060 5A72     		strb	r2, [r3, #9]
 237              		.loc 1 96 7
 238 0062 9FE0     		b	.L17
 239              	.L15:
 240              		.loc 1 99 7
 241 0064 039B     		ldr	r3, [sp, #12]
 242 0066 0722     		movs	r2, #7
 243 0068 6A21     		movs	r1, #106
 244 006a 0298     		ldr	r0, [sp, #8]
 245 006c 9847     		blx	r3
 246              	.LVL1:
 247              		.loc 1 102 13
 248 006e 019B     		ldr	r3, [sp, #4]
 249 0070 5B7A     		ldrb	r3, [r3, #9]	@ zero_extendqisi2
 250              		.loc 1 102 26
 251 0072 0133     		adds	r3, r3, #1
 252 0074 DAB2     		uxtb	r2, r3
 253 0076 019B     		ldr	r3, [sp, #4]
 254 0078 5A72     		strb	r2, [r3, #9]
 255              		.loc 1 103 7
 256 007a 93E0     		b	.L17
 257              	.L14:
 258              		.loc 1 106 7
 259 007c 019B     		ldr	r3, [sp, #4]
 260 007e DA79     		ldrb	r2, [r3, #7]	@ zero_extendqisi2
 261 0080 039B     		ldr	r3, [sp, #12]
 262 0082 6B21     		movs	r1, #107
 263 0084 0298     		ldr	r0, [sp, #8]
 264 0086 9847     		blx	r3
 265              	.LVL2:
 266              		.loc 1 107 13
 267 0088 019B     		ldr	r3, [sp, #4]
 268 008a 5B7A     		ldrb	r3, [r3, #9]	@ zero_extendqisi2
 269              		.loc 1 107 26
 270 008c 0133     		adds	r3, r3, #1
 271 008e DAB2     		uxtb	r2, r3
 272 0090 019B     		ldr	r3, [sp, #4]
 273 0092 5A72     		strb	r2, [r3, #9]
 274              		.loc 1 108 7
 275 0094 86E0     		b	.L17
 276              	.L13:
 277              		.loc 1 111 7
 278 0096 019B     		ldr	r3, [sp, #4]
 279 0098 5A78     		ldrb	r2, [r3, #1]	@ zero_extendqisi2
 280 009a 039B     		ldr	r3, [sp, #12]
 281 009c 1921     		movs	r1, #25
 282 009e 0298     		ldr	r0, [sp, #8]
 283 00a0 9847     		blx	r3
 284              	.LVL3:
 285              		.loc 1 112 13
ARM GAS  /tmp/ccZm62RO.s 			page 6


 286 00a2 019B     		ldr	r3, [sp, #4]
 287 00a4 5B7A     		ldrb	r3, [r3, #9]	@ zero_extendqisi2
 288              		.loc 1 112 26
 289 00a6 0133     		adds	r3, r3, #1
 290 00a8 DAB2     		uxtb	r2, r3
 291 00aa 019B     		ldr	r3, [sp, #4]
 292 00ac 5A72     		strb	r2, [r3, #9]
 293              		.loc 1 113 7
 294 00ae 79E0     		b	.L17
 295              	.L12:
 296              		.loc 1 116 46
 297 00b0 019B     		ldr	r3, [sp, #4]
 298 00b2 9A78     		ldrb	r2, [r3, #2]	@ zero_extendqisi2
 299              		.loc 1 116 7
 300 00b4 039B     		ldr	r3, [sp, #12]
 301 00b6 1A21     		movs	r1, #26
 302 00b8 0298     		ldr	r0, [sp, #8]
 303 00ba 9847     		blx	r3
 304              	.LVL4:
 305              		.loc 1 117 13
 306 00bc 019B     		ldr	r3, [sp, #4]
 307 00be 5B7A     		ldrb	r3, [r3, #9]	@ zero_extendqisi2
 308              		.loc 1 117 26
 309 00c0 0133     		adds	r3, r3, #1
 310 00c2 DAB2     		uxtb	r2, r3
 311 00c4 019B     		ldr	r3, [sp, #4]
 312 00c6 5A72     		strb	r2, [r3, #9]
 313              		.loc 1 118 7
 314 00c8 6CE0     		b	.L17
 315              	.L11:
 316              		.loc 1 121 52
 317 00ca 019B     		ldr	r3, [sp, #4]
 318 00cc 1B79     		ldrb	r3, [r3, #4]	@ zero_extendqisi2
 319              		.loc 1 121 7
 320 00ce DB00     		lsls	r3, r3, #3
 321 00d0 DAB2     		uxtb	r2, r3
 322 00d2 039B     		ldr	r3, [sp, #12]
 323 00d4 1B21     		movs	r1, #27
 324 00d6 0298     		ldr	r0, [sp, #8]
 325 00d8 9847     		blx	r3
 326              	.LVL5:
 327              		.loc 1 122 13
 328 00da 019B     		ldr	r3, [sp, #4]
 329 00dc 5B7A     		ldrb	r3, [r3, #9]	@ zero_extendqisi2
 330              		.loc 1 122 26
 331 00de 0133     		adds	r3, r3, #1
 332 00e0 DAB2     		uxtb	r2, r3
 333 00e2 019B     		ldr	r3, [sp, #4]
 334 00e4 5A72     		strb	r2, [r3, #9]
 335              		.loc 1 123 7
 336 00e6 5DE0     		b	.L17
 337              	.L10:
 338              		.loc 1 126 53
 339 00e8 019B     		ldr	r3, [sp, #4]
 340 00ea 5B79     		ldrb	r3, [r3, #5]	@ zero_extendqisi2
 341              		.loc 1 126 7
 342 00ec DB00     		lsls	r3, r3, #3
ARM GAS  /tmp/ccZm62RO.s 			page 7


 343 00ee DAB2     		uxtb	r2, r3
 344 00f0 039B     		ldr	r3, [sp, #12]
 345 00f2 1C21     		movs	r1, #28
 346 00f4 0298     		ldr	r0, [sp, #8]
 347 00f6 9847     		blx	r3
 348              	.LVL6:
 349              		.loc 1 127 13
 350 00f8 019B     		ldr	r3, [sp, #4]
 351 00fa 5B7A     		ldrb	r3, [r3, #9]	@ zero_extendqisi2
 352              		.loc 1 127 26
 353 00fc 0133     		adds	r3, r3, #1
 354 00fe DAB2     		uxtb	r2, r3
 355 0100 019B     		ldr	r3, [sp, #4]
 356 0102 5A72     		strb	r2, [r3, #9]
 357              		.loc 1 128 7
 358 0104 4EE0     		b	.L17
 359              	.L9:
 360              		.loc 1 131 17
 361 0106 019B     		ldr	r3, [sp, #4]
 362 0108 1B78     		ldrb	r3, [r3]	@ zero_extendqisi2
 363              		.loc 1 131 10
 364 010a 002B     		cmp	r3, #0
 365 010c 05D0     		beq	.L18
 366              		.loc 1 132 55
 367 010e 019B     		ldr	r3, [sp, #4]
 368 0110 DA78     		ldrb	r2, [r3, #3]	@ zero_extendqisi2
 369              		.loc 1 132 9
 370 0112 039B     		ldr	r3, [sp, #12]
 371 0114 1D21     		movs	r1, #29
 372 0116 0298     		ldr	r0, [sp, #8]
 373 0118 9847     		blx	r3
 374              	.LVL7:
 375              	.L18:
 376              		.loc 1 134 13
 377 011a 019B     		ldr	r3, [sp, #4]
 378 011c 5B7A     		ldrb	r3, [r3, #9]	@ zero_extendqisi2
 379              		.loc 1 134 26
 380 011e 0133     		adds	r3, r3, #1
 381 0120 DAB2     		uxtb	r2, r3
 382 0122 019B     		ldr	r3, [sp, #4]
 383 0124 5A72     		strb	r2, [r3, #9]
 384              		.loc 1 135 7
 385 0126 3DE0     		b	.L17
 386              	.L8:
 387              		.loc 1 138 17
 388 0128 019B     		ldr	r3, [sp, #4]
 389 012a 1B7B     		ldrb	r3, [r3, #12]	@ zero_extendqisi2
 390              		.loc 1 138 10
 391 012c 002B     		cmp	r3, #0
 392 012e 0DD0     		beq	.L19
 393              		.loc 1 140 13
 394 0130 0299     		ldr	r1, [sp, #8]
 395 0132 0398     		ldr	r0, [sp, #12]
 396 0134 FFF7FEFF 		bl	mpu60x0_configure_i2c_slaves
 397 0138 0346     		mov	r3, r0
 398              		.loc 1 140 12
 399 013a 002B     		cmp	r3, #0
ARM GAS  /tmp/ccZm62RO.s 			page 8


 400 013c 31D0     		beq	.L23
 401              		.loc 1 141 17
 402 013e 019B     		ldr	r3, [sp, #4]
 403 0140 5B7A     		ldrb	r3, [r3, #9]	@ zero_extendqisi2
 404              		.loc 1 141 30
 405 0142 0133     		adds	r3, r3, #1
 406 0144 DAB2     		uxtb	r2, r3
 407 0146 019B     		ldr	r3, [sp, #4]
 408 0148 5A72     		strb	r2, [r3, #9]
 409              		.loc 1 146 7
 410 014a 2AE0     		b	.L23
 411              	.L19:
 412              		.loc 1 144 15
 413 014c 019B     		ldr	r3, [sp, #4]
 414 014e 5B7A     		ldrb	r3, [r3, #9]	@ zero_extendqisi2
 415              		.loc 1 144 28
 416 0150 0133     		adds	r3, r3, #1
 417 0152 DAB2     		uxtb	r2, r3
 418 0154 019B     		ldr	r3, [sp, #4]
 419 0156 5A72     		strb	r2, [r3, #9]
 420              		.loc 1 146 7
 421 0158 23E0     		b	.L23
 422              	.L7:
 423              		.loc 1 149 51
 424 015a 019B     		ldr	r3, [sp, #4]
 425 015c 9B79     		ldrb	r3, [r3, #6]	@ zero_extendqisi2
 426              		.loc 1 149 7
 427 015e 1A46     		mov	r2, r3
 428 0160 039B     		ldr	r3, [sp, #12]
 429 0162 3821     		movs	r1, #56
 430 0164 0298     		ldr	r0, [sp, #8]
 431 0166 9847     		blx	r3
 432              	.LVL8:
 433              		.loc 1 150 13
 434 0168 019B     		ldr	r3, [sp, #4]
 435 016a 5B7A     		ldrb	r3, [r3, #9]	@ zero_extendqisi2
 436              		.loc 1 150 26
 437 016c 0133     		adds	r3, r3, #1
 438 016e DAB2     		uxtb	r2, r3
 439 0170 019B     		ldr	r3, [sp, #4]
 440 0172 5A72     		strb	r2, [r3, #9]
 441              		.loc 1 151 7
 442 0174 16E0     		b	.L17
 443              	.L6:
 444              		.loc 1 154 17
 445 0176 019B     		ldr	r3, [sp, #4]
 446 0178 1B78     		ldrb	r3, [r3]	@ zero_extendqisi2
 447              		.loc 1 154 10
 448 017a 002B     		cmp	r3, #0
 449 017c 04D0     		beq	.L21
 450              		.loc 1 155 9
 451 017e 039B     		ldr	r3, [sp, #12]
 452 0180 C922     		movs	r2, #201
 453 0182 1121     		movs	r1, #17
 454 0184 0298     		ldr	r0, [sp, #8]
 455 0186 9847     		blx	r3
 456              	.LVL9:
ARM GAS  /tmp/ccZm62RO.s 			page 9


 457              	.L21:
 458              		.loc 1 157 13
 459 0188 019B     		ldr	r3, [sp, #4]
 460 018a 5B7A     		ldrb	r3, [r3, #9]	@ zero_extendqisi2
 461              		.loc 1 157 26
 462 018c 0133     		adds	r3, r3, #1
 463 018e DAB2     		uxtb	r2, r3
 464 0190 019B     		ldr	r3, [sp, #4]
 465 0192 5A72     		strb	r2, [r3, #9]
 466              		.loc 1 158 7
 467 0194 06E0     		b	.L17
 468              	.L4:
 469              		.loc 1 160 27
 470 0196 019B     		ldr	r3, [sp, #4]
 471 0198 0122     		movs	r2, #1
 472 019a 9A72     		strb	r2, [r3, #10]
 473              		.loc 1 161 7
 474 019c 02E0     		b	.L17
 475              	.L22:
 476              		.loc 1 163 7
 477 019e 00BF     		nop
 478 01a0 00E0     		b	.L24
 479              	.L23:
 480              		.loc 1 146 7
 481 01a2 00BF     		nop
 482              	.L17:
 483              	.L24:
 484              		.loc 1 165 1
 485 01a4 00BF     		nop
 486 01a6 05B0     		add	sp, sp, #20
 487              		.cfi_def_cfa_offset 4
 488              		@ sp needed
 489 01a8 5DF804FB 		ldr	pc, [sp], #4
 490              		.cfi_endproc
 491              	.LFE22:
 492              		.size	mpu60x0_send_config, .-mpu60x0_send_config
 493              		.text
 494              	.Letext0:
 495              		.file 2 "/usr/lib/gcc/arm-none-eabi/10.3.1/include/stdint.h"
 496              		.file 3 "./math/pprz_algebra_int.h"
 497              		.file 4 "./peripherals/mpu60x0_regs.h"
 498              		.file 5 "./peripherals/mpu60x0.h"