ARM GAS  /tmp/cceRHmPh.s 			page 1


   1              		.cpu cortex-m4
   2              		.eabi_attribute 27, 1
   3              		.eabi_attribute 20, 1
   4              		.eabi_attribute 21, 1
   5              		.eabi_attribute 23, 3
   6              		.eabi_attribute 24, 1
   7              		.eabi_attribute 25, 1
   8              		.eabi_attribute 26, 1
   9              		.eabi_attribute 30, 6
  10              		.eabi_attribute 34, 1
  11              		.eabi_attribute 18, 4
  12              		.file	"pprz_geodetic_float.c"
  13              		.text
  14              	.Ltext0:
  15              		.cfi_sections	.debug_frame
  16              		.section	.text.ltp_def_from_ecef_f,"ax",%progbits
  17              		.align	1
  18              		.p2align 4,,15
  19              		.global	ltp_def_from_ecef_f
  20              		.arch armv7e-m
  21              		.syntax unified
  22              		.thumb
  23              		.thumb_func
  24              		.fpu fpv4-sp-d16
  25              		.type	ltp_def_from_ecef_f, %function
  26              	ltp_def_from_ecef_f:
  27              	.LFB52:
  28              		.file 1 "math/pprz_geodetic_float.c"
  29              		.loc 1 37 1
  30              		.cfi_startproc
  31              		@ args = 0, pretend = 0, frame = 24
  32              		@ frame_needed = 0, uses_anonymous_args = 0
  33 0000 00B5     		push	{lr}
  34              		.cfi_def_cfa_offset 4
  35              		.cfi_offset 14, -4
  36 0002 87B0     		sub	sp, sp, #28
  37              		.cfi_def_cfa_offset 32
  38 0004 0190     		str	r0, [sp, #4]
  39 0006 0091     		str	r1, [sp]
  40              		.loc 1 39 3
  41 0008 009B     		ldr	r3, [sp]
  42 000a 1A68     		ldr	r2, [r3]	@ float
  43 000c 019B     		ldr	r3, [sp, #4]
  44 000e 1A60     		str	r2, [r3]	@ float
  45 0010 009B     		ldr	r3, [sp]
  46 0012 5A68     		ldr	r2, [r3, #4]	@ float
  47 0014 019B     		ldr	r3, [sp, #4]
  48 0016 5A60     		str	r2, [r3, #4]	@ float
  49 0018 009B     		ldr	r3, [sp]
  50 001a 9A68     		ldr	r2, [r3, #8]	@ float
  51 001c 019B     		ldr	r3, [sp, #4]
  52 001e 9A60     		str	r2, [r3, #8]	@ float
  53              		.loc 1 41 3
  54 0020 019B     		ldr	r3, [sp, #4]
  55 0022 0C33     		adds	r3, r3, #12
  56 0024 019A     		ldr	r2, [sp, #4]
  57 0026 1146     		mov	r1, r2
ARM GAS  /tmp/cceRHmPh.s 			page 2


  58 0028 1846     		mov	r0, r3
  59 002a FFF7FEFF 		bl	lla_of_ecef_f
  60              		.loc 1 43 25
  61 002e 019B     		ldr	r3, [sp, #4]
  62 0030 DB68     		ldr	r3, [r3, #12]	@ float
  63 0032 1846     		mov	r0, r3	@ float
  64 0034 FFF7FEFF 		bl	sinf
  65 0038 0590     		str	r0, [sp, #20]	@ float
  66              		.loc 1 44 25
  67 003a 019B     		ldr	r3, [sp, #4]
  68 003c DB68     		ldr	r3, [r3, #12]	@ float
  69 003e 1846     		mov	r0, r3	@ float
  70 0040 FFF7FEFF 		bl	cosf
  71 0044 0490     		str	r0, [sp, #16]	@ float
  72              		.loc 1 45 25
  73 0046 019B     		ldr	r3, [sp, #4]
  74 0048 1B69     		ldr	r3, [r3, #16]	@ float
  75 004a 1846     		mov	r0, r3	@ float
  76 004c FFF7FEFF 		bl	sinf
  77 0050 0390     		str	r0, [sp, #12]	@ float
  78              		.loc 1 46 25
  79 0052 019B     		ldr	r3, [sp, #4]
  80 0054 1B69     		ldr	r3, [r3, #16]	@ float
  81 0056 1846     		mov	r0, r3	@ float
  82 0058 FFF7FEFF 		bl	cosf
  83 005c 0290     		str	r0, [sp, #8]	@ float
  84              		.loc 1 47 27
  85 005e DDED037A 		vldr.32	s15, [sp, #12]
  86 0062 F1EE677A 		vneg.f32	s15, s15
  87              		.loc 1 47 25
  88 0066 019B     		ldr	r3, [sp, #4]
  89 0068 C3ED067A 		vstr.32	s15, [r3, #24]
  90              		.loc 1 48 25
  91 006c 019B     		ldr	r3, [sp, #4]
  92 006e 029A     		ldr	r2, [sp, #8]	@ float
  93 0070 DA61     		str	r2, [r3, #28]	@ float
  94              		.loc 1 50 25
  95 0072 019B     		ldr	r3, [sp, #4]
  96 0074 4FF00002 		mov	r2, #0
  97 0078 1A62     		str	r2, [r3, #32]	@ float
  98              		.loc 1 51 27
  99 007a DDED057A 		vldr.32	s15, [sp, #20]
 100 007e B1EE677A 		vneg.f32	s14, s15
 101              		.loc 1 51 36
 102 0082 DDED027A 		vldr.32	s15, [sp, #8]
 103 0086 67EE277A 		vmul.f32	s15, s14, s15
 104              		.loc 1 51 25
 105 008a 019B     		ldr	r3, [sp, #4]
 106 008c C3ED097A 		vstr.32	s15, [r3, #36]
 107              		.loc 1 52 27
 108 0090 DDED057A 		vldr.32	s15, [sp, #20]
 109 0094 B1EE677A 		vneg.f32	s14, s15
 110              		.loc 1 52 36
 111 0098 DDED037A 		vldr.32	s15, [sp, #12]
 112 009c 67EE277A 		vmul.f32	s15, s14, s15
 113              		.loc 1 52 25
 114 00a0 019B     		ldr	r3, [sp, #4]
ARM GAS  /tmp/cceRHmPh.s 			page 3


 115 00a2 C3ED0A7A 		vstr.32	s15, [r3, #40]
 116              		.loc 1 53 25
 117 00a6 019B     		ldr	r3, [sp, #4]
 118 00a8 049A     		ldr	r2, [sp, #16]	@ float
 119 00aa DA62     		str	r2, [r3, #44]	@ float
 120              		.loc 1 54 36
 121 00ac 9DED047A 		vldr.32	s14, [sp, #16]
 122 00b0 DDED027A 		vldr.32	s15, [sp, #8]
 123 00b4 67EE277A 		vmul.f32	s15, s14, s15
 124              		.loc 1 54 25
 125 00b8 019B     		ldr	r3, [sp, #4]
 126 00ba C3ED0C7A 		vstr.32	s15, [r3, #48]
 127              		.loc 1 55 36
 128 00be 9DED047A 		vldr.32	s14, [sp, #16]
 129 00c2 DDED037A 		vldr.32	s15, [sp, #12]
 130 00c6 67EE277A 		vmul.f32	s15, s14, s15
 131              		.loc 1 55 25
 132 00ca 019B     		ldr	r3, [sp, #4]
 133 00cc C3ED0D7A 		vstr.32	s15, [r3, #52]
 134              		.loc 1 56 25
 135 00d0 019B     		ldr	r3, [sp, #4]
 136 00d2 059A     		ldr	r2, [sp, #20]	@ float
 137 00d4 9A63     		str	r2, [r3, #56]	@ float
 138              		.loc 1 58 1
 139 00d6 00BF     		nop
 140 00d8 07B0     		add	sp, sp, #28
 141              		.cfi_def_cfa_offset 4
 142              		@ sp needed
 143 00da 5DF804FB 		ldr	pc, [sp], #4
 144              		.cfi_endproc
 145              	.LFE52:
 146              		.size	ltp_def_from_ecef_f, .-ltp_def_from_ecef_f
 147 00de 00BF     		.section	.text.ltp_def_from_lla_f,"ax",%progbits
 148              		.align	1
 149              		.p2align 4,,15
 150              		.global	ltp_def_from_lla_f
 151              		.syntax unified
 152              		.thumb
 153              		.thumb_func
 154              		.fpu fpv4-sp-d16
 155              		.type	ltp_def_from_lla_f, %function
 156              	ltp_def_from_lla_f:
 157              	.LFB53:
 158              		.loc 1 61 1
 159              		.cfi_startproc
 160              		@ args = 0, pretend = 0, frame = 24
 161              		@ frame_needed = 0, uses_anonymous_args = 0
 162 0000 00B5     		push	{lr}
 163              		.cfi_def_cfa_offset 4
 164              		.cfi_offset 14, -4
 165 0002 87B0     		sub	sp, sp, #28
 166              		.cfi_def_cfa_offset 32
 167 0004 0190     		str	r0, [sp, #4]
 168 0006 0091     		str	r1, [sp]
 169              		.loc 1 63 3
 170 0008 009B     		ldr	r3, [sp]
 171 000a 1A68     		ldr	r2, [r3]	@ float
ARM GAS  /tmp/cceRHmPh.s 			page 4


 172 000c 019B     		ldr	r3, [sp, #4]
 173 000e DA60     		str	r2, [r3, #12]	@ float
 174 0010 009B     		ldr	r3, [sp]
 175 0012 5A68     		ldr	r2, [r3, #4]	@ float
 176 0014 019B     		ldr	r3, [sp, #4]
 177 0016 1A61     		str	r2, [r3, #16]	@ float
 178 0018 009B     		ldr	r3, [sp]
 179 001a 9A68     		ldr	r2, [r3, #8]	@ float
 180 001c 019B     		ldr	r3, [sp, #4]
 181 001e 5A61     		str	r2, [r3, #20]	@ float
 182              		.loc 1 65 3
 183 0020 019A     		ldr	r2, [sp, #4]
 184 0022 019B     		ldr	r3, [sp, #4]
 185 0024 0C33     		adds	r3, r3, #12
 186 0026 1946     		mov	r1, r3
 187 0028 1046     		mov	r0, r2
 188 002a FFF7FEFF 		bl	ecef_of_lla_f
 189              		.loc 1 68 25
 190 002e 019B     		ldr	r3, [sp, #4]
 191 0030 DB68     		ldr	r3, [r3, #12]	@ float
 192 0032 1846     		mov	r0, r3	@ float
 193 0034 FFF7FEFF 		bl	sinf
 194 0038 0590     		str	r0, [sp, #20]	@ float
 195              		.loc 1 69 25
 196 003a 019B     		ldr	r3, [sp, #4]
 197 003c DB68     		ldr	r3, [r3, #12]	@ float
 198 003e 1846     		mov	r0, r3	@ float
 199 0040 FFF7FEFF 		bl	cosf
 200 0044 0490     		str	r0, [sp, #16]	@ float
 201              		.loc 1 70 25
 202 0046 019B     		ldr	r3, [sp, #4]
 203 0048 1B69     		ldr	r3, [r3, #16]	@ float
 204 004a 1846     		mov	r0, r3	@ float
 205 004c FFF7FEFF 		bl	sinf
 206 0050 0390     		str	r0, [sp, #12]	@ float
 207              		.loc 1 71 25
 208 0052 019B     		ldr	r3, [sp, #4]
 209 0054 1B69     		ldr	r3, [r3, #16]	@ float
 210 0056 1846     		mov	r0, r3	@ float
 211 0058 FFF7FEFF 		bl	cosf
 212 005c 0290     		str	r0, [sp, #8]	@ float
 213              		.loc 1 73 27
 214 005e DDED037A 		vldr.32	s15, [sp, #12]
 215 0062 F1EE677A 		vneg.f32	s15, s15
 216              		.loc 1 73 25
 217 0066 019B     		ldr	r3, [sp, #4]
 218 0068 C3ED067A 		vstr.32	s15, [r3, #24]
 219              		.loc 1 74 25
 220 006c 019B     		ldr	r3, [sp, #4]
 221 006e 029A     		ldr	r2, [sp, #8]	@ float
 222 0070 DA61     		str	r2, [r3, #28]	@ float
 223              		.loc 1 76 25
 224 0072 019B     		ldr	r3, [sp, #4]
 225 0074 4FF00002 		mov	r2, #0
 226 0078 1A62     		str	r2, [r3, #32]	@ float
 227              		.loc 1 77 27
 228 007a DDED057A 		vldr.32	s15, [sp, #20]
ARM GAS  /tmp/cceRHmPh.s 			page 5


 229 007e B1EE677A 		vneg.f32	s14, s15
 230              		.loc 1 77 36
 231 0082 DDED027A 		vldr.32	s15, [sp, #8]
 232 0086 67EE277A 		vmul.f32	s15, s14, s15
 233              		.loc 1 77 25
 234 008a 019B     		ldr	r3, [sp, #4]
 235 008c C3ED097A 		vstr.32	s15, [r3, #36]
 236              		.loc 1 78 27
 237 0090 DDED057A 		vldr.32	s15, [sp, #20]
 238 0094 B1EE677A 		vneg.f32	s14, s15
 239              		.loc 1 78 36
 240 0098 DDED037A 		vldr.32	s15, [sp, #12]
 241 009c 67EE277A 		vmul.f32	s15, s14, s15
 242              		.loc 1 78 25
 243 00a0 019B     		ldr	r3, [sp, #4]
 244 00a2 C3ED0A7A 		vstr.32	s15, [r3, #40]
 245              		.loc 1 79 25
 246 00a6 019B     		ldr	r3, [sp, #4]
 247 00a8 049A     		ldr	r2, [sp, #16]	@ float
 248 00aa DA62     		str	r2, [r3, #44]	@ float
 249              		.loc 1 80 36
 250 00ac 9DED047A 		vldr.32	s14, [sp, #16]
 251 00b0 DDED027A 		vldr.32	s15, [sp, #8]
 252 00b4 67EE277A 		vmul.f32	s15, s14, s15
 253              		.loc 1 80 25
 254 00b8 019B     		ldr	r3, [sp, #4]
 255 00ba C3ED0C7A 		vstr.32	s15, [r3, #48]
 256              		.loc 1 81 36
 257 00be 9DED047A 		vldr.32	s14, [sp, #16]
 258 00c2 DDED037A 		vldr.32	s15, [sp, #12]
 259 00c6 67EE277A 		vmul.f32	s15, s14, s15
 260              		.loc 1 81 25
 261 00ca 019B     		ldr	r3, [sp, #4]
 262 00cc C3ED0D7A 		vstr.32	s15, [r3, #52]
 263              		.loc 1 82 25
 264 00d0 019B     		ldr	r3, [sp, #4]
 265 00d2 059A     		ldr	r2, [sp, #20]	@ float
 266 00d4 9A63     		str	r2, [r3, #56]	@ float
 267              		.loc 1 83 1
 268 00d6 00BF     		nop
 269 00d8 07B0     		add	sp, sp, #28
 270              		.cfi_def_cfa_offset 4
 271              		@ sp needed
 272 00da 5DF804FB 		ldr	pc, [sp], #4
 273              		.cfi_endproc
 274              	.LFE53:
 275              		.size	ltp_def_from_lla_f, .-ltp_def_from_lla_f
 276 00de 00BF     		.section	.text.enu_of_ecef_point_f,"ax",%progbits
 277              		.align	1
 278              		.p2align 4,,15
 279              		.global	enu_of_ecef_point_f
 280              		.syntax unified
 281              		.thumb
 282              		.thumb_func
 283              		.fpu fpv4-sp-d16
 284              		.type	enu_of_ecef_point_f, %function
 285              	enu_of_ecef_point_f:
ARM GAS  /tmp/cceRHmPh.s 			page 6


 286              	.LFB54:
 287              		.loc 1 86 1
 288              		.cfi_startproc
 289              		@ args = 0, pretend = 0, frame = 32
 290              		@ frame_needed = 0, uses_anonymous_args = 0
 291              		@ link register save eliminated.
 292 0000 88B0     		sub	sp, sp, #32
 293              		.cfi_def_cfa_offset 32
 294 0002 0390     		str	r0, [sp, #12]
 295 0004 0291     		str	r1, [sp, #8]
 296 0006 0192     		str	r2, [sp, #4]
 297              		.loc 1 88 3
 298 0008 019B     		ldr	r3, [sp, #4]
 299 000a 93ED007A 		vldr.32	s14, [r3]
 300 000e 029B     		ldr	r3, [sp, #8]
 301 0010 D3ED007A 		vldr.32	s15, [r3]
 302 0014 77EE677A 		vsub.f32	s15, s14, s15
 303 0018 CDED057A 		vstr.32	s15, [sp, #20]
 304 001c 019B     		ldr	r3, [sp, #4]
 305 001e 93ED017A 		vldr.32	s14, [r3, #4]
 306 0022 029B     		ldr	r3, [sp, #8]
 307 0024 D3ED017A 		vldr.32	s15, [r3, #4]
 308 0028 77EE677A 		vsub.f32	s15, s14, s15
 309 002c CDED067A 		vstr.32	s15, [sp, #24]
 310 0030 019B     		ldr	r3, [sp, #4]
 311 0032 93ED027A 		vldr.32	s14, [r3, #8]
 312 0036 029B     		ldr	r3, [sp, #8]
 313 0038 D3ED027A 		vldr.32	s15, [r3, #8]
 314 003c 77EE677A 		vsub.f32	s15, s14, s15
 315 0040 CDED077A 		vstr.32	s15, [sp, #28]
 316              		.loc 1 89 3
 317 0044 029B     		ldr	r3, [sp, #8]
 318 0046 93ED067A 		vldr.32	s14, [r3, #24]
 319 004a DDED057A 		vldr.32	s15, [sp, #20]
 320 004e 27EE277A 		vmul.f32	s14, s14, s15
 321 0052 029B     		ldr	r3, [sp, #8]
 322 0054 D3ED076A 		vldr.32	s13, [r3, #28]
 323 0058 DDED067A 		vldr.32	s15, [sp, #24]
 324 005c 66EEA77A 		vmul.f32	s15, s13, s15
 325 0060 37EE277A 		vadd.f32	s14, s14, s15
 326 0064 029B     		ldr	r3, [sp, #8]
 327 0066 D3ED086A 		vldr.32	s13, [r3, #32]
 328 006a DDED077A 		vldr.32	s15, [sp, #28]
 329 006e 66EEA77A 		vmul.f32	s15, s13, s15
 330 0072 77EE277A 		vadd.f32	s15, s14, s15
 331 0076 039B     		ldr	r3, [sp, #12]
 332 0078 C3ED007A 		vstr.32	s15, [r3]
 333 007c 029B     		ldr	r3, [sp, #8]
 334 007e 93ED097A 		vldr.32	s14, [r3, #36]
 335 0082 DDED057A 		vldr.32	s15, [sp, #20]
 336 0086 27EE277A 		vmul.f32	s14, s14, s15
 337 008a 029B     		ldr	r3, [sp, #8]
 338 008c D3ED0A6A 		vldr.32	s13, [r3, #40]
 339 0090 DDED067A 		vldr.32	s15, [sp, #24]
 340 0094 66EEA77A 		vmul.f32	s15, s13, s15
 341 0098 37EE277A 		vadd.f32	s14, s14, s15
 342 009c 029B     		ldr	r3, [sp, #8]
ARM GAS  /tmp/cceRHmPh.s 			page 7


 343 009e D3ED0B6A 		vldr.32	s13, [r3, #44]
 344 00a2 DDED077A 		vldr.32	s15, [sp, #28]
 345 00a6 66EEA77A 		vmul.f32	s15, s13, s15
 346 00aa 77EE277A 		vadd.f32	s15, s14, s15
 347 00ae 039B     		ldr	r3, [sp, #12]
 348 00b0 C3ED017A 		vstr.32	s15, [r3, #4]
 349 00b4 029B     		ldr	r3, [sp, #8]
 350 00b6 93ED0C7A 		vldr.32	s14, [r3, #48]
 351 00ba DDED057A 		vldr.32	s15, [sp, #20]
 352 00be 27EE277A 		vmul.f32	s14, s14, s15
 353 00c2 029B     		ldr	r3, [sp, #8]
 354 00c4 D3ED0D6A 		vldr.32	s13, [r3, #52]
 355 00c8 DDED067A 		vldr.32	s15, [sp, #24]
 356 00cc 66EEA77A 		vmul.f32	s15, s13, s15
 357 00d0 37EE277A 		vadd.f32	s14, s14, s15
 358 00d4 029B     		ldr	r3, [sp, #8]
 359 00d6 D3ED0E6A 		vldr.32	s13, [r3, #56]
 360 00da DDED077A 		vldr.32	s15, [sp, #28]
 361 00de 66EEA77A 		vmul.f32	s15, s13, s15
 362 00e2 77EE277A 		vadd.f32	s15, s14, s15
 363 00e6 039B     		ldr	r3, [sp, #12]
 364 00e8 C3ED027A 		vstr.32	s15, [r3, #8]
 365              		.loc 1 90 1
 366 00ec 00BF     		nop
 367 00ee 08B0     		add	sp, sp, #32
 368              		.cfi_def_cfa_offset 0
 369              		@ sp needed
 370 00f0 7047     		bx	lr
 371              		.cfi_endproc
 372              	.LFE54:
 373              		.size	enu_of_ecef_point_f, .-enu_of_ecef_point_f
 374 00f2 00BF     		.section	.text.ned_of_ecef_point_f,"ax",%progbits
 375              		.align	1
 376              		.p2align 4,,15
 377              		.global	ned_of_ecef_point_f
 378              		.syntax unified
 379              		.thumb
 380              		.thumb_func
 381              		.fpu fpv4-sp-d16
 382              		.type	ned_of_ecef_point_f, %function
 383              	ned_of_ecef_point_f:
 384              	.LFB55:
 385              		.loc 1 93 1
 386              		.cfi_startproc
 387              		@ args = 0, pretend = 0, frame = 32
 388              		@ frame_needed = 0, uses_anonymous_args = 0
 389 0000 00B5     		push	{lr}
 390              		.cfi_def_cfa_offset 4
 391              		.cfi_offset 14, -4
 392 0002 89B0     		sub	sp, sp, #36
 393              		.cfi_def_cfa_offset 40
 394 0004 0390     		str	r0, [sp, #12]
 395 0006 0291     		str	r1, [sp, #8]
 396 0008 0192     		str	r2, [sp, #4]
 397              		.loc 1 95 3
 398 000a 05AB     		add	r3, sp, #20
 399 000c 019A     		ldr	r2, [sp, #4]
ARM GAS  /tmp/cceRHmPh.s 			page 8


 400 000e 0299     		ldr	r1, [sp, #8]
 401 0010 1846     		mov	r0, r3
 402 0012 FFF7FEFF 		bl	enu_of_ecef_point_f
 403              		.loc 1 96 3
 404 0016 069A     		ldr	r2, [sp, #24]	@ float
 405 0018 039B     		ldr	r3, [sp, #12]
 406 001a 1A60     		str	r2, [r3]	@ float
 407 001c 059A     		ldr	r2, [sp, #20]	@ float
 408 001e 039B     		ldr	r3, [sp, #12]
 409 0020 5A60     		str	r2, [r3, #4]	@ float
 410 0022 DDED077A 		vldr.32	s15, [sp, #28]
 411 0026 F1EE677A 		vneg.f32	s15, s15
 412 002a 039B     		ldr	r3, [sp, #12]
 413 002c C3ED027A 		vstr.32	s15, [r3, #8]
 414              		.loc 1 97 1
 415 0030 00BF     		nop
 416 0032 09B0     		add	sp, sp, #36
 417              		.cfi_def_cfa_offset 4
 418              		@ sp needed
 419 0034 5DF804FB 		ldr	pc, [sp], #4
 420              		.cfi_endproc
 421              	.LFE55:
 422              		.size	ned_of_ecef_point_f, .-ned_of_ecef_point_f
 423              		.section	.text.enu_of_ecef_vect_f,"ax",%progbits
 424              		.align	1
 425              		.p2align 4,,15
 426              		.global	enu_of_ecef_vect_f
 427              		.syntax unified
 428              		.thumb
 429              		.thumb_func
 430              		.fpu fpv4-sp-d16
 431              		.type	enu_of_ecef_vect_f, %function
 432              	enu_of_ecef_vect_f:
 433              	.LFB56:
 434              		.loc 1 101 1
 435              		.cfi_startproc
 436              		@ args = 0, pretend = 0, frame = 16
 437              		@ frame_needed = 0, uses_anonymous_args = 0
 438              		@ link register save eliminated.
 439 0000 84B0     		sub	sp, sp, #16
 440              		.cfi_def_cfa_offset 16
 441 0002 0390     		str	r0, [sp, #12]
 442 0004 0291     		str	r1, [sp, #8]
 443 0006 0192     		str	r2, [sp, #4]
 444              		.loc 1 102 3
 445 0008 029B     		ldr	r3, [sp, #8]
 446 000a 93ED067A 		vldr.32	s14, [r3, #24]
 447 000e 019B     		ldr	r3, [sp, #4]
 448 0010 D3ED007A 		vldr.32	s15, [r3]
 449 0014 27EE277A 		vmul.f32	s14, s14, s15
 450 0018 029B     		ldr	r3, [sp, #8]
 451 001a D3ED076A 		vldr.32	s13, [r3, #28]
 452 001e 019B     		ldr	r3, [sp, #4]
 453 0020 D3ED017A 		vldr.32	s15, [r3, #4]
 454 0024 66EEA77A 		vmul.f32	s15, s13, s15
 455 0028 37EE277A 		vadd.f32	s14, s14, s15
 456 002c 029B     		ldr	r3, [sp, #8]
ARM GAS  /tmp/cceRHmPh.s 			page 9


 457 002e D3ED086A 		vldr.32	s13, [r3, #32]
 458 0032 019B     		ldr	r3, [sp, #4]
 459 0034 D3ED027A 		vldr.32	s15, [r3, #8]
 460 0038 66EEA77A 		vmul.f32	s15, s13, s15
 461 003c 77EE277A 		vadd.f32	s15, s14, s15
 462 0040 039B     		ldr	r3, [sp, #12]
 463 0042 C3ED007A 		vstr.32	s15, [r3]
 464 0046 029B     		ldr	r3, [sp, #8]
 465 0048 93ED097A 		vldr.32	s14, [r3, #36]
 466 004c 019B     		ldr	r3, [sp, #4]
 467 004e D3ED007A 		vldr.32	s15, [r3]
 468 0052 27EE277A 		vmul.f32	s14, s14, s15
 469 0056 029B     		ldr	r3, [sp, #8]
 470 0058 D3ED0A6A 		vldr.32	s13, [r3, #40]
 471 005c 019B     		ldr	r3, [sp, #4]
 472 005e D3ED017A 		vldr.32	s15, [r3, #4]
 473 0062 66EEA77A 		vmul.f32	s15, s13, s15
 474 0066 37EE277A 		vadd.f32	s14, s14, s15
 475 006a 029B     		ldr	r3, [sp, #8]
 476 006c D3ED0B6A 		vldr.32	s13, [r3, #44]
 477 0070 019B     		ldr	r3, [sp, #4]
 478 0072 D3ED027A 		vldr.32	s15, [r3, #8]
 479 0076 66EEA77A 		vmul.f32	s15, s13, s15
 480 007a 77EE277A 		vadd.f32	s15, s14, s15
 481 007e 039B     		ldr	r3, [sp, #12]
 482 0080 C3ED017A 		vstr.32	s15, [r3, #4]
 483 0084 029B     		ldr	r3, [sp, #8]
 484 0086 93ED0C7A 		vldr.32	s14, [r3, #48]
 485 008a 019B     		ldr	r3, [sp, #4]
 486 008c D3ED007A 		vldr.32	s15, [r3]
 487 0090 27EE277A 		vmul.f32	s14, s14, s15
 488 0094 029B     		ldr	r3, [sp, #8]
 489 0096 D3ED0D6A 		vldr.32	s13, [r3, #52]
 490 009a 019B     		ldr	r3, [sp, #4]
 491 009c D3ED017A 		vldr.32	s15, [r3, #4]
 492 00a0 66EEA77A 		vmul.f32	s15, s13, s15
 493 00a4 37EE277A 		vadd.f32	s14, s14, s15
 494 00a8 029B     		ldr	r3, [sp, #8]
 495 00aa D3ED0E6A 		vldr.32	s13, [r3, #56]
 496 00ae 019B     		ldr	r3, [sp, #4]
 497 00b0 D3ED027A 		vldr.32	s15, [r3, #8]
 498 00b4 66EEA77A 		vmul.f32	s15, s13, s15
 499 00b8 77EE277A 		vadd.f32	s15, s14, s15
 500 00bc 039B     		ldr	r3, [sp, #12]
 501 00be C3ED027A 		vstr.32	s15, [r3, #8]
 502              		.loc 1 103 1
 503 00c2 00BF     		nop
 504 00c4 04B0     		add	sp, sp, #16
 505              		.cfi_def_cfa_offset 0
 506              		@ sp needed
 507 00c6 7047     		bx	lr
 508              		.cfi_endproc
 509              	.LFE56:
 510              		.size	enu_of_ecef_vect_f, .-enu_of_ecef_vect_f
 511              		.section	.text.ned_of_ecef_vect_f,"ax",%progbits
 512              		.align	1
 513              		.p2align 4,,15
ARM GAS  /tmp/cceRHmPh.s 			page 10


 514              		.global	ned_of_ecef_vect_f
 515              		.syntax unified
 516              		.thumb
 517              		.thumb_func
 518              		.fpu fpv4-sp-d16
 519              		.type	ned_of_ecef_vect_f, %function
 520              	ned_of_ecef_vect_f:
 521              	.LFB57:
 522              		.loc 1 106 1
 523              		.cfi_startproc
 524              		@ args = 0, pretend = 0, frame = 32
 525              		@ frame_needed = 0, uses_anonymous_args = 0
 526 0000 00B5     		push	{lr}
 527              		.cfi_def_cfa_offset 4
 528              		.cfi_offset 14, -4
 529 0002 89B0     		sub	sp, sp, #36
 530              		.cfi_def_cfa_offset 40
 531 0004 0390     		str	r0, [sp, #12]
 532 0006 0291     		str	r1, [sp, #8]
 533 0008 0192     		str	r2, [sp, #4]
 534              		.loc 1 108 3
 535 000a 05AB     		add	r3, sp, #20
 536 000c 019A     		ldr	r2, [sp, #4]
 537 000e 0299     		ldr	r1, [sp, #8]
 538 0010 1846     		mov	r0, r3
 539 0012 FFF7FEFF 		bl	enu_of_ecef_vect_f
 540              		.loc 1 109 3
 541 0016 069A     		ldr	r2, [sp, #24]	@ float
 542 0018 039B     		ldr	r3, [sp, #12]
 543 001a 1A60     		str	r2, [r3]	@ float
 544 001c 059A     		ldr	r2, [sp, #20]	@ float
 545 001e 039B     		ldr	r3, [sp, #12]
 546 0020 5A60     		str	r2, [r3, #4]	@ float
 547 0022 DDED077A 		vldr.32	s15, [sp, #28]
 548 0026 F1EE677A 		vneg.f32	s15, s15
 549 002a 039B     		ldr	r3, [sp, #12]
 550 002c C3ED027A 		vstr.32	s15, [r3, #8]
 551              		.loc 1 110 1
 552 0030 00BF     		nop
 553 0032 09B0     		add	sp, sp, #36
 554              		.cfi_def_cfa_offset 4
 555              		@ sp needed
 556 0034 5DF804FB 		ldr	pc, [sp], #4
 557              		.cfi_endproc
 558              	.LFE57:
 559              		.size	ned_of_ecef_vect_f, .-ned_of_ecef_vect_f
 560              		.section	.text.enu_of_lla_point_f,"ax",%progbits
 561              		.align	1
 562              		.p2align 4,,15
 563              		.global	enu_of_lla_point_f
 564              		.syntax unified
 565              		.thumb
 566              		.thumb_func
 567              		.fpu fpv4-sp-d16
 568              		.type	enu_of_lla_point_f, %function
 569              	enu_of_lla_point_f:
 570              	.LFB58:
ARM GAS  /tmp/cceRHmPh.s 			page 11


 571              		.loc 1 113 1
 572              		.cfi_startproc
 573              		@ args = 0, pretend = 0, frame = 32
 574              		@ frame_needed = 0, uses_anonymous_args = 0
 575 0000 00B5     		push	{lr}
 576              		.cfi_def_cfa_offset 4
 577              		.cfi_offset 14, -4
 578 0002 89B0     		sub	sp, sp, #36
 579              		.cfi_def_cfa_offset 40
 580 0004 0390     		str	r0, [sp, #12]
 581 0006 0291     		str	r1, [sp, #8]
 582 0008 0192     		str	r2, [sp, #4]
 583              		.loc 1 115 3
 584 000a 05AB     		add	r3, sp, #20
 585 000c 0199     		ldr	r1, [sp, #4]
 586 000e 1846     		mov	r0, r3
 587 0010 FFF7FEFF 		bl	ecef_of_lla_f
 588              		.loc 1 116 3
 589 0014 05AB     		add	r3, sp, #20
 590 0016 1A46     		mov	r2, r3
 591 0018 0299     		ldr	r1, [sp, #8]
 592 001a 0398     		ldr	r0, [sp, #12]
 593 001c FFF7FEFF 		bl	enu_of_ecef_point_f
 594              		.loc 1 117 1
 595 0020 00BF     		nop
 596 0022 09B0     		add	sp, sp, #36
 597              		.cfi_def_cfa_offset 4
 598              		@ sp needed
 599 0024 5DF804FB 		ldr	pc, [sp], #4
 600              		.cfi_endproc
 601              	.LFE58:
 602              		.size	enu_of_lla_point_f, .-enu_of_lla_point_f
 603              		.section	.text.ned_of_lla_point_f,"ax",%progbits
 604              		.align	1
 605              		.p2align 4,,15
 606              		.global	ned_of_lla_point_f
 607              		.syntax unified
 608              		.thumb
 609              		.thumb_func
 610              		.fpu fpv4-sp-d16
 611              		.type	ned_of_lla_point_f, %function
 612              	ned_of_lla_point_f:
 613              	.LFB59:
 614              		.loc 1 120 1
 615              		.cfi_startproc
 616              		@ args = 0, pretend = 0, frame = 32
 617              		@ frame_needed = 0, uses_anonymous_args = 0
 618 0000 00B5     		push	{lr}
 619              		.cfi_def_cfa_offset 4
 620              		.cfi_offset 14, -4
 621 0002 89B0     		sub	sp, sp, #36
 622              		.cfi_def_cfa_offset 40
 623 0004 0390     		str	r0, [sp, #12]
 624 0006 0291     		str	r1, [sp, #8]
 625 0008 0192     		str	r2, [sp, #4]
 626              		.loc 1 122 3
 627 000a 05AB     		add	r3, sp, #20
ARM GAS  /tmp/cceRHmPh.s 			page 12


 628 000c 0199     		ldr	r1, [sp, #4]
 629 000e 1846     		mov	r0, r3
 630 0010 FFF7FEFF 		bl	ecef_of_lla_f
 631              		.loc 1 123 3
 632 0014 05AB     		add	r3, sp, #20
 633 0016 1A46     		mov	r2, r3
 634 0018 0299     		ldr	r1, [sp, #8]
 635 001a 0398     		ldr	r0, [sp, #12]
 636 001c FFF7FEFF 		bl	ned_of_ecef_point_f
 637              		.loc 1 124 1
 638 0020 00BF     		nop
 639 0022 09B0     		add	sp, sp, #36
 640              		.cfi_def_cfa_offset 4
 641              		@ sp needed
 642 0024 5DF804FB 		ldr	pc, [sp], #4
 643              		.cfi_endproc
 644              	.LFE59:
 645              		.size	ned_of_lla_point_f, .-ned_of_lla_point_f
 646              		.global	__aeabi_f2d
 647              		.global	__aeabi_dmul
 648              		.global	__aeabi_dadd
 649              		.global	__aeabi_d2f
 650              		.section	.text.ecef_of_enu_point_f,"ax",%progbits
 651              		.align	1
 652              		.p2align 4,,15
 653              		.global	ecef_of_enu_point_f
 654              		.syntax unified
 655              		.thumb
 656              		.thumb_func
 657              		.fpu fpv4-sp-d16
 658              		.type	ecef_of_enu_point_f, %function
 659              	ecef_of_enu_point_f:
 660              	.LFB60:
 661              		.loc 1 130 1
 662              		.cfi_startproc
 663              		@ args = 0, pretend = 0, frame = 128
 664              		@ frame_needed = 0, uses_anonymous_args = 0
 665 0000 F0B5     		push	{r4, r5, r6, r7, lr}
 666              		.cfi_def_cfa_offset 20
 667              		.cfi_offset 4, -20
 668              		.cfi_offset 5, -16
 669              		.cfi_offset 6, -12
 670              		.cfi_offset 7, -8
 671              		.cfi_offset 14, -4
 672 0002 A1B0     		sub	sp, sp, #132
 673              		.cfi_def_cfa_offset 152
 674 0004 0390     		str	r0, [sp, #12]
 675 0006 0291     		str	r1, [sp, #8]
 676 0008 0192     		str	r2, [sp, #4]
 677              		.loc 1 133 51
 678 000a 029B     		ldr	r3, [sp, #8]
 679 000c 9B69     		ldr	r3, [r3, #24]	@ float
 680              		.loc 1 133 24
 681 000e 1846     		mov	r0, r3	@ float
 682 0010 FFF7FEFF 		bl	__aeabi_f2d
 683 0014 0246     		mov	r2, r0
 684 0016 0B46     		mov	r3, r1
ARM GAS  /tmp/cceRHmPh.s 			page 13


 685              		.loc 1 133 22
 686 0018 CDE90E23 		strd	r2, [sp, #56]
 687              		.loc 1 134 51
 688 001c 029B     		ldr	r3, [sp, #8]
 689 001e DB69     		ldr	r3, [r3, #28]	@ float
 690              		.loc 1 134 24
 691 0020 1846     		mov	r0, r3	@ float
 692 0022 FFF7FEFF 		bl	__aeabi_f2d
 693 0026 0246     		mov	r2, r0
 694 0028 0B46     		mov	r3, r1
 695              		.loc 1 134 22
 696 002a CDE91023 		strd	r2, [sp, #64]
 697              		.loc 1 135 51
 698 002e 029B     		ldr	r3, [sp, #8]
 699 0030 1B6A     		ldr	r3, [r3, #32]	@ float
 700              		.loc 1 135 24
 701 0032 1846     		mov	r0, r3	@ float
 702 0034 FFF7FEFF 		bl	__aeabi_f2d
 703 0038 0246     		mov	r2, r0
 704 003a 0B46     		mov	r3, r1
 705              		.loc 1 135 22
 706 003c CDE91223 		strd	r2, [sp, #72]
 707              		.loc 1 136 51
 708 0040 029B     		ldr	r3, [sp, #8]
 709 0042 5B6A     		ldr	r3, [r3, #36]	@ float
 710              		.loc 1 136 24
 711 0044 1846     		mov	r0, r3	@ float
 712 0046 FFF7FEFF 		bl	__aeabi_f2d
 713 004a 0246     		mov	r2, r0
 714 004c 0B46     		mov	r3, r1
 715              		.loc 1 136 22
 716 004e CDE91423 		strd	r2, [sp, #80]
 717              		.loc 1 137 51
 718 0052 029B     		ldr	r3, [sp, #8]
 719 0054 9B6A     		ldr	r3, [r3, #40]	@ float
 720              		.loc 1 137 24
 721 0056 1846     		mov	r0, r3	@ float
 722 0058 FFF7FEFF 		bl	__aeabi_f2d
 723 005c 0246     		mov	r2, r0
 724 005e 0B46     		mov	r3, r1
 725              		.loc 1 137 22
 726 0060 CDE91623 		strd	r2, [sp, #88]
 727              		.loc 1 138 51
 728 0064 029B     		ldr	r3, [sp, #8]
 729 0066 DB6A     		ldr	r3, [r3, #44]	@ float
 730              		.loc 1 138 24
 731 0068 1846     		mov	r0, r3	@ float
 732 006a FFF7FEFF 		bl	__aeabi_f2d
 733 006e 0246     		mov	r2, r0
 734 0070 0B46     		mov	r3, r1
 735              		.loc 1 138 22
 736 0072 CDE91823 		strd	r2, [sp, #96]
 737              		.loc 1 139 51
 738 0076 029B     		ldr	r3, [sp, #8]
 739 0078 1B6B     		ldr	r3, [r3, #48]	@ float
 740              		.loc 1 139 24
 741 007a 1846     		mov	r0, r3	@ float
ARM GAS  /tmp/cceRHmPh.s 			page 14


 742 007c FFF7FEFF 		bl	__aeabi_f2d
 743 0080 0246     		mov	r2, r0
 744 0082 0B46     		mov	r3, r1
 745              		.loc 1 139 22
 746 0084 CDE91A23 		strd	r2, [sp, #104]
 747              		.loc 1 140 51
 748 0088 029B     		ldr	r3, [sp, #8]
 749 008a 5B6B     		ldr	r3, [r3, #52]	@ float
 750              		.loc 1 140 24
 751 008c 1846     		mov	r0, r3	@ float
 752 008e FFF7FEFF 		bl	__aeabi_f2d
 753 0092 0246     		mov	r2, r0
 754 0094 0B46     		mov	r3, r1
 755              		.loc 1 140 22
 756 0096 CDE91C23 		strd	r2, [sp, #112]
 757              		.loc 1 141 51
 758 009a 029B     		ldr	r3, [sp, #8]
 759 009c 9B6B     		ldr	r3, [r3, #56]	@ float
 760              		.loc 1 141 24
 761 009e 1846     		mov	r0, r3	@ float
 762 00a0 FFF7FEFF 		bl	__aeabi_f2d
 763 00a4 0246     		mov	r2, r0
 764 00a6 0B46     		mov	r3, r1
 765              		.loc 1 141 22
 766 00a8 CDE91E23 		strd	r2, [sp, #120]
 767              		.loc 1 143 25
 768 00ac 019B     		ldr	r3, [sp, #4]
 769 00ae 1B68     		ldr	r3, [r3]	@ float
 770              		.loc 1 143 11
 771 00b0 0B93     		str	r3, [sp, #44]	@ float
 772              		.loc 1 144 25
 773 00b2 019B     		ldr	r3, [sp, #4]
 774 00b4 5B68     		ldr	r3, [r3, #4]	@ float
 775              		.loc 1 144 11
 776 00b6 0C93     		str	r3, [sp, #48]	@ float
 777              		.loc 1 145 25
 778 00b8 019B     		ldr	r3, [sp, #4]
 779 00ba 9B68     		ldr	r3, [r3, #8]	@ float
 780              		.loc 1 145 11
 781 00bc 0D93     		str	r3, [sp, #52]	@ float
 782              		.loc 1 149 3
 783 00be DDE90E45 		ldrd	r4, [sp, #56]
 784 00c2 0B9B     		ldr	r3, [sp, #44]	@ float
 785 00c4 1846     		mov	r0, r3	@ float
 786 00c6 FFF7FEFF 		bl	__aeabi_f2d
 787 00ca 0246     		mov	r2, r0
 788 00cc 0B46     		mov	r3, r1
 789 00ce 2046     		mov	r0, r4
 790 00d0 2946     		mov	r1, r5
 791 00d2 FFF7FEFF 		bl	__aeabi_dmul
 792 00d6 0246     		mov	r2, r0
 793 00d8 0B46     		mov	r3, r1
 794 00da 1646     		mov	r6, r2
 795 00dc 1F46     		mov	r7, r3
 796 00de DDE91445 		ldrd	r4, [sp, #80]
 797 00e2 0C9B     		ldr	r3, [sp, #48]	@ float
 798 00e4 1846     		mov	r0, r3	@ float
ARM GAS  /tmp/cceRHmPh.s 			page 15


 799 00e6 FFF7FEFF 		bl	__aeabi_f2d
 800 00ea 0246     		mov	r2, r0
 801 00ec 0B46     		mov	r3, r1
 802 00ee 2046     		mov	r0, r4
 803 00f0 2946     		mov	r1, r5
 804 00f2 FFF7FEFF 		bl	__aeabi_dmul
 805 00f6 0246     		mov	r2, r0
 806 00f8 0B46     		mov	r3, r1
 807 00fa 3046     		mov	r0, r6
 808 00fc 3946     		mov	r1, r7
 809 00fe FFF7FEFF 		bl	__aeabi_dadd
 810 0102 0246     		mov	r2, r0
 811 0104 0B46     		mov	r3, r1
 812 0106 1646     		mov	r6, r2
 813 0108 1F46     		mov	r7, r3
 814 010a DDE91A45 		ldrd	r4, [sp, #104]
 815 010e 0D9B     		ldr	r3, [sp, #52]	@ float
 816 0110 1846     		mov	r0, r3	@ float
 817 0112 FFF7FEFF 		bl	__aeabi_f2d
 818 0116 0246     		mov	r2, r0
 819 0118 0B46     		mov	r3, r1
 820 011a 2046     		mov	r0, r4
 821 011c 2946     		mov	r1, r5
 822 011e FFF7FEFF 		bl	__aeabi_dmul
 823 0122 0246     		mov	r2, r0
 824 0124 0B46     		mov	r3, r1
 825 0126 3046     		mov	r0, r6
 826 0128 3946     		mov	r1, r7
 827 012a FFF7FEFF 		bl	__aeabi_dadd
 828 012e 0246     		mov	r2, r0
 829 0130 0B46     		mov	r3, r1
 830 0132 CDE90423 		strd	r2, [sp, #16]
 831 0136 DDE91045 		ldrd	r4, [sp, #64]
 832 013a 0B9B     		ldr	r3, [sp, #44]	@ float
 833 013c 1846     		mov	r0, r3	@ float
 834 013e FFF7FEFF 		bl	__aeabi_f2d
 835 0142 0246     		mov	r2, r0
 836 0144 0B46     		mov	r3, r1
 837 0146 2046     		mov	r0, r4
 838 0148 2946     		mov	r1, r5
 839 014a FFF7FEFF 		bl	__aeabi_dmul
 840 014e 0246     		mov	r2, r0
 841 0150 0B46     		mov	r3, r1
 842 0152 1646     		mov	r6, r2
 843 0154 1F46     		mov	r7, r3
 844 0156 DDE91645 		ldrd	r4, [sp, #88]
 845 015a 0C9B     		ldr	r3, [sp, #48]	@ float
 846 015c 1846     		mov	r0, r3	@ float
 847 015e FFF7FEFF 		bl	__aeabi_f2d
 848 0162 0246     		mov	r2, r0
 849 0164 0B46     		mov	r3, r1
 850 0166 2046     		mov	r0, r4
 851 0168 2946     		mov	r1, r5
 852 016a FFF7FEFF 		bl	__aeabi_dmul
 853 016e 0246     		mov	r2, r0
 854 0170 0B46     		mov	r3, r1
 855 0172 3046     		mov	r0, r6
ARM GAS  /tmp/cceRHmPh.s 			page 16


 856 0174 3946     		mov	r1, r7
 857 0176 FFF7FEFF 		bl	__aeabi_dadd
 858 017a 0246     		mov	r2, r0
 859 017c 0B46     		mov	r3, r1
 860 017e 1646     		mov	r6, r2
 861 0180 1F46     		mov	r7, r3
 862 0182 DDE91C45 		ldrd	r4, [sp, #112]
 863 0186 0D9B     		ldr	r3, [sp, #52]	@ float
 864 0188 1846     		mov	r0, r3	@ float
 865 018a FFF7FEFF 		bl	__aeabi_f2d
 866 018e 0246     		mov	r2, r0
 867 0190 0B46     		mov	r3, r1
 868 0192 2046     		mov	r0, r4
 869 0194 2946     		mov	r1, r5
 870 0196 FFF7FEFF 		bl	__aeabi_dmul
 871 019a 0246     		mov	r2, r0
 872 019c 0B46     		mov	r3, r1
 873 019e 3046     		mov	r0, r6
 874 01a0 3946     		mov	r1, r7
 875 01a2 FFF7FEFF 		bl	__aeabi_dadd
 876 01a6 0246     		mov	r2, r0
 877 01a8 0B46     		mov	r3, r1
 878 01aa CDE90623 		strd	r2, [sp, #24]
 879 01ae DDE91245 		ldrd	r4, [sp, #72]
 880 01b2 0B9B     		ldr	r3, [sp, #44]	@ float
 881 01b4 1846     		mov	r0, r3	@ float
 882 01b6 FFF7FEFF 		bl	__aeabi_f2d
 883 01ba 0246     		mov	r2, r0
 884 01bc 0B46     		mov	r3, r1
 885 01be 2046     		mov	r0, r4
 886 01c0 2946     		mov	r1, r5
 887 01c2 FFF7FEFF 		bl	__aeabi_dmul
 888 01c6 0246     		mov	r2, r0
 889 01c8 0B46     		mov	r3, r1
 890 01ca 1646     		mov	r6, r2
 891 01cc 1F46     		mov	r7, r3
 892 01ce DDE91845 		ldrd	r4, [sp, #96]
 893 01d2 0C9B     		ldr	r3, [sp, #48]	@ float
 894 01d4 1846     		mov	r0, r3	@ float
 895 01d6 FFF7FEFF 		bl	__aeabi_f2d
 896 01da 0246     		mov	r2, r0
 897 01dc 0B46     		mov	r3, r1
 898 01de 2046     		mov	r0, r4
 899 01e0 2946     		mov	r1, r5
 900 01e2 FFF7FEFF 		bl	__aeabi_dmul
 901 01e6 0246     		mov	r2, r0
 902 01e8 0B46     		mov	r3, r1
 903 01ea 3046     		mov	r0, r6
 904 01ec 3946     		mov	r1, r7
 905 01ee FFF7FEFF 		bl	__aeabi_dadd
 906 01f2 0246     		mov	r2, r0
 907 01f4 0B46     		mov	r3, r1
 908 01f6 1646     		mov	r6, r2
 909 01f8 1F46     		mov	r7, r3
 910 01fa DDE91E45 		ldrd	r4, [sp, #120]
 911 01fe 0D9B     		ldr	r3, [sp, #52]	@ float
 912 0200 1846     		mov	r0, r3	@ float
ARM GAS  /tmp/cceRHmPh.s 			page 17


 913 0202 FFF7FEFF 		bl	__aeabi_f2d
 914 0206 0246     		mov	r2, r0
 915 0208 0B46     		mov	r3, r1
 916 020a 2046     		mov	r0, r4
 917 020c 2946     		mov	r1, r5
 918 020e FFF7FEFF 		bl	__aeabi_dmul
 919 0212 0246     		mov	r2, r0
 920 0214 0B46     		mov	r3, r1
 921 0216 3046     		mov	r0, r6
 922 0218 3946     		mov	r1, r7
 923 021a FFF7FEFF 		bl	__aeabi_dadd
 924 021e 0246     		mov	r2, r0
 925 0220 0B46     		mov	r3, r1
 926 0222 CDE90823 		strd	r2, [sp, #32]
 927              		.loc 1 152 27
 928 0226 DDE90423 		ldrd	r2, [sp, #16]
 929              		.loc 1 152 13
 930 022a 1046     		mov	r0, r2
 931 022c 1946     		mov	r1, r3
 932 022e FFF7FEFF 		bl	__aeabi_d2f
 933 0232 07EE100A 		vmov	s14, r0
 934              		.loc 1 152 41
 935 0236 029B     		ldr	r3, [sp, #8]
 936 0238 D3ED007A 		vldr.32	s15, [r3]
 937              		.loc 1 152 30
 938 023c 77EE277A 		vadd.f32	s15, s14, s15
 939              		.loc 1 152 11
 940 0240 039B     		ldr	r3, [sp, #12]
 941 0242 C3ED007A 		vstr.32	s15, [r3]
 942              		.loc 1 153 27
 943 0246 DDE90623 		ldrd	r2, [sp, #24]
 944              		.loc 1 153 13
 945 024a 1046     		mov	r0, r2
 946 024c 1946     		mov	r1, r3
 947 024e FFF7FEFF 		bl	__aeabi_d2f
 948 0252 07EE100A 		vmov	s14, r0
 949              		.loc 1 153 41
 950 0256 029B     		ldr	r3, [sp, #8]
 951 0258 D3ED017A 		vldr.32	s15, [r3, #4]
 952              		.loc 1 153 30
 953 025c 77EE277A 		vadd.f32	s15, s14, s15
 954              		.loc 1 153 11
 955 0260 039B     		ldr	r3, [sp, #12]
 956 0262 C3ED017A 		vstr.32	s15, [r3, #4]
 957              		.loc 1 154 27
 958 0266 DDE90823 		ldrd	r2, [sp, #32]
 959              		.loc 1 154 13
 960 026a 1046     		mov	r0, r2
 961 026c 1946     		mov	r1, r3
 962 026e FFF7FEFF 		bl	__aeabi_d2f
 963 0272 07EE100A 		vmov	s14, r0
 964              		.loc 1 154 41
 965 0276 029B     		ldr	r3, [sp, #8]
 966 0278 D3ED027A 		vldr.32	s15, [r3, #8]
 967              		.loc 1 154 30
 968 027c 77EE277A 		vadd.f32	s15, s14, s15
 969              		.loc 1 154 11
ARM GAS  /tmp/cceRHmPh.s 			page 18


 970 0280 039B     		ldr	r3, [sp, #12]
 971 0282 C3ED027A 		vstr.32	s15, [r3, #8]
 972              		.loc 1 155 1
 973 0286 00BF     		nop
 974 0288 21B0     		add	sp, sp, #132
 975              		.cfi_def_cfa_offset 20
 976              		@ sp needed
 977 028a F0BD     		pop	{r4, r5, r6, r7, pc}
 978              		.cfi_endproc
 979              	.LFE60:
 980              		.size	ecef_of_enu_point_f, .-ecef_of_enu_point_f
 981              		.section	.text.ecef_of_ned_point_f,"ax",%progbits
 982              		.align	1
 983              		.p2align 4,,15
 984              		.global	ecef_of_ned_point_f
 985              		.syntax unified
 986              		.thumb
 987              		.thumb_func
 988              		.fpu fpv4-sp-d16
 989              		.type	ecef_of_ned_point_f, %function
 990              	ecef_of_ned_point_f:
 991              	.LFB61:
 992              		.loc 1 158 1
 993              		.cfi_startproc
 994              		@ args = 0, pretend = 0, frame = 32
 995              		@ frame_needed = 0, uses_anonymous_args = 0
 996 0000 00B5     		push	{lr}
 997              		.cfi_def_cfa_offset 4
 998              		.cfi_offset 14, -4
 999 0002 89B0     		sub	sp, sp, #36
 1000              		.cfi_def_cfa_offset 40
 1001 0004 0390     		str	r0, [sp, #12]
 1002 0006 0291     		str	r1, [sp, #8]
 1003 0008 0192     		str	r2, [sp, #4]
 1004              		.loc 1 160 3
 1005 000a 019B     		ldr	r3, [sp, #4]
 1006 000c 5B68     		ldr	r3, [r3, #4]	@ float
 1007 000e 0593     		str	r3, [sp, #20]	@ float
 1008 0010 019B     		ldr	r3, [sp, #4]
 1009 0012 1B68     		ldr	r3, [r3]	@ float
 1010 0014 0693     		str	r3, [sp, #24]	@ float
 1011 0016 019B     		ldr	r3, [sp, #4]
 1012 0018 D3ED027A 		vldr.32	s15, [r3, #8]
 1013 001c F1EE677A 		vneg.f32	s15, s15
 1014 0020 CDED077A 		vstr.32	s15, [sp, #28]
 1015              		.loc 1 161 3
 1016 0024 05AB     		add	r3, sp, #20
 1017 0026 1A46     		mov	r2, r3
 1018 0028 0299     		ldr	r1, [sp, #8]
 1019 002a 0398     		ldr	r0, [sp, #12]
 1020 002c FFF7FEFF 		bl	ecef_of_enu_point_f
 1021              		.loc 1 162 1
 1022 0030 00BF     		nop
 1023 0032 09B0     		add	sp, sp, #36
 1024              		.cfi_def_cfa_offset 4
 1025              		@ sp needed
 1026 0034 5DF804FB 		ldr	pc, [sp], #4
ARM GAS  /tmp/cceRHmPh.s 			page 19


 1027              		.cfi_endproc
 1028              	.LFE61:
 1029              		.size	ecef_of_ned_point_f, .-ecef_of_ned_point_f
 1030              		.section	.text.ecef_of_enu_vect_f,"ax",%progbits
 1031              		.align	1
 1032              		.p2align 4,,15
 1033              		.global	ecef_of_enu_vect_f
 1034              		.syntax unified
 1035              		.thumb
 1036              		.thumb_func
 1037              		.fpu fpv4-sp-d16
 1038              		.type	ecef_of_enu_vect_f, %function
 1039              	ecef_of_enu_vect_f:
 1040              	.LFB62:
 1041              		.loc 1 165 1
 1042              		.cfi_startproc
 1043              		@ args = 0, pretend = 0, frame = 128
 1044              		@ frame_needed = 0, uses_anonymous_args = 0
 1045 0000 F0B5     		push	{r4, r5, r6, r7, lr}
 1046              		.cfi_def_cfa_offset 20
 1047              		.cfi_offset 4, -20
 1048              		.cfi_offset 5, -16
 1049              		.cfi_offset 6, -12
 1050              		.cfi_offset 7, -8
 1051              		.cfi_offset 14, -4
 1052 0002 A1B0     		sub	sp, sp, #132
 1053              		.cfi_def_cfa_offset 152
 1054 0004 0390     		str	r0, [sp, #12]
 1055 0006 0291     		str	r1, [sp, #8]
 1056 0008 0192     		str	r2, [sp, #4]
 1057              		.loc 1 168 51
 1058 000a 029B     		ldr	r3, [sp, #8]
 1059 000c 9B69     		ldr	r3, [r3, #24]	@ float
 1060              		.loc 1 168 24
 1061 000e 1846     		mov	r0, r3	@ float
 1062 0010 FFF7FEFF 		bl	__aeabi_f2d
 1063 0014 0246     		mov	r2, r0
 1064 0016 0B46     		mov	r3, r1
 1065              		.loc 1 168 22
 1066 0018 CDE90E23 		strd	r2, [sp, #56]
 1067              		.loc 1 169 51
 1068 001c 029B     		ldr	r3, [sp, #8]
 1069 001e DB69     		ldr	r3, [r3, #28]	@ float
 1070              		.loc 1 169 24
 1071 0020 1846     		mov	r0, r3	@ float
 1072 0022 FFF7FEFF 		bl	__aeabi_f2d
 1073 0026 0246     		mov	r2, r0
 1074 0028 0B46     		mov	r3, r1
 1075              		.loc 1 169 22
 1076 002a CDE91023 		strd	r2, [sp, #64]
 1077              		.loc 1 170 51
 1078 002e 029B     		ldr	r3, [sp, #8]
 1079 0030 1B6A     		ldr	r3, [r3, #32]	@ float
 1080              		.loc 1 170 24
 1081 0032 1846     		mov	r0, r3	@ float
 1082 0034 FFF7FEFF 		bl	__aeabi_f2d
 1083 0038 0246     		mov	r2, r0
ARM GAS  /tmp/cceRHmPh.s 			page 20


 1084 003a 0B46     		mov	r3, r1
 1085              		.loc 1 170 22
 1086 003c CDE91223 		strd	r2, [sp, #72]
 1087              		.loc 1 171 51
 1088 0040 029B     		ldr	r3, [sp, #8]
 1089 0042 5B6A     		ldr	r3, [r3, #36]	@ float
 1090              		.loc 1 171 24
 1091 0044 1846     		mov	r0, r3	@ float
 1092 0046 FFF7FEFF 		bl	__aeabi_f2d
 1093 004a 0246     		mov	r2, r0
 1094 004c 0B46     		mov	r3, r1
 1095              		.loc 1 171 22
 1096 004e CDE91423 		strd	r2, [sp, #80]
 1097              		.loc 1 172 51
 1098 0052 029B     		ldr	r3, [sp, #8]
 1099 0054 9B6A     		ldr	r3, [r3, #40]	@ float
 1100              		.loc 1 172 24
 1101 0056 1846     		mov	r0, r3	@ float
 1102 0058 FFF7FEFF 		bl	__aeabi_f2d
 1103 005c 0246     		mov	r2, r0
 1104 005e 0B46     		mov	r3, r1
 1105              		.loc 1 172 22
 1106 0060 CDE91623 		strd	r2, [sp, #88]
 1107              		.loc 1 173 51
 1108 0064 029B     		ldr	r3, [sp, #8]
 1109 0066 DB6A     		ldr	r3, [r3, #44]	@ float
 1110              		.loc 1 173 24
 1111 0068 1846     		mov	r0, r3	@ float
 1112 006a FFF7FEFF 		bl	__aeabi_f2d
 1113 006e 0246     		mov	r2, r0
 1114 0070 0B46     		mov	r3, r1
 1115              		.loc 1 173 22
 1116 0072 CDE91823 		strd	r2, [sp, #96]
 1117              		.loc 1 174 51
 1118 0076 029B     		ldr	r3, [sp, #8]
 1119 0078 1B6B     		ldr	r3, [r3, #48]	@ float
 1120              		.loc 1 174 24
 1121 007a 1846     		mov	r0, r3	@ float
 1122 007c FFF7FEFF 		bl	__aeabi_f2d
 1123 0080 0246     		mov	r2, r0
 1124 0082 0B46     		mov	r3, r1
 1125              		.loc 1 174 22
 1126 0084 CDE91A23 		strd	r2, [sp, #104]
 1127              		.loc 1 175 51
 1128 0088 029B     		ldr	r3, [sp, #8]
 1129 008a 5B6B     		ldr	r3, [r3, #52]	@ float
 1130              		.loc 1 175 24
 1131 008c 1846     		mov	r0, r3	@ float
 1132 008e FFF7FEFF 		bl	__aeabi_f2d
 1133 0092 0246     		mov	r2, r0
 1134 0094 0B46     		mov	r3, r1
 1135              		.loc 1 175 22
 1136 0096 CDE91C23 		strd	r2, [sp, #112]
 1137              		.loc 1 176 51
 1138 009a 029B     		ldr	r3, [sp, #8]
 1139 009c 9B6B     		ldr	r3, [r3, #56]	@ float
 1140              		.loc 1 176 24
ARM GAS  /tmp/cceRHmPh.s 			page 21


 1141 009e 1846     		mov	r0, r3	@ float
 1142 00a0 FFF7FEFF 		bl	__aeabi_f2d
 1143 00a4 0246     		mov	r2, r0
 1144 00a6 0B46     		mov	r3, r1
 1145              		.loc 1 176 22
 1146 00a8 CDE91E23 		strd	r2, [sp, #120]
 1147              		.loc 1 178 25
 1148 00ac 019B     		ldr	r3, [sp, #4]
 1149 00ae 1B68     		ldr	r3, [r3]	@ float
 1150              		.loc 1 178 11
 1151 00b0 0B93     		str	r3, [sp, #44]	@ float
 1152              		.loc 1 179 25
 1153 00b2 019B     		ldr	r3, [sp, #4]
 1154 00b4 5B68     		ldr	r3, [r3, #4]	@ float
 1155              		.loc 1 179 11
 1156 00b6 0C93     		str	r3, [sp, #48]	@ float
 1157              		.loc 1 180 25
 1158 00b8 019B     		ldr	r3, [sp, #4]
 1159 00ba 9B68     		ldr	r3, [r3, #8]	@ float
 1160              		.loc 1 180 11
 1161 00bc 0D93     		str	r3, [sp, #52]	@ float
 1162              		.loc 1 184 3
 1163 00be DDE90E45 		ldrd	r4, [sp, #56]
 1164 00c2 0B9B     		ldr	r3, [sp, #44]	@ float
 1165 00c4 1846     		mov	r0, r3	@ float
 1166 00c6 FFF7FEFF 		bl	__aeabi_f2d
 1167 00ca 0246     		mov	r2, r0
 1168 00cc 0B46     		mov	r3, r1
 1169 00ce 2046     		mov	r0, r4
 1170 00d0 2946     		mov	r1, r5
 1171 00d2 FFF7FEFF 		bl	__aeabi_dmul
 1172 00d6 0246     		mov	r2, r0
 1173 00d8 0B46     		mov	r3, r1
 1174 00da 1646     		mov	r6, r2
 1175 00dc 1F46     		mov	r7, r3
 1176 00de DDE91445 		ldrd	r4, [sp, #80]
 1177 00e2 0C9B     		ldr	r3, [sp, #48]	@ float
 1178 00e4 1846     		mov	r0, r3	@ float
 1179 00e6 FFF7FEFF 		bl	__aeabi_f2d
 1180 00ea 0246     		mov	r2, r0
 1181 00ec 0B46     		mov	r3, r1
 1182 00ee 2046     		mov	r0, r4
 1183 00f0 2946     		mov	r1, r5
 1184 00f2 FFF7FEFF 		bl	__aeabi_dmul
 1185 00f6 0246     		mov	r2, r0
 1186 00f8 0B46     		mov	r3, r1
 1187 00fa 3046     		mov	r0, r6
 1188 00fc 3946     		mov	r1, r7
 1189 00fe FFF7FEFF 		bl	__aeabi_dadd
 1190 0102 0246     		mov	r2, r0
 1191 0104 0B46     		mov	r3, r1
 1192 0106 1646     		mov	r6, r2
 1193 0108 1F46     		mov	r7, r3
 1194 010a DDE91A45 		ldrd	r4, [sp, #104]
 1195 010e 0D9B     		ldr	r3, [sp, #52]	@ float
 1196 0110 1846     		mov	r0, r3	@ float
 1197 0112 FFF7FEFF 		bl	__aeabi_f2d
ARM GAS  /tmp/cceRHmPh.s 			page 22


 1198 0116 0246     		mov	r2, r0
 1199 0118 0B46     		mov	r3, r1
 1200 011a 2046     		mov	r0, r4
 1201 011c 2946     		mov	r1, r5
 1202 011e FFF7FEFF 		bl	__aeabi_dmul
 1203 0122 0246     		mov	r2, r0
 1204 0124 0B46     		mov	r3, r1
 1205 0126 3046     		mov	r0, r6
 1206 0128 3946     		mov	r1, r7
 1207 012a FFF7FEFF 		bl	__aeabi_dadd
 1208 012e 0246     		mov	r2, r0
 1209 0130 0B46     		mov	r3, r1
 1210 0132 CDE90423 		strd	r2, [sp, #16]
 1211 0136 DDE91045 		ldrd	r4, [sp, #64]
 1212 013a 0B9B     		ldr	r3, [sp, #44]	@ float
 1213 013c 1846     		mov	r0, r3	@ float
 1214 013e FFF7FEFF 		bl	__aeabi_f2d
 1215 0142 0246     		mov	r2, r0
 1216 0144 0B46     		mov	r3, r1
 1217 0146 2046     		mov	r0, r4
 1218 0148 2946     		mov	r1, r5
 1219 014a FFF7FEFF 		bl	__aeabi_dmul
 1220 014e 0246     		mov	r2, r0
 1221 0150 0B46     		mov	r3, r1
 1222 0152 1646     		mov	r6, r2
 1223 0154 1F46     		mov	r7, r3
 1224 0156 DDE91645 		ldrd	r4, [sp, #88]
 1225 015a 0C9B     		ldr	r3, [sp, #48]	@ float
 1226 015c 1846     		mov	r0, r3	@ float
 1227 015e FFF7FEFF 		bl	__aeabi_f2d
 1228 0162 0246     		mov	r2, r0
 1229 0164 0B46     		mov	r3, r1
 1230 0166 2046     		mov	r0, r4
 1231 0168 2946     		mov	r1, r5
 1232 016a FFF7FEFF 		bl	__aeabi_dmul
 1233 016e 0246     		mov	r2, r0
 1234 0170 0B46     		mov	r3, r1
 1235 0172 3046     		mov	r0, r6
 1236 0174 3946     		mov	r1, r7
 1237 0176 FFF7FEFF 		bl	__aeabi_dadd
 1238 017a 0246     		mov	r2, r0
 1239 017c 0B46     		mov	r3, r1
 1240 017e 1646     		mov	r6, r2
 1241 0180 1F46     		mov	r7, r3
 1242 0182 DDE91C45 		ldrd	r4, [sp, #112]
 1243 0186 0D9B     		ldr	r3, [sp, #52]	@ float
 1244 0188 1846     		mov	r0, r3	@ float
 1245 018a FFF7FEFF 		bl	__aeabi_f2d
 1246 018e 0246     		mov	r2, r0
 1247 0190 0B46     		mov	r3, r1
 1248 0192 2046     		mov	r0, r4
 1249 0194 2946     		mov	r1, r5
 1250 0196 FFF7FEFF 		bl	__aeabi_dmul
 1251 019a 0246     		mov	r2, r0
 1252 019c 0B46     		mov	r3, r1
 1253 019e 3046     		mov	r0, r6
 1254 01a0 3946     		mov	r1, r7
ARM GAS  /tmp/cceRHmPh.s 			page 23


 1255 01a2 FFF7FEFF 		bl	__aeabi_dadd
 1256 01a6 0246     		mov	r2, r0
 1257 01a8 0B46     		mov	r3, r1
 1258 01aa CDE90623 		strd	r2, [sp, #24]
 1259 01ae DDE91245 		ldrd	r4, [sp, #72]
 1260 01b2 0B9B     		ldr	r3, [sp, #44]	@ float
 1261 01b4 1846     		mov	r0, r3	@ float
 1262 01b6 FFF7FEFF 		bl	__aeabi_f2d
 1263 01ba 0246     		mov	r2, r0
 1264 01bc 0B46     		mov	r3, r1
 1265 01be 2046     		mov	r0, r4
 1266 01c0 2946     		mov	r1, r5
 1267 01c2 FFF7FEFF 		bl	__aeabi_dmul
 1268 01c6 0246     		mov	r2, r0
 1269 01c8 0B46     		mov	r3, r1
 1270 01ca 1646     		mov	r6, r2
 1271 01cc 1F46     		mov	r7, r3
 1272 01ce DDE91845 		ldrd	r4, [sp, #96]
 1273 01d2 0C9B     		ldr	r3, [sp, #48]	@ float
 1274 01d4 1846     		mov	r0, r3	@ float
 1275 01d6 FFF7FEFF 		bl	__aeabi_f2d
 1276 01da 0246     		mov	r2, r0
 1277 01dc 0B46     		mov	r3, r1
 1278 01de 2046     		mov	r0, r4
 1279 01e0 2946     		mov	r1, r5
 1280 01e2 FFF7FEFF 		bl	__aeabi_dmul
 1281 01e6 0246     		mov	r2, r0
 1282 01e8 0B46     		mov	r3, r1
 1283 01ea 3046     		mov	r0, r6
 1284 01ec 3946     		mov	r1, r7
 1285 01ee FFF7FEFF 		bl	__aeabi_dadd
 1286 01f2 0246     		mov	r2, r0
 1287 01f4 0B46     		mov	r3, r1
 1288 01f6 1646     		mov	r6, r2
 1289 01f8 1F46     		mov	r7, r3
 1290 01fa DDE91E45 		ldrd	r4, [sp, #120]
 1291 01fe 0D9B     		ldr	r3, [sp, #52]	@ float
 1292 0200 1846     		mov	r0, r3	@ float
 1293 0202 FFF7FEFF 		bl	__aeabi_f2d
 1294 0206 0246     		mov	r2, r0
 1295 0208 0B46     		mov	r3, r1
 1296 020a 2046     		mov	r0, r4
 1297 020c 2946     		mov	r1, r5
 1298 020e FFF7FEFF 		bl	__aeabi_dmul
 1299 0212 0246     		mov	r2, r0
 1300 0214 0B46     		mov	r3, r1
 1301 0216 3046     		mov	r0, r6
 1302 0218 3946     		mov	r1, r7
 1303 021a FFF7FEFF 		bl	__aeabi_dadd
 1304 021e 0246     		mov	r2, r0
 1305 0220 0B46     		mov	r3, r1
 1306 0222 CDE90823 		strd	r2, [sp, #32]
 1307              		.loc 1 187 27
 1308 0226 DDE90423 		ldrd	r2, [sp, #16]
 1309              		.loc 1 187 13
 1310 022a 1046     		mov	r0, r2
 1311 022c 1946     		mov	r1, r3
ARM GAS  /tmp/cceRHmPh.s 			page 24


 1312 022e FFF7FEFF 		bl	__aeabi_d2f
 1313 0232 0246     		mov	r2, r0	@ float
 1314              		.loc 1 187 11
 1315 0234 039B     		ldr	r3, [sp, #12]
 1316 0236 1A60     		str	r2, [r3]	@ float
 1317              		.loc 1 188 27
 1318 0238 DDE90623 		ldrd	r2, [sp, #24]
 1319              		.loc 1 188 13
 1320 023c 1046     		mov	r0, r2
 1321 023e 1946     		mov	r1, r3
 1322 0240 FFF7FEFF 		bl	__aeabi_d2f
 1323 0244 0246     		mov	r2, r0	@ float
 1324              		.loc 1 188 11
 1325 0246 039B     		ldr	r3, [sp, #12]
 1326 0248 5A60     		str	r2, [r3, #4]	@ float
 1327              		.loc 1 189 27
 1328 024a DDE90823 		ldrd	r2, [sp, #32]
 1329              		.loc 1 189 13
 1330 024e 1046     		mov	r0, r2
 1331 0250 1946     		mov	r1, r3
 1332 0252 FFF7FEFF 		bl	__aeabi_d2f
 1333 0256 0246     		mov	r2, r0	@ float
 1334              		.loc 1 189 11
 1335 0258 039B     		ldr	r3, [sp, #12]
 1336 025a 9A60     		str	r2, [r3, #8]	@ float
 1337              		.loc 1 190 1
 1338 025c 00BF     		nop
 1339 025e 21B0     		add	sp, sp, #132
 1340              		.cfi_def_cfa_offset 20
 1341              		@ sp needed
 1342 0260 F0BD     		pop	{r4, r5, r6, r7, pc}
 1343              		.cfi_endproc
 1344              	.LFE62:
 1345              		.size	ecef_of_enu_vect_f, .-ecef_of_enu_vect_f
 1346 0262 00BF     		.section	.text.ecef_of_ned_vect_f,"ax",%progbits
 1347              		.align	1
 1348              		.p2align 4,,15
 1349              		.global	ecef_of_ned_vect_f
 1350              		.syntax unified
 1351              		.thumb
 1352              		.thumb_func
 1353              		.fpu fpv4-sp-d16
 1354              		.type	ecef_of_ned_vect_f, %function
 1355              	ecef_of_ned_vect_f:
 1356              	.LFB63:
 1357              		.loc 1 193 1
 1358              		.cfi_startproc
 1359              		@ args = 0, pretend = 0, frame = 32
 1360              		@ frame_needed = 0, uses_anonymous_args = 0
 1361 0000 00B5     		push	{lr}
 1362              		.cfi_def_cfa_offset 4
 1363              		.cfi_offset 14, -4
 1364 0002 89B0     		sub	sp, sp, #36
 1365              		.cfi_def_cfa_offset 40
 1366 0004 0390     		str	r0, [sp, #12]
 1367 0006 0291     		str	r1, [sp, #8]
 1368 0008 0192     		str	r2, [sp, #4]
ARM GAS  /tmp/cceRHmPh.s 			page 25


 1369              		.loc 1 195 3
 1370 000a 019B     		ldr	r3, [sp, #4]
 1371 000c 5B68     		ldr	r3, [r3, #4]	@ float
 1372 000e 0593     		str	r3, [sp, #20]	@ float
 1373 0010 019B     		ldr	r3, [sp, #4]
 1374 0012 1B68     		ldr	r3, [r3]	@ float
 1375 0014 0693     		str	r3, [sp, #24]	@ float
 1376 0016 019B     		ldr	r3, [sp, #4]
 1377 0018 D3ED027A 		vldr.32	s15, [r3, #8]
 1378 001c F1EE677A 		vneg.f32	s15, s15
 1379 0020 CDED077A 		vstr.32	s15, [sp, #28]
 1380              		.loc 1 196 3
 1381 0024 05AB     		add	r3, sp, #20
 1382 0026 1A46     		mov	r2, r3
 1383 0028 0299     		ldr	r1, [sp, #8]
 1384 002a 0398     		ldr	r0, [sp, #12]
 1385 002c FFF7FEFF 		bl	ecef_of_enu_vect_f
 1386              		.loc 1 197 1
 1387 0030 00BF     		nop
 1388 0032 09B0     		add	sp, sp, #36
 1389              		.cfi_def_cfa_offset 4
 1390              		@ sp needed
 1391 0034 5DF804FB 		ldr	pc, [sp], #4
 1392              		.cfi_endproc
 1393              	.LFE63:
 1394              		.size	ecef_of_ned_vect_f, .-ecef_of_ned_vect_f
 1395              		.global	__aeabi_dsub
 1396              		.global	__aeabi_ddiv
 1397              		.section	.text.lla_of_ecef_f,"ax",%progbits
 1398              		.align	1
 1399              		.p2align 4,,15
 1400              		.global	lla_of_ecef_f
 1401              		.syntax unified
 1402              		.thumb
 1403              		.thumb_func
 1404              		.fpu fpv4-sp-d16
 1405              		.type	lla_of_ecef_f, %function
 1406              	lla_of_ecef_f:
 1407              	.LFB64:
 1408              		.loc 1 205 1
 1409              		.cfi_startproc
 1410              		@ args = 0, pretend = 0, frame = 88
 1411              		@ frame_needed = 0, uses_anonymous_args = 0
 1412 0000 F0B5     		push	{r4, r5, r6, r7, lr}
 1413              		.cfi_def_cfa_offset 20
 1414              		.cfi_offset 4, -20
 1415              		.cfi_offset 5, -16
 1416              		.cfi_offset 6, -12
 1417              		.cfi_offset 7, -8
 1418              		.cfi_offset 14, -4
 1419 0002 2DED028B 		vpush.64	{d8}
 1420              		.cfi_def_cfa_offset 28
 1421              		.cfi_offset 80, -28
 1422              		.cfi_offset 81, -24
 1423 0006 97B0     		sub	sp, sp, #92
 1424              		.cfi_def_cfa_offset 120
 1425 0008 0190     		str	r0, [sp, #4]
ARM GAS  /tmp/cceRHmPh.s 			page 26


 1426 000a 0091     		str	r1, [sp]
 1427              		.loc 1 210 21
 1428 000c E44B     		ldr	r3, .L14
 1429 000e 1B68     		ldr	r3, [r3]	@ float
 1430 0010 1846     		mov	r0, r3	@ float
 1431 0012 FFF7FEFF 		bl	__aeabi_f2d
 1432 0016 0446     		mov	r4, r0
 1433 0018 0D46     		mov	r5, r1
 1434              		.loc 1 210 27
 1435 001a E24B     		ldr	r3, .L14+4
 1436 001c 1B68     		ldr	r3, [r3]	@ float
 1437 001e 1846     		mov	r0, r3	@ float
 1438 0020 FFF7FEFF 		bl	__aeabi_f2d
 1439 0024 0246     		mov	r2, r0
 1440 0026 0B46     		mov	r3, r1
 1441 0028 4FF00000 		mov	r0, #0
 1442 002c DE49     		ldr	r1, .L14+8
 1443 002e FFF7FEFF 		bl	__aeabi_dsub
 1444 0032 0246     		mov	r2, r0
 1445 0034 0B46     		mov	r3, r1
 1446              		.loc 1 210 21
 1447 0036 2046     		mov	r0, r4
 1448 0038 2946     		mov	r1, r5
 1449 003a FFF7FEFF 		bl	__aeabi_dmul
 1450 003e 0246     		mov	r2, r0
 1451 0040 0B46     		mov	r3, r1
 1452              		.loc 1 210 15
 1453 0042 1046     		mov	r0, r2
 1454 0044 1946     		mov	r1, r3
 1455 0046 FFF7FEFF 		bl	__aeabi_d2f
 1456 004a 0346     		mov	r3, r0	@ float
 1457 004c 1593     		str	r3, [sp, #84]	@ float
 1458              		.loc 1 211 15
 1459 004e DDED157A 		vldr.32	s15, [sp, #84]
 1460 0052 67EEA77A 		vmul.f32	s15, s15, s15
 1461 0056 CDED147A 		vstr.32	s15, [sp, #80]
 1462              		.loc 1 213 22
 1463 005a D24B     		ldr	r3, .L14+4
 1464 005c 1B68     		ldr	r3, [r3]	@ float
 1465 005e 1846     		mov	r0, r3	@ float
 1466 0060 FFF7FEFF 		bl	__aeabi_f2d
 1467 0064 0246     		mov	r2, r0
 1468 0066 0B46     		mov	r3, r1
 1469 0068 FFF7FEFF 		bl	__aeabi_dadd
 1470 006c 0246     		mov	r2, r0
 1471 006e 0B46     		mov	r3, r1
 1472 0070 1446     		mov	r4, r2
 1473 0072 1D46     		mov	r5, r3
 1474              		.loc 1 213 30
 1475 0074 CB4B     		ldr	r3, .L14+4
 1476 0076 93ED007A 		vldr.32	s14, [r3]
 1477 007a CA4B     		ldr	r3, .L14+4
 1478 007c D3ED007A 		vldr.32	s15, [r3]
 1479 0080 67EE277A 		vmul.f32	s15, s14, s15
 1480 0084 17EE900A 		vmov	r0, s15
 1481 0088 FFF7FEFF 		bl	__aeabi_f2d
 1482 008c 0246     		mov	r2, r0
ARM GAS  /tmp/cceRHmPh.s 			page 27


 1483 008e 0B46     		mov	r3, r1
 1484              		.loc 1 213 25
 1485 0090 2046     		mov	r0, r4
 1486 0092 2946     		mov	r1, r5
 1487 0094 FFF7FEFF 		bl	__aeabi_dsub
 1488 0098 0246     		mov	r2, r0
 1489 009a 0B46     		mov	r3, r1
 1490              		.loc 1 213 15
 1491 009c 1046     		mov	r0, r2
 1492 009e 1946     		mov	r1, r3
 1493 00a0 FFF7FEFF 		bl	__aeabi_d2f
 1494 00a4 0346     		mov	r3, r0	@ float
 1495 00a6 1393     		str	r3, [sp, #76]	@ float
 1496              		.loc 1 214 23
 1497 00a8 BE4B     		ldr	r3, .L14+4
 1498 00aa 1B68     		ldr	r3, [r3]	@ float
 1499 00ac 1846     		mov	r0, r3	@ float
 1500 00ae FFF7FEFF 		bl	__aeabi_f2d
 1501 00b2 0446     		mov	r4, r0
 1502 00b4 0D46     		mov	r5, r1
 1503              		.loc 1 214 29
 1504 00b6 BB4B     		ldr	r3, .L14+4
 1505 00b8 1B68     		ldr	r3, [r3]	@ float
 1506 00ba 1846     		mov	r0, r3	@ float
 1507 00bc FFF7FEFF 		bl	__aeabi_f2d
 1508 00c0 0246     		mov	r2, r0
 1509 00c2 0B46     		mov	r3, r1
 1510 00c4 4FF00000 		mov	r0, #0
 1511 00c8 4FF08041 		mov	r1, #1073741824
 1512 00cc FFF7FEFF 		bl	__aeabi_dsub
 1513 00d0 0246     		mov	r2, r0
 1514 00d2 0B46     		mov	r3, r1
 1515              		.loc 1 214 23
 1516 00d4 2046     		mov	r0, r4
 1517 00d6 2946     		mov	r1, r5
 1518 00d8 FFF7FEFF 		bl	__aeabi_dmul
 1519 00dc 0246     		mov	r2, r0
 1520 00de 0B46     		mov	r3, r1
 1521 00e0 1446     		mov	r4, r2
 1522 00e2 1D46     		mov	r5, r3
 1523              		.loc 1 214 41
 1524 00e4 AF4B     		ldr	r3, .L14+4
 1525 00e6 1B68     		ldr	r3, [r3]	@ float
 1526 00e8 1846     		mov	r0, r3	@ float
 1527 00ea FFF7FEFF 		bl	__aeabi_f2d
 1528 00ee 0246     		mov	r2, r0
 1529 00f0 0B46     		mov	r3, r1
 1530 00f2 4FF00000 		mov	r0, #0
 1531 00f6 AC49     		ldr	r1, .L14+8
 1532 00f8 FFF7FEFF 		bl	__aeabi_dsub
 1533 00fc 0246     		mov	r2, r0
 1534 00fe 0B46     		mov	r3, r1
 1535 0100 1646     		mov	r6, r2
 1536 0102 1F46     		mov	r7, r3
 1537              		.loc 1 214 52
 1538 0104 A74B     		ldr	r3, .L14+4
 1539 0106 1B68     		ldr	r3, [r3]	@ float
ARM GAS  /tmp/cceRHmPh.s 			page 28


 1540 0108 1846     		mov	r0, r3	@ float
 1541 010a FFF7FEFF 		bl	__aeabi_f2d
 1542 010e 0246     		mov	r2, r0
 1543 0110 0B46     		mov	r3, r1
 1544 0112 4FF00000 		mov	r0, #0
 1545 0116 A449     		ldr	r1, .L14+8
 1546 0118 FFF7FEFF 		bl	__aeabi_dsub
 1547 011c 0246     		mov	r2, r0
 1548 011e 0B46     		mov	r3, r1
 1549              		.loc 1 214 46
 1550 0120 3046     		mov	r0, r6
 1551 0122 3946     		mov	r1, r7
 1552 0124 FFF7FEFF 		bl	__aeabi_dmul
 1553 0128 0246     		mov	r2, r0
 1554 012a 0B46     		mov	r3, r1
 1555              		.loc 1 214 34
 1556 012c 2046     		mov	r0, r4
 1557 012e 2946     		mov	r1, r5
 1558 0130 FFF7FEFF 		bl	__aeabi_ddiv
 1559 0134 0246     		mov	r2, r0
 1560 0136 0B46     		mov	r3, r1
 1561              		.loc 1 214 15
 1562 0138 1046     		mov	r0, r2
 1563 013a 1946     		mov	r1, r3
 1564 013c FFF7FEFF 		bl	__aeabi_d2f
 1565 0140 0346     		mov	r3, r0	@ float
 1566 0142 1293     		str	r3, [sp, #72]	@ float
 1567              		.loc 1 215 22
 1568 0144 964B     		ldr	r3, .L14
 1569 0146 93ED007A 		vldr.32	s14, [r3]
 1570 014a 954B     		ldr	r3, .L14
 1571 014c D3ED007A 		vldr.32	s15, [r3]
 1572 0150 27EE277A 		vmul.f32	s14, s14, s15
 1573              		.loc 1 215 15
 1574 0154 DDED147A 		vldr.32	s15, [sp, #80]
 1575 0158 77EE677A 		vsub.f32	s15, s14, s15
 1576 015c CDED117A 		vstr.32	s15, [sp, #68]
 1577              		.loc 1 218 22
 1578 0160 009B     		ldr	r3, [sp]
 1579 0162 93ED027A 		vldr.32	s14, [r3, #8]
 1580              		.loc 1 218 30
 1581 0166 009B     		ldr	r3, [sp]
 1582 0168 D3ED027A 		vldr.32	s15, [r3, #8]
 1583              		.loc 1 218 15
 1584 016c 67EE277A 		vmul.f32	s15, s14, s15
 1585 0170 CDED107A 		vstr.32	s15, [sp, #64]
 1586              		.loc 1 219 22
 1587 0174 009B     		ldr	r3, [sp]
 1588 0176 93ED007A 		vldr.32	s14, [r3]
 1589              		.loc 1 219 30
 1590 017a 009B     		ldr	r3, [sp]
 1591 017c D3ED007A 		vldr.32	s15, [r3]
 1592              		.loc 1 219 26
 1593 0180 27EE277A 		vmul.f32	s14, s14, s15
 1594              		.loc 1 219 38
 1595 0184 009B     		ldr	r3, [sp]
 1596 0186 D3ED016A 		vldr.32	s13, [r3, #4]
ARM GAS  /tmp/cceRHmPh.s 			page 29


 1597              		.loc 1 219 46
 1598 018a 009B     		ldr	r3, [sp]
 1599 018c D3ED017A 		vldr.32	s15, [r3, #4]
 1600              		.loc 1 219 42
 1601 0190 66EEA77A 		vmul.f32	s15, s13, s15
 1602              		.loc 1 219 15
 1603 0194 77EE277A 		vadd.f32	s15, s14, s15
 1604 0198 CDED0F7A 		vstr.32	s15, [sp, #60]
 1605              		.loc 1 220 19
 1606 019c 0F98     		ldr	r0, [sp, #60]	@ float
 1607 019e FFF7FEFF 		bl	sqrtf
 1608 01a2 0E90     		str	r0, [sp, #56]	@ float
 1609              		.loc 1 221 22
 1610 01a4 1498     		ldr	r0, [sp, #80]	@ float
 1611 01a6 FFF7FEFF 		bl	__aeabi_f2d
 1612 01aa 4FF00002 		mov	r2, #0
 1613 01ae 7F4B     		ldr	r3, .L14+12
 1614 01b0 FFF7FEFF 		bl	__aeabi_dmul
 1615 01b4 0246     		mov	r2, r0
 1616 01b6 0B46     		mov	r3, r1
 1617 01b8 1446     		mov	r4, r2
 1618 01ba 1D46     		mov	r5, r3
 1619              		.loc 1 221 26
 1620 01bc 1098     		ldr	r0, [sp, #64]	@ float
 1621 01be FFF7FEFF 		bl	__aeabi_f2d
 1622 01c2 0246     		mov	r2, r0
 1623 01c4 0B46     		mov	r3, r1
 1624 01c6 2046     		mov	r0, r4
 1625 01c8 2946     		mov	r1, r5
 1626 01ca FFF7FEFF 		bl	__aeabi_dmul
 1627 01ce 0246     		mov	r2, r0
 1628 01d0 0B46     		mov	r3, r1
 1629              		.loc 1 221 15
 1630 01d2 1046     		mov	r0, r2
 1631 01d4 1946     		mov	r1, r3
 1632 01d6 FFF7FEFF 		bl	__aeabi_d2f
 1633 01da 0346     		mov	r3, r0	@ float
 1634 01dc 0D93     		str	r3, [sp, #52]	@ float
 1635              		.loc 1 222 27
 1636 01de B7EE007A 		vmov.f32	s14, #1.0e+0
 1637 01e2 DDED137A 		vldr.32	s15, [sp, #76]
 1638 01e6 37EE677A 		vsub.f32	s14, s14, s15
 1639              		.loc 1 222 33
 1640 01ea DDED107A 		vldr.32	s15, [sp, #64]
 1641 01ee 27EE277A 		vmul.f32	s14, s14, s15
 1642              		.loc 1 222 22
 1643 01f2 DDED0F7A 		vldr.32	s15, [sp, #60]
 1644 01f6 37EE277A 		vadd.f32	s14, s14, s15
 1645              		.loc 1 222 43
 1646 01fa DDED136A 		vldr.32	s13, [sp, #76]
 1647 01fe DDED117A 		vldr.32	s15, [sp, #68]
 1648 0202 66EEA77A 		vmul.f32	s15, s13, s15
 1649              		.loc 1 222 15
 1650 0206 77EE677A 		vsub.f32	s15, s14, s15
 1651 020a CDED0C7A 		vstr.32	s15, [sp, #48]
 1652              		.loc 1 223 23
 1653 020e DDED137A 		vldr.32	s15, [sp, #76]
ARM GAS  /tmp/cceRHmPh.s 			page 30


 1654 0212 27EEA77A 		vmul.f32	s14, s15, s15
 1655              		.loc 1 223 28
 1656 0216 DDED0D7A 		vldr.32	s15, [sp, #52]
 1657 021a 27EE277A 		vmul.f32	s14, s14, s15
 1658              		.loc 1 223 32
 1659 021e DDED0F7A 		vldr.32	s15, [sp, #60]
 1660 0222 67EE276A 		vmul.f32	s13, s14, s15
 1661              		.loc 1 223 43
 1662 0226 DDED0C7A 		vldr.32	s15, [sp, #48]
 1663 022a 27EEA77A 		vmul.f32	s14, s15, s15
 1664              		.loc 1 223 47
 1665 022e DDED0C7A 		vldr.32	s15, [sp, #48]
 1666 0232 27EE277A 		vmul.f32	s14, s14, s15
 1667              		.loc 1 223 15
 1668 0236 C6EE877A 		vdiv.f32	s15, s13, s14
 1669 023a CDED0B7A 		vstr.32	s15, [sp, #44]
 1670              		.loc 1 224 27
 1671 023e DDED0B7A 		vldr.32	s15, [sp, #44]
 1672 0242 B7EE007A 		vmov.f32	s14, #1.0e+0
 1673 0246 37EE878A 		vadd.f32	s16, s15, s14
 1674              		.loc 1 224 41
 1675 024a DDED0B7A 		vldr.32	s15, [sp, #44]
 1676 024e 27EEA77A 		vmul.f32	s14, s15, s15
 1677              		.loc 1 224 49
 1678 0252 DDED0B7A 		vldr.32	s15, [sp, #44]
 1679 0256 77EEA77A 		vadd.f32	s15, s15, s15
 1680              		.loc 1 224 33
 1681 025a 77EE277A 		vadd.f32	s15, s14, s15
 1682 025e 17EE900A 		vmov	r0, s15
 1683 0262 FFF7FEFF 		bl	sqrtf
 1684 0266 07EE900A 		vmov	s15, r0
 1685              		.loc 1 224 19
 1686 026a 78EE277A 		vadd.f32	s15, s16, s15
 1687 026e 5049     		ldr	r1, .L14+16
 1688 0270 17EE900A 		vmov	r0, s15
 1689 0274 FFF7FEFF 		bl	powf
 1690 0278 0A90     		str	r0, [sp, #40]	@ float
 1691              		.loc 1 225 22
 1692 027a DDED0A7A 		vldr.32	s15, [sp, #40]
 1693 027e B7EE007A 		vmov.f32	s14, #1.0e+0
 1694 0282 37EE877A 		vadd.f32	s14, s15, s14
 1695              		.loc 1 225 30
 1696 0286 B7EE006A 		vmov.f32	s12, #1.0e+0
 1697 028a DDED0A6A 		vldr.32	s13, [sp, #40]
 1698 028e C6EE267A 		vdiv.f32	s15, s12, s13
 1699              		.loc 1 225 15
 1700 0292 77EE277A 		vadd.f32	s15, s14, s15
 1701 0296 CDED097A 		vstr.32	s15, [sp, #36]
 1702              		.loc 1 226 26
 1703 029a DDED097A 		vldr.32	s15, [sp, #36]
 1704 029e B0EE087A 		vmov.f32	s14, #3.0e+0
 1705 02a2 27EE877A 		vmul.f32	s14, s15, s14
 1706              		.loc 1 226 31
 1707 02a6 DDED097A 		vldr.32	s15, [sp, #36]
 1708 02aa 27EE277A 		vmul.f32	s14, s14, s15
 1709              		.loc 1 226 36
 1710 02ae DDED0C7A 		vldr.32	s15, [sp, #48]
ARM GAS  /tmp/cceRHmPh.s 			page 31


 1711 02b2 27EE277A 		vmul.f32	s14, s14, s15
 1712              		.loc 1 226 40
 1713 02b6 DDED0C7A 		vldr.32	s15, [sp, #48]
 1714 02ba 27EE277A 		vmul.f32	s14, s14, s15
 1715              		.loc 1 226 15
 1716 02be DDED0D6A 		vldr.32	s13, [sp, #52]
 1717 02c2 C6EE877A 		vdiv.f32	s15, s13, s14
 1718 02c6 CDED087A 		vstr.32	s15, [sp, #32]
 1719              		.loc 1 227 31
 1720 02ca DDED137A 		vldr.32	s15, [sp, #76]
 1721 02ce 37EEA77A 		vadd.f32	s14, s15, s15
 1722              		.loc 1 227 36
 1723 02d2 DDED137A 		vldr.32	s15, [sp, #76]
 1724 02d6 27EE277A 		vmul.f32	s14, s14, s15
 1725              		.loc 1 227 41
 1726 02da DDED087A 		vldr.32	s15, [sp, #32]
 1727 02de 67EE277A 		vmul.f32	s15, s14, s15
 1728              		.loc 1 227 19
 1729 02e2 B7EE007A 		vmov.f32	s14, #1.0e+0
 1730 02e6 77EE877A 		vadd.f32	s15, s15, s14
 1731 02ea 17EE900A 		vmov	r0, s15
 1732 02ee FFF7FEFF 		bl	sqrtf
 1733 02f2 0790     		str	r0, [sp, #28]	@ float
 1734              		.loc 1 228 25
 1735 02f4 9DED137A 		vldr.32	s14, [sp, #76]
 1736 02f8 DDED087A 		vldr.32	s15, [sp, #32]
 1737 02fc 27EE277A 		vmul.f32	s14, s14, s15
 1738              		.loc 1 228 29
 1739 0300 DDED0E7A 		vldr.32	s15, [sp, #56]
 1740 0304 67EE277A 		vmul.f32	s15, s14, s15
 1741              		.loc 1 228 20
 1742 0308 B1EE677A 		vneg.f32	s14, s15
 1743              		.loc 1 228 39
 1744 030c DDED077A 		vldr.32	s15, [sp, #28]
 1745 0310 F7EE006A 		vmov.f32	s13, #1.0e+0
 1746 0314 77EEA67A 		vadd.f32	s15, s15, s13
 1747              		.loc 1 228 34
 1748 0318 87EE278A 		vdiv.f32	s16, s14, s15
 1749              		.loc 1 228 55
 1750 031c 204B     		ldr	r3, .L14
 1751 031e 93ED007A 		vldr.32	s14, [r3]
 1752 0322 1F4B     		ldr	r3, .L14
 1753 0324 D3ED007A 		vldr.32	s15, [r3]
 1754 0328 67EE277A 		vmul.f32	s15, s14, s15
 1755              		.loc 1 228 59
 1756 032c F0EE006A 		vmov.f32	s13, #2.0e+0
 1757 0330 87EEA67A 		vdiv.f32	s14, s15, s13
 1758              		.loc 1 228 73
 1759 0334 B7EE006A 		vmov.f32	s12, #1.0e+0
 1760 0338 DDED076A 		vldr.32	s13, [sp, #28]
 1761 033c C6EE267A 		vdiv.f32	s15, s12, s13
 1762              		.loc 1 228 69
 1763 0340 F7EE006A 		vmov.f32	s13, #1.0e+0
 1764 0344 77EEA67A 		vadd.f32	s15, s15, s13
 1765              		.loc 1 228 64
 1766 0348 27EE277A 		vmul.f32	s14, s14, s15
 1767              		.loc 1 228 84
ARM GAS  /tmp/cceRHmPh.s 			page 32


 1768 034c F7EE006A 		vmov.f32	s13, #1.0e+0
 1769 0350 DDED137A 		vldr.32	s15, [sp, #76]
 1770 0354 76EEE76A 		vsub.f32	s13, s13, s15
 1771              		.loc 1 228 90
 1772 0358 DDED087A 		vldr.32	s15, [sp, #32]
 1773 035c 66EEA76A 		vmul.f32	s13, s13, s15
 1774              		.loc 1 228 94
 1775 0360 DDED107A 		vldr.32	s15, [sp, #64]
 1776 0364 26EEA76A 		vmul.f32	s12, s13, s15
 1777              		.loc 1 229 23
 1778 0368 DDED077A 		vldr.32	s15, [sp, #28]
 1779 036c F7EE006A 		vmov.f32	s13, #1.0e+0
 1780 0370 77EEA66A 		vadd.f32	s13, s15, s13
 1781              		.loc 1 228 105
 1782 0374 DDED077A 		vldr.32	s15, [sp, #28]
 1783 0378 66EEA76A 		vmul.f32	s13, s13, s15
 1784              		.loc 1 228 100
 1785 037c C6EE267A 		vdiv.f32	s15, s12, s13
 1786              		.loc 1 228 78
 1787 0380 37EE677A 		vsub.f32	s14, s14, s15
 1788              		.loc 1 229 33
 1789 0384 DDED086A 		vldr.32	s13, [sp, #32]
 1790 0388 DDED0F7A 		vldr.32	s15, [sp, #60]
 1791 038c 66EEA76A 		vmul.f32	s13, s13, s15
 1792              		.loc 1 229 38
 1793 0390 B0EE006A 		vmov.f32	s12, #2.0e+0
 1794 0394 C6EE867A 		vdiv.f32	s15, s13, s12
 1795              		.loc 1 228 46
 1796 0398 77EE677A 		vsub.f32	s15, s14, s15
 1797 039c 0AE0     		b	.L15
 1798              	.L16:
 1799 039e 00BF     		.align	2
 1800              	.L14:
 1801 03a0 00000000 		.word	a.3
 1802 03a4 00000000 		.word	f.2
 1803 03a8 0000F03F 		.word	1072693248
 1804 03ac 00004B40 		.word	1078657024
 1805 03b0 ABAAAA3E 		.word	1051372203
 1806              	.L15:
 1807 03b4 17EE900A 		vmov	r0, s15
 1808 03b8 FFF7FEFF 		bl	sqrtf
 1809 03bc 07EE900A 		vmov	s15, r0
 1810              		.loc 1 228 15
 1811 03c0 78EE277A 		vadd.f32	s15, s16, s15
 1812 03c4 CDED067A 		vstr.32	s15, [sp, #24]
 1813              		.loc 1 230 29
 1814 03c8 9DED137A 		vldr.32	s14, [sp, #76]
 1815 03cc DDED067A 		vldr.32	s15, [sp, #24]
 1816 03d0 67EE277A 		vmul.f32	s15, s14, s15
 1817              		.loc 1 230 24
 1818 03d4 9DED0E7A 		vldr.32	s14, [sp, #56]
 1819 03d8 37EE677A 		vsub.f32	s14, s14, s15
 1820              		.loc 1 230 45
 1821 03dc DDED136A 		vldr.32	s13, [sp, #76]
 1822 03e0 DDED067A 		vldr.32	s15, [sp, #24]
 1823 03e4 66EEA77A 		vmul.f32	s15, s13, s15
 1824              		.loc 1 230 40
ARM GAS  /tmp/cceRHmPh.s 			page 33


 1825 03e8 DDED0E6A 		vldr.32	s13, [sp, #56]
 1826 03ec 76EEE77A 		vsub.f32	s15, s13, s15
 1827              		.loc 1 230 15
 1828 03f0 67EE277A 		vmul.f32	s15, s14, s15
 1829 03f4 CDED057A 		vstr.32	s15, [sp, #20]
 1830              		.loc 1 231 19
 1831 03f8 9DED057A 		vldr.32	s14, [sp, #20]
 1832 03fc DDED107A 		vldr.32	s15, [sp, #64]
 1833 0400 77EE277A 		vadd.f32	s15, s14, s15
 1834 0404 17EE900A 		vmov	r0, s15
 1835 0408 FFF7FEFF 		bl	sqrtf
 1836 040c 0490     		str	r0, [sp, #16]	@ float
 1837              		.loc 1 232 34
 1838 040e B7EE007A 		vmov.f32	s14, #1.0e+0
 1839 0412 DDED137A 		vldr.32	s15, [sp, #76]
 1840 0416 37EE677A 		vsub.f32	s14, s14, s15
 1841              		.loc 1 232 40
 1842 041a DDED107A 		vldr.32	s15, [sp, #64]
 1843 041e 27EE277A 		vmul.f32	s14, s14, s15
 1844              		.loc 1 232 19
 1845 0422 DDED057A 		vldr.32	s15, [sp, #20]
 1846 0426 77EE277A 		vadd.f32	s15, s14, s15
 1847 042a 17EE900A 		vmov	r0, s15
 1848 042e FFF7FEFF 		bl	sqrtf
 1849 0432 0390     		str	r0, [sp, #12]	@ float
 1850              		.loc 1 233 28
 1851 0434 009B     		ldr	r3, [sp]
 1852 0436 93ED027A 		vldr.32	s14, [r3, #8]
 1853              		.loc 1 233 24
 1854 043a DDED147A 		vldr.32	s15, [sp, #80]
 1855 043e 67EE276A 		vmul.f32	s13, s14, s15
 1856              		.loc 1 233 38
 1857 0442 234B     		ldr	r3, .L17
 1858 0444 93ED007A 		vldr.32	s14, [r3]
 1859 0448 DDED037A 		vldr.32	s15, [sp, #12]
 1860 044c 27EE277A 		vmul.f32	s14, s14, s15
 1861              		.loc 1 233 15
 1862 0450 C6EE877A 		vdiv.f32	s15, s13, s14
 1863 0454 CDED027A 		vstr.32	s15, [sp, #8]
 1864              		.loc 1 235 31
 1865 0458 1D4B     		ldr	r3, .L17
 1866 045a 93ED007A 		vldr.32	s14, [r3]
 1867 045e DDED037A 		vldr.32	s15, [sp, #12]
 1868 0462 27EE277A 		vmul.f32	s14, s14, s15
 1869              		.loc 1 235 26
 1870 0466 DDED146A 		vldr.32	s13, [sp, #80]
 1871 046a C6EE877A 		vdiv.f32	s15, s13, s14
 1872              		.loc 1 235 21
 1873 046e B7EE007A 		vmov.f32	s14, #1.0e+0
 1874 0472 37EE677A 		vsub.f32	s14, s14, s15
 1875              		.loc 1 235 16
 1876 0476 DDED047A 		vldr.32	s15, [sp, #16]
 1877 047a 67EE277A 		vmul.f32	s15, s14, s15
 1878              		.loc 1 235 12
 1879 047e 019B     		ldr	r3, [sp, #4]
 1880 0480 C3ED027A 		vstr.32	s15, [r3, #8]
 1881              		.loc 1 236 23
ARM GAS  /tmp/cceRHmPh.s 			page 34


 1882 0484 009B     		ldr	r3, [sp]
 1883 0486 93ED027A 		vldr.32	s14, [r3, #8]
 1884              		.loc 1 236 33
 1885 048a DDED126A 		vldr.32	s13, [sp, #72]
 1886 048e DDED027A 		vldr.32	s15, [sp, #8]
 1887 0492 66EEA77A 		vmul.f32	s15, s13, s15
 1888              		.loc 1 236 27
 1889 0496 37EE277A 		vadd.f32	s14, s14, s15
 1890              		.loc 1 236 14
 1891 049a DDED0E7A 		vldr.32	s15, [sp, #56]
 1892 049e C7EE276A 		vdiv.f32	s13, s14, s15
 1893 04a2 16EE900A 		vmov	r0, s13
 1894 04a6 FFF7FEFF 		bl	atanf
 1895 04aa 0246     		mov	r2, r0	@ float
 1896              		.loc 1 236 12
 1897 04ac 019B     		ldr	r3, [sp, #4]
 1898 04ae 1A60     		str	r2, [r3]	@ float
 1899              		.loc 1 237 14
 1900 04b0 009B     		ldr	r3, [sp]
 1901 04b2 5A68     		ldr	r2, [r3, #4]	@ float
 1902 04b4 009B     		ldr	r3, [sp]
 1903 04b6 1B68     		ldr	r3, [r3]	@ float
 1904 04b8 1946     		mov	r1, r3	@ float
 1905 04ba 1046     		mov	r0, r2	@ float
 1906 04bc FFF7FEFF 		bl	atan2f
 1907 04c0 0246     		mov	r2, r0	@ float
 1908              		.loc 1 237 12
 1909 04c2 019B     		ldr	r3, [sp, #4]
 1910 04c4 5A60     		str	r2, [r3, #4]	@ float
 1911              		.loc 1 239 1
 1912 04c6 00BF     		nop
 1913 04c8 17B0     		add	sp, sp, #92
 1914              		.cfi_def_cfa_offset 28
 1915              		@ sp needed
 1916 04ca BDEC028B 		vldm	sp!, {d8}
 1917              		.cfi_restore 80
 1918              		.cfi_restore 81
 1919              		.cfi_def_cfa_offset 20
 1920 04ce F0BD     		pop	{r4, r5, r6, r7, pc}
 1921              	.L18:
 1922              		.align	2
 1923              	.L17:
 1924 04d0 00000000 		.word	a.3
 1925              		.cfi_endproc
 1926              	.LFE64:
 1927              		.size	lla_of_ecef_f, .-lla_of_ecef_f
 1928              		.section	.text.ecef_of_lla_f,"ax",%progbits
 1929              		.align	1
 1930              		.p2align 4,,15
 1931              		.global	ecef_of_lla_f
 1932              		.syntax unified
 1933              		.thumb
 1934              		.thumb_func
 1935              		.fpu fpv4-sp-d16
 1936              		.type	ecef_of_lla_f, %function
 1937              	ecef_of_lla_f:
 1938              	.LFB65:
ARM GAS  /tmp/cceRHmPh.s 			page 35


 1939              		.loc 1 242 1
 1940              		.cfi_startproc
 1941              		@ args = 0, pretend = 0, frame = 40
 1942              		@ frame_needed = 0, uses_anonymous_args = 0
 1943 0000 30B5     		push	{r4, r5, lr}
 1944              		.cfi_def_cfa_offset 12
 1945              		.cfi_offset 4, -12
 1946              		.cfi_offset 5, -8
 1947              		.cfi_offset 14, -4
 1948 0002 8BB0     		sub	sp, sp, #44
 1949              		.cfi_def_cfa_offset 56
 1950 0004 0190     		str	r0, [sp, #4]
 1951 0006 0091     		str	r1, [sp]
 1952              		.loc 1 247 22
 1953 0008 5D4B     		ldr	r3, .L20
 1954 000a 1B68     		ldr	r3, [r3]	@ float
 1955 000c 1846     		mov	r0, r3	@ float
 1956 000e FFF7FEFF 		bl	__aeabi_f2d
 1957 0012 0246     		mov	r2, r0
 1958 0014 0B46     		mov	r3, r1
 1959 0016 FFF7FEFF 		bl	__aeabi_dadd
 1960 001a 0246     		mov	r2, r0
 1961 001c 0B46     		mov	r3, r1
 1962 001e 1446     		mov	r4, r2
 1963 0020 1D46     		mov	r5, r3
 1964              		.loc 1 247 30
 1965 0022 574B     		ldr	r3, .L20
 1966 0024 93ED007A 		vldr.32	s14, [r3]
 1967 0028 554B     		ldr	r3, .L20
 1968 002a D3ED007A 		vldr.32	s15, [r3]
 1969 002e 67EE277A 		vmul.f32	s15, s14, s15
 1970 0032 17EE900A 		vmov	r0, s15
 1971 0036 FFF7FEFF 		bl	__aeabi_f2d
 1972 003a 0246     		mov	r2, r0
 1973 003c 0B46     		mov	r3, r1
 1974              		.loc 1 247 25
 1975 003e 2046     		mov	r0, r4
 1976 0040 2946     		mov	r1, r5
 1977 0042 FFF7FEFF 		bl	__aeabi_dsub
 1978 0046 0246     		mov	r2, r0
 1979 0048 0B46     		mov	r3, r1
 1980              		.loc 1 247 15
 1981 004a 1046     		mov	r0, r2
 1982 004c 1946     		mov	r1, r3
 1983 004e FFF7FEFF 		bl	__aeabi_d2f
 1984 0052 0346     		mov	r3, r0	@ float
 1985 0054 0993     		str	r3, [sp, #36]	@ float
 1986              		.loc 1 249 25
 1987 0056 009B     		ldr	r3, [sp]
 1988 0058 1B68     		ldr	r3, [r3]	@ float
 1989 005a 1846     		mov	r0, r3	@ float
 1990 005c FFF7FEFF 		bl	sinf
 1991 0060 0890     		str	r0, [sp, #32]	@ float
 1992              		.loc 1 250 25
 1993 0062 009B     		ldr	r3, [sp]
 1994 0064 1B68     		ldr	r3, [r3]	@ float
 1995 0066 1846     		mov	r0, r3	@ float
ARM GAS  /tmp/cceRHmPh.s 			page 36


 1996 0068 FFF7FEFF 		bl	cosf
 1997 006c 0790     		str	r0, [sp, #28]	@ float
 1998              		.loc 1 251 25
 1999 006e 009B     		ldr	r3, [sp]
 2000 0070 5B68     		ldr	r3, [r3, #4]	@ float
 2001 0072 1846     		mov	r0, r3	@ float
 2002 0074 FFF7FEFF 		bl	sinf
 2003 0078 0690     		str	r0, [sp, #24]	@ float
 2004              		.loc 1 252 25
 2005 007a 009B     		ldr	r3, [sp]
 2006 007c 5B68     		ldr	r3, [r3, #4]	@ float
 2007 007e 1846     		mov	r0, r3	@ float
 2008 0080 FFF7FEFF 		bl	cosf
 2009 0084 0590     		str	r0, [sp, #20]	@ float
 2010              		.loc 1 253 35
 2011 0086 9DED097A 		vldr.32	s14, [sp, #36]
 2012 008a DDED087A 		vldr.32	s15, [sp, #32]
 2013 008e 27EE277A 		vmul.f32	s14, s14, s15
 2014              		.loc 1 253 45
 2015 0092 DDED087A 		vldr.32	s15, [sp, #32]
 2016 0096 67EE277A 		vmul.f32	s15, s14, s15
 2017              		.loc 1 253 21
 2018 009a B7EE007A 		vmov.f32	s14, #1.0e+0
 2019 009e 77EE677A 		vsub.f32	s15, s14, s15
 2020 00a2 17EE900A 		vmov	r0, s15
 2021 00a6 FFF7FEFF 		bl	sqrtf
 2022 00aa 0490     		str	r0, [sp, #16]	@ float
 2023              		.loc 1 254 25
 2024 00ac 354B     		ldr	r3, .L20+4
 2025 00ae D3ED006A 		vldr.32	s13, [r3]
 2026              		.loc 1 254 15
 2027 00b2 9DED047A 		vldr.32	s14, [sp, #16]
 2028 00b6 C6EE877A 		vdiv.f32	s15, s13, s14
 2029 00ba CDED037A 		vstr.32	s15, [sp, #12]
 2030              		.loc 1 256 23
 2031 00be 009B     		ldr	r3, [sp]
 2032 00c0 93ED027A 		vldr.32	s14, [r3, #8]
 2033              		.loc 1 256 19
 2034 00c4 DDED037A 		vldr.32	s15, [sp, #12]
 2035 00c8 37EE277A 		vadd.f32	s14, s14, s15
 2036              		.loc 1 256 30
 2037 00cc DDED077A 		vldr.32	s15, [sp, #28]
 2038 00d0 27EE277A 		vmul.f32	s14, s14, s15
 2039              		.loc 1 256 40
 2040 00d4 DDED057A 		vldr.32	s15, [sp, #20]
 2041 00d8 67EE277A 		vmul.f32	s15, s14, s15
 2042              		.loc 1 256 10
 2043 00dc 019B     		ldr	r3, [sp, #4]
 2044 00de C3ED007A 		vstr.32	s15, [r3]
 2045              		.loc 1 257 23
 2046 00e2 009B     		ldr	r3, [sp]
 2047 00e4 93ED027A 		vldr.32	s14, [r3, #8]
 2048              		.loc 1 257 19
 2049 00e8 DDED037A 		vldr.32	s15, [sp, #12]
 2050 00ec 37EE277A 		vadd.f32	s14, s14, s15
 2051              		.loc 1 257 30
 2052 00f0 DDED077A 		vldr.32	s15, [sp, #28]
ARM GAS  /tmp/cceRHmPh.s 			page 37


 2053 00f4 27EE277A 		vmul.f32	s14, s14, s15
 2054              		.loc 1 257 40
 2055 00f8 DDED067A 		vldr.32	s15, [sp, #24]
 2056 00fc 67EE277A 		vmul.f32	s15, s14, s15
 2057              		.loc 1 257 10
 2058 0100 019B     		ldr	r3, [sp, #4]
 2059 0102 C3ED017A 		vstr.32	s15, [r3, #4]
 2060              		.loc 1 258 19
 2061 0106 0398     		ldr	r0, [sp, #12]	@ float
 2062 0108 FFF7FEFF 		bl	__aeabi_f2d
 2063 010c 0446     		mov	r4, r0
 2064 010e 0D46     		mov	r5, r1
 2065              		.loc 1 258 25
 2066 0110 0998     		ldr	r0, [sp, #36]	@ float
 2067 0112 FFF7FEFF 		bl	__aeabi_f2d
 2068 0116 0246     		mov	r2, r0
 2069 0118 0B46     		mov	r3, r1
 2070 011a 4FF00000 		mov	r0, #0
 2071 011e 1A49     		ldr	r1, .L20+8
 2072 0120 FFF7FEFF 		bl	__aeabi_dsub
 2073 0124 0246     		mov	r2, r0
 2074 0126 0B46     		mov	r3, r1
 2075              		.loc 1 258 19
 2076 0128 2046     		mov	r0, r4
 2077 012a 2946     		mov	r1, r5
 2078 012c FFF7FEFF 		bl	__aeabi_dmul
 2079 0130 0246     		mov	r2, r0
 2080 0132 0B46     		mov	r3, r1
 2081 0134 1446     		mov	r4, r2
 2082 0136 1D46     		mov	r5, r3
 2083              		.loc 1 258 35
 2084 0138 009B     		ldr	r3, [sp]
 2085 013a 9B68     		ldr	r3, [r3, #8]	@ float
 2086 013c 1846     		mov	r0, r3	@ float
 2087 013e FFF7FEFF 		bl	__aeabi_f2d
 2088 0142 0246     		mov	r2, r0
 2089 0144 0B46     		mov	r3, r1
 2090              		.loc 1 258 31
 2091 0146 2046     		mov	r0, r4
 2092 0148 2946     		mov	r1, r5
 2093 014a FFF7FEFF 		bl	__aeabi_dadd
 2094 014e 0246     		mov	r2, r0
 2095 0150 0B46     		mov	r3, r1
 2096 0152 1446     		mov	r4, r2
 2097 0154 1D46     		mov	r5, r3
 2098              		.loc 1 258 42
 2099 0156 0898     		ldr	r0, [sp, #32]	@ float
 2100 0158 FFF7FEFF 		bl	__aeabi_f2d
 2101 015c 0246     		mov	r2, r0
 2102 015e 0B46     		mov	r3, r1
 2103 0160 2046     		mov	r0, r4
 2104 0162 2946     		mov	r1, r5
 2105 0164 FFF7FEFF 		bl	__aeabi_dmul
 2106 0168 0246     		mov	r2, r0
 2107 016a 0B46     		mov	r3, r1
 2108 016c 1046     		mov	r0, r2
 2109 016e 1946     		mov	r1, r3
ARM GAS  /tmp/cceRHmPh.s 			page 38


 2110 0170 FFF7FEFF 		bl	__aeabi_d2f
 2111 0174 0246     		mov	r2, r0	@ float
 2112              		.loc 1 258 10
 2113 0176 019B     		ldr	r3, [sp, #4]
 2114 0178 9A60     		str	r2, [r3, #8]	@ float
 2115              		.loc 1 259 1
 2116 017a 00BF     		nop
 2117 017c 0BB0     		add	sp, sp, #44
 2118              		.cfi_def_cfa_offset 12
 2119              		@ sp needed
 2120 017e 30BD     		pop	{r4, r5, pc}
 2121              	.L21:
 2122              		.align	2
 2123              	.L20:
 2124 0180 00000000 		.word	f.1
 2125 0184 00000000 		.word	a.0
 2126 0188 0000F03F 		.word	1072693248
 2127              		.cfi_endproc
 2128              	.LFE65:
 2129              		.size	ecef_of_lla_f, .-ecef_of_lla_f
 2130              		.section	.rodata.serie_coeff_proj_mercator,"a"
 2131              		.align	2
 2132              		.type	serie_coeff_proj_mercator, %object
 2133              		.size	serie_coeff_proj_mercator, 20
 2134              	serie_coeff_proj_mercator:
 2135 0000 2E927F3F 		.word	1065325102
 2136 0004 063D5B3A 		.word	979057926
 2137 0008 CBE54B35 		.word	894166475
 2138 000c 8A53A430 		.word	816075658
 2139 0010 19A5292C 		.word	740926745
 2140              		.section	.rodata.serie_coeff_proj_mercator_inverse,"a"
 2141              		.align	2
 2142              		.type	serie_coeff_proj_mercator_inverse, %object
 2143              		.size	serie_coeff_proj_mercator_inverse, 20
 2144              	serie_coeff_proj_mercator_inverse:
 2145 0000 2E927F3F 		.word	1065325102
 2146 0004 419B5B3A 		.word	979082049
 2147 0008 B8A77D33 		.word	863872952
 2148 000c 48FE372F 		.word	792198728
 2149 0010 BECF702A 		.word	712036286
 2150              		.section	.text.isometric_latitude_f,"ax",%progbits
 2151              		.align	1
 2152              		.p2align 4,,15
 2153              		.syntax unified
 2154              		.thumb
 2155              		.thumb_func
 2156              		.fpu fpv4-sp-d16
 2157              		.type	isometric_latitude_f, %function
 2158              	isometric_latitude_f:
 2159              	.LFB66:
 2160              		.loc 1 278 1
 2161              		.cfi_startproc
 2162              		@ args = 0, pretend = 0, frame = 8
 2163              		@ frame_needed = 0, uses_anonymous_args = 0
 2164 0000 2DE9F043 		push	{r4, r5, r6, r7, r8, r9, lr}
 2165              		.cfi_def_cfa_offset 28
 2166              		.cfi_offset 4, -28
ARM GAS  /tmp/cceRHmPh.s 			page 39


 2167              		.cfi_offset 5, -24
 2168              		.cfi_offset 6, -20
 2169              		.cfi_offset 7, -16
 2170              		.cfi_offset 8, -12
 2171              		.cfi_offset 9, -8
 2172              		.cfi_offset 14, -4
 2173 0004 83B0     		sub	sp, sp, #12
 2174              		.cfi_def_cfa_offset 40
 2175 0006 8DED010A 		vstr.32	s0, [sp, #4]
 2176 000a CDED000A 		vstr.32	s1, [sp]
 2177              		.loc 1 279 33
 2178 000e 0198     		ldr	r0, [sp, #4]	@ float
 2179 0010 FFF7FEFF 		bl	__aeabi_f2d
 2180 0014 4FF00002 		mov	r2, #0
 2181 0018 4FF08043 		mov	r3, #1073741824
 2182 001c FFF7FEFF 		bl	__aeabi_ddiv
 2183 0020 0246     		mov	r2, r0
 2184 0022 0B46     		mov	r3, r1
 2185 0024 1046     		mov	r0, r2
 2186 0026 1946     		mov	r1, r3
 2187              		.loc 1 279 27
 2188 0028 40A3     		adr	r3, .L24+4
 2189 002a D3E90023 		ldrd	r2, [r3]
 2190 002e FFF7FEFF 		bl	__aeabi_dadd
 2191 0032 0246     		mov	r2, r0
 2192 0034 0B46     		mov	r3, r1
 2193              		.loc 1 279 10
 2194 0036 1046     		mov	r0, r2
 2195 0038 1946     		mov	r1, r3
 2196 003a FFF7FEFF 		bl	__aeabi_d2f
 2197 003e 0346     		mov	r3, r0	@ float
 2198 0040 1846     		mov	r0, r3	@ float
 2199 0042 FFF7FEFF 		bl	tanf
 2200 0046 0346     		mov	r3, r0	@ float
 2201 0048 1846     		mov	r0, r3	@ float
 2202 004a FFF7FEFF 		bl	logf
 2203 004e 0346     		mov	r3, r0	@ float
 2204 0050 1846     		mov	r0, r3	@ float
 2205 0052 FFF7FEFF 		bl	__aeabi_f2d
 2206 0056 0446     		mov	r4, r0
 2207 0058 0D46     		mov	r5, r1
 2208              		.loc 1 279 45
 2209 005a 0098     		ldr	r0, [sp]	@ float
 2210 005c FFF7FEFF 		bl	__aeabi_f2d
 2211 0060 4FF00002 		mov	r2, #0
 2212 0064 4FF08043 		mov	r3, #1073741824
 2213 0068 FFF7FEFF 		bl	__aeabi_ddiv
 2214 006c 0246     		mov	r2, r0
 2215 006e 0B46     		mov	r3, r1
 2216 0070 1646     		mov	r6, r2
 2217 0072 1F46     		mov	r7, r3
 2218              		.loc 1 279 69
 2219 0074 0198     		ldr	r0, [sp, #4]	@ float
 2220 0076 FFF7FEFF 		bl	sinf
 2221 007a 07EE100A 		vmov	s14, r0
 2222              		.loc 1 279 67
 2223 007e DDED007A 		vldr.32	s15, [sp]
ARM GAS  /tmp/cceRHmPh.s 			page 40


 2224 0082 67EE277A 		vmul.f32	s15, s14, s15
 2225 0086 17EE900A 		vmov	r0, s15
 2226 008a FFF7FEFF 		bl	__aeabi_f2d
 2227              		.loc 1 279 63
 2228 008e 4FF00002 		mov	r2, #0
 2229 0092 254B     		ldr	r3, .L24
 2230 0094 FFF7FEFF 		bl	__aeabi_dadd
 2231 0098 0246     		mov	r2, r0
 2232 009a 0B46     		mov	r3, r1
 2233 009c 9046     		mov	r8, r2
 2234 009e 9946     		mov	r9, r3
 2235              		.loc 1 279 93
 2236 00a0 0198     		ldr	r0, [sp, #4]	@ float
 2237 00a2 FFF7FEFF 		bl	sinf
 2238 00a6 07EE100A 		vmov	s14, r0
 2239              		.loc 1 279 91
 2240 00aa DDED007A 		vldr.32	s15, [sp]
 2241 00ae 67EE277A 		vmul.f32	s15, s14, s15
 2242 00b2 17EE900A 		vmov	r0, s15
 2243 00b6 FFF7FEFF 		bl	__aeabi_f2d
 2244 00ba 0246     		mov	r2, r0
 2245 00bc 0B46     		mov	r3, r1
 2246              		.loc 1 279 87
 2247 00be 4FF00000 		mov	r0, #0
 2248 00c2 1949     		ldr	r1, .L24
 2249 00c4 FFF7FEFF 		bl	__aeabi_dsub
 2250 00c8 0246     		mov	r2, r0
 2251 00ca 0B46     		mov	r3, r1
 2252              		.loc 1 279 80
 2253 00cc 4046     		mov	r0, r8
 2254 00ce 4946     		mov	r1, r9
 2255 00d0 FFF7FEFF 		bl	__aeabi_ddiv
 2256 00d4 0246     		mov	r2, r0
 2257 00d6 0B46     		mov	r3, r1
 2258              		.loc 1 279 53
 2259 00d8 1046     		mov	r0, r2
 2260 00da 1946     		mov	r1, r3
 2261 00dc FFF7FEFF 		bl	__aeabi_d2f
 2262 00e0 0346     		mov	r3, r0	@ float
 2263 00e2 1846     		mov	r0, r3	@ float
 2264 00e4 FFF7FEFF 		bl	logf
 2265 00e8 0346     		mov	r3, r0	@ float
 2266 00ea 1846     		mov	r0, r3	@ float
 2267 00ec FFF7FEFF 		bl	__aeabi_f2d
 2268 00f0 0246     		mov	r2, r0
 2269 00f2 0B46     		mov	r3, r1
 2270              		.loc 1 279 51
 2271 00f4 3046     		mov	r0, r6
 2272 00f6 3946     		mov	r1, r7
 2273 00f8 FFF7FEFF 		bl	__aeabi_dmul
 2274 00fc 0246     		mov	r2, r0
 2275 00fe 0B46     		mov	r3, r1
 2276              		.loc 1 279 41
 2277 0100 2046     		mov	r0, r4
 2278 0102 2946     		mov	r1, r5
 2279 0104 FFF7FEFF 		bl	__aeabi_dsub
 2280 0108 0246     		mov	r2, r0
ARM GAS  /tmp/cceRHmPh.s 			page 41


 2281 010a 0B46     		mov	r3, r1
 2282 010c 1046     		mov	r0, r2
 2283 010e 1946     		mov	r1, r3
 2284 0110 FFF7FEFF 		bl	__aeabi_d2f
 2285 0114 0346     		mov	r3, r0	@ float
 2286 0116 07EE903A 		vmov	s15, r3
 2287              		.loc 1 280 1
 2288 011a B0EE670A 		vmov.f32	s0, s15
 2289 011e 03B0     		add	sp, sp, #12
 2290              		.cfi_def_cfa_offset 28
 2291              		@ sp needed
 2292 0120 BDE8F083 		pop	{r4, r5, r6, r7, r8, r9, pc}
 2293              	.L25:
 2294 0124 AFF30080 		.align	3
 2295              	.L24:
 2296 0128 0000F03F 		.word	1072693248
 2297 012c 182D4454 		.word	1413754136
 2298 0130 FB21E93F 		.word	1072243195
 2299              		.cfi_endproc
 2300              	.LFE66:
 2301              		.size	isometric_latitude_f, .-isometric_latitude_f
 2302              		.section	.text.isometric_latitude_fast_f,"ax",%progbits
 2303              		.align	1
 2304              		.p2align 4,,15
 2305              		.syntax unified
 2306              		.thumb
 2307              		.thumb_func
 2308              		.fpu fpv4-sp-d16
 2309              		.type	isometric_latitude_fast_f, %function
 2310              	isometric_latitude_fast_f:
 2311              	.LFB67:
 2312              		.loc 1 283 1
 2313              		.cfi_startproc
 2314              		@ args = 0, pretend = 0, frame = 8
 2315              		@ frame_needed = 0, uses_anonymous_args = 0
 2316 0000 00B5     		push	{lr}
 2317              		.cfi_def_cfa_offset 4
 2318              		.cfi_offset 14, -4
 2319 0002 83B0     		sub	sp, sp, #12
 2320              		.cfi_def_cfa_offset 16
 2321 0004 8DED010A 		vstr.32	s0, [sp, #4]
 2322              		.loc 1 284 33
 2323 0008 0198     		ldr	r0, [sp, #4]	@ float
 2324 000a FFF7FEFF 		bl	__aeabi_f2d
 2325 000e 4FF00002 		mov	r2, #0
 2326 0012 4FF08043 		mov	r3, #1073741824
 2327 0016 FFF7FEFF 		bl	__aeabi_ddiv
 2328 001a 0246     		mov	r2, r0
 2329 001c 0B46     		mov	r3, r1
 2330 001e 1046     		mov	r0, r2
 2331 0020 1946     		mov	r1, r3
 2332              		.loc 1 284 27
 2333 0022 0DA3     		adr	r3, .L28
 2334 0024 D3E90023 		ldrd	r2, [r3]
 2335 0028 FFF7FEFF 		bl	__aeabi_dadd
 2336 002c 0246     		mov	r2, r0
 2337 002e 0B46     		mov	r3, r1
ARM GAS  /tmp/cceRHmPh.s 			page 42


 2338              		.loc 1 284 10
 2339 0030 1046     		mov	r0, r2
 2340 0032 1946     		mov	r1, r3
 2341 0034 FFF7FEFF 		bl	__aeabi_d2f
 2342 0038 0346     		mov	r3, r0	@ float
 2343 003a 1846     		mov	r0, r3	@ float
 2344 003c FFF7FEFF 		bl	tanf
 2345 0040 0346     		mov	r3, r0	@ float
 2346 0042 1846     		mov	r0, r3	@ float
 2347 0044 FFF7FEFF 		bl	logf
 2348 0048 0346     		mov	r3, r0	@ float
 2349 004a 07EE903A 		vmov	s15, r3
 2350              		.loc 1 285 1
 2351 004e B0EE670A 		vmov.f32	s0, s15
 2352 0052 03B0     		add	sp, sp, #12
 2353              		.cfi_def_cfa_offset 4
 2354              		@ sp needed
 2355 0054 5DF804FB 		ldr	pc, [sp], #4
 2356              	.L29:
 2357              		.align	3
 2358              	.L28:
 2359 0058 182D4454 		.word	1413754136
 2360 005c FB21E93F 		.word	1072243195
 2361              		.cfi_endproc
 2362              	.LFE67:
 2363              		.size	isometric_latitude_fast_f, .-isometric_latitude_fast_f
 2364              		.section	.text.inverse_isometric_latitude_f,"ax",%progbits
 2365              		.align	1
 2366              		.p2align 4,,15
 2367              		.syntax unified
 2368              		.thumb
 2369              		.thumb_func
 2370              		.fpu fpv4-sp-d16
 2371              		.type	inverse_isometric_latitude_f, %function
 2372              	inverse_isometric_latitude_f:
 2373              	.LFB68:
 2374              		.loc 1 288 1
 2375              		.cfi_startproc
 2376              		@ args = 0, pretend = 0, frame = 40
 2377              		@ frame_needed = 0, uses_anonymous_args = 0
 2378 0000 30B5     		push	{r4, r5, lr}
 2379              		.cfi_def_cfa_offset 12
 2380              		.cfi_offset 4, -12
 2381              		.cfi_offset 5, -8
 2382              		.cfi_offset 14, -4
 2383 0002 8BB0     		sub	sp, sp, #44
 2384              		.cfi_def_cfa_offset 56
 2385 0004 8DED030A 		vstr.32	s0, [sp, #12]
 2386 0008 CDED020A 		vstr.32	s1, [sp, #8]
 2387 000c 8DED011A 		vstr.32	s2, [sp, #4]
 2388              		.loc 1 289 17
 2389 0010 0398     		ldr	r0, [sp, #12]	@ float
 2390 0012 FFF7FEFF 		bl	expf
 2391 0016 0790     		str	r0, [sp, #28]	@ float
 2392              		.loc 1 290 20
 2393 0018 0798     		ldr	r0, [sp, #28]	@ float
 2394 001a FFF7FEFF 		bl	atanf
ARM GAS  /tmp/cceRHmPh.s 			page 43


 2395 001e 07EE900A 		vmov	s15, r0
 2396              		.loc 1 290 18
 2397 0022 77EEA77A 		vadd.f32	s15, s15, s15
 2398 0026 17EE900A 		vmov	r0, s15
 2399 002a FFF7FEFF 		bl	__aeabi_f2d
 2400              		.loc 1 290 33
 2401 002e 44A3     		adr	r3, .L34
 2402 0030 D3E90023 		ldrd	r2, [r3]
 2403 0034 FFF7FEFF 		bl	__aeabi_dsub
 2404 0038 0246     		mov	r2, r0
 2405 003a 0B46     		mov	r3, r1
 2406              		.loc 1 290 9
 2407 003c 1046     		mov	r0, r2
 2408 003e 1946     		mov	r1, r3
 2409 0040 FFF7FEFF 		bl	__aeabi_d2f
 2410 0044 0346     		mov	r3, r0	@ float
 2411 0046 0993     		str	r3, [sp, #36]	@ float
 2412              		.loc 1 292 11
 2413 0048 0323     		movs	r3, #3
 2414 004a 8DF82330 		strb	r3, [sp, #35]
 2415              	.L32:
 2416              	.LBB2:
 2417              		.loc 1 295 10 discriminator 2
 2418 004e 099B     		ldr	r3, [sp, #36]	@ float
 2419 0050 0693     		str	r3, [sp, #24]	@ float
 2420              		.loc 1 296 25 discriminator 2
 2421 0052 0698     		ldr	r0, [sp, #24]	@ float
 2422 0054 FFF7FEFF 		bl	sinf
 2423 0058 07EE100A 		vmov	s14, r0
 2424              		.loc 1 296 11 discriminator 2
 2425 005c DDED027A 		vldr.32	s15, [sp, #8]
 2426 0060 67EE877A 		vmul.f32	s15, s15, s14
 2427 0064 CDED057A 		vstr.32	s15, [sp, #20]
 2428              		.loc 1 297 30 discriminator 2
 2429 0068 DDED057A 		vldr.32	s15, [sp, #20]
 2430 006c B7EE007A 		vmov.f32	s14, #1.0e+0
 2431 0070 77EE877A 		vadd.f32	s15, s15, s14
 2432 0074 17EE900A 		vmov	r0, s15
 2433 0078 FFF7FEFF 		bl	__aeabi_f2d
 2434 007c 0446     		mov	r4, r0
 2435 007e 0D46     		mov	r5, r1
 2436              		.loc 1 297 47 discriminator 2
 2437 0080 0598     		ldr	r0, [sp, #20]	@ float
 2438 0082 FFF7FEFF 		bl	__aeabi_f2d
 2439 0086 0246     		mov	r2, r0
 2440 0088 0B46     		mov	r3, r1
 2441 008a 4FF00000 		mov	r0, #0
 2442 008e 2E49     		ldr	r1, .L34+8
 2443 0090 FFF7FEFF 		bl	__aeabi_dsub
 2444 0094 0246     		mov	r2, r0
 2445 0096 0B46     		mov	r3, r1
 2446              		.loc 1 297 41 discriminator 2
 2447 0098 2046     		mov	r0, r4
 2448 009a 2946     		mov	r1, r5
 2449 009c FFF7FEFF 		bl	__aeabi_ddiv
 2450 00a0 0246     		mov	r2, r0
 2451 00a2 0B46     		mov	r3, r1
ARM GAS  /tmp/cceRHmPh.s 			page 44


 2452              		.loc 1 297 22 discriminator 2
 2453 00a4 1046     		mov	r0, r2
 2454 00a6 1946     		mov	r1, r3
 2455 00a8 FFF7FEFF 		bl	__aeabi_d2f
 2456 00ac 0346     		mov	r3, r0	@ float
 2457 00ae DDED027A 		vldr.32	s15, [sp, #8]
 2458 00b2 B0EE007A 		vmov.f32	s14, #2.0e+0
 2459 00b6 C7EE876A 		vdiv.f32	s13, s15, s14
 2460 00ba 16EE901A 		vmov	r1, s13
 2461 00be 1846     		mov	r0, r3	@ float
 2462 00c0 FFF7FEFF 		bl	powf
 2463 00c4 07EE100A 		vmov	s14, r0
 2464              		.loc 1 297 16 discriminator 2
 2465 00c8 DDED077A 		vldr.32	s15, [sp, #28]
 2466 00cc 67EE277A 		vmul.f32	s15, s14, s15
 2467 00d0 17EE900A 		vmov	r0, s15
 2468 00d4 FFF7FEFF 		bl	atanf
 2469 00d8 07EE900A 		vmov	s15, r0
 2470              		.loc 1 297 14 discriminator 2
 2471 00dc 77EEA77A 		vadd.f32	s15, s15, s15
 2472 00e0 17EE900A 		vmov	r0, s15
 2473 00e4 FFF7FEFF 		bl	__aeabi_f2d
 2474              		.loc 1 297 76 discriminator 2
 2475 00e8 15A3     		adr	r3, .L34
 2476 00ea D3E90023 		ldrd	r2, [r3]
 2477 00ee FFF7FEFF 		bl	__aeabi_dsub
 2478 00f2 0246     		mov	r2, r0
 2479 00f4 0B46     		mov	r3, r1
 2480              		.loc 1 297 10 discriminator 2
 2481 00f6 1046     		mov	r0, r2
 2482 00f8 1946     		mov	r1, r3
 2483 00fa FFF7FEFF 		bl	__aeabi_d2f
 2484 00fe 0346     		mov	r3, r0	@ float
 2485 0100 0993     		str	r3, [sp, #36]	@ float
 2486              		.loc 1 298 13 discriminator 2
 2487 0102 9DF82330 		ldrb	r3, [sp, #35]	@ zero_extendqisi2
 2488 0106 013B     		subs	r3, r3, #1
 2489 0108 8DF82330 		strb	r3, [sp, #35]
 2490              	.LBE2:
 2491              		.loc 1 299 3 discriminator 2
 2492 010c 9DF82330 		ldrb	r3, [sp, #35]	@ zero_extendqisi2
 2493 0110 002B     		cmp	r3, #0
 2494 0112 0ED0     		beq	.L31
 2495              		.loc 1 299 35 discriminator 1
 2496 0114 9DED067A 		vldr.32	s14, [sp, #24]
 2497 0118 DDED097A 		vldr.32	s15, [sp, #36]
 2498 011c 77EE677A 		vsub.f32	s15, s14, s15
 2499              		.loc 1 299 24 discriminator 1
 2500 0120 F0EEE77A 		vabs.f32	s15, s15
 2501              		.loc 1 299 21 discriminator 1
 2502 0124 9DED017A 		vldr.32	s14, [sp, #4]
 2503 0128 B4EEE77A 		vcmpe.f32	s14, s15
 2504 012c F1EE10FA 		vmrs	APSR_nzcv, FPSCR
 2505 0130 8DD4     		bmi	.L32
 2506              	.L31:
 2507              		.loc 1 300 10
 2508 0132 099B     		ldr	r3, [sp, #36]	@ float
ARM GAS  /tmp/cceRHmPh.s 			page 45


 2509 0134 07EE903A 		vmov	s15, r3
 2510              		.loc 1 301 1
 2511 0138 B0EE670A 		vmov.f32	s0, s15
 2512 013c 0BB0     		add	sp, sp, #44
 2513              		.cfi_def_cfa_offset 12
 2514              		@ sp needed
 2515 013e 30BD     		pop	{r4, r5, pc}
 2516              	.L35:
 2517              		.align	3
 2518              	.L34:
 2519 0140 182D4454 		.word	1413754136
 2520 0144 FB21F93F 		.word	1073291771
 2521 0148 0000F03F 		.word	1072693248
 2522              		.cfi_endproc
 2523              	.LFE68:
 2524              		.size	inverse_isometric_latitude_f, .-inverse_isometric_latitude_f
 2525              		.global	__aeabi_d2uiz
 2526              		.global	__aeabi_i2d
 2527              		.section	.text.utm_of_lla_f,"ax",%progbits
 2528              		.align	1
 2529              		.p2align 4,,15
 2530              		.global	utm_of_lla_f
 2531              		.syntax unified
 2532              		.thumb
 2533              		.thumb_func
 2534              		.fpu fpv4-sp-d16
 2535              		.type	utm_of_lla_f, %function
 2536              	utm_of_lla_f:
 2537              	.LFB69:
 2538              		.loc 1 309 1
 2539              		.cfi_startproc
 2540              		@ args = 0, pretend = 0, frame = 80
 2541              		@ frame_needed = 0, uses_anonymous_args = 0
 2542 0000 30B5     		push	{r4, r5, lr}
 2543              		.cfi_def_cfa_offset 12
 2544              		.cfi_offset 4, -12
 2545              		.cfi_offset 5, -8
 2546              		.cfi_offset 14, -4
 2547 0002 2DED028B 		vpush.64	{d8}
 2548              		.cfi_def_cfa_offset 20
 2549              		.cfi_offset 80, -20
 2550              		.cfi_offset 81, -16
 2551 0006 95B0     		sub	sp, sp, #84
 2552              		.cfi_def_cfa_offset 104
 2553 0008 0190     		str	r0, [sp, #4]
 2554 000a 0091     		str	r1, [sp]
 2555              		.loc 1 311 10
 2556 000c 019B     		ldr	r3, [sp, #4]
 2557 000e 1B7B     		ldrb	r3, [r3, #12]	@ zero_extendqisi2
 2558              		.loc 1 311 6
 2559 0010 002B     		cmp	r3, #0
 2560 0012 30D1     		bne	.L37
 2561              		.loc 1 312 17
 2562 0014 009B     		ldr	r3, [sp]
 2563 0016 5B68     		ldr	r3, [r3, #4]	@ float
 2564 0018 1846     		mov	r0, r3	@ float
 2565 001a FFF7FEFF 		bl	__aeabi_f2d
ARM GAS  /tmp/cceRHmPh.s 			page 46


 2566 001e 53A3     		adr	r3, .L40+28
 2567 0020 D3E90023 		ldrd	r2, [r3]
 2568 0024 FFF7FEFF 		bl	__aeabi_dmul
 2569 0028 0246     		mov	r2, r0
 2570 002a 0B46     		mov	r3, r1
 2571 002c 1046     		mov	r0, r2
 2572 002e 1946     		mov	r1, r3
 2573 0030 4FF00002 		mov	r2, #0
 2574 0034 484B     		ldr	r3, .L40+8
 2575 0036 FFF7FEFF 		bl	__aeabi_dadd
 2576 003a 0246     		mov	r2, r0
 2577 003c 0B46     		mov	r3, r1
 2578 003e 1046     		mov	r0, r2
 2579 0040 1946     		mov	r1, r3
 2580 0042 FFF7FEFF 		bl	floor
 2581 0046 4FF00002 		mov	r2, #0
 2582 004a 444B     		ldr	r3, .L40+12
 2583 004c FFF7FEFF 		bl	__aeabi_ddiv
 2584 0050 0246     		mov	r2, r0
 2585 0052 0B46     		mov	r3, r1
 2586 0054 1046     		mov	r0, r2
 2587 0056 1946     		mov	r1, r3
 2588 0058 4FF00002 		mov	r2, #0
 2589 005c 404B     		ldr	r3, .L40+16
 2590 005e FFF7FEFF 		bl	__aeabi_dadd
 2591 0062 0246     		mov	r2, r0
 2592 0064 0B46     		mov	r3, r1
 2593              		.loc 1 312 15
 2594 0066 1046     		mov	r0, r2
 2595 0068 1946     		mov	r1, r3
 2596 006a FFF7FEFF 		bl	__aeabi_d2uiz
 2597 006e 0346     		mov	r3, r0
 2598 0070 DAB2     		uxtb	r2, r3
 2599 0072 019B     		ldr	r3, [sp, #4]
 2600 0074 1A73     		strb	r2, [r3, #12]
 2601              	.L37:
 2602              		.loc 1 315 20
 2603 0076 019B     		ldr	r3, [sp, #4]
 2604 0078 1B7B     		ldrb	r3, [r3, #12]	@ zero_extendqisi2
 2605 007a 5A1E     		subs	r2, r3, #1
 2606 007c 1346     		mov	r3, r2
 2607 007e 5B00     		lsls	r3, r3, #1
 2608 0080 1344     		add	r3, r3, r2
 2609 0082 5B00     		lsls	r3, r3, #1
 2610 0084 B13B     		subs	r3, r3, #177
 2611 0086 1846     		mov	r0, r3
 2612 0088 FFF7FEFF 		bl	__aeabi_i2d
 2613 008c 30A3     		adr	r3, .L40
 2614 008e D3E90023 		ldrd	r2, [r3]
 2615 0092 FFF7FEFF 		bl	__aeabi_dmul
 2616 0096 0246     		mov	r2, r0
 2617 0098 0B46     		mov	r3, r1
 2618              		.loc 1 315 9
 2619 009a 1046     		mov	r0, r2
 2620 009c 1946     		mov	r1, r3
 2621 009e FFF7FEFF 		bl	__aeabi_d2f
 2622 00a2 0346     		mov	r3, r0	@ float
ARM GAS  /tmp/cceRHmPh.s 			page 47


 2623 00a4 1293     		str	r3, [sp, #72]	@ float
 2624              		.loc 1 316 14
 2625 00a6 009B     		ldr	r3, [sp]
 2626 00a8 D3ED007A 		vldr.32	s15, [r3]
 2627 00ac DFED2D0A 		vldr.32	s1, .L40+20
 2628 00b0 B0EE670A 		vmov.f32	s0, s15
 2629 00b4 FFF7FEFF 		bl	isometric_latitude_f
 2630 00b8 8DED110A 		vstr.32	s0, [sp, #68]
 2631              		.loc 1 317 17
 2632 00bc 009B     		ldr	r3, [sp]
 2633 00be 93ED017A 		vldr.32	s14, [r3, #4]
 2634              		.loc 1 317 9
 2635 00c2 DDED127A 		vldr.32	s15, [sp, #72]
 2636 00c6 77EE677A 		vsub.f32	s15, s14, s15
 2637 00ca CDED107A 		vstr.32	s15, [sp, #64]
 2638              		.loc 1 318 22
 2639 00ce 1098     		ldr	r0, [sp, #64]	@ float
 2640 00d0 FFF7FEFF 		bl	sinf
 2641 00d4 08EE100A 		vmov	s16, r0
 2642              		.loc 1 318 33
 2643 00d8 1198     		ldr	r0, [sp, #68]	@ float
 2644 00da FFF7FEFF 		bl	coshf
 2645 00de 07EE100A 		vmov	s14, r0
 2646              		.loc 1 318 16
 2647 00e2 C8EE077A 		vdiv.f32	s15, s16, s14
 2648 00e6 17EE900A 		vmov	r0, s15
 2649 00ea FFF7FEFF 		bl	asinf
 2650 00ee 0F90     		str	r0, [sp, #60]	@ float
 2651              		.loc 1 319 15
 2652 00f0 9DED0F0A 		vldr.32	s0, [sp, #60]
 2653 00f4 FFF7FEFF 		bl	isometric_latitude_fast_f
 2654 00f8 8DED0E0A 		vstr.32	s0, [sp, #56]
 2655              		.loc 1 320 25
 2656 00fc 1198     		ldr	r0, [sp, #68]	@ float
 2657 00fe FFF7FEFF 		bl	sinhf
 2658 0102 08EE100A 		vmov	s16, r0
 2659              		.loc 1 320 37
 2660 0106 1098     		ldr	r0, [sp, #64]	@ float
 2661 0108 FFF7FEFF 		bl	cosf
 2662 010c 07EE100A 		vmov	s14, r0
 2663              		.loc 1 320 19
 2664 0110 C8EE077A 		vdiv.f32	s15, s16, s14
 2665 0114 17EE900A 		vmov	r0, s15
 2666 0118 FFF7FEFF 		bl	atanf
 2667 011c 0D90     		str	r0, [sp, #52]	@ float
 2668              		.loc 1 321 18
 2669 011e 0D9B     		ldr	r3, [sp, #52]	@ float
 2670 0120 0693     		str	r3, [sp, #24]	@ float
 2671 0122 0E9B     		ldr	r3, [sp, #56]	@ float
 2672 0124 0793     		str	r3, [sp, #28]	@ float
 2673              		.loc 1 322 3
 2674 0126 DDED067A 		vldr.32	s15, [sp, #24]
 2675 012a 9FED0F7A 		vldr.32	s14, .L40+24
 2676 012e 67EE877A 		vmul.f32	s15, s15, s14
 2677 0132 CDED067A 		vstr.32	s15, [sp, #24]
 2678 0136 DDED077A 		vldr.32	s15, [sp, #28]
 2679 013a 9FED0B7A 		vldr.32	s14, .L40+24
ARM GAS  /tmp/cceRHmPh.s 			page 48


 2680 013e 67EE877A 		vmul.f32	s15, s15, s14
 2681 0142 CDED077A 		vstr.32	s15, [sp, #28]
 2682              		.loc 1 324 10
 2683 0146 0123     		movs	r3, #1
 2684 0148 8DF84F30 		strb	r3, [sp, #79]
 2685              		.loc 1 324 3
 2686 014c FFE0     		b	.L38
 2687              	.L41:
 2688 014e 00BF     		.align	3
 2689              	.L40:
 2690 0150 399D52A2 		.word	-1571644103
 2691 0154 46DF913F 		.word	1066524486
 2692 0158 00806640 		.word	1080459264
 2693 015c 00001840 		.word	1075314688
 2694 0160 0000F03F 		.word	1072693248
 2695 0164 D290A73D 		.word	1034391762
 2696 0168 2E927F3F 		.word	1065325102
 2697 016c F8C1631A 		.word	442745336
 2698 0170 DCA54C40 		.word	1078765020
 2699              	.L39:
 2700              	.LBB3:
 2701              		.loc 1 325 20 discriminator 3
 2702 0174 0D9B     		ldr	r3, [sp, #52]	@ float
 2703 0176 0493     		str	r3, [sp, #16]	@ float
 2704 0178 0E9B     		ldr	r3, [sp, #56]	@ float
 2705 017a 0593     		str	r3, [sp, #20]	@ float
 2706              		.loc 1 326 5 discriminator 3
 2707 017c 049B     		ldr	r3, [sp, #16]	@ float
 2708 017e 1846     		mov	r0, r3	@ float
 2709 0180 FFF7FEFF 		bl	__aeabi_f2d
 2710 0184 0446     		mov	r4, r0
 2711 0186 0D46     		mov	r5, r1
 2712 0188 9DF94F30 		ldrsb	r3, [sp, #79]
 2713 018c 1846     		mov	r0, r3
 2714 018e FFF7FEFF 		bl	__aeabi_i2d
 2715 0192 0246     		mov	r2, r0
 2716 0194 0B46     		mov	r3, r1
 2717 0196 FFF7FEFF 		bl	__aeabi_dadd
 2718 019a 0246     		mov	r2, r0
 2719 019c 0B46     		mov	r3, r1
 2720 019e 2046     		mov	r0, r4
 2721 01a0 2946     		mov	r1, r5
 2722 01a2 FFF7FEFF 		bl	__aeabi_dmul
 2723 01a6 0246     		mov	r2, r0
 2724 01a8 0B46     		mov	r3, r1
 2725 01aa 1046     		mov	r0, r2
 2726 01ac 1946     		mov	r1, r3
 2727 01ae FFF7FEFF 		bl	__aeabi_d2f
 2728 01b2 0346     		mov	r3, r0	@ float
 2729 01b4 0493     		str	r3, [sp, #16]	@ float
 2730 01b6 059B     		ldr	r3, [sp, #20]	@ float
 2731 01b8 1846     		mov	r0, r3	@ float
 2732 01ba FFF7FEFF 		bl	__aeabi_f2d
 2733 01be 0446     		mov	r4, r0
 2734 01c0 0D46     		mov	r5, r1
 2735 01c2 9DF94F30 		ldrsb	r3, [sp, #79]
 2736 01c6 1846     		mov	r0, r3
ARM GAS  /tmp/cceRHmPh.s 			page 49


 2737 01c8 FFF7FEFF 		bl	__aeabi_i2d
 2738 01cc 0246     		mov	r2, r0
 2739 01ce 0B46     		mov	r3, r1
 2740 01d0 FFF7FEFF 		bl	__aeabi_dadd
 2741 01d4 0246     		mov	r2, r0
 2742 01d6 0B46     		mov	r3, r1
 2743 01d8 2046     		mov	r0, r4
 2744 01da 2946     		mov	r1, r5
 2745 01dc FFF7FEFF 		bl	__aeabi_dmul
 2746 01e0 0246     		mov	r2, r0
 2747 01e2 0B46     		mov	r3, r1
 2748 01e4 1046     		mov	r0, r2
 2749 01e6 1946     		mov	r1, r3
 2750 01e8 FFF7FEFF 		bl	__aeabi_d2f
 2751 01ec 0346     		mov	r3, r0	@ float
 2752 01ee 0593     		str	r3, [sp, #20]	@ float
 2753              	.LBB4:
 2754              	.LBB5:
 2755              		.loc 1 327 5 discriminator 3
 2756 01f0 049B     		ldr	r3, [sp, #16]	@ float
 2757 01f2 0C93     		str	r3, [sp, #48]	@ float
 2758 01f4 DDED057A 		vldr.32	s15, [sp, #20]
 2759 01f8 F1EE677A 		vneg.f32	s15, s15
 2760 01fc CDED047A 		vstr.32	s15, [sp, #16]
 2761 0200 0C9B     		ldr	r3, [sp, #48]	@ float
 2762 0202 0593     		str	r3, [sp, #20]	@ float
 2763              	.LBE5:
 2764 0204 DDED047A 		vldr.32	s15, [sp, #16]
 2765 0208 F1EE677A 		vneg.f32	s15, s15
 2766 020c CDED027A 		vstr.32	s15, [sp, #8]
 2767 0210 DDED057A 		vldr.32	s15, [sp, #20]
 2768 0214 F1EE677A 		vneg.f32	s15, s15
 2769 0218 CDED037A 		vstr.32	s15, [sp, #12]
 2770 021c 049B     		ldr	r3, [sp, #16]	@ float
 2771 021e 1846     		mov	r0, r3	@ float
 2772 0220 FFF7FEFF 		bl	__aeabi_f2d
 2773 0224 0246     		mov	r2, r0
 2774 0226 0B46     		mov	r3, r1
 2775 0228 1046     		mov	r0, r2
 2776 022a 1946     		mov	r1, r3
 2777 022c FFF7FEFF 		bl	exp
 2778 0230 0246     		mov	r2, r0
 2779 0232 0B46     		mov	r3, r1
 2780 0234 1046     		mov	r0, r2
 2781 0236 1946     		mov	r1, r3
 2782 0238 FFF7FEFF 		bl	__aeabi_d2f
 2783 023c 0346     		mov	r3, r0	@ float
 2784 023e 0B93     		str	r3, [sp, #44]	@ float
 2785 0240 059B     		ldr	r3, [sp, #20]	@ float
 2786 0242 1846     		mov	r0, r3	@ float
 2787 0244 FFF7FEFF 		bl	cosf
 2788 0248 0A90     		str	r0, [sp, #40]	@ float
 2789 024a 9DED0B7A 		vldr.32	s14, [sp, #44]
 2790 024e DDED0A7A 		vldr.32	s15, [sp, #40]
 2791 0252 67EE277A 		vmul.f32	s15, s14, s15
 2792 0256 CDED047A 		vstr.32	s15, [sp, #16]
 2793 025a 059B     		ldr	r3, [sp, #20]	@ float
ARM GAS  /tmp/cceRHmPh.s 			page 50


 2794 025c 1846     		mov	r0, r3	@ float
 2795 025e FFF7FEFF 		bl	sinf
 2796 0262 0990     		str	r0, [sp, #36]	@ float
 2797 0264 9DED0B7A 		vldr.32	s14, [sp, #44]
 2798 0268 DDED097A 		vldr.32	s15, [sp, #36]
 2799 026c 67EE277A 		vmul.f32	s15, s14, s15
 2800 0270 CDED057A 		vstr.32	s15, [sp, #20]
 2801 0274 DDED0A6A 		vldr.32	s13, [sp, #40]
 2802 0278 9DED0B7A 		vldr.32	s14, [sp, #44]
 2803 027c C6EE877A 		vdiv.f32	s15, s13, s14
 2804 0280 CDED027A 		vstr.32	s15, [sp, #8]
 2805 0284 DDED097A 		vldr.32	s15, [sp, #36]
 2806 0288 F1EE676A 		vneg.f32	s13, s15
 2807 028c 9DED0B7A 		vldr.32	s14, [sp, #44]
 2808 0290 C6EE877A 		vdiv.f32	s15, s13, s14
 2809 0294 CDED037A 		vstr.32	s15, [sp, #12]
 2810 0298 9DED047A 		vldr.32	s14, [sp, #16]
 2811 029c DDED027A 		vldr.32	s15, [sp, #8]
 2812 02a0 77EE677A 		vsub.f32	s15, s14, s15
 2813 02a4 CDED047A 		vstr.32	s15, [sp, #16]
 2814 02a8 9DED057A 		vldr.32	s14, [sp, #20]
 2815 02ac DDED037A 		vldr.32	s15, [sp, #12]
 2816 02b0 77EE677A 		vsub.f32	s15, s14, s15
 2817 02b4 CDED057A 		vstr.32	s15, [sp, #20]
 2818 02b8 DDED047A 		vldr.32	s15, [sp, #16]
 2819 02bc BEEE007A 		vmov.f32	s14, #-5.0e-1
 2820 02c0 67EE877A 		vmul.f32	s15, s15, s14
 2821 02c4 CDED047A 		vstr.32	s15, [sp, #16]
 2822 02c8 DDED057A 		vldr.32	s15, [sp, #20]
 2823 02cc BEEE007A 		vmov.f32	s14, #-5.0e-1
 2824 02d0 67EE877A 		vmul.f32	s15, s15, s14
 2825 02d4 CDED057A 		vstr.32	s15, [sp, #20]
 2826              	.LBB6:
 2827 02d8 049B     		ldr	r3, [sp, #16]	@ float
 2828 02da 0893     		str	r3, [sp, #32]	@ float
 2829 02dc DDED057A 		vldr.32	s15, [sp, #20]
 2830 02e0 F1EE677A 		vneg.f32	s15, s15
 2831 02e4 CDED047A 		vstr.32	s15, [sp, #16]
 2832 02e8 089B     		ldr	r3, [sp, #32]	@ float
 2833 02ea 0593     		str	r3, [sp, #20]	@ float
 2834              	.LBE6:
 2835              	.LBE4:
 2836              		.loc 1 328 5 discriminator 3
 2837 02ec 9DED047A 		vldr.32	s14, [sp, #16]
 2838 02f0 9DF94F30 		ldrsb	r3, [sp, #79]
 2839 02f4 3A4A     		ldr	r2, .L42+8
 2840 02f6 9B00     		lsls	r3, r3, #2
 2841 02f8 1344     		add	r3, r3, r2
 2842 02fa D3ED007A 		vldr.32	s15, [r3]
 2843 02fe 67EE277A 		vmul.f32	s15, s14, s15
 2844 0302 CDED047A 		vstr.32	s15, [sp, #16]
 2845 0306 9DED057A 		vldr.32	s14, [sp, #20]
 2846 030a 9DF94F30 		ldrsb	r3, [sp, #79]
 2847 030e 344A     		ldr	r2, .L42+8
 2848 0310 9B00     		lsls	r3, r3, #2
 2849 0312 1344     		add	r3, r3, r2
 2850 0314 D3ED007A 		vldr.32	s15, [r3]
ARM GAS  /tmp/cceRHmPh.s 			page 51


 2851 0318 67EE277A 		vmul.f32	s15, s14, s15
 2852 031c CDED057A 		vstr.32	s15, [sp, #20]
 2853              		.loc 1 329 5 discriminator 3
 2854 0320 9DED067A 		vldr.32	s14, [sp, #24]
 2855 0324 DDED047A 		vldr.32	s15, [sp, #16]
 2856 0328 77EE277A 		vadd.f32	s15, s14, s15
 2857 032c CDED067A 		vstr.32	s15, [sp, #24]
 2858 0330 9DED077A 		vldr.32	s14, [sp, #28]
 2859 0334 DDED057A 		vldr.32	s15, [sp, #20]
 2860 0338 77EE277A 		vadd.f32	s15, s14, s15
 2861 033c CDED077A 		vstr.32	s15, [sp, #28]
 2862              	.LBE3:
 2863              		.loc 1 324 23 discriminator 3
 2864 0340 9DF94F30 		ldrsb	r3, [sp, #79]
 2865 0344 DBB2     		uxtb	r3, r3
 2866 0346 0133     		adds	r3, r3, #1
 2867 0348 DBB2     		uxtb	r3, r3
 2868 034a 8DF84F30 		strb	r3, [sp, #79]
 2869              	.L38:
 2870              		.loc 1 324 3 discriminator 1
 2871 034e 9DF94F30 		ldrsb	r3, [sp, #79]
 2872 0352 022B     		cmp	r3, #2
 2873 0354 7FF70EAF 		ble	.L39
 2874              		.loc 1 331 3
 2875 0358 069B     		ldr	r3, [sp, #24]	@ float
 2876 035a 1846     		mov	r0, r3	@ float
 2877 035c FFF7FEFF 		bl	__aeabi_f2d
 2878 0360 1DA3     		adr	r3, .L42
 2879 0362 D3E90023 		ldrd	r2, [r3]
 2880 0366 FFF7FEFF 		bl	__aeabi_dmul
 2881 036a 0246     		mov	r2, r0
 2882 036c 0B46     		mov	r3, r1
 2883 036e 1046     		mov	r0, r2
 2884 0370 1946     		mov	r1, r3
 2885 0372 FFF7FEFF 		bl	__aeabi_d2f
 2886 0376 0346     		mov	r3, r0	@ float
 2887 0378 0693     		str	r3, [sp, #24]	@ float
 2888 037a 079B     		ldr	r3, [sp, #28]	@ float
 2889 037c 1846     		mov	r0, r3	@ float
 2890 037e FFF7FEFF 		bl	__aeabi_f2d
 2891 0382 15A3     		adr	r3, .L42
 2892 0384 D3E90023 		ldrd	r2, [r3]
 2893 0388 FFF7FEFF 		bl	__aeabi_dmul
 2894 038c 0246     		mov	r2, r0
 2895 038e 0B46     		mov	r3, r1
 2896 0390 1046     		mov	r0, r2
 2897 0392 1946     		mov	r1, r3
 2898 0394 FFF7FEFF 		bl	__aeabi_d2f
 2899 0398 0346     		mov	r3, r0	@ float
 2900 039a 0793     		str	r3, [sp, #28]	@ float
 2901              		.loc 1 332 30
 2902 039c DDED077A 		vldr.32	s15, [sp, #28]
 2903              		.loc 1 332 26
 2904 03a0 9FED107A 		vldr.32	s14, .L42+12
 2905 03a4 77EE877A 		vadd.f32	s15, s15, s14
 2906              		.loc 1 332 13
 2907 03a8 019B     		ldr	r3, [sp, #4]
ARM GAS  /tmp/cceRHmPh.s 			page 52


 2908 03aa C3ED017A 		vstr.32	s15, [r3, #4]
 2909              		.loc 1 333 32
 2910 03ae DDED067A 		vldr.32	s15, [sp, #24]
 2911              		.loc 1 333 28
 2912 03b2 9FED0D7A 		vldr.32	s14, .L42+16
 2913 03b6 77EE877A 		vadd.f32	s15, s15, s14
 2914              		.loc 1 333 14
 2915 03ba 019B     		ldr	r3, [sp, #4]
 2916 03bc C3ED007A 		vstr.32	s15, [r3]
 2917              		.loc 1 336 17
 2918 03c0 009B     		ldr	r3, [sp]
 2919 03c2 9A68     		ldr	r2, [r3, #8]	@ float
 2920              		.loc 1 336 12
 2921 03c4 019B     		ldr	r3, [sp, #4]
 2922 03c6 9A60     		str	r2, [r3, #8]	@ float
 2923              		.loc 1 337 1
 2924 03c8 00BF     		nop
 2925 03ca 15B0     		add	sp, sp, #84
 2926              		.cfi_def_cfa_offset 20
 2927              		@ sp needed
 2928 03cc BDEC028B 		vldm	sp!, {d8}
 2929              		.cfi_restore 80
 2930              		.cfi_restore 81
 2931              		.cfi_def_cfa_offset 12
 2932 03d0 30BD     		pop	{r4, r5, pc}
 2933              	.L43:
 2934 03d2 00BFAFF3 		.align	3
 2934      0080
 2935              	.L42:
 2936 03d8 585BB16F 		.word	1873894232
 2937 03dc 28525841 		.word	1096307240
 2938 03e0 00000000 		.word	serie_coeff_proj_mercator
 2939 03e4 0024F448 		.word	1223959552
 2940 03e8 00000000 		.word	0
 2941              		.cfi_endproc
 2942              	.LFE69:
 2943              		.size	utm_of_lla_f, .-utm_of_lla_f
 2944              		.section	.text.lla_of_utm_f,"ax",%progbits
 2945              		.align	1
 2946              		.p2align 4,,15
 2947              		.global	lla_of_utm_f
 2948              		.syntax unified
 2949              		.thumb
 2950              		.thumb_func
 2951              		.fpu fpv4-sp-d16
 2952              		.type	lla_of_utm_f, %function
 2953              	lla_of_utm_f:
 2954              	.LFB70:
 2955              		.loc 1 345 1
 2956              		.cfi_startproc
 2957              		@ args = 0, pretend = 0, frame = 80
 2958              		@ frame_needed = 0, uses_anonymous_args = 0
 2959 0000 30B5     		push	{r4, r5, lr}
 2960              		.cfi_def_cfa_offset 12
 2961              		.cfi_offset 4, -12
 2962              		.cfi_offset 5, -8
 2963              		.cfi_offset 14, -4
ARM GAS  /tmp/cceRHmPh.s 			page 53


 2964 0002 2DED028B 		vpush.64	{d8}
 2965              		.cfi_def_cfa_offset 20
 2966              		.cfi_offset 80, -20
 2967              		.cfi_offset 81, -16
 2968 0006 95B0     		sub	sp, sp, #84
 2969              		.cfi_def_cfa_offset 104
 2970 0008 0190     		str	r0, [sp, #4]
 2971 000a 0091     		str	r1, [sp]
 2972              		.loc 1 346 50
 2973 000c D24B     		ldr	r3, .L47+24
 2974 000e 1846     		mov	r0, r3	@ float
 2975 0010 FFF7FEFF 		bl	__aeabi_f2d
 2976 0014 0246     		mov	r2, r0
 2977 0016 0B46     		mov	r3, r1
 2978              		.loc 1 346 23
 2979 0018 C9A1     		adr	r1, .L47
 2980 001a D1E90001 		ldrd	r0, [r1]
 2981 001e FFF7FEFF 		bl	__aeabi_ddiv
 2982 0022 0246     		mov	r2, r0
 2983 0024 0B46     		mov	r3, r1
 2984              		.loc 1 346 9
 2985 0026 1046     		mov	r0, r2
 2986 0028 1946     		mov	r1, r3
 2987 002a FFF7FEFF 		bl	__aeabi_d2f
 2988 002e 0346     		mov	r3, r0	@ float
 2989 0030 1293     		str	r3, [sp, #72]	@ float
 2990              		.loc 1 347 20
 2991 0032 009B     		ldr	r3, [sp]
 2992 0034 D3ED007A 		vldr.32	s15, [r3]
 2993              		.loc 1 347 9
 2994 0038 9DED127A 		vldr.32	s14, [sp, #72]
 2995 003c 67EE277A 		vmul.f32	s15, s14, s15
 2996 0040 CDED117A 		vstr.32	s15, [sp, #68]
 2997              		.loc 1 348 19
 2998 0044 009B     		ldr	r3, [sp]
 2999 0046 5B68     		ldr	r3, [r3, #4]	@ float
 3000 0048 1846     		mov	r0, r3	@ float
 3001 004a FFF7FEFF 		bl	__aeabi_f2d
 3002              		.loc 1 348 26
 3003 004e BEA3     		adr	r3, .L47+8
 3004 0050 D3E90023 		ldrd	r2, [r3]
 3005 0054 FFF7FEFF 		bl	__aeabi_dsub
 3006 0058 0246     		mov	r2, r0
 3007 005a 0B46     		mov	r3, r1
 3008 005c 1446     		mov	r4, r2
 3009 005e 1D46     		mov	r5, r3
 3010              		.loc 1 348 40
 3011 0060 1298     		ldr	r0, [sp, #72]	@ float
 3012 0062 FFF7FEFF 		bl	__aeabi_f2d
 3013 0066 0246     		mov	r2, r0
 3014 0068 0B46     		mov	r3, r1
 3015 006a 2046     		mov	r0, r4
 3016 006c 2946     		mov	r1, r5
 3017 006e FFF7FEFF 		bl	__aeabi_dmul
 3018 0072 0246     		mov	r2, r0
 3019 0074 0B46     		mov	r3, r1
 3020              		.loc 1 348 9
ARM GAS  /tmp/cceRHmPh.s 			page 54


 3021 0076 1046     		mov	r0, r2
 3022 0078 1946     		mov	r1, r3
 3023 007a FFF7FEFF 		bl	__aeabi_d2f
 3024 007e 0346     		mov	r3, r0	@ float
 3025 0080 1093     		str	r3, [sp, #64]	@ float
 3026              		.loc 1 349 18
 3027 0082 119B     		ldr	r3, [sp, #68]	@ float
 3028 0084 0693     		str	r3, [sp, #24]	@ float
 3029 0086 109B     		ldr	r3, [sp, #64]	@ float
 3030 0088 0793     		str	r3, [sp, #28]	@ float
 3031              		.loc 1 352 10
 3032 008a 0123     		movs	r3, #1
 3033 008c 8DF84F30 		strb	r3, [sp, #79]
 3034              		.loc 1 352 3
 3035 0090 ECE0     		b	.L45
 3036              	.L46:
 3037              	.LBB7:
 3038              		.loc 1 353 20 discriminator 3
 3039 0092 119B     		ldr	r3, [sp, #68]	@ float
 3040 0094 0493     		str	r3, [sp, #16]	@ float
 3041 0096 109B     		ldr	r3, [sp, #64]	@ float
 3042 0098 0593     		str	r3, [sp, #20]	@ float
 3043              		.loc 1 354 5 discriminator 3
 3044 009a 049B     		ldr	r3, [sp, #16]	@ float
 3045 009c 1846     		mov	r0, r3	@ float
 3046 009e FFF7FEFF 		bl	__aeabi_f2d
 3047 00a2 0446     		mov	r4, r0
 3048 00a4 0D46     		mov	r5, r1
 3049 00a6 9DF94F30 		ldrsb	r3, [sp, #79]
 3050 00aa 1846     		mov	r0, r3
 3051 00ac FFF7FEFF 		bl	__aeabi_i2d
 3052 00b0 0246     		mov	r2, r0
 3053 00b2 0B46     		mov	r3, r1
 3054 00b4 FFF7FEFF 		bl	__aeabi_dadd
 3055 00b8 0246     		mov	r2, r0
 3056 00ba 0B46     		mov	r3, r1
 3057 00bc 2046     		mov	r0, r4
 3058 00be 2946     		mov	r1, r5
 3059 00c0 FFF7FEFF 		bl	__aeabi_dmul
 3060 00c4 0246     		mov	r2, r0
 3061 00c6 0B46     		mov	r3, r1
 3062 00c8 1046     		mov	r0, r2
 3063 00ca 1946     		mov	r1, r3
 3064 00cc FFF7FEFF 		bl	__aeabi_d2f
 3065 00d0 0346     		mov	r3, r0	@ float
 3066 00d2 0493     		str	r3, [sp, #16]	@ float
 3067 00d4 059B     		ldr	r3, [sp, #20]	@ float
 3068 00d6 1846     		mov	r0, r3	@ float
 3069 00d8 FFF7FEFF 		bl	__aeabi_f2d
 3070 00dc 0446     		mov	r4, r0
 3071 00de 0D46     		mov	r5, r1
 3072 00e0 9DF94F30 		ldrsb	r3, [sp, #79]
 3073 00e4 1846     		mov	r0, r3
 3074 00e6 FFF7FEFF 		bl	__aeabi_i2d
 3075 00ea 0246     		mov	r2, r0
 3076 00ec 0B46     		mov	r3, r1
 3077 00ee FFF7FEFF 		bl	__aeabi_dadd
ARM GAS  /tmp/cceRHmPh.s 			page 55


 3078 00f2 0246     		mov	r2, r0
 3079 00f4 0B46     		mov	r3, r1
 3080 00f6 2046     		mov	r0, r4
 3081 00f8 2946     		mov	r1, r5
 3082 00fa FFF7FEFF 		bl	__aeabi_dmul
 3083 00fe 0246     		mov	r2, r0
 3084 0100 0B46     		mov	r3, r1
 3085 0102 1046     		mov	r0, r2
 3086 0104 1946     		mov	r1, r3
 3087 0106 FFF7FEFF 		bl	__aeabi_d2f
 3088 010a 0346     		mov	r3, r0	@ float
 3089 010c 0593     		str	r3, [sp, #20]	@ float
 3090              	.LBB8:
 3091              	.LBB9:
 3092              		.loc 1 355 5 discriminator 3
 3093 010e 049B     		ldr	r3, [sp, #16]	@ float
 3094 0110 0C93     		str	r3, [sp, #48]	@ float
 3095 0112 DDED057A 		vldr.32	s15, [sp, #20]
 3096 0116 F1EE677A 		vneg.f32	s15, s15
 3097 011a CDED047A 		vstr.32	s15, [sp, #16]
 3098 011e 0C9B     		ldr	r3, [sp, #48]	@ float
 3099 0120 0593     		str	r3, [sp, #20]	@ float
 3100              	.LBE9:
 3101 0122 DDED047A 		vldr.32	s15, [sp, #16]
 3102 0126 F1EE677A 		vneg.f32	s15, s15
 3103 012a CDED027A 		vstr.32	s15, [sp, #8]
 3104 012e DDED057A 		vldr.32	s15, [sp, #20]
 3105 0132 F1EE677A 		vneg.f32	s15, s15
 3106 0136 CDED037A 		vstr.32	s15, [sp, #12]
 3107 013a 049B     		ldr	r3, [sp, #16]	@ float
 3108 013c 1846     		mov	r0, r3	@ float
 3109 013e FFF7FEFF 		bl	__aeabi_f2d
 3110 0142 0246     		mov	r2, r0
 3111 0144 0B46     		mov	r3, r1
 3112 0146 1046     		mov	r0, r2
 3113 0148 1946     		mov	r1, r3
 3114 014a FFF7FEFF 		bl	exp
 3115 014e 0246     		mov	r2, r0
 3116 0150 0B46     		mov	r3, r1
 3117 0152 1046     		mov	r0, r2
 3118 0154 1946     		mov	r1, r3
 3119 0156 FFF7FEFF 		bl	__aeabi_d2f
 3120 015a 0346     		mov	r3, r0	@ float
 3121 015c 0B93     		str	r3, [sp, #44]	@ float
 3122 015e 059B     		ldr	r3, [sp, #20]	@ float
 3123 0160 1846     		mov	r0, r3	@ float
 3124 0162 FFF7FEFF 		bl	cosf
 3125 0166 0A90     		str	r0, [sp, #40]	@ float
 3126 0168 9DED0B7A 		vldr.32	s14, [sp, #44]
 3127 016c DDED0A7A 		vldr.32	s15, [sp, #40]
 3128 0170 67EE277A 		vmul.f32	s15, s14, s15
 3129 0174 CDED047A 		vstr.32	s15, [sp, #16]
 3130 0178 059B     		ldr	r3, [sp, #20]	@ float
 3131 017a 1846     		mov	r0, r3	@ float
 3132 017c FFF7FEFF 		bl	sinf
 3133 0180 0990     		str	r0, [sp, #36]	@ float
 3134 0182 9DED0B7A 		vldr.32	s14, [sp, #44]
ARM GAS  /tmp/cceRHmPh.s 			page 56


 3135 0186 DDED097A 		vldr.32	s15, [sp, #36]
 3136 018a 67EE277A 		vmul.f32	s15, s14, s15
 3137 018e CDED057A 		vstr.32	s15, [sp, #20]
 3138 0192 DDED0A6A 		vldr.32	s13, [sp, #40]
 3139 0196 9DED0B7A 		vldr.32	s14, [sp, #44]
 3140 019a C6EE877A 		vdiv.f32	s15, s13, s14
 3141 019e CDED027A 		vstr.32	s15, [sp, #8]
 3142 01a2 DDED097A 		vldr.32	s15, [sp, #36]
 3143 01a6 F1EE676A 		vneg.f32	s13, s15
 3144 01aa 9DED0B7A 		vldr.32	s14, [sp, #44]
 3145 01ae C6EE877A 		vdiv.f32	s15, s13, s14
 3146 01b2 CDED037A 		vstr.32	s15, [sp, #12]
 3147 01b6 9DED047A 		vldr.32	s14, [sp, #16]
 3148 01ba DDED027A 		vldr.32	s15, [sp, #8]
 3149 01be 77EE677A 		vsub.f32	s15, s14, s15
 3150 01c2 CDED047A 		vstr.32	s15, [sp, #16]
 3151 01c6 9DED057A 		vldr.32	s14, [sp, #20]
 3152 01ca DDED037A 		vldr.32	s15, [sp, #12]
 3153 01ce 77EE677A 		vsub.f32	s15, s14, s15
 3154 01d2 CDED057A 		vstr.32	s15, [sp, #20]
 3155 01d6 DDED047A 		vldr.32	s15, [sp, #16]
 3156 01da BEEE007A 		vmov.f32	s14, #-5.0e-1
 3157 01de 67EE877A 		vmul.f32	s15, s15, s14
 3158 01e2 CDED047A 		vstr.32	s15, [sp, #16]
 3159 01e6 DDED057A 		vldr.32	s15, [sp, #20]
 3160 01ea BEEE007A 		vmov.f32	s14, #-5.0e-1
 3161 01ee 67EE877A 		vmul.f32	s15, s15, s14
 3162 01f2 CDED057A 		vstr.32	s15, [sp, #20]
 3163              	.LBB10:
 3164 01f6 049B     		ldr	r3, [sp, #16]	@ float
 3165 01f8 0893     		str	r3, [sp, #32]	@ float
 3166 01fa DDED057A 		vldr.32	s15, [sp, #20]
 3167 01fe F1EE677A 		vneg.f32	s15, s15
 3168 0202 CDED047A 		vstr.32	s15, [sp, #16]
 3169 0206 089B     		ldr	r3, [sp, #32]	@ float
 3170 0208 0593     		str	r3, [sp, #20]	@ float
 3171              	.LBE10:
 3172              	.LBE8:
 3173              		.loc 1 356 5 discriminator 3
 3174 020a 9DED047A 		vldr.32	s14, [sp, #16]
 3175 020e 9DF94F30 		ldrsb	r3, [sp, #79]
 3176 0212 524A     		ldr	r2, .L47+28
 3177 0214 9B00     		lsls	r3, r3, #2
 3178 0216 1344     		add	r3, r3, r2
 3179 0218 D3ED007A 		vldr.32	s15, [r3]
 3180 021c 67EE277A 		vmul.f32	s15, s14, s15
 3181 0220 CDED047A 		vstr.32	s15, [sp, #16]
 3182 0224 9DED057A 		vldr.32	s14, [sp, #20]
 3183 0228 9DF94F30 		ldrsb	r3, [sp, #79]
 3184 022c 4B4A     		ldr	r2, .L47+28
 3185 022e 9B00     		lsls	r3, r3, #2
 3186 0230 1344     		add	r3, r3, r2
 3187 0232 D3ED007A 		vldr.32	s15, [r3]
 3188 0236 67EE277A 		vmul.f32	s15, s14, s15
 3189 023a CDED057A 		vstr.32	s15, [sp, #20]
 3190              		.loc 1 357 5 discriminator 3
 3191 023e 9DED067A 		vldr.32	s14, [sp, #24]
ARM GAS  /tmp/cceRHmPh.s 			page 57


 3192 0242 DDED047A 		vldr.32	s15, [sp, #16]
 3193 0246 77EE677A 		vsub.f32	s15, s14, s15
 3194 024a CDED067A 		vstr.32	s15, [sp, #24]
 3195 024e 9DED077A 		vldr.32	s14, [sp, #28]
 3196 0252 DDED057A 		vldr.32	s15, [sp, #20]
 3197 0256 77EE677A 		vsub.f32	s15, s14, s15
 3198 025a CDED077A 		vstr.32	s15, [sp, #28]
 3199              	.LBE7:
 3200              		.loc 1 352 23 discriminator 3
 3201 025e 9DF94F30 		ldrsb	r3, [sp, #79]
 3202 0262 DBB2     		uxtb	r3, r3
 3203 0264 0133     		adds	r3, r3, #1
 3204 0266 DBB2     		uxtb	r3, r3
 3205 0268 8DF84F30 		strb	r3, [sp, #79]
 3206              	.L45:
 3207              		.loc 1 352 3 discriminator 1
 3208 026c 9DF94F30 		ldrsb	r3, [sp, #79]
 3209 0270 012B     		cmp	r3, #1
 3210 0272 7FF70EAF 		ble	.L46
 3211              		.loc 1 360 20
 3212 0276 009B     		ldr	r3, [sp]
 3213 0278 1B7B     		ldrb	r3, [r3, #12]	@ zero_extendqisi2
 3214 027a 5A1E     		subs	r2, r3, #1
 3215 027c 1346     		mov	r3, r2
 3216 027e 5B00     		lsls	r3, r3, #1
 3217 0280 1344     		add	r3, r3, r2
 3218 0282 5B00     		lsls	r3, r3, #1
 3219 0284 B13B     		subs	r3, r3, #177
 3220 0286 1846     		mov	r0, r3
 3221 0288 FFF7FEFF 		bl	__aeabi_i2d
 3222 028c 30A3     		adr	r3, .L47+16
 3223 028e D3E90023 		ldrd	r2, [r3]
 3224 0292 FFF7FEFF 		bl	__aeabi_dmul
 3225 0296 0246     		mov	r2, r0
 3226 0298 0B46     		mov	r3, r1
 3227              		.loc 1 360 9
 3228 029a 1046     		mov	r0, r2
 3229 029c 1946     		mov	r1, r3
 3230 029e FFF7FEFF 		bl	__aeabi_d2f
 3231 02a2 0346     		mov	r3, r0	@ float
 3232 02a4 0F93     		str	r3, [sp, #60]	@ float
 3233              		.loc 1 361 31
 3234 02a6 079B     		ldr	r3, [sp, #28]	@ float
 3235 02a8 1846     		mov	r0, r3	@ float
 3236 02aa FFF7FEFF 		bl	sinhf
 3237 02ae 08EE100A 		vmov	s16, r0
 3238              		.loc 1 361 45
 3239 02b2 069B     		ldr	r3, [sp, #24]	@ float
 3240 02b4 1846     		mov	r0, r3	@ float
 3241 02b6 FFF7FEFF 		bl	cosf
 3242 02ba 07EE100A 		vmov	s14, r0
 3243              		.loc 1 361 25
 3244 02be C8EE077A 		vdiv.f32	s15, s16, s14
 3245 02c2 17EE900A 		vmov	r0, s15
 3246 02c6 FFF7FEFF 		bl	atanf
 3247 02ca 07EE100A 		vmov	s14, r0
 3248              		.loc 1 361 23
ARM GAS  /tmp/cceRHmPh.s 			page 58


 3249 02ce DDED0F7A 		vldr.32	s15, [sp, #60]
 3250 02d2 77EE277A 		vadd.f32	s15, s14, s15
 3251              		.loc 1 361 12
 3252 02d6 019B     		ldr	r3, [sp, #4]
 3253 02d8 C3ED017A 		vstr.32	s15, [r3, #4]
 3254              		.loc 1 362 22
 3255 02dc 069B     		ldr	r3, [sp, #24]	@ float
 3256 02de 1846     		mov	r0, r3	@ float
 3257 02e0 FFF7FEFF 		bl	sinf
 3258 02e4 08EE100A 		vmov	s16, r0
 3259              		.loc 1 362 35
 3260 02e8 079B     		ldr	r3, [sp, #28]	@ float
 3261 02ea 1846     		mov	r0, r3	@ float
 3262 02ec FFF7FEFF 		bl	coshf
 3263 02f0 07EE100A 		vmov	s14, r0
 3264              		.loc 1 362 16
 3265 02f4 C8EE077A 		vdiv.f32	s15, s16, s14
 3266 02f8 17EE900A 		vmov	r0, s15
 3267 02fc FFF7FEFF 		bl	asinf
 3268 0300 0E90     		str	r0, [sp, #56]	@ float
 3269              		.loc 1 363 14
 3270 0302 9DED0E0A 		vldr.32	s0, [sp, #56]
 3271 0306 FFF7FEFF 		bl	isometric_latitude_fast_f
 3272 030a 8DED0D0A 		vstr.32	s0, [sp, #52]
 3273              		.loc 1 364 14
 3274 030e 9FED141A 		vldr.32	s2, .L47+32
 3275 0312 DFED140A 		vldr.32	s1, .L47+36
 3276 0316 9DED0D0A 		vldr.32	s0, [sp, #52]
 3277 031a FFF7FEFF 		bl	inverse_isometric_latitude_f
 3278 031e F0EE407A 		vmov.f32	s15, s0
 3279              		.loc 1 364 12
 3280 0322 019B     		ldr	r3, [sp, #4]
 3281 0324 C3ED007A 		vstr.32	s15, [r3]
 3282              		.loc 1 367 17
 3283 0328 009B     		ldr	r3, [sp]
 3284 032a 9A68     		ldr	r2, [r3, #8]	@ float
 3285              		.loc 1 367 12
 3286 032c 019B     		ldr	r3, [sp, #4]
 3287 032e 9A60     		str	r2, [r3, #8]	@ float
 3288              		.loc 1 368 1
 3289 0330 00BF     		nop
 3290 0332 15B0     		add	sp, sp, #84
 3291              		.cfi_def_cfa_offset 20
 3292              		@ sp needed
 3293 0334 BDEC028B 		vldm	sp!, {d8}
 3294              		.cfi_restore 80
 3295              		.cfi_restore 81
 3296              		.cfi_def_cfa_offset 12
 3297 0338 30BD     		pop	{r4, r5, pc}
 3298              	.L48:
 3299 033a 00BFAFF3 		.align	3
 3299      0080
 3300              	.L47:
 3301 0340 9E626D88 		.word	-2006097250
 3302 0344 440D853E 		.word	1048907076
 3303 0348 00000000 		.word	0
 3304 034c 80841E41 		.word	1092519040
ARM GAS  /tmp/cceRHmPh.s 			page 59


 3305 0350 399D52A2 		.word	-1571644103
 3306 0354 46DF913F 		.word	1066524486
 3307 0358 2E927F3F 		.word	1065325102
 3308 035c 00000000 		.word	serie_coeff_proj_mercator_inverse
 3309 0360 77CC2B32 		.word	841731191
 3310 0364 D290A73D 		.word	1034391762
 3311              		.cfi_endproc
 3312              	.LFE70:
 3313              		.size	lla_of_utm_f, .-lla_of_utm_f
 3314              		.section	.rodata.a.3,"a"
 3315              		.align	2
 3316              		.type	a.3, %object
 3317              		.size	a.3, 4
 3318              	a.3:
 3319 0000 32A5C24A 		.word	1254270258
 3320              		.section	.rodata.f.2,"a"
 3321              		.align	2
 3322              		.type	f.2, %object
 3323              		.size	f.2, 4
 3324              	f.2:
 3325 0000 D4BA5B3B 		.word	995867348
 3326              		.section	.rodata.f.1,"a"
 3327              		.align	2
 3328              		.type	f.1, %object
 3329              		.size	f.1, 4
 3330              	f.1:
 3331 0000 D4BA5B3B 		.word	995867348
 3332              		.section	.rodata.a.0,"a"
 3333              		.align	2
 3334              		.type	a.0, %object
 3335              		.size	a.0, 4
 3336              	a.0:
 3337 0000 32A5C24A 		.word	1254270258
 3338              		.text
 3339              	.Letext0:
 3340              		.file 2 "/usr/lib/gcc/arm-none-eabi/10.3.1/include/stdint.h"
 3341              		.file 3 "math/pprz_algebra_float.h"
 3342              		.file 4 "math/pprz_geodetic_float.h"
 3343              		.file 5 "math/pprz_algebra_double.h"
 3344              		.file 6 "math/pprz_geodetic_double.h"
 3345              		.file 7 "./math/pprz_geodetic_utm.h"