ARM GAS  /tmp/ccyKWznV.s 			page 1


   1              		.cpu cortex-m4
   2              		.eabi_attribute 27, 1
   3              		.eabi_attribute 20, 1
   4              		.eabi_attribute 21, 1
   5              		.eabi_attribute 23, 3
   6              		.eabi_attribute 24, 1
   7              		.eabi_attribute 25, 1
   8              		.eabi_attribute 26, 1
   9              		.eabi_attribute 30, 6
  10              		.eabi_attribute 34, 1
  11              		.eabi_attribute 18, 4
  12              		.file	"pprz_stat.c"
  13              		.text
  14              	.Ltext0:
  15              		.cfi_sections	.debug_frame
  16              		.section	.text.mean_i,"ax",%progbits
  17              		.align	1
  18              		.p2align 4,,15
  19              		.global	mean_i
  20              		.arch armv7e-m
  21              		.syntax unified
  22              		.thumb
  23              		.thumb_func
  24              		.fpu fpv4-sp-d16
  25              		.type	mean_i, %function
  26              	mean_i:
  27              	.LFB1:
  28              		.file 1 "math/pprz_stat.c"
  29              		.loc 1 40 1
  30              		.cfi_startproc
  31              		@ args = 0, pretend = 0, frame = 16
  32              		@ frame_needed = 0, uses_anonymous_args = 0
  33              		@ link register save eliminated.
  34 0000 84B0     		sub	sp, sp, #16
  35              		.cfi_def_cfa_offset 16
  36 0002 0190     		str	r0, [sp, #4]
  37 0004 0091     		str	r1, [sp]
  38              		.loc 1 42 6
  39 0006 009B     		ldr	r3, [sp]
  40 0008 002B     		cmp	r3, #0
  41 000a 01D1     		bne	.L2
  42              		.loc 1 44 12
  43 000c 0023     		movs	r3, #0
  44 000e 28E0     		b	.L3
  45              	.L2:
  46              		.loc 1 47 9
  47 0010 4FF00003 		mov	r3, #0
  48 0014 0393     		str	r3, [sp, #12]	@ float
  49              		.loc 1 49 10
  50 0016 0023     		movs	r3, #0
  51 0018 0293     		str	r3, [sp, #8]
  52              		.loc 1 49 3
  53 001a 11E0     		b	.L4
  54              	.L5:
  55              		.loc 1 50 24 discriminator 3
  56 001c 029B     		ldr	r3, [sp, #8]
  57 001e 9B00     		lsls	r3, r3, #2
ARM GAS  /tmp/ccyKWznV.s 			page 2


  58 0020 019A     		ldr	r2, [sp, #4]
  59 0022 1344     		add	r3, r3, r2
  60 0024 1B68     		ldr	r3, [r3]
  61              		.loc 1 50 12 discriminator 3
  62 0026 07EE903A 		vmov	s15, r3	@ int
  63 002a F8EEE77A 		vcvt.f32.s32	s15, s15
  64              		.loc 1 50 9 discriminator 3
  65 002e 9DED037A 		vldr.32	s14, [sp, #12]
  66 0032 77EE277A 		vadd.f32	s15, s14, s15
  67 0036 CDED037A 		vstr.32	s15, [sp, #12]
  68              		.loc 1 49 32 discriminator 3
  69 003a 029B     		ldr	r3, [sp, #8]
  70 003c 0133     		adds	r3, r3, #1
  71 003e 0293     		str	r3, [sp, #8]
  72              	.L4:
  73              		.loc 1 49 3 discriminator 1
  74 0040 029A     		ldr	r2, [sp, #8]
  75 0042 009B     		ldr	r3, [sp]
  76 0044 9A42     		cmp	r2, r3
  77 0046 E9D3     		bcc	.L5
  78              		.loc 1 52 24
  79 0048 009B     		ldr	r3, [sp]
  80 004a 07EE903A 		vmov	s15, r3	@ int
  81 004e B8EE677A 		vcvt.f32.u32	s14, s15
  82 0052 DDED036A 		vldr.32	s13, [sp, #12]
  83 0056 C6EE877A 		vdiv.f32	s15, s13, s14
  84              		.loc 1 52 10
  85 005a FDEEE77A 		vcvt.s32.f32	s15, s15
  86 005e 17EE903A 		vmov	r3, s15	@ int
  87              	.L3:
  88              		.loc 1 53 1
  89 0062 1846     		mov	r0, r3
  90 0064 04B0     		add	sp, sp, #16
  91              		.cfi_def_cfa_offset 0
  92              		@ sp needed
  93 0066 7047     		bx	lr
  94              		.cfi_endproc
  95              	.LFE1:
  96              		.size	mean_i, .-mean_i
  97              		.section	.text.variance_i,"ax",%progbits
  98              		.align	1
  99              		.p2align 4,,15
 100              		.global	variance_i
 101              		.syntax unified
 102              		.thumb
 103              		.thumb_func
 104              		.fpu fpv4-sp-d16
 105              		.type	variance_i, %function
 106              	variance_i:
 107              	.LFB2:
 108              		.loc 1 65 1
 109              		.cfi_startproc
 110              		@ args = 0, pretend = 0, frame = 8
 111              		@ frame_needed = 0, uses_anonymous_args = 0
 112 0000 00B5     		push	{lr}
 113              		.cfi_def_cfa_offset 4
 114              		.cfi_offset 14, -4
ARM GAS  /tmp/ccyKWznV.s 			page 3


 115 0002 83B0     		sub	sp, sp, #12
 116              		.cfi_def_cfa_offset 16
 117 0004 0190     		str	r0, [sp, #4]
 118 0006 0091     		str	r1, [sp]
 119              		.loc 1 66 11
 120 0008 009A     		ldr	r2, [sp]
 121 000a 0199     		ldr	r1, [sp, #4]
 122 000c 0198     		ldr	r0, [sp, #4]
 123 000e FFF7FEFF 		bl	covariance_i
 124 0012 0346     		mov	r3, r0
 125              		.loc 1 67 1
 126 0014 1846     		mov	r0, r3
 127 0016 03B0     		add	sp, sp, #12
 128              		.cfi_def_cfa_offset 4
 129              		@ sp needed
 130 0018 5DF804FB 		ldr	pc, [sp], #4
 131              		.cfi_endproc
 132              	.LFE2:
 133              		.size	variance_i, .-variance_i
 134              		.section	.text.covariance_i,"ax",%progbits
 135              		.align	1
 136              		.p2align 4,,15
 137              		.global	covariance_i
 138              		.syntax unified
 139              		.thumb
 140              		.thumb_func
 141              		.fpu fpv4-sp-d16
 142              		.type	covariance_i, %function
 143              	covariance_i:
 144              	.LFB3:
 145              		.loc 1 79 1
 146              		.cfi_startproc
 147              		@ args = 0, pretend = 0, frame = 32
 148              		@ frame_needed = 0, uses_anonymous_args = 0
 149              		@ link register save eliminated.
 150 0000 88B0     		sub	sp, sp, #32
 151              		.cfi_def_cfa_offset 32
 152 0002 0390     		str	r0, [sp, #12]
 153 0004 0291     		str	r1, [sp, #8]
 154 0006 0192     		str	r2, [sp, #4]
 155              		.loc 1 80 6
 156 0008 019B     		ldr	r3, [sp, #4]
 157 000a 002B     		cmp	r3, #0
 158 000c 01D1     		bne	.L9
 159              		.loc 1 82 12
 160 000e 0023     		movs	r3, #0
 161 0010 68E0     		b	.L10
 162              	.L9:
 163              		.loc 1 85 9
 164 0012 4FF00003 		mov	r3, #0
 165 0016 0793     		str	r3, [sp, #28]	@ float
 166              		.loc 1 85 21
 167 0018 4FF00003 		mov	r3, #0
 168 001c 0693     		str	r3, [sp, #24]	@ float
 169              		.loc 1 85 33
 170 001e 4FF00003 		mov	r3, #0
 171 0022 0593     		str	r3, [sp, #20]	@ float
ARM GAS  /tmp/ccyKWznV.s 			page 4


 172              		.loc 1 89 10
 173 0024 0023     		movs	r3, #0
 174 0026 0493     		str	r3, [sp, #16]
 175              		.loc 1 89 3
 176 0028 3AE0     		b	.L11
 177              	.L12:
 178              		.loc 1 90 26 discriminator 3
 179 002a 049B     		ldr	r3, [sp, #16]
 180 002c 9B00     		lsls	r3, r3, #2
 181 002e 039A     		ldr	r2, [sp, #12]
 182 0030 1344     		add	r3, r3, r2
 183 0032 1B68     		ldr	r3, [r3]
 184              		.loc 1 90 13 discriminator 3
 185 0034 07EE903A 		vmov	s15, r3	@ int
 186 0038 F8EEE77A 		vcvt.f32.s32	s15, s15
 187              		.loc 1 90 10 discriminator 3
 188 003c 9DED077A 		vldr.32	s14, [sp, #28]
 189 0040 77EE277A 		vadd.f32	s15, s14, s15
 190 0044 CDED077A 		vstr.32	s15, [sp, #28]
 191              		.loc 1 91 26 discriminator 3
 192 0048 049B     		ldr	r3, [sp, #16]
 193 004a 9B00     		lsls	r3, r3, #2
 194 004c 029A     		ldr	r2, [sp, #8]
 195 004e 1344     		add	r3, r3, r2
 196 0050 1B68     		ldr	r3, [r3]
 197              		.loc 1 91 13 discriminator 3
 198 0052 07EE903A 		vmov	s15, r3	@ int
 199 0056 F8EEE77A 		vcvt.f32.s32	s15, s15
 200              		.loc 1 91 10 discriminator 3
 201 005a 9DED067A 		vldr.32	s14, [sp, #24]
 202 005e 77EE277A 		vadd.f32	s15, s14, s15
 203 0062 CDED067A 		vstr.32	s15, [sp, #24]
 204              		.loc 1 92 28 discriminator 3
 205 0066 049B     		ldr	r3, [sp, #16]
 206 0068 9B00     		lsls	r3, r3, #2
 207 006a 039A     		ldr	r2, [sp, #12]
 208 006c 1344     		add	r3, r3, r2
 209 006e 1B68     		ldr	r3, [r3]
 210              		.loc 1 92 14 discriminator 3
 211 0070 07EE903A 		vmov	s15, r3	@ int
 212 0074 B8EEE77A 		vcvt.f32.s32	s14, s15
 213              		.loc 1 92 49 discriminator 3
 214 0078 049B     		ldr	r3, [sp, #16]
 215 007a 9B00     		lsls	r3, r3, #2
 216 007c 029A     		ldr	r2, [sp, #8]
 217 007e 1344     		add	r3, r3, r2
 218 0080 1B68     		ldr	r3, [r3]
 219              		.loc 1 92 35 discriminator 3
 220 0082 07EE903A 		vmov	s15, r3	@ int
 221 0086 F8EEE77A 		vcvt.f32.s32	s15, s15
 222              		.loc 1 92 33 discriminator 3
 223 008a 67EE277A 		vmul.f32	s15, s14, s15
 224              		.loc 1 92 11 discriminator 3
 225 008e 9DED057A 		vldr.32	s14, [sp, #20]
 226 0092 77EE277A 		vadd.f32	s15, s14, s15
 227 0096 CDED057A 		vstr.32	s15, [sp, #20]
 228              		.loc 1 89 32 discriminator 3
ARM GAS  /tmp/ccyKWznV.s 			page 5


 229 009a 049B     		ldr	r3, [sp, #16]
 230 009c 0133     		adds	r3, r3, #1
 231 009e 0493     		str	r3, [sp, #16]
 232              	.L11:
 233              		.loc 1 89 3 discriminator 1
 234 00a0 049A     		ldr	r2, [sp, #16]
 235 00a2 019B     		ldr	r3, [sp, #4]
 236 00a4 9A42     		cmp	r2, r3
 237 00a6 C0D3     		bcc	.L12
 238              		.loc 1 94 26
 239 00a8 019B     		ldr	r3, [sp, #4]
 240 00aa 07EE903A 		vmov	s15, r3	@ int
 241 00ae F8EE677A 		vcvt.f32.u32	s15, s15
 242 00b2 DDED056A 		vldr.32	s13, [sp, #20]
 243 00b6 86EEA77A 		vdiv.f32	s14, s13, s15
 244              		.loc 1 94 46
 245 00ba DDED076A 		vldr.32	s13, [sp, #28]
 246 00be DDED067A 		vldr.32	s15, [sp, #24]
 247 00c2 26EEA76A 		vmul.f32	s12, s13, s15
 248              		.loc 1 94 67
 249 00c6 019B     		ldr	r3, [sp, #4]
 250 00c8 03FB03F3 		mul	r3, r3, r3
 251              		.loc 1 94 53
 252 00cc 07EE903A 		vmov	s15, r3	@ int
 253 00d0 F8EE676A 		vcvt.f32.u32	s13, s15
 254 00d4 C6EE267A 		vdiv.f32	s15, s12, s13
 255              		.loc 1 94 39
 256 00d8 77EE677A 		vsub.f32	s15, s14, s15
 257              		.loc 1 94 10
 258 00dc FDEEE77A 		vcvt.s32.f32	s15, s15
 259 00e0 17EE903A 		vmov	r3, s15	@ int
 260              	.L10:
 261              		.loc 1 95 1
 262 00e4 1846     		mov	r0, r3
 263 00e6 08B0     		add	sp, sp, #32
 264              		.cfi_def_cfa_offset 0
 265              		@ sp needed
 266 00e8 7047     		bx	lr
 267              		.cfi_endproc
 268              	.LFE3:
 269              		.size	covariance_i, .-covariance_i
 270 00ea 00BF     		.section	.text.sum_f,"ax",%progbits
 271              		.align	1
 272              		.p2align 4,,15
 273              		.global	sum_f
 274              		.syntax unified
 275              		.thumb
 276              		.thumb_func
 277              		.fpu fpv4-sp-d16
 278              		.type	sum_f, %function
 279              	sum_f:
 280              	.LFB4:
 281              		.loc 1 107 1
 282              		.cfi_startproc
 283              		@ args = 0, pretend = 0, frame = 16
 284              		@ frame_needed = 0, uses_anonymous_args = 0
 285              		@ link register save eliminated.
ARM GAS  /tmp/ccyKWznV.s 			page 6


 286 0000 84B0     		sub	sp, sp, #16
 287              		.cfi_def_cfa_offset 16
 288 0002 0190     		str	r0, [sp, #4]
 289 0004 0091     		str	r1, [sp]
 290              		.loc 1 109 9
 291 0006 4FF00003 		mov	r3, #0
 292 000a 0393     		str	r3, [sp, #12]	@ float
 293              		.loc 1 111 10
 294 000c 0023     		movs	r3, #0
 295 000e 0293     		str	r3, [sp, #8]
 296              		.loc 1 111 3
 297 0010 0EE0     		b	.L14
 298              	.L15:
 299              		.loc 1 112 17 discriminator 3
 300 0012 029B     		ldr	r3, [sp, #8]
 301 0014 9B00     		lsls	r3, r3, #2
 302 0016 019A     		ldr	r2, [sp, #4]
 303 0018 1344     		add	r3, r3, r2
 304 001a D3ED007A 		vldr.32	s15, [r3]
 305              		.loc 1 112 9 discriminator 3
 306 001e 9DED037A 		vldr.32	s14, [sp, #12]
 307 0022 77EE277A 		vadd.f32	s15, s14, s15
 308 0026 CDED037A 		vstr.32	s15, [sp, #12]
 309              		.loc 1 111 32 discriminator 3
 310 002a 029B     		ldr	r3, [sp, #8]
 311 002c 0133     		adds	r3, r3, #1
 312 002e 0293     		str	r3, [sp, #8]
 313              	.L14:
 314              		.loc 1 111 3 discriminator 1
 315 0030 029A     		ldr	r2, [sp, #8]
 316 0032 009B     		ldr	r3, [sp]
 317 0034 9A42     		cmp	r2, r3
 318 0036 ECD3     		bcc	.L15
 319              		.loc 1 114 10
 320 0038 039B     		ldr	r3, [sp, #12]	@ float
 321              		.loc 1 115 1
 322 003a 1846     		mov	r0, r3	@ float
 323 003c 04B0     		add	sp, sp, #16
 324              		.cfi_def_cfa_offset 0
 325              		@ sp needed
 326 003e 7047     		bx	lr
 327              		.cfi_endproc
 328              	.LFE4:
 329              		.size	sum_f, .-sum_f
 330              		.section	.text.mean_f,"ax",%progbits
 331              		.align	1
 332              		.p2align 4,,15
 333              		.global	mean_f
 334              		.syntax unified
 335              		.thumb
 336              		.thumb_func
 337              		.fpu fpv4-sp-d16
 338              		.type	mean_f, %function
 339              	mean_f:
 340              	.LFB5:
 341              		.loc 1 123 1
 342              		.cfi_startproc
ARM GAS  /tmp/ccyKWznV.s 			page 7


 343              		@ args = 0, pretend = 0, frame = 8
 344              		@ frame_needed = 0, uses_anonymous_args = 0
 345 0000 00B5     		push	{lr}
 346              		.cfi_def_cfa_offset 4
 347              		.cfi_offset 14, -4
 348 0002 83B0     		sub	sp, sp, #12
 349              		.cfi_def_cfa_offset 16
 350 0004 0190     		str	r0, [sp, #4]
 351 0006 0091     		str	r1, [sp]
 352              		.loc 1 124 6
 353 0008 009B     		ldr	r3, [sp]
 354 000a 002B     		cmp	r3, #0
 355 000c 02D1     		bne	.L18
 356              		.loc 1 126 12
 357 000e 9FED0B7A 		vldr.32	s14, .L20
 358 0012 0CE0     		b	.L19
 359              	.L18:
 360              		.loc 1 128 11
 361 0014 0099     		ldr	r1, [sp]
 362 0016 0198     		ldr	r0, [sp, #4]
 363 0018 FFF7FEFF 		bl	sum_f
 364 001c 06EE900A 		vmov	s13, r0
 365              		.loc 1 128 36
 366 0020 009B     		ldr	r3, [sp]
 367 0022 07EE903A 		vmov	s15, r3	@ int
 368 0026 F8EE677A 		vcvt.f32.u32	s15, s15
 369 002a 86EEA77A 		vdiv.f32	s14, s13, s15
 370              	.L19:
 371              		.loc 1 129 1
 372 002e 17EE103A 		vmov	r3, s14
 373 0032 1846     		mov	r0, r3	@ float
 374 0034 03B0     		add	sp, sp, #12
 375              		.cfi_def_cfa_offset 4
 376              		@ sp needed
 377 0036 5DF804FB 		ldr	pc, [sp], #4
 378              	.L21:
 379 003a 00BF     		.align	2
 380              	.L20:
 381 003c 00000000 		.word	0
 382              		.cfi_endproc
 383              	.LFE5:
 384              		.size	mean_f, .-mean_f
 385              		.section	.text.variance_f,"ax",%progbits
 386              		.align	1
 387              		.p2align 4,,15
 388              		.global	variance_f
 389              		.syntax unified
 390              		.thumb
 391              		.thumb_func
 392              		.fpu fpv4-sp-d16
 393              		.type	variance_f, %function
 394              	variance_f:
 395              	.LFB6:
 396              		.loc 1 140 1
 397              		.cfi_startproc
 398              		@ args = 0, pretend = 0, frame = 8
 399              		@ frame_needed = 0, uses_anonymous_args = 0
ARM GAS  /tmp/ccyKWznV.s 			page 8


 400 0000 00B5     		push	{lr}
 401              		.cfi_def_cfa_offset 4
 402              		.cfi_offset 14, -4
 403 0002 83B0     		sub	sp, sp, #12
 404              		.cfi_def_cfa_offset 16
 405 0004 0190     		str	r0, [sp, #4]
 406 0006 0091     		str	r1, [sp]
 407              		.loc 1 141 10
 408 0008 009A     		ldr	r2, [sp]
 409 000a 0199     		ldr	r1, [sp, #4]
 410 000c 0198     		ldr	r0, [sp, #4]
 411 000e FFF7FEFF 		bl	covariance_f
 412 0012 0346     		mov	r3, r0	@ float
 413              		.loc 1 142 1
 414 0014 1846     		mov	r0, r3	@ float
 415 0016 03B0     		add	sp, sp, #12
 416              		.cfi_def_cfa_offset 4
 417              		@ sp needed
 418 0018 5DF804FB 		ldr	pc, [sp], #4
 419              		.cfi_endproc
 420              	.LFE6:
 421              		.size	variance_f, .-variance_f
 422              		.section	.text.covariance_f,"ax",%progbits
 423              		.align	1
 424              		.p2align 4,,15
 425              		.global	covariance_f
 426              		.syntax unified
 427              		.thumb
 428              		.thumb_func
 429              		.fpu fpv4-sp-d16
 430              		.type	covariance_f, %function
 431              	covariance_f:
 432              	.LFB7:
 433              		.loc 1 153 1
 434              		.cfi_startproc
 435              		@ args = 0, pretend = 0, frame = 32
 436              		@ frame_needed = 0, uses_anonymous_args = 0
 437              		@ link register save eliminated.
 438 0000 88B0     		sub	sp, sp, #32
 439              		.cfi_def_cfa_offset 32
 440 0002 0390     		str	r0, [sp, #12]
 441 0004 0291     		str	r1, [sp, #8]
 442 0006 0192     		str	r2, [sp, #4]
 443              		.loc 1 154 6
 444 0008 019B     		ldr	r3, [sp, #4]
 445 000a 002B     		cmp	r3, #0
 446 000c 02D1     		bne	.L25
 447              		.loc 1 156 12
 448 000e DFED307A 		vldr.32	s15, .L29
 449 0012 58E0     		b	.L26
 450              	.L25:
 451              		.loc 1 159 9
 452 0014 4FF00003 		mov	r3, #0
 453 0018 0793     		str	r3, [sp, #28]	@ float
 454              		.loc 1 159 21
 455 001a 4FF00003 		mov	r3, #0
 456 001e 0693     		str	r3, [sp, #24]	@ float
ARM GAS  /tmp/ccyKWznV.s 			page 9


 457              		.loc 1 159 33
 458 0020 4FF00003 		mov	r3, #0
 459 0024 0593     		str	r3, [sp, #20]	@ float
 460              		.loc 1 163 10
 461 0026 0023     		movs	r3, #0
 462 0028 0493     		str	r3, [sp, #16]
 463              		.loc 1 163 3
 464 002a 2EE0     		b	.L27
 465              	.L28:
 466              		.loc 1 164 17 discriminator 3
 467 002c 049B     		ldr	r3, [sp, #16]
 468 002e 9B00     		lsls	r3, r3, #2
 469 0030 039A     		ldr	r2, [sp, #12]
 470 0032 1344     		add	r3, r3, r2
 471 0034 D3ED007A 		vldr.32	s15, [r3]
 472              		.loc 1 164 10 discriminator 3
 473 0038 9DED077A 		vldr.32	s14, [sp, #28]
 474 003c 77EE277A 		vadd.f32	s15, s14, s15
 475 0040 CDED077A 		vstr.32	s15, [sp, #28]
 476              		.loc 1 165 17 discriminator 3
 477 0044 049B     		ldr	r3, [sp, #16]
 478 0046 9B00     		lsls	r3, r3, #2
 479 0048 029A     		ldr	r2, [sp, #8]
 480 004a 1344     		add	r3, r3, r2
 481 004c D3ED007A 		vldr.32	s15, [r3]
 482              		.loc 1 165 10 discriminator 3
 483 0050 9DED067A 		vldr.32	s14, [sp, #24]
 484 0054 77EE277A 		vadd.f32	s15, s14, s15
 485 0058 CDED067A 		vstr.32	s15, [sp, #24]
 486              		.loc 1 166 18 discriminator 3
 487 005c 049B     		ldr	r3, [sp, #16]
 488 005e 9B00     		lsls	r3, r3, #2
 489 0060 039A     		ldr	r2, [sp, #12]
 490 0062 1344     		add	r3, r3, r2
 491 0064 93ED007A 		vldr.32	s14, [r3]
 492              		.loc 1 166 28 discriminator 3
 493 0068 049B     		ldr	r3, [sp, #16]
 494 006a 9B00     		lsls	r3, r3, #2
 495 006c 029A     		ldr	r2, [sp, #8]
 496 006e 1344     		add	r3, r3, r2
 497 0070 D3ED007A 		vldr.32	s15, [r3]
 498              		.loc 1 166 22 discriminator 3
 499 0074 67EE277A 		vmul.f32	s15, s14, s15
 500              		.loc 1 166 11 discriminator 3
 501 0078 9DED057A 		vldr.32	s14, [sp, #20]
 502 007c 77EE277A 		vadd.f32	s15, s14, s15
 503 0080 CDED057A 		vstr.32	s15, [sp, #20]
 504              		.loc 1 163 32 discriminator 3
 505 0084 049B     		ldr	r3, [sp, #16]
 506 0086 0133     		adds	r3, r3, #1
 507 0088 0493     		str	r3, [sp, #16]
 508              	.L27:
 509              		.loc 1 163 3 discriminator 1
 510 008a 049A     		ldr	r2, [sp, #16]
 511 008c 019B     		ldr	r3, [sp, #4]
 512 008e 9A42     		cmp	r2, r3
 513 0090 CCD3     		bcc	.L28
ARM GAS  /tmp/ccyKWznV.s 			page 10


 514              		.loc 1 168 17
 515 0092 019B     		ldr	r3, [sp, #4]
 516 0094 07EE903A 		vmov	s15, r3	@ int
 517 0098 F8EE677A 		vcvt.f32.u32	s15, s15
 518 009c DDED056A 		vldr.32	s13, [sp, #20]
 519 00a0 86EEA77A 		vdiv.f32	s14, s13, s15
 520              		.loc 1 168 37
 521 00a4 DDED076A 		vldr.32	s13, [sp, #28]
 522 00a8 DDED067A 		vldr.32	s15, [sp, #24]
 523 00ac 26EEA76A 		vmul.f32	s12, s13, s15
 524              		.loc 1 168 58
 525 00b0 019B     		ldr	r3, [sp, #4]
 526 00b2 03FB03F3 		mul	r3, r3, r3
 527              		.loc 1 168 44
 528 00b6 07EE903A 		vmov	s15, r3	@ int
 529 00ba F8EE676A 		vcvt.f32.u32	s13, s15
 530 00be C6EE267A 		vdiv.f32	s15, s12, s13
 531              		.loc 1 168 30
 532 00c2 77EE677A 		vsub.f32	s15, s14, s15
 533              	.L26:
 534              		.loc 1 169 1
 535 00c6 17EE903A 		vmov	r3, s15
 536 00ca 1846     		mov	r0, r3	@ float
 537 00cc 08B0     		add	sp, sp, #32
 538              		.cfi_def_cfa_offset 0
 539              		@ sp needed
 540 00ce 7047     		bx	lr
 541              	.L30:
 542              		.align	2
 543              	.L29:
 544 00d0 00000000 		.word	0
 545              		.cfi_endproc
 546              	.LFE7:
 547              		.size	covariance_f, .-covariance_f
 548              		.text
 549              	.Letext0:
 550              		.file 2 "/usr/lib/gcc/arm-none-eabi/10.3.1/include/stdint.h"