ARM GAS  /tmp/cceVa9lb.s 			page 1


   1              		.cpu cortex-m4
   2              		.eabi_attribute 27, 1
   3              		.eabi_attribute 20, 1
   4              		.eabi_attribute 21, 1
   5              		.eabi_attribute 23, 3
   6              		.eabi_attribute 24, 1
   7              		.eabi_attribute 25, 1
   8              		.eabi_attribute 26, 1
   9              		.eabi_attribute 30, 6
  10              		.eabi_attribute 34, 1
  11              		.eabi_attribute 18, 4
  12              		.file	"pprz_geodetic_double.c"
  13              		.text
  14              	.Ltext0:
  15              		.cfi_sections	.debug_frame
  16              		.global	__aeabi_dmul
  17              		.section	.text.ltp_def_from_ecef_d,"ax",%progbits
  18              		.align	1
  19              		.p2align 4,,15
  20              		.global	ltp_def_from_ecef_d
  21              		.arch armv7e-m
  22              		.syntax unified
  23              		.thumb
  24              		.thumb_func
  25              		.fpu fpv4-sp-d16
  26              		.type	ltp_def_from_ecef_d, %function
  27              	ltp_def_from_ecef_d:
  28              	.LFB52:
  29              		.file 1 "math/pprz_geodetic_double.c"
  30              		.loc 1 35 1
  31              		.cfi_startproc
  32              		@ args = 0, pretend = 0, frame = 48
  33              		@ frame_needed = 0, uses_anonymous_args = 0
  34 0000 F0B5     		push	{r4, r5, r6, r7, lr}
  35              		.cfi_def_cfa_offset 20
  36              		.cfi_offset 4, -20
  37              		.cfi_offset 5, -16
  38              		.cfi_offset 6, -12
  39              		.cfi_offset 7, -8
  40              		.cfi_offset 14, -4
  41 0002 8DB0     		sub	sp, sp, #52
  42              		.cfi_def_cfa_offset 72
  43 0004 0390     		str	r0, [sp, #12]
  44 0006 0291     		str	r1, [sp, #8]
  45              		.loc 1 37 3
  46 0008 029B     		ldr	r3, [sp, #8]
  47 000a D3E90023 		ldrd	r2, [r3]
  48 000e 0399     		ldr	r1, [sp, #12]
  49 0010 C1E90023 		strd	r2, [r1]
  50 0014 029B     		ldr	r3, [sp, #8]
  51 0016 D3E90223 		ldrd	r2, [r3, #8]
  52 001a 0399     		ldr	r1, [sp, #12]
  53 001c C1E90223 		strd	r2, [r1, #8]
  54 0020 029B     		ldr	r3, [sp, #8]
  55 0022 D3E90423 		ldrd	r2, [r3, #16]
  56 0026 0399     		ldr	r1, [sp, #12]
  57 0028 C1E90423 		strd	r2, [r1, #16]
ARM GAS  /tmp/cceVa9lb.s 			page 2


  58              		.loc 1 39 3
  59 002c 039B     		ldr	r3, [sp, #12]
  60 002e 1833     		adds	r3, r3, #24
  61 0030 039A     		ldr	r2, [sp, #12]
  62 0032 1146     		mov	r1, r2
  63 0034 1846     		mov	r0, r3
  64 0036 FFF7FEFF 		bl	lla_of_ecef_d
  65              		.loc 1 41 26
  66 003a 039B     		ldr	r3, [sp, #12]
  67 003c D3E90623 		ldrd	r2, [r3, #24]
  68 0040 1046     		mov	r0, r2
  69 0042 1946     		mov	r1, r3
  70 0044 FFF7FEFF 		bl	sin
  71 0048 CDE90A01 		strd	r0, [sp, #40]
  72              		.loc 1 42 26
  73 004c 039B     		ldr	r3, [sp, #12]
  74 004e D3E90623 		ldrd	r2, [r3, #24]
  75 0052 1046     		mov	r0, r2
  76 0054 1946     		mov	r1, r3
  77 0056 FFF7FEFF 		bl	cos
  78 005a CDE90801 		strd	r0, [sp, #32]
  79              		.loc 1 43 26
  80 005e 039B     		ldr	r3, [sp, #12]
  81 0060 D3E90823 		ldrd	r2, [r3, #32]
  82 0064 1046     		mov	r0, r2
  83 0066 1946     		mov	r1, r3
  84 0068 FFF7FEFF 		bl	sin
  85 006c CDE90601 		strd	r0, [sp, #24]
  86              		.loc 1 44 26
  87 0070 039B     		ldr	r3, [sp, #12]
  88 0072 D3E90823 		ldrd	r2, [r3, #32]
  89 0076 1046     		mov	r0, r2
  90 0078 1946     		mov	r1, r3
  91 007a FFF7FEFF 		bl	cos
  92 007e CDE90401 		strd	r0, [sp, #16]
  93              		.loc 1 45 27
  94 0082 069C     		ldr	r4, [sp, #24]
  95 0084 079B     		ldr	r3, [sp, #28]
  96 0086 83F00045 		eor	r5, r3, #-2147483648
  97              		.loc 1 45 25
  98 008a 039B     		ldr	r3, [sp, #12]
  99 008c C3E90C45 		strd	r4, [r3, #48]
 100              		.loc 1 46 25
 101 0090 0399     		ldr	r1, [sp, #12]
 102 0092 DDE90423 		ldrd	r2, [sp, #16]
 103 0096 C1E90E23 		strd	r2, [r1, #56]
 104              		.loc 1 47 25
 105 009a 0399     		ldr	r1, [sp, #12]
 106 009c 4FF00002 		mov	r2, #0
 107 00a0 4FF00003 		mov	r3, #0
 108 00a4 C1E91023 		strd	r2, [r1, #64]
 109              		.loc 1 48 27
 110 00a8 0A9B     		ldr	r3, [sp, #40]
 111 00aa 0093     		str	r3, [sp]
 112 00ac 0B9B     		ldr	r3, [sp, #44]
 113 00ae 83F00043 		eor	r3, r3, #-2147483648
 114 00b2 0193     		str	r3, [sp, #4]
ARM GAS  /tmp/cceVa9lb.s 			page 3


 115              		.loc 1 48 36
 116 00b4 DDE90423 		ldrd	r2, [sp, #16]
 117 00b8 DDE90001 		ldrd	r0, [sp]
 118 00bc FFF7FEFF 		bl	__aeabi_dmul
 119 00c0 0246     		mov	r2, r0
 120 00c2 0B46     		mov	r3, r1
 121              		.loc 1 48 25
 122 00c4 0399     		ldr	r1, [sp, #12]
 123 00c6 C1E91223 		strd	r2, [r1, #72]
 124              		.loc 1 49 27
 125 00ca 0A9E     		ldr	r6, [sp, #40]
 126 00cc 0B9B     		ldr	r3, [sp, #44]
 127 00ce 83F00047 		eor	r7, r3, #-2147483648
 128              		.loc 1 49 36
 129 00d2 DDE90623 		ldrd	r2, [sp, #24]
 130 00d6 3046     		mov	r0, r6
 131 00d8 3946     		mov	r1, r7
 132 00da FFF7FEFF 		bl	__aeabi_dmul
 133 00de 0246     		mov	r2, r0
 134 00e0 0B46     		mov	r3, r1
 135              		.loc 1 49 25
 136 00e2 0399     		ldr	r1, [sp, #12]
 137 00e4 C1E91423 		strd	r2, [r1, #80]
 138              		.loc 1 50 25
 139 00e8 0399     		ldr	r1, [sp, #12]
 140 00ea DDE90823 		ldrd	r2, [sp, #32]
 141 00ee C1E91623 		strd	r2, [r1, #88]
 142              		.loc 1 51 36
 143 00f2 DDE90423 		ldrd	r2, [sp, #16]
 144 00f6 DDE90801 		ldrd	r0, [sp, #32]
 145 00fa FFF7FEFF 		bl	__aeabi_dmul
 146 00fe 0246     		mov	r2, r0
 147 0100 0B46     		mov	r3, r1
 148              		.loc 1 51 25
 149 0102 0399     		ldr	r1, [sp, #12]
 150 0104 C1E91823 		strd	r2, [r1, #96]
 151              		.loc 1 52 36
 152 0108 DDE90623 		ldrd	r2, [sp, #24]
 153 010c DDE90801 		ldrd	r0, [sp, #32]
 154 0110 FFF7FEFF 		bl	__aeabi_dmul
 155 0114 0246     		mov	r2, r0
 156 0116 0B46     		mov	r3, r1
 157              		.loc 1 52 25
 158 0118 0399     		ldr	r1, [sp, #12]
 159 011a C1E91A23 		strd	r2, [r1, #104]
 160              		.loc 1 53 25
 161 011e 0399     		ldr	r1, [sp, #12]
 162 0120 DDE90A23 		ldrd	r2, [sp, #40]
 163 0124 C1E91C23 		strd	r2, [r1, #112]
 164              		.loc 1 55 1
 165 0128 00BF     		nop
 166 012a 0DB0     		add	sp, sp, #52
 167              		.cfi_def_cfa_offset 20
 168              		@ sp needed
 169 012c F0BD     		pop	{r4, r5, r6, r7, pc}
 170              		.cfi_endproc
 171              	.LFE52:
ARM GAS  /tmp/cceVa9lb.s 			page 4


 172              		.size	ltp_def_from_ecef_d, .-ltp_def_from_ecef_d
 173 012e 00BF     		.section	.text.ltp_def_from_lla_d,"ax",%progbits
 174              		.align	1
 175              		.p2align 4,,15
 176              		.global	ltp_def_from_lla_d
 177              		.syntax unified
 178              		.thumb
 179              		.thumb_func
 180              		.fpu fpv4-sp-d16
 181              		.type	ltp_def_from_lla_d, %function
 182              	ltp_def_from_lla_d:
 183              	.LFB53:
 184              		.loc 1 58 1
 185              		.cfi_startproc
 186              		@ args = 0, pretend = 0, frame = 48
 187              		@ frame_needed = 0, uses_anonymous_args = 0
 188 0000 F0B5     		push	{r4, r5, r6, r7, lr}
 189              		.cfi_def_cfa_offset 20
 190              		.cfi_offset 4, -20
 191              		.cfi_offset 5, -16
 192              		.cfi_offset 6, -12
 193              		.cfi_offset 7, -8
 194              		.cfi_offset 14, -4
 195 0002 8DB0     		sub	sp, sp, #52
 196              		.cfi_def_cfa_offset 72
 197 0004 0390     		str	r0, [sp, #12]
 198 0006 0291     		str	r1, [sp, #8]
 199              		.loc 1 60 3
 200 0008 029B     		ldr	r3, [sp, #8]
 201 000a D3E90023 		ldrd	r2, [r3]
 202 000e 0399     		ldr	r1, [sp, #12]
 203 0010 C1E90623 		strd	r2, [r1, #24]
 204 0014 029B     		ldr	r3, [sp, #8]
 205 0016 D3E90223 		ldrd	r2, [r3, #8]
 206 001a 0399     		ldr	r1, [sp, #12]
 207 001c C1E90823 		strd	r2, [r1, #32]
 208 0020 029B     		ldr	r3, [sp, #8]
 209 0022 D3E90423 		ldrd	r2, [r3, #16]
 210 0026 0399     		ldr	r1, [sp, #12]
 211 0028 C1E90A23 		strd	r2, [r1, #40]
 212              		.loc 1 62 3
 213 002c 039A     		ldr	r2, [sp, #12]
 214 002e 039B     		ldr	r3, [sp, #12]
 215 0030 1833     		adds	r3, r3, #24
 216 0032 1946     		mov	r1, r3
 217 0034 1046     		mov	r0, r2
 218 0036 FFF7FEFF 		bl	ecef_of_lla_d
 219              		.loc 1 65 26
 220 003a 039B     		ldr	r3, [sp, #12]
 221 003c D3E90623 		ldrd	r2, [r3, #24]
 222 0040 1046     		mov	r0, r2
 223 0042 1946     		mov	r1, r3
 224 0044 FFF7FEFF 		bl	sin
 225 0048 CDE90A01 		strd	r0, [sp, #40]
 226              		.loc 1 66 26
 227 004c 039B     		ldr	r3, [sp, #12]
 228 004e D3E90623 		ldrd	r2, [r3, #24]
ARM GAS  /tmp/cceVa9lb.s 			page 5


 229 0052 1046     		mov	r0, r2
 230 0054 1946     		mov	r1, r3
 231 0056 FFF7FEFF 		bl	cos
 232 005a CDE90801 		strd	r0, [sp, #32]
 233              		.loc 1 67 26
 234 005e 039B     		ldr	r3, [sp, #12]
 235 0060 D3E90823 		ldrd	r2, [r3, #32]
 236 0064 1046     		mov	r0, r2
 237 0066 1946     		mov	r1, r3
 238 0068 FFF7FEFF 		bl	sin
 239 006c CDE90601 		strd	r0, [sp, #24]
 240              		.loc 1 68 26
 241 0070 039B     		ldr	r3, [sp, #12]
 242 0072 D3E90823 		ldrd	r2, [r3, #32]
 243 0076 1046     		mov	r0, r2
 244 0078 1946     		mov	r1, r3
 245 007a FFF7FEFF 		bl	cos
 246 007e CDE90401 		strd	r0, [sp, #16]
 247              		.loc 1 70 27
 248 0082 069C     		ldr	r4, [sp, #24]
 249 0084 079B     		ldr	r3, [sp, #28]
 250 0086 83F00045 		eor	r5, r3, #-2147483648
 251              		.loc 1 70 25
 252 008a 039B     		ldr	r3, [sp, #12]
 253 008c C3E90C45 		strd	r4, [r3, #48]
 254              		.loc 1 71 25
 255 0090 0399     		ldr	r1, [sp, #12]
 256 0092 DDE90423 		ldrd	r2, [sp, #16]
 257 0096 C1E90E23 		strd	r2, [r1, #56]
 258              		.loc 1 73 25
 259 009a 0399     		ldr	r1, [sp, #12]
 260 009c 4FF00002 		mov	r2, #0
 261 00a0 4FF00003 		mov	r3, #0
 262 00a4 C1E91023 		strd	r2, [r1, #64]
 263              		.loc 1 74 27
 264 00a8 0A9B     		ldr	r3, [sp, #40]
 265 00aa 0093     		str	r3, [sp]
 266 00ac 0B9B     		ldr	r3, [sp, #44]
 267 00ae 83F00043 		eor	r3, r3, #-2147483648
 268 00b2 0193     		str	r3, [sp, #4]
 269              		.loc 1 74 36
 270 00b4 DDE90423 		ldrd	r2, [sp, #16]
 271 00b8 DDE90001 		ldrd	r0, [sp]
 272 00bc FFF7FEFF 		bl	__aeabi_dmul
 273 00c0 0246     		mov	r2, r0
 274 00c2 0B46     		mov	r3, r1
 275              		.loc 1 74 25
 276 00c4 0399     		ldr	r1, [sp, #12]
 277 00c6 C1E91223 		strd	r2, [r1, #72]
 278              		.loc 1 75 27
 279 00ca 0A9E     		ldr	r6, [sp, #40]
 280 00cc 0B9B     		ldr	r3, [sp, #44]
 281 00ce 83F00047 		eor	r7, r3, #-2147483648
 282              		.loc 1 75 36
 283 00d2 DDE90623 		ldrd	r2, [sp, #24]
 284 00d6 3046     		mov	r0, r6
 285 00d8 3946     		mov	r1, r7
ARM GAS  /tmp/cceVa9lb.s 			page 6


 286 00da FFF7FEFF 		bl	__aeabi_dmul
 287 00de 0246     		mov	r2, r0
 288 00e0 0B46     		mov	r3, r1
 289              		.loc 1 75 25
 290 00e2 0399     		ldr	r1, [sp, #12]
 291 00e4 C1E91423 		strd	r2, [r1, #80]
 292              		.loc 1 76 25
 293 00e8 0399     		ldr	r1, [sp, #12]
 294 00ea DDE90823 		ldrd	r2, [sp, #32]
 295 00ee C1E91623 		strd	r2, [r1, #88]
 296              		.loc 1 77 36
 297 00f2 DDE90423 		ldrd	r2, [sp, #16]
 298 00f6 DDE90801 		ldrd	r0, [sp, #32]
 299 00fa FFF7FEFF 		bl	__aeabi_dmul
 300 00fe 0246     		mov	r2, r0
 301 0100 0B46     		mov	r3, r1
 302              		.loc 1 77 25
 303 0102 0399     		ldr	r1, [sp, #12]
 304 0104 C1E91823 		strd	r2, [r1, #96]
 305              		.loc 1 78 36
 306 0108 DDE90623 		ldrd	r2, [sp, #24]
 307 010c DDE90801 		ldrd	r0, [sp, #32]
 308 0110 FFF7FEFF 		bl	__aeabi_dmul
 309 0114 0246     		mov	r2, r0
 310 0116 0B46     		mov	r3, r1
 311              		.loc 1 78 25
 312 0118 0399     		ldr	r1, [sp, #12]
 313 011a C1E91A23 		strd	r2, [r1, #104]
 314              		.loc 1 79 25
 315 011e 0399     		ldr	r1, [sp, #12]
 316 0120 DDE90A23 		ldrd	r2, [sp, #40]
 317 0124 C1E91C23 		strd	r2, [r1, #112]
 318              		.loc 1 80 1
 319 0128 00BF     		nop
 320 012a 0DB0     		add	sp, sp, #52
 321              		.cfi_def_cfa_offset 20
 322              		@ sp needed
 323 012c F0BD     		pop	{r4, r5, r6, r7, pc}
 324              		.cfi_endproc
 325              	.LFE53:
 326              		.size	ltp_def_from_lla_d, .-ltp_def_from_lla_d
 327              		.global	__aeabi_dsub
 328              		.global	__aeabi_dadd
 329              		.global	__aeabi_ddiv
 330 012e 00BF     		.section	.text.lla_of_ecef_d,"ax",%progbits
 331              		.align	1
 332              		.p2align 4,,15
 333              		.global	lla_of_ecef_d
 334              		.syntax unified
 335              		.thumb
 336              		.thumb_func
 337              		.fpu fpv4-sp-d16
 338              		.type	lla_of_ecef_d, %function
 339              	lla_of_ecef_d:
 340              	.LFB54:
 341              		.loc 1 84 1
 342              		.cfi_startproc
ARM GAS  /tmp/cceVa9lb.s 			page 7


 343              		@ args = 0, pretend = 0, frame = 168
 344              		@ frame_needed = 0, uses_anonymous_args = 0
 345 0000 2DE9F043 		push	{r4, r5, r6, r7, r8, r9, lr}
 346              		.cfi_def_cfa_offset 28
 347              		.cfi_offset 4, -28
 348              		.cfi_offset 5, -24
 349              		.cfi_offset 6, -20
 350              		.cfi_offset 7, -16
 351              		.cfi_offset 8, -12
 352              		.cfi_offset 9, -8
 353              		.cfi_offset 14, -4
 354 0004 ABB0     		sub	sp, sp, #172
 355              		.cfi_def_cfa_offset 200
 356 0006 0190     		str	r0, [sp, #4]
 357 0008 0091     		str	r1, [sp]
 358              		.loc 1 89 28
 359 000a BB4B     		ldr	r3, .L4+8
 360 000c D3E90023 		ldrd	r2, [r3]
 361 0010 4FF00000 		mov	r0, #0
 362 0014 B949     		ldr	r1, .L4+12
 363 0016 FFF7FEFF 		bl	__aeabi_dsub
 364 001a 0246     		mov	r2, r0
 365 001c 0B46     		mov	r3, r1
 366 001e 1046     		mov	r0, r2
 367 0020 1946     		mov	r1, r3
 368              		.loc 1 89 22
 369 0022 B74B     		ldr	r3, .L4+16
 370 0024 D3E90023 		ldrd	r2, [r3]
 371              		.loc 1 89 16
 372 0028 FFF7FEFF 		bl	__aeabi_dmul
 373 002c 0246     		mov	r2, r0
 374 002e 0B46     		mov	r3, r1
 375 0030 CDE92823 		strd	r2, [sp, #160]
 376              		.loc 1 90 16
 377 0034 DDE92823 		ldrd	r2, [sp, #160]
 378 0038 DDE92801 		ldrd	r0, [sp, #160]
 379 003c FFF7FEFF 		bl	__aeabi_dmul
 380 0040 0246     		mov	r2, r0
 381 0042 0B46     		mov	r3, r1
 382 0044 CDE92623 		strd	r2, [sp, #152]
 383              		.loc 1 92 23
 384 0048 AB4B     		ldr	r3, .L4+8
 385 004a D3E90001 		ldrd	r0, [r3]
 386 004e 0246     		mov	r2, r0
 387 0050 0B46     		mov	r3, r1
 388 0052 FFF7FEFF 		bl	__aeabi_dadd
 389 0056 0246     		mov	r2, r0
 390 0058 0B46     		mov	r3, r1
 391 005a 1646     		mov	r6, r2
 392 005c 1F46     		mov	r7, r3
 393              		.loc 1 92 31
 394 005e A64B     		ldr	r3, .L4+8
 395 0060 D3E90001 		ldrd	r0, [r3]
 396 0064 A44B     		ldr	r3, .L4+8
 397 0066 D3E90023 		ldrd	r2, [r3]
 398 006a FFF7FEFF 		bl	__aeabi_dmul
 399 006e 0246     		mov	r2, r0
ARM GAS  /tmp/cceVa9lb.s 			page 8


 400 0070 0B46     		mov	r3, r1
 401              		.loc 1 92 16
 402 0072 3046     		mov	r0, r6
 403 0074 3946     		mov	r1, r7
 404 0076 FFF7FEFF 		bl	__aeabi_dsub
 405 007a 0246     		mov	r2, r0
 406 007c 0B46     		mov	r3, r1
 407 007e CDE92423 		strd	r2, [sp, #144]
 408              		.loc 1 93 30
 409 0082 9D4B     		ldr	r3, .L4+8
 410 0084 D3E90023 		ldrd	r2, [r3]
 411 0088 4FF00000 		mov	r0, #0
 412 008c 4FF08041 		mov	r1, #1073741824
 413 0090 FFF7FEFF 		bl	__aeabi_dsub
 414 0094 0246     		mov	r2, r0
 415 0096 0B46     		mov	r3, r1
 416 0098 1046     		mov	r0, r2
 417 009a 1946     		mov	r1, r3
 418              		.loc 1 93 24
 419 009c 964B     		ldr	r3, .L4+8
 420 009e D3E90023 		ldrd	r2, [r3]
 421 00a2 FFF7FEFF 		bl	__aeabi_dmul
 422 00a6 0246     		mov	r2, r0
 423 00a8 0B46     		mov	r3, r1
 424 00aa 1646     		mov	r6, r2
 425 00ac 1F46     		mov	r7, r3
 426              		.loc 1 93 42
 427 00ae 924B     		ldr	r3, .L4+8
 428 00b0 D3E90023 		ldrd	r2, [r3]
 429 00b4 4FF00000 		mov	r0, #0
 430 00b8 9049     		ldr	r1, .L4+12
 431 00ba FFF7FEFF 		bl	__aeabi_dsub
 432 00be 0246     		mov	r2, r0
 433 00c0 0B46     		mov	r3, r1
 434 00c2 9046     		mov	r8, r2
 435 00c4 9946     		mov	r9, r3
 436              		.loc 1 93 53
 437 00c6 8C4B     		ldr	r3, .L4+8
 438 00c8 D3E90023 		ldrd	r2, [r3]
 439 00cc 4FF00000 		mov	r0, #0
 440 00d0 8A49     		ldr	r1, .L4+12
 441 00d2 FFF7FEFF 		bl	__aeabi_dsub
 442 00d6 0246     		mov	r2, r0
 443 00d8 0B46     		mov	r3, r1
 444              		.loc 1 93 47
 445 00da 4046     		mov	r0, r8
 446 00dc 4946     		mov	r1, r9
 447 00de FFF7FEFF 		bl	__aeabi_dmul
 448 00e2 0246     		mov	r2, r0
 449 00e4 0B46     		mov	r3, r1
 450              		.loc 1 93 16
 451 00e6 3046     		mov	r0, r6
 452 00e8 3946     		mov	r1, r7
 453 00ea FFF7FEFF 		bl	__aeabi_ddiv
 454 00ee 0246     		mov	r2, r0
 455 00f0 0B46     		mov	r3, r1
 456 00f2 CDE92223 		strd	r2, [sp, #136]
ARM GAS  /tmp/cceVa9lb.s 			page 9


 457              		.loc 1 94 23
 458 00f6 824B     		ldr	r3, .L4+16
 459 00f8 D3E90001 		ldrd	r0, [r3]
 460 00fc 804B     		ldr	r3, .L4+16
 461 00fe D3E90023 		ldrd	r2, [r3]
 462 0102 FFF7FEFF 		bl	__aeabi_dmul
 463 0106 0246     		mov	r2, r0
 464 0108 0B46     		mov	r3, r1
 465 010a 1046     		mov	r0, r2
 466 010c 1946     		mov	r1, r3
 467              		.loc 1 94 16
 468 010e DDE92623 		ldrd	r2, [sp, #152]
 469 0112 FFF7FEFF 		bl	__aeabi_dsub
 470 0116 0246     		mov	r2, r0
 471 0118 0B46     		mov	r3, r1
 472 011a CDE92023 		strd	r2, [sp, #128]
 473              		.loc 1 97 25
 474 011e 009B     		ldr	r3, [sp]
 475 0120 D3E90401 		ldrd	r0, [r3, #16]
 476              		.loc 1 97 35
 477 0124 009B     		ldr	r3, [sp]
 478 0126 D3E90423 		ldrd	r2, [r3, #16]
 479              		.loc 1 97 16
 480 012a FFF7FEFF 		bl	__aeabi_dmul
 481 012e 0246     		mov	r2, r0
 482 0130 0B46     		mov	r3, r1
 483 0132 CDE91E23 		strd	r2, [sp, #120]
 484              		.loc 1 98 25
 485 0136 009B     		ldr	r3, [sp]
 486 0138 D3E90001 		ldrd	r0, [r3]
 487              		.loc 1 98 35
 488 013c 009B     		ldr	r3, [sp]
 489 013e D3E90023 		ldrd	r2, [r3]
 490              		.loc 1 98 29
 491 0142 FFF7FEFF 		bl	__aeabi_dmul
 492 0146 0246     		mov	r2, r0
 493 0148 0B46     		mov	r3, r1
 494 014a 1646     		mov	r6, r2
 495 014c 1F46     		mov	r7, r3
 496              		.loc 1 98 45
 497 014e 009B     		ldr	r3, [sp]
 498 0150 D3E90201 		ldrd	r0, [r3, #8]
 499              		.loc 1 98 55
 500 0154 009B     		ldr	r3, [sp]
 501 0156 D3E90223 		ldrd	r2, [r3, #8]
 502              		.loc 1 98 49
 503 015a FFF7FEFF 		bl	__aeabi_dmul
 504 015e 0246     		mov	r2, r0
 505 0160 0B46     		mov	r3, r1
 506              		.loc 1 98 16
 507 0162 3046     		mov	r0, r6
 508 0164 3946     		mov	r1, r7
 509 0166 FFF7FEFF 		bl	__aeabi_dadd
 510 016a 0246     		mov	r2, r0
 511 016c 0B46     		mov	r3, r1
 512 016e CDE91C23 		strd	r2, [sp, #112]
 513              		.loc 1 99 20
ARM GAS  /tmp/cceVa9lb.s 			page 10


 514 0172 DDE91C01 		ldrd	r0, [sp, #112]
 515 0176 FFF7FEFF 		bl	sqrt
 516 017a CDE91A01 		strd	r0, [sp, #104]
 517              		.loc 1 100 23
 518 017e 4FF00002 		mov	r2, #0
 519 0182 604B     		ldr	r3, .L4+20
 520 0184 DDE92601 		ldrd	r0, [sp, #152]
 521 0188 FFF7FEFF 		bl	__aeabi_dmul
 522 018c 0246     		mov	r2, r0
 523 018e 0B46     		mov	r3, r1
 524              		.loc 1 100 16
 525 0190 DDE91E01 		ldrd	r0, [sp, #120]
 526 0194 FFF7FEFF 		bl	__aeabi_dmul
 527 0198 0246     		mov	r2, r0
 528 019a 0B46     		mov	r3, r1
 529 019c CDE91823 		strd	r2, [sp, #96]
 530              		.loc 1 101 28
 531 01a0 DDE92423 		ldrd	r2, [sp, #144]
 532 01a4 4FF00000 		mov	r0, #0
 533 01a8 5449     		ldr	r1, .L4+12
 534 01aa FFF7FEFF 		bl	__aeabi_dsub
 535 01ae 0246     		mov	r2, r0
 536 01b0 0B46     		mov	r3, r1
 537 01b2 1046     		mov	r0, r2
 538 01b4 1946     		mov	r1, r3
 539              		.loc 1 101 34
 540 01b6 DDE91E23 		ldrd	r2, [sp, #120]
 541 01ba FFF7FEFF 		bl	__aeabi_dmul
 542 01be 0246     		mov	r2, r0
 543 01c0 0B46     		mov	r3, r1
 544 01c2 1046     		mov	r0, r2
 545 01c4 1946     		mov	r1, r3
 546              		.loc 1 101 23
 547 01c6 DDE91C23 		ldrd	r2, [sp, #112]
 548 01ca FFF7FEFF 		bl	__aeabi_dadd
 549 01ce 0246     		mov	r2, r0
 550 01d0 0B46     		mov	r3, r1
 551 01d2 1646     		mov	r6, r2
 552 01d4 1F46     		mov	r7, r3
 553              		.loc 1 101 44
 554 01d6 DDE92023 		ldrd	r2, [sp, #128]
 555 01da DDE92401 		ldrd	r0, [sp, #144]
 556 01de FFF7FEFF 		bl	__aeabi_dmul
 557 01e2 0246     		mov	r2, r0
 558 01e4 0B46     		mov	r3, r1
 559              		.loc 1 101 16
 560 01e6 3046     		mov	r0, r6
 561 01e8 3946     		mov	r1, r7
 562 01ea FFF7FEFF 		bl	__aeabi_dsub
 563 01ee 0246     		mov	r2, r0
 564 01f0 0B46     		mov	r3, r1
 565 01f2 CDE91623 		strd	r2, [sp, #88]
 566              		.loc 1 102 24
 567 01f6 DDE92423 		ldrd	r2, [sp, #144]
 568 01fa DDE92401 		ldrd	r0, [sp, #144]
 569 01fe FFF7FEFF 		bl	__aeabi_dmul
 570 0202 0246     		mov	r2, r0
ARM GAS  /tmp/cceVa9lb.s 			page 11


 571 0204 0B46     		mov	r3, r1
 572 0206 1046     		mov	r0, r2
 573 0208 1946     		mov	r1, r3
 574              		.loc 1 102 29
 575 020a DDE91823 		ldrd	r2, [sp, #96]
 576 020e FFF7FEFF 		bl	__aeabi_dmul
 577 0212 0246     		mov	r2, r0
 578 0214 0B46     		mov	r3, r1
 579 0216 1046     		mov	r0, r2
 580 0218 1946     		mov	r1, r3
 581              		.loc 1 102 33
 582 021a DDE91C23 		ldrd	r2, [sp, #112]
 583 021e FFF7FEFF 		bl	__aeabi_dmul
 584 0222 0246     		mov	r2, r0
 585 0224 0B46     		mov	r3, r1
 586 0226 1646     		mov	r6, r2
 587 0228 1F46     		mov	r7, r3
 588              		.loc 1 102 44
 589 022a DDE91623 		ldrd	r2, [sp, #88]
 590 022e DDE91601 		ldrd	r0, [sp, #88]
 591 0232 FFF7FEFF 		bl	__aeabi_dmul
 592 0236 0246     		mov	r2, r0
 593 0238 0B46     		mov	r3, r1
 594 023a 1046     		mov	r0, r2
 595 023c 1946     		mov	r1, r3
 596              		.loc 1 102 48
 597 023e DDE91623 		ldrd	r2, [sp, #88]
 598 0242 FFF7FEFF 		bl	__aeabi_dmul
 599 0246 0246     		mov	r2, r0
 600 0248 0B46     		mov	r3, r1
 601              		.loc 1 102 16
 602 024a 3046     		mov	r0, r6
 603 024c 3946     		mov	r1, r7
 604 024e FFF7FEFF 		bl	__aeabi_ddiv
 605 0252 0246     		mov	r2, r0
 606 0254 0B46     		mov	r3, r1
 607 0256 CDE91423 		strd	r2, [sp, #80]
 608              		.loc 1 103 27
 609 025a 4FF00002 		mov	r2, #0
 610 025e 274B     		ldr	r3, .L4+12
 611 0260 DDE91401 		ldrd	r0, [sp, #80]
 612 0264 FFF7FEFF 		bl	__aeabi_dadd
 613 0268 0246     		mov	r2, r0
 614 026a 0B46     		mov	r3, r1
 615 026c 1646     		mov	r6, r2
 616 026e 1F46     		mov	r7, r3
 617              		.loc 1 103 40
 618 0270 DDE91423 		ldrd	r2, [sp, #80]
 619 0274 DDE91401 		ldrd	r0, [sp, #80]
 620 0278 FFF7FEFF 		bl	__aeabi_dmul
 621 027c 0246     		mov	r2, r0
 622 027e 0B46     		mov	r3, r1
 623 0280 9046     		mov	r8, r2
 624 0282 9946     		mov	r9, r3
 625              		.loc 1 103 48
 626 0284 DDE91401 		ldrd	r0, [sp, #80]
 627 0288 0246     		mov	r2, r0
ARM GAS  /tmp/cceVa9lb.s 			page 12


 628 028a 0B46     		mov	r3, r1
 629 028c FFF7FEFF 		bl	__aeabi_dadd
 630 0290 0246     		mov	r2, r0
 631 0292 0B46     		mov	r3, r1
 632              		.loc 1 103 33
 633 0294 4046     		mov	r0, r8
 634 0296 4946     		mov	r1, r9
 635 0298 FFF7FEFF 		bl	__aeabi_dadd
 636 029c 0246     		mov	r2, r0
 637 029e 0B46     		mov	r3, r1
 638 02a0 1046     		mov	r0, r2
 639 02a2 1946     		mov	r1, r3
 640 02a4 FFF7FEFF 		bl	sqrt
 641 02a8 0246     		mov	r2, r0
 642 02aa 0B46     		mov	r3, r1
 643              		.loc 1 103 20
 644 02ac 3046     		mov	r0, r6
 645 02ae 3946     		mov	r1, r7
 646 02b0 FFF7FEFF 		bl	__aeabi_dadd
 647 02b4 0246     		mov	r2, r0
 648 02b6 0B46     		mov	r3, r1
 649 02b8 1046     		mov	r0, r2
 650 02ba 1946     		mov	r1, r3
 651 02bc 0CA3     		adr	r3, .L4
 652 02be D3E90023 		ldrd	r2, [r3]
 653 02c2 FFF7FEFF 		bl	pow
 654 02c6 CDE91201 		strd	r0, [sp, #72]
 655              		.loc 1 104 23
 656 02ca 4FF00002 		mov	r2, #0
 657 02ce 0B4B     		ldr	r3, .L4+12
 658 02d0 DDE91201 		ldrd	r0, [sp, #72]
 659 02d4 FFF7FEFF 		bl	__aeabi_dadd
 660 02d8 0246     		mov	r2, r0
 661 02da 0B46     		mov	r3, r1
 662 02dc 1646     		mov	r6, r2
 663 02de 1F46     		mov	r7, r3
 664              		.loc 1 104 31
 665 02e0 DDE91223 		ldrd	r2, [sp, #72]
 666 02e4 4FF00000 		mov	r0, #0
 667 02e8 0449     		ldr	r1, .L4+12
 668 02ea FFF7FEFF 		bl	__aeabi_ddiv
 669 02ee 0BE0     		b	.L5
 670              	.L6:
 671              		.align	3
 672              	.L4:
 673 02f0 55555555 		.word	1431655765
 674 02f4 5555D53F 		.word	1070945621
 675 02f8 00000000 		.word	f.3
 676 02fc 0000F03F 		.word	1072693248
 677 0300 00000000 		.word	a.2
 678 0304 00004B40 		.word	1078657024
 679              	.L5:
 680 0308 0246     		mov	r2, r0
 681 030a 0B46     		mov	r3, r1
 682              		.loc 1 104 16
 683 030c 3046     		mov	r0, r6
 684 030e 3946     		mov	r1, r7
ARM GAS  /tmp/cceVa9lb.s 			page 13


 685 0310 FFF7FEFF 		bl	__aeabi_dadd
 686 0314 0246     		mov	r2, r0
 687 0316 0B46     		mov	r3, r1
 688 0318 CDE91023 		strd	r2, [sp, #64]
 689              		.loc 1 105 27
 690 031c 4FF00002 		mov	r2, #0
 691 0320 C54B     		ldr	r3, .L7
 692 0322 DDE91001 		ldrd	r0, [sp, #64]
 693 0326 FFF7FEFF 		bl	__aeabi_dmul
 694 032a 0246     		mov	r2, r0
 695 032c 0B46     		mov	r3, r1
 696 032e 1046     		mov	r0, r2
 697 0330 1946     		mov	r1, r3
 698              		.loc 1 105 32
 699 0332 DDE91023 		ldrd	r2, [sp, #64]
 700 0336 FFF7FEFF 		bl	__aeabi_dmul
 701 033a 0246     		mov	r2, r0
 702 033c 0B46     		mov	r3, r1
 703 033e 1046     		mov	r0, r2
 704 0340 1946     		mov	r1, r3
 705              		.loc 1 105 37
 706 0342 DDE91623 		ldrd	r2, [sp, #88]
 707 0346 FFF7FEFF 		bl	__aeabi_dmul
 708 034a 0246     		mov	r2, r0
 709 034c 0B46     		mov	r3, r1
 710 034e 1046     		mov	r0, r2
 711 0350 1946     		mov	r1, r3
 712              		.loc 1 105 41
 713 0352 DDE91623 		ldrd	r2, [sp, #88]
 714 0356 FFF7FEFF 		bl	__aeabi_dmul
 715 035a 0246     		mov	r2, r0
 716 035c 0B46     		mov	r3, r1
 717              		.loc 1 105 16
 718 035e DDE91801 		ldrd	r0, [sp, #96]
 719 0362 FFF7FEFF 		bl	__aeabi_ddiv
 720 0366 0246     		mov	r2, r0
 721 0368 0B46     		mov	r3, r1
 722 036a CDE90E23 		strd	r2, [sp, #56]
 723              		.loc 1 106 31
 724 036e DDE92401 		ldrd	r0, [sp, #144]
 725 0372 0246     		mov	r2, r0
 726 0374 0B46     		mov	r3, r1
 727 0376 FFF7FEFF 		bl	__aeabi_dadd
 728 037a 0246     		mov	r2, r0
 729 037c 0B46     		mov	r3, r1
 730 037e 1046     		mov	r0, r2
 731 0380 1946     		mov	r1, r3
 732              		.loc 1 106 36
 733 0382 DDE92423 		ldrd	r2, [sp, #144]
 734 0386 FFF7FEFF 		bl	__aeabi_dmul
 735 038a 0246     		mov	r2, r0
 736 038c 0B46     		mov	r3, r1
 737 038e 1046     		mov	r0, r2
 738 0390 1946     		mov	r1, r3
 739              		.loc 1 106 41
 740 0392 DDE90E23 		ldrd	r2, [sp, #56]
 741 0396 FFF7FEFF 		bl	__aeabi_dmul
ARM GAS  /tmp/cceVa9lb.s 			page 14


 742 039a 0246     		mov	r2, r0
 743 039c 0B46     		mov	r3, r1
 744 039e 1046     		mov	r0, r2
 745 03a0 1946     		mov	r1, r3
 746              		.loc 1 106 20
 747 03a2 4FF00002 		mov	r2, #0
 748 03a6 A54B     		ldr	r3, .L7+4
 749 03a8 FFF7FEFF 		bl	__aeabi_dadd
 750 03ac 0246     		mov	r2, r0
 751 03ae 0B46     		mov	r3, r1
 752 03b0 1046     		mov	r0, r2
 753 03b2 1946     		mov	r1, r3
 754 03b4 FFF7FEFF 		bl	sqrt
 755 03b8 CDE90C01 		strd	r0, [sp, #48]
 756              		.loc 1 107 26
 757 03bc DDE90E23 		ldrd	r2, [sp, #56]
 758 03c0 DDE92401 		ldrd	r0, [sp, #144]
 759 03c4 FFF7FEFF 		bl	__aeabi_dmul
 760 03c8 0246     		mov	r2, r0
 761 03ca 0B46     		mov	r3, r1
 762 03cc 1046     		mov	r0, r2
 763 03ce 1946     		mov	r1, r3
 764              		.loc 1 107 30
 765 03d0 DDE91A23 		ldrd	r2, [sp, #104]
 766 03d4 FFF7FEFF 		bl	__aeabi_dmul
 767 03d8 0246     		mov	r2, r0
 768 03da 0B46     		mov	r3, r1
 769              		.loc 1 107 21
 770 03dc 1446     		mov	r4, r2
 771 03de 83F00045 		eor	r5, r3, #-2147483648
 772              		.loc 1 107 40
 773 03e2 4FF00002 		mov	r2, #0
 774 03e6 954B     		ldr	r3, .L7+4
 775 03e8 DDE90C01 		ldrd	r0, [sp, #48]
 776 03ec FFF7FEFF 		bl	__aeabi_dadd
 777 03f0 0246     		mov	r2, r0
 778 03f2 0B46     		mov	r3, r1
 779              		.loc 1 107 35
 780 03f4 2046     		mov	r0, r4
 781 03f6 2946     		mov	r1, r5
 782 03f8 FFF7FEFF 		bl	__aeabi_ddiv
 783 03fc 0246     		mov	r2, r0
 784 03fe 0B46     		mov	r3, r1
 785 0400 1446     		mov	r4, r2
 786 0402 1D46     		mov	r5, r3
 787              		.loc 1 107 55
 788 0404 8E4B     		ldr	r3, .L7+8
 789 0406 D3E90001 		ldrd	r0, [r3]
 790 040a 8D4B     		ldr	r3, .L7+8
 791 040c D3E90023 		ldrd	r2, [r3]
 792 0410 FFF7FEFF 		bl	__aeabi_dmul
 793 0414 0246     		mov	r2, r0
 794 0416 0B46     		mov	r3, r1
 795 0418 1046     		mov	r0, r2
 796 041a 1946     		mov	r1, r3
 797              		.loc 1 107 59
 798 041c 4FF00002 		mov	r2, #0
ARM GAS  /tmp/cceVa9lb.s 			page 15


 799 0420 4FF08043 		mov	r3, #1073741824
 800 0424 FFF7FEFF 		bl	__aeabi_ddiv
 801 0428 0246     		mov	r2, r0
 802 042a 0B46     		mov	r3, r1
 803 042c 1646     		mov	r6, r2
 804 042e 1F46     		mov	r7, r3
 805              		.loc 1 107 73
 806 0430 DDE90C23 		ldrd	r2, [sp, #48]
 807 0434 4FF00000 		mov	r0, #0
 808 0438 8049     		ldr	r1, .L7+4
 809 043a FFF7FEFF 		bl	__aeabi_ddiv
 810 043e 0246     		mov	r2, r0
 811 0440 0B46     		mov	r3, r1
 812 0442 1046     		mov	r0, r2
 813 0444 1946     		mov	r1, r3
 814              		.loc 1 107 69
 815 0446 4FF00002 		mov	r2, #0
 816 044a 7C4B     		ldr	r3, .L7+4
 817 044c FFF7FEFF 		bl	__aeabi_dadd
 818 0450 0246     		mov	r2, r0
 819 0452 0B46     		mov	r3, r1
 820              		.loc 1 107 64
 821 0454 3046     		mov	r0, r6
 822 0456 3946     		mov	r1, r7
 823 0458 FFF7FEFF 		bl	__aeabi_dmul
 824 045c 0246     		mov	r2, r0
 825 045e 0B46     		mov	r3, r1
 826 0460 1646     		mov	r6, r2
 827 0462 1F46     		mov	r7, r3
 828              		.loc 1 107 84
 829 0464 DDE92423 		ldrd	r2, [sp, #144]
 830 0468 4FF00000 		mov	r0, #0
 831 046c 7349     		ldr	r1, .L7+4
 832 046e FFF7FEFF 		bl	__aeabi_dsub
 833 0472 0246     		mov	r2, r0
 834 0474 0B46     		mov	r3, r1
 835 0476 1046     		mov	r0, r2
 836 0478 1946     		mov	r1, r3
 837              		.loc 1 107 90
 838 047a DDE90E23 		ldrd	r2, [sp, #56]
 839 047e FFF7FEFF 		bl	__aeabi_dmul
 840 0482 0246     		mov	r2, r0
 841 0484 0B46     		mov	r3, r1
 842 0486 1046     		mov	r0, r2
 843 0488 1946     		mov	r1, r3
 844              		.loc 1 107 94
 845 048a DDE91E23 		ldrd	r2, [sp, #120]
 846 048e FFF7FEFF 		bl	__aeabi_dmul
 847 0492 0246     		mov	r2, r0
 848 0494 0B46     		mov	r3, r1
 849 0496 9046     		mov	r8, r2
 850 0498 9946     		mov	r9, r3
 851              		.loc 1 108 24
 852 049a 4FF00002 		mov	r2, #0
 853 049e 674B     		ldr	r3, .L7+4
 854 04a0 DDE90C01 		ldrd	r0, [sp, #48]
 855 04a4 FFF7FEFF 		bl	__aeabi_dadd
ARM GAS  /tmp/cceVa9lb.s 			page 16


 856 04a8 0246     		mov	r2, r0
 857 04aa 0B46     		mov	r3, r1
 858 04ac 1046     		mov	r0, r2
 859 04ae 1946     		mov	r1, r3
 860              		.loc 1 107 105
 861 04b0 DDE90C23 		ldrd	r2, [sp, #48]
 862 04b4 FFF7FEFF 		bl	__aeabi_dmul
 863 04b8 0246     		mov	r2, r0
 864 04ba 0B46     		mov	r3, r1
 865              		.loc 1 107 100
 866 04bc 4046     		mov	r0, r8
 867 04be 4946     		mov	r1, r9
 868 04c0 FFF7FEFF 		bl	__aeabi_ddiv
 869 04c4 0246     		mov	r2, r0
 870 04c6 0B46     		mov	r3, r1
 871              		.loc 1 107 78
 872 04c8 3046     		mov	r0, r6
 873 04ca 3946     		mov	r1, r7
 874 04cc FFF7FEFF 		bl	__aeabi_dsub
 875 04d0 0246     		mov	r2, r0
 876 04d2 0B46     		mov	r3, r1
 877 04d4 1646     		mov	r6, r2
 878 04d6 1F46     		mov	r7, r3
 879              		.loc 1 108 34
 880 04d8 DDE91C23 		ldrd	r2, [sp, #112]
 881 04dc DDE90E01 		ldrd	r0, [sp, #56]
 882 04e0 FFF7FEFF 		bl	__aeabi_dmul
 883 04e4 0246     		mov	r2, r0
 884 04e6 0B46     		mov	r3, r1
 885 04e8 1046     		mov	r0, r2
 886 04ea 1946     		mov	r1, r3
 887              		.loc 1 108 39
 888 04ec 4FF00002 		mov	r2, #0
 889 04f0 4FF08043 		mov	r3, #1073741824
 890 04f4 FFF7FEFF 		bl	__aeabi_ddiv
 891 04f8 0246     		mov	r2, r0
 892 04fa 0B46     		mov	r3, r1
 893              		.loc 1 107 47
 894 04fc 3046     		mov	r0, r6
 895 04fe 3946     		mov	r1, r7
 896 0500 FFF7FEFF 		bl	__aeabi_dsub
 897 0504 0246     		mov	r2, r0
 898 0506 0B46     		mov	r3, r1
 899 0508 1046     		mov	r0, r2
 900 050a 1946     		mov	r1, r3
 901 050c FFF7FEFF 		bl	sqrt
 902 0510 0246     		mov	r2, r0
 903 0512 0B46     		mov	r3, r1
 904              		.loc 1 107 16
 905 0514 2046     		mov	r0, r4
 906 0516 2946     		mov	r1, r5
 907 0518 FFF7FEFF 		bl	__aeabi_dadd
 908 051c 0246     		mov	r2, r0
 909 051e 0B46     		mov	r3, r1
 910 0520 CDE90A23 		strd	r2, [sp, #40]
 911              		.loc 1 109 30
 912 0524 DDE90A23 		ldrd	r2, [sp, #40]
ARM GAS  /tmp/cceVa9lb.s 			page 17


 913 0528 DDE92401 		ldrd	r0, [sp, #144]
 914 052c FFF7FEFF 		bl	__aeabi_dmul
 915 0530 0246     		mov	r2, r0
 916 0532 0B46     		mov	r3, r1
 917              		.loc 1 109 25
 918 0534 DDE91A01 		ldrd	r0, [sp, #104]
 919 0538 FFF7FEFF 		bl	__aeabi_dsub
 920 053c 0246     		mov	r2, r0
 921 053e 0B46     		mov	r3, r1
 922 0540 1446     		mov	r4, r2
 923 0542 1D46     		mov	r5, r3
 924              		.loc 1 109 46
 925 0544 DDE90A23 		ldrd	r2, [sp, #40]
 926 0548 DDE92401 		ldrd	r0, [sp, #144]
 927 054c FFF7FEFF 		bl	__aeabi_dmul
 928 0550 0246     		mov	r2, r0
 929 0552 0B46     		mov	r3, r1
 930              		.loc 1 109 41
 931 0554 DDE91A01 		ldrd	r0, [sp, #104]
 932 0558 FFF7FEFF 		bl	__aeabi_dsub
 933 055c 0246     		mov	r2, r0
 934 055e 0B46     		mov	r3, r1
 935              		.loc 1 109 16
 936 0560 2046     		mov	r0, r4
 937 0562 2946     		mov	r1, r5
 938 0564 FFF7FEFF 		bl	__aeabi_dmul
 939 0568 0246     		mov	r2, r0
 940 056a 0B46     		mov	r3, r1
 941 056c CDE90823 		strd	r2, [sp, #32]
 942              		.loc 1 110 20
 943 0570 DDE91E23 		ldrd	r2, [sp, #120]
 944 0574 DDE90801 		ldrd	r0, [sp, #32]
 945 0578 FFF7FEFF 		bl	__aeabi_dadd
 946 057c 0246     		mov	r2, r0
 947 057e 0B46     		mov	r3, r1
 948 0580 1046     		mov	r0, r2
 949 0582 1946     		mov	r1, r3
 950 0584 FFF7FEFF 		bl	sqrt
 951 0588 CDE90601 		strd	r0, [sp, #24]
 952              		.loc 1 111 34
 953 058c DDE92423 		ldrd	r2, [sp, #144]
 954 0590 4FF00000 		mov	r0, #0
 955 0594 2949     		ldr	r1, .L7+4
 956 0596 FFF7FEFF 		bl	__aeabi_dsub
 957 059a 0246     		mov	r2, r0
 958 059c 0B46     		mov	r3, r1
 959 059e 1046     		mov	r0, r2
 960 05a0 1946     		mov	r1, r3
 961              		.loc 1 111 40
 962 05a2 DDE91E23 		ldrd	r2, [sp, #120]
 963 05a6 FFF7FEFF 		bl	__aeabi_dmul
 964 05aa 0246     		mov	r2, r0
 965 05ac 0B46     		mov	r3, r1
 966 05ae 1046     		mov	r0, r2
 967 05b0 1946     		mov	r1, r3
 968              		.loc 1 111 20
 969 05b2 DDE90823 		ldrd	r2, [sp, #32]
ARM GAS  /tmp/cceVa9lb.s 			page 18


 970 05b6 FFF7FEFF 		bl	__aeabi_dadd
 971 05ba 0246     		mov	r2, r0
 972 05bc 0B46     		mov	r3, r1
 973 05be 1046     		mov	r0, r2
 974 05c0 1946     		mov	r1, r3
 975 05c2 FFF7FEFF 		bl	sqrt
 976 05c6 CDE90401 		strd	r0, [sp, #16]
 977              		.loc 1 112 31
 978 05ca 009B     		ldr	r3, [sp]
 979 05cc D3E90401 		ldrd	r0, [r3, #16]
 980              		.loc 1 112 25
 981 05d0 DDE92623 		ldrd	r2, [sp, #152]
 982 05d4 FFF7FEFF 		bl	__aeabi_dmul
 983 05d8 0246     		mov	r2, r0
 984 05da 0B46     		mov	r3, r1
 985 05dc 1446     		mov	r4, r2
 986 05de 1D46     		mov	r5, r3
 987              		.loc 1 112 41
 988 05e0 174B     		ldr	r3, .L7+8
 989 05e2 D3E90001 		ldrd	r0, [r3]
 990 05e6 DDE90423 		ldrd	r2, [sp, #16]
 991 05ea FFF7FEFF 		bl	__aeabi_dmul
 992 05ee 0246     		mov	r2, r0
 993 05f0 0B46     		mov	r3, r1
 994              		.loc 1 112 16
 995 05f2 2046     		mov	r0, r4
 996 05f4 2946     		mov	r1, r5
 997 05f6 FFF7FEFF 		bl	__aeabi_ddiv
 998 05fa 0246     		mov	r2, r0
 999 05fc 0B46     		mov	r3, r1
 1000 05fe CDE90223 		strd	r2, [sp, #8]
 1001              		.loc 1 114 31
 1002 0602 0F4B     		ldr	r3, .L7+8
 1003 0604 D3E90001 		ldrd	r0, [r3]
 1004 0608 DDE90423 		ldrd	r2, [sp, #16]
 1005 060c FFF7FEFF 		bl	__aeabi_dmul
 1006 0610 0246     		mov	r2, r0
 1007 0612 0B46     		mov	r3, r1
 1008              		.loc 1 114 26
 1009 0614 DDE92601 		ldrd	r0, [sp, #152]
 1010 0618 FFF7FEFF 		bl	__aeabi_ddiv
 1011 061c 0246     		mov	r2, r0
 1012 061e 0B46     		mov	r3, r1
 1013              		.loc 1 114 21
 1014 0620 4FF00000 		mov	r0, #0
 1015 0624 0549     		ldr	r1, .L7+4
 1016 0626 FFF7FEFF 		bl	__aeabi_dsub
 1017 062a 0246     		mov	r2, r0
 1018 062c 0B46     		mov	r3, r1
 1019 062e 1046     		mov	r0, r2
 1020 0630 1946     		mov	r1, r3
 1021              		.loc 1 114 16
 1022 0632 DDE90623 		ldrd	r2, [sp, #24]
 1023 0636 05E0     		b	.L8
 1024              	.L9:
 1025              		.align	2
 1026              	.L7:
ARM GAS  /tmp/cceVa9lb.s 			page 19


 1027 0638 00000840 		.word	1074266112
 1028 063c 0000F03F 		.word	1072693248
 1029 0640 00000000 		.word	a.2
 1030              	.L8:
 1031 0644 FFF7FEFF 		bl	__aeabi_dmul
 1032 0648 0246     		mov	r2, r0
 1033 064a 0B46     		mov	r3, r1
 1034              		.loc 1 114 12
 1035 064c 0199     		ldr	r1, [sp, #4]
 1036 064e C1E90423 		strd	r2, [r1, #16]
 1037              		.loc 1 115 24
 1038 0652 009B     		ldr	r3, [sp]
 1039 0654 D3E90445 		ldrd	r4, [r3, #16]
 1040              		.loc 1 115 34
 1041 0658 DDE90223 		ldrd	r2, [sp, #8]
 1042 065c DDE92201 		ldrd	r0, [sp, #136]
 1043 0660 FFF7FEFF 		bl	__aeabi_dmul
 1044 0664 0246     		mov	r2, r0
 1045 0666 0B46     		mov	r3, r1
 1046              		.loc 1 115 28
 1047 0668 2046     		mov	r0, r4
 1048 066a 2946     		mov	r1, r5
 1049 066c FFF7FEFF 		bl	__aeabi_dadd
 1050 0670 0246     		mov	r2, r0
 1051 0672 0B46     		mov	r3, r1
 1052 0674 1046     		mov	r0, r2
 1053 0676 1946     		mov	r1, r3
 1054              		.loc 1 115 14
 1055 0678 DDE91A23 		ldrd	r2, [sp, #104]
 1056 067c FFF7FEFF 		bl	__aeabi_ddiv
 1057 0680 0246     		mov	r2, r0
 1058 0682 0B46     		mov	r3, r1
 1059 0684 1046     		mov	r0, r2
 1060 0686 1946     		mov	r1, r3
 1061 0688 FFF7FEFF 		bl	atan
 1062 068c 0246     		mov	r2, r0
 1063 068e 0B46     		mov	r3, r1
 1064              		.loc 1 115 12
 1065 0690 0199     		ldr	r1, [sp, #4]
 1066 0692 C1E90023 		strd	r2, [r1]
 1067              		.loc 1 116 14
 1068 0696 009B     		ldr	r3, [sp]
 1069 0698 D3E90201 		ldrd	r0, [r3, #8]
 1070 069c 009B     		ldr	r3, [sp]
 1071 069e D3E90023 		ldrd	r2, [r3]
 1072 06a2 FFF7FEFF 		bl	atan2
 1073 06a6 0246     		mov	r2, r0
 1074 06a8 0B46     		mov	r3, r1
 1075              		.loc 1 116 12
 1076 06aa 0199     		ldr	r1, [sp, #4]
 1077 06ac C1E90223 		strd	r2, [r1, #8]
 1078              		.loc 1 118 1
 1079 06b0 00BF     		nop
 1080 06b2 2BB0     		add	sp, sp, #172
 1081              		.cfi_def_cfa_offset 28
 1082              		@ sp needed
 1083 06b4 BDE8F083 		pop	{r4, r5, r6, r7, r8, r9, pc}
ARM GAS  /tmp/cceVa9lb.s 			page 20


 1084              		.cfi_endproc
 1085              	.LFE54:
 1086              		.size	lla_of_ecef_d, .-lla_of_ecef_d
 1087              		.section	.text.ecef_of_lla_d,"ax",%progbits
 1088              		.align	1
 1089              		.p2align 4,,15
 1090              		.global	ecef_of_lla_d
 1091              		.syntax unified
 1092              		.thumb
 1093              		.thumb_func
 1094              		.fpu fpv4-sp-d16
 1095              		.type	ecef_of_lla_d, %function
 1096              	ecef_of_lla_d:
 1097              	.LFB55:
 1098              		.loc 1 121 1
 1099              		.cfi_startproc
 1100              		@ args = 0, pretend = 0, frame = 64
 1101              		@ frame_needed = 0, uses_anonymous_args = 0
 1102 0000 30B5     		push	{r4, r5, lr}
 1103              		.cfi_def_cfa_offset 12
 1104              		.cfi_offset 4, -12
 1105              		.cfi_offset 5, -8
 1106              		.cfi_offset 14, -4
 1107 0002 91B0     		sub	sp, sp, #68
 1108              		.cfi_def_cfa_offset 80
 1109 0004 0190     		str	r0, [sp, #4]
 1110 0006 0091     		str	r1, [sp]
 1111              		.loc 1 126 23
 1112 0008 644B     		ldr	r3, .L11
 1113 000a D3E90001 		ldrd	r0, [r3]
 1114 000e 0246     		mov	r2, r0
 1115 0010 0B46     		mov	r3, r1
 1116 0012 FFF7FEFF 		bl	__aeabi_dadd
 1117 0016 0246     		mov	r2, r0
 1118 0018 0B46     		mov	r3, r1
 1119 001a 1446     		mov	r4, r2
 1120 001c 1D46     		mov	r5, r3
 1121              		.loc 1 126 31
 1122 001e 5F4B     		ldr	r3, .L11
 1123 0020 D3E90001 		ldrd	r0, [r3]
 1124 0024 5D4B     		ldr	r3, .L11
 1125 0026 D3E90023 		ldrd	r2, [r3]
 1126 002a FFF7FEFF 		bl	__aeabi_dmul
 1127 002e 0246     		mov	r2, r0
 1128 0030 0B46     		mov	r3, r1
 1129              		.loc 1 126 16
 1130 0032 2046     		mov	r0, r4
 1131 0034 2946     		mov	r1, r5
 1132 0036 FFF7FEFF 		bl	__aeabi_dsub
 1133 003a 0246     		mov	r2, r0
 1134 003c 0B46     		mov	r3, r1
 1135 003e CDE90E23 		strd	r2, [sp, #56]
 1136              		.loc 1 128 26
 1137 0042 009B     		ldr	r3, [sp]
 1138 0044 D3E90023 		ldrd	r2, [r3]
 1139 0048 1046     		mov	r0, r2
 1140 004a 1946     		mov	r1, r3
ARM GAS  /tmp/cceVa9lb.s 			page 21


 1141 004c FFF7FEFF 		bl	sin
 1142 0050 CDE90C01 		strd	r0, [sp, #48]
 1143              		.loc 1 129 26
 1144 0054 009B     		ldr	r3, [sp]
 1145 0056 D3E90023 		ldrd	r2, [r3]
 1146 005a 1046     		mov	r0, r2
 1147 005c 1946     		mov	r1, r3
 1148 005e FFF7FEFF 		bl	cos
 1149 0062 CDE90A01 		strd	r0, [sp, #40]
 1150              		.loc 1 130 26
 1151 0066 009B     		ldr	r3, [sp]
 1152 0068 D3E90223 		ldrd	r2, [r3, #8]
 1153 006c 1046     		mov	r0, r2
 1154 006e 1946     		mov	r1, r3
 1155 0070 FFF7FEFF 		bl	sin
 1156 0074 CDE90801 		strd	r0, [sp, #32]
 1157              		.loc 1 131 26
 1158 0078 009B     		ldr	r3, [sp]
 1159 007a D3E90223 		ldrd	r2, [r3, #8]
 1160 007e 1046     		mov	r0, r2
 1161 0080 1946     		mov	r1, r3
 1162 0082 FFF7FEFF 		bl	cos
 1163 0086 CDE90601 		strd	r0, [sp, #24]
 1164              		.loc 1 132 35
 1165 008a DDE90C23 		ldrd	r2, [sp, #48]
 1166 008e DDE90E01 		ldrd	r0, [sp, #56]
 1167 0092 FFF7FEFF 		bl	__aeabi_dmul
 1168 0096 0246     		mov	r2, r0
 1169 0098 0B46     		mov	r3, r1
 1170 009a 1046     		mov	r0, r2
 1171 009c 1946     		mov	r1, r3
 1172              		.loc 1 132 45
 1173 009e DDE90C23 		ldrd	r2, [sp, #48]
 1174 00a2 FFF7FEFF 		bl	__aeabi_dmul
 1175 00a6 0246     		mov	r2, r0
 1176 00a8 0B46     		mov	r3, r1
 1177              		.loc 1 132 22
 1178 00aa 4FF00000 		mov	r0, #0
 1179 00ae 3C49     		ldr	r1, .L11+4
 1180 00b0 FFF7FEFF 		bl	__aeabi_dsub
 1181 00b4 0246     		mov	r2, r0
 1182 00b6 0B46     		mov	r3, r1
 1183 00b8 1046     		mov	r0, r2
 1184 00ba 1946     		mov	r1, r3
 1185 00bc FFF7FEFF 		bl	sqrt
 1186 00c0 CDE90401 		strd	r0, [sp, #16]
 1187              		.loc 1 133 26
 1188 00c4 374B     		ldr	r3, .L11+8
 1189 00c6 D3E90001 		ldrd	r0, [r3]
 1190              		.loc 1 133 16
 1191 00ca DDE90423 		ldrd	r2, [sp, #16]
 1192 00ce FFF7FEFF 		bl	__aeabi_ddiv
 1193 00d2 0246     		mov	r2, r0
 1194 00d4 0B46     		mov	r3, r1
 1195 00d6 CDE90223 		strd	r2, [sp, #8]
 1196              		.loc 1 135 25
 1197 00da 009B     		ldr	r3, [sp]
ARM GAS  /tmp/cceVa9lb.s 			page 22


 1198 00dc D3E90401 		ldrd	r0, [r3, #16]
 1199              		.loc 1 135 20
 1200 00e0 DDE90223 		ldrd	r2, [sp, #8]
 1201 00e4 FFF7FEFF 		bl	__aeabi_dadd
 1202 00e8 0246     		mov	r2, r0
 1203 00ea 0B46     		mov	r3, r1
 1204 00ec 1046     		mov	r0, r2
 1205 00ee 1946     		mov	r1, r3
 1206              		.loc 1 135 32
 1207 00f0 DDE90A23 		ldrd	r2, [sp, #40]
 1208 00f4 FFF7FEFF 		bl	__aeabi_dmul
 1209 00f8 0246     		mov	r2, r0
 1210 00fa 0B46     		mov	r3, r1
 1211 00fc 1046     		mov	r0, r2
 1212 00fe 1946     		mov	r1, r3
 1213              		.loc 1 135 42
 1214 0100 DDE90623 		ldrd	r2, [sp, #24]
 1215 0104 FFF7FEFF 		bl	__aeabi_dmul
 1216 0108 0246     		mov	r2, r0
 1217 010a 0B46     		mov	r3, r1
 1218              		.loc 1 135 11
 1219 010c 0199     		ldr	r1, [sp, #4]
 1220 010e C1E90023 		strd	r2, [r1]
 1221              		.loc 1 136 25
 1222 0112 009B     		ldr	r3, [sp]
 1223 0114 D3E90401 		ldrd	r0, [r3, #16]
 1224              		.loc 1 136 20
 1225 0118 DDE90223 		ldrd	r2, [sp, #8]
 1226 011c FFF7FEFF 		bl	__aeabi_dadd
 1227 0120 0246     		mov	r2, r0
 1228 0122 0B46     		mov	r3, r1
 1229 0124 1046     		mov	r0, r2
 1230 0126 1946     		mov	r1, r3
 1231              		.loc 1 136 32
 1232 0128 DDE90A23 		ldrd	r2, [sp, #40]
 1233 012c FFF7FEFF 		bl	__aeabi_dmul
 1234 0130 0246     		mov	r2, r0
 1235 0132 0B46     		mov	r3, r1
 1236 0134 1046     		mov	r0, r2
 1237 0136 1946     		mov	r1, r3
 1238              		.loc 1 136 42
 1239 0138 DDE90823 		ldrd	r2, [sp, #32]
 1240 013c FFF7FEFF 		bl	__aeabi_dmul
 1241 0140 0246     		mov	r2, r0
 1242 0142 0B46     		mov	r3, r1
 1243              		.loc 1 136 11
 1244 0144 0199     		ldr	r1, [sp, #4]
 1245 0146 C1E90223 		strd	r2, [r1, #8]
 1246              		.loc 1 137 26
 1247 014a DDE90E23 		ldrd	r2, [sp, #56]
 1248 014e 4FF00000 		mov	r0, #0
 1249 0152 1349     		ldr	r1, .L11+4
 1250 0154 FFF7FEFF 		bl	__aeabi_dsub
 1251 0158 0246     		mov	r2, r0
 1252 015a 0B46     		mov	r3, r1
 1253 015c 1046     		mov	r0, r2
 1254 015e 1946     		mov	r1, r3
ARM GAS  /tmp/cceVa9lb.s 			page 23


 1255              		.loc 1 137 20
 1256 0160 DDE90223 		ldrd	r2, [sp, #8]
 1257 0164 FFF7FEFF 		bl	__aeabi_dmul
 1258 0168 0246     		mov	r2, r0
 1259 016a 0B46     		mov	r3, r1
 1260 016c 1046     		mov	r0, r2
 1261 016e 1946     		mov	r1, r3
 1262              		.loc 1 137 37
 1263 0170 009B     		ldr	r3, [sp]
 1264 0172 D3E90423 		ldrd	r2, [r3, #16]
 1265              		.loc 1 137 32
 1266 0176 FFF7FEFF 		bl	__aeabi_dadd
 1267 017a 0246     		mov	r2, r0
 1268 017c 0B46     		mov	r3, r1
 1269 017e 1046     		mov	r0, r2
 1270 0180 1946     		mov	r1, r3
 1271              		.loc 1 137 44
 1272 0182 DDE90C23 		ldrd	r2, [sp, #48]
 1273 0186 FFF7FEFF 		bl	__aeabi_dmul
 1274 018a 0246     		mov	r2, r0
 1275 018c 0B46     		mov	r3, r1
 1276              		.loc 1 137 11
 1277 018e 0199     		ldr	r1, [sp, #4]
 1278 0190 C1E90423 		strd	r2, [r1, #16]
 1279              		.loc 1 138 1
 1280 0194 00BF     		nop
 1281 0196 11B0     		add	sp, sp, #68
 1282              		.cfi_def_cfa_offset 12
 1283              		@ sp needed
 1284 0198 30BD     		pop	{r4, r5, pc}
 1285              	.L12:
 1286 019a 00BF     		.align	2
 1287              	.L11:
 1288 019c 00000000 		.word	f.1
 1289 01a0 0000F03F 		.word	1072693248
 1290 01a4 00000000 		.word	a.0
 1291              		.cfi_endproc
 1292              	.LFE55:
 1293              		.size	ecef_of_lla_d, .-ecef_of_lla_d
 1294              		.section	.text.enu_of_ecef_point_d,"ax",%progbits
 1295              		.align	1
 1296              		.p2align 4,,15
 1297              		.global	enu_of_ecef_point_d
 1298              		.syntax unified
 1299              		.thumb
 1300              		.thumb_func
 1301              		.fpu fpv4-sp-d16
 1302              		.type	enu_of_ecef_point_d, %function
 1303              	enu_of_ecef_point_d:
 1304              	.LFB56:
 1305              		.loc 1 141 1
 1306              		.cfi_startproc
 1307              		@ args = 0, pretend = 0, frame = 40
 1308              		@ frame_needed = 0, uses_anonymous_args = 0
 1309 0000 30B5     		push	{r4, r5, lr}
 1310              		.cfi_def_cfa_offset 12
 1311              		.cfi_offset 4, -12
ARM GAS  /tmp/cceVa9lb.s 			page 24


 1312              		.cfi_offset 5, -8
 1313              		.cfi_offset 14, -4
 1314 0002 8BB0     		sub	sp, sp, #44
 1315              		.cfi_def_cfa_offset 56
 1316 0004 0390     		str	r0, [sp, #12]
 1317 0006 0291     		str	r1, [sp, #8]
 1318 0008 0192     		str	r2, [sp, #4]
 1319              		.loc 1 143 3
 1320 000a 019B     		ldr	r3, [sp, #4]
 1321 000c D3E90001 		ldrd	r0, [r3]
 1322 0010 029B     		ldr	r3, [sp, #8]
 1323 0012 D3E90023 		ldrd	r2, [r3]
 1324 0016 FFF7FEFF 		bl	__aeabi_dsub
 1325 001a 0246     		mov	r2, r0
 1326 001c 0B46     		mov	r3, r1
 1327 001e CDE90423 		strd	r2, [sp, #16]
 1328 0022 019B     		ldr	r3, [sp, #4]
 1329 0024 D3E90201 		ldrd	r0, [r3, #8]
 1330 0028 029B     		ldr	r3, [sp, #8]
 1331 002a D3E90223 		ldrd	r2, [r3, #8]
 1332 002e FFF7FEFF 		bl	__aeabi_dsub
 1333 0032 0246     		mov	r2, r0
 1334 0034 0B46     		mov	r3, r1
 1335 0036 CDE90623 		strd	r2, [sp, #24]
 1336 003a 019B     		ldr	r3, [sp, #4]
 1337 003c D3E90401 		ldrd	r0, [r3, #16]
 1338 0040 029B     		ldr	r3, [sp, #8]
 1339 0042 D3E90423 		ldrd	r2, [r3, #16]
 1340 0046 FFF7FEFF 		bl	__aeabi_dsub
 1341 004a 0246     		mov	r2, r0
 1342 004c 0B46     		mov	r3, r1
 1343 004e CDE90823 		strd	r2, [sp, #32]
 1344              		.loc 1 144 3
 1345 0052 029B     		ldr	r3, [sp, #8]
 1346 0054 D3E90C01 		ldrd	r0, [r3, #48]
 1347 0058 DDE90423 		ldrd	r2, [sp, #16]
 1348 005c FFF7FEFF 		bl	__aeabi_dmul
 1349 0060 0246     		mov	r2, r0
 1350 0062 0B46     		mov	r3, r1
 1351 0064 1446     		mov	r4, r2
 1352 0066 1D46     		mov	r5, r3
 1353 0068 029B     		ldr	r3, [sp, #8]
 1354 006a D3E90E01 		ldrd	r0, [r3, #56]
 1355 006e DDE90623 		ldrd	r2, [sp, #24]
 1356 0072 FFF7FEFF 		bl	__aeabi_dmul
 1357 0076 0246     		mov	r2, r0
 1358 0078 0B46     		mov	r3, r1
 1359 007a 2046     		mov	r0, r4
 1360 007c 2946     		mov	r1, r5
 1361 007e FFF7FEFF 		bl	__aeabi_dadd
 1362 0082 0246     		mov	r2, r0
 1363 0084 0B46     		mov	r3, r1
 1364 0086 1446     		mov	r4, r2
 1365 0088 1D46     		mov	r5, r3
 1366 008a 029B     		ldr	r3, [sp, #8]
 1367 008c D3E91001 		ldrd	r0, [r3, #64]
 1368 0090 DDE90823 		ldrd	r2, [sp, #32]
ARM GAS  /tmp/cceVa9lb.s 			page 25


 1369 0094 FFF7FEFF 		bl	__aeabi_dmul
 1370 0098 0246     		mov	r2, r0
 1371 009a 0B46     		mov	r3, r1
 1372 009c 2046     		mov	r0, r4
 1373 009e 2946     		mov	r1, r5
 1374 00a0 FFF7FEFF 		bl	__aeabi_dadd
 1375 00a4 0246     		mov	r2, r0
 1376 00a6 0B46     		mov	r3, r1
 1377 00a8 0399     		ldr	r1, [sp, #12]
 1378 00aa C1E90023 		strd	r2, [r1]
 1379 00ae 029B     		ldr	r3, [sp, #8]
 1380 00b0 D3E91201 		ldrd	r0, [r3, #72]
 1381 00b4 DDE90423 		ldrd	r2, [sp, #16]
 1382 00b8 FFF7FEFF 		bl	__aeabi_dmul
 1383 00bc 0246     		mov	r2, r0
 1384 00be 0B46     		mov	r3, r1
 1385 00c0 1446     		mov	r4, r2
 1386 00c2 1D46     		mov	r5, r3
 1387 00c4 029B     		ldr	r3, [sp, #8]
 1388 00c6 D3E91401 		ldrd	r0, [r3, #80]
 1389 00ca DDE90623 		ldrd	r2, [sp, #24]
 1390 00ce FFF7FEFF 		bl	__aeabi_dmul
 1391 00d2 0246     		mov	r2, r0
 1392 00d4 0B46     		mov	r3, r1
 1393 00d6 2046     		mov	r0, r4
 1394 00d8 2946     		mov	r1, r5
 1395 00da FFF7FEFF 		bl	__aeabi_dadd
 1396 00de 0246     		mov	r2, r0
 1397 00e0 0B46     		mov	r3, r1
 1398 00e2 1446     		mov	r4, r2
 1399 00e4 1D46     		mov	r5, r3
 1400 00e6 029B     		ldr	r3, [sp, #8]
 1401 00e8 D3E91601 		ldrd	r0, [r3, #88]
 1402 00ec DDE90823 		ldrd	r2, [sp, #32]
 1403 00f0 FFF7FEFF 		bl	__aeabi_dmul
 1404 00f4 0246     		mov	r2, r0
 1405 00f6 0B46     		mov	r3, r1
 1406 00f8 2046     		mov	r0, r4
 1407 00fa 2946     		mov	r1, r5
 1408 00fc FFF7FEFF 		bl	__aeabi_dadd
 1409 0100 0246     		mov	r2, r0
 1410 0102 0B46     		mov	r3, r1
 1411 0104 0399     		ldr	r1, [sp, #12]
 1412 0106 C1E90223 		strd	r2, [r1, #8]
 1413 010a 029B     		ldr	r3, [sp, #8]
 1414 010c D3E91801 		ldrd	r0, [r3, #96]
 1415 0110 DDE90423 		ldrd	r2, [sp, #16]
 1416 0114 FFF7FEFF 		bl	__aeabi_dmul
 1417 0118 0246     		mov	r2, r0
 1418 011a 0B46     		mov	r3, r1
 1419 011c 1446     		mov	r4, r2
 1420 011e 1D46     		mov	r5, r3
 1421 0120 029B     		ldr	r3, [sp, #8]
 1422 0122 D3E91A01 		ldrd	r0, [r3, #104]
 1423 0126 DDE90623 		ldrd	r2, [sp, #24]
 1424 012a FFF7FEFF 		bl	__aeabi_dmul
 1425 012e 0246     		mov	r2, r0
ARM GAS  /tmp/cceVa9lb.s 			page 26


 1426 0130 0B46     		mov	r3, r1
 1427 0132 2046     		mov	r0, r4
 1428 0134 2946     		mov	r1, r5
 1429 0136 FFF7FEFF 		bl	__aeabi_dadd
 1430 013a 0246     		mov	r2, r0
 1431 013c 0B46     		mov	r3, r1
 1432 013e 1446     		mov	r4, r2
 1433 0140 1D46     		mov	r5, r3
 1434 0142 029B     		ldr	r3, [sp, #8]
 1435 0144 D3E91C01 		ldrd	r0, [r3, #112]
 1436 0148 DDE90823 		ldrd	r2, [sp, #32]
 1437 014c FFF7FEFF 		bl	__aeabi_dmul
 1438 0150 0246     		mov	r2, r0
 1439 0152 0B46     		mov	r3, r1
 1440 0154 2046     		mov	r0, r4
 1441 0156 2946     		mov	r1, r5
 1442 0158 FFF7FEFF 		bl	__aeabi_dadd
 1443 015c 0246     		mov	r2, r0
 1444 015e 0B46     		mov	r3, r1
 1445 0160 0399     		ldr	r1, [sp, #12]
 1446 0162 C1E90423 		strd	r2, [r1, #16]
 1447              		.loc 1 145 1
 1448 0166 00BF     		nop
 1449 0168 0BB0     		add	sp, sp, #44
 1450              		.cfi_def_cfa_offset 12
 1451              		@ sp needed
 1452 016a 30BD     		pop	{r4, r5, pc}
 1453              		.cfi_endproc
 1454              	.LFE56:
 1455              		.size	enu_of_ecef_point_d, .-enu_of_ecef_point_d
 1456              		.section	.text.ned_of_ecef_point_d,"ax",%progbits
 1457              		.align	1
 1458              		.p2align 4,,15
 1459              		.global	ned_of_ecef_point_d
 1460              		.syntax unified
 1461              		.thumb
 1462              		.thumb_func
 1463              		.fpu fpv4-sp-d16
 1464              		.type	ned_of_ecef_point_d, %function
 1465              	ned_of_ecef_point_d:
 1466              	.LFB57:
 1467              		.loc 1 148 1
 1468              		.cfi_startproc
 1469              		@ args = 0, pretend = 0, frame = 40
 1470              		@ frame_needed = 0, uses_anonymous_args = 0
 1471 0000 30B5     		push	{r4, r5, lr}
 1472              		.cfi_def_cfa_offset 12
 1473              		.cfi_offset 4, -12
 1474              		.cfi_offset 5, -8
 1475              		.cfi_offset 14, -4
 1476 0002 8BB0     		sub	sp, sp, #44
 1477              		.cfi_def_cfa_offset 56
 1478 0004 0390     		str	r0, [sp, #12]
 1479 0006 0291     		str	r1, [sp, #8]
 1480 0008 0192     		str	r2, [sp, #4]
 1481              		.loc 1 150 3
 1482 000a 04AB     		add	r3, sp, #16
ARM GAS  /tmp/cceVa9lb.s 			page 27


 1483 000c 019A     		ldr	r2, [sp, #4]
 1484 000e 0299     		ldr	r1, [sp, #8]
 1485 0010 1846     		mov	r0, r3
 1486 0012 FFF7FEFF 		bl	enu_of_ecef_point_d
 1487              		.loc 1 151 3
 1488 0016 DDE90623 		ldrd	r2, [sp, #24]
 1489 001a 0399     		ldr	r1, [sp, #12]
 1490 001c C1E90023 		strd	r2, [r1]
 1491 0020 DDE90423 		ldrd	r2, [sp, #16]
 1492 0024 0399     		ldr	r1, [sp, #12]
 1493 0026 C1E90223 		strd	r2, [r1, #8]
 1494 002a DDE90823 		ldrd	r2, [sp, #32]
 1495 002e 1446     		mov	r4, r2
 1496 0030 83F00045 		eor	r5, r3, #-2147483648
 1497 0034 039B     		ldr	r3, [sp, #12]
 1498 0036 C3E90445 		strd	r4, [r3, #16]
 1499              		.loc 1 152 1
 1500 003a 00BF     		nop
 1501 003c 0BB0     		add	sp, sp, #44
 1502              		.cfi_def_cfa_offset 12
 1503              		@ sp needed
 1504 003e 30BD     		pop	{r4, r5, pc}
 1505              		.cfi_endproc
 1506              	.LFE57:
 1507              		.size	ned_of_ecef_point_d, .-ned_of_ecef_point_d
 1508              		.section	.text.enu_of_ecef_vect_d,"ax",%progbits
 1509              		.align	1
 1510              		.p2align 4,,15
 1511              		.global	enu_of_ecef_vect_d
 1512              		.syntax unified
 1513              		.thumb
 1514              		.thumb_func
 1515              		.fpu fpv4-sp-d16
 1516              		.type	enu_of_ecef_vect_d, %function
 1517              	enu_of_ecef_vect_d:
 1518              	.LFB58:
 1519              		.loc 1 155 1
 1520              		.cfi_startproc
 1521              		@ args = 0, pretend = 0, frame = 16
 1522              		@ frame_needed = 0, uses_anonymous_args = 0
 1523 0000 30B5     		push	{r4, r5, lr}
 1524              		.cfi_def_cfa_offset 12
 1525              		.cfi_offset 4, -12
 1526              		.cfi_offset 5, -8
 1527              		.cfi_offset 14, -4
 1528 0002 85B0     		sub	sp, sp, #20
 1529              		.cfi_def_cfa_offset 32
 1530 0004 0390     		str	r0, [sp, #12]
 1531 0006 0291     		str	r1, [sp, #8]
 1532 0008 0192     		str	r2, [sp, #4]
 1533              		.loc 1 156 3
 1534 000a 029B     		ldr	r3, [sp, #8]
 1535 000c D3E90C01 		ldrd	r0, [r3, #48]
 1536 0010 019B     		ldr	r3, [sp, #4]
 1537 0012 D3E90023 		ldrd	r2, [r3]
 1538 0016 FFF7FEFF 		bl	__aeabi_dmul
 1539 001a 0246     		mov	r2, r0
ARM GAS  /tmp/cceVa9lb.s 			page 28


 1540 001c 0B46     		mov	r3, r1
 1541 001e 1446     		mov	r4, r2
 1542 0020 1D46     		mov	r5, r3
 1543 0022 029B     		ldr	r3, [sp, #8]
 1544 0024 D3E90E01 		ldrd	r0, [r3, #56]
 1545 0028 019B     		ldr	r3, [sp, #4]
 1546 002a D3E90223 		ldrd	r2, [r3, #8]
 1547 002e FFF7FEFF 		bl	__aeabi_dmul
 1548 0032 0246     		mov	r2, r0
 1549 0034 0B46     		mov	r3, r1
 1550 0036 2046     		mov	r0, r4
 1551 0038 2946     		mov	r1, r5
 1552 003a FFF7FEFF 		bl	__aeabi_dadd
 1553 003e 0246     		mov	r2, r0
 1554 0040 0B46     		mov	r3, r1
 1555 0042 1446     		mov	r4, r2
 1556 0044 1D46     		mov	r5, r3
 1557 0046 029B     		ldr	r3, [sp, #8]
 1558 0048 D3E91001 		ldrd	r0, [r3, #64]
 1559 004c 019B     		ldr	r3, [sp, #4]
 1560 004e D3E90423 		ldrd	r2, [r3, #16]
 1561 0052 FFF7FEFF 		bl	__aeabi_dmul
 1562 0056 0246     		mov	r2, r0
 1563 0058 0B46     		mov	r3, r1
 1564 005a 2046     		mov	r0, r4
 1565 005c 2946     		mov	r1, r5
 1566 005e FFF7FEFF 		bl	__aeabi_dadd
 1567 0062 0246     		mov	r2, r0
 1568 0064 0B46     		mov	r3, r1
 1569 0066 0399     		ldr	r1, [sp, #12]
 1570 0068 C1E90023 		strd	r2, [r1]
 1571 006c 029B     		ldr	r3, [sp, #8]
 1572 006e D3E91201 		ldrd	r0, [r3, #72]
 1573 0072 019B     		ldr	r3, [sp, #4]
 1574 0074 D3E90023 		ldrd	r2, [r3]
 1575 0078 FFF7FEFF 		bl	__aeabi_dmul
 1576 007c 0246     		mov	r2, r0
 1577 007e 0B46     		mov	r3, r1
 1578 0080 1446     		mov	r4, r2
 1579 0082 1D46     		mov	r5, r3
 1580 0084 029B     		ldr	r3, [sp, #8]
 1581 0086 D3E91401 		ldrd	r0, [r3, #80]
 1582 008a 019B     		ldr	r3, [sp, #4]
 1583 008c D3E90223 		ldrd	r2, [r3, #8]
 1584 0090 FFF7FEFF 		bl	__aeabi_dmul
 1585 0094 0246     		mov	r2, r0
 1586 0096 0B46     		mov	r3, r1
 1587 0098 2046     		mov	r0, r4
 1588 009a 2946     		mov	r1, r5
 1589 009c FFF7FEFF 		bl	__aeabi_dadd
 1590 00a0 0246     		mov	r2, r0
 1591 00a2 0B46     		mov	r3, r1
 1592 00a4 1446     		mov	r4, r2
 1593 00a6 1D46     		mov	r5, r3
 1594 00a8 029B     		ldr	r3, [sp, #8]
 1595 00aa D3E91601 		ldrd	r0, [r3, #88]
 1596 00ae 019B     		ldr	r3, [sp, #4]
ARM GAS  /tmp/cceVa9lb.s 			page 29


 1597 00b0 D3E90423 		ldrd	r2, [r3, #16]
 1598 00b4 FFF7FEFF 		bl	__aeabi_dmul
 1599 00b8 0246     		mov	r2, r0
 1600 00ba 0B46     		mov	r3, r1
 1601 00bc 2046     		mov	r0, r4
 1602 00be 2946     		mov	r1, r5
 1603 00c0 FFF7FEFF 		bl	__aeabi_dadd
 1604 00c4 0246     		mov	r2, r0
 1605 00c6 0B46     		mov	r3, r1
 1606 00c8 0399     		ldr	r1, [sp, #12]
 1607 00ca C1E90223 		strd	r2, [r1, #8]
 1608 00ce 029B     		ldr	r3, [sp, #8]
 1609 00d0 D3E91801 		ldrd	r0, [r3, #96]
 1610 00d4 019B     		ldr	r3, [sp, #4]
 1611 00d6 D3E90023 		ldrd	r2, [r3]
 1612 00da FFF7FEFF 		bl	__aeabi_dmul
 1613 00de 0246     		mov	r2, r0
 1614 00e0 0B46     		mov	r3, r1
 1615 00e2 1446     		mov	r4, r2
 1616 00e4 1D46     		mov	r5, r3
 1617 00e6 029B     		ldr	r3, [sp, #8]
 1618 00e8 D3E91A01 		ldrd	r0, [r3, #104]
 1619 00ec 019B     		ldr	r3, [sp, #4]
 1620 00ee D3E90223 		ldrd	r2, [r3, #8]
 1621 00f2 FFF7FEFF 		bl	__aeabi_dmul
 1622 00f6 0246     		mov	r2, r0
 1623 00f8 0B46     		mov	r3, r1
 1624 00fa 2046     		mov	r0, r4
 1625 00fc 2946     		mov	r1, r5
 1626 00fe FFF7FEFF 		bl	__aeabi_dadd
 1627 0102 0246     		mov	r2, r0
 1628 0104 0B46     		mov	r3, r1
 1629 0106 1446     		mov	r4, r2
 1630 0108 1D46     		mov	r5, r3
 1631 010a 029B     		ldr	r3, [sp, #8]
 1632 010c D3E91C01 		ldrd	r0, [r3, #112]
 1633 0110 019B     		ldr	r3, [sp, #4]
 1634 0112 D3E90423 		ldrd	r2, [r3, #16]
 1635 0116 FFF7FEFF 		bl	__aeabi_dmul
 1636 011a 0246     		mov	r2, r0
 1637 011c 0B46     		mov	r3, r1
 1638 011e 2046     		mov	r0, r4
 1639 0120 2946     		mov	r1, r5
 1640 0122 FFF7FEFF 		bl	__aeabi_dadd
 1641 0126 0246     		mov	r2, r0
 1642 0128 0B46     		mov	r3, r1
 1643 012a 0399     		ldr	r1, [sp, #12]
 1644 012c C1E90423 		strd	r2, [r1, #16]
 1645              		.loc 1 157 1
 1646 0130 00BF     		nop
 1647 0132 05B0     		add	sp, sp, #20
 1648              		.cfi_def_cfa_offset 12
 1649              		@ sp needed
 1650 0134 30BD     		pop	{r4, r5, pc}
 1651              		.cfi_endproc
 1652              	.LFE58:
 1653              		.size	enu_of_ecef_vect_d, .-enu_of_ecef_vect_d
ARM GAS  /tmp/cceVa9lb.s 			page 30


 1654 0136 00BF     		.section	.text.ned_of_ecef_vect_d,"ax",%progbits
 1655              		.align	1
 1656              		.p2align 4,,15
 1657              		.global	ned_of_ecef_vect_d
 1658              		.syntax unified
 1659              		.thumb
 1660              		.thumb_func
 1661              		.fpu fpv4-sp-d16
 1662              		.type	ned_of_ecef_vect_d, %function
 1663              	ned_of_ecef_vect_d:
 1664              	.LFB59:
 1665              		.loc 1 160 1
 1666              		.cfi_startproc
 1667              		@ args = 0, pretend = 0, frame = 40
 1668              		@ frame_needed = 0, uses_anonymous_args = 0
 1669 0000 30B5     		push	{r4, r5, lr}
 1670              		.cfi_def_cfa_offset 12
 1671              		.cfi_offset 4, -12
 1672              		.cfi_offset 5, -8
 1673              		.cfi_offset 14, -4
 1674 0002 8BB0     		sub	sp, sp, #44
 1675              		.cfi_def_cfa_offset 56
 1676 0004 0390     		str	r0, [sp, #12]
 1677 0006 0291     		str	r1, [sp, #8]
 1678 0008 0192     		str	r2, [sp, #4]
 1679              		.loc 1 162 3
 1680 000a 04AB     		add	r3, sp, #16
 1681 000c 019A     		ldr	r2, [sp, #4]
 1682 000e 0299     		ldr	r1, [sp, #8]
 1683 0010 1846     		mov	r0, r3
 1684 0012 FFF7FEFF 		bl	enu_of_ecef_vect_d
 1685              		.loc 1 163 3
 1686 0016 DDE90623 		ldrd	r2, [sp, #24]
 1687 001a 0399     		ldr	r1, [sp, #12]
 1688 001c C1E90023 		strd	r2, [r1]
 1689 0020 DDE90423 		ldrd	r2, [sp, #16]
 1690 0024 0399     		ldr	r1, [sp, #12]
 1691 0026 C1E90223 		strd	r2, [r1, #8]
 1692 002a DDE90823 		ldrd	r2, [sp, #32]
 1693 002e 1446     		mov	r4, r2
 1694 0030 83F00045 		eor	r5, r3, #-2147483648
 1695 0034 039B     		ldr	r3, [sp, #12]
 1696 0036 C3E90445 		strd	r4, [r3, #16]
 1697              		.loc 1 164 1
 1698 003a 00BF     		nop
 1699 003c 0BB0     		add	sp, sp, #44
 1700              		.cfi_def_cfa_offset 12
 1701              		@ sp needed
 1702 003e 30BD     		pop	{r4, r5, pc}
 1703              		.cfi_endproc
 1704              	.LFE59:
 1705              		.size	ned_of_ecef_vect_d, .-ned_of_ecef_vect_d
 1706              		.section	.text.ecef_of_enu_point_d,"ax",%progbits
 1707              		.align	1
 1708              		.p2align 4,,15
 1709              		.global	ecef_of_enu_point_d
 1710              		.syntax unified
ARM GAS  /tmp/cceVa9lb.s 			page 31


 1711              		.thumb
 1712              		.thumb_func
 1713              		.fpu fpv4-sp-d16
 1714              		.type	ecef_of_enu_point_d, %function
 1715              	ecef_of_enu_point_d:
 1716              	.LFB60:
 1717              		.loc 1 169 1
 1718              		.cfi_startproc
 1719              		@ args = 0, pretend = 0, frame = 16
 1720              		@ frame_needed = 0, uses_anonymous_args = 0
 1721 0000 30B5     		push	{r4, r5, lr}
 1722              		.cfi_def_cfa_offset 12
 1723              		.cfi_offset 4, -12
 1724              		.cfi_offset 5, -8
 1725              		.cfi_offset 14, -4
 1726 0002 85B0     		sub	sp, sp, #20
 1727              		.cfi_def_cfa_offset 32
 1728 0004 0390     		str	r0, [sp, #12]
 1729 0006 0291     		str	r1, [sp, #8]
 1730 0008 0192     		str	r2, [sp, #4]
 1731              		.loc 1 170 3
 1732 000a 029B     		ldr	r3, [sp, #8]
 1733 000c D3E90C01 		ldrd	r0, [r3, #48]
 1734 0010 019B     		ldr	r3, [sp, #4]
 1735 0012 D3E90023 		ldrd	r2, [r3]
 1736 0016 FFF7FEFF 		bl	__aeabi_dmul
 1737 001a 0246     		mov	r2, r0
 1738 001c 0B46     		mov	r3, r1
 1739 001e 1446     		mov	r4, r2
 1740 0020 1D46     		mov	r5, r3
 1741 0022 029B     		ldr	r3, [sp, #8]
 1742 0024 D3E91201 		ldrd	r0, [r3, #72]
 1743 0028 019B     		ldr	r3, [sp, #4]
 1744 002a D3E90223 		ldrd	r2, [r3, #8]
 1745 002e FFF7FEFF 		bl	__aeabi_dmul
 1746 0032 0246     		mov	r2, r0
 1747 0034 0B46     		mov	r3, r1
 1748 0036 2046     		mov	r0, r4
 1749 0038 2946     		mov	r1, r5
 1750 003a FFF7FEFF 		bl	__aeabi_dadd
 1751 003e 0246     		mov	r2, r0
 1752 0040 0B46     		mov	r3, r1
 1753 0042 1446     		mov	r4, r2
 1754 0044 1D46     		mov	r5, r3
 1755 0046 029B     		ldr	r3, [sp, #8]
 1756 0048 D3E91801 		ldrd	r0, [r3, #96]
 1757 004c 019B     		ldr	r3, [sp, #4]
 1758 004e D3E90423 		ldrd	r2, [r3, #16]
 1759 0052 FFF7FEFF 		bl	__aeabi_dmul
 1760 0056 0246     		mov	r2, r0
 1761 0058 0B46     		mov	r3, r1
 1762 005a 2046     		mov	r0, r4
 1763 005c 2946     		mov	r1, r5
 1764 005e FFF7FEFF 		bl	__aeabi_dadd
 1765 0062 0246     		mov	r2, r0
 1766 0064 0B46     		mov	r3, r1
 1767 0066 0399     		ldr	r1, [sp, #12]
ARM GAS  /tmp/cceVa9lb.s 			page 32


 1768 0068 C1E90023 		strd	r2, [r1]
 1769 006c 029B     		ldr	r3, [sp, #8]
 1770 006e D3E90E01 		ldrd	r0, [r3, #56]
 1771 0072 019B     		ldr	r3, [sp, #4]
 1772 0074 D3E90023 		ldrd	r2, [r3]
 1773 0078 FFF7FEFF 		bl	__aeabi_dmul
 1774 007c 0246     		mov	r2, r0
 1775 007e 0B46     		mov	r3, r1
 1776 0080 1446     		mov	r4, r2
 1777 0082 1D46     		mov	r5, r3
 1778 0084 029B     		ldr	r3, [sp, #8]
 1779 0086 D3E91401 		ldrd	r0, [r3, #80]
 1780 008a 019B     		ldr	r3, [sp, #4]
 1781 008c D3E90223 		ldrd	r2, [r3, #8]
 1782 0090 FFF7FEFF 		bl	__aeabi_dmul
 1783 0094 0246     		mov	r2, r0
 1784 0096 0B46     		mov	r3, r1
 1785 0098 2046     		mov	r0, r4
 1786 009a 2946     		mov	r1, r5
 1787 009c FFF7FEFF 		bl	__aeabi_dadd
 1788 00a0 0246     		mov	r2, r0
 1789 00a2 0B46     		mov	r3, r1
 1790 00a4 1446     		mov	r4, r2
 1791 00a6 1D46     		mov	r5, r3
 1792 00a8 029B     		ldr	r3, [sp, #8]
 1793 00aa D3E91A01 		ldrd	r0, [r3, #104]
 1794 00ae 019B     		ldr	r3, [sp, #4]
 1795 00b0 D3E90423 		ldrd	r2, [r3, #16]
 1796 00b4 FFF7FEFF 		bl	__aeabi_dmul
 1797 00b8 0246     		mov	r2, r0
 1798 00ba 0B46     		mov	r3, r1
 1799 00bc 2046     		mov	r0, r4
 1800 00be 2946     		mov	r1, r5
 1801 00c0 FFF7FEFF 		bl	__aeabi_dadd
 1802 00c4 0246     		mov	r2, r0
 1803 00c6 0B46     		mov	r3, r1
 1804 00c8 0399     		ldr	r1, [sp, #12]
 1805 00ca C1E90223 		strd	r2, [r1, #8]
 1806 00ce 029B     		ldr	r3, [sp, #8]
 1807 00d0 D3E91001 		ldrd	r0, [r3, #64]
 1808 00d4 019B     		ldr	r3, [sp, #4]
 1809 00d6 D3E90023 		ldrd	r2, [r3]
 1810 00da FFF7FEFF 		bl	__aeabi_dmul
 1811 00de 0246     		mov	r2, r0
 1812 00e0 0B46     		mov	r3, r1
 1813 00e2 1446     		mov	r4, r2
 1814 00e4 1D46     		mov	r5, r3
 1815 00e6 029B     		ldr	r3, [sp, #8]
 1816 00e8 D3E91601 		ldrd	r0, [r3, #88]
 1817 00ec 019B     		ldr	r3, [sp, #4]
 1818 00ee D3E90223 		ldrd	r2, [r3, #8]
 1819 00f2 FFF7FEFF 		bl	__aeabi_dmul
 1820 00f6 0246     		mov	r2, r0
 1821 00f8 0B46     		mov	r3, r1
 1822 00fa 2046     		mov	r0, r4
 1823 00fc 2946     		mov	r1, r5
 1824 00fe FFF7FEFF 		bl	__aeabi_dadd
ARM GAS  /tmp/cceVa9lb.s 			page 33


 1825 0102 0246     		mov	r2, r0
 1826 0104 0B46     		mov	r3, r1
 1827 0106 1446     		mov	r4, r2
 1828 0108 1D46     		mov	r5, r3
 1829 010a 029B     		ldr	r3, [sp, #8]
 1830 010c D3E91C01 		ldrd	r0, [r3, #112]
 1831 0110 019B     		ldr	r3, [sp, #4]
 1832 0112 D3E90423 		ldrd	r2, [r3, #16]
 1833 0116 FFF7FEFF 		bl	__aeabi_dmul
 1834 011a 0246     		mov	r2, r0
 1835 011c 0B46     		mov	r3, r1
 1836 011e 2046     		mov	r0, r4
 1837 0120 2946     		mov	r1, r5
 1838 0122 FFF7FEFF 		bl	__aeabi_dadd
 1839 0126 0246     		mov	r2, r0
 1840 0128 0B46     		mov	r3, r1
 1841 012a 0399     		ldr	r1, [sp, #12]
 1842 012c C1E90423 		strd	r2, [r1, #16]
 1843              		.loc 1 171 3
 1844 0130 039B     		ldr	r3, [sp, #12]
 1845 0132 D3E90001 		ldrd	r0, [r3]
 1846 0136 029B     		ldr	r3, [sp, #8]
 1847 0138 D3E90023 		ldrd	r2, [r3]
 1848 013c FFF7FEFF 		bl	__aeabi_dadd
 1849 0140 0246     		mov	r2, r0
 1850 0142 0B46     		mov	r3, r1
 1851 0144 0399     		ldr	r1, [sp, #12]
 1852 0146 C1E90023 		strd	r2, [r1]
 1853 014a 039B     		ldr	r3, [sp, #12]
 1854 014c D3E90201 		ldrd	r0, [r3, #8]
 1855 0150 029B     		ldr	r3, [sp, #8]
 1856 0152 D3E90223 		ldrd	r2, [r3, #8]
 1857 0156 FFF7FEFF 		bl	__aeabi_dadd
 1858 015a 0246     		mov	r2, r0
 1859 015c 0B46     		mov	r3, r1
 1860 015e 0399     		ldr	r1, [sp, #12]
 1861 0160 C1E90223 		strd	r2, [r1, #8]
 1862 0164 039B     		ldr	r3, [sp, #12]
 1863 0166 D3E90401 		ldrd	r0, [r3, #16]
 1864 016a 029B     		ldr	r3, [sp, #8]
 1865 016c D3E90423 		ldrd	r2, [r3, #16]
 1866 0170 FFF7FEFF 		bl	__aeabi_dadd
 1867 0174 0246     		mov	r2, r0
 1868 0176 0B46     		mov	r3, r1
 1869 0178 0399     		ldr	r1, [sp, #12]
 1870 017a C1E90423 		strd	r2, [r1, #16]
 1871              		.loc 1 172 1
 1872 017e 00BF     		nop
 1873 0180 05B0     		add	sp, sp, #20
 1874              		.cfi_def_cfa_offset 12
 1875              		@ sp needed
 1876 0182 30BD     		pop	{r4, r5, pc}
 1877              		.cfi_endproc
 1878              	.LFE60:
 1879              		.size	ecef_of_enu_point_d, .-ecef_of_enu_point_d
 1880              		.section	.text.ecef_of_ned_point_d,"ax",%progbits
 1881              		.align	1
ARM GAS  /tmp/cceVa9lb.s 			page 34


 1882              		.p2align 4,,15
 1883              		.global	ecef_of_ned_point_d
 1884              		.syntax unified
 1885              		.thumb
 1886              		.thumb_func
 1887              		.fpu fpv4-sp-d16
 1888              		.type	ecef_of_ned_point_d, %function
 1889              	ecef_of_ned_point_d:
 1890              	.LFB61:
 1891              		.loc 1 175 1
 1892              		.cfi_startproc
 1893              		@ args = 0, pretend = 0, frame = 40
 1894              		@ frame_needed = 0, uses_anonymous_args = 0
 1895 0000 30B5     		push	{r4, r5, lr}
 1896              		.cfi_def_cfa_offset 12
 1897              		.cfi_offset 4, -12
 1898              		.cfi_offset 5, -8
 1899              		.cfi_offset 14, -4
 1900 0002 8BB0     		sub	sp, sp, #44
 1901              		.cfi_def_cfa_offset 56
 1902 0004 0390     		str	r0, [sp, #12]
 1903 0006 0291     		str	r1, [sp, #8]
 1904 0008 0192     		str	r2, [sp, #4]
 1905              		.loc 1 177 3
 1906 000a 019B     		ldr	r3, [sp, #4]
 1907 000c D3E90223 		ldrd	r2, [r3, #8]
 1908 0010 CDE90423 		strd	r2, [sp, #16]
 1909 0014 019B     		ldr	r3, [sp, #4]
 1910 0016 D3E90023 		ldrd	r2, [r3]
 1911 001a CDE90623 		strd	r2, [sp, #24]
 1912 001e 019B     		ldr	r3, [sp, #4]
 1913 0020 D3E90423 		ldrd	r2, [r3, #16]
 1914 0024 1446     		mov	r4, r2
 1915 0026 83F00045 		eor	r5, r3, #-2147483648
 1916 002a CDE90845 		strd	r4, [sp, #32]
 1917              		.loc 1 178 3
 1918 002e 04AB     		add	r3, sp, #16
 1919 0030 1A46     		mov	r2, r3
 1920 0032 0299     		ldr	r1, [sp, #8]
 1921 0034 0398     		ldr	r0, [sp, #12]
 1922 0036 FFF7FEFF 		bl	ecef_of_enu_point_d
 1923              		.loc 1 179 1
 1924 003a 00BF     		nop
 1925 003c 0BB0     		add	sp, sp, #44
 1926              		.cfi_def_cfa_offset 12
 1927              		@ sp needed
 1928 003e 30BD     		pop	{r4, r5, pc}
 1929              		.cfi_endproc
 1930              	.LFE61:
 1931              		.size	ecef_of_ned_point_d, .-ecef_of_ned_point_d
 1932              		.section	.text.ecef_of_enu_vect_d,"ax",%progbits
 1933              		.align	1
 1934              		.p2align 4,,15
 1935              		.global	ecef_of_enu_vect_d
 1936              		.syntax unified
 1937              		.thumb
 1938              		.thumb_func
ARM GAS  /tmp/cceVa9lb.s 			page 35


 1939              		.fpu fpv4-sp-d16
 1940              		.type	ecef_of_enu_vect_d, %function
 1941              	ecef_of_enu_vect_d:
 1942              	.LFB62:
 1943              		.loc 1 182 1
 1944              		.cfi_startproc
 1945              		@ args = 0, pretend = 0, frame = 16
 1946              		@ frame_needed = 0, uses_anonymous_args = 0
 1947 0000 30B5     		push	{r4, r5, lr}
 1948              		.cfi_def_cfa_offset 12
 1949              		.cfi_offset 4, -12
 1950              		.cfi_offset 5, -8
 1951              		.cfi_offset 14, -4
 1952 0002 85B0     		sub	sp, sp, #20
 1953              		.cfi_def_cfa_offset 32
 1954 0004 0390     		str	r0, [sp, #12]
 1955 0006 0291     		str	r1, [sp, #8]
 1956 0008 0192     		str	r2, [sp, #4]
 1957              		.loc 1 183 3
 1958 000a 029B     		ldr	r3, [sp, #8]
 1959 000c D3E90C01 		ldrd	r0, [r3, #48]
 1960 0010 019B     		ldr	r3, [sp, #4]
 1961 0012 D3E90023 		ldrd	r2, [r3]
 1962 0016 FFF7FEFF 		bl	__aeabi_dmul
 1963 001a 0246     		mov	r2, r0
 1964 001c 0B46     		mov	r3, r1
 1965 001e 1446     		mov	r4, r2
 1966 0020 1D46     		mov	r5, r3
 1967 0022 029B     		ldr	r3, [sp, #8]
 1968 0024 D3E91201 		ldrd	r0, [r3, #72]
 1969 0028 019B     		ldr	r3, [sp, #4]
 1970 002a D3E90223 		ldrd	r2, [r3, #8]
 1971 002e FFF7FEFF 		bl	__aeabi_dmul
 1972 0032 0246     		mov	r2, r0
 1973 0034 0B46     		mov	r3, r1
 1974 0036 2046     		mov	r0, r4
 1975 0038 2946     		mov	r1, r5
 1976 003a FFF7FEFF 		bl	__aeabi_dadd
 1977 003e 0246     		mov	r2, r0
 1978 0040 0B46     		mov	r3, r1
 1979 0042 1446     		mov	r4, r2
 1980 0044 1D46     		mov	r5, r3
 1981 0046 029B     		ldr	r3, [sp, #8]
 1982 0048 D3E91801 		ldrd	r0, [r3, #96]
 1983 004c 019B     		ldr	r3, [sp, #4]
 1984 004e D3E90423 		ldrd	r2, [r3, #16]
 1985 0052 FFF7FEFF 		bl	__aeabi_dmul
 1986 0056 0246     		mov	r2, r0
 1987 0058 0B46     		mov	r3, r1
 1988 005a 2046     		mov	r0, r4
 1989 005c 2946     		mov	r1, r5
 1990 005e FFF7FEFF 		bl	__aeabi_dadd
 1991 0062 0246     		mov	r2, r0
 1992 0064 0B46     		mov	r3, r1
 1993 0066 0399     		ldr	r1, [sp, #12]
 1994 0068 C1E90023 		strd	r2, [r1]
 1995 006c 029B     		ldr	r3, [sp, #8]
ARM GAS  /tmp/cceVa9lb.s 			page 36


 1996 006e D3E90E01 		ldrd	r0, [r3, #56]
 1997 0072 019B     		ldr	r3, [sp, #4]
 1998 0074 D3E90023 		ldrd	r2, [r3]
 1999 0078 FFF7FEFF 		bl	__aeabi_dmul
 2000 007c 0246     		mov	r2, r0
 2001 007e 0B46     		mov	r3, r1
 2002 0080 1446     		mov	r4, r2
 2003 0082 1D46     		mov	r5, r3
 2004 0084 029B     		ldr	r3, [sp, #8]
 2005 0086 D3E91401 		ldrd	r0, [r3, #80]
 2006 008a 019B     		ldr	r3, [sp, #4]
 2007 008c D3E90223 		ldrd	r2, [r3, #8]
 2008 0090 FFF7FEFF 		bl	__aeabi_dmul
 2009 0094 0246     		mov	r2, r0
 2010 0096 0B46     		mov	r3, r1
 2011 0098 2046     		mov	r0, r4
 2012 009a 2946     		mov	r1, r5
 2013 009c FFF7FEFF 		bl	__aeabi_dadd
 2014 00a0 0246     		mov	r2, r0
 2015 00a2 0B46     		mov	r3, r1
 2016 00a4 1446     		mov	r4, r2
 2017 00a6 1D46     		mov	r5, r3
 2018 00a8 029B     		ldr	r3, [sp, #8]
 2019 00aa D3E91A01 		ldrd	r0, [r3, #104]
 2020 00ae 019B     		ldr	r3, [sp, #4]
 2021 00b0 D3E90423 		ldrd	r2, [r3, #16]
 2022 00b4 FFF7FEFF 		bl	__aeabi_dmul
 2023 00b8 0246     		mov	r2, r0
 2024 00ba 0B46     		mov	r3, r1
 2025 00bc 2046     		mov	r0, r4
 2026 00be 2946     		mov	r1, r5
 2027 00c0 FFF7FEFF 		bl	__aeabi_dadd
 2028 00c4 0246     		mov	r2, r0
 2029 00c6 0B46     		mov	r3, r1
 2030 00c8 0399     		ldr	r1, [sp, #12]
 2031 00ca C1E90223 		strd	r2, [r1, #8]
 2032 00ce 029B     		ldr	r3, [sp, #8]
 2033 00d0 D3E91001 		ldrd	r0, [r3, #64]
 2034 00d4 019B     		ldr	r3, [sp, #4]
 2035 00d6 D3E90023 		ldrd	r2, [r3]
 2036 00da FFF7FEFF 		bl	__aeabi_dmul
 2037 00de 0246     		mov	r2, r0
 2038 00e0 0B46     		mov	r3, r1
 2039 00e2 1446     		mov	r4, r2
 2040 00e4 1D46     		mov	r5, r3
 2041 00e6 029B     		ldr	r3, [sp, #8]
 2042 00e8 D3E91601 		ldrd	r0, [r3, #88]
 2043 00ec 019B     		ldr	r3, [sp, #4]
 2044 00ee D3E90223 		ldrd	r2, [r3, #8]
 2045 00f2 FFF7FEFF 		bl	__aeabi_dmul
 2046 00f6 0246     		mov	r2, r0
 2047 00f8 0B46     		mov	r3, r1
 2048 00fa 2046     		mov	r0, r4
 2049 00fc 2946     		mov	r1, r5
 2050 00fe FFF7FEFF 		bl	__aeabi_dadd
 2051 0102 0246     		mov	r2, r0
 2052 0104 0B46     		mov	r3, r1
ARM GAS  /tmp/cceVa9lb.s 			page 37


 2053 0106 1446     		mov	r4, r2
 2054 0108 1D46     		mov	r5, r3
 2055 010a 029B     		ldr	r3, [sp, #8]
 2056 010c D3E91C01 		ldrd	r0, [r3, #112]
 2057 0110 019B     		ldr	r3, [sp, #4]
 2058 0112 D3E90423 		ldrd	r2, [r3, #16]
 2059 0116 FFF7FEFF 		bl	__aeabi_dmul
 2060 011a 0246     		mov	r2, r0
 2061 011c 0B46     		mov	r3, r1
 2062 011e 2046     		mov	r0, r4
 2063 0120 2946     		mov	r1, r5
 2064 0122 FFF7FEFF 		bl	__aeabi_dadd
 2065 0126 0246     		mov	r2, r0
 2066 0128 0B46     		mov	r3, r1
 2067 012a 0399     		ldr	r1, [sp, #12]
 2068 012c C1E90423 		strd	r2, [r1, #16]
 2069              		.loc 1 184 1
 2070 0130 00BF     		nop
 2071 0132 05B0     		add	sp, sp, #20
 2072              		.cfi_def_cfa_offset 12
 2073              		@ sp needed
 2074 0134 30BD     		pop	{r4, r5, pc}
 2075              		.cfi_endproc
 2076              	.LFE62:
 2077              		.size	ecef_of_enu_vect_d, .-ecef_of_enu_vect_d
 2078 0136 00BF     		.section	.text.ecef_of_ned_vect_d,"ax",%progbits
 2079              		.align	1
 2080              		.p2align 4,,15
 2081              		.global	ecef_of_ned_vect_d
 2082              		.syntax unified
 2083              		.thumb
 2084              		.thumb_func
 2085              		.fpu fpv4-sp-d16
 2086              		.type	ecef_of_ned_vect_d, %function
 2087              	ecef_of_ned_vect_d:
 2088              	.LFB63:
 2089              		.loc 1 187 1
 2090              		.cfi_startproc
 2091              		@ args = 0, pretend = 0, frame = 40
 2092              		@ frame_needed = 0, uses_anonymous_args = 0
 2093 0000 30B5     		push	{r4, r5, lr}
 2094              		.cfi_def_cfa_offset 12
 2095              		.cfi_offset 4, -12
 2096              		.cfi_offset 5, -8
 2097              		.cfi_offset 14, -4
 2098 0002 8BB0     		sub	sp, sp, #44
 2099              		.cfi_def_cfa_offset 56
 2100 0004 0390     		str	r0, [sp, #12]
 2101 0006 0291     		str	r1, [sp, #8]
 2102 0008 0192     		str	r2, [sp, #4]
 2103              		.loc 1 189 3
 2104 000a 019B     		ldr	r3, [sp, #4]
 2105 000c D3E90223 		ldrd	r2, [r3, #8]
 2106 0010 CDE90423 		strd	r2, [sp, #16]
 2107 0014 019B     		ldr	r3, [sp, #4]
 2108 0016 D3E90023 		ldrd	r2, [r3]
 2109 001a CDE90623 		strd	r2, [sp, #24]
ARM GAS  /tmp/cceVa9lb.s 			page 38


 2110 001e 019B     		ldr	r3, [sp, #4]
 2111 0020 D3E90423 		ldrd	r2, [r3, #16]
 2112 0024 1446     		mov	r4, r2
 2113 0026 83F00045 		eor	r5, r3, #-2147483648
 2114 002a CDE90845 		strd	r4, [sp, #32]
 2115              		.loc 1 190 3
 2116 002e 04AB     		add	r3, sp, #16
 2117 0030 1A46     		mov	r2, r3
 2118 0032 0299     		ldr	r1, [sp, #8]
 2119 0034 0398     		ldr	r0, [sp, #12]
 2120 0036 FFF7FEFF 		bl	ecef_of_enu_vect_d
 2121              		.loc 1 191 1
 2122 003a 00BF     		nop
 2123 003c 0BB0     		add	sp, sp, #44
 2124              		.cfi_def_cfa_offset 12
 2125              		@ sp needed
 2126 003e 30BD     		pop	{r4, r5, pc}
 2127              		.cfi_endproc
 2128              	.LFE63:
 2129              		.size	ecef_of_ned_vect_d, .-ecef_of_ned_vect_d
 2130              		.section	.text.enu_of_lla_point_d,"ax",%progbits
 2131              		.align	1
 2132              		.p2align 4,,15
 2133              		.global	enu_of_lla_point_d
 2134              		.syntax unified
 2135              		.thumb
 2136              		.thumb_func
 2137              		.fpu fpv4-sp-d16
 2138              		.type	enu_of_lla_point_d, %function
 2139              	enu_of_lla_point_d:
 2140              	.LFB64:
 2141              		.loc 1 195 1
 2142              		.cfi_startproc
 2143              		@ args = 0, pretend = 0, frame = 40
 2144              		@ frame_needed = 0, uses_anonymous_args = 0
 2145 0000 00B5     		push	{lr}
 2146              		.cfi_def_cfa_offset 4
 2147              		.cfi_offset 14, -4
 2148 0002 8BB0     		sub	sp, sp, #44
 2149              		.cfi_def_cfa_offset 48
 2150 0004 0390     		str	r0, [sp, #12]
 2151 0006 0291     		str	r1, [sp, #8]
 2152 0008 0192     		str	r2, [sp, #4]
 2153              		.loc 1 197 3
 2154 000a 04AB     		add	r3, sp, #16
 2155 000c 0199     		ldr	r1, [sp, #4]
 2156 000e 1846     		mov	r0, r3
 2157 0010 FFF7FEFF 		bl	ecef_of_lla_d
 2158              		.loc 1 198 3
 2159 0014 04AB     		add	r3, sp, #16
 2160 0016 1A46     		mov	r2, r3
 2161 0018 0299     		ldr	r1, [sp, #8]
 2162 001a 0398     		ldr	r0, [sp, #12]
 2163 001c FFF7FEFF 		bl	enu_of_ecef_point_d
 2164              		.loc 1 199 1
 2165 0020 00BF     		nop
 2166 0022 0BB0     		add	sp, sp, #44
ARM GAS  /tmp/cceVa9lb.s 			page 39


 2167              		.cfi_def_cfa_offset 4
 2168              		@ sp needed
 2169 0024 5DF804FB 		ldr	pc, [sp], #4
 2170              		.cfi_endproc
 2171              	.LFE64:
 2172              		.size	enu_of_lla_point_d, .-enu_of_lla_point_d
 2173              		.section	.text.ned_of_lla_point_d,"ax",%progbits
 2174              		.align	1
 2175              		.p2align 4,,15
 2176              		.global	ned_of_lla_point_d
 2177              		.syntax unified
 2178              		.thumb
 2179              		.thumb_func
 2180              		.fpu fpv4-sp-d16
 2181              		.type	ned_of_lla_point_d, %function
 2182              	ned_of_lla_point_d:
 2183              	.LFB65:
 2184              		.loc 1 202 1
 2185              		.cfi_startproc
 2186              		@ args = 0, pretend = 0, frame = 40
 2187              		@ frame_needed = 0, uses_anonymous_args = 0
 2188 0000 00B5     		push	{lr}
 2189              		.cfi_def_cfa_offset 4
 2190              		.cfi_offset 14, -4
 2191 0002 8BB0     		sub	sp, sp, #44
 2192              		.cfi_def_cfa_offset 48
 2193 0004 0390     		str	r0, [sp, #12]
 2194 0006 0291     		str	r1, [sp, #8]
 2195 0008 0192     		str	r2, [sp, #4]
 2196              		.loc 1 204 3
 2197 000a 04AB     		add	r3, sp, #16
 2198 000c 0199     		ldr	r1, [sp, #4]
 2199 000e 1846     		mov	r0, r3
 2200 0010 FFF7FEFF 		bl	ecef_of_lla_d
 2201              		.loc 1 205 3
 2202 0014 04AB     		add	r3, sp, #16
 2203 0016 1A46     		mov	r2, r3
 2204 0018 0299     		ldr	r1, [sp, #8]
 2205 001a 0398     		ldr	r0, [sp, #12]
 2206 001c FFF7FEFF 		bl	ned_of_ecef_point_d
 2207              		.loc 1 206 1
 2208 0020 00BF     		nop
 2209 0022 0BB0     		add	sp, sp, #44
 2210              		.cfi_def_cfa_offset 4
 2211              		@ sp needed
 2212 0024 5DF804FB 		ldr	pc, [sp], #4
 2213              		.cfi_endproc
 2214              	.LFE65:
 2215              		.size	ned_of_lla_point_d, .-ned_of_lla_point_d
 2216              		.section	.text.gc_of_gd_lat_d,"ax",%progbits
 2217              		.align	1
 2218              		.p2align 4,,15
 2219              		.global	gc_of_gd_lat_d
 2220              		.syntax unified
 2221              		.thumb
 2222              		.thumb_func
 2223              		.fpu fpv4-sp-d16
ARM GAS  /tmp/cceVa9lb.s 			page 40


 2224              		.type	gc_of_gd_lat_d, %function
 2225              	gc_of_gd_lat_d:
 2226              	.LFB66:
 2227              		.loc 1 211 1
 2228              		.cfi_startproc
 2229              		@ args = 0, pretend = 0, frame = 48
 2230              		@ frame_needed = 0, uses_anonymous_args = 0
 2231 0000 F0B5     		push	{r4, r5, r6, r7, lr}
 2232              		.cfi_def_cfa_offset 20
 2233              		.cfi_offset 4, -20
 2234              		.cfi_offset 5, -16
 2235              		.cfi_offset 6, -12
 2236              		.cfi_offset 7, -8
 2237              		.cfi_offset 14, -4
 2238 0002 8DB0     		sub	sp, sp, #52
 2239              		.cfi_def_cfa_offset 72
 2240 0004 CDE90201 		strd	r0, [sp, #8]
 2241 0008 CDE90023 		strd	r2, [sp]
 2242              		.loc 1 212 16
 2243 000c 3DA3     		adr	r3, .L25+4
 2244 000e D3E90023 		ldrd	r2, [r3]
 2245 0012 CDE90A23 		strd	r2, [sp, #40]
 2246              		.loc 1 213 16
 2247 0016 3DA3     		adr	r3, .L25+12
 2248 0018 D3E90023 		ldrd	r2, [r3]
 2249 001c CDE90823 		strd	r2, [sp, #32]
 2250              		.loc 1 214 25
 2251 0020 DDE90823 		ldrd	r2, [sp, #32]
 2252 0024 4FF00000 		mov	r0, #0
 2253 0028 3549     		ldr	r1, .L25
 2254 002a FFF7FEFF 		bl	__aeabi_dsub
 2255 002e 0246     		mov	r2, r0
 2256 0030 0B46     		mov	r3, r1
 2257 0032 1446     		mov	r4, r2
 2258 0034 1D46     		mov	r5, r3
 2259              		.loc 1 214 36
 2260 0036 DDE90823 		ldrd	r2, [sp, #32]
 2261 003a 4FF00000 		mov	r0, #0
 2262 003e 3049     		ldr	r1, .L25
 2263 0040 FFF7FEFF 		bl	__aeabi_dsub
 2264 0044 0246     		mov	r2, r0
 2265 0046 0B46     		mov	r3, r1
 2266              		.loc 1 214 16
 2267 0048 2046     		mov	r0, r4
 2268 004a 2946     		mov	r1, r5
 2269 004c FFF7FEFF 		bl	__aeabi_dmul
 2270 0050 0246     		mov	r2, r0
 2271 0052 0B46     		mov	r3, r1
 2272 0054 CDE90623 		strd	r2, [sp, #24]
 2273              		.loc 1 216 25
 2274 0058 DDE90201 		ldrd	r0, [sp, #8]
 2275 005c FFF7FEFF 		bl	tan
 2276              		.loc 1 216 15
 2277 0060 DDE90623 		ldrd	r2, [sp, #24]
 2278 0064 FFF7FEFF 		bl	__aeabi_dmul
 2279 0068 0246     		mov	r2, r0
 2280 006a 0B46     		mov	r3, r1
ARM GAS  /tmp/cceVa9lb.s 			page 41


 2281 006c 1046     		mov	r0, r2
 2282 006e 1946     		mov	r1, r3
 2283 0070 FFF7FEFF 		bl	atan
 2284 0074 CDE90401 		strd	r0, [sp, #16]
 2285              		.loc 1 217 23
 2286 0078 DDE90201 		ldrd	r0, [sp, #8]
 2287 007c FFF7FEFF 		bl	sin
 2288              		.loc 1 217 21
 2289 0080 DDE90023 		ldrd	r2, [sp]
 2290 0084 FFF7FEFF 		bl	__aeabi_dmul
 2291 0088 0246     		mov	r2, r0
 2292 008a 0B46     		mov	r3, r1
 2293 008c 1446     		mov	r4, r2
 2294 008e 1D46     		mov	r5, r3
 2295              		.loc 1 217 41
 2296 0090 DDE90401 		ldrd	r0, [sp, #16]
 2297 0094 FFF7FEFF 		bl	sin
 2298              		.loc 1 217 39
 2299 0098 DDE90A23 		ldrd	r2, [sp, #40]
 2300 009c FFF7FEFF 		bl	__aeabi_dmul
 2301 00a0 0246     		mov	r2, r0
 2302 00a2 0B46     		mov	r3, r1
 2303              		.loc 1 217 10
 2304 00a4 2046     		mov	r0, r4
 2305 00a6 2946     		mov	r1, r5
 2306 00a8 FFF7FEFF 		bl	__aeabi_dadd
 2307 00ac 0246     		mov	r2, r0
 2308 00ae 0B46     		mov	r3, r1
 2309 00b0 1446     		mov	r4, r2
 2310 00b2 1D46     		mov	r5, r3
 2311              		.loc 1 217 57
 2312 00b4 DDE90201 		ldrd	r0, [sp, #8]
 2313 00b8 FFF7FEFF 		bl	cos
 2314              		.loc 1 217 55
 2315 00bc DDE90023 		ldrd	r2, [sp]
 2316 00c0 FFF7FEFF 		bl	__aeabi_dmul
 2317 00c4 0246     		mov	r2, r0
 2318 00c6 0B46     		mov	r3, r1
 2319 00c8 1646     		mov	r6, r2
 2320 00ca 1F46     		mov	r7, r3
 2321              		.loc 1 217 75
 2322 00cc DDE90401 		ldrd	r0, [sp, #16]
 2323 00d0 FFF7FEFF 		bl	cos
 2324              		.loc 1 217 73
 2325 00d4 DDE90A23 		ldrd	r2, [sp, #40]
 2326 00d8 FFF7FEFF 		bl	__aeabi_dmul
 2327 00dc 0246     		mov	r2, r0
 2328 00de 0B46     		mov	r3, r1
 2329              		.loc 1 217 10
 2330 00e0 3046     		mov	r0, r6
 2331 00e2 3946     		mov	r1, r7
 2332 00e4 FFF7FEFF 		bl	__aeabi_dadd
 2333 00e8 0246     		mov	r2, r0
 2334 00ea 0B46     		mov	r3, r1
 2335 00ec 2046     		mov	r0, r4
 2336 00ee 2946     		mov	r1, r5
 2337 00f0 FFF7FEFF 		bl	atan2
ARM GAS  /tmp/cceVa9lb.s 			page 42


 2338 00f4 0246     		mov	r2, r0
 2339 00f6 0B46     		mov	r3, r1
 2340              		.loc 1 218 1
 2341 00f8 1046     		mov	r0, r2
 2342 00fa 1946     		mov	r1, r3
 2343 00fc 0DB0     		add	sp, sp, #52
 2344              		.cfi_def_cfa_offset 20
 2345              		@ sp needed
 2346 00fe F0BD     		pop	{r4, r5, r6, r7, pc}
 2347              	.L26:
 2348              		.align	3
 2349              	.L25:
 2350 0100 0000F03F 		.word	1072693248
 2351 0104 00000040 		.word	1073741824
 2352 0108 A6545841 		.word	1096307878
 2353 010c 28E1F384 		.word	-2064391896
 2354 0110 5A776B3F 		.word	1064007514
 2355              		.cfi_endproc
 2356              	.LFE66:
 2357              		.size	gc_of_gd_lat_d, .-gc_of_gd_lat_d
 2358              		.section	.rodata.serie_coeff_proj_mercator,"a"
 2359              		.align	2
 2360              		.type	serie_coeff_proj_mercator, %object
 2361              		.size	serie_coeff_proj_mercator, 20
 2362              	serie_coeff_proj_mercator:
 2363 0000 2E927F3F 		.word	1065325102
 2364 0004 063D5B3A 		.word	979057926
 2365 0008 CBE54B35 		.word	894166475
 2366 000c 8A53A430 		.word	816075658
 2367 0010 19A5292C 		.word	740926745
 2368              		.section	.rodata.serie_coeff_proj_mercator_inverse,"a"
 2369              		.align	2
 2370              		.type	serie_coeff_proj_mercator_inverse, %object
 2371              		.size	serie_coeff_proj_mercator_inverse, 20
 2372              	serie_coeff_proj_mercator_inverse:
 2373 0000 2E927F3F 		.word	1065325102
 2374 0004 419B5B3A 		.word	979082049
 2375 0008 B8A77D33 		.word	863872952
 2376 000c 48FE372F 		.word	792198728
 2377 0010 BECF702A 		.word	712036286
 2378              		.section	.text.isometric_latitude_d,"ax",%progbits
 2379              		.align	1
 2380              		.p2align 4,,15
 2381              		.syntax unified
 2382              		.thumb
 2383              		.thumb_func
 2384              		.fpu fpv4-sp-d16
 2385              		.type	isometric_latitude_d, %function
 2386              	isometric_latitude_d:
 2387              	.LFB67:
 2388              		.loc 1 224 1
 2389              		.cfi_startproc
 2390              		@ args = 0, pretend = 0, frame = 16
 2391              		@ frame_needed = 0, uses_anonymous_args = 0
 2392 0000 2DE9F043 		push	{r4, r5, r6, r7, r8, r9, lr}
 2393              		.cfi_def_cfa_offset 28
 2394              		.cfi_offset 4, -28
ARM GAS  /tmp/cceVa9lb.s 			page 43


 2395              		.cfi_offset 5, -24
 2396              		.cfi_offset 6, -20
 2397              		.cfi_offset 7, -16
 2398              		.cfi_offset 8, -12
 2399              		.cfi_offset 9, -8
 2400              		.cfi_offset 14, -4
 2401 0004 85B0     		sub	sp, sp, #20
 2402              		.cfi_def_cfa_offset 48
 2403 0006 CDE90201 		strd	r0, [sp, #8]
 2404 000a CDE90023 		strd	r2, [sp]
 2405              		.loc 1 225 31
 2406 000e 4FF00002 		mov	r2, #0
 2407 0012 4FF08043 		mov	r3, #1073741824
 2408 0016 DDE90201 		ldrd	r0, [sp, #8]
 2409 001a FFF7FEFF 		bl	__aeabi_ddiv
 2410 001e 0246     		mov	r2, r0
 2411 0020 0B46     		mov	r3, r1
 2412 0022 1046     		mov	r0, r2
 2413 0024 1946     		mov	r1, r3
 2414              		.loc 1 225 10
 2415 0026 33A3     		adr	r3, .L29+4
 2416 0028 D3E90023 		ldrd	r2, [r3]
 2417 002c FFF7FEFF 		bl	__aeabi_dadd
 2418 0030 0246     		mov	r2, r0
 2419 0032 0B46     		mov	r3, r1
 2420 0034 1046     		mov	r0, r2
 2421 0036 1946     		mov	r1, r3
 2422 0038 FFF7FEFF 		bl	tan
 2423 003c 0246     		mov	r2, r0
 2424 003e 0B46     		mov	r3, r1
 2425 0040 1046     		mov	r0, r2
 2426 0042 1946     		mov	r1, r3
 2427 0044 FFF7FEFF 		bl	log
 2428 0048 0446     		mov	r4, r0
 2429 004a 0D46     		mov	r5, r1
 2430              		.loc 1 225 43
 2431 004c 4FF00002 		mov	r2, #0
 2432 0050 4FF08043 		mov	r3, #1073741824
 2433 0054 DDE90001 		ldrd	r0, [sp]
 2434 0058 FFF7FEFF 		bl	__aeabi_ddiv
 2435 005c 0246     		mov	r2, r0
 2436 005e 0B46     		mov	r3, r1
 2437 0060 1646     		mov	r6, r2
 2438 0062 1F46     		mov	r7, r3
 2439              		.loc 1 225 66
 2440 0064 DDE90201 		ldrd	r0, [sp, #8]
 2441 0068 FFF7FEFF 		bl	sin
 2442              		.loc 1 225 64
 2443 006c DDE90023 		ldrd	r2, [sp]
 2444 0070 FFF7FEFF 		bl	__aeabi_dmul
 2445 0074 0246     		mov	r2, r0
 2446 0076 0B46     		mov	r3, r1
 2447 0078 1046     		mov	r0, r2
 2448 007a 1946     		mov	r1, r3
 2449              		.loc 1 225 60
 2450 007c 4FF00002 		mov	r2, #0
 2451 0080 1B4B     		ldr	r3, .L29
ARM GAS  /tmp/cceVa9lb.s 			page 44


 2452 0082 FFF7FEFF 		bl	__aeabi_dadd
 2453 0086 0246     		mov	r2, r0
 2454 0088 0B46     		mov	r3, r1
 2455 008a 9046     		mov	r8, r2
 2456 008c 9946     		mov	r9, r3
 2457              		.loc 1 225 89
 2458 008e DDE90201 		ldrd	r0, [sp, #8]
 2459 0092 FFF7FEFF 		bl	sin
 2460              		.loc 1 225 87
 2461 0096 DDE90023 		ldrd	r2, [sp]
 2462 009a FFF7FEFF 		bl	__aeabi_dmul
 2463 009e 0246     		mov	r2, r0
 2464 00a0 0B46     		mov	r3, r1
 2465              		.loc 1 225 83
 2466 00a2 4FF00000 		mov	r0, #0
 2467 00a6 1249     		ldr	r1, .L29
 2468 00a8 FFF7FEFF 		bl	__aeabi_dsub
 2469 00ac 0246     		mov	r2, r0
 2470 00ae 0B46     		mov	r3, r1
 2471              		.loc 1 225 51
 2472 00b0 4046     		mov	r0, r8
 2473 00b2 4946     		mov	r1, r9
 2474 00b4 FFF7FEFF 		bl	__aeabi_ddiv
 2475 00b8 0246     		mov	r2, r0
 2476 00ba 0B46     		mov	r3, r1
 2477 00bc 1046     		mov	r0, r2
 2478 00be 1946     		mov	r1, r3
 2479 00c0 FFF7FEFF 		bl	log
 2480 00c4 0246     		mov	r2, r0
 2481 00c6 0B46     		mov	r3, r1
 2482              		.loc 1 225 49
 2483 00c8 3046     		mov	r0, r6
 2484 00ca 3946     		mov	r1, r7
 2485 00cc FFF7FEFF 		bl	__aeabi_dmul
 2486 00d0 0246     		mov	r2, r0
 2487 00d2 0B46     		mov	r3, r1
 2488              		.loc 1 225 39
 2489 00d4 2046     		mov	r0, r4
 2490 00d6 2946     		mov	r1, r5
 2491 00d8 FFF7FEFF 		bl	__aeabi_dsub
 2492 00dc 0246     		mov	r2, r0
 2493 00de 0B46     		mov	r3, r1
 2494              		.loc 1 226 1
 2495 00e0 1046     		mov	r0, r2
 2496 00e2 1946     		mov	r1, r3
 2497 00e4 05B0     		add	sp, sp, #20
 2498              		.cfi_def_cfa_offset 28
 2499              		@ sp needed
 2500 00e6 BDE8F083 		pop	{r4, r5, r6, r7, r8, r9, pc}
 2501              	.L30:
 2502 00ea 00BFAFF3 		.align	3
 2502      0080
 2503              	.L29:
 2504 00f0 0000F03F 		.word	1072693248
 2505 00f4 182D4454 		.word	1413754136
 2506 00f8 FB21E93F 		.word	1072243195
 2507              		.cfi_endproc
ARM GAS  /tmp/cceVa9lb.s 			page 45


 2508              	.LFE67:
 2509              		.size	isometric_latitude_d, .-isometric_latitude_d
 2510              		.section	.text.isometric_latitude_fast_d,"ax",%progbits
 2511              		.align	1
 2512              		.p2align 4,,15
 2513              		.syntax unified
 2514              		.thumb
 2515              		.thumb_func
 2516              		.fpu fpv4-sp-d16
 2517              		.type	isometric_latitude_fast_d, %function
 2518              	isometric_latitude_fast_d:
 2519              	.LFB68:
 2520              		.loc 1 229 1
 2521              		.cfi_startproc
 2522              		@ args = 0, pretend = 0, frame = 8
 2523              		@ frame_needed = 0, uses_anonymous_args = 0
 2524 0000 00B5     		push	{lr}
 2525              		.cfi_def_cfa_offset 4
 2526              		.cfi_offset 14, -4
 2527 0002 83B0     		sub	sp, sp, #12
 2528              		.cfi_def_cfa_offset 16
 2529 0004 CDE90001 		strd	r0, [sp]
 2530              		.loc 1 230 31
 2531 0008 4FF00002 		mov	r2, #0
 2532 000c 4FF08043 		mov	r3, #1073741824
 2533 0010 DDE90001 		ldrd	r0, [sp]
 2534 0014 FFF7FEFF 		bl	__aeabi_ddiv
 2535 0018 0246     		mov	r2, r0
 2536 001a 0B46     		mov	r3, r1
 2537 001c 1046     		mov	r0, r2
 2538 001e 1946     		mov	r1, r3
 2539              		.loc 1 230 10
 2540 0020 0BA3     		adr	r3, .L33
 2541 0022 D3E90023 		ldrd	r2, [r3]
 2542 0026 FFF7FEFF 		bl	__aeabi_dadd
 2543 002a 0246     		mov	r2, r0
 2544 002c 0B46     		mov	r3, r1
 2545 002e 1046     		mov	r0, r2
 2546 0030 1946     		mov	r1, r3
 2547 0032 FFF7FEFF 		bl	tan
 2548 0036 0246     		mov	r2, r0
 2549 0038 0B46     		mov	r3, r1
 2550 003a 1046     		mov	r0, r2
 2551 003c 1946     		mov	r1, r3
 2552 003e FFF7FEFF 		bl	log
 2553 0042 0246     		mov	r2, r0
 2554 0044 0B46     		mov	r3, r1
 2555              		.loc 1 231 1
 2556 0046 1046     		mov	r0, r2
 2557 0048 1946     		mov	r1, r3
 2558 004a 03B0     		add	sp, sp, #12
 2559              		.cfi_def_cfa_offset 4
 2560              		@ sp needed
 2561 004c 5DF804FB 		ldr	pc, [sp], #4
 2562              	.L34:
 2563              		.align	3
 2564              	.L33:
ARM GAS  /tmp/cceVa9lb.s 			page 46


 2565 0050 182D4454 		.word	1413754136
 2566 0054 FB21E93F 		.word	1072243195
 2567              		.cfi_endproc
 2568              	.LFE68:
 2569              		.size	isometric_latitude_fast_d, .-isometric_latitude_fast_d
 2570              		.global	__aeabi_dcmplt
 2571              		.section	.text.inverse_isometric_latitude_d,"ax",%progbits
 2572              		.align	1
 2573              		.p2align 4,,15
 2574              		.syntax unified
 2575              		.thumb
 2576              		.thumb_func
 2577              		.fpu fpv4-sp-d16
 2578              		.type	inverse_isometric_latitude_d, %function
 2579              	inverse_isometric_latitude_d:
 2580              	.LFB69:
 2581              		.loc 1 234 1
 2582              		.cfi_startproc
 2583              		@ args = 8, pretend = 0, frame = 56
 2584              		@ frame_needed = 0, uses_anonymous_args = 0
 2585 0000 F0B5     		push	{r4, r5, r6, r7, lr}
 2586              		.cfi_def_cfa_offset 20
 2587              		.cfi_offset 4, -20
 2588              		.cfi_offset 5, -16
 2589              		.cfi_offset 6, -12
 2590              		.cfi_offset 7, -8
 2591              		.cfi_offset 14, -4
 2592 0002 8FB0     		sub	sp, sp, #60
 2593              		.cfi_def_cfa_offset 80
 2594 0004 CDE90201 		strd	r0, [sp, #8]
 2595 0008 CDE90023 		strd	r2, [sp]
 2596              		.loc 1 235 18
 2597 000c DDE90201 		ldrd	r0, [sp, #8]
 2598 0010 FFF7FEFF 		bl	exp
 2599 0014 CDE90801 		strd	r0, [sp, #32]
 2600              		.loc 1 236 21
 2601 0018 DDE90801 		ldrd	r0, [sp, #32]
 2602 001c FFF7FEFF 		bl	atan
 2603              		.loc 1 236 19
 2604 0020 0246     		mov	r2, r0
 2605 0022 0B46     		mov	r3, r1
 2606 0024 FFF7FEFF 		bl	__aeabi_dadd
 2607 0028 0246     		mov	r2, r0
 2608 002a 0B46     		mov	r3, r1
 2609 002c 1046     		mov	r0, r2
 2610 002e 1946     		mov	r1, r3
 2611              		.loc 1 236 10
 2612 0030 43A3     		adr	r3, .L39
 2613 0032 D3E90023 		ldrd	r2, [r3]
 2614 0036 FFF7FEFF 		bl	__aeabi_dsub
 2615 003a 0246     		mov	r2, r0
 2616 003c 0B46     		mov	r3, r1
 2617 003e CDE90C23 		strd	r2, [sp, #48]
 2618              		.loc 1 238 11
 2619 0042 0323     		movs	r3, #3
 2620 0044 8DF82F30 		strb	r3, [sp, #47]
 2621              	.L37:
ARM GAS  /tmp/cceVa9lb.s 			page 47


 2622              	.LBB2:
 2623              		.loc 1 241 10 discriminator 2
 2624 0048 DDE90C23 		ldrd	r2, [sp, #48]
 2625 004c CDE90623 		strd	r2, [sp, #24]
 2626              		.loc 1 242 26 discriminator 2
 2627 0050 DDE90601 		ldrd	r0, [sp, #24]
 2628 0054 FFF7FEFF 		bl	sin
 2629 0058 0246     		mov	r2, r0
 2630 005a 0B46     		mov	r3, r1
 2631              		.loc 1 242 12 discriminator 2
 2632 005c DDE90001 		ldrd	r0, [sp]
 2633 0060 FFF7FEFF 		bl	__aeabi_dmul
 2634 0064 0246     		mov	r2, r0
 2635 0066 0B46     		mov	r3, r1
 2636 0068 CDE90423 		strd	r2, [sp, #16]
 2637              		.loc 1 243 28 discriminator 2
 2638 006c 4FF00002 		mov	r2, #0
 2639 0070 354B     		ldr	r3, .L39+8
 2640 0072 DDE90401 		ldrd	r0, [sp, #16]
 2641 0076 FFF7FEFF 		bl	__aeabi_dadd
 2642 007a 0246     		mov	r2, r0
 2643 007c 0B46     		mov	r3, r1
 2644 007e 1646     		mov	r6, r2
 2645 0080 1F46     		mov	r7, r3
 2646              		.loc 1 243 45 discriminator 2
 2647 0082 DDE90423 		ldrd	r2, [sp, #16]
 2648 0086 4FF00000 		mov	r0, #0
 2649 008a 2F49     		ldr	r1, .L39+8
 2650 008c FFF7FEFF 		bl	__aeabi_dsub
 2651 0090 0246     		mov	r2, r0
 2652 0092 0B46     		mov	r3, r1
 2653              		.loc 1 243 21 discriminator 2
 2654 0094 3046     		mov	r0, r6
 2655 0096 3946     		mov	r1, r7
 2656 0098 FFF7FEFF 		bl	__aeabi_ddiv
 2657 009c 0246     		mov	r2, r0
 2658 009e 0B46     		mov	r3, r1
 2659 00a0 1646     		mov	r6, r2
 2660 00a2 1F46     		mov	r7, r3
 2661 00a4 4FF00002 		mov	r2, #0
 2662 00a8 4FF08043 		mov	r3, #1073741824
 2663 00ac DDE90001 		ldrd	r0, [sp]
 2664 00b0 FFF7FEFF 		bl	__aeabi_ddiv
 2665 00b4 0246     		mov	r2, r0
 2666 00b6 0B46     		mov	r3, r1
 2667 00b8 3046     		mov	r0, r6
 2668 00ba 3946     		mov	r1, r7
 2669 00bc FFF7FEFF 		bl	pow
 2670              		.loc 1 243 16 discriminator 2
 2671 00c0 DDE90823 		ldrd	r2, [sp, #32]
 2672 00c4 FFF7FEFF 		bl	__aeabi_dmul
 2673 00c8 0246     		mov	r2, r0
 2674 00ca 0B46     		mov	r3, r1
 2675 00cc 1046     		mov	r0, r2
 2676 00ce 1946     		mov	r1, r3
 2677 00d0 FFF7FEFF 		bl	atan
 2678              		.loc 1 243 14 discriminator 2
ARM GAS  /tmp/cceVa9lb.s 			page 48


 2679 00d4 0246     		mov	r2, r0
 2680 00d6 0B46     		mov	r3, r1
 2681 00d8 FFF7FEFF 		bl	__aeabi_dadd
 2682 00dc 0246     		mov	r2, r0
 2683 00de 0B46     		mov	r3, r1
 2684 00e0 1046     		mov	r0, r2
 2685 00e2 1946     		mov	r1, r3
 2686              		.loc 1 243 10 discriminator 2
 2687 00e4 16A3     		adr	r3, .L39
 2688 00e6 D3E90023 		ldrd	r2, [r3]
 2689 00ea FFF7FEFF 		bl	__aeabi_dsub
 2690 00ee 0246     		mov	r2, r0
 2691 00f0 0B46     		mov	r3, r1
 2692 00f2 CDE90C23 		strd	r2, [sp, #48]
 2693              		.loc 1 244 13 discriminator 2
 2694 00f6 9DF82F30 		ldrb	r3, [sp, #47]	@ zero_extendqisi2
 2695 00fa 013B     		subs	r3, r3, #1
 2696 00fc 8DF82F30 		strb	r3, [sp, #47]
 2697              	.LBE2:
 2698              		.loc 1 245 3 discriminator 2
 2699 0100 9DF82F30 		ldrb	r3, [sp, #47]	@ zero_extendqisi2
 2700 0104 002B     		cmp	r3, #0
 2701 0106 13D0     		beq	.L36
 2702              		.loc 1 245 34 discriminator 1
 2703 0108 DDE90C23 		ldrd	r2, [sp, #48]
 2704 010c DDE90601 		ldrd	r0, [sp, #24]
 2705 0110 FFF7FEFF 		bl	__aeabi_dsub
 2706 0114 0246     		mov	r2, r0
 2707 0116 0B46     		mov	r3, r1
 2708              		.loc 1 245 24 discriminator 1
 2709 0118 1446     		mov	r4, r2
 2710 011a 23F00045 		bic	r5, r3, #-2147483648
 2711              		.loc 1 245 21 discriminator 1
 2712 011e 2246     		mov	r2, r4
 2713 0120 2B46     		mov	r3, r5
 2714 0122 DDE91401 		ldrd	r0, [sp, #80]
 2715 0126 FFF7FEFF 		bl	__aeabi_dcmplt
 2716 012a 0346     		mov	r3, r0
 2717 012c 002B     		cmp	r3, #0
 2718 012e 8BD1     		bne	.L37
 2719              	.L36:
 2720              		.loc 1 247 10
 2721 0130 DDE90C23 		ldrd	r2, [sp, #48]
 2722              		.loc 1 248 1
 2723 0134 1046     		mov	r0, r2
 2724 0136 1946     		mov	r1, r3
 2725 0138 0FB0     		add	sp, sp, #60
 2726              		.cfi_def_cfa_offset 20
 2727              		@ sp needed
 2728 013a F0BD     		pop	{r4, r5, r6, r7, pc}
 2729              	.L40:
 2730 013c AFF30080 		.align	3
 2731              	.L39:
 2732 0140 182D4454 		.word	1413754136
 2733 0144 FB21F93F 		.word	1073291771
 2734 0148 0000F03F 		.word	1072693248
 2735              		.cfi_endproc
ARM GAS  /tmp/cceVa9lb.s 			page 49


 2736              	.LFE69:
 2737              		.size	inverse_isometric_latitude_d, .-inverse_isometric_latitude_d
 2738              		.global	__aeabi_d2uiz
 2739              		.global	__aeabi_i2d
 2740              		.global	__aeabi_f2d
 2741              		.section	.text.utm_of_lla_d,"ax",%progbits
 2742              		.align	1
 2743              		.p2align 4,,15
 2744              		.global	utm_of_lla_d
 2745              		.syntax unified
 2746              		.thumb
 2747              		.thumb_func
 2748              		.fpu fpv4-sp-d16
 2749              		.type	utm_of_lla_d, %function
 2750              	utm_of_lla_d:
 2751              	.LFB70:
 2752              		.loc 1 277 1
 2753              		.cfi_startproc
 2754              		@ args = 0, pretend = 0, frame = 152
 2755              		@ frame_needed = 0, uses_anonymous_args = 0
 2756 0000 2DE9F04F 		push	{r4, r5, r6, r7, r8, r9, r10, fp, lr}
 2757              		.cfi_def_cfa_offset 36
 2758              		.cfi_offset 4, -36
 2759              		.cfi_offset 5, -32
 2760              		.cfi_offset 6, -28
 2761              		.cfi_offset 7, -24
 2762              		.cfi_offset 8, -20
 2763              		.cfi_offset 9, -16
 2764              		.cfi_offset 10, -12
 2765              		.cfi_offset 11, -8
 2766              		.cfi_offset 14, -4
 2767 0004 A7B0     		sub	sp, sp, #156
 2768              		.cfi_def_cfa_offset 192
 2769 0006 0390     		str	r0, [sp, #12]
 2770 0008 0291     		str	r1, [sp, #8]
 2771              		.loc 1 279 10
 2772 000a 039B     		ldr	r3, [sp, #12]
 2773 000c 1B7E     		ldrb	r3, [r3, #24]	@ zero_extendqisi2
 2774              		.loc 1 279 6
 2775 000e 002B     		cmp	r3, #0
 2776 0010 2ED1     		bne	.L42
 2777              		.loc 1 280 17
 2778 0012 029B     		ldr	r3, [sp, #8]
 2779 0014 D3E90201 		ldrd	r0, [r3, #8]
 2780 0018 63A3     		adr	r3, .L45+32
 2781 001a D3E90023 		ldrd	r2, [r3]
 2782 001e FFF7FEFF 		bl	__aeabi_dmul
 2783 0022 0246     		mov	r2, r0
 2784 0024 0B46     		mov	r3, r1
 2785 0026 1046     		mov	r0, r2
 2786 0028 1946     		mov	r1, r3
 2787 002a 4FF00002 		mov	r2, #0
 2788 002e 5A4B     		ldr	r3, .L45+16
 2789 0030 FFF7FEFF 		bl	__aeabi_dadd
 2790 0034 0246     		mov	r2, r0
 2791 0036 0B46     		mov	r3, r1
 2792 0038 1046     		mov	r0, r2
ARM GAS  /tmp/cceVa9lb.s 			page 50


 2793 003a 1946     		mov	r1, r3
 2794 003c FFF7FEFF 		bl	floor
 2795 0040 4FF00002 		mov	r2, #0
 2796 0044 554B     		ldr	r3, .L45+20
 2797 0046 FFF7FEFF 		bl	__aeabi_ddiv
 2798 004a 0246     		mov	r2, r0
 2799 004c 0B46     		mov	r3, r1
 2800 004e 1046     		mov	r0, r2
 2801 0050 1946     		mov	r1, r3
 2802 0052 4FF00002 		mov	r2, #0
 2803 0056 524B     		ldr	r3, .L45+24
 2804 0058 FFF7FEFF 		bl	__aeabi_dadd
 2805 005c 0246     		mov	r2, r0
 2806 005e 0B46     		mov	r3, r1
 2807              		.loc 1 280 15
 2808 0060 1046     		mov	r0, r2
 2809 0062 1946     		mov	r1, r3
 2810 0064 FFF7FEFF 		bl	__aeabi_d2uiz
 2811 0068 0346     		mov	r3, r0
 2812 006a DAB2     		uxtb	r2, r3
 2813 006c 039B     		ldr	r3, [sp, #12]
 2814 006e 1A76     		strb	r2, [r3, #24]
 2815              	.L42:
 2816              		.loc 1 283 21
 2817 0070 039B     		ldr	r3, [sp, #12]
 2818 0072 1B7E     		ldrb	r3, [r3, #24]	@ zero_extendqisi2
 2819 0074 5A1E     		subs	r2, r3, #1
 2820 0076 1346     		mov	r3, r2
 2821 0078 5B00     		lsls	r3, r3, #1
 2822 007a 1344     		add	r3, r3, r2
 2823 007c 5B00     		lsls	r3, r3, #1
 2824 007e B13B     		subs	r3, r3, #177
 2825 0080 1846     		mov	r0, r3
 2826 0082 FFF7FEFF 		bl	__aeabi_i2d
 2827              		.loc 1 283 10
 2828 0086 40A3     		adr	r3, .L45
 2829 0088 D3E90023 		ldrd	r2, [r3]
 2830 008c FFF7FEFF 		bl	__aeabi_dmul
 2831 0090 0246     		mov	r2, r0
 2832 0092 0B46     		mov	r3, r1
 2833 0094 CDE92223 		strd	r2, [sp, #136]
 2834              		.loc 1 284 15
 2835 0098 029B     		ldr	r3, [sp, #8]
 2836 009a D3E90001 		ldrd	r0, [r3]
 2837 009e 3CA3     		adr	r3, .L45+8
 2838 00a0 D3E90023 		ldrd	r2, [r3]
 2839 00a4 FFF7FEFF 		bl	isometric_latitude_d
 2840 00a8 CDE92001 		strd	r0, [sp, #128]
 2841              		.loc 1 285 18
 2842 00ac 029B     		ldr	r3, [sp, #8]
 2843 00ae D3E90201 		ldrd	r0, [r3, #8]
 2844              		.loc 1 285 10
 2845 00b2 DDE92223 		ldrd	r2, [sp, #136]
 2846 00b6 FFF7FEFF 		bl	__aeabi_dsub
 2847 00ba 0246     		mov	r2, r0
 2848 00bc 0B46     		mov	r3, r1
 2849 00be CDE91E23 		strd	r2, [sp, #120]
ARM GAS  /tmp/cceVa9lb.s 			page 51


 2850              		.loc 1 286 22
 2851 00c2 DDE91E01 		ldrd	r0, [sp, #120]
 2852 00c6 FFF7FEFF 		bl	sin
 2853 00ca 0446     		mov	r4, r0
 2854 00cc 0D46     		mov	r5, r1
 2855              		.loc 1 286 32
 2856 00ce DDE92001 		ldrd	r0, [sp, #128]
 2857 00d2 FFF7FEFF 		bl	cosh
 2858 00d6 0246     		mov	r2, r0
 2859 00d8 0B46     		mov	r3, r1
 2860              		.loc 1 286 17
 2861 00da 2046     		mov	r0, r4
 2862 00dc 2946     		mov	r1, r5
 2863 00de FFF7FEFF 		bl	__aeabi_ddiv
 2864 00e2 0246     		mov	r2, r0
 2865 00e4 0B46     		mov	r3, r1
 2866 00e6 1046     		mov	r0, r2
 2867 00e8 1946     		mov	r1, r3
 2868 00ea FFF7FEFF 		bl	asin
 2869 00ee CDE91C01 		strd	r0, [sp, #112]
 2870              		.loc 1 287 16
 2871 00f2 DDE91C01 		ldrd	r0, [sp, #112]
 2872 00f6 FFF7FEFF 		bl	isometric_latitude_fast_d
 2873 00fa CDE91A01 		strd	r0, [sp, #104]
 2874              		.loc 1 288 25
 2875 00fe DDE92001 		ldrd	r0, [sp, #128]
 2876 0102 FFF7FEFF 		bl	sinh
 2877 0106 0446     		mov	r4, r0
 2878 0108 0D46     		mov	r5, r1
 2879              		.loc 1 288 36
 2880 010a DDE91E01 		ldrd	r0, [sp, #120]
 2881 010e FFF7FEFF 		bl	cos
 2882 0112 0246     		mov	r2, r0
 2883 0114 0B46     		mov	r3, r1
 2884              		.loc 1 288 20
 2885 0116 2046     		mov	r0, r4
 2886 0118 2946     		mov	r1, r5
 2887 011a FFF7FEFF 		bl	__aeabi_ddiv
 2888 011e 0246     		mov	r2, r0
 2889 0120 0B46     		mov	r3, r1
 2890 0122 1046     		mov	r0, r2
 2891 0124 1946     		mov	r1, r3
 2892 0126 FFF7FEFF 		bl	atan
 2893 012a CDE91801 		strd	r0, [sp, #96]
 2894              		.loc 1 289 22
 2895 012e DDE91823 		ldrd	r2, [sp, #96]
 2896 0132 CDE90C23 		strd	r2, [sp, #48]
 2897 0136 DDE91A23 		ldrd	r2, [sp, #104]
 2898 013a CDE90E23 		strd	r2, [sp, #56]
 2899              		.loc 1 290 3
 2900 013e DDE90C45 		ldrd	r4, [sp, #48]
 2901 0142 184B     		ldr	r3, .L45+28
 2902 0144 1846     		mov	r0, r3	@ float
 2903 0146 FFF7FEFF 		bl	__aeabi_f2d
 2904 014a 0246     		mov	r2, r0
 2905 014c 0B46     		mov	r3, r1
 2906 014e 2046     		mov	r0, r4
ARM GAS  /tmp/cceVa9lb.s 			page 52


 2907 0150 2946     		mov	r1, r5
 2908 0152 FFF7FEFF 		bl	__aeabi_dmul
 2909 0156 0246     		mov	r2, r0
 2910 0158 0B46     		mov	r3, r1
 2911 015a CDE90C23 		strd	r2, [sp, #48]
 2912 015e DDE90E45 		ldrd	r4, [sp, #56]
 2913 0162 104B     		ldr	r3, .L45+28
 2914 0164 1846     		mov	r0, r3	@ float
 2915 0166 FFF7FEFF 		bl	__aeabi_f2d
 2916 016a 0246     		mov	r2, r0
 2917 016c 0B46     		mov	r3, r1
 2918 016e 2046     		mov	r0, r4
 2919 0170 2946     		mov	r1, r5
 2920 0172 FFF7FEFF 		bl	__aeabi_dmul
 2921 0176 0246     		mov	r2, r0
 2922 0178 0B46     		mov	r3, r1
 2923 017a CDE90E23 		strd	r2, [sp, #56]
 2924              		.loc 1 292 10
 2925 017e 0123     		movs	r3, #1
 2926 0180 8DF89730 		strb	r3, [sp, #151]
 2927              		.loc 1 292 3
 2928 0184 2CE1     		b	.L43
 2929              	.L46:
 2930 0186 00BF     		.align	3
 2931              	.L45:
 2932 0188 399D52A2 		.word	-1571644103
 2933 018c 46DF913F 		.word	1066524486
 2934 0190 37B2C93D 		.word	1036628535
 2935 0194 1AF2B43F 		.word	1068823066
 2936 0198 00806640 		.word	1080459264
 2937 019c 00001840 		.word	1075314688
 2938 01a0 0000F03F 		.word	1072693248
 2939 01a4 2E927F3F 		.word	1065325102
 2940 01a8 F8C1631A 		.word	442745336
 2941 01ac DCA54C40 		.word	1078765020
 2942              	.L44:
 2943              	.LBB3:
 2944              		.loc 1 293 24 discriminator 3
 2945 01b0 DDE91823 		ldrd	r2, [sp, #96]
 2946 01b4 CDE90823 		strd	r2, [sp, #32]
 2947 01b8 DDE91A23 		ldrd	r2, [sp, #104]
 2948 01bc CDE90A23 		strd	r2, [sp, #40]
 2949              		.loc 1 294 5 discriminator 3
 2950 01c0 DDE90845 		ldrd	r4, [sp, #32]
 2951 01c4 9DF99730 		ldrsb	r3, [sp, #151]
 2952 01c8 1846     		mov	r0, r3
 2953 01ca FFF7FEFF 		bl	__aeabi_i2d
 2954 01ce 0246     		mov	r2, r0
 2955 01d0 0B46     		mov	r3, r1
 2956 01d2 FFF7FEFF 		bl	__aeabi_dadd
 2957 01d6 0246     		mov	r2, r0
 2958 01d8 0B46     		mov	r3, r1
 2959 01da 2046     		mov	r0, r4
 2960 01dc 2946     		mov	r1, r5
 2961 01de FFF7FEFF 		bl	__aeabi_dmul
 2962 01e2 0246     		mov	r2, r0
 2963 01e4 0B46     		mov	r3, r1
ARM GAS  /tmp/cceVa9lb.s 			page 53


 2964 01e6 CDE90823 		strd	r2, [sp, #32]
 2965 01ea DDE90A45 		ldrd	r4, [sp, #40]
 2966 01ee 9DF99730 		ldrsb	r3, [sp, #151]
 2967 01f2 1846     		mov	r0, r3
 2968 01f4 FFF7FEFF 		bl	__aeabi_i2d
 2969 01f8 0246     		mov	r2, r0
 2970 01fa 0B46     		mov	r3, r1
 2971 01fc FFF7FEFF 		bl	__aeabi_dadd
 2972 0200 0246     		mov	r2, r0
 2973 0202 0B46     		mov	r3, r1
 2974 0204 2046     		mov	r0, r4
 2975 0206 2946     		mov	r1, r5
 2976 0208 FFF7FEFF 		bl	__aeabi_dmul
 2977 020c 0246     		mov	r2, r0
 2978 020e 0B46     		mov	r3, r1
 2979 0210 CDE90A23 		strd	r2, [sp, #40]
 2980              	.LBB4:
 2981              	.LBB5:
 2982              		.loc 1 295 5 discriminator 3
 2983 0214 DDE90823 		ldrd	r2, [sp, #32]
 2984 0218 CDE91623 		strd	r2, [sp, #88]
 2985 021c DDE90A23 		ldrd	r2, [sp, #40]
 2986 0220 1646     		mov	r6, r2
 2987 0222 83F00047 		eor	r7, r3, #-2147483648
 2988 0226 CDE90867 		strd	r6, [sp, #32]
 2989 022a DDE91623 		ldrd	r2, [sp, #88]
 2990 022e CDE90A23 		strd	r2, [sp, #40]
 2991              	.LBE5:
 2992 0232 DDE90823 		ldrd	r2, [sp, #32]
 2993 0236 9046     		mov	r8, r2
 2994 0238 83F00049 		eor	r9, r3, #-2147483648
 2995 023c CDE90489 		strd	r8, [sp, #16]
 2996 0240 DDE90A23 		ldrd	r2, [sp, #40]
 2997 0244 9246     		mov	r10, r2
 2998 0246 83F0004B 		eor	fp, r3, #-2147483648
 2999 024a CDE906AB 		strd	r10, [sp, #24]
 3000              	.LBB6:
 3001 024e DDE90823 		ldrd	r2, [sp, #32]
 3002 0252 1046     		mov	r0, r2
 3003 0254 1946     		mov	r1, r3
 3004 0256 FFF7FEFF 		bl	exp
 3005 025a CDE91401 		strd	r0, [sp, #80]
 3006 025e DDE90A23 		ldrd	r2, [sp, #40]
 3007 0262 1046     		mov	r0, r2
 3008 0264 1946     		mov	r1, r3
 3009 0266 FFF7FEFF 		bl	cos
 3010 026a DDE91423 		ldrd	r2, [sp, #80]
 3011 026e FFF7FEFF 		bl	__aeabi_dmul
 3012 0272 0246     		mov	r2, r0
 3013 0274 0B46     		mov	r3, r1
 3014 0276 CDE90823 		strd	r2, [sp, #32]
 3015 027a DDE90A23 		ldrd	r2, [sp, #40]
 3016 027e 1046     		mov	r0, r2
 3017 0280 1946     		mov	r1, r3
 3018 0282 FFF7FEFF 		bl	sin
 3019 0286 DDE91423 		ldrd	r2, [sp, #80]
 3020 028a FFF7FEFF 		bl	__aeabi_dmul
ARM GAS  /tmp/cceVa9lb.s 			page 54


 3021 028e 0246     		mov	r2, r0
 3022 0290 0B46     		mov	r3, r1
 3023 0292 CDE90A23 		strd	r2, [sp, #40]
 3024              	.LBE6:
 3025              	.LBB7:
 3026 0296 DDE90423 		ldrd	r2, [sp, #16]
 3027 029a 1046     		mov	r0, r2
 3028 029c 1946     		mov	r1, r3
 3029 029e FFF7FEFF 		bl	exp
 3030 02a2 CDE91201 		strd	r0, [sp, #72]
 3031 02a6 DDE90623 		ldrd	r2, [sp, #24]
 3032 02aa 1046     		mov	r0, r2
 3033 02ac 1946     		mov	r1, r3
 3034 02ae FFF7FEFF 		bl	cos
 3035 02b2 DDE91223 		ldrd	r2, [sp, #72]
 3036 02b6 FFF7FEFF 		bl	__aeabi_dmul
 3037 02ba 0246     		mov	r2, r0
 3038 02bc 0B46     		mov	r3, r1
 3039 02be CDE90423 		strd	r2, [sp, #16]
 3040 02c2 DDE90623 		ldrd	r2, [sp, #24]
 3041 02c6 1046     		mov	r0, r2
 3042 02c8 1946     		mov	r1, r3
 3043 02ca FFF7FEFF 		bl	sin
 3044 02ce DDE91223 		ldrd	r2, [sp, #72]
 3045 02d2 FFF7FEFF 		bl	__aeabi_dmul
 3046 02d6 0246     		mov	r2, r0
 3047 02d8 0B46     		mov	r3, r1
 3048 02da CDE90623 		strd	r2, [sp, #24]
 3049              	.LBE7:
 3050 02de DDE90801 		ldrd	r0, [sp, #32]
 3051 02e2 DDE90423 		ldrd	r2, [sp, #16]
 3052 02e6 FFF7FEFF 		bl	__aeabi_dsub
 3053 02ea 0246     		mov	r2, r0
 3054 02ec 0B46     		mov	r3, r1
 3055 02ee CDE90823 		strd	r2, [sp, #32]
 3056 02f2 DDE90A01 		ldrd	r0, [sp, #40]
 3057 02f6 DDE90623 		ldrd	r2, [sp, #24]
 3058 02fa FFF7FEFF 		bl	__aeabi_dsub
 3059 02fe 0246     		mov	r2, r0
 3060 0300 0B46     		mov	r3, r1
 3061 0302 CDE90A23 		strd	r2, [sp, #40]
 3062 0306 DDE90801 		ldrd	r0, [sp, #32]
 3063 030a 4FF00002 		mov	r2, #0
 3064 030e 584B     		ldr	r3, .L47+16
 3065 0310 FFF7FEFF 		bl	__aeabi_dmul
 3066 0314 0246     		mov	r2, r0
 3067 0316 0B46     		mov	r3, r1
 3068 0318 CDE90823 		strd	r2, [sp, #32]
 3069 031c DDE90A01 		ldrd	r0, [sp, #40]
 3070 0320 4FF00002 		mov	r2, #0
 3071 0324 524B     		ldr	r3, .L47+16
 3072 0326 FFF7FEFF 		bl	__aeabi_dmul
 3073 032a 0246     		mov	r2, r0
 3074 032c 0B46     		mov	r3, r1
 3075 032e CDE90A23 		strd	r2, [sp, #40]
 3076              	.LBB8:
 3077 0332 DDE90823 		ldrd	r2, [sp, #32]
ARM GAS  /tmp/cceVa9lb.s 			page 55


 3078 0336 CDE91023 		strd	r2, [sp, #64]
 3079 033a DDE90A23 		ldrd	r2, [sp, #40]
 3080 033e 0092     		str	r2, [sp]
 3081 0340 83F00043 		eor	r3, r3, #-2147483648
 3082 0344 0193     		str	r3, [sp, #4]
 3083 0346 9DED007B 		vldr.64	d7, [sp]
 3084 034a 8DED087B 		vstr.64	d7, [sp, #32]
 3085 034e DDE91023 		ldrd	r2, [sp, #64]
 3086 0352 CDE90A23 		strd	r2, [sp, #40]
 3087              	.LBE8:
 3088              	.LBE4:
 3089              		.loc 1 296 5 discriminator 3
 3090 0356 DDE90845 		ldrd	r4, [sp, #32]
 3091 035a 9DF99730 		ldrsb	r3, [sp, #151]
 3092 035e 454A     		ldr	r2, .L47+20
 3093 0360 9B00     		lsls	r3, r3, #2
 3094 0362 1344     		add	r3, r3, r2
 3095 0364 1B68     		ldr	r3, [r3]	@ float
 3096 0366 1846     		mov	r0, r3	@ float
 3097 0368 FFF7FEFF 		bl	__aeabi_f2d
 3098 036c 0246     		mov	r2, r0
 3099 036e 0B46     		mov	r3, r1
 3100 0370 2046     		mov	r0, r4
 3101 0372 2946     		mov	r1, r5
 3102 0374 FFF7FEFF 		bl	__aeabi_dmul
 3103 0378 0246     		mov	r2, r0
 3104 037a 0B46     		mov	r3, r1
 3105 037c CDE90823 		strd	r2, [sp, #32]
 3106 0380 DDE90A45 		ldrd	r4, [sp, #40]
 3107 0384 9DF99730 		ldrsb	r3, [sp, #151]
 3108 0388 3A4A     		ldr	r2, .L47+20
 3109 038a 9B00     		lsls	r3, r3, #2
 3110 038c 1344     		add	r3, r3, r2
 3111 038e 1B68     		ldr	r3, [r3]	@ float
 3112 0390 1846     		mov	r0, r3	@ float
 3113 0392 FFF7FEFF 		bl	__aeabi_f2d
 3114 0396 0246     		mov	r2, r0
 3115 0398 0B46     		mov	r3, r1
 3116 039a 2046     		mov	r0, r4
 3117 039c 2946     		mov	r1, r5
 3118 039e FFF7FEFF 		bl	__aeabi_dmul
 3119 03a2 0246     		mov	r2, r0
 3120 03a4 0B46     		mov	r3, r1
 3121 03a6 CDE90A23 		strd	r2, [sp, #40]
 3122              		.loc 1 297 5 discriminator 3
 3123 03aa DDE90C01 		ldrd	r0, [sp, #48]
 3124 03ae DDE90823 		ldrd	r2, [sp, #32]
 3125 03b2 FFF7FEFF 		bl	__aeabi_dadd
 3126 03b6 0246     		mov	r2, r0
 3127 03b8 0B46     		mov	r3, r1
 3128 03ba CDE90C23 		strd	r2, [sp, #48]
 3129 03be DDE90E01 		ldrd	r0, [sp, #56]
 3130 03c2 DDE90A23 		ldrd	r2, [sp, #40]
 3131 03c6 FFF7FEFF 		bl	__aeabi_dadd
 3132 03ca 0246     		mov	r2, r0
 3133 03cc 0B46     		mov	r3, r1
 3134 03ce CDE90E23 		strd	r2, [sp, #56]
ARM GAS  /tmp/cceVa9lb.s 			page 56


 3135              	.LBE3:
 3136              		.loc 1 292 23 discriminator 3
 3137 03d2 9DF99730 		ldrsb	r3, [sp, #151]
 3138 03d6 DBB2     		uxtb	r3, r3
 3139 03d8 0133     		adds	r3, r3, #1
 3140 03da DBB2     		uxtb	r3, r3
 3141 03dc 8DF89730 		strb	r3, [sp, #151]
 3142              	.L43:
 3143              		.loc 1 292 3 discriminator 1
 3144 03e0 9DF99730 		ldrsb	r3, [sp, #151]
 3145 03e4 022B     		cmp	r3, #2
 3146 03e6 7FF7E3AE 		ble	.L44
 3147              		.loc 1 299 3
 3148 03ea DDE90C01 		ldrd	r0, [sp, #48]
 3149 03ee 1CA3     		adr	r3, .L47
 3150 03f0 D3E90023 		ldrd	r2, [r3]
 3151 03f4 FFF7FEFF 		bl	__aeabi_dmul
 3152 03f8 0246     		mov	r2, r0
 3153 03fa 0B46     		mov	r3, r1
 3154 03fc CDE90C23 		strd	r2, [sp, #48]
 3155 0400 DDE90E01 		ldrd	r0, [sp, #56]
 3156 0404 16A3     		adr	r3, .L47
 3157 0406 D3E90023 		ldrd	r2, [r3]
 3158 040a FFF7FEFF 		bl	__aeabi_dmul
 3159 040e 0246     		mov	r2, r0
 3160 0410 0B46     		mov	r3, r1
 3161 0412 CDE90E23 		strd	r2, [sp, #56]
 3162              		.loc 1 300 30
 3163 0416 DDE90E01 		ldrd	r0, [sp, #56]
 3164              		.loc 1 300 26
 3165 041a 13A3     		adr	r3, .L47+8
 3166 041c D3E90023 		ldrd	r2, [r3]
 3167 0420 FFF7FEFF 		bl	__aeabi_dadd
 3168 0424 0246     		mov	r2, r0
 3169 0426 0B46     		mov	r3, r1
 3170              		.loc 1 300 13
 3171 0428 0399     		ldr	r1, [sp, #12]
 3172 042a C1E90223 		strd	r2, [r1, #8]
 3173              		.loc 1 301 32
 3174 042e DDE90C01 		ldrd	r0, [sp, #48]
 3175              		.loc 1 301 28
 3176 0432 4FF00002 		mov	r2, #0
 3177 0436 4FF00003 		mov	r3, #0
 3178 043a FFF7FEFF 		bl	__aeabi_dadd
 3179 043e 0246     		mov	r2, r0
 3180 0440 0B46     		mov	r3, r1
 3181              		.loc 1 301 14
 3182 0442 0399     		ldr	r1, [sp, #12]
 3183 0444 C1E90023 		strd	r2, [r1]
 3184              		.loc 1 304 17
 3185 0448 029B     		ldr	r3, [sp, #8]
 3186 044a D3E90423 		ldrd	r2, [r3, #16]
 3187              		.loc 1 304 12
 3188 044e 0399     		ldr	r1, [sp, #12]
 3189 0450 C1E90423 		strd	r2, [r1, #16]
 3190              		.loc 1 305 1
 3191 0454 00BF     		nop
ARM GAS  /tmp/cceVa9lb.s 			page 57


 3192 0456 27B0     		add	sp, sp, #156
 3193              		.cfi_def_cfa_offset 36
 3194              		@ sp needed
 3195 0458 BDE8F08F 		pop	{r4, r5, r6, r7, r8, r9, r10, fp, pc}
 3196              	.L48:
 3197 045c AFF30080 		.align	3
 3198              	.L47:
 3199 0460 585BB16F 		.word	1873894232
 3200 0464 28525841 		.word	1096307240
 3201 0468 00000000 		.word	0
 3202 046c 80841E41 		.word	1092519040
 3203 0470 0000E0BF 		.word	-1075838976
 3204 0474 00000000 		.word	serie_coeff_proj_mercator
 3205              		.cfi_endproc
 3206              	.LFE70:
 3207              		.size	utm_of_lla_d, .-utm_of_lla_d
 3208              		.section	.text.lla_of_utm_d,"ax",%progbits
 3209              		.align	1
 3210              		.p2align 4,,15
 3211              		.global	lla_of_utm_d
 3212              		.syntax unified
 3213              		.thumb
 3214              		.thumb_func
 3215              		.fpu fpv4-sp-d16
 3216              		.type	lla_of_utm_d, %function
 3217              	lla_of_utm_d:
 3218              	.LFB71:
 3219              		.loc 1 312 1
 3220              		.cfi_startproc
 3221              		@ args = 0, pretend = 0, frame = 136
 3222              		@ frame_needed = 0, uses_anonymous_args = 0
 3223 0000 2DE9F04F 		push	{r4, r5, r6, r7, r8, r9, r10, fp, lr}
 3224              		.cfi_def_cfa_offset 36
 3225              		.cfi_offset 4, -36
 3226              		.cfi_offset 5, -32
 3227              		.cfi_offset 6, -28
 3228              		.cfi_offset 7, -24
 3229              		.cfi_offset 8, -20
 3230              		.cfi_offset 9, -16
 3231              		.cfi_offset 10, -12
 3232              		.cfi_offset 11, -8
 3233              		.cfi_offset 14, -4
 3234 0004 A5B0     		sub	sp, sp, #148
 3235              		.cfi_def_cfa_offset 184
 3236 0006 0590     		str	r0, [sp, #20]
 3237 0008 0491     		str	r1, [sp, #16]
 3238              		.loc 1 313 38
 3239 000a 049B     		ldr	r3, [sp, #16]
 3240 000c D3E90023 		ldrd	r2, [r3]
 3241              		.loc 1 313 22
 3242 0010 CDE90E23 		strd	r2, [sp, #56]
 3243              		.loc 1 313 56
 3244 0014 049B     		ldr	r3, [sp, #16]
 3245 0016 D3E90201 		ldrd	r0, [r3, #8]
 3246              		.loc 1 313 63
 3247 001a 1CA3     		adr	r3, .L52+12
 3248 001c D3E90023 		ldrd	r2, [r3]
ARM GAS  /tmp/cceVa9lb.s 			page 58


 3249 0020 FFF7FEFF 		bl	__aeabi_dsub
 3250 0024 0246     		mov	r2, r0
 3251 0026 0B46     		mov	r3, r1
 3252              		.loc 1 313 22
 3253 0028 CDE91023 		strd	r2, [sp, #64]
 3254              		.loc 1 314 51
 3255 002c 164B     		ldr	r3, .L52+8
 3256 002e 1846     		mov	r0, r3	@ float
 3257 0030 FFF7FEFF 		bl	__aeabi_f2d
 3258 0034 0246     		mov	r2, r0
 3259 0036 0B46     		mov	r3, r1
 3260              		.loc 1 314 10
 3261 0038 11A1     		adr	r1, .L52
 3262 003a D1E90001 		ldrd	r0, [r1]
 3263 003e FFF7FEFF 		bl	__aeabi_ddiv
 3264 0042 0246     		mov	r2, r0
 3265 0044 0B46     		mov	r3, r1
 3266 0046 CDE92023 		strd	r2, [sp, #128]
 3267              		.loc 1 315 3
 3268 004a DDE90E01 		ldrd	r0, [sp, #56]
 3269 004e DDE92023 		ldrd	r2, [sp, #128]
 3270 0052 FFF7FEFF 		bl	__aeabi_dmul
 3271 0056 0246     		mov	r2, r0
 3272 0058 0B46     		mov	r3, r1
 3273 005a CDE90E23 		strd	r2, [sp, #56]
 3274 005e DDE91001 		ldrd	r0, [sp, #64]
 3275 0062 DDE92023 		ldrd	r2, [sp, #128]
 3276 0066 FFF7FEFF 		bl	__aeabi_dmul
 3277 006a 0246     		mov	r2, r0
 3278 006c 0B46     		mov	r3, r1
 3279 006e CDE91023 		strd	r2, [sp, #64]
 3280              		.loc 1 318 9
 3281 0072 0123     		movs	r3, #1
 3282 0074 8DF88F30 		strb	r3, [sp, #143]
 3283              		.loc 1 318 3
 3284 0078 1CE1     		b	.L50
 3285              	.L53:
 3286 007a 00BFAFF3 		.align	3
 3286      0080
 3287              	.L52:
 3288 0080 9E626D88 		.word	-2006097250
 3289 0084 440D853E 		.word	1048907076
 3290 0088 2E927F3F 		.word	1065325102
 3291 008c 00000000 		.word	0
 3292 0090 80841E41 		.word	1092519040
 3293              	.L51:
 3294              	.LBB9:
 3295              		.loc 1 321 5 discriminator 3
 3296 0094 DDE90E45 		ldrd	r4, [sp, #56]
 3297 0098 9DF98F30 		ldrsb	r3, [sp, #143]
 3298 009c 1846     		mov	r0, r3
 3299 009e FFF7FEFF 		bl	__aeabi_i2d
 3300 00a2 0246     		mov	r2, r0
 3301 00a4 0B46     		mov	r3, r1
 3302 00a6 FFF7FEFF 		bl	__aeabi_dadd
 3303 00aa 0246     		mov	r2, r0
 3304 00ac 0B46     		mov	r3, r1
ARM GAS  /tmp/cceVa9lb.s 			page 59


 3305 00ae 2046     		mov	r0, r4
 3306 00b0 2946     		mov	r1, r5
 3307 00b2 FFF7FEFF 		bl	__aeabi_dmul
 3308 00b6 0246     		mov	r2, r0
 3309 00b8 0B46     		mov	r3, r1
 3310 00ba CDE90A23 		strd	r2, [sp, #40]
 3311 00be DDE91045 		ldrd	r4, [sp, #64]
 3312 00c2 9DF98F30 		ldrsb	r3, [sp, #143]
 3313 00c6 1846     		mov	r0, r3
 3314 00c8 FFF7FEFF 		bl	__aeabi_i2d
 3315 00cc 0246     		mov	r2, r0
 3316 00ce 0B46     		mov	r3, r1
 3317 00d0 FFF7FEFF 		bl	__aeabi_dadd
 3318 00d4 0246     		mov	r2, r0
 3319 00d6 0B46     		mov	r3, r1
 3320 00d8 2046     		mov	r0, r4
 3321 00da 2946     		mov	r1, r5
 3322 00dc FFF7FEFF 		bl	__aeabi_dmul
 3323 00e0 0246     		mov	r2, r0
 3324 00e2 0B46     		mov	r3, r1
 3325 00e4 CDE90C23 		strd	r2, [sp, #48]
 3326              	.LBB10:
 3327              	.LBB11:
 3328              		.loc 1 322 5 discriminator 3
 3329 00e8 DDE90A23 		ldrd	r2, [sp, #40]
 3330 00ec CDE91823 		strd	r2, [sp, #96]
 3331 00f0 DDE90C23 		ldrd	r2, [sp, #48]
 3332 00f4 1646     		mov	r6, r2
 3333 00f6 83F00047 		eor	r7, r3, #-2147483648
 3334 00fa CDE90A67 		strd	r6, [sp, #40]
 3335 00fe DDE91823 		ldrd	r2, [sp, #96]
 3336 0102 CDE90C23 		strd	r2, [sp, #48]
 3337              	.LBE11:
 3338 0106 DDE90A23 		ldrd	r2, [sp, #40]
 3339 010a 9046     		mov	r8, r2
 3340 010c 83F00049 		eor	r9, r3, #-2147483648
 3341 0110 CDE90689 		strd	r8, [sp, #24]
 3342 0114 DDE90C23 		ldrd	r2, [sp, #48]
 3343 0118 9246     		mov	r10, r2
 3344 011a 83F0004B 		eor	fp, r3, #-2147483648
 3345 011e CDE908AB 		strd	r10, [sp, #32]
 3346              	.LBB12:
 3347 0122 DDE90A23 		ldrd	r2, [sp, #40]
 3348 0126 1046     		mov	r0, r2
 3349 0128 1946     		mov	r1, r3
 3350 012a FFF7FEFF 		bl	exp
 3351 012e CDE91601 		strd	r0, [sp, #88]
 3352 0132 DDE90C23 		ldrd	r2, [sp, #48]
 3353 0136 1046     		mov	r0, r2
 3354 0138 1946     		mov	r1, r3
 3355 013a FFF7FEFF 		bl	cos
 3356 013e DDE91623 		ldrd	r2, [sp, #88]
 3357 0142 FFF7FEFF 		bl	__aeabi_dmul
 3358 0146 0246     		mov	r2, r0
 3359 0148 0B46     		mov	r3, r1
 3360 014a CDE90A23 		strd	r2, [sp, #40]
 3361 014e DDE90C23 		ldrd	r2, [sp, #48]
ARM GAS  /tmp/cceVa9lb.s 			page 60


 3362 0152 1046     		mov	r0, r2
 3363 0154 1946     		mov	r1, r3
 3364 0156 FFF7FEFF 		bl	sin
 3365 015a DDE91623 		ldrd	r2, [sp, #88]
 3366 015e FFF7FEFF 		bl	__aeabi_dmul
 3367 0162 0246     		mov	r2, r0
 3368 0164 0B46     		mov	r3, r1
 3369 0166 CDE90C23 		strd	r2, [sp, #48]
 3370              	.LBE12:
 3371              	.LBB13:
 3372 016a DDE90623 		ldrd	r2, [sp, #24]
 3373 016e 1046     		mov	r0, r2
 3374 0170 1946     		mov	r1, r3
 3375 0172 FFF7FEFF 		bl	exp
 3376 0176 CDE91401 		strd	r0, [sp, #80]
 3377 017a DDE90823 		ldrd	r2, [sp, #32]
 3378 017e 1046     		mov	r0, r2
 3379 0180 1946     		mov	r1, r3
 3380 0182 FFF7FEFF 		bl	cos
 3381 0186 DDE91423 		ldrd	r2, [sp, #80]
 3382 018a FFF7FEFF 		bl	__aeabi_dmul
 3383 018e 0246     		mov	r2, r0
 3384 0190 0B46     		mov	r3, r1
 3385 0192 CDE90623 		strd	r2, [sp, #24]
 3386 0196 DDE90823 		ldrd	r2, [sp, #32]
 3387 019a 1046     		mov	r0, r2
 3388 019c 1946     		mov	r1, r3
 3389 019e FFF7FEFF 		bl	sin
 3390 01a2 DDE91423 		ldrd	r2, [sp, #80]
 3391 01a6 FFF7FEFF 		bl	__aeabi_dmul
 3392 01aa 0246     		mov	r2, r0
 3393 01ac 0B46     		mov	r3, r1
 3394 01ae CDE90823 		strd	r2, [sp, #32]
 3395              	.LBE13:
 3396 01b2 DDE90A01 		ldrd	r0, [sp, #40]
 3397 01b6 DDE90623 		ldrd	r2, [sp, #24]
 3398 01ba FFF7FEFF 		bl	__aeabi_dsub
 3399 01be 0246     		mov	r2, r0
 3400 01c0 0B46     		mov	r3, r1
 3401 01c2 CDE90A23 		strd	r2, [sp, #40]
 3402 01c6 DDE90C01 		ldrd	r0, [sp, #48]
 3403 01ca DDE90823 		ldrd	r2, [sp, #32]
 3404 01ce FFF7FEFF 		bl	__aeabi_dsub
 3405 01d2 0246     		mov	r2, r0
 3406 01d4 0B46     		mov	r3, r1
 3407 01d6 CDE90C23 		strd	r2, [sp, #48]
 3408 01da DDE90A01 		ldrd	r0, [sp, #40]
 3409 01de 4FF00002 		mov	r2, #0
 3410 01e2 774B     		ldr	r3, .L54+24
 3411 01e4 FFF7FEFF 		bl	__aeabi_dmul
 3412 01e8 0246     		mov	r2, r0
 3413 01ea 0B46     		mov	r3, r1
 3414 01ec CDE90A23 		strd	r2, [sp, #40]
 3415 01f0 DDE90C01 		ldrd	r0, [sp, #48]
 3416 01f4 4FF00002 		mov	r2, #0
 3417 01f8 714B     		ldr	r3, .L54+24
 3418 01fa FFF7FEFF 		bl	__aeabi_dmul
ARM GAS  /tmp/cceVa9lb.s 			page 61


 3419 01fe 0246     		mov	r2, r0
 3420 0200 0B46     		mov	r3, r1
 3421 0202 CDE90C23 		strd	r2, [sp, #48]
 3422              	.LBB14:
 3423 0206 DDE90A23 		ldrd	r2, [sp, #40]
 3424 020a CDE91223 		strd	r2, [sp, #72]
 3425 020e DDE90C23 		ldrd	r2, [sp, #48]
 3426 0212 0292     		str	r2, [sp, #8]
 3427 0214 83F00043 		eor	r3, r3, #-2147483648
 3428 0218 0393     		str	r3, [sp, #12]
 3429 021a 9DED027B 		vldr.64	d7, [sp, #8]
 3430 021e 8DED0A7B 		vstr.64	d7, [sp, #40]
 3431 0222 DDE91223 		ldrd	r2, [sp, #72]
 3432 0226 CDE90C23 		strd	r2, [sp, #48]
 3433              	.LBE14:
 3434              	.LBE10:
 3435              		.loc 1 323 5 discriminator 3
 3436 022a DDE90A45 		ldrd	r4, [sp, #40]
 3437 022e 9DF98F30 		ldrsb	r3, [sp, #143]
 3438 0232 644A     		ldr	r2, .L54+28
 3439 0234 9B00     		lsls	r3, r3, #2
 3440 0236 1344     		add	r3, r3, r2
 3441 0238 1B68     		ldr	r3, [r3]	@ float
 3442 023a 1846     		mov	r0, r3	@ float
 3443 023c FFF7FEFF 		bl	__aeabi_f2d
 3444 0240 0246     		mov	r2, r0
 3445 0242 0B46     		mov	r3, r1
 3446 0244 2046     		mov	r0, r4
 3447 0246 2946     		mov	r1, r5
 3448 0248 FFF7FEFF 		bl	__aeabi_dmul
 3449 024c 0246     		mov	r2, r0
 3450 024e 0B46     		mov	r3, r1
 3451 0250 CDE90A23 		strd	r2, [sp, #40]
 3452 0254 DDE90C45 		ldrd	r4, [sp, #48]
 3453 0258 9DF98F30 		ldrsb	r3, [sp, #143]
 3454 025c 594A     		ldr	r2, .L54+28
 3455 025e 9B00     		lsls	r3, r3, #2
 3456 0260 1344     		add	r3, r3, r2
 3457 0262 1B68     		ldr	r3, [r3]	@ float
 3458 0264 1846     		mov	r0, r3	@ float
 3459 0266 FFF7FEFF 		bl	__aeabi_f2d
 3460 026a 0246     		mov	r2, r0
 3461 026c 0B46     		mov	r3, r1
 3462 026e 2046     		mov	r0, r4
 3463 0270 2946     		mov	r1, r5
 3464 0272 FFF7FEFF 		bl	__aeabi_dmul
 3465 0276 0246     		mov	r2, r0
 3466 0278 0B46     		mov	r3, r1
 3467 027a CDE90C23 		strd	r2, [sp, #48]
 3468              		.loc 1 324 5 discriminator 3
 3469 027e DDE90E01 		ldrd	r0, [sp, #56]
 3470 0282 DDE90A23 		ldrd	r2, [sp, #40]
 3471 0286 FFF7FEFF 		bl	__aeabi_dsub
 3472 028a 0246     		mov	r2, r0
 3473 028c 0B46     		mov	r3, r1
 3474 028e CDE90E23 		strd	r2, [sp, #56]
 3475 0292 DDE91001 		ldrd	r0, [sp, #64]
ARM GAS  /tmp/cceVa9lb.s 			page 62


 3476 0296 DDE90C23 		ldrd	r2, [sp, #48]
 3477 029a FFF7FEFF 		bl	__aeabi_dsub
 3478 029e 0246     		mov	r2, r0
 3479 02a0 0B46     		mov	r3, r1
 3480 02a2 CDE91023 		strd	r2, [sp, #64]
 3481              	.LBE9:
 3482              		.loc 1 318 20 discriminator 3
 3483 02a6 9DF98F30 		ldrsb	r3, [sp, #143]
 3484 02aa DBB2     		uxtb	r3, r3
 3485 02ac 0133     		adds	r3, r3, #1
 3486 02ae DBB2     		uxtb	r3, r3
 3487 02b0 8DF88F30 		strb	r3, [sp, #143]
 3488              	.L50:
 3489              		.loc 1 318 3 discriminator 1
 3490 02b4 9DF98F30 		ldrsb	r3, [sp, #143]
 3491 02b8 012B     		cmp	r3, #1
 3492 02ba 7FF7EBAE 		ble	.L51
 3493              		.loc 1 327 21
 3494 02be 049B     		ldr	r3, [sp, #16]
 3495 02c0 1B7E     		ldrb	r3, [r3, #24]	@ zero_extendqisi2
 3496 02c2 5A1E     		subs	r2, r3, #1
 3497 02c4 1346     		mov	r3, r2
 3498 02c6 5B00     		lsls	r3, r3, #1
 3499 02c8 1344     		add	r3, r3, r2
 3500 02ca 5B00     		lsls	r3, r3, #1
 3501 02cc B13B     		subs	r3, r3, #177
 3502 02ce 1846     		mov	r0, r3
 3503 02d0 FFF7FEFF 		bl	__aeabi_i2d
 3504              		.loc 1 327 10
 3505 02d4 34A3     		adr	r3, .L54
 3506 02d6 D3E90023 		ldrd	r2, [r3]
 3507 02da FFF7FEFF 		bl	__aeabi_dmul
 3508 02de 0246     		mov	r2, r0
 3509 02e0 0B46     		mov	r3, r1
 3510 02e2 CDE91E23 		strd	r2, [sp, #120]
 3511              		.loc 1 328 30
 3512 02e6 DDE91023 		ldrd	r2, [sp, #64]
 3513 02ea 1046     		mov	r0, r2
 3514 02ec 1946     		mov	r1, r3
 3515 02ee FFF7FEFF 		bl	sinh
 3516 02f2 0446     		mov	r4, r0
 3517 02f4 0D46     		mov	r5, r1
 3518              		.loc 1 328 42
 3519 02f6 DDE90E23 		ldrd	r2, [sp, #56]
 3520 02fa 1046     		mov	r0, r2
 3521 02fc 1946     		mov	r1, r3
 3522 02fe FFF7FEFF 		bl	cos
 3523 0302 0246     		mov	r2, r0
 3524 0304 0B46     		mov	r3, r1
 3525              		.loc 1 328 25
 3526 0306 2046     		mov	r0, r4
 3527 0308 2946     		mov	r1, r5
 3528 030a FFF7FEFF 		bl	__aeabi_ddiv
 3529 030e 0246     		mov	r2, r0
 3530 0310 0B46     		mov	r3, r1
 3531 0312 1046     		mov	r0, r2
 3532 0314 1946     		mov	r1, r3
ARM GAS  /tmp/cceVa9lb.s 			page 63


 3533 0316 FFF7FEFF 		bl	atan
 3534              		.loc 1 328 23
 3535 031a DDE91E23 		ldrd	r2, [sp, #120]
 3536 031e FFF7FEFF 		bl	__aeabi_dadd
 3537 0322 0246     		mov	r2, r0
 3538 0324 0B46     		mov	r3, r1
 3539              		.loc 1 328 12
 3540 0326 0599     		ldr	r1, [sp, #20]
 3541 0328 C1E90223 		strd	r2, [r1, #8]
 3542              		.loc 1 329 21
 3543 032c DDE90E23 		ldrd	r2, [sp, #56]
 3544 0330 1046     		mov	r0, r2
 3545 0332 1946     		mov	r1, r3
 3546 0334 FFF7FEFF 		bl	sin
 3547 0338 0446     		mov	r4, r0
 3548 033a 0D46     		mov	r5, r1
 3549              		.loc 1 329 32
 3550 033c DDE91023 		ldrd	r2, [sp, #64]
 3551 0340 1046     		mov	r0, r2
 3552 0342 1946     		mov	r1, r3
 3553 0344 FFF7FEFF 		bl	cosh
 3554 0348 0246     		mov	r2, r0
 3555 034a 0B46     		mov	r3, r1
 3556              		.loc 1 329 16
 3557 034c 2046     		mov	r0, r4
 3558 034e 2946     		mov	r1, r5
 3559 0350 FFF7FEFF 		bl	__aeabi_ddiv
 3560 0354 0246     		mov	r2, r0
 3561 0356 0B46     		mov	r3, r1
 3562 0358 1046     		mov	r0, r2
 3563 035a 1946     		mov	r1, r3
 3564 035c FFF7FEFF 		bl	asin
 3565 0360 CDE91C01 		strd	r0, [sp, #112]
 3566              		.loc 1 330 15
 3567 0364 DDE91C01 		ldrd	r0, [sp, #112]
 3568 0368 FFF7FEFF 		bl	isometric_latitude_fast_d
 3569 036c CDE91A01 		strd	r0, [sp, #104]
 3570              		.loc 1 331 14
 3571 0370 0FA3     		adr	r3, .L54+8
 3572 0372 D3E90023 		ldrd	r2, [r3]
 3573 0376 CDE90023 		strd	r2, [sp]
 3574 037a 0FA3     		adr	r3, .L54+16
 3575 037c D3E90023 		ldrd	r2, [r3]
 3576 0380 DDE91A01 		ldrd	r0, [sp, #104]
 3577 0384 FFF7FEFF 		bl	inverse_isometric_latitude_d
 3578 0388 0246     		mov	r2, r0
 3579 038a 0B46     		mov	r3, r1
 3580              		.loc 1 331 12
 3581 038c 0599     		ldr	r1, [sp, #20]
 3582 038e C1E90023 		strd	r2, [r1]
 3583              		.loc 1 334 17
 3584 0392 049B     		ldr	r3, [sp, #16]
 3585 0394 D3E90423 		ldrd	r2, [r3, #16]
 3586              		.loc 1 334 12
 3587 0398 0599     		ldr	r1, [sp, #20]
 3588 039a C1E90423 		strd	r2, [r1, #16]
 3589              		.loc 1 335 1
ARM GAS  /tmp/cceVa9lb.s 			page 64


 3590 039e 00BF     		nop
 3591 03a0 25B0     		add	sp, sp, #148
 3592              		.cfi_def_cfa_offset 36
 3593              		@ sp needed
 3594 03a2 BDE8F08F 		pop	{r4, r5, r6, r7, r8, r9, r10, fp, pc}
 3595              	.L55:
 3596 03a6 00BF     		.align	3
 3597              	.L54:
 3598 03a8 399D52A2 		.word	-1571644103
 3599 03ac 46DF913F 		.word	1066524486
 3600 03b0 3A8C30E2 		.word	-500134854
 3601 03b4 8E79453E 		.word	1044740494
 3602 03b8 37B2C93D 		.word	1036628535
 3603 03bc 1AF2B43F 		.word	1068823066
 3604 03c0 0000E0BF 		.word	-1075838976
 3605 03c4 00000000 		.word	serie_coeff_proj_mercator_inverse
 3606              		.cfi_endproc
 3607              	.LFE71:
 3608              		.size	lla_of_utm_d, .-lla_of_utm_d
 3609              		.section	.rodata.f.3,"a"
 3610              		.align	3
 3611              		.type	f.3, %object
 3612              		.size	f.3, 8
 3613              	f.3:
 3614 0000 28E1F384 		.word	-2064391896
 3615 0004 5A776B3F 		.word	1064007514
 3616              		.section	.rodata.a.2,"a"
 3617              		.align	3
 3618              		.type	a.2, %object
 3619              		.size	a.2, 8
 3620              	a.2:
 3621 0000 00000040 		.word	1073741824
 3622 0004 A6545841 		.word	1096307878
 3623              		.section	.rodata.f.1,"a"
 3624              		.align	3
 3625              		.type	f.1, %object
 3626              		.size	f.1, 8
 3627              	f.1:
 3628 0000 28E1F384 		.word	-2064391896
 3629 0004 5A776B3F 		.word	1064007514
 3630              		.section	.rodata.a.0,"a"
 3631              		.align	3
 3632              		.type	a.0, %object
 3633              		.size	a.0, 8
 3634              	a.0:
 3635 0000 00000040 		.word	1073741824
 3636 0004 A6545841 		.word	1096307878
 3637              		.text
 3638              	.Letext0:
 3639              		.file 2 "/usr/lib/gcc/arm-none-eabi/10.3.1/include/stdint.h"
 3640              		.file 3 "math/pprz_algebra_double.h"
 3641              		.file 4 "math/pprz_geodetic_double.h"
 3642              		.file 5 "./math/pprz_geodetic_utm.h"