ARM GAS  /tmp/cceRHmPh.s 			page 1


   1              		.cpu cortex-m4
   2              		.eabi_attribute 27, 1
   3              		.eabi_attribute 20, 1
   4              		.eabi_attribute 21, 1
   5              		.eabi_attribute 23, 3
   6              		.eabi_attribute 24, 1
   7              		.eabi_attribute 25, 1
   8              		.eabi_attribute 26, 1
   9              		.eabi_attribute 30, 6
  10              		.eabi_attribute 34, 1
  11              		.eabi_attribute 18, 4
  12              		.file	"pprz_geodetic_float.c"
  13              		.text
  14              	.Ltext0:
  15              		.cfi_sections	.debug_frame
  16              		.section	.text.ltp_def_from_ecef_f,"ax",%progbits
  17              		.align	1
  18              		.p2align 4,,15
  19              		.global	ltp_def_from_ecef_f
  20              		.arch armv7e-m
  21              		.syntax unified
  22              		.thumb
  23              		.thumb_func
  24              		.fpu fpv4-sp-d16
  25              		.type	ltp_def_from_ecef_f, %function
  26              	ltp_def_from_ecef_f:
  27              	.LFB52:
  28              		.file 1 "math/pprz_geodetic_float.c"
  29              		.loc 1 37 1
  30              		.cfi_startproc
  31              		@ args = 0, pretend = 0, frame = 24
  32              		@ frame_needed = 0, uses_anonymous_args = 0
  33 0000 00B5     		push	{lr}
  34              		.cfi_def_cfa_offset 4
  35              		.cfi_offset 14, -4
  36 0002 87B0     		sub	sp, sp, #28
  37              		.cfi_def_cfa_offset 32
  38 0004 0190     		str	r0, [sp, #4]
  39 0006 0091     		str	r1, [sp]
  40              		.loc 1 39 3
  41 0008 009B     		ldr	r3, [sp]
  42 000a 1A68     		ldr	r2, [r3]	@ float
  43 000c 019B     		ldr	r3, [sp, #4]
  44 000e 1A60     		str	r2, [r3]	@ float
  45 0010 009B     		ldr	r3, [sp]
  46 0012 5A68     		ldr	r2, [r3, #4]	@ float
  47 0014 019B     		ldr	r3, [sp, #4]
  48 0016 5A60     		str	r2, [r3, #4]	@ float
  49 0018 009B     		ldr	r3, [sp]
  50 001a 9A68     		ldr	r2, [r3, #8]	@ float
  51 001c 019B     		ldr	r3, [sp, #4]
  52 001e 9A60     		str	r2, [r3, #8]	@ float
  53              		.loc 1 41 3
  54 0020 019B     		ldr	r3, [sp, #4]
  55 0022 0C33     		adds	r3, r3, #12
  56 0024 019A     		ldr	r2, [sp, #4]
  57 0026 1146     		mov	r1, r2
ARM GAS  /tmp/cceRHmPh.s 			page 2


  58 0028 1846     		mov	r0, r3
  59 002a FFF7FEFF 		bl	lla_of_ecef_f
  60              		.loc 1 43 25
  61 002e 019B     		ldr	r3, [sp, #4]
  62 0030 DB68     		ldr	r3, [r3, #12]	@ float
  63 0032 1846     		mov	r0, r3	@ float
  64 0034 FFF7FEFF 		bl	sinf
  65 0038 0590     		str	r0, [sp, #20]	@ float
  66              		.loc 1 44 25
  67 003a 019B     		ldr	r3, [sp, #4]
  68 003c DB68     		ldr	r3, [r3, #12]	@ float
  69 003e 1846     		mov	r0, r3	@ float
  70 0040 FFF7FEFF 		bl	cosf
  71 0044 0490     		str	r0, [sp, #16]	@ float
  72              		.loc 1 45 25
  73 0046 019B     		ldr	r3, [sp, #4]
  74 0048 1B69     		ldr	r3, [r3, #16]	@ float
  75 004a 1846     		mov	r0, r3	@ float
  76 004c FFF7FEFF 		bl	sinf
  77 0050 0390     		str	r0, [sp, #12]	@ float
  78              		.loc 1 46 25
  79 0052 019B     		ldr	r3, [sp, #4]
  80 0054 1B69     		ldr	r3, [r3, #16]	@ float
  81 0056 1846     		mov	r0, r3	@ float
  82 0058 FFF7FEFF 		bl	cosf
  83 005c 0290     		str	r0, [sp, #8]	@ float
  84              		.loc 1 47 27
  85 005e DDED037A 		vldr.32	s15, [sp, #12]
  86 0062 F1EE677A 		vneg.f32	s15, s15
  87              		.loc 1 47 25
  88 0066 019B     		ldr	r3, [sp, #4]
  89 0068 C3ED067A 		vstr.32	s15, [r3, #24]
  90              		.loc 1 48 25
  91 006c 019B     		ldr	r3, [sp, #4]
  92 006e 029A     		ldr	r2, [sp, #8]	@ float
  93 0070 DA61     		str	r2, [r3, #28]	@ float
  94              		.loc 1 50 25
  95 0072 019B     		ldr	r3, [sp, #4]
  96 0074 4FF00002 		mov	r2, #0
  97 0078 1A62     		str	r2, [r3, #32]	@ float
  98              		.loc 1 51 27
  99 007a DDED057A 		vldr.32	s15, [sp, #20]
 100 007e B1EE677A 		vneg.f32	s14, s15
 101              		.loc 1 51 36
 102 0082 DDED027A 		vldr.32	s15, [sp, #8]
 103 0086 67EE277A 		vmul.f32	s15, s14, s15
 104              		.loc 1 51 25
 105 008a 019B     		ldr	r3, [sp, #4]
 106 008c C3ED097A 		vstr.32	s15, [r3, #36]
 107              		.loc 1 52 27
 108 0090 DDED057A 		vldr.32	s15, [sp, #20]
 109 0094 B1EE677A 		vneg.f32	s14, s15
 110              		.loc 1 52 36
 111 0098 DDED037A 		vldr.32	s15, [sp, #12]
 112 009c 67EE277A 		vmul.f32	s15, s14, s15
 113              		.loc 1 52 25
 114 00a0 019B     		ldr	r3, [sp, #4]
ARM GAS  /tmp/cceRHmPh.s 			page 3


 115 00a2 C3ED0A7A 		vstr.32	s15, [r3, #40]
 116              		.loc 1 53 25
 117 00a6 019B     		ldr	r3, [sp, #4]
 118 00a8 049A     		ldr	r2, [sp, #16]	@ float
 119 00aa DA62     		str	r2, [r3, #44]	@ float
 120              		.loc 1 54 36
 121 00ac 9DED047A 		vldr.32	s14, [sp, #16]
 122 00b0 DDED027A 		vldr.32	s15, [sp, #8]
 123 00b4 67EE277A 		vmul.f32	s15, s14, s15
 124              		.loc 1 54 25
 125 00b8 019B     		ldr	r3, [sp, #4]
 126 00ba C3ED0C7A 		vstr.32	s15, [r3, #48]
 127              		.loc 1 55 36
 128 00be 9DED047A 		vldr.32	s14, [sp, #16]
 129 00c2 DDED037A 		vldr.32	s15, [sp, #12]
 130 00c6 67EE277A 		vmul.f32	s15, s14, s15
 131              		.loc 1 55 25
 132 00ca 019B     		ldr	r3, [sp, #4]
 133 00cc C3ED0D7A 		vstr.32	s15, [r3, #52]
 134              		.loc 1 56 25
 135 00d0 019B     		ldr	r3, [sp, #4]
 136 00d2 059A     		ldr	r2, [sp, #20]	@ float
 137 00d4 9A63     		str	r2, [r3, #56]	@ float
 138              		.loc 1 58 1
 139 00d6 00BF     		nop
 140 00d8 07B0     		add	sp, sp, #28
 141              		.cfi_def_cfa_offset 4
 142              		@ sp needed
 143 00da 5DF804FB 		ldr	pc, [sp], #4
 144              		.cfi_endproc
 145              	.LFE52:
 146              		.size	ltp_def_from_ecef_f, .-ltp_def_from_ecef_f
 147 00de 00BF     		.section	.text.ltp_def_from_lla_f,"ax",%progbits
 148              		.align	1
 149              		.p2align 4,,15
 150              		.global	ltp_def_from_lla_f
 151              		.syntax unified
 152              		.thumb
 153              		.thumb_func
 154              		.fpu fpv4-sp-d16
 155              		.type	ltp_def_from_lla_f, %function
 156              	ltp_def_from_lla_f:
 157              	.LFB53:
 158              		.loc 1 61 1
 159              		.cfi_startproc
 160              		@ args = 0, pretend = 0, frame = 24
 161              		@ frame_needed = 0, uses_anonymous_args = 0
 162 0000 00B5     		push	{lr}
 163              		.cfi_def_cfa_offset 4
 164              		.cfi_offset 14, -4
 165 0002 87B0     		sub	sp, sp, #28
 166              		.cfi_def_cfa_offset 32
 167 0004 0190     		str	r0, [sp, #4]
 168 0006 0091     		str	r1, [sp]
 169              		.loc 1 63 3
 170 0008 009B     		ldr	r3, [sp]
 171 000a 1A68     		ldr	r2, [r3]	@ float
ARM GAS  /tmp/cceRHmPh.s 			page 4


 172 000c 019B     		ldr	r3, [sp, #4]
 173 000e DA60     		str	r2, [r3, #12]	@ float
 174 0010 009B     		ldr	r3, [sp]
 175 0012 5A68     		ldr	r2, [r3, #4]	@ float
 176 0014 019B     		ldr	r3, [sp, #4]
 177 0016 1A61     		str	r2, [r3, #16]	@ float
 178 0018 009B     		ldr	r3, [sp]
 179 001a 9A68     		ldr	r2, [r3, #8]	@ float
 180 001c 019B     		ldr	r3, [sp, #4]
 181 001e 5A61     		str	r2, [r3, #20]	@ float
 182              		.loc 1 65 3
 183 0020 019A     		ldr	r2, [sp, #4]
 184 0022 019B     		ldr	r3, [sp, #4]
 185 0024 0C33     		adds	r3, r3, #12
 186 0026 1946     		mov	r1, r3
 187 0028 1046     		mov	r0, r2
 188 002a FFF7FEFF 		bl	ecef_of_lla_f
 189              		.loc 1 68 25
 190 002e 019B     		ldr	r3, [sp, #4]
 191 0030 DB68     		ldr	r3, [r3, #12]	@ float
 192 0032 1846     		mov	r0, r3	@ float
 193 0034 FFF7FEFF 		bl	sinf
 194 0038 0590     		str	r0, [sp, #20]	@ float
 195              		.loc 1 69 25
 196 003a 019B     		ldr	r3, [sp, #4]
 197 003c DB68     		ldr	r3, [r3, #12]	@ float
 198 003e 1846     		mov	r0, r3	@ float
 199 0040 FFF7FEFF 		bl	cosf
 200 0044 0490     		str	r0, [sp, #16]	@ float
 201              		.loc 1 70 25
 202 0046 019B     		ldr	r3, [sp, #4]
 203 0048 1B69     		ldr	r3, [r3, #16]	@ float
 204 004a 1846     		mov	r0, r3	@ float
 205 004c FFF7FEFF 		bl	sinf
 206 0050 0390     		str	r0, [sp, #12]	@ float
 207              		.loc 1 71 25
 208 0052 019B     		ldr	r3, [sp, #4]
 209 0054 1B69     		ldr	r3, [r3, #16]	@ float
 210 0056 1846     		mov	r0, r3	@ float
 211 0058 FFF7FEFF 		bl	cosf
 212 005c 0290     		str	r0, [sp, #8]	@ float
 213              		.loc 1 73 27
 214 005e DDED037A 		vldr.32	s15, [sp, #12]
 215 0062 F1EE677A 		vneg.f32	s15, s15
 216              		.loc 1 73 25
 217 0066 019B     		ldr	r3, [sp, #4]
 218 0068 C3ED067A 		vstr.32	s15, [r3, #24]
 219              		.loc 1 74 25
 220 006c 019B     		ldr	r3, [sp, #4]
 221 006e 029A     		ldr	r2, [sp, #8]	@ float
 222 0070 DA61     		str	r2, [r3, #28]	@ float
 223              		.loc 1 76 25
 224 0072 019B     		ldr	r3, [sp, #4]
 225 0074 4FF00002 		mov	r2, #0
 226 0078 1A62     		str	r2, [r3, #32]	@ float
 227              		.loc 1 77 27
 228 007a DDED057A 		vldr.32	s15, [sp, #20]
ARM GAS  /tmp/cceRHmPh.s 			page 5


 229 007e B1EE677A 		vneg.f32	s14, s15
 230              		.loc 1 77 36
 231 0082 DDED027A 		vldr.32	s15, [sp, #8]
 232 0086 67EE277A 		vmul.f32	s15, s14, s15
 233              		.loc 1 77 25
 234 008a 019B     		ldr	r3, [sp, #4]
 235 008c C3ED097A 		vstr.32	s15, [r3, #36]
 236              		.loc 1 78 27
 237 0090 DDED057A 		vldr.32	s15, [sp, #20]
 238 0094 B1EE677A 		vneg.f32	s14, s15
 239              		.loc 1 78 36
 240 0098 DDED037A 		vldr.32	s15, [sp, #12]
 241 009c 67EE277A 		vmul.f32	s15, s14, s15
 242              		.loc 1 78 25
 243 00a0 019B     		ldr	r3, [sp, #4]
 244 00a2 C3ED0A7A 		vstr.32	s15, [r3, #40]
 245              		.loc 1 79 25
 246 00a6 019B     		ldr	r3, [sp, #4]
 247 00a8 049A     		ldr	r2, [sp, #16]	@ float
 248 00aa DA62     		str	r2, [r3, #44]	@ float
 249              		.loc 1 80 36
 250 00ac 9DED047A 		vldr.32	s14, [sp, #16]
 251 00b0 DDED027A 		vldr.32	s15, [sp, #8]
 252 00b4 67EE277A 		vmul.f32	s15, s14, s15
 253              		.loc 1 80 25
 254 00b8 019B     		ldr	r3, [sp, #4]
 255 00ba C3ED0C7A 		vstr.32	s15, [r3, #48]
 256              		.loc 1 81 36
 257 00be 9DED047A 		vldr.32	s14, [sp, #16]
 258 00c2 DDED037A 		vldr.32	s15, [sp, #12]
 259 00c6 67EE277A 		vmul.f32	s15, s14, s15
 260              		.loc 1 81 25
 261 00ca 019B     		ldr	r3, [sp, #4]
 262 00cc C3ED0D7A 		vstr.32	s15, [r3, #52]
 263              		.loc 1 82 25
 264 00d0 019B     		ldr	r3, [sp, #4]
 265 00d2 059A     		ldr	r2, [sp, #20]	@ float
 266 00d4 9A63     		str	r2, [r3, #56]	@ float
 267              		.loc 1 83 1
 268 00d6 00BF     		nop
 269 00d8 07B0     		add	sp, sp, #28
 270              		.cfi_def_cfa_offset 4
 271              		@ sp needed
 272 00da 5DF804FB 		ldr	pc, [sp], #4
 273              		.cfi_endproc
 274              	.LFE53:
 275              		.size	ltp_def_from_lla_f, .-ltp_def_from_lla_f
 276 00de 00BF     		.section	.text.enu_of_ecef_point_f,"ax",%progbits
 277              		.align	1
 278              		.p2align 4,,15
 279              		.global	enu_of_ecef_point_f
 280              		.syntax unified
 281              		.thumb
 282              		.thumb_func
 283              		.fpu fpv4-sp-d16
 284              		.type	enu_of_ecef_point_f, %function
 285              	enu_of_ecef_point_f:
ARM GAS  /tmp/cceRHmPh.s 			page 6


 286              	.LFB54:
 287              		.loc 1 86 1
 288              		.cfi_startproc
 289              		@ args = 0, pretend = 0, frame = 32
 290              		@ frame_needed = 0, uses_anonymous_args = 0
 291              		@ link register save eliminated.
 292 0000 88B0     		sub	sp, sp, #32
 293              		.cfi_def_cfa_offset 32
 294 0002 0390     		str	r0, [sp, #12]
 295 0004 0291     		str	r1, [sp, #8]
 296 0006 0192     		str	r2, [sp, #4]
 297              		.loc 1 88 3
 298 0008 019B     		ldr	r3, [sp, #4]
 299 000a 93ED007A 		vldr.32	s14, [r3]
 300 000e 029B     		ldr	r3, [sp, #8]
 301 0010 D3ED007A 		vldr.32	s15, [r3]
 302 0014 77EE677A 		vsub.f32	s15, s14, s15
 303 0018 CDED057A 		vstr.32	s15, [sp, #20]
 304 001c 019B     		ldr	r3, [sp, #4]
 305 001e 93ED017A 		vldr.32	s14, [r3, #4]
 306 0022 029B     		ldr	r3, [sp, #8]
 307 0024 D3ED017A 		vldr.32	s15, [r3, #4]
 308 0028 77EE677A 		vsub.f32	s15, s14, s15
 309 002c CDED067A 		vstr.32	s15, [sp, #24]
 310 0030 019B     		ldr	r3, [sp, #4]
 311 0032 93ED027A 		vldr.32	s14, [r3, #8]
 312 0036 029B     		ldr	r3, [sp, #8]
 313 0038 D3ED027A 		vldr.32	s15, [r3, #8]
 314 003c 77EE677A 		vsub.f32	s15, s14, s15
 315 0040 CDED077A 		vstr.32	s15, [sp, #28]
 316              		.loc 1 89 3
 317 0044 029B     		ldr	r3, [sp, #8]
 318 0046 93ED067A 		vldr.32	s14, [r3, #24]
 319 004a DDED057A 		vldr.32	s15, [sp, #20]
 320 004e 27EE277A 		vmul.f32	s14, s14, s15
 321 0052 029B     		ldr	r3, [sp, #8]
 322 0054 D3ED076A 		vldr.32	s13, [r3, #28]
 323 0058 DDED067A 		vldr.32	s15, [sp, #24]
 324 005c 66EEA77A 		vmul.f32	s15, s13, s15
 325 0060 37EE277A 		vadd.f32	s14, s14, s15
 326 0064 029B     		ldr	r3, [sp, #8]
 327 0066 D3ED086A 		vldr.32	s13, [r3, #32]
 328 006a DDED077A 		vldr.32	s15, [sp, #28]
 329 006e 66EEA77A 		vmul.f32	s15, s13, s15
 330 0072 77EE277A 		vadd.f32	s15, s14, s15
 331 0076 039B     		ldr	r3, [sp, #12]
 332 0078 C3ED007A 		vstr.32	s15, [r3]
 333 007c 029B     		ldr	r3, [sp, #8]
 334 007e 93ED097A 		vldr.32	s14, [r3, #36]
 335 0082 DDED057A 		vldr.32	s15, [sp, #20]
 336 0086 27EE277A 		vmul.f32	s14, s14, s15
 337 008a 029B     		ldr	r3, [sp, #8]
 338 008c D3ED0A6A 		vldr.32	s13, [r3, #40]
 339 0090 DDED067A 		vldr.32	s15, [sp, #24]
 340 0094 66EEA77A 		vmul.f32	s15, s13, s15
 341 0098 37EE277A 		vadd.f32	s14, s14, s15
 342 009c 029B     		ldr	r3, [sp, #8]
ARM GAS  /tmp/cceRHmPh.s 			page 7


 343 009e D3ED0B6A 		vldr.32	s13, [r3, #44]
 344 00a2 DDED077A 		vldr.32	s15, [sp, #28]
 345 00a6 66EEA77A 		vmul.f32	s15, s13, s15
 346 00aa 77EE277A 		vadd.f32	s15, s14, s15
 347 00ae 039B     		ldr	r3, [sp, #12]
 348 00b0 C3ED017A 		vstr.32	s15, [r3, #4]
 349 00b4 029B     		ldr	r3, [sp, #8]
 350 00b6 93ED0C7A 		vldr.32	s14, [r3, #48]
 351 00ba DDED057A 		vldr.32	s15, [sp, #20]
 352 00be 27EE277A 		vmul.f32	s14, s14, s15
 353 00c2 029B     		ldr	r3, [sp, #8]
 354 00c4 D3ED0D6A 		vldr.32	s13, [r3, #52]
 355 00c8 DDED067A 		vldr.32	s15, [sp, #24]
 356 00cc 66EEA77A 		vmul.f32	s15, s13, s15
 357 00d0 37EE277A 		vadd.f32	s14, s14, s15
 358 00d4 029B     		ldr	r3, [sp, #8]
 359 00d6 D3ED0E6A 		vldr.32	s13, [r3, #56]
 360 00da DDED077A 		vldr.32	s15, [sp, #28]
 361 00de 66EEA77A 		vmul.f32	s15, s13, s15
 362 00e2 77EE277A 		vadd.f32	s15, s14, s15
 363 00e6 039B     		ldr	r3, [sp, #12]
 364 00e8 C3ED027A 		vstr.32	s15, [r3, #8]
 365              		.loc 1 90 1
 366 00ec 00BF     		nop
 367 00ee 08B0     		add	sp, sp, #32
 368              		.cfi_def_cfa_offset 0
 369              		@ sp needed
 370 00f0 7047     		bx	lr
 371              		.cfi_endproc
 372              	.LFE54:
 373              		.size	enu_of_ecef_point_f, .-enu_of_ecef_point_f
 374 00f2 00BF     		.section	.text.ned_of_ecef_point_f,"ax",%progbits
 375              		.align	1
 376              		.p2align 4,,15
 377              		.global	ned_of_ecef_point_f
 378              		.syntax unified
 379              		.thumb
 380              		.thumb_func
 381              		.fpu fpv4-sp-d16
 382              		.type	ned_of_ecef_point_f, %function
 383              	ned_of_ecef_point_f:
 384              	.LFB55:
 385              		.loc 1 93 1
 386              		.cfi_startproc
 387              		@ args = 0, pretend = 0, frame = 32
 388              		@ frame_needed = 0, uses_anonymous_args = 0
 389 0000 00B5     		push	{lr}
 390              		.cfi_def_cfa_offset 4
 391              		.cfi_offset 14, -4
 392 0002 89B0     		sub	sp, sp, #36
 393              		.cfi_def_cfa_offset 40
 394 0004 0390     		str	r0, [sp, #12]
 395 0006 0291     		str	r1, [sp, #8]
 396 0008 0192     		str	r2, [sp, #4]
 397              		.loc 1 95 3
 398 000a 05AB     		add	r3, sp, #20
 399 000c 019A     		ldr	r2, [sp, #4]
ARM GAS  /tmp/cceRHmPh.s 			page 8


 400 000e 0299     		ldr	r1, [sp, #8]
 401 0010 1846     		mov	r0, r3
 402 0012 FFF7FEFF 		bl	enu_of_ecef_point_f
 403              		.loc 1 96 3
 404 0016 069A     		ldr	r2, [sp, #24]	@ float
 405 0018 039B     		ldr	r3, [sp, #12]
 406 001a 1A60     		str	r2, [r3]	@ float
 407 001c 059A     		ldr	r2, [sp, #20]	@ float
 408 001e 039B     		ldr	r3, [sp, #12]
 409 0020 5A60     		str	r2, [r3, #4]	@ float
 410 0022 DDED077A 		vldr.32	s15, [sp, #28]
 411 0026 F1EE677A 		vneg.f32	s15, s15
 412 002a 039B     		ldr	r3, [sp, #12]
 413 002c C3ED027A 		vstr.32	s15, [r3, #8]
 414              		.loc 1 97 1
 415 0030 00BF     		nop
 416 0032 09B0     		add	sp, sp, #36
 417              		.cfi_def_cfa_offset 4
 418              		@ sp needed
 419 0034 5DF804FB 		ldr	pc, [sp], #4
 420              		.cfi_endproc
 421              	.LFE55:
 422              		.size	ned_of_ecef_point_f, .-ned_of_ecef_point_f
 423              		.section	.text.enu_of_ecef_vect_f,"ax",%progbits
 424              		.align	1
 425              		.p2align 4,,15
 426              		.global	enu_of_ecef_vect_f
 427              		.syntax unified
 428              		.thumb
 429              		.thumb_func
 430              		.fpu fpv4-sp-d16
 431              		.type	enu_of_ecef_vect_f, %function
 432              	enu_of_ecef_vect_f:
 433              	.LFB56:
 434              		.loc 1 101 1
 435              		.cfi_startproc
 436              		@ args = 0, pretend = 0, frame = 16
 437              		@ frame_needed = 0, uses_anonymous_args = 0
 438              		@ link register save eliminated.
 439 0000 84B0     		sub	sp, sp, #16
 440              		.cfi_def_cfa_offset 16
 441 0002 0390     		str	r0, [sp, #12]
 442 0004 0291     		str	r1, [sp, #8]
 443 0006 0192     		str	r2, [sp, #4]
 444              		.loc 1 102 3
 445 0008 029B     		ldr	r3, [sp, #8]
 446 000a 93ED067A 		vldr.32	s14, [r3, #24]
 447 000e 019B     		ldr	r3, [sp, #4]
 448 0010 D3ED007A 		vldr.32	s15, [r3]
 449 0014 27EE277A 		vmul.f32	s14, s14, s15
 450 0018 029B     		ldr	r3, [sp, #8]
 451 001a D3ED076A 		vldr.32	s13, [r3, #28]
 452 001e 019B     		ldr	r3, [sp, #4]
 453 0020 D3ED017A 		vldr.32	s15, [r3, #4]
 454 0024 66EEA77A 		vmul.f32	s15, s13, s15
 455 0028 37EE277A 		vadd.f32	s14, s14, s15
 456 002c 029B     		ldr	r3, [sp, #8]
ARM GAS  /tmp/cceRHmPh.s 			page 9


 457 002e D3ED086A 		vldr.32	s13, [r3, #32]
 458 0032 019B     		ldr	r3, [sp, #4]
 459 0034 D3ED027A 		vldr.32	s15, [r3, #8]
 460 0038 66EEA77A 		vmul.f32	s15, s13, s15
 461 003c 77EE277A 		vadd.f32	s15, s14, s15
 462 0040 039B     		ldr	r3, [sp, #12]
 463 0042 C3ED007A 		vstr.32	s15, [r3]
 464 0046 029B     		ldr	r3, [sp, #8]
 465 0048 93ED097A 		vldr.32	s14, [r3, #36]
 466 004c 019B     		ldr	r3, [sp, #4]
 467 004e D3ED007A 		vldr.32	s15, [r3]
 468 0052 27EE277A 		vmul.f32	s14, s14, s15
 469 0056 029B     		ldr	r3, [sp, #8]
 470 0058 D3ED0A6A 		vldr.32	s13, [r3, #40]
 471 005c 019B     		ldr	r3, [sp, #4]
 472 005e D3ED017A 		vldr.32	s15, [r3, #4]
 473 0062 66EEA77A 		vmul.f32	s15, s13, s15
 474 0066 37EE277A 		vadd.f32	s14, s14, s15
 475 006a 029B     		ldr	r3, [sp, #8]
 476 006c D3ED0B6A 		vldr.32	s13, [r3, #44]
 477 0070 019B     		ldr	r3, [sp, #4]
 478 0072 D3ED027A 		vldr.32	s15, [r3, #8]
 479 0076 66EEA77A 		vmul.f32	s15, s13, s15
 480 007a 77EE277A 		vadd.f32	s15, s14, s15
 481 007e 039B     		ldr	r3, [sp, #12]
 482 0080 C3ED017A 		vstr.32	s15, [r3, #4]
 483 0084 029B     		ldr	r3, [sp, #8]
 484 0086 93ED0C7A 		vldr.32	s14, [r3, #48]
 485 008a 019B     		ldr	r3, [sp, #4]
 486 008c D3ED007A 		vldr.32	s15, [r3]
 487 0090 27EE277A 		vmul.f32	s14, s14, s15
 488 0094 029B     		ldr	r3, [sp, #8]
 489 0096 D3ED0D6A 		vldr.32	s13, [r3, #52]
 490 009a 019B     		ldr	r3, [sp, #4]
 491 009c D3ED017A 		vldr.32	s15, [r3, #4]
 492 00a0 66EEA77A 		vmul.f32	s15, s13, s15
 493 00a4 37EE277A 		vadd.f32	s14, s14, s15
 494 00a8 029B     		ldr	r3, [sp, #8]
 495 00aa D3ED0E6A 		vldr.32	s13, [r3, #56]
 496 00ae 019B     		ldr	r3, [sp, #4]
 497 00b0 D3ED027A 		vldr.32	s15, [r3, #8]
 498 00b4 66EEA77A 		vmul.f32	s15, s13, s15
 499 00b8 77EE277A 		vadd.f32	s15, s14, s15
 500 00bc 039B     		ldr	r3, [sp, #12]
 501 00be C3ED027A 		vstr.32	s15, [r3, #8]
 502              		.loc 1 103 1
 503 00c2 00BF     		nop
 504 00c4 04B0     		add	sp, sp, #16
 505              		.cfi_def_cfa_offset 0
 506              		@ sp needed
 507 00c6 7047     		bx	lr
 508              		.cfi_endproc
 509              	.LFE56:
 510              		.size	enu_of_ecef_vect_f, .-enu_of_ecef_vect_f
 511              		.section	.text.ned_of_ecef_vect_f,"ax",%progbits
 512              		.align	1
 513              		.p2align 4,,15
ARM GAS  /tmp/cceRHmPh.s 			page 10


 514              		.global	ned_of_ecef_vect_f
 515              		.syntax unified
 516              		.thumb
 517              		.thumb_func
 518              		.fpu fpv4-sp-d16
 519              		.type	ned_of_ecef_vect_f, %function
 520              	ned_of_ecef_vect_f:
 521              	.LFB57:
 522              		.loc 1 106 1
 523              		.cfi_startproc
 524              		@ args = 0, pretend = 0, frame = 32
 525              		@ frame_needed = 0, uses_anonymous_args = 0
 526 0000 00B5     		push	{lr}
 527              		.cfi_def_cfa_offset 4
 528              		.cfi_offset 14, -4
 529 0002 89B0     		sub	sp, sp, #36
 530              		.cfi_def_cfa_offset 40
 531 0004 0390     		str	r0, [sp, #12]
 532 0006 0291     		str	r1, [sp, #8]
 533 0008 0192     		str	r2, [sp, #4]
 534              		.loc 1 108 3
 535 000a 05AB     		add	r3, sp, #20
 536 000c 019A     		ldr	r2, [sp, #4]
 537 000e 0299     		ldr	r1, [sp, #8]
 538 0010 1846     		mov	r0, r3
 539 0012 FFF7FEFF 		bl	enu_of_ecef_vect_f
 540              		.loc 1 109 3
 541 0016 069A     		ldr	r2, [sp, #24]	@ float
 542 0018 039B     		ldr	r3, [sp, #12]
 543 001a 1A60     		str	r2, [r3]	@ float
 544 001c 059A     		ldr	r2, [sp, #20]	@ float
 545 001e 039B     		ldr	r3, [sp, #12]
 546 0020 5A60     		str	r2, [r3, #4]	@ float
 547 0022 DDED077A 		vldr.32	s15, [sp, #28]
 548 0026 F1EE677A 		vneg.f32	s15, s15
 549 002a 039B     		ldr	r3, [sp, #12]
 550 002c C3ED027A 		vstr.32	s15, [r3, #8]
 551              		.loc 1 110 1
 552 0030 00BF     		nop
 553 0032 09B0     		add	sp, sp, #36
 554              		.cfi_def_cfa_offset 4
 555              		@ sp needed
 556 0034 5DF804FB 		ldr	pc, [sp], #4
 557              		.cfi_endproc
 558              	.LFE57:
 559              		.size	ned_of_ecef_vect_f, .-ned_of_ecef_vect_f
 560              		.section	.text.enu_of_lla_point_f,"ax",%progbits
 561              		.align	1
 562              		.p2align 4,,15
 563              		.global	enu_of_lla_point_f
 564              		.syntax unified
 565              		.thumb
 566              		.thumb_func
 567              		.fpu fpv4-sp-d16
 568              		.type	enu_of_lla_point_f, %function
 569              	enu_of_lla_point_f:
 570              	.LFB58:
ARM GAS  /tmp/cceRHmPh.s 			page 11


 571              		.loc 1 113 1
 572              		.cfi_startproc
 573              		@ args = 0, pretend = 0, frame = 32
 574              		@ frame_needed = 0, uses_anonymous_args = 0
 575 0000 00B5     		push	{lr}
 576              		.cfi_def_cfa_offset 4
 577              		.cfi_offset 14, -4
 578 0002 89B0     		sub	sp, sp, #36
 579              		.cfi_def_cfa_offset 40
 580 0004 0390     		str	r0, [sp, #12]
 581 0006 0291     		str	r1, [sp, #8]
 582 0008 0192     		str	r2, [sp, #4]
 583              		.loc 1 115 3
 584 000a 05AB     		add	r3, sp, #20
 585 000c 0199     		ldr	r1, [sp, #4]
 586 000e 1846     		mov	r0, r3
 587 0010 FFF7FEFF 		bl	ecef_of_lla_f
 588              		.loc 1 116 3
 589 0014 05AB     		add	r3, sp, #20
 590 0016 1A46     		mov	r2, r3
 591 0018 0299     		ldr	r1, [sp, #8]
 592 001a 0398     		ldr	r0, [sp, #12]
 593 001c FFF7FEFF 		bl	enu_of_ecef_point_f
 594              		.loc 1 117 1
 595 0020 00BF     		nop
 596 0022 09B0     		add	sp, sp, #36
 597              		.cfi_def_cfa_offset 4
 598              		@ sp needed
 599 0024 5DF804FB 		ldr	pc, [sp], #4
 600              		.cfi_endproc
 601              	.LFE58:
 602              		.size	enu_of_lla_point_f, .-enu_of_lla_point_f
 603              		.section	.text.ned_of_lla_point_f,"ax",%progbits
 604              		.align	1
 605              		.p2align 4,,15
 606              		.global	ned_of_lla_point_f
 607              		.syntax unified
 608              		.thumb
 609              		.thumb_func
 610              		.fpu fpv4-sp-d16
 611              		.type	ned_of_lla_point_f, %function
 612              	ned_of_lla_point_f:
 613              	.LFB59:
 614              		.loc 1 120 1
 615              		.cfi_startproc
 616              		@ args = 0, pretend = 0, frame = 32
 617              		@ frame_needed = 0, uses_anonymous_args = 0
 618 0000 00B5     		push	{lr}
 619              		.cfi_def_cfa_offset 4
 620              		.cfi_offset 14, -4
 621 0002 89B0     		sub	sp, sp, #36
 622              		.cfi_def_cfa_offset 40
 623 0004 0390     		str	r0, [sp, #12]
 624 0006 0291     		str	r1, [sp, #8]
 625 0008 0192     		str	r2, [sp, #4]
 626              		.loc 1 122 3
 627 000a 05AB     		add	r3, sp, #20
ARM GAS  /tmp/cceRHmPh.s 			page 12


 628 000c 0199     		ldr	r1, [sp, #4]
 629 000e 1846     		mov	r0, r3
 630 0010 FFF7FEFF 		bl	ecef_of_lla_f
 631              		.loc 1 123 3
 632 0014 05AB     		add	r3, sp, #20
 633 0016 1A46     		mov	r2, r3
 634 0018 0299     		ldr	r1, [sp, #8]
 635 001a 0398     		ldr	r0, [sp, #12]
 636 001c FFF7FEFF 		bl	ned_of_ecef_point_f
 637              		.loc 1 124 1
 638 0020 00BF     		nop
 639 0022 09B0     		add	sp, sp, #36
 640              		.cfi_def_cfa_offset 4
 641              		@ sp needed
 642 0024 5DF804FB 		ldr	pc, [sp], #4
 643              		.cfi_endproc
 644              	.LFE59:
 645              		.size	ned_of_lla_point_f, .-ned_of_lla_point_f
 646              		.global	__aeabi_f2d
 647              		.global	__aeabi_dmul
 648              		.global	__aeabi_dadd
 649              		.global	__aeabi_d2f
 650              		.section	.text.ecef_of_enu_point_f,"ax",%progbits
 651              		.align	1
 652              		.p2align 4,,15
 653              		.global	ecef_of_enu_point_f
 654              		.syntax unified
 655              		.thumb
 656              		.thumb_func
 657              		.fpu fpv4-sp-d16
 658              		.type	ecef_of_enu_point_f, %function
 659              	ecef_of_enu_point_f:
 660              	.LFB60:
 661              		.loc 1 130 1
 662              		.cfi_startproc
 663              		@ args = 0, pretend = 0, frame = 128
 664              		@ frame_needed = 0, uses_anonymous_args = 0
 665 0000 F0B5     		push	{r4, r5, r6, r7, lr}
 666              		.cfi_def_cfa_offset 20
 667              		.cfi_offset 4, -20
 668              		.cfi_offset 5, -16
 669              		.cfi_offset 6, -12
 670              		.cfi_offset 7, -8
 671              		.cfi_offset 14, -4
 672 0002 A1B0     		sub	sp, sp, #132
 673              		.cfi_def_cfa_offset 152
 674 0004 0390     		str	r0, [sp, #12]
 675 0006 0291     		str	r1, [sp, #8]
 676 0008 0192     		str	r2, [sp, #4]
 677              		.loc 1 133 51
 678 000a 029B     		ldr	r3, [sp, #8]
 679 000c 9B69     		ldr	r3, [r3, #24]	@ float
 680              		.loc 1 133 24
 681 000e 1846     		mov	r0, r3	@ float
 682 0010 FFF7FEFF 		bl	__aeabi_f2d
 683 0014 0246     		mov	r2, r0
 684 0016 0B46     		mov	r3, r1
ARM GAS  /tmp/cceRHmPh.s 			page 13


 685              		.loc 1 133 22
 686 0018 CDE90E23 		strd	r2, [sp, #56]
 687              		.loc 1 134 51
 688 001c 029B     		ldr	r3, [sp, #8]
 689 001e DB69     		ldr	r3, [r3, #28]	@ float
 690              		.loc 1 134 24
 691 0020 1846     		mov	r0, r3	@ float
 692 0022 FFF7FEFF 		bl	__aeabi_f2d
 693 0026 0246     		mov	r2, r0
 694 0028 0B46     		mov	r3, r1
 695              		.loc 1 134 22
 696 002a CDE91023 		strd	r2, [sp, #64]
 697              		.loc 1 135 51
 698 002e 029B     		ldr	r3, [sp, #8]
 699 0030 1B6A     		ldr	r3, [r3, #32]	@ float
 700              		.loc 1 135 24
 701 0032 1846     		mov	r0, r3	@ float
 702 0034 FFF7FEFF 		bl	__aeabi_f2d
 703 0038 0246     		mov	r2, r0
 704 003a 0B46     		mov	r3, r1
 705              		.loc 1 135 22
 706 003c CDE91223 		strd	r2, [sp, #72]
 707              		.loc 1 136 51
 708 0040 029B     		ldr	r3, [sp, #8]
 709 0042 5B6A     		ldr	r3, [r3, #36]	@ float
 710              		.loc 1 136 24
 711 0044 1846     		mov	r0, r3	@ float
 712 0046 FFF7FEFF 		bl	__aeabi_f2d
 713 004a 0246     		mov	r2, r0
 714 004c 0B46     		mov	r3, r1
 715              		.loc 1 136 22
 716 004e CDE91423 		strd	r2, [sp, #80]
 717              		.loc 1 137 51
 718 0052 029B     		ldr	r3, [sp, #8]
 719 0054 9B6A     		ldr	r3, [r3, #40]	@ float
 720              		.loc 1 137 24
 721 0056 1846     		mov	r0, r3	@ float
 722 0058 FFF7FEFF 		bl	__aeabi_f2d
 723 005c 0246     		mov	r2, r0
 724 005e 0B46     		mov	r3, r1
 725              		.loc 1 137 22
 726 0060 CDE91623 		strd	r2, [sp, #88]
 727              		.loc 1 138 51
 728 0064 029B     		ldr	r3, [sp, #8]
 729 0066 DB6A     		ldr	r3, [r3, #44]	@ float
 730              		.loc 1 138 24
 731 0068 1846     		mov	r0, r3	@ float
 732 006a FFF7FEFF 		bl	__aeabi_f2d
 733 006e 0246     		mov	r2, r0
 734 0070 0B46     		mov	r3, r1
 735              		.loc 1 138 22
 736 0072 CDE91823 		strd	r2, [sp, #96]
 737              		.loc 1 139 51
 738 0076 029B     		ldr	r3, [sp, #8]
 739 0078 1B6B     		ldr	r3, [r3, #48]	@ float
 740              		.loc 1 139 24
 741 007a 1846     		mov	r0, r3	@ float
ARM GAS  /tmp/cceRHmPh.s 			page 14


 742 007c FFF7FEFF 		bl	__aeabi_f2d
 743 0080 0246     		mov	r2, r0
 744 0082 0B46     		mov	r3, r1
 745              		.loc 1 139 22
 746 0084 CDE91A23 		strd	r2, [sp, #104]
 747              		.loc 1 140 51
 748 0088 029B     		ldr	r3, [sp, #8]
 749 008a 5B6B     		ldr	r3, [r3, #52]	@ float
 750              		.loc 1 140 24
 751 008c 1846     		mov	r0, r3	@ float
 752 008e FFF7FEFF 		bl	__aeabi_f2d
 753 0092 0246     		mov	r2, r0
 754 0094 0B46     		mov	r3, r1
 755              		.loc 1 140 22
 756 0096 CDE91C23 		strd	r2, [sp, #112]
 757              		.loc 1 141 51
 758 009a 029B     		ldr	r3, [sp, #8]
 759 009c 9B6B     		ldr	r3, [r3, #56]	@ float
 760              		.loc 1 141 24
 761 009e 1846     		mov	r0, r3	@ float
 762 00a0 FFF7FEFF 		bl	__aeabi_f2d
 763 00a4 0246     		mov	r2, r0
 764 00a6 0B46     		mov	r3, r1
 765              		.loc 1 141 22
 766 00a8 CDE91E23 		strd	r2, [sp, #120]
 767              		.loc 1 143 25
 768 00ac 019B     		ldr	r3, [sp, #4]
 769 00ae 1B68     		ldr	r3, [r3]	@ float
 770              		.loc 1 143 11
 771 00b0 0B93     		str	r3, [sp, #44]	@ float
 772              		.loc 1 144 25
 773 00b2 019B     		ldr	r3, [sp, #4]
 774 00b4 5B68     		ldr	r3, [r3, #4]	@ float
 775              		.loc 1 144 11
 776 00b6 0C93     		str	r3, [sp, #48]	@ float
 777              		.loc 1 145 25
 778 00b8 019B     		ldr	r3, [sp, #4]
 779 00ba 9B68     		ldr	r3, [r3, #8]	@ float
 780              		.loc 1 145 11
 781 00bc 0D93     		str	r3, [sp, #52]	@ float
 782              		.loc 1 149 3
 783 00be DDE90E45 		ldrd	r4, [sp, #56]
 784 00c2 0B9B     		ldr	r3, [sp, #44]	@ float
 785 00c4 1846     		mov	r0, r3	@ float
 786 00c6 FFF7FEFF 		bl	__aeabi_f2d
 787 00ca 0246     		mov	r2, r0
 788 00cc 0B46     		mov	r3, r1
 789 00ce 2046     		mov	r0, r4
 790 00d0 2946     		mov	r1, r5
 791 00d2 FFF7FEFF 		bl	__aeabi_dmul
 792 00d6 0246     		mov	r2, r0
 793 00d8 0B46     		mov	r3, r1
 794 00da 1646     		mov	r6, r2
 795 00dc 1F46     		mov	r7, r3
 796 00de DDE91445 		ldrd	r4, [sp, #80]
 797 00e2 0C9B     		ldr	r3, [sp, #48]	@ float
 798 00e4 1846     		mov	r0, r3	@ float
ARM GAS  /tmp/cceRHmPh.s 			page 15


 799 00e6 FFF7FEFF 		bl	__aeabi_f2d
 800 00ea 0246     		mov	r2, r0
 801 00ec 0B46     		mov	r3, r1
 802 00ee 2046     		mov	r0, r4
 803 00f0 2946     		mov	r1, r5
 804 00f2 FFF7FEFF 		bl	__aeabi_dmul
 805 00f6 0246     		mov	r2, r0
 806 00f8 0B46     		mov	r3, r1
 807 00fa 3046     		mov	r0, r6
 808 00fc 3946     		mov	r1, r7
 809 00fe FFF7FEFF 		bl	__aeabi_dadd
 810 0102 0246     		mov	r2, r0
 811 0104 0B46     		mov	r3, r1
 812 0106 1646     		mov	r6, r2
 813 0108 1F46     		mov	r7, r3
 814 010a DDE91A45 		ldrd	r4, [sp, #104]
 815 010e 0D9B     		ldr	r3, [sp, #52]	@ float
 816 0110 1846     		mov	r0, r3	@ float
 817 0112 FFF7FEFF 		bl	__aeabi_f2d
 818 0116 0246     		mov	r2, r0
 819 0118 0B46     		mov	r3, r1
 820 011a 2046     		mov	r0, r4
 821 011c 2946     		mov	r1, r5
 822 011e FFF7FEFF 		bl	__aeabi_dmul
 823 0122 0246     		mov	r2, r0
 824 0124 0B46     		mov	r3, r1
 825 0126 3046     		mov	r0, r6
 826 0128 3946     		mov	r1, r7
 827 012a FFF7FEFF 		bl	__aeabi_dadd
 828 012e 0246     		mov	r2, r0
 829 0130 0B46     		mov	r3, r1
 830 0132 CDE90423 		strd	r2, [sp, #16]
 831 0136 DDE91045 		ldrd	r4, [sp, #64]
 832 013a 0B9B     		ldr	r3, [sp, #44]	@ float
 833 013c 1846     		mov	r0, r3	@ float
 834 013e FFF7FEFF 		bl	__aeabi_f2d
 835 0142 0246     		mov	r2, r0
 836 0144 0B46     		mov	r3, r1
 837 0146 2046     		mov	r0, r4
 838 0148 2946     		mov	r1, r5
 839 014a FFF7FEFF 		bl	__aeabi_dmul
 840 014e 0246     		mov	r2, r0
 841 0150 0B46     		mov	r3, r1
 842 0152 1646     		mov	r6, r2
 843 0154 1F46     		mov	r7, r3
 844 0156 DDE91645 		ldrd	r4, [sp, #88]
 845 015a 0C9B     		ldr	r3, [sp, #48]	@ float
 846 015c 1846     		mov	r0, r3	@ float
 847 015e FFF7FEFF 		bl	__aeabi_f2d
 848 0162 0246     		mov	r2, r0
 849 0164 0B46     		mov	r3, r1
 850 0166 2046     		mov	r0, r4
 851 0168 2946     		mov	r1, r5
 852 016a FFF7FEFF 		bl	__aeabi_dmul
 853 016e 0246     		mov	r2, r0
 854 0170 0B46     		mov	r3, r1
 855 0172 3046     		mov	r0, r6
ARM GAS  /tmp/cceRHmPh.s 			page 16


 856 0174 3946     		mov	r1, r7
 857 0176 FFF7FEFF 		bl	__aeabi_dadd
 858 017a 0246     		mov	r2, r0
 859 017c 0B46     		mov	r3, r1
 860 017e 1646     		mov	r6, r2
 861 0180 1F46     		mov	r7, r3
 862 0182 DDE91C45 		ldrd	r4, [sp, #112]
 863 0186 0D9B     		ldr	r3, [sp, #52]	@ float
 864 0188 1846     		mov	r0, r3	@ float
 865 018a FFF7FEFF 		bl	__aeabi_f2d
 866 018e 0246     		mov	r2, r0
 867 0190 0B46     		mov	r3, r1
 868 0192 2046     		mov	r0, r4
 869 0194 2946     		mov	r1, r5
 870 0196 FFF7FEFF 		bl	__aeabi_dmul
 871 019a 0246     		mov	r2, r0
 872 019c 0B46     		mov	r3, r1
 873 019e 3046     		mov	r0, r6
 874 01a0 3946     		mov	r1, r7
 875 01a2 FFF7FEFF 		bl	__aeabi_dadd
 876 01a6 0246     		mov	r2, r0
 877 01a8 0B46     		mov	r3, r1
 878 01aa CDE90623 		strd	r2, [sp, #24]
 879 01ae DDE91245 		ldrd	r4, [sp, #72]
 880 01b2 0B9B     		ldr	r3, [sp, #44]	@ float
 881 01b4 1846     		mov	r0, r3	@ float
 882 01b6 FFF7FEFF 		bl	__aeabi_f2d
 883 01ba 0246     		mov	r2, r0
 884 01bc 0B46     		mov	r3, r1
 885 01be 2046     		mov	r0, r4
 886 01c0 2946     		mov	r1, r5
 887 01c2 FFF7FEFF 		bl	__aeabi_dmul
 888 01c6 0246     		mov	r2, r0
 889 01c8 0B46     		mov	r3, r1
 890 01ca 1646     		mov	r6, r2
 891 01cc 1F46     		mov	r7, r3
 892 01ce DDE91845 		ldrd	r4, [sp, #96]
 893 01d2 0C9B     		ldr	r3, [sp, #48]	@ float
 894 01d4 1846     		mov	r0, r3	@ float
 895 01d6 FFF7FEFF 		bl	__aeabi_f2d
 896 01da 0246     		mov	r2, r0
 897 01dc 0B46     		mov	r3, r1
 898 01de 2046     		mov	r0, r4
 899 01e0 2946     		mov	r1, r5
 900 01e2 FFF7FEFF 		bl	__aeabi_dmul
 901 01e6 0246     		mov	r2, r0
 902 01e8 0B46     		mov	r3, r1
 903 01ea 3046     		mov	r0, r6
 904 01ec 3946     		mov	r1, r7
 905 01ee FFF7FEFF 		bl	__aeabi_dadd
 906 01f2 0246     		mov	r2, r0
 907 01f4 0B46     		mov	r3, r1
 908 01f6 1646     		mov	r6, r2
 909 01f8 1F46     		mov	r7, r3
 910 01fa DDE91E45 		ldrd	r4, [sp, #120]
 911 01fe 0D9B     		ldr	r3, [sp, #52]	@ float
 912 0200 1846     		mov	r0, r3	@ float
ARM GAS  /tmp/cceRHmPh.s 			page 17


 913 0202 FFF7FEFF 		bl	__aeabi_f2d
 914 0206 0246     		mov	r2, r0
 915 0208 0B46     		mov	r3, r1
 916 020a 2046     		mov	r0, r4
 917 020c 2946     		mov	r1, r5
 918 020e FFF7FEFF 		bl	__aeabi_dmul
 919 0212 0246     		mov	r2, r0
 920 0214 0B46     		mov	r3, r1
 921 0216 3046     		mov	r0, r6
 922 0218 3946     		mov	r1, r7
 923 021a FFF7FEFF 		bl	__aeabi_dadd
 924 021e 0246     		mov	r2, r0
 925 0220 0B46     		mov	r3, r1
 926 0222 CDE90823 		strd	r2, [sp, #32]
 927              		.loc 1 152 27
 928 0226 DDE90423 		ldrd	r2, [sp, #16]
 929              		.loc 1 152 13
 930 022a 1046     		mov	r0, r2
 931 022c 1946     		mov	r1, r3
 932 022e FFF7FEFF 		bl	__aeabi_d2f
 933 0232 07EE100A 		vmov	s14, r0
 934              		.loc 1 152 41
 935 0236 029B     		ldr	r3, [sp, #8]
 936 0238 D3ED007A 		vldr.32	s15, [r3]
 937              		.loc 1 152 30
 938 023c 77EE277A 		vadd.f32	s15, s14, s15
 939              		.loc 1 152 11
 940 0240 039B     		ldr	r3, [sp, #12]
 941 0242 C3ED007A 		vstr.32	s15, [r3]
 942              		.loc 1 153 27
 943 0246 DDE90623 		ldrd	r2, [sp, #24]
 944              		.loc 1 153 13
 945 024a 1046     		mov	r0, r2
 946 024c 1946     		mov	r1, r3
 947 024e FFF7FEFF 		bl	__aeabi_d2f
 948 0252 07EE100A 		vmov	s14, r0
 949              		.loc 1 153 41
 950 0256 029B     		ldr	r3, [sp, #8]
 951 0258 D3ED017A 		vldr.32	s15, [r3, #4]
 952              		.loc 1 153 30
 953 025c 77EE277A 		vadd.f32	s15, s14, s15
 954              		.loc 1 153 11
 955 0260 039B     		ldr	r3, [sp, #12]
 956 0262 C3ED017A 		vstr.32	s15, [r3, #4]
 957              		.loc 1 154 27
 958 0266 DDE90823 		ldrd	r2, [sp, #32]
 959              		.loc 1 154 13
 960 026a 1046     		mov	r0, r2
 961 026c 1946     		mov	r1, r3
 962 026e FFF7FEFF 		bl	__aeabi_d2f
 963 0272 07EE100A 		vmov	s14, r0
 964              		.loc 1 154 41
 965 0276 029B     		ldr	r3, [sp, #8]
 966 0278 D3ED027A 		vldr.32	s15, [r3, #8]
 967              		.loc 1 154 30
 968 027c 77EE277A 		vadd.f32	s15, s14, s15
 969              		.loc 1 154 11
ARM GAS  /tmp/cceRHmPh.s 			page 18


 970 0280 039B     		ldr	r3, [sp, #12]
 971 0282 C3ED027A 		vstr.32	s15, [r3, #8]
 972              		.loc 1 155 1
 973 0286 00BF     		nop
 974 0288 21B0     		add	sp, sp, #132
 975              		.cfi_def_cfa_offset 20
 976              		@ sp needed
 977 028a F0BD     		pop	{r4, r5, r6, r7, pc}
 978              		.cfi_endproc
 979              	.LFE60:
 980              		.size	ecef_of_enu_point_f, .-ecef_of_enu_point_f
 981              		.section	.text.ecef_of_ned_point_f,"ax",%progbits
 982              		.align	1
 983              		.p2align 4,,15
 984              		.global	ecef_of_ned_point_f
 985              		.syntax unified
 986              		.thumb
 987              		.thumb_func
 988              		.fpu fpv4-sp-d16
 989              		.type	ecef_of_ned_point_f, %function
 990              	ecef_of_ned_point_f:
 991              	.LFB61:
 992              		.loc 1 158 1
 993              		.cfi_startproc
 994              		@ args = 0, pretend = 0, frame = 32
 995              		@ frame_needed = 0, uses_anonymous_args = 0
 996 0000 00B5     		push	{lr}
 997              		.cfi_def_cfa_offset 4
 998              		.cfi_offset 14, -4
 999 0002 89B0     		sub	sp, sp, #36
 1000              		.cfi_def_cfa_offset 40
 1001 0004 0390     		str	r0, [sp, #12]
 1002 0006 0291     		str	r1, [sp, #8]
 1003 0008 0192     		str	r2, [sp, #4]
 1004              		.loc 1 160 3
 1005 000a 019B     		ldr	r3, [sp, #4]
 1006 000c 5B68     		ldr	r3, [r3, #4]	@ float
 1007 000e 0593     		str	r3, [sp, #20]	@ float
 1008 0010 019B     		ldr	r3, [sp, #4]
 1009 0012 1B68     		ldr	r3, [r3]	@ float
 1010 0014 0693     		str	r3, [sp, #24]	@ float
 1011 0016 019B     		ldr	r3, [sp, #4]
 1012 0018 D3ED027A 		vldr.32	s15, [r3, #8]
 1013 001c F1EE677A 		vneg.f32	s15, s15
 1014 0020 CDED077A 		vstr.32	s15, [sp, #28]
 1015              		.loc 1 161 3
 1016 0024 05AB     		add	r3, sp, #20
 1017 0026 1A46     		mov	r2, r3
 1018 0028 0299     		ldr	r1, [sp, #8]
 1019 002a 0398     		ldr	r0, [sp, #12]
 1020 002c FFF7FEFF 		bl	ecef_of_enu_point_f
 1021              		.loc 1 162 1
 1022 0030 00BF     		nop
 1023 0032 09B0     		add	sp, sp, #36
 1024              		.cfi_def_cfa_offset 4
 1025              		@ sp needed
 1026 0034 5DF804FB 		ldr	pc, [sp], #4
ARM GAS  /tmp/cceRHmPh.s 			page 19


 1027              		.cfi_endproc
 1028              	.LFE61:
 1029              		.size	ecef_of_ned_point_f, .-ecef_of_ned_point_f
 1030              		.section	.text.ecef_of_enu_vect_f,"ax",%progbits
 1031              		.align	1
 1032              		.p2align 4,,15
 1033              		.global	ecef_of_enu_vect_f
 1034              		.syntax unified
 1035              		.thumb
 1036              		.thumb_func
 1037              		.fpu fpv4-sp-d16
 1038              		.type	ecef_of_enu_vect_f, %function
 1039              	ecef_of_enu_vect_f:
 1040              	.LFB62:
 1041              		.loc 1 165 1
 1042              		.cfi_startproc
 1043              		@ args = 0, pretend = 0, frame = 128
 1044              		@ frame_needed = 0, uses_anonymous_args = 0
 1045 0000 F0B5     		push	{r4, r5, r6, r7, lr}
 1046              		.cfi_def_cfa_offset 20
 1047              		.cfi_offset 4, -20
 1048              		.cfi_offset 5, -16
 1049              		.cfi_offset 6, -12
 1050              		.cfi_offset 7, -8
 1051              		.cfi_offset 14, -4
 1052 0002 A1B0     		sub	sp, sp, #132
 1053              		.cfi_def_cfa_offset 152
 1054 0004 0390     		str	r0, [sp, #12]
 1055 0006 0291     		str	r1, [sp, #8]
 1056 0008 0192     		str	r2, [sp, #4]
 1057              		.loc 1 168 51
 1058 000a 029B     		ldr	r3, [sp, #8]
 1059 000c 9B69     		ldr	r3, [r3, #24]	@ float
 1060              		.loc 1 168 24
 1061 000e 1846     		mov	r0, r3	@ float
 1062 0010 FFF7FEFF 		bl	__aeabi_f2d
 1063 0014 0246     		mov	r2, r0
 1064 0016 0B46     		mov	r3, r1
 1065              		.loc 1 168 22
 1066 0018 CDE90E23 		strd	r2, [sp, #56]
 1067              		.loc 1 169 51
 1068 001c 029B     		ldr	r3, [sp, #8]
 1069 001e DB69     		ldr	r3, [r3, #28]	@ float
 1070              		.loc 1 169 24
 1071 0020 1846     		mov	r0, r3	@ float
 1072 0022 FFF7FEFF 		bl	__aeabi_f2d
 1073 0026 0246     		mov	r2, r0
 1074 0028 0B46     		mov	r3, r1
 1075              		.loc 1 169 22
 1076 002a CDE91023 		strd	r2, [sp, #64]
 1077              		.loc 1 170 51
 1078 002e 029B     		ldr	r3, [sp, #8]
 1079 0030 1B6A     		ldr	r3, [r3, #32]	@ float
 1080              		.loc 1 170 24
 1081 0032 1846     		mov	r0, r3	@ float
 1082 0034 FFF7FEFF 		bl	__aeabi_f2d
 1083 0038 0246     		mov	r2, r0
ARM GAS  /tmp/cceRHmPh.s 			page 20


 1084 003a 0B46     		mov	r3, r1
 1085              		.loc 1 170 22
 1086 003c CDE91223 		strd	r2, [sp, #72]
 1087              		.loc 1 171 51
 1088 0040 029B     		ldr	r3, [sp, #8]
 1089 0042 5B6A     		ldr	r3, [r3, #36]	@ float
 1090              		.loc 1 171 24
 1091 0044 1846     		mov	r0, r3	@ float
 1092 0046 FFF7FEFF 		bl	__aeabi_f2d
 1093 004a 0246     		mov	r2, r0
 1094 004c 0B46     		mov	r3, r1
 1095              		.loc 1 171 22
 1096 004e CDE91423 		strd	r2, [sp, #80]
 1097              		.loc 1 172 51
 1098 0052 029B     		ldr	r3, [sp, #8]
 1099 0054 9B6A     		ldr	r3, [r3, #40]	@ float
 1100              		.loc 1 172 24
 1101 0056 1846     		mov	r0, r3	@ float
 1102 0058 FFF7FEFF 		bl	__aeabi_f2d
 1103 005c 0246     		mov	r2, r0
 1104 005e 0B46     		mov	r3, r1
 1105              		.loc 1 172 22
 1106 0060 CDE91623 		strd	r2, [sp, #88]
 1107              		.loc 1 173 51
 1108 0064 029B     		ldr	r3, [sp, #8]
 1109 0066 DB6A     		ldr	r3, [r3, #44]	@ float
 1110              		.loc 1 173 24
 1111 0068 1846     		mov	r0, r3	@ float
 1112 006a FFF7FEFF 		bl	__aeabi_f2d
 1113 006e 0246     		mov	r2, r0
 1114 0070 0B46     		mov	r3, r1
 1115              		.loc 1 173 22
 1116 0072 CDE91823 		strd	r2, [sp, #96]
 1117              		.loc 1 174 51
 1118 0076 029B     		ldr	r3, [sp, #8]
 1119 0078 1B6B     		ldr	r3, [r3, #48]	@ float
 1120              		.loc 1 174 24
 1121 007a 1846     		mov	r0, r3	@ float
 1122 007c FFF7FEFF 		bl	__aeabi_f2d
 1123 0080 0246     		mov	r2, r0
 1124 0082 0B46     		mov	r3, r1
 1125              		.loc 1 174 22
 1126 0084 CDE91A23 		strd	r2, [sp, #104]
 1127              		.loc 1 175 51
 1128 0088 029B     		ldr	r3, [sp, #8]
 1129 008a 5B6B     		ldr	r3, [r3, #52]	@ float
 1130              		.loc 1 175 24
 1131 008c 1846     		mov	r0, r3	@ float
 1132 008e FFF7FEFF 		bl	__aeabi_f2d
 1133 0092 0246     		mov	r2, r0
 1134 0094 0B46     		mov	r3, r1
 1135              		.loc 1 175 22
 1136 0096 CDE91C23 		strd	r2, [sp, #112]
 1137              		.loc 1 176 51
 1138 009a 029B     		ldr	r3, [sp, #8]
 1139 009c 9B6B     		ldr	r3, [r3, #56]	@ float
 1140              		.loc 1 176 24
ARM GAS  /tmp/cceRHmPh.s 			page 21


 1141 009e 1846     		mov	r0, r3	@ float
 1142 00a0 FFF7FEFF 		bl	__aeabi_f2d
 1143 00a4 0246     		mov	r2, r0
 1144 00a6 0B46     		mov	r3, r1
 1145              		.loc 1 176 22
 1146 00a8 CDE91E23 		strd	r2, [sp, #120]
 1147              		.loc 1 178 25
 1148 00ac 019B     		ldr	r3, [sp, #4]
 1149 00ae 1B68     		ldr	r3, [r3]	@ float
 1150              		.loc 1 178 11
 1151 00b0 0B93     		str	r3, [sp, #44]	@ float
 1152              		.loc 1 179 25
 1153 00b2 019B     		ldr	r3, [sp, #4]
 1154 00b4 5B68     		ldr	r3, [r3, #4]	@ float
 1155              		.loc 1 179 11
 1156 00b6 0C93     		str	r3, [sp, #48]	@ float
 1157              		.loc 1 180 25
 1158 00b8 019B     		ldr	r3, [sp, #4]
 1159 00ba 9B68     		ldr	r3, [r3, #8]	@ float
 1160              		.loc 1 180 11
 1161 00bc 0D93     		str	r3, [sp, #52]	@ float
 1162              		.loc 1 184 3
 1163 00be DDE90E45 		ldrd	r4, [sp, #56]
 1164 00c2 0B9B     		ldr	r3, [sp, #44]	@ float
 1165 00c4 1846     		mov	r0, r3	@ float
 1166 00c6 FFF7FEFF 		bl	__aeabi_f2d
 1167 00ca 0246     		mov	r2, r0
 1168 00cc 0B46     		mov	r3, r1
 1169 00ce 2046     		mov	r0, r4
 1170 00d0 2946     		mov	r1, r5
 1171 00d2 FFF7FEFF 		bl	__aeabi_dmul
 1172 00d6 0246     		mov	r2, r0
 1173 00d8 0B46     		mov	r3, r1
 1174 00da 1646     		mov	r6, r2
 1175 00dc 1F46     		mov	r7, r3
 1176 00de DDE91445 		ldrd	r4, [sp, #80]
 1177 00e2 0C9B     		ldr	r3, [sp, #48]	@ float
 1178 00e4 1846     		mov	r0, r3	@ float
 1179 00e6 FFF7FEFF 		bl	__aeabi_f2d
 1180 00ea 0246     		mov	r2, r0
 1181 00ec 0B46     		mov	r3, r1
 1182 00ee 2046     		mov	r0, r4
 1183 00f0 2946     		mov	r1, r5
 1184 00f2 FFF7FEFF 		bl	__aeabi_dmul
 1185 00f6 0246     		mov	r2, r0
 1186 00f8 0B46     		mov	r3, r1
 1187 00fa 3046     		mov	r0, r6
 1188 00fc 3946     		mov	r1, r7
 1189 00fe FFF7FEFF 		bl	__aeabi_dadd
 1190 0102 0246     		mov	r2, r0
 1191 0104 0B46     		mov	r3, r1
 1192 0106 1646     		mov	r6, r2
 1193 0108 1F46     		mov	r7, r3
 1194 010a DDE91A45 		ldrd	r4, [sp, #104]
 1195 010e 0D9B     		ldr	r3, [sp, #52]	@ float
 1196 0110 1846     		mov	r0, r3	@ float
 1197 0112 FFF7FEFF 		bl	__aeabi_f2d
ARM GAS  /tmp/cceRHmPh.s 			page 22


 1198 0116 0246     		mov	r2, r0
 1199 0118 0B46     		mov	r3, r1
 1200 011a 2046     		mov	r0, r4
 1201 011c 2946     		mov	r1, r5
 1202 011e FFF7FEFF 		bl	__aeabi_dmul
 1203 0122 0246     		mov	r2, r0
 1204 0124 0B46     		mov	r3, r1
 1205 0126 3046     		mov	r0, r6
 1206 0128 3946     		mov	r1, r7
 1207 012a FFF7FEFF 		bl	__aeabi_dadd
 1208 012e 0246     		mov	r2, r0
 1209 0130 0B46     		mov	r3, r1
 1210 0132 CDE90423 		strd	r2, [sp, #16]
 1211 0136 DDE91045 		ldrd	r4, [sp, #64]
 1212 013a 0B9B     		ldr	r3, [sp, #44]	@ float
 1213 013c 1846     		mov	r0, r3	@ float
 1214 013e FFF7FEFF 		bl	__aeabi_f2d
 1215 0142 0246     		mov	r2, r0
 1216 0144 0B46     		mov	r3, r1
 1217 0146 2046     		mov	r0, r4
 1218 0148 2946     		mov	r1, r5
 1219 014a FFF7FEFF 		bl	__aeabi_dmul
 1220 014e 0246     		mov	r2, r0
 1221 0150 0B46     		mov	r3, r1
 1222 0152 1646     		mov	r6, r2
 1223 0154 1F46     		mov	r7, r3
 1224 0156 DDE91645 		ldrd	r4, [sp, #88]
 1225 015a 0C9B     		ldr	r3, [sp, #48]	@ float
 1226 015c 1846     		mov	r0, r3	@ float
 1227 015e FFF7FEFF 		bl	__aeabi_f2d
 1228 0162 0246     		mov	r2, r0
 1229 0164 0B46     		mov	r3, r1
 1230 0166 2046     		mov	r0, r4
 1231 0168 2946     		mov	r1, r5
 1232 016a FFF7FEFF 		bl	__aeabi_dmul
 1233 016e 0246     		mov	r2, r0
 1234 0170 0B46     		mov	r3, r1
 1235 0172 3046     		mov	r0, r6
 1236 0174 3946     		mov	r1, r7
 1237 0176 FFF7FEFF 		bl	__aeabi_dadd
 1238 017a 0246     		mov	r2, r0
 1239 017c 0B46     		mov	r3, r1
 1240 017e 1646     		mov	r6, r2
 1241 0180 1F46     		mov	r7, r3
 1242 0182 DDE91C45 		ldrd	r4, [sp, #112]
 1243 0186 0D9B     		ldr	r3, [sp, #52]	@ float
 1244 0188 1846     		mov	r0, r3	@ float
 1245 018a FFF7FEFF 		bl	__aeabi_f2d
 1246 018e 0246     		mov	r2, r0
 1247 0190 0B46     		mov	r3, r1
 1248 0192 2046     		mov	r0, r4
 1249 0194 2946     		mov	r1, r5
 1250 0196 FFF7FEFF 		bl	__aeabi_dmul
 1251 019a 0246     		mov	r2, r0
 1252 019c 0B46     		mov	r3, r1
 1253 019e 3046     		mov	r0, r6
 1254 01a0 3946     		mov	r1, r7
ARM GAS  /tmp/cceRHmPh.s 			page 23


 1255 01a2 FFF7FEFF 		bl	__aeabi_dadd
 1256 01a6 0246     		mov	r2, r0
 1257 01a8 0B46     		mov	r3, r1
 1258 01aa CDE90623 		strd	r2, [sp, #24]
 1259 01ae DDE91245 		ldrd	r4, [sp, #72]
 1260 01b2 0B9B     		ldr	r3, [sp, #44]	@ float
 1261 01b4 1846     		mov	r0, r3	@ float
 1262 01b6 FFF7FEFF 		bl	__aeabi_f2d
 1263 01ba 0246     		mov	r2, r0
 1264 01bc 0B46     		mov	r3, r1
 1265 01be 2046     		mov	r0, r4
 1266 01c0 2946     		mov	r1, r5
 1267 01c2 FFF7FEFF 		bl	__aeabi_dmul
 1268 01c6 0246     		mov	r2, r0
 1269 01c8 0B46     		mov	r3, r1
 1270 01ca 1646     		mov	r6, r2
 1271 01cc 1F46     		mov	r7, r3
 1272 01ce DDE91845 		ldrd	r4, [sp, #96]
 1273 01d2 0C9B     		ldr	r3, [sp, #48]	@ float
 1274 01d4 1846     		mov	r0, r3	@ float
 1275 01d6 FFF7FEFF 		bl	__aeabi_f2d
 1276 01da 0246     		mov	r2, r0
 1277 01dc 0B46     		mov	r3, r1
 1278 01de 2046     		mov	r0, r4
 1279 01e0 2946     		mov	r1, r5
 1280 01e2 FFF7FEFF 		bl	__aeabi_dmul
 1281 01e6 0246     		mov	r2, r0
 1282 01e8 0B46     		mov	r3, r1
 1283 01ea 3046     		mov	r0, r6
 1284 01ec 3946     		mov	r1, r7
 1285 01ee FFF7FEFF 		bl	__aeabi_dadd
 1286 01f2 0246     		mov	r2, r0
 1287 01f4 0B46     		mov	r3, r1
 1288 01f6 1646     		mov	r6, r2
 1289 01f8 1F46     		mov	r7, r3
 1290 01fa DDE91E45 		ldrd	r4, [sp, #120]
 1291 01fe 0D9B     		ldr	r3, [sp, #52]	@ float
 1292 0200 1846     		mov	r0, r3	@ float
 1293 0202 FFF7FEFF 		bl	__aeabi_f2d
 1294 0206 0246     		mov	r2, r0
 1295 0208 0B46     		mov	r3, r1
 1296 020a 2046     		mov	r0, r4
 1297 020c 2946     		mov	r1, r5
 1298 020e FFF7FEFF 		bl	__aeabi_dmul
 1299 0212 0246     		mov	r2, r0
 1300 0214 0B46     		mov	r3, r1
 1301 0216 3046     		mov	r0, r6
 1302 0218 3946     		mov	r1, r7
 1303 021a FFF7FEFF 		bl	__aeabi_dadd
 1304 021e 0246     		mov	r2, r0
 1305 0220 0B46     		mov	r3, r1
 1306 0222 CDE90823 		strd	r2, [sp, #32]
 1307              		.loc 1 187 27
 1308 0226 DDE90423 		ldrd	r2, [sp, #16]
 1309              		.loc 1 187 13
 1310 022a 1046     		mov	r0, r2
 1311 022c 1946     		mov	r1, r3
ARM GAS  /tmp/cceRHmPh.s 			page 24


 1312 022e FFF7FEFF 		bl	__aeabi_d2f
 1313 0232 0246     		mov	r2, r0	@ float
 1314              		.loc 1 187 11
 1315 0234 039B     		ldr	r3, [sp, #12]
 1316 0236 1A60     		str	r2, [r3]	@ float
 1317              		.loc 1 188 27
 1318 0238 DDE90623 		ldrd	r2, [sp, #24]
 1319              		.loc 1 188 13
 1320 023c 1046     		mov	r0, r2
 1321 023e 1946     		mov	r1, r3
 1322 0240 FFF7FEFF 		bl	__aeabi_d2f
 1323 0244 0246     		mov	r2, r0	@ float
 1324              		.loc 1 188 11
 1325 0246 039B     		ldr	r3, [sp, #12]
 1326 0248 5A60     		str	r2, [r3, #4]	@ float
 1327              		.loc 1 189 27
 1328 024a DDE90823 		ldrd	r2, [sp, #32]
 1329              		.loc 1 189 13
 1330 024e 1046     		mov	r0, r2
 1331 0250 1946     		mov	r1, r3
 1332 0252 FFF7FEFF 		bl	__aeabi_d2f
 1333 0256 0246     		mov	r2, r0	@ float
 1334              		.loc 1 189 11
 1335 0258 039B     		ldr	r3, [sp, #12]
 1336 025a 9A60     		str	r2, [r3, #8]	@ float
 1337              		.loc 1 190 1
 1338 025c 00BF     		nop
 1339 025e 21B0     		add	sp, sp, #132
 1340              		.cfi_def_cfa_offset 20
 1341              		@ sp needed
 1342 0260 F0BD     		pop	{r4, r5, r6, r7, pc}
 1343              		.cfi_endproc
 1344              	.LFE62:
 1345              		.size	ecef_of_enu_vect_f, .-ecef_of_enu_vect_f
 1346 0262 00BF     		.section	.text.ecef_of_ned_vect_f,"ax",%progbits
 1347              		.align	1
 1348              		.p2align 4,,15
 1349              		.global	ecef_of_ned_vect_f
 1350              		.syntax unified
 1351              		.thumb
 1352              		.thumb_func
 1353              		.fpu fpv4-sp-d16
 1354              		.type	ecef_of_ned_vect_f, %function
 1355              	ecef_of_ned_vect_f:
 1356              	.LFB63:
 1357              		.loc 1 193 1
 1358              		.cfi_startproc
 1359              		@ args = 0, pretend = 0, frame = 32
 1360              		@ frame_needed = 0, uses_anonymous_args = 0
 1361 0000 00B5     		push	{lr}
 1362              		.cfi_def_cfa_offset 4
 1363              		.cfi_offset 14, -4
 1364 0002 89B0     		sub	sp, sp, #36
 1365              		.cfi_def_cfa_offset 40
 1366 0004 0390     		str	r0, [sp, #12]
 1367 0006 0291     		str	r1, [sp, #8]
 1368 0008 0192     		str	r2, [sp, #4]
ARM GAS  /tmp/cceRHmPh.s 			page 25


 1369              		.loc 1 195 3
 1370 000a 019B     		ldr	r3, [sp, #4]
 1371 000c 5B68     		ldr	r3, [r3, #4]	@ float
 1372 000e 0593     		str	r3, [sp, #20]	@ float
 1373 0010 019B     		ldr	r3, [sp, #4]
 1374 0012 1B68     		ldr	r3, [r3]	@ float
 1375 0014 0693     		str	r3, [sp, #24]	@ float
 1376 0016 019B     		ldr	r3, [sp, #4]
 1377 0018 D3ED027A 		vldr.32	s15, [r3, #8]
 1378 001c F1EE677A 		vneg.f32	s15, s15
 1379 0020 CDED077A 		vstr.32	s15, [sp, #28]
 1380              		.loc 1 196 3
 1381 0024 05AB     		add	r3, sp, #20
 1382 0026 1A46     		mov	r2, r3
 1383 0028 0299     		ldr	r1, [sp, #8]
 1384 002a 0398     		ldr	r0, [sp, #12]
 1385 002c FFF7FEFF 		bl	ecef_of_enu_vect_f
 1386              		.loc 1 197 1
 1387 0030 00BF     		nop
 1388 0032 09B0     		add	sp, sp, #36
 1389              		.cfi_def_cfa_offset 4
 1390              		@ sp needed
 1391 0034 5DF804FB 		ldr	pc, [sp], #4
 1392              		.cfi_endproc
 1393              	.LFE63:
 1394              		.size	ecef_of_ned_vect_f, .-ecef_of_ned_vect_f
 1395              		.global	__aeabi_dsub
 1396              		.global	__aeabi_ddiv
 1397              		.section	.text.lla_of_ecef_f,"ax",%progbits
 1398              		.align	1
 1399              		.p2align 4,,15
 1400              		.global	lla_of_ecef_f
 1401              		.syntax unified
 1402              		.thumb
 1403              		.thumb_func
 1404              		.fpu fpv4-sp-d16
 1405              		.type	lla_of_ecef_f, %function
 1406              	lla_of_ecef_f:
 1407              	.LFB64:
 1408              		.loc 1 205 1
 1409              		.cfi_startproc
 1410              		@ args = 0, pretend = 0, frame = 88
 1411              		@ frame_needed = 0, uses_anonymous_args = 0
 1412 0000 F0B5     		push	{r4, r5, r6, r7, lr}
 1413              		.cfi_def_cfa_offset 20
 1414              		.cfi_offset 4, -20
 1415              		.cfi_offset 5, -16
 1416              		.cfi_offset 6, -12
 1417              		.cfi_offset 7, -8
 1418              		.cfi_offset 14, -4
 1419 0002 2DED028B 		vpush.64	{d8}
 1420              		.cfi_def_cfa_offset 28
 1421              		.cfi_offset 80, -28
 1422              		.cfi_offset 81, -24
 1423 0006 97B0     		sub	sp, sp, #92
 1424              		.cfi_def_cfa_offset 120
 1425 0008 0190     		str	r0, [sp, #4]
ARM GAS  /tmp/cceRHmPh.s 			page 26


 1426 000a 0091     		str	r1, [sp]
 1427              		.loc 1 210 21
 1428 000c E44B     		ldr	r3, .L14
 1429 000e 1B68     		ldr	r3, [r3]	@ float
 1430 0010 1846     		mov	r0, r3	@ float
 1431 0012 FFF7FEFF 		bl	__aeabi_f2d
 1432 0016 0446     		mov	r4, r0
 1433 0018 0D46     		mov	r5, r1
 1434              		.loc 1 210 27
 1435 001a E24B     		ldr	r3, .L14+4
 1436 001c 1B68     		ldr	r3, [r3]	@ float
 1437 001e 1846     		mov	r0, r3	@ float
 1438 0020 FFF7FEFF 		bl	__aeabi_f2d
 1439 0024 0246     		mov	r2, r0
 1440 0026 0B46     		mov	r3, r1
 1441 0028 4FF00000 		mov	r0, #0
 1442 002c DE49     		ldr	r1, .L14+8
 1443 002e FFF7FEFF 		bl	__aeabi_dsub
 1444 0032 0246     		mov	r2, r0
 1445 0034 0B46     		mov	r3, r1
 1446              		.loc 1 210 21
 1447 0036 2046     		mov	r0, r4
 1448 0038 2946     		mov	r1, r5
 1449 003a FFF7FEFF 		bl	__aeabi_dmul
 1450 003e 0246     		mov	r2, r0
 1451 0040 0B46     		mov	r3, r1
 1452              		.loc 1 210 15
 1453 0042 1046     		mov	r0, r2
 1454 0044 1946     		mov	r1, r3
 1455 0046 FFF7FEFF 		bl	__aeabi_d2f
 1456 004a 0346     		mov	r3, r0	@ float
 1457 004c 1593     		str	r3, [sp, #84]	@ float
 1458              		.loc 1 211 15
 1459 004e DDED157A 		vldr.32	s15, [sp, #84]
 1460 0052 67EEA77A 		vmul.f32	s15, s15, s15
 1461 0056 CDED147A 		vstr.32	s15, [sp, #80]
 1462              		.loc 1 213 22
 1463 005a D24B     		ldr	r3, .L14+4
 1464 005c 1B68     		ldr	r3, [r3]	@ float
 1465 005e 1846     		mov	r0, r3	@ float
 1466 0060 FFF7FEFF 		bl	__aeabi_f2d
 1467 0064 0246     		mov	r2, r0
 1468 0066 0B46     		mov	r3, r1
 1469 0068 FFF7FEFF 		bl	__aeabi_dadd
 1470 006c 0246     		mov	r2, r0
 1471 006e 0B46     		mov	r3, r1
 1472 0070 1446     		mov	r4, r2
 1473 0072 1D46     		mov	r5, r3
 1474              		.loc 1 213 30
 1475 0074 CB4B     		ldr	r3, .L14+4
 1476 0076 93ED007A 		vldr.32	s14, [r3]
 1477 007a CA4B     		ldr	r3, .L14+4
 1478 007c D3ED007A 		vldr.32	s15, [r3]
 1479 0080 67EE277A 		vmul.f32	s15, s14, s15
 1480 0084 17EE900A 		vmov	r0, s15
 1481 0088 FFF7FEFF 		bl	__aeabi_f2d
 1482 008c 0246     		mov	r2, r0
ARM GAS  /tmp/cceRHmPh.s 			page 27


 1483 008e 0B46     		mov	r3, r1
 1484              		.loc 1 213 25
 1485 0090 2046     		mov	r0, r4
 1486 0092 2946     		mov	r1, r5
 1487 0094 FFF7FEFF 		bl	__aeabi_dsub
 1488 0098 0246     		mov	r2, r0
 1489 009a 0B46     		mov	r3, r1
 1490              		.loc 1 213 15
 1491 009c 1046     		mov	r0, r2
 1492 009e 1946     		mov	r1, r3
 1493 00a0 FFF7FEFF 		bl	__aeabi_d2f
 1494 00a4 0346     		mov	r3, r0	@ float
 1495 00a6 1393     		str	r3, [sp, #76]	@ float
 1496              		.loc 1 214 23
 1497 00a8 BE4B     		ldr	r3, .L14+4
 1498 00aa 1B68     		ldr	r3, [r3]	@ float
 1499 00ac 1846     		mov	r0, r3	@ float
 1500 00ae FFF7FEFF 		bl	__aeabi_f2d
 1501 00b2 0446     		mov	r4, r0
 1502 00b4 0D46     		mov	r5, r1
 1503              		.loc 1 214 29
 1504 00b6 BB4B     		ldr	r3, .L14+4
 1505 00b8 1B68     		ldr	r3, [r3]	@ float
 1506 00ba 1846     		mov	r0, r3	@ float
 1507 00bc FFF7FEFF 		bl	__aeabi_f2d
 1508 00c0 0246     		mov	r2, r0
 1509 00c2 0B46     		mov	r3, r1
 1510 00c4 4FF00000 		mov	r0, #0
 1511 00c8 4FF08041 		mov	r1, #1073741824
 1512 00cc FFF7FEFF 		bl	__aeabi_dsub
 1513 00d0 0246     		mov	r2, r0
 1514 00d2 0B46     		mov	r3, r1
 1515              		.loc 1 214 23
 1516 00d4 2046     		mov	r0, r4
 1517 00d6 2946     		mov	r1, r5
 1518 00d8 FFF7FEFF 		bl	__aeabi_dmul
 1519 00dc 0246     		mov	r2, r0
 1520 00de 0B46     		mov	r3, r1
 1521 00e0 1446     		mov	r4, r2
 1522 00e2 1D46     		mov	r5, r3
 1523              		.loc 1 214 41
 1524 00e4 AF4B     		ldr	r3, .L14+4
 1525 00e6 1B68     		ldr	r3, [r3]	@ float
 1526 00e8 1846     		mov	r0, r3	@ float
 1527 00ea FFF7FEFF 		bl	__aeabi_f2d
 1528 00ee 0246     		mov	r2, r0
 1529 00f0 0B46     		mov	r3, r1
 1530 00f2 4FF00000 		mov	r0, #0
 1531 00f6 AC49     		ldr	r1, .L14+8
 1532 00f8 FFF7FEFF 		bl	__aeabi_dsub
 1533 00fc 0246     		mov	r2, r0
 1534 00fe 0B46     		mov	r3, r1
 1535 0100 1646     		mov	r6, r2
 1536 0102 1F46     		mov	r7, r3
 1537              		.loc 1 214 52
 1538 0104 A74B     		ldr	r3, .L14+4
 1539 0106 1B68     		ldr	r3, [r3]	@ float
ARM GAS  /tmp/cceRHmPh.s 			page 28


 1540 0108 1846     		mov	r0, r3	@ float
 1541 010a FFF7FEFF 		bl	__aeabi_f2d
 1542 010e 0246     		mov	r2, r0
 1543 0110 0B46     		mov	r3, r1
 1544 0112 4FF00000 		mov	r0, #0
 1545 0116 A449     		ldr	r1, .L14+8
 1546 0118 FFF7FEFF 		bl	__aeabi_dsub
 1547 011c 0246     		mov	r2, r0
 1548 011e 0B46     		mov	r3, r1
 1549              		.loc 1 214 46
 1550 0120 3046     		mov	r0, r6
 1551 0122 3946     		mov	r1, r7
 1552 0124 FFF7FEFF 		bl	__aeabi_dmul
 1553 0128 0246     		mov	r2, r0
 1554 012a 0B46     		mov	r3, r1
 1555              		.loc 1 214 34
 1556 012c 2046     		mov	r0, r4
 1557 012e 2946     		mov	r1, r5
 1558 0130 FFF7FEFF 		bl	__aeabi_ddiv
 1559 0134 0246     		mov	r2, r0
 1560 0136 0B46     		mov	r3, r1
 1561              		.loc 1 214 15
 1562 0138 1046     		mov	r0, r2
 1563 013a 1946     		mov	r1, r3
 1564 013c FFF7FEFF 		bl	__aeabi_d2f
 1565 0140 0346     		mov	r3, r0	@ float
 1566 0142 1293     		str	r3, [sp, #72]	@ float
 1567              		.loc 1 215 22
 1568 0144 964B     		ldr	r3, .L14
 1569 0146 93ED007A 		vldr.32	s14, [r3]
 1570 014a 954B     		ldr	r3, .L14
 1571 014c D3ED007A 		vldr.32	s15, [r3]
 1572 0150 27EE277A 		vmul.f32	s14, s14, s15
 1573              		.loc 1 215 15
 1574 0154 DDED147A 		vldr.32	s15, [sp, #80]
 1575 0158 77EE677A 		vsub.f32	s15, s14, s15
 1576 015c CDED117A 		vstr.32	s15, [sp, #68]
 1577              		.loc 1 218 22
 1578 0160 009B     		ldr	r3, [sp]
 1579 0162 93ED027A 		vldr.32	s14, [r3, #8]
 1580              		.loc 1 218 30
 1581 0166 009B     		ldr	r3, [sp]
 1582 0168 D3ED027A 		vldr.32	s15, [r3, #8]
 1583              		.loc 1 218 15
 1584 016c 67EE277A 		vmul.f32	s15, s14, s15
 1585 0170 CDED107A 		vstr.32	s15, [sp, #64]
 1586              		.loc 1 219 22
 1587 0174 009B     		ldr	r3, [sp]
 1588 0176 93ED007A 		vldr.32	s14, [r3]
 1589              		.loc 1 219 30
 1590 017a 009B     		ldr	r3, [sp]
 1591 017c D3ED007A 		vldr.32	s15, [r3]
 1592              		.loc 1 219 26
 1593 0180 27EE277A 		vmul.f32	s14, s14, s15
 1594              		.loc 1 219 38
 1595 0184 009B     		ldr	r3, [sp]
 1596 0186 D3ED016A 		vldr.32	s13, [r3, #4]
ARM GAS  /tmp/cceRHmPh.s 			page 29


 1597              		.loc 1 219 46
 1598 018a 009B     		ldr	r3, [sp]
 1599 018c D3ED017A 		vldr.32	s15, [r3, #4]
 1600              		.loc 1 219 42
 1601 0190 66EEA77A 		vmul.f32	s15, s13, s15
 1602              		.loc 1 219 15
 1603 0194 77EE277A 		vadd.f32	s15, s14, s15
 1604 0198 CDED0F7A 		vstr.32	s15, [sp, #60]
 1605              		.loc 1 220 19
 1606 019c 0F98     		ldr	r0, [sp, #60]	@ float
 1607 019e FFF7FEFF 		bl	sqrtf
 1608 01a2 0E90     		str	r0, [sp, #56]	@ float
 1609              		.loc 1 221 22
 1610 01a4 1498     		ldr	r0, [sp, #80]	@ float
 1611 01a6 FFF7FEFF 		bl	__aeabi_f2d
 1612 01aa 4FF00002 		mov	r2, #0
 1613 01ae 7F4B     		ldr	r3, .L14+12
 1614 01b0 FFF7FEFF 		bl	__aeabi_dmul
 1615 01b4 0246     		mov	r2, r0
 1616 01b6 0B46     		mov	r3, r1
 1617 01b8 1446     		mov	r4, r2
 1618 01ba 1D46     		mov	r5, r3
 1619              		.loc 1 221 26
 1620 01bc 1098     		ldr	r0, [sp, #64]	@ float
 1621 01be FFF7FEFF 		bl	__aeabi_f2d
 1622 01c2 0246     		mov	r2, r0
 1623 01c4 0B46     		mov	r3, r1
 1624 01c6 2046     		mov	r0, r4
 1625 01c8 2946     		mov	r1, r5
 1626 01ca FFF7FEFF 		bl	__aeabi_dmul
 1627 01ce 0246     		mov	r2, r0
 1628 01d0 0B46     		mov	r3, r1
 1629              		.loc 1 221 15
 1630 01d2 1046     		mov	r0, r2
 1631 01d4 1946     		mov	r1, r3
 1632 01d6 FFF7FEFF 		bl	__aeabi_d2f
 1633 01da 0346     		mov	r3, r0	@ float
 1634 01dc 0D93     		str	r3, [sp, #52]	@ float
 1635              		.loc 1 222 27
 1636 01de B7EE007A 		vmov.f32	s14, #1.0e+0
 1637 01e2 DDED137A 		vldr.32	s15, [sp, #76]
 1638 01e6 37EE677A 		vsub.f32	s14, s14, s15
 1639              		.loc 1 222 33
 1640 01ea DDED107A 		vldr.32	s15, [sp, #64]
 1641 01ee 27EE277A 		vmul.f32	s14, s14, s15
 1642              		.loc 1 222 22
 1643 01f2 DDED0F7A 		vldr.32	s15, [sp, #60]
 1644 01f6 37EE277A 		vadd.f32	s14, s14, s15
 1645              		.loc 1 222 43
 1646 01fa DDED136A 		vldr.32	s13, [sp, #76]
 1647 01fe DDED117A 		vldr.32	s15, [sp, #68]
 1648 0202 66EEA77A 		vmul.f32	s15, s13, s15
 1649              		.loc 1 222 15
 1650 0206 77EE677A 		vsub.f32	s15, s14, s15
 1651 020a CDED0C7A 		vstr.32	s15, [sp, #48]
 1652              		.loc 1 223 23
 1653 020e DDED137A 		vldr.32	s15, [sp, #76]
ARM GAS  /tmp/cceRHmPh.s 			page 30


 1654 0212 27EEA77A 		vmul.f32	s14, s15, s15
 1655              		.loc 1 223 28
 1656 0216 DDED0D7A 		vldr.32	s15, [sp, #52]
 1657 021a 27EE277A 		vmul.f32	s14, s14, s15
 1658              		.loc 1 223 32
 1659 021e DDED0F7A 		vldr.32	s15, [sp, #60]
 1660 0222 67EE276A 		vmul.f32	s13, s14, s15
 1661              		.loc 1 223 43
 1662 0226 DDED0C7A 		vldr.32	s15, [sp, #48]
 1663 022a 27EEA77A 		vmul.f32	s14, s15, s15
 1664              		.loc 1 223 47
 1665 022e DDED0C7A 		vldr.32	s15, [sp, #48]
 1666 0232 27EE277A 		vmul.f32	s14, s14, s15
 1667              		.loc 1 223 15
 1668 0236 C6EE877A 		vdiv.f32	s15, s13, s14
 1669 023a CDED0B7A 		vstr.32	s15, [sp, #44]
 1670              		.loc 1 224 27
 1671 023e DDED0B7A 		vldr.32	s15, [sp, #44]
 1672 0242 B7EE007A 		vmov.f32	s14, #1.0e+0
 1673 0246 37EE878A 		vadd.f32	s16, s15, s14
 1674              		.loc 1 224 41
 1675 024a DDED0B7A 		vldr.32	s15, [sp, #44]
 1676 024e 27EEA77A 		vmul.f32	s14, s15, s15
 1677              		.loc 1 224 49
 1678 0252 DDED0B7A 		vldr.32	s15, [sp, #44]
 1679 0256 77EEA77A 		vadd.f32	s15, s15, s15
 1680              		.loc 1 224 33
 1681 025a 77EE277A 		vadd.f32	s15, s14, s15
 1682 025e 17EE900A 		vmov	r0, s15
 1683 0262 FFF7FEFF 		bl	sqrtf
 1684 0266 07EE900A 		vmov	s15, r0
 1685              		.loc 1 224 19
 1686 026a 78EE277A 		vadd.f32	s15, s16, s15
 1687 026e 5049     		ldr	r1, .L14+16
 1688 0270 17EE900A 		vmov	r0, s15
 1689 0274 FFF7FEFF 		bl	powf
 1690 0278 0A90     		str	r0, [sp, #40]	@ float
 1691              		.loc 1 225 22
 1692 027a DDED0A7A 		vldr.32	s15, [sp, #40]
 1693 027e B7EE007A 		vmov.f32	s14, #1.0e+0
 1694 0282 37EE877A 		vadd.f32	s14, s15, s14
 1695              		.loc 1 225 30
 1696 0286 B7EE006A 		vmov.f32	s12, #1.0e+0
 1697 028a DDED0A6A 		vldr.32	s13, [sp, #40]
 1698 028e C6EE267A 		vdiv.f32	s15, s12, s13
 1699              		.loc 1 225 15
 1700 0292 77EE277A 		vadd.f32	s15, s14, s15
 1701 0296 CDED097A 		vstr.32	s15, [sp, #36]
 1702              		.loc 1 226 26
 1703 029a DDED097A 		vldr.32	s15, [sp, #36]
 1704 029e B0EE087A 		vmov.f32	s14, #3.0e+0
 1705 02a2 27EE877A 		vmul.f32	s14, s15, s14
 1706              		.loc 1 226 31
 1707 02a6 DDED097A 		vldr.32	s15, [sp, #36]
 1708 02aa 27EE277A 		vmul.f32	s14, s14, s15
 1709              		.loc 1 226 36
 1710 02ae DDED0C7A 		vldr.32	s15, [sp, #48]
ARM GAS  /tmp/cceRHmPh.s 			page 31


 1711 02b2 27EE277A 		vmul.f32	s14, s14, s15
 1712              		.loc 1 226 40
 1713 02b6 DDED0C7A 		vldr.32	s15, [sp, #48]
 1714 02ba 27EE277A 		vmul.f32	s14, s14, s15
 1715              		.loc 1 226 15
 1716 02be DDED0D6A 		vldr.32	s13, [sp, #52]
 1717 02c2 C6EE877A 		vdiv.f32	s15, s13, s14
 1718 02c6 CDED087A 		vstr.32	s15, [sp, #32]
 1719              		.loc 1 227 31
 1720 02ca DDED137A 		vldr.32	s15, [sp, #76]
 1721 02ce 37EEA77A 		vadd.f32	s14, s15, s15
 1722              		.loc 1 227 36
 1723 02d2 DDED137A 		vldr.32	s15, [sp, #76]
 1724 02d6 27EE277A 		vmul.f32	s14, s14, s15
 1725              		.loc 1 227 41
 1726 02da DDED087A 		vldr.32	s15, [sp, #32]
 1727 02de 67EE277A 		vmul.f32	s15, s14, s15
 1728              		.loc 1 227 19
 1729 02e2 B7EE007A 		vmov.f32	s14, #1.0e+0
 1730 02e6 77EE877A 		vadd.f32	s15, s15, s14
 1731 02ea 17EE900A 		vmov	r0, s15
 1732 02ee FFF7FEFF 		bl	sqrtf
 1733 02f2 0790     		str	r0, [sp, #28]	@ float
 1734              		.loc 1 228 25
 1735 02f4 9DED137A 		vldr.32	s14, [sp, #76]
 1736 02f8 DDED087A 		vldr.32	s15, [sp, #32]
 1737 02fc 27EE277A 		vmul.f32	s14, s14, s15
 1738              		.loc 1 228 29
 1739 0300 DDED0E7A 		vldr.32	s15, [sp, #56]
 1740 0304 67EE277A 		vmul.f32	s15, s14, s15
 1741              		.loc 1 228 20
 1742 0308 B1EE677A 		vneg.f32	s14, s15
 1743              		.loc 1 228 39
 1744 030c DDED077A 		vldr.32	s15, [sp, #28]
 1745 0310 F7EE006A 		vmov.f32	s13, #1.0e+0
 1746 0314 77EEA67A 		vadd.f32	s15, s15, s13
 1747              		.loc 1 228 34
 1748 0318 87EE278A 		vdiv.f32	s16, s14, s15
 1749              		.loc 1 228 55
 1750 031c 204B     		ldr	r3, .L14
 1751 031e 93ED007A 		vldr.32	s14, [r3]
 1752 0322 1F4B     		ldr	r3, .L14
 1753 0324 D3ED007A 		vldr.32	s15, [r3]
 1754 0328 67EE277A 		vmul.f32	s15, s14, s15
 1755              		.loc 1 228 59
 1756 032c F0EE006A 		vmov.f32	s13, #2.0e+0
 1757 0330 87EEA67A 		vdiv.f32	s14, s15, s13
 1758              		.loc 1 228 73
 1759 0334 B7EE006A 		vmov.f32	s12, #1.0e+0
 1760 0338 DDED076A 		vldr.32	s13, [sp, #28]
 1761 033c C6EE267A 		vdiv.f32	s15, s12, s13
 1762              		.loc 1 228 69
 1763 0340 F7EE006A 		vmov.f32	s13, #1.0e+0
 1764 0344 77EEA67A 		vadd.f32	s15, s15, s13
 1765              		.loc 1 228 64
 1766 0348 27EE277A 		vmul.f32	s14, s14, s15
 1767              		.loc 1 228 84
ARM GAS  /tmp/cceRHmPh.s 			page 32


 1768 034c F7EE006A 		vmov.f32	s13, #1.0e+0
 1769 0350 DDED137A 		vldr.32	s15, [sp, #76]
 1770 0354 76EEE76A 		vsub.f32	s13, s13, s15
 1771              		.loc 1 228 90
 1772 0358 DDED087A 		vldr.32	s15, [sp, #32]
 1773 035c 66EEA76A 		vmul.f32	s13, s13, s15
 1774              		.loc 1 228 94
 1775 0360 DDED107A 		vldr.32	s15, [sp, #64]
 1776 0364 26EEA76A 		vmul.f32	s12, s13, s15
 1777              		.loc 1 229 23
 1778 0368 DDED077A 		vldr.32	s15, [sp, #28]
 1779 036c F7EE006A 		vmov.f32	s13, #1.0e+0
 1780 0370 77EEA66A 		vadd.f32	s13, s15, s13
 1781              		.loc 1 228 105
 1782 0374 DDED077A 		vldr.32	s15, [sp, #28]
 1783 0378 66EEA76A 		vmul.f32	s13, s13, s15
 1784              		.loc 1 228 100
 1785 037c C6EE267A 		vdiv.f32	s15, s12, s13
 1786              		.loc 1 228 78
 1787 0380 37EE677A 		vsub.f32	s14, s14, s15
 1788              		.loc 1 229 33
 1789 0384 DDED086A 		vldr.32	s13, [sp, #32]
 1790 0388 DDED0F7A 		vldr.32	s15, [sp, #60]
 1791 038c 66EEA76A 		vmul.f32	s13, s13, s15
 1792              		.loc 1 229 38
 1793 0390 B0EE006A 		vmov.f32	s12, #2.0e+0
 1794 0394 C6EE867A 		vdiv.f32	s15, s13, s12
 1795              		.loc 1 228 46
 1796 0398 77EE677A 		vsub.f32	s15, s14, s15
 1797 039c 0AE0     		b	.L15
 1798              	.L16:
 1799 039e 00BF     		.align	2
 1800              	.L14:
 1801 03a0 00000000 		.word	a.3
 1802 03a4 00000000 		.word	f.2
 1803 03a8 0000F03F 		.word	1072693248
 1804 03ac 00004B40 		.word	1078657024
 1805 03b0 ABAAAA3E 		.word	1051372203
 1806              	.L15:
 1807 03b4 17EE900A 		vmov	r0, s15
 1808 03b8 FFF7FEFF 		bl	sqrtf
 1809 03bc 07EE900A 		vmov	s15, r0
 1810              		.loc 1 228 15
 1811 03c0 78EE277A 		vadd.f32	s15, s16, s15
 1812 03c4 CDED067A 		vstr.32	s15, [sp, #24]
 1813              		.loc 1 230 29
 1814 03c8 9DED137A 		vldr.32	s14, [sp, #76]
 1815 03cc DDED067A 		vldr.32	s15, [sp, #24]
 1816 03d0 67EE277A 		vmul.f32	s15, s14, s15
 1817              		.loc 1 230 24
 1818 03d4 9DED0E7A 		vldr.32	s14, [sp, #56]
 1819 03d8 37EE677A 		vsub.f32	s14, s14, s15
 1820              		.loc 1 230 45
 1821 03dc DDED136A 		vldr.32	s13, [sp, #76]
 1822 03e0 DDED067A 		vldr.32	s15, [sp, #24]
 1823 03e4 66EEA77A 		vmul.f32	s15, s13, s15
 1824              		.loc 1 230 40
ARM GAS  /tmp/cceRHmPh.s 			page 33


 1825 03e8 DDED0E6A 		vldr.32	s13, [sp, #56]
 1826 03ec 76EEE77A 		vsub.f32	s15, s13, s15
 1827              		.loc 1 230 15
 1828 03f0 67EE277A 		vmul.f32	s15, s14, s15
 1829 03f4 CDED057A 		vstr.32	s15, [sp, #20]
 1830              		.loc 1 231 19
 1831 03f8 9DED057A 		vldr.32	s14, [sp, #20]
 1832 03fc DDED107A 		vldr.32	s15, [sp, #64]
 1833 0400 77EE277A 		vadd.f32	s15, s14, s15
 1834 0404 17EE900A 		vmov	r0, s15
 1835 0408 FFF7FEFF 		bl	sqrtf
 1836 040c 0490     		str	r0, [sp, #16]	@ float
 1837              		.loc 1 232 34
 1838 040e B7EE007A 		vmov.f32	s14, #1.0e+0
 1839 0412 DDED137A 		vldr.32	s15, [sp, #76]
 1840 0416 37EE677A 		vsub.f32	s14, s14, s15
 1841              		.loc 1 232 40
 1842 041a DDED107A 		vldr.32	s15, [sp, #64]
 1843 041e 27EE277A 		vmul.f32	s14, s14, s15
 1844              		.loc 1 232 19
 1845 0422 DDED057A 		vldr.32	s15, [sp, #20]
 1846 0426 77EE277A 		vadd.f32	s15, s14, s15
 1847 042a 17EE900A 		vmov	r0, s15
 1848 042e FFF7FEFF 		bl	sqrtf
 1849 0432 0390     		str	r0, [sp, #12]	@ float
 1850              		.loc 1 233 28
 1851 0434 009B     		ldr	r3, [sp]
 1852 0436 93ED027A 		vldr.32	s14, [r3, #8]
 1853              		.loc 1 233 24
 1854 043a DDED147A 		vldr.32	s15, [sp, #80]
 1855 043e 67EE276A 		vmul.f32	s13, s14, s15
 1856              		.loc 1 233 38
 1857 0442 234B     		ldr	r3, .L17
 1858 0444 93ED007A 		vldr.32	s14, [r3]
 1859 0448 DDED037A 		vldr.32	s15, [sp, #12]
 1860 044c 27EE277A 		vmul.f32	s14, s14, s15
 1861              		.loc 1 233 15
 1862 0450 C6EE877A 		vdiv.f32	s15, s13, s14
 1863 0454 CDED027A 		vstr.32	s15, [sp, #8]
 1864              		.loc 1 235 31
 1865 0458 1D4B     		ldr	r3, .L17
 1866 045a 93ED007A 		vldr.32	s14, [r3]
 1867 045e DDED037A 		vldr.32	s15, [sp, #12]
 1868 0462 27EE277A 		vmul.f32	s14, s14, s15
 1869              		.loc 1 235 26
 1870 0466 DDED146A 		vldr.32	s13, [sp, #80]
 1871 046a C6EE877A 		vdiv.f32	s15, s13, s14
 1872              		.loc 1 235 21
 1873 046e B7EE007A 		vmov.f32	s14, #1.0e+0
 1874 0472 37EE677A 		vsub.f32	s14, s14, s15
 1875              		.loc 1 235 16
 1876 0476 DDED047A 		vldr.32	s15, [sp, #16]
 1877 047a 67EE277A 		vmul.f32	s15, s14, s15
 1878              		.loc 1 235 12
 1879 047e 019B     		ldr	r3, [sp, #4]
 1880 0480 C3ED027A 		vstr.32	s15, [r3, #8]
 1881              		.loc 1 236 23
ARM GAS  /tmp/cceRHmPh.s 			page 34


 1882 0484 009B     		ldr	r3, [sp]
 1883 0486 93ED027A 		vldr.32	s14, [r3, #8]
 1884              		.loc 1 236 33
 1885 048a DDED126A 		vldr.32	s13, [sp, #72]
 1886 048e DDED027A 		vldr.32	s15, [sp, #8]
 1887 0492 66EEA77A 		vmul.f32	s15, s13, s15
 1888              		.loc 1 236 27
 1889 0496 37EE277A 		vadd.f32	s14, s14, s15
 1890              		.loc 1 236 14
 1891 049a DDED0E7A 		vldr.32	s15, [sp, #56]
 1892 049e C7EE276A 		vdiv.f32	s13, s14, s15
 1893 04a2 16EE900A 		vmov	r0, s13
 1894 04a6 FFF7FEFF 		bl	atanf
 1895 04aa 0246     		mov	r2, r0	@ float
 1896              		.loc 1 236 12
 1897 04ac 019B     		ldr	r3, [sp, #4]
 1898 04ae 1A60     		str	r2, [r3]	@ float
 1899              		.loc 1 237 14
 1900 04b0 009B     		ldr	r3, [sp]
 1901 04b2 5A68     		ldr	r2, [r3, #4]	@ float
 1902 04b4 009B     		ldr	r3, [sp]
 1903 04b6 1B68     		ldr	r3, [r3]	@ float
 1904 04b8 1946     		mov	r1, r3	@ float
 1905 04ba 1046     		mov	r0, r2	@ float
 1906 04bc FFF7FEFF 		bl	atan2f
 1907 04c0 0246     		mov	r2, r0	@ float
 1908              		.loc 1 237 12
 1909 04c2 019B     		ldr	r3, [sp, #4]
 1910 04c4 5A60     		str	r2, [r3, #4]	@ float
 1911              		.loc 1 239 1
 1912 04c6 00BF     		nop
 1913 04c8 17B0     		add	sp, sp, #92
 1914              		.cfi_def_cfa_offset 28
 1915              		@ sp needed
 1916 04ca BDEC028B 		vldm	sp!, {d8}
 1917              		.cfi_restore 80
 1918              		.cfi_restore 81
 1919              		.cfi_def_cfa_offset 20
 1920 04ce F0BD     		pop	{r4, r5, r6, r7, pc}
 1921              	.L18:
 1922              		.align	2
 1923              	.L17:
 1924 04d0 00000000 		.word	a.3
 1925              		.cfi_endproc
 1926              	.LFE64:
 1927              		.size	lla_of_ecef_f, .-lla_of_ecef_f
 1928              		.section	.text.ecef_of_lla_f,"ax",%progbits
 1929              		.align	1
 1930              		.p2align 4,,15
 1931              		.global	ecef_of_lla_f
 1932              		.syntax unified
 1933              		.thumb
 1934              		.thumb_func
 1935              		.fpu fpv4-sp-d16
 1936              		.type	ecef_of_lla_f, %function
 1937              	ecef_of_lla_f:
 1938              	.LFB65:
ARM GAS  /tmp/cceRHmPh.s 			page 35


 1939              		.loc 1 242 1
 1940              		.cfi_startproc
 1941              		@ args = 0, pretend = 0, frame = 40
 1942              		@ frame_needed = 0, uses_anonymous_args = 0
 1943 0000 30B5     		push	{r4, r5, lr}
 1944              		.cfi_def_cfa_offset 12
 1945              		.cfi_offset 4, -12
 1946              		.cfi_offset 5, -8
 1947              		.cfi_offset 14, -4
 1948 0002 8BB0     		sub	sp, sp, #44
 1949              		.cfi_def_cfa_offset 56
 1950 0004 0190     		str	r0, [sp, #4]
 1951 0006 0091     		str	r1, [sp]
 1952              		.loc 1 247 22
 1953 0008 5D4B     		ldr	r3, .L20
 1954 000a 1B68     		ldr	r3, [r3]	@ float
 1955 000c 1846     		mov	r0, r3	@ float
 1956 000e FFF7FEFF 		bl	__aeabi_f2d
 1957 0012 0246     		mov	r2, r0
 1958 0014 0B46     		mov	r3, r1
 1959 0016 FFF7FEFF 		bl	__aeabi_dadd
 1960 001a 0246     		mov	r2, r0
 1961 001c 0B46     		mov	r3, r1
 1962 001e 1446     		mov	r4, r2
 1963 0020 1D46     		mov	r5, r3
 1964              		.loc 1 247 30
 1965 0022 574B     		ldr	r3, .L20
 1966 0024 93ED007A 		vldr.32	s14, [r3]
 1967 0028 554B     		ldr	r3, .L20
 1968 002a D3ED007A 		vldr.32	s15, [r3]
 1969 002e 67EE277A 		vmul.f32	s15, s14, s15
 1970 0032 17EE900A 		vmov	r0, s15
 1971 0036 FFF7FEFF 		bl	__aeabi_f2d
 1972 003a 0246     		mov	r2, r0
 1973 003c 0B46     		mov	r3, r1
 1974              		.loc 1 247 25
 1975 003e 2046     		mov	r0, r4
 1976 0040 2946     		mov	r1, r5
 1977 0042 FFF7FEFF 		bl	__aeabi_dsub
 1978 0046 0246     		mov	r2, r0
 1979 0048 0B46     		mov	r3, r1
 1980              		.loc 1 247 15
 1981 004a 1046     		mov	r0, r2
 1982 004c 1946     		mov	r1, r3
 1983 004e FFF7FEFF 		bl	__aeabi_d2f
 1984 0052 0346     		mov	r3, r0	@ float
 1985 0054 0993     		str	r3, [sp, #36]	@ float
 1986              		.loc 1 249 25
 1987 0056 009B     		ldr	r3, [sp]
 1988 0058 1B68     		ldr	r3, [r3]	@ float
 1989 005a 1846     		mov	r0, r3	@ float
 1990 005c FFF7FEFF 		bl	sinf
 1991 0060 0890     		str	r0, [sp, #32]	@ float
 1992              		.loc 1 250 25
 1993 0062 009B     		ldr	r3, [sp]
 1994 0064 1B68     		ldr	r3, [r3]	@ float
 1995 0066 1846     		mov	r0, r3	@ float
ARM GAS  /tmp/cceRHmPh.s 			page 36


 1996 0068 FFF7FEFF 		bl	cosf
 1997 006c 0790     		str	r0, [sp, #28]	@ float
 1998              		.loc 1 251 25
 1999 006e 009B     		ldr	r3, [sp]
 2000 0070 5B68     		ldr	r3, [r3, #4]	@ float
 2001 0072 1846     		mov	r0, r3	@ float
 2002 0074 FFF7FEFF 		bl	sinf
 2003 0078 0690     		str	r0, [sp, #24]	@ float
 2004              		.loc 1 252 25
 2005 007a 009B     		ldr	r3, [sp]
 2006 007c 5B68     		ldr	r3, [r3, #4]	@ float
 2007 007e 1846     		mov	r0, r3	@ float
 2008 0080 FFF7FEFF 		bl	cosf
 2009 0084 0590     		str	r0, [sp, #20]	@ float
 2010              		.loc 1 253 35
 2011 0086 9DED097A 		vldr.32	s14, [sp, #36]
 2012 008a DDED087A 		vldr.32	s15, [sp, #32]
 2013 008e 27EE277A 		vmul.f32	s14, s14, s15
 2014              		.loc 1 253 45
 2015 0092 DDED087A 		vldr.32	s15, [sp, #32]
 2016 0096 67EE277A 		vmul.f32	s15, s14, s15
 2017              		.loc 1 253 21
 2018 009a B7EE007A 		vmov.f32	s14, #1.0e+0
 2019 009e 77EE677A 		vsub.f32	s15, s14, s15
 2020 00a2 17EE900A 		vmov	r0, s15
 2021 00a6 FFF7FEFF 		bl	sqrtf
 2022 00aa 0490     		str	r0, [sp, #16]	@ float
 2023              		.loc 1 254 25
 2024 00ac 354B     		ldr	r3, .L20+4
 2025 00ae D3ED006A 		vldr.32	s13, [r3]
 2026              		.loc 1 254 15
 2027 00b2 9DED047A 		vldr.32	s14, [sp, #16]
 2028 00b6 C6EE877A 		vdiv.f32	s15, s13, s14
 2029 00ba CDED037A 		vstr.32	s15, [sp, #12]
 2030              		.loc 1 256 23
 2031 00be 009B     		ldr	r3, [sp]
 2032 00c0 93ED027A 		vldr.32	s14, [r3, #8]
 2033              		.loc 1 256 19
 2034 00c4 DDED037A 		vldr.32	s15, [sp, #12]
 2035 00c8 37EE277A 		vadd.f32	s14, s14, s15
 2036              		.loc 1 256 30
 2037 00cc DDED077A 		vldr.32	s15, [sp, #28]
 2038 00d0 27EE277A 		vmul.f32	s14, s14, s15
 2039              		.loc 1 256 40
 2040 00d4 DDED057A 		vldr.32	s15, [sp, #20]
 2041 00d8 67EE277A 		vmul.f32	s15, s14, s15
 2042              		.loc 1 256 10
 2043 00dc 019B     		ldr	r3, [sp, #4]
 2044 00de C3ED007A 		vstr.32	s15, [r3]
 2045              		.loc 1 257 23
 2046 00e2 009B     		ldr	r3, [sp]
 2047 00e4 93ED027A 		vldr.32	s14, [r3, #8]
 2048              		.loc 1 257 19
 2049 00e8 DDED037A 		vldr.32	s15, [sp, #12]
 2050 00ec 37EE277A 		vadd.f32	s14, s14, s15
 2051              		.loc 1 257 30
 2052 00f0 DDED077A 		vldr.32	s15, [sp, #28]
ARM GAS  /tmp/cceRHmPh.s 			page 37


 2053 00f4 27EE277A 		vmul.f32	s14, s14, s15
 2054              		.loc 1 257 40
 2055 00f8 DDED067A 		vldr.32	s15, [sp, #24]
 2056 00fc 67EE277A 		vmul.f32	s15, s14, s15
 2057              		.loc 1 257 10
 2058 0100 019B     		ldr	r3, [sp, #4]
 2059 0102 C3ED017A 		vstr.32	s15, [r3, #4]
 2060              		.loc 1 258 19
 2061 0106 0398     		ldr	r0, [sp, #12]	@ float
 2062 0108 FFF7FEFF 		bl	__aeabi_f2d
 2063 010c 0446     		mov	r4, r0
 2064 010e 0D46     		mov	r5, r1
 2065              		.loc 1 258 25
 2066 0110 0998     		ldr	r0, [sp, #36]	@ float
 2067 0112 FFF7FEFF 		bl	__aeabi_f2d
 2068 0116 0246     		mov	r2, r0
 2069 0118 0B46     		mov	r3, r1
 2070 011a 4FF00000 		mov	r0, #0
 2071 011e 1A49     		ldr	r1, .L20+8
 2072 0120 FFF7FEFF 		bl	__aeabi_dsub
 2073 0124 0246     		mov	r2, r0
 2074 0126 0B46     		mov	r3, r1
 2075              		.loc 1 258 19
 2076 0128 2046     		mov	r0, r4
 2077 012a 2946     		mov	r1, r5
 2078 012c FFF7FEFF 		bl	__aeabi_dmul
 2079 0130 0246     		mov	r2, r0
 2080 0132 0B46     		mov	r3, r1
 2081 0134 1446     		mov	r4, r2
 2082 0136 1D46     		mov	r5, r3
 2083              		.loc 1 258 35
 2084 0138 009B     		ldr	r3, [sp]
 2085 013a 9B68     		ldr	r3, [r3, #8]	@ float
 2086 013c 1846     		mov	r0, r3	@ float
 2087 013e FFF7FEFF 		bl	__aeabi_f2d
 2088 0142 0246     		mov	r2, r0
 2089 0144 0B46     		mov	r3, r1
 2090              		.loc 1 258 31
 2091 0146 2046     		mov	r0, r4
 2092 0148 2946     		mov	r1, r5
 2093 014a FFF7FEFF 		bl	__aeabi_dadd
 2094 014e 0246     		mov	r2, r0
 2095 0150 0B46     		mov	r3, r1
 2096 0152 1446     		mov	r4, r2
 2097 0154 1D46     		mov	r5, r3
 2098              		.loc 1 258 42
 2099 0156 0898     		ldr	r0, [sp, #32]	@ float
 2100 0158 FFF7FEFF 		bl	__aeabi_f2d
 2101 015c 0246     		mov	r2, r0
 2102 015e 0B46     		mov	r3, r1
 2103 0160 2046     		mov	r0, r4
 2104 0162 2946     		mov	r1, r5
 2105 0164 FFF7FEFF 		bl	__aeabi_dmul
 2106 0168 0246     		mov	r2, r0
 2107 016a 0B46     		mov	r3, r1
 2108 016c 1046     		mov	r0, r2
 2109 016e 1946     		mov	r1, r3
ARM GAS  /tmp/cceRHmPh.s 			page 38


 2110 0170 FFF7FEFF 		bl	__aeabi_d2f
 2111 0174 0246     		mov	r2, r0	@ float
 2112              		.loc 1 258 10
 2113 0176 019B     		ldr	r3, [sp, #4]
 2114 0178 9A60     		str	r2, [r3, #8]	@ float
 2115              		.loc 1 259 1
 2116 017a 00BF     		nop
 2117 017c 0BB0     		add	sp, sp, #44
 2118              		.cfi_def_cfa_offset 12
 2119              		@ sp needed
 2120 017e 30BD     		pop	{r4, r5, pc}
 2121              	.L21:
 2122              		.align	2
 2123              	.L20:
 2124 0180 00000000 		.word	f.1
 2125 0184 00000000 		.word	a.0
 2126 0188 0000F03F 		.word	1072693248
 2127              		.cfi_endproc
 2128              	.LFE65:
 2129              		.size	ecef_of_lla_f, .-ecef_of_lla_f
 2130              		.section	.rodata.serie_coeff_proj_mercator,"a"
 2131              		.align	2
 2132              		.type	serie_coeff_proj_mercator, %object
 2133              		.size	serie_coeff_proj_mercator, 20
 2134              	serie_coeff_proj_mercator:
 2135 0000 2E927F3F 		.word	1065325102
 2136 0004 063D5B3A 		.word	979057926
 2137 0008 CBE54B35 		.word	894166475
 2138 000c 8A53A430 		.word	816075658
 2139 0010 19A5292C 		.word	740926745
 2140              		.section	.rodata.serie_coeff_proj_mercator_inverse,"a"
 2141              		.align	2
 2142              		.type	serie_coeff_proj_mercator_inverse, %object
 2143              		.size	serie_coeff_proj_mercator_inverse, 20
 2144              	serie_coeff_proj_mercator_inverse:
 2145 0000 2E927F3F 		.word	1065325102
 2146 0004 419B5B3A 		.word	979082049
 2147 0008 B8A77D33 		.word	863872952
 2148 000c 48FE372F 		.word	792198728
 2149 0010 BECF702A 		.word	712036286
 2150              		.section	.text.isometric_latitude_f,"ax",%progbits
 2151              		.align	1
 2152              		.p2align 4,,15
 2153              		.syntax unified
 2154              		.thumb
 2155              		.thumb_func
 2156              		.fpu fpv4-sp-d16
 2157              		.type	isometric_latitude_f, %function
 2158              	isometric_latitude_f:
 2159              	.LFB66:
 2160              		.loc 1 278 1
 2161              		.cfi_startproc
 2162              		@ args = 0, pretend = 0, frame = 8
 2163              		@ frame_needed = 0, uses_anonymous_args = 0
 2164 0000 2DE9F043 		push	{r4, r5, r6, r7, r8, r9, lr}
 2165              		.cfi_def_cfa_offset 28
 2166              		.cfi_offset 4, -28
ARM GAS  /tmp/cceRHmPh.s 			page 39


 2167              		.cfi_offset 5, -24
 2168              		.cfi_offset 6, -20
 2169              		.cfi_offset 7, -16
 2170              		.cfi_offset 8, -12
 2171              		.cfi_offset 9, -8
 2172              		.cfi_offset 14, -4
 2173 0004 83B0     		sub	sp, sp, #12
 2174              		.cfi_def_cfa_offset 40
 2175 0006 8DED010A 		vstr.32	s0, [sp, #4]
 2176 000a CDED000A 		vstr.32	s1, [sp]
 2177              		.loc 1 279 33
 2178 000e 0198     		ldr	r0, [sp, #4]	@ float
 2179 0010 FFF7FEFF 		bl	__aeabi_f2d
 2180 0014 4FF00002 		mov	r2, #0
 2181 0018 4FF08043 		mov	r3, #1073741824
 2182 001c FFF7FEFF 		bl	__aeabi_ddiv
 2183 0020 0246     		mov	r2, r0
 2184 0022 0B46     		mov	r3, r1
 2185 0024 1046     		mov	r0, r2
 2186 0026 1946     		mov	r1, r3
 2187              		.loc 1 279 27
 2188 0028 40A3     		adr	r3, .L24+4
 2189 002a D3E90023 		ldrd	r2, [r3]
 2190 002e FFF7FEFF 		bl	__aeabi_dadd
 2191 0032 0246     		mov	r2, r0
 2192 0034 0B46     		mov	r3, r1
 2193              		.loc 1 279 10
 2194 0036 1046     		mov	r0, r2
 2195 0038 1946     		mov	r1, r3
 2196 003a FFF7FEFF 		bl	__aeabi_d2f
 2197 003e 0346     		mov	r3, r0	@ float
 2198 0040 1846     		mov	r0, r3	@ float
 2199 0042 FFF7FEFF 		bl	tanf
 2200 0046 0346     		mov	r3, r0	@ float
 2201 0048 1846     		mov	r0, r3	@ float
 2202 004a FFF7FEFF 		bl	logf
 2203 004e 0346     		mov	r3, r0	@ float
 2204 0050 1846     		mov	r0, r3	@ float
 2205 0052 FFF7FEFF 		bl	__aeabi_f2d
 2206 0056 0446     		mov	r4, r0
 2207 0058 0D46     		mov	r5, r1
 2208              		.loc 1 279 45
 2209 005a 0098     		ldr	r0, [sp]	@ float
 2210 005c FFF7FEFF 		bl	__aeabi_f2d
 2211 0060 4FF00002 		mov	r2, #0
 2212 0064 4FF08043 		mov	r3, #1073741824
 2213 0068 FFF7FEFF 		bl	__aeabi_ddiv
 2214 006c 0246     		mov	r2, r0
 2215 006e 0B46     		mov	r3, r1
 2216 0070 1646     		mov	r6, r2
 2217 0072 1F46     		mov	r7, r3
 2218              		.loc 1 279 69
 2219 0074 0198     		ldr	r0, [sp, #4]	@ float
 2220 0076 FFF7FEFF 		bl	sinf
 2221 007a 07EE100A 		vmov	s14, r0
 2222              		.loc 1 279 67
 2223 007e DDED007A 		vldr.32	s15, [sp]
ARM GAS  /tmp/cceRHmPh.s 			page 40


 2224 0082 67EE277A 		vmul.f32	s15, s14, s15
 2225 0086 17EE900A 		vmov	r0, s15
 2226 008a FFF7FEFF 		bl	__aeabi_f2d
 2227              		.loc 1 279 63
 2228 008e 4FF00002 		mov	r2, #0
 2229 0092 254B     		ldr	r3, .L24
 2230 0094 FFF7FEFF 		bl	__aeabi_dadd
 2231 0098 0246     		mov	r2, r0
 2232 009a 0B46     		mov	r3, r1
 2233 009c 9046     		mov	r8, r2
 2234 009e 9946     		mov	r9, r3
 2235              		.loc 1 279 93
 2236 00a0 0198     		ldr	r0, [sp, #4]	@ float
 2237 00a2 FFF7FEFF 		bl	sinf
 2238 00a6 07EE100A 		vmov	s14, r0
 2239              		.loc 1 279 91
 2240 00aa DDED007A 		vldr.32	s15, [sp]
 2241 00ae 67EE277A 		vmul.f32	s15, s14, s15
 2242 00b2 17EE900A 		vmov	r0, s15
 2243 00b6 FFF7FEFF 		bl	__aeabi_f2d
 2244 00ba 0246     		mov	r2, r0
 2245 00bc 0B46     		mov	r3, r1
 2246              		.loc 1 279 87
 2247 00be 4FF00000 		mov	r0, #0
 2248 00c2 1949     		ldr	r1, .L24
 2249 00c4 FFF7FEFF 		bl	__aeabi_dsub
 2250 00c8 0246     		mov	r2, r0
 2251 00ca 0B46     		mov	r3, r1
 2252              		.loc 1 279 80
 2253 00cc 4046     		mov	r0, r8
 2254 00ce 4946     		mov	r1, r9
 2255 00d0 FFF7FEFF 		bl	__aeabi_ddiv
 2256 00d4 0246     		mov	r2, r0
 2257 00d6 0B46     		mov	r3, r1
 2258              		.loc 1 279 53
 2259 00d8 1046     		mov	r0, r2
 2260 00da 1946     		mov	r1, r3
 2261 00dc FFF7FEFF 		bl	__aeabi_d2f
 2262 00e0 0346     		mov	r3, r0	@ float
 2263 00e2 1846     		mov	r0, r3	@ float
 2264 00e4 FFF7FEFF 		bl	logf
 2265 00e8 0346     		mov	r3, r0	@ float
 2266 00ea 1846     		mov	r0, r3	@ float
 2267 00ec FFF7FEFF 		bl	__aeabi_f2d
 2268 00f0 0246     		mov	r2, r0
 2269 00f2 0B46     		mov	r3, r1
 2270              		.loc 1 279 51
 2271 00f4 3046     		mov	r0, r6
 2272 00f6 3946     		mov	r1, r7
 2273 00f8 FFF7FEFF 		bl	__aeabi_dmul
 2274 00fc 0246     		mov	r2, r0
 2275 00fe 0B46     		mov	r3, r1
 2276              		.loc 1 279 41
 2277 0100 2046     		mov	r0, r4
 2278 0102 2946     		mov	r1, r5
 2279 0104 FFF7FEFF 		bl	__aeabi_dsub
 2280 0108 0246     		mov	r2, r0
ARM GAS  /tmp/cceRHmPh.s 			page 41


 2281 010a 0B46     		mov	r3, r1
 2282 010c 1046     		mov	r0, r2
 2283 010e 1946     		mov	r1, r3
 2284 0110 FFF7FEFF 		bl	__aeabi_d2f
 2285 0114 0346     		mov	r3, r0	@ float
 2286 0116 07EE903A 		vmov	s15, r3
 2287              		.loc 1 280 1
 2288 011a B0EE670A 		vmov.f32	s0, s15
 2289 011e 03B0     		add	sp, sp, #12
 2290              		.cfi_def_cfa_offset 28
 2291              		@ sp needed
 2292 0120 BDE8F083 		pop	{r4, r5, r6, r7, r8, r9, pc}
 2293              	.L25:
 2294 0124 AFF30080 		.align	3
 2295              	.L24:
 2296 0128 0000F03F 		.word	1072693248
 2297 012c 182D4454 		.word	1413754136
 2298 0130 FB21E93F 		.word	1072243195
 2299              		.cfi_endproc
 2300              	.LFE66:
 2301              		.size	isometric_latitude_f, .-isometric_latitude_f
 2302              		.section	.text.isometric_latitude_fast_f,"ax",%progbits
 2303              		.align	1
 2304              		.p2align 4,,15
 2305              		.syntax unified
 2306              		.thumb
 2307              		.thumb_func
 2308              		.fpu fpv4-sp-d16
 2309              		.type	isometric_latitude_fast_f, %function
 2310              	isometric_latitude_fast_f:
 2311              	.LFB67:
 2312              		.loc 1 283 1
 2313              		.cfi_startproc
 2314              		@ args = 0, pretend = 0, frame = 8
 2315              		@ frame_needed = 0, uses_anonymous_args = 0
 2316 0000 00B5     		push	{lr}
 2317              		.cfi_def_cfa_offset 4
 2318              		.cfi_offset 14, -4
 2319 0002 83B0     		sub	sp, sp, #12
 2320              		.cfi_def_cfa_offset 16
 2321 0004 8DED010A 		vstr.32	s0, [sp, #4]
 2322              		.loc 1 284 33
 2323 0008 0198     		ldr	r0, [sp, #4]	@ float
 2324 000a FFF7FEFF 		bl	__aeabi_f2d
 2325 000e 4FF00002 		mov	r2, #0
 2326 0012 4FF08043 		mov	r3, #1073741824
 2327 0016 FFF7FEFF 		bl	__aeabi_ddiv
 2328 001a 0246     		mov	r2, r0
 2329 001c 0B46     		mov	r3, r1
 2330 001e 1046     		mov	r0, r2
 2331 0020 1946     		mov	r1, r3
 2332              		.loc 1 284 27
 2333 0022 0DA3     		adr	r3, .L28
 2334 0024 D3E90023 		ldrd	r2, [r3]
 2335 0028 FFF7FEFF 		bl	__aeabi_dadd
 2336 002c 0246     		mov	r2, r0
 2337 002e 0B46     		mov	r3, r1
ARM GAS  /tmp/cceRHmPh.s 			page 42


 2338              		.loc 1 284 10
 2339 0030 1046     		mov	r0, r2
 2340 0032 1946     		mov	r1, r3
 2341 0034 FFF7FEFF 		bl	__aeabi_d2f
 2342 0038 0346     		mov	r3, r0	@ float
 2343 003a 1846     		mov	r0, r3	@ float
 2344 003c FFF7FEFF 		bl	tanf
 2345 0040 0346     		mov	r3, r0	@ float
 2346 0042 1846     		mov	r0, r3	@ float
 2347 0044 FFF7FEFF 		bl	logf
 2348 0048 0346     		mov	r3, r0	@ float
 2349 004a 07EE903A 		vmov	s15, r3
 2350              		.loc 1 285 1
 2351 004e B0EE670A 		vmov.f32	s0, s15
 2352 0052 03B0     		add	sp, sp, #12
 2353              		.cfi_def_cfa_offset 4
 2354              		@ sp needed
 2355 0054 5DF804FB 		ldr	pc, [sp], #4
 2356              	.L29:
 2357              		.align	3
 2358              	.L28:
 2359 0058 182D4454 		.word	1413754136
 2360 005c FB21E93F 		.word	1072243195
 2361              		.cfi_endproc
 2362              	.LFE67:
 2363              		.size	isometric_latitude_fast_f, .-isometric_latitude_fast_f
 2364              		.section	.text.inverse_isometric_latitude_f,"ax",%progbits
 2365              		.align	1
 2366              		.p2align 4,,15
 2367              		.syntax unified
 2368              		.thumb
 2369              		.thumb_func
 2370              		.fpu fpv4-sp-d16
 2371              		.type	inverse_isometric_latitude_f, %function
 2372              	inverse_isometric_latitude_f:
 2373              	.LFB68:
 2374              		.loc 1 288 1
 2375              		.cfi_startproc
 2376              		@ args = 0, pretend = 0, frame = 40
 2377              		@ frame_needed = 0, uses_anonymous_args = 0
 2378 0000 30B5     		push	{r4, r5, lr}
 2379              		.cfi_def_cfa_offset 12
 2380              		.cfi_offset 4, -12
 2381              		.cfi_offset 5, -8
 2382              		.cfi_offset 14, -4
 2383 0002 8BB0     		sub	sp, sp, #44
 2384              		.cfi_def_cfa_offset 56
 2385 0004 8DED030A 		vstr.32	s0, [sp, #12]
 2386 0008 CDED020A 		vstr.32	s1, [sp, #8]
 2387 000c 8DED011A 		vstr.32	s2, [sp, #4]
 2388              		.loc 1 289 17
 2389 0010 0398     		ldr	r0, [sp, #12]	@ float
 2390 0012 FFF7FEFF 		bl	expf
 2391 0016 0790     		str	r0, [sp, #28]	@ float
 2392              		.loc 1 290 20
 2393 0018 0798     		ldr	r0, [sp, #28]	@ float
 2394 001a FFF7FEFF 		bl	atanf
ARM GAS  /tmp/cceRHmPh.s 			page 43


 2395 001e 07EE900A 		vmov	s15, r0
 2396              		.loc 1 290 18
 2397 0022 77EEA77A 		vadd.f32	s15, s15, s15
 2398 0026 17EE900A 		vmov	r0, s15
 2399 002a FFF7FEFF 		bl	__aeabi_f2d
 2400              		.loc 1 290 33
 2401 002e 44A3     		adr	r3, .L34
 2402 0030 D3E90023 		ldrd	r2, [r3]
 2403 0034 FFF7FEFF 		bl	__aeabi_dsub
 2404 0038 0246     		mov	r2, r0
 2405 003a 0B46     		mov	r3, r1
 2406              		.loc 1 290 9
 2407 003c 1046     		mov	r0, r2
 2408 003e 1946     		mov	r1, r3
 2409 0040 FFF7FEFF 		bl	__aeabi_d2f
 2410 0044 0346     		mov	r3, r0	@ float
 2411 0046 0993     		str	r3, [sp, #36]	@ float
 2412              		.loc 1 292 11
 2413 0048 0323     		movs	r3, #3
 2414 004a 8DF82330 		strb	r3, [sp, #35]
 2415              	.L32:
 2416              	.LBB2:
 2417              		.loc 1 295 10 discriminator 2
 2418 004e 099B     		ldr	r3, [sp, #36]	@ float
 2419 0050 0693     		str	r3, [sp, #24]	@ float
 2420              		.loc 1 296 25 discriminator 2
 2421 0052 0698     		ldr	r0, [sp, #24]	@ float
 2422 0054 FFF7FEFF 		bl	sinf
 2423 0058 07EE100A 		vmov	s14, r0
 2424              		.loc 1 296 11 discriminator 2
 2425 005c DDED027A 		vldr.32	s15, [sp, #8]
 2426 0060 67EE877A 		vmul.f32	s15, s15, s14
 2427 0064 CDED057A 		vstr.32	s15, [sp, #20]
 2428              		.loc 1 297 30 discriminator 2
 2429 0068 DDED057A 		vldr.32	s15, [sp, #20]
 2430 006c B7EE007A 		vmov.f32	s14, #1.0e+0
 2431 0070 77EE877A 		vadd.f32	s15, s15, s14
 2432 0074 17EE900A 		vmov	r0, s15
 2433 0078 FFF7FEFF 		bl	__aeabi_f2d
 2434 007c 0446     		mov	r4, r0
 2435 007e 0D46     		mov	r5, r1
 2436              		.loc 1 297 47 discriminator 2
 2437 0080 0598     		ldr	r0, [sp, #20]	@ float
 2438 0082 FFF7FEFF 		bl	__aeabi_f2d
 2439 0086 0246     		mov	r2, r0
 2440 0088 0B46     		mov	r3, r1
 2441 008a 4FF00000 		mov	r0, #0
 2442 008e 2E49     		ldr	r1, .L34+8
 2443 0090 FFF7FEFF 		bl	__aeabi_dsub
 2444 0094 0246     		mov	r2, r0
 2445 0096 0B46     		mov	r3, r1
 2446              		.loc 1 297 41 discriminator 2
 2447 0098 2046     		mov	r0, r4
 2448 009a 2946     		mov	r1, r5
 2449 009c FFF7FEFF 		bl	__aeabi_ddiv
 2450 00a0 0246     		mov	r2, r0
 2451 00a2 0B46     		mov	r3, r1
ARM GAS  /tmp/cceRHmPh.s 			page 44


 2452              		.loc 1 297 22 discriminator 2
 2453 00a4 1046     		mov	r0, r2
 2454 00a6 1946     		mov	r1, r3
 2455 00a8 FFF7FEFF 		bl	__aeabi_d2f
 2456 00ac 0346     		mov	r3, r0	@ float
 2457 00ae DDED027A 		vldr.32	s15, [sp, #8]
 2458 00b2 B0EE007A 		vmov.f32	s14, #2.0e+0
 2459 00b6 C7EE876A 		vdiv.f32	s13, s15, s14
 2460 00ba 16EE901A 		vmov	r1, s13
 2461 00be 1846     		mov	r0, r3	@ float
 2462 00c0 FFF7FEFF 		bl	powf
 2463 00c4 07EE100A 		vmov	s14, r0
 2464              		.loc 1 297 16 discriminator 2
 2465 00c8 DDED077A 		vldr.32	s15, [sp, #28]
 2466 00cc 67EE277A 		vmul.f32	s15, s14, s15
 2467 00d0 17EE900A 		vmov	r0, s15
 2468 00d4 FFF7FEFF 		bl	atanf
 2469 00d8 07EE900A 		vmov	s15, r0
 2470              		.loc 1 297 14 discriminator 2
 2471 00dc 77EEA77A 		vadd.f32	s15, s15, s15
 2472 00e0 17EE900A 		vmov	r0, s15
 2473 00e4 FFF7FEFF 		bl	__aeabi_f2d
 2474              		.loc 1 297 76 discriminator 2
 2475 00e8 15A3     		adr	r3, .L34
 2476 00ea D3E90023 		ldrd	r2, [r3]
 2477 00ee FFF7FEFF 		bl	__aeabi_dsub
 2478 00f2 0246     		mov	r2, r0
 2479 00f4 0B46     		mov	r3, r1
 2480              		.loc 1 297 10 discriminator 2
 2481 00f6 1046     		mov	r0, r2
 2482 00f8 1946     		mov	r1, r3
 2483 00fa FFF7FEFF 		bl	__aeabi_d2f
 2484 00fe 0346     		mov	r3, r0	@ float
 2485 0100 0993     		str	r3, [sp, #36]	@ float
 2486              		.loc 1 298 13 discriminator 2
 2487 0102 9DF82330 		ldrb	r3, [sp, #35]	@ zero_extendqisi2
 2488 0106 013B     		subs	r3, r3, #1
 2489 0108 8DF82330 		strb	r3, [sp, #35]
 2490              	.LBE2:
 2491              		.loc 1 299 3 discriminator 2
 2492 010c 9DF82330 		ldrb	r3, [sp, #35]	@ zero_extendqisi2
 2493 0110 002B     		cmp	r3, #0
 2494 0112 0ED0     		beq	.L31
 2495              		.loc 1 299 35 discriminator 1
 2496 0114 9DED067A 		vldr.32	s14, [sp, #24]
 2497 0118 DDED097A 		vldr.32	s15, [sp, #36]
 2498 011c 77EE677A 		vsub.f32	s15, s14, s15
 2499              		.loc 1 299 24 discriminator 1
 2500 0120 F0EEE77A 		vabs.f32	s15, s15
 2501              		.loc 1 299 21 discriminator 1
 2502 0124 9DED017A 		vldr.32	s14, [sp, #4]
 2503 0128 B4EEE77A 		vcmpe.f32	s14, s15
 2504 012c F1EE10FA 		vmrs	APSR_nzcv, FPSCR
 2505 0130 8DD4     		bmi	.L32
 2506              	.L31:
 2507              		.loc 1 300 10
 2508 0132 099B     		ldr	r3, [sp, #36]	@ float
ARM GAS  /tmp/cceRHmPh.s 			page 45


 2509 0134 07EE903A 		vmov	s15, r3
 2510              		.loc 1 301 1
 2511 0138 B0EE670A 		vmov.f32	s0, s15
 2512 013c 0BB0     		add	sp, sp, #44
 2513              		.cfi_def_cfa_offset 12
 2514              		@ sp needed
 2515 013e 30BD     		pop	{r4, r5, pc}
 2516              	.L35:
 2517              		.align	3
 2518              	.L34:
 2519 0140 182D4454 		.word	1413754136
 2520 0144 FB21F93F 		.word	1073291771
 2521 0148 0000F03F 		.word	1072693248
 2522              		.cfi_endproc
 2523              	.LFE68:
 2524              		.size	inverse_isometric_latitude_f, .-inverse_isometric_latitude_f
 2525              		.global	__aeabi_d2uiz
 2526              		.global	__aeabi_i2d
 2527              		.section	.text.utm_of_lla_f,"ax",%progbits
 2528              		.align	1
 2529              		.p2align 4,,15
 2530              		.global	utm_of_lla_f
 2531              		.syntax unified
 2532              		.thumb
 2533              		.thumb_func
 2534              		.fpu fpv4-sp-d16
 2535              		.type	utm_of_lla_f, %function
 2536              	utm_of_lla_f:
 2537              	.LFB69:
 2538              		.loc 1 309 1
 2539              		.cfi_startproc
 2540              		@ args = 0, pretend = 0, frame = 80
 2541              		@ frame_needed = 0, uses_anonymous_args = 0
 2542 0000 30B5     		push	{r4, r5, lr}
 2543              		.cfi_def_cfa_offset 12
 2544              		.cfi_offset 4, -12
 2545              		.cfi_offset 5, -8
 2546              		.cfi_offset 14, -4
 2547 0002 2DED028B 		vpush.64	{d8}
 2548              		.cfi_def_cfa_offset 20
 2549              		.cfi_offset 80, -20
 2550              		.cfi_offset 81, -16
 2551 0006 95B0     		sub	sp, sp, #84
 2552              		.cfi_def_cfa_offset 104
 2553 0008 0190     		str	r0, [sp, #4]
 2554 000a 0091     		str	r1, [sp]
 2555              		.loc 1 311 10
 2556 000c 019B     		ldr	r3, [sp, #4]
 2557 000e 1B7B     		ldrb	r3, [r3, #12]	@ zero_extendqisi2
 2558              		.loc 1 311 6
 2559 0010 002B     		cmp	r3, #0
 2560 0012 30D1     		bne	.L37
 2561              		.loc 1 312 17
 2562 0014 009B     		ldr	r3, [sp]
 2563 0016 5B68     		ldr	r3, [r3, #4]	@ float
 2564 0018 1846     		mov	r0, r3	@ float
 2565 001a FFF7FEFF 		bl	__aeabi_f2d
ARM GAS  /tmp/cceRHmPh.s 			page 46


 2566 001e 53A3     		adr	r3, .L40+28
 2567 0020 D3E90023 		ldrd	r2, [r3]
 2568 0024 FFF7FEFF 		bl	__aeabi_dmul
 2569 0028 0246     		mov	r2, r0
 2570 002a 0B46     		mov	r3, r1
 2571 002c 1046     		mov	r0, r2
 2572 002e 1946     		mov	r1, r3
 2573 0030 4FF00002 		mov	r2, #0
 2574 0034 484B     		ldr	r3, .L40+8
 2575 0036 FFF7FEFF 		bl	__aeabi_dadd
 2576 003a 0246     		mov	r2, r0
 2577 003c 0B46     		mov	r3, r1
 2578 003e 1046     		mov	r0, r2
 2579 0040 1946     		mov	r1, r3
 2580 0042 FFF7FEFF 		bl	floor
 2581 0046 4FF00002 		mov	r2, #0
 2582 004a 444B     		ldr	r3, .L40+12
 2583 004c FFF7FEFF 		bl	__aeabi_ddiv
 2584 0050 0246     		mov	r2, r0
 2585 0052 0B46     		mov	r3, r1
 2586 0054 1046     		mov	r0, r2
 2587 0056 1946     		mov	r1, r3
 2588 0058 4FF00002 		mov	r2, #0
 2589 005c 404B     		ldr	r3, .L40+16
 2590 005e FFF7FEFF 		bl	__aeabi_dadd
 2591 0062 0246     		mov	r2, r0
 2592 0064 0B46     		mov	r3, r1
 2593              		.loc 1 312 15
 2594 0066 1046     		mov	r0, r2
 2595 0068 1946     		mov	r1, r3
 2596 006a FFF7FEFF 		bl	__aeabi_d2uiz
 2597 006e 0346     		mov	r3, r0
 2598 0070 DAB2     		uxtb	r2, r3
 2599 0072 019B     		ldr	r3, [sp, #4]
 2600 0074 1A73     		strb	r2, [r3, #12]
 2601              	.L37:
 2602              		.loc 1 315 20
 2603 0076 019B     		ldr	r3, [sp, #4]
 2604 0078 1B7B     		ldrb	r3, [r3, #12]	@ zero_extendqisi2
 2605 007a 5A1E     		subs	r2, r3, #1
 2606 007c 1346     		mov	r3, r2
 2607 007e 5B00     		lsls	r3, r3, #1
 2608 0080 1344     		add	r3, r3, r2
 2609 0082 5B00     		lsls	r3, r3, #1
 2610 0084 B13B     		subs	r3, r3, #177
 2611 0086 1846     		mov	r0, r3
 2612 0088 FFF7FEFF 		bl	__aeabi_i2d
 2613 008c 30A3     		adr	r3, .L40
 2614 008e D3E90023 		ldrd	r2, [r3]
 2615 0092 FFF7FEFF 		bl	__aeabi_dmul
 2616 0096 0246     		mov	r2, r0
 2617 0098 0B46     		mov	r3, r1
 2618              		.loc 1 315 9
 2619 009a 1046     		mov	r0, r2
 2620 009c 1946     		mov	r1, r3
 2621 009e FFF7FEFF 		bl	__aeabi_d2f
 2622 00a2 0346     		mov	r3, r0	@ float
ARM GAS  /tmp/cceRHmPh.s 			page 47


 2623 00a4 1293     		str	r3, [sp, #72]	@ float
 2624              		.loc 1 316 14
 2625 00a6 009B     		ldr	r3, [sp]
 2626 00a8 D3ED007A 		vldr.32	s15, [r3]
 2627 00ac DFED2D0A 		vldr.32	s1, .L40+20
 2628 00b0 B0EE670A 		vmov.f32	s0, s15
 2629 00b4 FFF7FEFF 		bl	isometric_latitude_f
 2630 00b8 8DED110A 		vstr.32	s0, [sp, #68]
 2631              		.loc 1 317 17
 2632 00bc 009B     		ldr	r3, [sp]
 2633 00be 93ED017A 		vldr.32	s14, [r3, #4]
 2634              		.loc 1 317 9
 2635 00c2 DDED127A 		vldr.32	s15, [sp, #72]
 2636 00c6 77EE677A 		vsub.f32	s15, s14, s15
 2637 00ca CDED107A 		vstr.32	s15, [sp, #64]
 2638              		.loc 1 318 22
 2639 00ce 1098     		ldr	r0, [sp, #64]	@ float
 2640 00d0 FFF7FEFF 		bl	sinf
 2641 00d4 08EE100A 		vmov	s16, r0
 2642              		.loc 1 318 33
 2643 00d8 1198     		ldr	r0, [sp, #68]	@ float
 2644 00da FFF7FEFF 		bl	coshf
 2645 00de 07EE100A 		vmov	s14, r0
 2646              		.loc 1 318 16
 2647 00e2 C8EE077A 		vdiv.f32	s15, s16, s14
 2648 00e6 17EE900A 		vmov	r0, s15
 2649 00ea FFF7FEFF 		bl	asinf
 2650 00ee 0F90     		str	r0, [sp, #60]	@ float
 2651              		.loc 1 319 15
 2652 00f0 9DED0F0A 		vldr.32	s0, [sp, #60]
 2653 00f4 FFF7FEFF 		bl	isometric_latitude_fast_f
 2654 00f8 8DED0E0A 		vstr.32	s0, [sp, #56]
 2655              		.loc 1 320 25
 2656 00fc 1198     		ldr	r0, [sp, #68]	@ float
 2657 00fe FFF7FEFF 		bl	sinhf
 2658 0102 08EE100A 		vmov	s16, r0
 2659              		.loc 1 320 37
 2660 0106 1098     		ldr	r0, [sp, #64]	@ float
 2661 0108 FFF7FEFF 		bl	cosf
 2662 010c 07EE100A 		vmov	s14, r0
 2663              		.loc 1 320 19
 2664 0110 C8EE077A 		vdiv.f32	s15, s16, s14
 2665 0114 17EE900A 		vmov	r0, s15
 2666 0118 FFF7FEFF 		bl	atanf
 2667 011c 0D90     		str	r0, [sp, #52]	@ float
 2668              		.loc 1 321 18
 2669 011e 0D9B     		ldr	r3, [sp, #52]	@ float
 2670 0120 0693     		str	r3, [sp, #24]	@ float
 2671 0122 0E9B     		ldr	r3, [sp, #56]	@ float
 2672 0124 0793     		str	r3, [sp, #28]	@ float
 2673              		.loc 1 322 3
 2674 0126 DDED067A 		vldr.32	s15, [sp, #24]
 2675 012a 9FED0F7A 		vldr.32	s14, .L40+24
 2676 012e 67EE877A 		vmul.f32	s15, s15, s14
 2677 0132 CDED067A 		vstr.32	s15, [sp, #24]
 2678 0136 DDED077A 		vldr.32	s15, [sp, #28]
 2679 013a 9FED0B7A 		vldr.32	s14, .L40+24
ARM GAS  /tmp/cceRHmPh.s 			page 48


 2680 013e 67EE877A 		vmul.f32	s15, s15, s14
 2681 0142 CDED077A 		vstr.32	s15, [sp, #28]
 2682              		.loc 1 324 10
 2683 0146 0123     		movs	r3, #1
 2684 0148 8DF84F30 		strb	r3, [sp, #79]
 2685              		.loc 1 324 3
 2686 014c FFE0     		b	.L38
 2687              	.L41:
 2688 014e 00BF     		.align	3
 2689              	.L40:
 2690 0150 399D52A2 		.word	-1571644103
 2691 0154 46DF913F 		.word	1066524486
 2692 0158 00806640 		.word	1080459264
 2693 015c 00001840 		.word	1075314688
 2694 0160 0000F03F 		.word	1072693248
 2695 0164 D290A73D 		.word	1034391762
 2696 0168 2E927F3F 		.word	1065325102
 2697 016c F8C1631A 		.word	442745336
 2698 0170 DCA54C40 		.word	1078765020
 2699              	.L39:
 2700              	.LBB3:
 2701              		.loc 1 325 20 discriminator 3
 2702 0174 0D9B     		ldr	r3, [sp, #52]	@ float
 2703 0176 0493     		str	r3, [sp, #16]	@ float
 2704 0178 0E9B     		ldr	r3, [sp, #56]	@ float
 2705 017a 0593     		str	r3, [sp, #20]	@ float
 2706              		.loc 1 326 5 discriminator 3
 2707 017c 049B     		ldr	r3, [sp, #16]	@ float
 2708 017e 1846     		mov	r0, r3	@ float
 2709 0180 FFF7FEFF 		bl	__aeabi_f2d
 2710 0184 0446     		mov	r4, r0
 2711 0186 0D46     		mov	r5, r1
 2712 0188 9DF94F30 		ldrsb	r3, [sp, #79]
 2713 018c 1846     		mov	r0, r3
 2714 018e FFF7FEFF 		bl	__aeabi_i2d
 2715 0192 0246     		mov	r2, r0
 2716 0194 0B46     		mov	r3, r1
 2717 0196 FFF7FEFF 		bl	__aeabi_dadd
 2718 019a 0246     		mov	r2, r0
 2719 019c 0B46     		mov	r3, r1
 2720 019e 2046     		mov	r0, r4
 2721 01a0 2946     		mov	r1, r5
 2722 01a2 FFF7FEFF 		bl	__aeabi_dmul
 2723 01a6 0246     		mov	r2, r0
 2724 01a8 0B46     		mov	r3, r1
 2725 01aa 1046     		mov	r0, r2
 2726 01ac 1946     		mov	r1, r3
 2727 01ae FFF7FEFF 		bl	__aeabi_d2f
 2728 01b2 0346     		mov	r3, r0	@ float
 2729 01b4 0493     		str	r3, [sp, #16]	@ float
 2730 01b6 059B     		ldr	r3, [sp, #20]	@ float
 2731 01b8 1846     		mov	r0, r3	@ float
 2732 01ba FFF7FEFF 		bl	__aeabi_f2d
 2733 01be 0446     		mov	r4, r0
 2734 01c0 0D46     		mov	r5, r1
 2735 01c2 9DF94F30 		ldrsb	r3, [sp, #79]
 2736 01c6 1846     		mov	r0, r3
ARM GAS  /tmp/cceRHmPh.s 			page 49


 2737 01c8 FFF7FEFF 		bl	__aeabi_i2d
 2738 01cc 0246     		mov	r2, r0
 2739 01ce 0B46     		mov	r3, r1
 2740 01d0 FFF7FEFF 		bl	__aeabi_dadd
 2741 01d4 0246     		mov	r2, r0
 2742 01d6 0B46     		mov	r3, r1
 2743 01d8 2046     		mov	r0, r4
 2744 01da 2946     		mov	r1, r5
 2745 01dc FFF7FEFF 		bl	__aeabi_dmul
 2746 01e0 0246     		mov	r2, r0
 2747 01e2 0B46     		mov	r3, r1
 2748 01e4 1046     		mov	r0, r2
 2749 01e6 1946     		mov	r1, r3
 2750 01e8 FFF7FEFF 		bl	__aeabi_d2f
 2751 01ec 0346     		mov	r3, r0	@ float
 2752 01ee 0593     		str	r3, [sp, #20]	@ float
 2753              	.LBB4:
 2754              	.LBB5:
 2755              		.loc 1 327 5 discriminator 3
 2756 01f0 049B     		ldr	r3, [sp, #16]	@ float
 2757 01f2 0C93     		str	r3, [sp, #48]	@ float
 2758 01f4 DDED057A 		vldr.32	s15, [sp, #20]
 2759 01f8 F1EE677A 		vneg.f32	s15, s15
 2760 01fc CDED047A 		vstr.32	s15, [sp, #16]
 2761 0200 0C9B     		ldr	r3, [sp, #48]	@ float
 2762 0202 0593     		str	r3, [sp, #20]	@ float
 2763              	.LBE5:
 2764 0204 DDED047A 		vldr.32	s15, [sp, #16]
 2765 0208 F1EE677A 		vneg.f32	s15, s15
 2766 020c CDED027A 		vstr.32	s15, [sp, #8]
 2767 0210 DDED057A 		vldr.32	s15, [sp, #20]
 2768 0214 F1EE677A 		vneg.f32	s15, s15
 2769 0218 CDED037A 		vstr.32	s15, [sp, #12]
 2770 021c 049B     		ldr	r3, [sp, #16]	@ float
 2771 021e 1846     		mov	r0, r3	@ float
 2772 0220 FFF7FEFF 		bl	__aeabi_f2d
 2773 0224 0246     		mov	r2, r0
 2774 0226 0B46     		mov	r3, r1
 2775 0228 1046     		mov	r0, r2
 2776 022a 1946     		mov	r1, r3
 2777 022c FFF7FEFF 		bl	exp
 2778 0230 0246     		mov	r2, r0
 2779 0232 0B46     		mov	r3, r1
 2780 0234 1046     		mov	r0, r2
 2781 0236 1946     		mov	r1, r3
 2782 0238 FFF7FEFF 		bl	__aeabi_d2f
 2783 023c 0346     		mov	r3, r0	@ float
 2784 023e 0B93     		str	r3, [sp, #44]	@ float
 2785 0240 059B     		ldr	r3, [sp, #20]	@ float
 2786 0242 1846     		mov	r0, r3	@ float
 2787 0244 FFF7FEFF 		bl	cosf
 2788 0248 0A90     		str	r0, [sp, #40]	@ float
 2789 024a 9DED0B7A 		vldr.32	s14, [sp, #44]
 2790 024e DDED0A7A 		vldr.32	s15, [sp, #40]
 2791 0252 67EE277A 		vmul.f32	s15, s14, s15
 2792 0256 CDED047A 		vstr.32	s15, [sp, #16]
 2793 025a 059B     		ldr	r3, [sp, #20]	@ float
ARM GAS  /tmp/cceRHmPh.s 			page 50


 2794 025c 1846     		mov	r0, r3	@ float
 2795 025e FFF7FEFF 		bl	sinf
 2796 0262 0990     		str	r0, [sp, #36]	@ float
 2797 0264 9DED0B7A 		vldr.32	s14, [sp, #44]
 2798 0268 DDED097A 		vldr.32	s15, [sp, #36]
 2799 026c 67EE277A 		vmul.f32	s15, s14, s15
 2800 0270 CDED057A 		vstr.32	s15, [sp, #20]
 2801 0274 DDED0A6A 		vldr.32	s13, [sp, #40]
 2802 0278 9DED0B7A 		vldr.32	s14, [sp, #44]
 2803 027c C6EE877A 		vdiv.f32	s15, s13, s14
 2804 0280 CDED027A 		vstr.32	s15, [sp, #8]
 2805 0284 DDED097A 		vldr.32	s15, [sp, #36]
 2806 0288 F1EE676A 		vneg.f32	s13, s15
 2807 028c 9DED0B7A 		vldr.32	s14, [sp, #44]
 2808 0290 C6EE877A 		vdiv.f32	s15, s13, s14
 2809 0294 CDED037A 		vstr.32	s15, [sp, #12]
 2810 0298 9DED047A 		vldr.32	s14, [sp, #16]
 2811 029c DDED027A 		vldr.32	s15, [sp, #8]
 2812 02a0 77EE677A 		vsub.f32	s15, s14, s15
 2813 02a4 CDED047A 		vstr.32	s15, [sp, #16]
 2814 02a8 9DED057A 		vldr.32	s14, [sp, #20]
 2815 02ac DDED037A 		vldr.32	s15, [sp, #12]
 2816 02b0 77EE677A 		vsub.f32	s15, s14, s15
 2817 02b4 CDED057A 		vstr.32	s15, [sp, #20]
 2818 02b8 DDED047A 		vldr.32	s15, [sp, #16]
 2819 02bc BEEE007A 		vmov.f32	s14, #-5.0e-1
 2820 02c0 67EE877A 		vmul.f32	s15, s15, s14
 2821 02c4 CDED047A 		vstr.32	s15, [sp, #16]
 2822 02c8 DDED057A 		vldr.32	s15, [sp, #20]
 2823 02cc BEEE007A 		vmov.f32	s14, #-5.0e-1
 2824 02d0 67EE877A 		vmul.f32	s15, s15, s14
 2825 02d4 CDED057A 		vstr.32	s15, [sp, #20]
 2826              	.LBB6:
 2827 02d8 049B     		ldr	r3, [sp, #16]	@ float
 2828 02da 0893     		str	r3, [sp, #32]	@ float
 2829 02dc DDED057A 		vldr.32	s15, [sp, #20]
 2830 02e0 F1EE677A 		vneg.f32	s15, s15
 2831 02e4 CDED047A 		vstr.32	s15, [sp, #16]
 2832 02e8 089B     		ldr	r3, [sp, #32]	@ float
 2833 02ea 0593     		str	r3, [sp, #20]	@ float
 2834              	.LBE6:
 2835              	.LBE4:
 2836              		.loc 1 328 5 discriminator 3
 2837 02ec 9DED047A 		vldr.32	s14, [sp, #16]
 2838 02f0 9DF94F30 		ldrsb	r3, [sp, #79]
 2839 02f4 3A4A     		ldr	r2, .L42+8
 2840 02f6 9B00     		lsls	r3, r3, #2
 2841 02f8 1344     		add	r3, r3, r2
 2842 02fa D3ED007A 		vldr.32	s15, [r3]
 2843 02fe 67EE277A 		vmul.f32	s15, s14, s15
 2844 0302 CDED047A 		vstr.32	s15, [sp, #16]
 2845 0306 9DED057A 		vldr.32	s14, [sp, #20]
 2846 030a 9DF94F30 		ldrsb	r3, [sp, #79]
 2847 030e 344A     		ldr	r2, .L42+8
 2848 0310 9B00     		lsls	r3, r3, #2
 2849 0312 1344     		add	r3, r3, r2
 2850 0314 D3ED007A 		vldr.32	s15, [r3]
ARM GAS  /tmp/cceRHmPh.s 			page 51


 2851 0318 67EE277A 		vmul.f32	s15, s14, s15
 2852 031c CDED057A 		vstr.32	s15, [sp, #20]
 2853              		.loc 1 329 5 discriminator 3
 2854 0320 9DED067A 		vldr.32	s14, [sp, #24]
 2855 0324 DDED047A 		vldr.32	s15, [sp, #16]
 2856 0328 77EE277A 		vadd.f32	s15, s14, s15
 2857 032c CDED067A 		vstr.32	s15, [sp, #24]
 2858 0330 9DED077A 		vldr.32	s14, [sp, #28]
 2859 0334 DDED057A 		vldr.32	s15, [sp, #20]
 2860 0338 77EE277A 		vadd.f32	s15, s14, s15
 2861 033c CDED077A 		vstr.32	s15, [sp, #28]
 2862              	.LBE3:
 2863              		.loc 1 324 23 discriminator 3
 2864 0340 9DF94F30 		ldrsb	r3, [sp, #79]
 2865 0344 DBB2     		uxtb	r3, r3
 2866 0346 0133     		adds	r3, r3, #1
 2867 0348 DBB2     		uxtb	r3, r3
 2868 034a 8DF84F30 		strb	r3, [sp, #79]
 2869              	.L38:
 2870              		.loc 1 324 3 discriminator 1
 2871 034e 9DF94F30 		ldrsb	r3, [sp, #79]
 2872 0352 022B     		cmp	r3, #2
 2873 0354 7FF70EAF 		ble	.L39
 2874              		.loc 1 331 3
 2875 0358 069B     		ldr	r3, [sp, #24]	@ float
 2876 035a 1846     		mov	r0, r3	@ float
 2877 035c FFF7FEFF 		bl	__aeabi_f2d
 2878 0360 1DA3     		adr	r3, .L42
 2879 0362 D3E90023 		ldrd	r2, [r3]
 2880 0366 FFF7FEFF 		bl	__aeabi_dmul
 2881 036a 0246     		mov	r2, r0
 2882 036c 0B46     		mov	r3, r1
 2883 036e 1046     		mov	r0, r2
 2884 0370 1946     		mov	r1, r3
 2885 0372 FFF7FEFF 		bl	__aeabi_d2f
 2886 0376 0346     		mov	r3, r0	@ float
 2887 0378 0693     		str	r3, [sp, #24]	@ float
 2888 037a 079B     		ldr	r3, [sp, #28]	@ float
 2889 037c 1846     		mov	r0, r3	@ float
 2890 037e FFF7FEFF 		bl	__aeabi_f2d
 2891 0382 15A3     		adr	r3, .L42
 2892 0384 D3E90023 		ldrd	r2, [r3]
 2893 0388 FFF7FEFF 		bl	__aeabi_dmul
 2894 038c 0246     		mov	r2, r0
 2895 038e 0B46     		mov	r3, r1
 2896 0390 1046     		mov	r0, r2
 2897 0392 1946     		mov	r1, r3
 2898 0394 FFF7FEFF 		bl	__aeabi_d2f
 2899 0398 0346     		mov	r3, r0	@ float
 2900 039a 0793     		str	r3, [sp, #28]	@ float
 2901              		.loc 1 332 30
 2902 039c DDED077A 		vldr.32	s15, [sp, #28]
 2903              		.loc 1 332 26
 2904 03a0 9FED107A 		vldr.32	s14, .L42+12
 2905 03a4 77EE877A 		vadd.f32	s15, s15, s14
 2906              		.loc 1 332 13
 2907 03a8 019B     		ldr	r3, [sp, #4]
ARM GAS  /tmp/cceRHmPh.s 			page 52


 2908 03aa C3ED017A 		vstr.32	s15, [r3, #4]
 2909              		.loc 1 333 32
 2910 03ae DDED067A 		vldr.32	s15, [sp, #24]
 2911              		.loc 1 333 28
 2912 03b2 9FED0D7A 		vldr.32	s14, .L42+16
 2913 03b6 77EE877A 		vadd.f32	s15, s15, s14
 2914              		.loc 1 333 14
 2915 03ba 019B     		ldr	r3, [sp, #4]
 2916 03bc C3ED007A 		vstr.32	s15, [r3]
 2917              		.loc 1 336 17
 2918 03c0 009B     		ldr	r3, [sp]
 2919 03c2 9A68     		ldr	r2, [r3, #8]	@ float
 2920              		.loc 1 336 12
 2921 03c4 019B     		ldr	r3, [sp, #4]
 2922 03c6 9A60     		str	r2, [r3, #8]	@ float
 2923              		.loc 1 337 1
 2924 03c8 00BF     		nop
 2925 03ca 15B0     		add	sp, sp, #84
 2926              		.cfi_def_cfa_offset 20
 2927              		@ sp needed
 2928 03cc BDEC028B 		vldm	sp!, {d8}
 2929              		.cfi_restore 80
 2930              		.cfi_restore 81
 2931              		.cfi_def_cfa_offset 12
 2932 03d0 30BD     		pop	{r4, r5, pc}
 2933              	.L43:
 2934 03d2 00BFAFF3 		.align	3
 2934      0080
 2935              	.L42:
 2936 03d8 585BB16F 		.word	1873894232
 2937 03dc 28525841 		.word	1096307240
 2938 03e0 00000000 		.word	serie_coeff_proj_mercator
 2939 03e4 0024F448 		.word	1223959552
 2940 03e8 00000000 		.word	0
 2941              		.cfi_endproc
 2942              	.LFE69:
 2943              		.size	utm_of_lla_f, .-utm_of_lla_f
 2944              		.section	.text.lla_of_utm_f,"ax",%progbits
 2945              		.align	1
 2946              		.p2align 4,,15
 2947              		.global	lla_of_utm_f
 2948              		.syntax unified
 2949              		.thumb
 2950              		.thumb_func
 2951              		.fpu fpv4-sp-d16
 2952              		.type	lla_of_utm_f, %function
 2953              	lla_of_utm_f:
 2954              	.LFB70:
 2955              		.loc 1 345 1
 2956              		.cfi_startproc
 2957              		@ args = 0, pretend = 0, frame = 80
 2958              		@ frame_needed = 0, uses_anonymous_args = 0
 2959 0000 30B5     		push	{r4, r5, lr}
 2960              		.cfi_def_cfa_offset 12
 2961              		.cfi_offset 4, -12
 2962              		.cfi_offset 5, -8
 2963              		.cfi_offset 14, -4
ARM GAS  /tmp/cceRHmPh.s 			page 53


 2964 0002 2DED028B 		vpush.64	{d8}
 2965              		.cfi_def_cfa_offset 20
 2966              		.cfi_offset 80, -20
 2967              		.cfi_offset 81, -16
 2968 0006 95B0     		sub	sp, sp, #84
 2969              		.cfi_def_cfa_offset 104
 2970 0008 0190     		str	r0, [sp, #4]
 2971 000a 0091     		str	r1, [sp]
 2972              		.loc 1 346 50
 2973 000c D24B     		ldr	r3, .L47+24
 2974 000e 1846     		mov	r0, r3	@ float
 2975 0010 FFF7FEFF 		bl	__aeabi_f2d
 2976 0014 0246     		mov	r2, r0
 2977 0016 0B46     		mov	r3, r1
 2978              		.loc 1 346 23
 2979 0018 C9A1     		adr	r1, .L47
 2980 001a D1E90001 		ldrd	r0, [r1]
 2981 001e FFF7FEFF 		bl	__aeabi_ddiv
 2982 0022 0246     		mov	r2, r0
 2983 0024 0B46     		mov	r3, r1
 2984              		.loc 1 346 9
 2985 0026 1046     		mov	r0, r2
 2986 0028 1946     		mov	r1, r3
 2987 002a FFF7FEFF 		bl	__aeabi_d2f
 2988 002e 0346     		mov	r3, r0	@ float
 2989 0030 1293     		str	r3, [sp, #72]	@ float
 2990              		.loc 1 347 20
 2991 0032 009B     		ldr	r3, [sp]
 2992 0034 D3ED007A 		vldr.32	s15, [r3]
 2993              		.loc 1 347 9
 2994 0038 9DED127A 		vldr.32	s14, [sp, #72]
 2995 003c 67EE277A 		vmul.f32	s15, s14, s15
 2996 0040 CDED117A 		vstr.32	s15, [sp, #68]
 2997              		.loc 1 348 19
 2998 0044 009B     		ldr	r3, [sp]
 2999 0046 5B68     		ldr	r3, [r3, #4]	@ float
 3000 0048 1846     		mov	r0, r3	@ float
 3001 004a FFF7FEFF 		bl	__aeabi_f2d
 3002              		.loc 1 348 26
 3003 004e BEA3     		adr	r3, .L47+8
 3004 0050 D3E90023 		ldrd	r2, [r3]
 3005 0054 FFF7FEFF 		bl	__aeabi_dsub
 3006 0058 0246     		mov	r2, r0
 3007 005a 0B46     		mov	r3, r1
 3008 005c 1446     		mov	r4, r2
 3009 005e 1D46     		mov	r5, r3
 3010              		.loc 1 348 40
 3011 0060 1298     		ldr	r0, [sp, #72]	@ float
 3012 0062 FFF7FEFF 		bl	__aeabi_f2d
 3013 0066 0246     		mov	r2, r0
 3014 0068 0B46     		mov	r3, r1
 3015 006a 2046     		mov	r0, r4
 3016 006c 2946     		mov	r1, r5
 3017 006e FFF7FEFF 		bl	__aeabi_dmul
 3018 0072 0246     		mov	r2, r0
 3019 0074 0B46     		mov	r3, r1
 3020              		.loc 1 348 9
ARM GAS  /tmp/cceRHmPh.s 			page 54


 3021 0076 1046     		mov	r0, r2
 3022 0078 1946     		mov	r1, r3
 3023 007a FFF7FEFF 		bl	__aeabi_d2f
 3024 007e 0346     		mov	r3, r0	@ float
 3025 0080 1093     		str	r3, [sp, #64]	@ float
 3026              		.loc 1 349 18
 3027 0082 119B     		ldr	r3, [sp, #68]	@ float
 3028 0084 0693     		str	r3, [sp, #24]	@ float
 3029 0086 109B     		ldr	r3, [sp, #64]	@ float
 3030 0088 0793     		str	r3, [sp, #28]	@ float
 3031              		.loc 1 352 10
 3032 008a 0123     		movs	r3, #1
 3033 008c 8DF84F30 		strb	r3, [sp, #79]
 3034              		.loc 1 352 3
 3035 0090 ECE0     		b	.L45
 3036              	.L46:
 3037              	.LBB7:
 3038              		.loc 1 353 20 discriminator 3
 3039 0092 119B     		ldr	r3, [sp, #68]	@ float
 3040 0094 0493     		str	r3, [sp, #16]	@ float
 3041 0096 109B     		ldr	r3, [sp, #64]	@ float
 3042 0098 0593     		str	r3, [sp, #20]	@ float
 3043              		.loc 1 354 5 discriminator 3
 3044 009a 049B     		ldr	r3, [sp, #16]	@ float
 3045 009c 1846     		mov	r0, r3	@ float
 3046 009e FFF7FEFF 		bl	__aeabi_f2d
 3047 00a2 0446     		mov	r4, r0
 3048 00a4 0D46     		mov	r5, r1
 3049 00a6 9DF94F30 		ldrsb	r3, [sp, #79]
 3050 00aa 1846     		mov	r0, r3
 3051 00ac FFF7FEFF 		bl	__aeabi_i2d
 3052 00b0 0246     		mov	r2, r0
 3053 00b2 0B46     		mov	r3, r1
 3054 00b4 FFF7FEFF 		bl	__aeabi_dadd
 3055 00b8 0246     		mov	r2, r0
 3056 00ba 0B46     		mov	r3, r1
 3057 00bc 2046     		mov	r0, r4
 3058 00be 2946     		mov	r1, r5
 3059 00c0 FFF7FEFF 		bl	__aeabi_dmul
 3060 00c4 0246     		mov	r2, r0
 3061 00c6 0B46     		mov	r3, r1
 3062 00c8 1046     		mov	r0, r2
 3063 00ca 1946     		mov	r1, r3
 3064 00cc FFF7FEFF 		bl	__aeabi_d2f
 3065 00d0 0346     		mov	r3, r0	@ float
 3066 00d2 0493     		str	r3, [sp, #16]	@ float
 3067 00d4 059B     		ldr	r3, [sp, #20]	@ float
 3068 00d6 1846     		mov	r0, r3	@ float
 3069 00d8 FFF7FEFF 		bl	__aeabi_f2d
 3070 00dc 0446     		mov	r4, r0
 3071 00de 0D46     		mov	r5, r1
 3072 00e0 9DF94F30 		ldrsb	r3, [sp, #79]
 3073 00e4 1846     		mov	r0, r3
 3074 00e6 FFF7FEFF 		bl	__aeabi_i2d
 3075 00ea 0246     		mov	r2, r0
 3076 00ec 0B46     		mov	r3, r1
 3077 00ee FFF7FEFF 		bl	__aeabi_dadd
ARM GAS  /tmp/cceRHmPh.s 			page 55


 3078 00f2 0246     		mov	r2, r0
 3079 00f4 0B46     		mov	r3, r1
 3080 00f6 2046     		mov	r0, r4
 3081 00f8 2946     		mov	r1, r5
 3082 00fa FFF7FEFF 		bl	__aeabi_dmul
 3083 00fe 0246     		mov	r2, r0
 3084 0100 0B46     		mov	r3, r1
 3085 0102 1046     		mov	r0, r2
 3086 0104 1946     		mov	r1, r3
 3087 0106 FFF7FEFF 		bl	__aeabi_d2f
 3088 010a 0346     		mov	r3, r0	@ float
 3089 010c 0593     		str	r3, [sp, #20]	@ float
 3090              	.LBB8:
 3091              	.LBB9:
 3092              		.loc 1 355 5 discriminator 3
 3093 010e 049B     		ldr	r3, [sp, #16]	@ float
 3094 0110 0C93     		str	r3, [sp, #48]	@ float
 3095 0112 DDED057A 		vldr.32	s15, [sp, #20]
 3096 0116 F1EE677A 		vneg.f32	s15, s15
 3097 011a CDED047A 		vstr.32	s15, [sp, #16]
 3098 011e 0C9B     		ldr	r3, [sp, #48]	@ float
 3099 0120 0593     		str	r3, [sp, #20]	@ float
 3100              	.LBE9:
 3101 0122 DDED047A 		vldr.32	s15, [sp, #16]
 3102 0126 F1EE677A 		vneg.f32	s15, s15
 3103 012a CDED027A 		vstr.32	s15, [sp, #8]
 3104 012e DDED057A 		vldr.32	s15, [sp, #20]
 3105 0132 F1EE677A 		vneg.f32	s15, s15
 3106 0136 CDED037A 		vstr.32	s15, [sp, #12]
 3107 013a 049B     		ldr	r3, [sp, #16]	@ float
 3108 013c 1846     		mov	r0, r3	@ float
 3109 013e FFF7FEFF 		bl	__aeabi_f2d
 3110 0142 0246     		mov	r2, r0
 3111 0144 0B46     		mov	r3, r1
 3112 0146 1046     		mov	r0, r2
 3113 0148 1946     		mov	r1, r3
 3114 014a FFF7FEFF 		bl	exp
 3115 014e 0246     		mov	r2, r0
 3116 0150 0B46     		mov	r3, r1
 3117 0152 1046     		mov	r0, r2
 3118 0154 1946     		mov	r1, r3
 3119 0156 FFF7FEFF 		bl	__aeabi_d2f
 3120 015a 0346     		mov	r3, r0	@ float
 3121 015c 0B93     		str	r3, [sp, #44]	@ float
 3122 015e 059B     		ldr	r3, [sp, #20]	@ float
 3123 0160 1846     		mov	r0, r3	@ float
 3124 0162 FFF7FEFF 		bl	cosf
 3125 0166 0A90     		str	r0, [sp, #40]	@ float
 3126 0168 9DED0B7A 		vldr.32	s14, [sp, #44]
 3127 016c DDED0A7A 		vldr.32	s15, [sp, #40]
 3128 0170 67EE277A 		vmul.f32	s15, s14, s15
 3129 0174 CDED047A 		vstr.32	s15, [sp, #16]
 3130 0178 059B     		ldr	r3, [sp, #20]	@ float
 3131 017a 1846     		mov	r0, r3	@ float
 3132 017c FFF7FEFF 		bl	sinf
 3133 0180 0990     		str	r0, [sp, #36]	@ float
 3134 0182 9DED0B7A 		vldr.32	s14, [sp, #44]
ARM GAS  /tmp/cceRHmPh.s 			page 56


 3135 0186 DDED097A 		vldr.32	s15, [sp, #36]
 3136 018a 67EE277A 		vmul.f32	s15, s14, s15
 3137 018e CDED057A 		vstr.32	s15, [sp, #20]
 3138 0192 DDED0A6A 		vldr.32	s13, [sp, #40]
 3139 0196 9DED0B7A 		vldr.32	s14, [sp, #44]
 3140 019a C6EE877A 		vdiv.f32	s15, s13, s14
 3141 019e CDED027A 		vstr.32	s15, [sp, #8]
 3142 01a2 DDED097A 		vldr.32	s15, [sp, #36]
 3143 01a6 F1EE676A 		vneg.f32	s13, s15
 3144 01aa 9DED0B7A 		vldr.32	s14, [sp, #44]
 3145 01ae C6EE877A 		vdiv.f32	s15, s13, s14
 3146 01b2 CDED037A 		vstr.32	s15, [sp, #12]
 3147 01b6 9DED047A 		vldr.32	s14, [sp, #16]
 3148 01ba DDED027A 		vldr.32	s15, [sp, #8]
 3149 01be 77EE677A 		vsub.f32	s15, s14, s15
 3150 01c2 CDED047A 		vstr.32	s15, [sp, #16]
 3151 01c6 9DED057A 		vldr.32	s14, [sp, #20]
 3152 01ca DDED037A 		vldr.32	s15, [sp, #12]
 3153 01ce 77EE677A 		vsub.f32	s15, s14, s15
 3154 01d2 CDED057A 		vstr.32	s15, [sp, #20]
 3155 01d6 DDED047A 		vldr.32	s15, [sp, #16]
 3156 01da BEEE007A 		vmov.f32	s14, #-5.0e-1
 3157 01de 67EE877A 		vmul.f32	s15, s15, s14
 3158 01e2 CDED047A 		vstr.32	s15, [sp, #16]
 3159 01e6 DDED057A 		vldr.32	s15, [sp, #20]
 3160 01ea BEEE007A 		vmov.f32	s14, #-5.0e-1
 3161 01ee 67EE877A 		vmul.f32	s15, s15, s14
 3162 01f2 CDED057A 		vstr.32	s15, [sp, #20]
 3163              	.LBB10:
 3164 01f6 049B     		ldr	r3, [sp, #16]	@ float
 3165 01f8 0893     		str	r3, [sp, #32]	@ float
 3166 01fa DDED057A 		vldr.32	s15, [sp, #20]
 3167 01fe F1EE677A 		vneg.f32	s15, s15
 3168 0202 CDED047A 		vstr.32	s15, [sp, #16]
 3169 0206 089B     		ldr	r3, [sp, #32]	@ float
 3170 0208 0593     		str	r3, [sp, #20]	@ float
 3171              	.LBE10:
 3172              	.LBE8:
 3173              		.loc 1 356 5 discriminator 3
 3174 020a 9DED047A 		vldr.32	s14, [sp, #16]
 3175 020e 9DF94F30 		ldrsb	r3, [sp, #79]
 3176 0212 524A     		ldr	r2, .L47+28
 3177 0214 9B00     		lsls	r3, r3, #2
 3178 0216 1344     		add	r3, r3, r2
 3179 0218 D3ED007A 		vldr.32	s15, [r3]
 3180 021c 67EE277A 		vmul.f32	s15, s14, s15
 3181 0220 CDED047A 		vstr.32	s15, [sp, #16]
 3182 0224 9DED057A 		vldr.32	s14, [sp, #20]
 3183 0228 9DF94F30 		ldrsb	r3, [sp, #79]
 3184 022c 4B4A     		ldr	r2, .L47+28
 3185 022e 9B00     		lsls	r3, r3, #2
 3186 0230 1344     		add	r3, r3, r2
 3187 0232 D3ED007A 		vldr.32	s15, [r3]
 3188 0236 67EE277A 		vmul.f32	s15, s14, s15
 3189 023a CDED057A 		vstr.32	s15, [sp, #20]
 3190              		.loc 1 357 5 discriminator 3
 3191 023e 9DED067A 		vldr.32	s14, [sp, #24]
ARM GAS  /tmp/cceRHmPh.s 			page 57


 3192 0242 DDED047A 		vldr.32	s15, [sp, #16]
 3193 0246 77EE677A 		vsub.f32	s15, s14, s15
 3194 024a CDED067A 		vstr.32	s15, [sp, #24]
 3195 024e 9DED077A 		vldr.32	s14, [sp, #28]
 3196 0252 DDED057A 		vldr.32	s15, [sp, #20]
 3197 0256 77EE677A 		vsub.f32	s15, s14, s15
 3198 025a CDED077A 		vstr.32	s15, [sp, #28]
 3199              	.LBE7:
 3200              		.loc 1 352 23 discriminator 3
 3201 025e 9DF94F30 		ldrsb	r3, [sp, #79]
 3202 0262 DBB2     		uxtb	r3, r3
 3203 0264 0133     		adds	r3, r3, #1
 3204 0266 DBB2     		uxtb	r3, r3
 3205 0268 8DF84F30 		strb	r3, [sp, #79]
 3206              	.L45:
 3207              		.loc 1 352 3 discriminator 1
 3208 026c 9DF94F30 		ldrsb	r3, [sp, #79]
 3209 0270 012B     		cmp	r3, #1
 3210 0272 7FF70EAF 		ble	.L46
 3211              		.loc 1 360 20
 3212 0276 009B     		ldr	r3, [sp]
 3213 0278 1B7B     		ldrb	r3, [r3, #12]	@ zero_extendqisi2
 3214 027a 5A1E     		subs	r2, r3, #1
 3215 027c 1346     		mov	r3, r2
 3216 027e 5B00     		lsls	r3, r3, #1
 3217 0280 1344     		add	r3, r3, r2
 3218 0282 5B00     		lsls	r3, r3, #1
 3219 0284 B13B     		subs	r3, r3, #177
 3220 0286 1846     		mov	r0, r3
 3221 0288 FFF7FEFF 		bl	__aeabi_i2d
 3222 028c 30A3     		adr	r3, .L47+16
 3223 028e D3E90023 		ldrd	r2, [r3]
 3224 0292 FFF7FEFF 		bl	__aeabi_dmul
 3225 0296 0246     		mov	r2, r0
 3226 0298 0B46     		mov	r3, r1
 3227              		.loc 1 360 9
 3228 029a 1046     		mov	r0, r2
 3229 029c 1946     		mov	r1, r3
 3230 029e FFF7FEFF 		bl	__aeabi_d2f
 3231 02a2 0346     		mov	r3, r0	@ float
 3232 02a4 0F93     		str	r3, [sp, #60]	@ float
 3233              		.loc 1 361 31
 3234 02a6 079B     		ldr	r3, [sp, #28]	@ float
 3235 02a8 1846     		mov	r0, r3	@ float
 3236 02aa FFF7FEFF 		bl	sinhf
 3237 02ae 08EE100A 		vmov	s16, r0
 3238              		.loc 1 361 45
 3239 02b2 069B     		ldr	r3, [sp, #24]	@ float
 3240 02b4 1846     		mov	r0, r3	@ float
 3241 02b6 FFF7FEFF 		bl	cosf
 3242 02ba 07EE100A 		vmov	s14, r0
 3243              		.loc 1 361 25
 3244 02be C8EE077A 		vdiv.f32	s15, s16, s14
 3245 02c2 17EE900A 		vmov	r0, s15
 3246 02c6 FFF7FEFF 		bl	atanf
 3247 02ca 07EE100A 		vmov	s14, r0
 3248              		.loc 1 361 23
ARM GAS  /tmp/cceRHmPh.s 			page 58


 3249 02ce DDED0F7A 		vldr.32	s15, [sp, #60]
 3250 02d2 77EE277A 		vadd.f32	s15, s14, s15
 3251              		.loc 1 361 12
 3252 02d6 019B     		ldr	r3, [sp, #4]
 3253 02d8 C3ED017A 		vstr.32	s15, [r3, #4]
 3254              		.loc 1 362 22
 3255 02dc 069B     		ldr	r3, [sp, #24]	@ float
 3256 02de 1846     		mov	r0, r3	@ float
 3257 02e0 FFF7FEFF 		bl	sinf
 3258 02e4 08EE100A 		vmov	s16, r0
 3259              		.loc 1 362 35
 3260 02e8 079B     		ldr	r3, [sp, #28]	@ float
 3261 02ea 1846     		mov	r0, r3	@ float
 3262 02ec FFF7FEFF 		bl	coshf
 3263 02f0 07EE100A 		vmov	s14, r0
 3264              		.loc 1 362 16
 3265 02f4 C8EE077A 		vdiv.f32	s15, s16, s14
 3266 02f8 17EE900A 		vmov	r0, s15
 3267 02fc FFF7FEFF 		bl	asinf
 3268 0300 0E90     		str	r0, [sp, #56]	@ float
 3269              		.loc 1 363 14
 3270 0302 9DED0E0A 		vldr.32	s0, [sp, #56]
 3271 0306 FFF7FEFF 		bl	isometric_latitude_fast_f
 3272 030a 8DED0D0A 		vstr.32	s0, [sp, #52]
 3273              		.loc 1 364 14
 3274 030e 9FED141A 		vldr.32	s2, .L47+32
 3275 0312 DFED140A 		vldr.32	s1, .L47+36
 3276 0316 9DED0D0A 		vldr.32	s0, [sp, #52]
 3277 031a FFF7FEFF 		bl	inverse_isometric_latitude_f
 3278 031e F0EE407A 		vmov.f32	s15, s0
 3279              		.loc 1 364 12
 3280 0322 019B     		ldr	r3, [sp, #4]
 3281 0324 C3ED007A 		vstr.32	s15, [r3]
 3282              		.loc 1 367 17
 3283 0328 009B     		ldr	r3, [sp]
 3284 032a 9A68     		ldr	r2, [r3, #8]	@ float
 3285              		.loc 1 367 12
 3286 032c 019B     		ldr	r3, [sp, #4]
 3287 032e 9A60     		str	r2, [r3, #8]	@ float
 3288              		.loc 1 368 1
 3289 0330 00BF     		nop
 3290 0332 15B0     		add	sp, sp, #84
 3291              		.cfi_def_cfa_offset 20
 3292              		@ sp needed
 3293 0334 BDEC028B 		vldm	sp!, {d8}
 3294              		.cfi_restore 80
 3295              		.cfi_restore 81
 3296              		.cfi_def_cfa_offset 12
 3297 0338 30BD     		pop	{r4, r5, pc}
 3298              	.L48:
 3299 033a 00BFAFF3 		.align	3
 3299      0080
 3300              	.L47:
 3301 0340 9E626D88 		.word	-2006097250
 3302 0344 440D853E 		.word	1048907076
 3303 0348 00000000 		.word	0
 3304 034c 80841E41 		.word	1092519040
ARM GAS  /tmp/cceRHmPh.s 			page 59


 3305 0350 399D52A2 		.word	-1571644103
 3306 0354 46DF913F 		.word	1066524486
 3307 0358 2E927F3F 		.word	1065325102
 3308 035c 00000000 		.word	serie_coeff_proj_mercator_inverse
 3309 0360 77CC2B32 		.word	841731191
 3310 0364 D290A73D 		.word	1034391762
 3311              		.cfi_endproc
 3312              	.LFE70:
 3313              		.size	lla_of_utm_f, .-lla_of_utm_f
 3314              		.section	.rodata.a.3,"a"
 3315              		.align	2
 3316              		.type	a.3, %object
 3317              		.size	a.3, 4
 3318              	a.3:
 3319 0000 32A5C24A 		.word	1254270258
 3320              		.section	.rodata.f.2,"a"
 3321              		.align	2
 3322              		.type	f.2, %object
 3323              		.size	f.2, 4
 3324              	f.2:
 3325 0000 D4BA5B3B 		.word	995867348
 3326              		.section	.rodata.f.1,"a"
 3327              		.align	2
 3328              		.type	f.1, %object
 3329              		.size	f.1, 4
 3330              	f.1:
 3331 0000 D4BA5B3B 		.word	995867348
 3332              		.section	.rodata.a.0,"a"
 3333              		.align	2
 3334              		.type	a.0, %object
 3335              		.size	a.0, 4
 3336              	a.0:
 3337 0000 32A5C24A 		.word	1254270258
 3338              		.text
 3339              	.Letext0:
 3340              		.file 2 "/usr/lib/gcc/arm-none-eabi/10.3.1/include/stdint.h"
 3341              		.file 3 "math/pprz_algebra_float.h"
 3342              		.file 4 "math/pprz_geodetic_float.h"
 3343              		.file 5 "math/pprz_algebra_double.h"
 3344              		.file 6 "math/pprz_geodetic_double.h"
 3345              		.file 7 "./math/pprz_geodetic_utm.h"
 3346              		.section	.debug_info,"",%progbits
 3347              	.Ldebug_info0:
 3348 0000 1B0D0000 		.4byte	0xd1b
 3349 0004 0400     		.2byte	0x4
 3350 0006 00000000 		.4byte	.Ldebug_abbrev0
 3351 000a 04       		.byte	0x4
 3352 000b 01       		.uleb128 0x1
 3353 000c 99BA0000 		.4byte	.LASF1594
 3354 0010 0C       		.byte	0xc
 3355 0011 1CB00000 		.4byte	.LASF1595
 3356 0015 D1740000 		.4byte	.LASF1596
 3357 0019 00000000 		.4byte	.Ldebug_ranges0+0
 3358 001d 00000000 		.4byte	0
 3359 0021 00000000 		.4byte	.Ldebug_line0
 3360 0025 00000000 		.4byte	.Ldebug_macro0
 3361 0029 02       		.uleb128 0x2
ARM GAS  /tmp/cceRHmPh.s 			page 60


 3362 002a 04       		.byte	0x4
 3363 002b 05       		.byte	0x5
 3364 002c 696E7400 		.ascii	"int\000"
 3365 0030 03       		.uleb128 0x3
 3366 0031 04       		.byte	0x4
 3367 0032 07       		.byte	0x7
 3368 0033 8AFE0000 		.4byte	.LASF1524
 3369 0037 03       		.uleb128 0x3
 3370 0038 01       		.byte	0x1
 3371 0039 06       		.byte	0x6
 3372 003a 1C8B0000 		.4byte	.LASF1525
 3373 003e 03       		.uleb128 0x3
 3374 003f 01       		.byte	0x1
 3375 0040 08       		.byte	0x8
 3376 0041 571F0000 		.4byte	.LASF1526
 3377 0045 03       		.uleb128 0x3
 3378 0046 02       		.byte	0x2
 3379 0047 05       		.byte	0x5
 3380 0048 3A020100 		.4byte	.LASF1527
 3381 004c 03       		.uleb128 0x3
 3382 004d 02       		.byte	0x2
 3383 004e 07       		.byte	0x7
 3384 004f E5890000 		.4byte	.LASF1528
 3385 0053 03       		.uleb128 0x3
 3386 0054 04       		.byte	0x4
 3387 0055 05       		.byte	0x5
 3388 0056 96A40000 		.4byte	.LASF1529
 3389 005a 03       		.uleb128 0x3
 3390 005b 04       		.byte	0x4
 3391 005c 07       		.byte	0x7
 3392 005d A5F70000 		.4byte	.LASF1530
 3393 0061 03       		.uleb128 0x3
 3394 0062 08       		.byte	0x8
 3395 0063 05       		.byte	0x5
 3396 0064 8BF00000 		.4byte	.LASF1531
 3397 0068 03       		.uleb128 0x3
 3398 0069 08       		.byte	0x8
 3399 006a 07       		.byte	0x7
 3400 006b 62E20000 		.4byte	.LASF1532
 3401 006f 03       		.uleb128 0x3
 3402 0070 01       		.byte	0x1
 3403 0071 08       		.byte	0x8
 3404 0072 D2BC0000 		.4byte	.LASF939
 3405 0076 04       		.uleb128 0x4
 3406 0077 F0810000 		.4byte	.LASF1533
 3407 007b 02       		.byte	0x2
 3408 007c 22       		.byte	0x22
 3409 007d 17       		.byte	0x17
 3410 007e 37000000 		.4byte	0x37
 3411 0082 04       		.uleb128 0x4
 3412 0083 95590000 		.4byte	.LASF1534
 3413 0087 02       		.byte	0x2
 3414 0088 2E       		.byte	0x2e
 3415 0089 18       		.byte	0x18
 3416 008a 3E000000 		.4byte	0x3e
 3417 008e 03       		.uleb128 0x3
 3418 008f 04       		.byte	0x4
ARM GAS  /tmp/cceRHmPh.s 			page 61


 3419 0090 04       		.byte	0x4
 3420 0091 D73F0000 		.4byte	.LASF1535
 3421 0095 05       		.uleb128 0x5
 3422 0096 8E000000 		.4byte	0x8e
 3423 009a 03       		.uleb128 0x3
 3424 009b 08       		.byte	0x8
 3425 009c 04       		.byte	0x4
 3426 009d 86CE0000 		.4byte	.LASF1536
 3427 00a1 06       		.uleb128 0x6
 3428 00a2 8E000000 		.4byte	0x8e
 3429 00a6 B1000000 		.4byte	0xb1
 3430 00aa 07       		.uleb128 0x7
 3431 00ab 30000000 		.4byte	0x30
 3432 00af 08       		.byte	0x8
 3433 00b0 00       		.byte	0
 3434 00b1 08       		.uleb128 0x8
 3435 00b2 0EFB0000 		.4byte	.LASF1537
 3436 00b6 24       		.byte	0x24
 3437 00b7 03       		.byte	0x3
 3438 00b8 4D       		.byte	0x4d
 3439 00b9 08       		.byte	0x8
 3440 00ba CA000000 		.4byte	0xca
 3441 00be 09       		.uleb128 0x9
 3442 00bf 6D00     		.ascii	"m\000"
 3443 00c1 03       		.byte	0x3
 3444 00c2 4E       		.byte	0x4e
 3445 00c3 09       		.byte	0x9
 3446 00c4 A1000000 		.4byte	0xa1
 3447 00c8 00       		.byte	0
 3448 00c9 00       		.byte	0
 3449 00ca 08       		.uleb128 0x8
 3450 00cb 12A70000 		.4byte	.LASF1538
 3451 00cf 0C       		.byte	0xc
 3452 00d0 04       		.byte	0x4
 3453 00d1 2D       		.byte	0x2d
 3454 00d2 08       		.byte	0x8
 3455 00d3 F9000000 		.4byte	0xf9
 3456 00d7 09       		.uleb128 0x9
 3457 00d8 7800     		.ascii	"x\000"
 3458 00da 04       		.byte	0x4
 3459 00db 2E       		.byte	0x2e
 3460 00dc 09       		.byte	0x9
 3461 00dd 8E000000 		.4byte	0x8e
 3462 00e1 00       		.byte	0
 3463 00e2 09       		.uleb128 0x9
 3464 00e3 7900     		.ascii	"y\000"
 3465 00e5 04       		.byte	0x4
 3466 00e6 2F       		.byte	0x2f
 3467 00e7 09       		.byte	0x9
 3468 00e8 8E000000 		.4byte	0x8e
 3469 00ec 04       		.byte	0x4
 3470 00ed 09       		.uleb128 0x9
 3471 00ee 7A00     		.ascii	"z\000"
 3472 00f0 04       		.byte	0x4
 3473 00f1 30       		.byte	0x30
 3474 00f2 09       		.byte	0x9
 3475 00f3 8E000000 		.4byte	0x8e
ARM GAS  /tmp/cceRHmPh.s 			page 62


 3476 00f7 08       		.byte	0x8
 3477 00f8 00       		.byte	0
 3478 00f9 08       		.uleb128 0x8
 3479 00fa C8D80000 		.4byte	.LASF1539
 3480 00fe 0C       		.byte	0xc
 3481 00ff 04       		.byte	0x4
 3482 0100 36       		.byte	0x36
 3483 0101 08       		.byte	0x8
 3484 0102 2E010000 		.4byte	0x12e
 3485 0106 09       		.uleb128 0x9
 3486 0107 6C617400 		.ascii	"lat\000"
 3487 010b 04       		.byte	0x4
 3488 010c 37       		.byte	0x37
 3489 010d 09       		.byte	0x9
 3490 010e 8E000000 		.4byte	0x8e
 3491 0112 00       		.byte	0
 3492 0113 09       		.uleb128 0x9
 3493 0114 6C6F6E00 		.ascii	"lon\000"
 3494 0118 04       		.byte	0x4
 3495 0119 38       		.byte	0x38
 3496 011a 09       		.byte	0x9
 3497 011b 8E000000 		.4byte	0x8e
 3498 011f 04       		.byte	0x4
 3499 0120 09       		.uleb128 0x9
 3500 0121 616C7400 		.ascii	"alt\000"
 3501 0125 04       		.byte	0x4
 3502 0126 39       		.byte	0x39
 3503 0127 09       		.byte	0x9
 3504 0128 8E000000 		.4byte	0x8e
 3505 012c 08       		.byte	0x8
 3506 012d 00       		.byte	0
 3507 012e 08       		.uleb128 0x8
 3508 012f 664C0000 		.4byte	.LASF1540
 3509 0133 0C       		.byte	0xc
 3510 0134 04       		.byte	0x4
 3511 0135 3F       		.byte	0x3f
 3512 0136 08       		.byte	0x8
 3513 0137 5D010000 		.4byte	0x15d
 3514 013b 09       		.uleb128 0x9
 3515 013c 7800     		.ascii	"x\000"
 3516 013e 04       		.byte	0x4
 3517 013f 40       		.byte	0x40
 3518 0140 09       		.byte	0x9
 3519 0141 8E000000 		.4byte	0x8e
 3520 0145 00       		.byte	0
 3521 0146 09       		.uleb128 0x9
 3522 0147 7900     		.ascii	"y\000"
 3523 0149 04       		.byte	0x4
 3524 014a 41       		.byte	0x41
 3525 014b 09       		.byte	0x9
 3526 014c 8E000000 		.4byte	0x8e
 3527 0150 04       		.byte	0x4
 3528 0151 09       		.uleb128 0x9
 3529 0152 7A00     		.ascii	"z\000"
 3530 0154 04       		.byte	0x4
 3531 0155 42       		.byte	0x42
 3532 0156 09       		.byte	0x9
ARM GAS  /tmp/cceRHmPh.s 			page 63


 3533 0157 8E000000 		.4byte	0x8e
 3534 015b 08       		.byte	0x8
 3535 015c 00       		.byte	0
 3536 015d 08       		.uleb128 0x8
 3537 015e 21030100 		.4byte	.LASF1541
 3538 0162 0C       		.byte	0xc
 3539 0163 04       		.byte	0x4
 3540 0164 48       		.byte	0x48
 3541 0165 08       		.byte	0x8
 3542 0166 8C010000 		.4byte	0x18c
 3543 016a 09       		.uleb128 0x9
 3544 016b 7800     		.ascii	"x\000"
 3545 016d 04       		.byte	0x4
 3546 016e 49       		.byte	0x49
 3547 016f 09       		.byte	0x9
 3548 0170 8E000000 		.4byte	0x8e
 3549 0174 00       		.byte	0
 3550 0175 09       		.uleb128 0x9
 3551 0176 7900     		.ascii	"y\000"
 3552 0178 04       		.byte	0x4
 3553 0179 4A       		.byte	0x4a
 3554 017a 09       		.byte	0x9
 3555 017b 8E000000 		.4byte	0x8e
 3556 017f 04       		.byte	0x4
 3557 0180 09       		.uleb128 0x9
 3558 0181 7A00     		.ascii	"z\000"
 3559 0183 04       		.byte	0x4
 3560 0184 4B       		.byte	0x4b
 3561 0185 09       		.byte	0x9
 3562 0186 8E000000 		.4byte	0x8e
 3563 018a 08       		.byte	0x8
 3564 018b 00       		.byte	0
 3565 018c 08       		.uleb128 0x8
 3566 018d 83760000 		.4byte	.LASF1542
 3567 0191 10       		.byte	0x10
 3568 0192 04       		.byte	0x4
 3569 0193 51       		.byte	0x51
 3570 0194 08       		.byte	0x8
 3571 0195 CE010000 		.4byte	0x1ce
 3572 0199 0A       		.uleb128 0xa
 3573 019a AE4D0000 		.4byte	.LASF1543
 3574 019e 04       		.byte	0x4
 3575 019f 52       		.byte	0x52
 3576 01a0 09       		.byte	0x9
 3577 01a1 8E000000 		.4byte	0x8e
 3578 01a5 00       		.byte	0
 3579 01a6 0A       		.uleb128 0xa
 3580 01a7 EF420000 		.4byte	.LASF1544
 3581 01ab 04       		.byte	0x4
 3582 01ac 53       		.byte	0x53
 3583 01ad 09       		.byte	0x9
 3584 01ae 8E000000 		.4byte	0x8e
 3585 01b2 04       		.byte	0x4
 3586 01b3 09       		.uleb128 0x9
 3587 01b4 616C7400 		.ascii	"alt\000"
 3588 01b8 04       		.byte	0x4
 3589 01b9 54       		.byte	0x54
ARM GAS  /tmp/cceRHmPh.s 			page 64


 3590 01ba 09       		.byte	0x9
 3591 01bb 8E000000 		.4byte	0x8e
 3592 01bf 08       		.byte	0x8
 3593 01c0 0A       		.uleb128 0xa
 3594 01c1 EC170000 		.4byte	.LASF1545
 3595 01c5 04       		.byte	0x4
 3596 01c6 55       		.byte	0x55
 3597 01c7 0B       		.byte	0xb
 3598 01c8 82000000 		.4byte	0x82
 3599 01cc 0C       		.byte	0xc
 3600 01cd 00       		.byte	0
 3601 01ce 08       		.uleb128 0x8
 3602 01cf BC630000 		.4byte	.LASF1546
 3603 01d3 40       		.byte	0x40
 3604 01d4 04       		.byte	0x4
 3605 01d5 5D       		.byte	0x5d
 3606 01d6 08       		.byte	0x8
 3607 01d7 10020000 		.4byte	0x210
 3608 01db 0A       		.uleb128 0xa
 3609 01dc 36370000 		.4byte	.LASF1547
 3610 01e0 04       		.byte	0x4
 3611 01e1 5E       		.byte	0x5e
 3612 01e2 15       		.byte	0x15
 3613 01e3 CA000000 		.4byte	0xca
 3614 01e7 00       		.byte	0
 3615 01e8 09       		.uleb128 0x9
 3616 01e9 6C6C6100 		.ascii	"lla\000"
 3617 01ed 04       		.byte	0x4
 3618 01ee 5F       		.byte	0x5f
 3619 01ef 15       		.byte	0x15
 3620 01f0 F9000000 		.4byte	0xf9
 3621 01f4 0C       		.byte	0xc
 3622 01f5 0A       		.uleb128 0xa
 3623 01f6 C82F0000 		.4byte	.LASF1548
 3624 01fa 04       		.byte	0x4
 3625 01fb 60       		.byte	0x60
 3626 01fc 14       		.byte	0x14
 3627 01fd B1000000 		.4byte	0xb1
 3628 0201 18       		.byte	0x18
 3629 0202 0A       		.uleb128 0xa
 3630 0203 82E90000 		.4byte	.LASF1549
 3631 0207 04       		.byte	0x4
 3632 0208 61       		.byte	0x61
 3633 0209 09       		.byte	0x9
 3634 020a 8E000000 		.4byte	0x8e
 3635 020e 3C       		.byte	0x3c
 3636 020f 00       		.byte	0
 3637 0210 06       		.uleb128 0x6
 3638 0211 9A000000 		.4byte	0x9a
 3639 0215 20020000 		.4byte	0x220
 3640 0219 07       		.uleb128 0x7
 3641 021a 30000000 		.4byte	0x30
 3642 021e 08       		.byte	0x8
 3643 021f 00       		.byte	0
 3644 0220 08       		.uleb128 0x8
 3645 0221 DAE20000 		.4byte	.LASF1550
 3646 0225 48       		.byte	0x48
ARM GAS  /tmp/cceRHmPh.s 			page 65


 3647 0226 05       		.byte	0x5
 3648 0227 45       		.byte	0x45
 3649 0228 08       		.byte	0x8
 3650 0229 39020000 		.4byte	0x239
 3651 022d 09       		.uleb128 0x9
 3652 022e 6D00     		.ascii	"m\000"
 3653 0230 05       		.byte	0x5
 3654 0231 46       		.byte	0x46
 3655 0232 0A       		.byte	0xa
 3656 0233 10020000 		.4byte	0x210
 3657 0237 00       		.byte	0
 3658 0238 00       		.byte	0
 3659 0239 08       		.uleb128 0x8
 3660 023a EBA60000 		.4byte	.LASF1551
 3661 023e 18       		.byte	0x18
 3662 023f 06       		.byte	0x6
 3663 0240 31       		.byte	0x31
 3664 0241 08       		.byte	0x8
 3665 0242 68020000 		.4byte	0x268
 3666 0246 09       		.uleb128 0x9
 3667 0247 7800     		.ascii	"x\000"
 3668 0249 06       		.byte	0x6
 3669 024a 32       		.byte	0x32
 3670 024b 0A       		.byte	0xa
 3671 024c 9A000000 		.4byte	0x9a
 3672 0250 00       		.byte	0
 3673 0251 09       		.uleb128 0x9
 3674 0252 7900     		.ascii	"y\000"
 3675 0254 06       		.byte	0x6
 3676 0255 33       		.byte	0x33
 3677 0256 0A       		.byte	0xa
 3678 0257 9A000000 		.4byte	0x9a
 3679 025b 08       		.byte	0x8
 3680 025c 09       		.uleb128 0x9
 3681 025d 7A00     		.ascii	"z\000"
 3682 025f 06       		.byte	0x6
 3683 0260 34       		.byte	0x34
 3684 0261 0A       		.byte	0xa
 3685 0262 9A000000 		.4byte	0x9a
 3686 0266 10       		.byte	0x10
 3687 0267 00       		.byte	0
 3688 0268 06       		.uleb128 0x6
 3689 0269 95000000 		.4byte	0x95
 3690 026d 78020000 		.4byte	0x278
 3691 0271 07       		.uleb128 0x7
 3692 0272 30000000 		.4byte	0x30
 3693 0276 04       		.byte	0x4
 3694 0277 00       		.byte	0
 3695 0278 05       		.uleb128 0x5
 3696 0279 68020000 		.4byte	0x268
 3697 027d 0B       		.uleb128 0xb
 3698 027e 3D140000 		.4byte	.LASF1552
 3699 0282 07       		.byte	0x7
 3700 0283 33       		.byte	0x33
 3701 0284 14       		.byte	0x14
 3702 0285 78020000 		.4byte	0x278
 3703 0289 05       		.uleb128 0x5
ARM GAS  /tmp/cceRHmPh.s 			page 66


 3704 028a 03       		.byte	0x3
 3705 028b 00000000 		.4byte	serie_coeff_proj_mercator
 3706 028f 0B       		.uleb128 0xb
 3707 0290 108D0000 		.4byte	.LASF1553
 3708 0294 07       		.byte	0x7
 3709 0295 3B       		.byte	0x3b
 3710 0296 14       		.byte	0x14
 3711 0297 78020000 		.4byte	0x278
 3712 029b 05       		.uleb128 0x5
 3713 029c 03       		.byte	0x3
 3714 029d 00000000 		.4byte	serie_coeff_proj_mercator_inverse
 3715 02a1 0C       		.uleb128 0xc
 3716 02a2 6DCC0000 		.4byte	.LASF1554
 3717 02a6 08       		.byte	0x8
 3718 02a7 01       		.byte	0x1
 3719 02a8 0A01     		.2byte	0x10a
 3720 02aa 08       		.byte	0x8
 3721 02ab CA020000 		.4byte	0x2ca
 3722 02af 0D       		.uleb128 0xd
 3723 02b0 726500   		.ascii	"re\000"
 3724 02b3 01       		.byte	0x1
 3725 02b4 0A01     		.2byte	0x10a
 3726 02b6 18       		.byte	0x18
 3727 02b7 8E000000 		.4byte	0x8e
 3728 02bb 00       		.byte	0
 3729 02bc 0D       		.uleb128 0xd
 3730 02bd 696D00   		.ascii	"im\000"
 3731 02c0 01       		.byte	0x1
 3732 02c1 0A01     		.2byte	0x10a
 3733 02c3 22       		.byte	0x22
 3734 02c4 8E000000 		.4byte	0x8e
 3735 02c8 04       		.byte	0x4
 3736 02c9 00       		.byte	0
 3737 02ca 0E       		.uleb128 0xe
 3738 02cb 01400000 		.4byte	.LASF1561
 3739 02cf 01       		.byte	0x1
 3740 02d0 5801     		.2byte	0x158
 3741 02d2 06       		.byte	0x6
 3742 02d3 00000000 		.4byte	.LFB70
 3743 02d7 68030000 		.4byte	.LFE70-.LFB70
 3744 02db 01       		.uleb128 0x1
 3745 02dc 9C       		.byte	0x9c
 3746 02dd 1C040000 		.4byte	0x41c
 3747 02e1 0F       		.uleb128 0xf
 3748 02e2 6C6C6100 		.ascii	"lla\000"
 3749 02e6 01       		.byte	0x1
 3750 02e7 5801     		.2byte	0x158
 3751 02e9 25       		.byte	0x25
 3752 02ea 1C040000 		.4byte	0x41c
 3753 02ee 03       		.uleb128 0x3
 3754 02ef 91       		.byte	0x91
 3755 02f0 9C7F     		.sleb128 -100
 3756 02f2 0F       		.uleb128 0xf
 3757 02f3 75746D00 		.ascii	"utm\000"
 3758 02f7 01       		.byte	0x1
 3759 02f8 5801     		.2byte	0x158
 3760 02fa 3C       		.byte	0x3c
ARM GAS  /tmp/cceRHmPh.s 			page 67


 3761 02fb 22040000 		.4byte	0x422
 3762 02ff 03       		.uleb128 0x3
 3763 0300 91       		.byte	0x91
 3764 0301 987F     		.sleb128 -104
 3765 0303 10       		.uleb128 0x10
 3766 0304 BD3D0000 		.4byte	.LASF1555
 3767 0308 01       		.byte	0x1
 3768 0309 5A01     		.2byte	0x15a
 3769 030b 09       		.byte	0x9
 3770 030c 8E000000 		.4byte	0x8e
 3771 0310 02       		.uleb128 0x2
 3772 0311 91       		.byte	0x91
 3773 0312 60       		.sleb128 -32
 3774 0313 10       		.uleb128 0x10
 3775 0314 A3110000 		.4byte	.LASF1556
 3776 0318 01       		.byte	0x1
 3777 0319 5B01     		.2byte	0x15b
 3778 031b 09       		.byte	0x9
 3779 031c 8E000000 		.4byte	0x8e
 3780 0320 02       		.uleb128 0x2
 3781 0321 91       		.byte	0x91
 3782 0322 5C       		.sleb128 -36
 3783 0323 11       		.uleb128 0x11
 3784 0324 696D6700 		.ascii	"img\000"
 3785 0328 01       		.byte	0x1
 3786 0329 5C01     		.2byte	0x15c
 3787 032b 09       		.byte	0x9
 3788 032c 8E000000 		.4byte	0x8e
 3789 0330 02       		.uleb128 0x2
 3790 0331 91       		.byte	0x91
 3791 0332 58       		.sleb128 -40
 3792 0333 11       		.uleb128 0x11
 3793 0334 7A00     		.ascii	"z\000"
 3794 0336 01       		.byte	0x1
 3795 0337 5D01     		.2byte	0x15d
 3796 0339 12       		.byte	0x12
 3797 033a A1020000 		.4byte	0x2a1
 3798 033e 03       		.uleb128 0x3
 3799 033f 91       		.byte	0x91
 3800 0340 B07F     		.sleb128 -80
 3801 0342 11       		.uleb128 0x11
 3802 0343 6B00     		.ascii	"k\000"
 3803 0345 01       		.byte	0x1
 3804 0346 5F01     		.2byte	0x15f
 3805 0348 0A       		.byte	0xa
 3806 0349 76000000 		.4byte	0x76
 3807 034d 02       		.uleb128 0x2
 3808 034e 91       		.byte	0x91
 3809 034f 67       		.sleb128 -25
 3810 0350 10       		.uleb128 0x10
 3811 0351 476C0000 		.4byte	.LASF1557
 3812 0355 01       		.byte	0x1
 3813 0356 6801     		.2byte	0x168
 3814 0358 09       		.byte	0x9
 3815 0359 8E000000 		.4byte	0x8e
 3816 035d 02       		.uleb128 0x2
 3817 035e 91       		.byte	0x91
ARM GAS  /tmp/cceRHmPh.s 			page 68


 3818 035f 54       		.sleb128 -44
 3819 0360 10       		.uleb128 0x10
 3820 0361 97140000 		.4byte	.LASF1558
 3821 0365 01       		.byte	0x1
 3822 0366 6A01     		.2byte	0x16a
 3823 0368 09       		.byte	0x9
 3824 0369 8E000000 		.4byte	0x8e
 3825 036d 02       		.uleb128 0x2
 3826 036e 91       		.byte	0x91
 3827 036f 50       		.sleb128 -48
 3828 0370 11       		.uleb128 0x11
 3829 0371 696C00   		.ascii	"il\000"
 3830 0374 01       		.byte	0x1
 3831 0375 6B01     		.2byte	0x16b
 3832 0377 09       		.byte	0x9
 3833 0378 8E000000 		.4byte	0x8e
 3834 037c 02       		.uleb128 0x2
 3835 037d 91       		.byte	0x91
 3836 037e 4C       		.sleb128 -52
 3837 037f 12       		.uleb128 0x12
 3838 0380 92000000 		.4byte	.LBB7
 3839 0384 CC010000 		.4byte	.LBE7-.LBB7
 3840 0388 11       		.uleb128 0x11
 3841 0389 7A5F00   		.ascii	"z_\000"
 3842 038c 01       		.byte	0x1
 3843 038d 6101     		.2byte	0x161
 3844 038f 14       		.byte	0x14
 3845 0390 A1020000 		.4byte	0x2a1
 3846 0394 03       		.uleb128 0x3
 3847 0395 91       		.byte	0x91
 3848 0396 A87F     		.sleb128 -88
 3849 0398 12       		.uleb128 0x12
 3850 0399 0E010000 		.4byte	.LBB8
 3851 039d FC000000 		.4byte	.LBE8-.LBB8
 3852 03a1 11       		.uleb128 0x11
 3853 03a2 5F7A00   		.ascii	"_z\000"
 3854 03a5 01       		.byte	0x1
 3855 03a6 6301     		.2byte	0x163
 3856 03a8 05       		.byte	0x5
 3857 03a9 A1020000 		.4byte	0x2a1
 3858 03ad 03       		.uleb128 0x3
 3859 03ae 91       		.byte	0x91
 3860 03af A07F     		.sleb128 -96
 3861 03b1 11       		.uleb128 0x11
 3862 03b2 6500     		.ascii	"e\000"
 3863 03b4 01       		.byte	0x1
 3864 03b5 6301     		.2byte	0x163
 3865 03b7 05       		.byte	0x5
 3866 03b8 8E000000 		.4byte	0x8e
 3867 03bc 02       		.uleb128 0x2
 3868 03bd 91       		.byte	0x91
 3869 03be 44       		.sleb128 -60
 3870 03bf 10       		.uleb128 0x10
 3871 03c0 7E300000 		.4byte	.LASF1559
 3872 03c4 01       		.byte	0x1
 3873 03c5 6301     		.2byte	0x163
 3874 03c7 05       		.byte	0x5
ARM GAS  /tmp/cceRHmPh.s 			page 69


 3875 03c8 8E000000 		.4byte	0x8e
 3876 03cc 02       		.uleb128 0x2
 3877 03cd 91       		.byte	0x91
 3878 03ce 40       		.sleb128 -64
 3879 03cf 10       		.uleb128 0x10
 3880 03d0 1B520000 		.4byte	.LASF1560
 3881 03d4 01       		.byte	0x1
 3882 03d5 6301     		.2byte	0x163
 3883 03d7 05       		.byte	0x5
 3884 03d8 8E000000 		.4byte	0x8e
 3885 03dc 03       		.uleb128 0x3
 3886 03dd 91       		.byte	0x91
 3887 03de BC7F     		.sleb128 -68
 3888 03e0 13       		.uleb128 0x13
 3889 03e1 0E010000 		.4byte	.LBB9
 3890 03e5 14000000 		.4byte	.LBE9-.LBB9
 3891 03e9 FE030000 		.4byte	0x3fe
 3892 03ed 11       		.uleb128 0x11
 3893 03ee 746D7000 		.ascii	"tmp\000"
 3894 03f2 01       		.byte	0x1
 3895 03f3 6301     		.2byte	0x163
 3896 03f5 05       		.byte	0x5
 3897 03f6 8E000000 		.4byte	0x8e
 3898 03fa 02       		.uleb128 0x2
 3899 03fb 91       		.byte	0x91
 3900 03fc 48       		.sleb128 -56
 3901 03fd 00       		.byte	0
 3902 03fe 12       		.uleb128 0x12
 3903 03ff F6010000 		.4byte	.LBB10
 3904 0403 14000000 		.4byte	.LBE10-.LBB10
 3905 0407 11       		.uleb128 0x11
 3906 0408 746D7000 		.ascii	"tmp\000"
 3907 040c 01       		.byte	0x1
 3908 040d 6301     		.2byte	0x163
 3909 040f 05       		.byte	0x5
 3910 0410 8E000000 		.4byte	0x8e
 3911 0414 03       		.uleb128 0x3
 3912 0415 91       		.byte	0x91
 3913 0416 B87F     		.sleb128 -72
 3914 0418 00       		.byte	0
 3915 0419 00       		.byte	0
 3916 041a 00       		.byte	0
 3917 041b 00       		.byte	0
 3918 041c 14       		.uleb128 0x14
 3919 041d 04       		.byte	0x4
 3920 041e F9000000 		.4byte	0xf9
 3921 0422 14       		.uleb128 0x14
 3922 0423 04       		.byte	0x4
 3923 0424 8C010000 		.4byte	0x18c
 3924 0428 0E       		.uleb128 0xe
 3925 0429 6BB10000 		.4byte	.LASF1562
 3926 042d 01       		.byte	0x1
 3927 042e 3401     		.2byte	0x134
 3928 0430 06       		.byte	0x6
 3929 0431 00000000 		.4byte	.LFB69
 3930 0435 EC030000 		.4byte	.LFE69-.LFB69
 3931 0439 01       		.uleb128 0x1
ARM GAS  /tmp/cceRHmPh.s 			page 70


 3932 043a 9C       		.byte	0x9c
 3933 043b 79050000 		.4byte	0x579
 3934 043f 0F       		.uleb128 0xf
 3935 0440 75746D00 		.ascii	"utm\000"
 3936 0444 01       		.byte	0x1
 3937 0445 3401     		.2byte	0x134
 3938 0447 25       		.byte	0x25
 3939 0448 22040000 		.4byte	0x422
 3940 044c 03       		.uleb128 0x3
 3941 044d 91       		.byte	0x91
 3942 044e 9C7F     		.sleb128 -100
 3943 0450 0F       		.uleb128 0xf
 3944 0451 6C6C6100 		.ascii	"lla\000"
 3945 0455 01       		.byte	0x1
 3946 0456 3401     		.2byte	0x134
 3947 0458 3C       		.byte	0x3c
 3948 0459 1C040000 		.4byte	0x41c
 3949 045d 03       		.uleb128 0x3
 3950 045e 91       		.byte	0x91
 3951 045f 987F     		.sleb128 -104
 3952 0461 10       		.uleb128 0x10
 3953 0462 476C0000 		.4byte	.LASF1557
 3954 0466 01       		.byte	0x1
 3955 0467 3B01     		.2byte	0x13b
 3956 0469 09       		.byte	0x9
 3957 046a 8E000000 		.4byte	0x8e
 3958 046e 02       		.uleb128 0x2
 3959 046f 91       		.byte	0x91
 3960 0470 60       		.sleb128 -32
 3961 0471 11       		.uleb128 0x11
 3962 0472 6C6C00   		.ascii	"ll\000"
 3963 0475 01       		.byte	0x1
 3964 0476 3C01     		.2byte	0x13c
 3965 0478 09       		.byte	0x9
 3966 0479 8E000000 		.4byte	0x8e
 3967 047d 02       		.uleb128 0x2
 3968 047e 91       		.byte	0x91
 3969 047f 5C       		.sleb128 -36
 3970 0480 11       		.uleb128 0x11
 3971 0481 646C00   		.ascii	"dl\000"
 3972 0484 01       		.byte	0x1
 3973 0485 3D01     		.2byte	0x13d
 3974 0487 09       		.byte	0x9
 3975 0488 8E000000 		.4byte	0x8e
 3976 048c 02       		.uleb128 0x2
 3977 048d 91       		.byte	0x91
 3978 048e 58       		.sleb128 -40
 3979 048f 10       		.uleb128 0x10
 3980 0490 97140000 		.4byte	.LASF1558
 3981 0494 01       		.byte	0x1
 3982 0495 3E01     		.2byte	0x13e
 3983 0497 09       		.byte	0x9
 3984 0498 8E000000 		.4byte	0x8e
 3985 049c 02       		.uleb128 0x2
 3986 049d 91       		.byte	0x91
 3987 049e 54       		.sleb128 -44
 3988 049f 11       		.uleb128 0x11
ARM GAS  /tmp/cceRHmPh.s 			page 71


 3989 04a0 6C6C5F00 		.ascii	"ll_\000"
 3990 04a4 01       		.byte	0x1
 3991 04a5 3F01     		.2byte	0x13f
 3992 04a7 09       		.byte	0x9
 3993 04a8 8E000000 		.4byte	0x8e
 3994 04ac 02       		.uleb128 0x2
 3995 04ad 91       		.byte	0x91
 3996 04ae 50       		.sleb128 -48
 3997 04af 10       		.uleb128 0x10
 3998 04b0 29890000 		.4byte	.LASF1563
 3999 04b4 01       		.byte	0x1
 4000 04b5 4001     		.2byte	0x140
 4001 04b7 09       		.byte	0x9
 4002 04b8 8E000000 		.4byte	0x8e
 4003 04bc 02       		.uleb128 0x2
 4004 04bd 91       		.byte	0x91
 4005 04be 4C       		.sleb128 -52
 4006 04bf 11       		.uleb128 0x11
 4007 04c0 7A5F00   		.ascii	"z_\000"
 4008 04c3 01       		.byte	0x1
 4009 04c4 4101     		.2byte	0x141
 4010 04c6 12       		.byte	0x12
 4011 04c7 A1020000 		.4byte	0x2a1
 4012 04cb 03       		.uleb128 0x3
 4013 04cc 91       		.byte	0x91
 4014 04cd B07F     		.sleb128 -80
 4015 04cf 11       		.uleb128 0x11
 4016 04d0 6B00     		.ascii	"k\000"
 4017 04d2 01       		.byte	0x1
 4018 04d3 4301     		.2byte	0x143
 4019 04d5 0A       		.byte	0xa
 4020 04d6 76000000 		.4byte	0x76
 4021 04da 02       		.uleb128 0x2
 4022 04db 91       		.byte	0x91
 4023 04dc 67       		.sleb128 -25
 4024 04dd 12       		.uleb128 0x12
 4025 04de 74010000 		.4byte	.LBB3
 4026 04e2 CC010000 		.4byte	.LBE3-.LBB3
 4027 04e6 11       		.uleb128 0x11
 4028 04e7 7A00     		.ascii	"z\000"
 4029 04e9 01       		.byte	0x1
 4030 04ea 4501     		.2byte	0x145
 4031 04ec 14       		.byte	0x14
 4032 04ed A1020000 		.4byte	0x2a1
 4033 04f1 03       		.uleb128 0x3
 4034 04f2 91       		.byte	0x91
 4035 04f3 A87F     		.sleb128 -88
 4036 04f5 12       		.uleb128 0x12
 4037 04f6 F0010000 		.4byte	.LBB4
 4038 04fa FC000000 		.4byte	.LBE4-.LBB4
 4039 04fe 11       		.uleb128 0x11
 4040 04ff 5F7A00   		.ascii	"_z\000"
 4041 0502 01       		.byte	0x1
 4042 0503 4701     		.2byte	0x147
 4043 0505 05       		.byte	0x5
 4044 0506 A1020000 		.4byte	0x2a1
 4045 050a 03       		.uleb128 0x3
ARM GAS  /tmp/cceRHmPh.s 			page 72


 4046 050b 91       		.byte	0x91
 4047 050c A07F     		.sleb128 -96
 4048 050e 11       		.uleb128 0x11
 4049 050f 6500     		.ascii	"e\000"
 4050 0511 01       		.byte	0x1
 4051 0512 4701     		.2byte	0x147
 4052 0514 05       		.byte	0x5
 4053 0515 8E000000 		.4byte	0x8e
 4054 0519 02       		.uleb128 0x2
 4055 051a 91       		.byte	0x91
 4056 051b 44       		.sleb128 -60
 4057 051c 10       		.uleb128 0x10
 4058 051d 7E300000 		.4byte	.LASF1559
 4059 0521 01       		.byte	0x1
 4060 0522 4701     		.2byte	0x147
 4061 0524 05       		.byte	0x5
 4062 0525 8E000000 		.4byte	0x8e
 4063 0529 02       		.uleb128 0x2
 4064 052a 91       		.byte	0x91
 4065 052b 40       		.sleb128 -64
 4066 052c 10       		.uleb128 0x10
 4067 052d 1B520000 		.4byte	.LASF1560
 4068 0531 01       		.byte	0x1
 4069 0532 4701     		.2byte	0x147
 4070 0534 05       		.byte	0x5
 4071 0535 8E000000 		.4byte	0x8e
 4072 0539 03       		.uleb128 0x3
 4073 053a 91       		.byte	0x91
 4074 053b BC7F     		.sleb128 -68
 4075 053d 13       		.uleb128 0x13
 4076 053e F0010000 		.4byte	.LBB5
 4077 0542 14000000 		.4byte	.LBE5-.LBB5
 4078 0546 5B050000 		.4byte	0x55b
 4079 054a 11       		.uleb128 0x11
 4080 054b 746D7000 		.ascii	"tmp\000"
 4081 054f 01       		.byte	0x1
 4082 0550 4701     		.2byte	0x147
 4083 0552 05       		.byte	0x5
 4084 0553 8E000000 		.4byte	0x8e
 4085 0557 02       		.uleb128 0x2
 4086 0558 91       		.byte	0x91
 4087 0559 48       		.sleb128 -56
 4088 055a 00       		.byte	0
 4089 055b 12       		.uleb128 0x12
 4090 055c D8020000 		.4byte	.LBB6
 4091 0560 14000000 		.4byte	.LBE6-.LBB6
 4092 0564 11       		.uleb128 0x11
 4093 0565 746D7000 		.ascii	"tmp\000"
 4094 0569 01       		.byte	0x1
 4095 056a 4701     		.2byte	0x147
 4096 056c 05       		.byte	0x5
 4097 056d 8E000000 		.4byte	0x8e
 4098 0571 03       		.uleb128 0x3
 4099 0572 91       		.byte	0x91
 4100 0573 B87F     		.sleb128 -72
 4101 0575 00       		.byte	0
 4102 0576 00       		.byte	0
ARM GAS  /tmp/cceRHmPh.s 			page 73


 4103 0577 00       		.byte	0
 4104 0578 00       		.byte	0
 4105 0579 15       		.uleb128 0x15
 4106 057a 07DE0000 		.4byte	.LASF1569
 4107 057e 01       		.byte	0x1
 4108 057f 1F01     		.2byte	0x11f
 4109 0581 15       		.byte	0x15
 4110 0582 8E000000 		.4byte	0x8e
 4111 0586 00000000 		.4byte	.LFB68
 4112 058a 4C010000 		.4byte	.LFE68-.LFB68
 4113 058e 01       		.uleb128 0x1
 4114 058f 9C       		.byte	0x9c
 4115 0590 1D060000 		.4byte	0x61d
 4116 0594 0F       		.uleb128 0xf
 4117 0595 6C617400 		.ascii	"lat\000"
 4118 0599 01       		.byte	0x1
 4119 059a 1F01     		.2byte	0x11f
 4120 059c 38       		.byte	0x38
 4121 059d 8E000000 		.4byte	0x8e
 4122 05a1 02       		.uleb128 0x2
 4123 05a2 91       		.byte	0x91
 4124 05a3 54       		.sleb128 -44
 4125 05a4 0F       		.uleb128 0xf
 4126 05a5 6500     		.ascii	"e\000"
 4127 05a7 01       		.byte	0x1
 4128 05a8 1F01     		.2byte	0x11f
 4129 05aa 43       		.byte	0x43
 4130 05ab 8E000000 		.4byte	0x8e
 4131 05af 02       		.uleb128 0x2
 4132 05b0 91       		.byte	0x91
 4133 05b1 50       		.sleb128 -48
 4134 05b2 16       		.uleb128 0x16
 4135 05b3 D1730000 		.4byte	.LASF1564
 4136 05b7 01       		.byte	0x1
 4137 05b8 1F01     		.2byte	0x11f
 4138 05ba 4C       		.byte	0x4c
 4139 05bb 8E000000 		.4byte	0x8e
 4140 05bf 02       		.uleb128 0x2
 4141 05c0 91       		.byte	0x91
 4142 05c1 4C       		.sleb128 -52
 4143 05c2 10       		.uleb128 0x10
 4144 05c3 A5D20000 		.4byte	.LASF1565
 4145 05c7 01       		.byte	0x1
 4146 05c8 2101     		.2byte	0x121
 4147 05ca 09       		.byte	0x9
 4148 05cb 8E000000 		.4byte	0x8e
 4149 05cf 02       		.uleb128 0x2
 4150 05d0 91       		.byte	0x91
 4151 05d1 64       		.sleb128 -28
 4152 05d2 10       		.uleb128 0x10
 4153 05d3 03130000 		.4byte	.LASF1566
 4154 05d7 01       		.byte	0x1
 4155 05d8 2201     		.2byte	0x122
 4156 05da 09       		.byte	0x9
 4157 05db 8E000000 		.4byte	0x8e
 4158 05df 02       		.uleb128 0x2
 4159 05e0 91       		.byte	0x91
ARM GAS  /tmp/cceRHmPh.s 			page 74


 4160 05e1 6C       		.sleb128 -20
 4161 05e2 10       		.uleb128 0x10
 4162 05e3 97140000 		.4byte	.LASF1558
 4163 05e7 01       		.byte	0x1
 4164 05e8 2301     		.2byte	0x123
 4165 05ea 09       		.byte	0x9
 4166 05eb 8E000000 		.4byte	0x8e
 4167 05ef 02       		.uleb128 0x2
 4168 05f0 91       		.byte	0x91
 4169 05f1 60       		.sleb128 -32
 4170 05f2 10       		.uleb128 0x10
 4171 05f3 750A0100 		.4byte	.LASF1567
 4172 05f7 01       		.byte	0x1
 4173 05f8 2401     		.2byte	0x124
 4174 05fa 0B       		.byte	0xb
 4175 05fb 82000000 		.4byte	0x82
 4176 05ff 02       		.uleb128 0x2
 4177 0600 91       		.byte	0x91
 4178 0601 6B       		.sleb128 -21
 4179 0602 12       		.uleb128 0x12
 4180 0603 4E000000 		.4byte	.LBB2
 4181 0607 BE000000 		.4byte	.LBE2-.LBB2
 4182 060b 10       		.uleb128 0x10
 4183 060c 145C0000 		.4byte	.LASF1568
 4184 0610 01       		.byte	0x1
 4185 0611 2801     		.2byte	0x128
 4186 0613 0B       		.byte	0xb
 4187 0614 8E000000 		.4byte	0x8e
 4188 0618 02       		.uleb128 0x2
 4189 0619 91       		.byte	0x91
 4190 061a 5C       		.sleb128 -36
 4191 061b 00       		.byte	0
 4192 061c 00       		.byte	0
 4193 061d 15       		.uleb128 0x15
 4194 061e 29E30000 		.4byte	.LASF1570
 4195 0622 01       		.byte	0x1
 4196 0623 1A01     		.2byte	0x11a
 4197 0625 15       		.byte	0x15
 4198 0626 8E000000 		.4byte	0x8e
 4199 062a 00000000 		.4byte	.LFB67
 4200 062e 60000000 		.4byte	.LFE67-.LFB67
 4201 0632 01       		.uleb128 0x1
 4202 0633 9C       		.byte	0x9c
 4203 0634 49060000 		.4byte	0x649
 4204 0638 0F       		.uleb128 0xf
 4205 0639 70686900 		.ascii	"phi\000"
 4206 063d 01       		.byte	0x1
 4207 063e 1A01     		.2byte	0x11a
 4208 0640 35       		.byte	0x35
 4209 0641 8E000000 		.4byte	0x8e
 4210 0645 02       		.uleb128 0x2
 4211 0646 91       		.byte	0x91
 4212 0647 74       		.sleb128 -12
 4213 0648 00       		.byte	0
 4214 0649 15       		.uleb128 0x15
 4215 064a FF6C0000 		.4byte	.LASF1571
 4216 064e 01       		.byte	0x1
ARM GAS  /tmp/cceRHmPh.s 			page 75


 4217 064f 1501     		.2byte	0x115
 4218 0651 15       		.byte	0x15
 4219 0652 8E000000 		.4byte	0x8e
 4220 0656 00000000 		.4byte	.LFB66
 4221 065a 34010000 		.4byte	.LFE66-.LFB66
 4222 065e 01       		.uleb128 0x1
 4223 065f 9C       		.byte	0x9c
 4224 0660 83060000 		.4byte	0x683
 4225 0664 0F       		.uleb128 0xf
 4226 0665 70686900 		.ascii	"phi\000"
 4227 0669 01       		.byte	0x1
 4228 066a 1501     		.2byte	0x115
 4229 066c 30       		.byte	0x30
 4230 066d 8E000000 		.4byte	0x8e
 4231 0671 02       		.uleb128 0x2
 4232 0672 91       		.byte	0x91
 4233 0673 5C       		.sleb128 -36
 4234 0674 0F       		.uleb128 0xf
 4235 0675 6500     		.ascii	"e\000"
 4236 0677 01       		.byte	0x1
 4237 0678 1501     		.2byte	0x115
 4238 067a 3B       		.byte	0x3b
 4239 067b 8E000000 		.4byte	0x8e
 4240 067f 02       		.uleb128 0x2
 4241 0680 91       		.byte	0x91
 4242 0681 58       		.sleb128 -40
 4243 0682 00       		.byte	0
 4244 0683 17       		.uleb128 0x17
 4245 0684 E9A20000 		.4byte	.LASF1572
 4246 0688 01       		.byte	0x1
 4247 0689 F1       		.byte	0xf1
 4248 068a 06       		.byte	0x6
 4249 068b 00000000 		.4byte	.LFB65
 4250 068f 8C010000 		.4byte	.LFE65-.LFB65
 4251 0693 01       		.uleb128 0x1
 4252 0694 9C       		.byte	0x9c
 4253 0695 3F070000 		.4byte	0x73f
 4254 0699 18       		.uleb128 0x18
 4255 069a 6F757400 		.ascii	"out\000"
 4256 069e 01       		.byte	0x1
 4257 069f F1       		.byte	0xf1
 4258 06a0 27       		.byte	0x27
 4259 06a1 3F070000 		.4byte	0x73f
 4260 06a5 02       		.uleb128 0x2
 4261 06a6 91       		.byte	0x91
 4262 06a7 4C       		.sleb128 -52
 4263 06a8 18       		.uleb128 0x18
 4264 06a9 696E00   		.ascii	"in\000"
 4265 06ac 01       		.byte	0x1
 4266 06ad F1       		.byte	0xf1
 4267 06ae 3E       		.byte	0x3e
 4268 06af 1C040000 		.4byte	0x41c
 4269 06b3 02       		.uleb128 0x2
 4270 06b4 91       		.byte	0x91
 4271 06b5 48       		.sleb128 -56
 4272 06b6 19       		.uleb128 0x19
 4273 06b7 6100     		.ascii	"a\000"
ARM GAS  /tmp/cceRHmPh.s 			page 76


 4274 06b9 01       		.byte	0x1
 4275 06ba F5       		.byte	0xf5
 4276 06bb 16       		.byte	0x16
 4277 06bc 95000000 		.4byte	0x95
 4278 06c0 05       		.uleb128 0x5
 4279 06c1 03       		.byte	0x3
 4280 06c2 00000000 		.4byte	a.0
 4281 06c6 19       		.uleb128 0x19
 4282 06c7 6600     		.ascii	"f\000"
 4283 06c9 01       		.byte	0x1
 4284 06ca F6       		.byte	0xf6
 4285 06cb 16       		.byte	0x16
 4286 06cc 95000000 		.4byte	0x95
 4287 06d0 05       		.uleb128 0x5
 4288 06d1 03       		.byte	0x3
 4289 06d2 00000000 		.4byte	f.1
 4290 06d6 19       		.uleb128 0x19
 4291 06d7 653200   		.ascii	"e2\000"
 4292 06da 01       		.byte	0x1
 4293 06db F7       		.byte	0xf7
 4294 06dc 0F       		.byte	0xf
 4295 06dd 95000000 		.4byte	0x95
 4296 06e1 02       		.uleb128 0x2
 4297 06e2 91       		.byte	0x91
 4298 06e3 6C       		.sleb128 -20
 4299 06e4 0B       		.uleb128 0xb
 4300 06e5 A2E80000 		.4byte	.LASF1573
 4301 06e9 01       		.byte	0x1
 4302 06ea F9       		.byte	0xf9
 4303 06eb 0F       		.byte	0xf
 4304 06ec 95000000 		.4byte	0x95
 4305 06f0 02       		.uleb128 0x2
 4306 06f1 91       		.byte	0x91
 4307 06f2 68       		.sleb128 -24
 4308 06f3 0B       		.uleb128 0xb
 4309 06f4 D15D0000 		.4byte	.LASF1574
 4310 06f8 01       		.byte	0x1
 4311 06f9 FA       		.byte	0xfa
 4312 06fa 0F       		.byte	0xf
 4313 06fb 95000000 		.4byte	0x95
 4314 06ff 02       		.uleb128 0x2
 4315 0700 91       		.byte	0x91
 4316 0701 64       		.sleb128 -28
 4317 0702 0B       		.uleb128 0xb
 4318 0703 64170000 		.4byte	.LASF1575
 4319 0707 01       		.byte	0x1
 4320 0708 FB       		.byte	0xfb
 4321 0709 0F       		.byte	0xf
 4322 070a 95000000 		.4byte	0x95
 4323 070e 02       		.uleb128 0x2
 4324 070f 91       		.byte	0x91
 4325 0710 60       		.sleb128 -32
 4326 0711 0B       		.uleb128 0xb
 4327 0712 07A20000 		.4byte	.LASF1576
 4328 0716 01       		.byte	0x1
 4329 0717 FC       		.byte	0xfc
 4330 0718 0F       		.byte	0xf
ARM GAS  /tmp/cceRHmPh.s 			page 77


 4331 0719 95000000 		.4byte	0x95
 4332 071d 02       		.uleb128 0x2
 4333 071e 91       		.byte	0x91
 4334 071f 5C       		.sleb128 -36
 4335 0720 19       		.uleb128 0x19
 4336 0721 63686900 		.ascii	"chi\000"
 4337 0725 01       		.byte	0x1
 4338 0726 FD       		.byte	0xfd
 4339 0727 0F       		.byte	0xf
 4340 0728 95000000 		.4byte	0x95
 4341 072c 02       		.uleb128 0x2
 4342 072d 91       		.byte	0x91
 4343 072e 58       		.sleb128 -40
 4344 072f 0B       		.uleb128 0xb
 4345 0730 5C5C0000 		.4byte	.LASF1577
 4346 0734 01       		.byte	0x1
 4347 0735 FE       		.byte	0xfe
 4348 0736 0F       		.byte	0xf
 4349 0737 95000000 		.4byte	0x95
 4350 073b 02       		.uleb128 0x2
 4351 073c 91       		.byte	0x91
 4352 073d 54       		.sleb128 -44
 4353 073e 00       		.byte	0
 4354 073f 14       		.uleb128 0x14
 4355 0740 04       		.byte	0x4
 4356 0741 CA000000 		.4byte	0xca
 4357 0745 17       		.uleb128 0x17
 4358 0746 F7A20000 		.4byte	.LASF1578
 4359 074a 01       		.byte	0x1
 4360 074b CC       		.byte	0xcc
 4361 074c 06       		.byte	0x6
 4362 074d 00000000 		.4byte	.LFB64
 4363 0751 D4040000 		.4byte	.LFE64-.LFB64
 4364 0755 01       		.uleb128 0x1
 4365 0756 9C       		.byte	0x9c
 4366 0757 B7080000 		.4byte	0x8b7
 4367 075b 18       		.uleb128 0x18
 4368 075c 6F757400 		.ascii	"out\000"
 4369 0760 01       		.byte	0x1
 4370 0761 CC       		.byte	0xcc
 4371 0762 26       		.byte	0x26
 4372 0763 1C040000 		.4byte	0x41c
 4373 0767 03       		.uleb128 0x3
 4374 0768 91       		.byte	0x91
 4375 0769 8C7F     		.sleb128 -116
 4376 076b 18       		.uleb128 0x18
 4377 076c 696E00   		.ascii	"in\000"
 4378 076f 01       		.byte	0x1
 4379 0770 CC       		.byte	0xcc
 4380 0771 3E       		.byte	0x3e
 4381 0772 3F070000 		.4byte	0x73f
 4382 0776 03       		.uleb128 0x3
 4383 0777 91       		.byte	0x91
 4384 0778 887F     		.sleb128 -120
 4385 077a 19       		.uleb128 0x19
 4386 077b 6100     		.ascii	"a\000"
 4387 077d 01       		.byte	0x1
ARM GAS  /tmp/cceRHmPh.s 			page 78


 4388 077e D0       		.byte	0xd0
 4389 077f 16       		.byte	0x16
 4390 0780 95000000 		.4byte	0x95
 4391 0784 05       		.uleb128 0x5
 4392 0785 03       		.byte	0x3
 4393 0786 00000000 		.4byte	a.3
 4394 078a 19       		.uleb128 0x19
 4395 078b 6600     		.ascii	"f\000"
 4396 078d 01       		.byte	0x1
 4397 078e D1       		.byte	0xd1
 4398 078f 16       		.byte	0x16
 4399 0790 95000000 		.4byte	0x95
 4400 0794 05       		.uleb128 0x5
 4401 0795 03       		.byte	0x3
 4402 0796 00000000 		.4byte	f.2
 4403 079a 19       		.uleb128 0x19
 4404 079b 6200     		.ascii	"b\000"
 4405 079d 01       		.byte	0x1
 4406 079e D2       		.byte	0xd2
 4407 079f 0F       		.byte	0xf
 4408 07a0 95000000 		.4byte	0x95
 4409 07a4 02       		.uleb128 0x2
 4410 07a5 91       		.byte	0x91
 4411 07a6 5C       		.sleb128 -36
 4412 07a7 19       		.uleb128 0x19
 4413 07a8 623200   		.ascii	"b2\000"
 4414 07ab 01       		.byte	0x1
 4415 07ac D3       		.byte	0xd3
 4416 07ad 0F       		.byte	0xf
 4417 07ae 95000000 		.4byte	0x95
 4418 07b2 02       		.uleb128 0x2
 4419 07b3 91       		.byte	0x91
 4420 07b4 58       		.sleb128 -40
 4421 07b5 19       		.uleb128 0x19
 4422 07b6 653200   		.ascii	"e2\000"
 4423 07b9 01       		.byte	0x1
 4424 07ba D5       		.byte	0xd5
 4425 07bb 0F       		.byte	0xf
 4426 07bc 95000000 		.4byte	0x95
 4427 07c0 02       		.uleb128 0x2
 4428 07c1 91       		.byte	0x91
 4429 07c2 54       		.sleb128 -44
 4430 07c3 19       		.uleb128 0x19
 4431 07c4 65703200 		.ascii	"ep2\000"
 4432 07c8 01       		.byte	0x1
 4433 07c9 D6       		.byte	0xd6
 4434 07ca 0F       		.byte	0xf
 4435 07cb 95000000 		.4byte	0x95
 4436 07cf 02       		.uleb128 0x2
 4437 07d0 91       		.byte	0x91
 4438 07d1 50       		.sleb128 -48
 4439 07d2 19       		.uleb128 0x19
 4440 07d3 453200   		.ascii	"E2\000"
 4441 07d6 01       		.byte	0x1
 4442 07d7 D7       		.byte	0xd7
 4443 07d8 0F       		.byte	0xf
 4444 07d9 95000000 		.4byte	0x95
ARM GAS  /tmp/cceRHmPh.s 			page 79


 4445 07dd 02       		.uleb128 0x2
 4446 07de 91       		.byte	0x91
 4447 07df 4C       		.sleb128 -52
 4448 07e0 19       		.uleb128 0x19
 4449 07e1 7A3200   		.ascii	"z2\000"
 4450 07e4 01       		.byte	0x1
 4451 07e5 DA       		.byte	0xda
 4452 07e6 0F       		.byte	0xf
 4453 07e7 95000000 		.4byte	0x95
 4454 07eb 02       		.uleb128 0x2
 4455 07ec 91       		.byte	0x91
 4456 07ed 48       		.sleb128 -56
 4457 07ee 19       		.uleb128 0x19
 4458 07ef 723200   		.ascii	"r2\000"
 4459 07f2 01       		.byte	0x1
 4460 07f3 DB       		.byte	0xdb
 4461 07f4 0F       		.byte	0xf
 4462 07f5 95000000 		.4byte	0x95
 4463 07f9 02       		.uleb128 0x2
 4464 07fa 91       		.byte	0x91
 4465 07fb 44       		.sleb128 -60
 4466 07fc 19       		.uleb128 0x19
 4467 07fd 7200     		.ascii	"r\000"
 4468 07ff 01       		.byte	0x1
 4469 0800 DC       		.byte	0xdc
 4470 0801 0F       		.byte	0xf
 4471 0802 95000000 		.4byte	0x95
 4472 0806 02       		.uleb128 0x2
 4473 0807 91       		.byte	0x91
 4474 0808 40       		.sleb128 -64
 4475 0809 19       		.uleb128 0x19
 4476 080a 4600     		.ascii	"F\000"
 4477 080c 01       		.byte	0x1
 4478 080d DD       		.byte	0xdd
 4479 080e 0F       		.byte	0xf
 4480 080f 95000000 		.4byte	0x95
 4481 0813 03       		.uleb128 0x3
 4482 0814 91       		.byte	0x91
 4483 0815 BC7F     		.sleb128 -68
 4484 0817 19       		.uleb128 0x19
 4485 0818 4700     		.ascii	"G\000"
 4486 081a 01       		.byte	0x1
 4487 081b DE       		.byte	0xde
 4488 081c 0F       		.byte	0xf
 4489 081d 95000000 		.4byte	0x95
 4490 0821 03       		.uleb128 0x3
 4491 0822 91       		.byte	0x91
 4492 0823 B87F     		.sleb128 -72
 4493 0825 19       		.uleb128 0x19
 4494 0826 6300     		.ascii	"c\000"
 4495 0828 01       		.byte	0x1
 4496 0829 DF       		.byte	0xdf
 4497 082a 0F       		.byte	0xf
 4498 082b 95000000 		.4byte	0x95
 4499 082f 03       		.uleb128 0x3
 4500 0830 91       		.byte	0x91
 4501 0831 B47F     		.sleb128 -76
ARM GAS  /tmp/cceRHmPh.s 			page 80


 4502 0833 19       		.uleb128 0x19
 4503 0834 7300     		.ascii	"s\000"
 4504 0836 01       		.byte	0x1
 4505 0837 E0       		.byte	0xe0
 4506 0838 0F       		.byte	0xf
 4507 0839 95000000 		.4byte	0x95
 4508 083d 03       		.uleb128 0x3
 4509 083e 91       		.byte	0x91
 4510 083f B07F     		.sleb128 -80
 4511 0841 19       		.uleb128 0x19
 4512 0842 733100   		.ascii	"s1\000"
 4513 0845 01       		.byte	0x1
 4514 0846 E1       		.byte	0xe1
 4515 0847 0F       		.byte	0xf
 4516 0848 95000000 		.4byte	0x95
 4517 084c 03       		.uleb128 0x3
 4518 084d 91       		.byte	0x91
 4519 084e AC7F     		.sleb128 -84
 4520 0850 19       		.uleb128 0x19
 4521 0851 5000     		.ascii	"P\000"
 4522 0853 01       		.byte	0x1
 4523 0854 E2       		.byte	0xe2
 4524 0855 0F       		.byte	0xf
 4525 0856 95000000 		.4byte	0x95
 4526 085a 03       		.uleb128 0x3
 4527 085b 91       		.byte	0x91
 4528 085c A87F     		.sleb128 -88
 4529 085e 19       		.uleb128 0x19
 4530 085f 5100     		.ascii	"Q\000"
 4531 0861 01       		.byte	0x1
 4532 0862 E3       		.byte	0xe3
 4533 0863 0F       		.byte	0xf
 4534 0864 95000000 		.4byte	0x95
 4535 0868 03       		.uleb128 0x3
 4536 0869 91       		.byte	0x91
 4537 086a A47F     		.sleb128 -92
 4538 086c 19       		.uleb128 0x19
 4539 086d 726F00   		.ascii	"ro\000"
 4540 0870 01       		.byte	0x1
 4541 0871 E4       		.byte	0xe4
 4542 0872 0F       		.byte	0xf
 4543 0873 95000000 		.4byte	0x95
 4544 0877 03       		.uleb128 0x3
 4545 0878 91       		.byte	0x91
 4546 0879 A07F     		.sleb128 -96
 4547 087b 19       		.uleb128 0x19
 4548 087c 746D7000 		.ascii	"tmp\000"
 4549 0880 01       		.byte	0x1
 4550 0881 E6       		.byte	0xe6
 4551 0882 0F       		.byte	0xf
 4552 0883 95000000 		.4byte	0x95
 4553 0887 03       		.uleb128 0x3
 4554 0888 91       		.byte	0x91
 4555 0889 9C7F     		.sleb128 -100
 4556 088b 19       		.uleb128 0x19
 4557 088c 5500     		.ascii	"U\000"
 4558 088e 01       		.byte	0x1
ARM GAS  /tmp/cceRHmPh.s 			page 81


 4559 088f E7       		.byte	0xe7
 4560 0890 0F       		.byte	0xf
 4561 0891 95000000 		.4byte	0x95
 4562 0895 03       		.uleb128 0x3
 4563 0896 91       		.byte	0x91
 4564 0897 987F     		.sleb128 -104
 4565 0899 19       		.uleb128 0x19
 4566 089a 5600     		.ascii	"V\000"
 4567 089c 01       		.byte	0x1
 4568 089d E8       		.byte	0xe8
 4569 089e 0F       		.byte	0xf
 4570 089f 95000000 		.4byte	0x95
 4571 08a3 03       		.uleb128 0x3
 4572 08a4 91       		.byte	0x91
 4573 08a5 947F     		.sleb128 -108
 4574 08a7 19       		.uleb128 0x19
 4575 08a8 7A6F00   		.ascii	"zo\000"
 4576 08ab 01       		.byte	0x1
 4577 08ac E9       		.byte	0xe9
 4578 08ad 0F       		.byte	0xf
 4579 08ae 95000000 		.4byte	0x95
 4580 08b2 03       		.uleb128 0x3
 4581 08b3 91       		.byte	0x91
 4582 08b4 907F     		.sleb128 -112
 4583 08b6 00       		.byte	0
 4584 08b7 17       		.uleb128 0x17
 4585 08b8 AB250000 		.4byte	.LASF1579
 4586 08bc 01       		.byte	0x1
 4587 08bd C0       		.byte	0xc0
 4588 08be 06       		.byte	0x6
 4589 08bf 00000000 		.4byte	.LFB63
 4590 08c3 38000000 		.4byte	.LFE63-.LFB63
 4591 08c7 01       		.uleb128 0x1
 4592 08c8 9C       		.byte	0x9c
 4593 08c9 0A090000 		.4byte	0x90a
 4594 08cd 1A       		.uleb128 0x1a
 4595 08ce 36370000 		.4byte	.LASF1547
 4596 08d2 01       		.byte	0x1
 4597 08d3 C0       		.byte	0xc0
 4598 08d4 2C       		.byte	0x2c
 4599 08d5 3F070000 		.4byte	0x73f
 4600 08d9 02       		.uleb128 0x2
 4601 08da 91       		.byte	0x91
 4602 08db 64       		.sleb128 -28
 4603 08dc 18       		.uleb128 0x18
 4604 08dd 64656600 		.ascii	"def\000"
 4605 08e1 01       		.byte	0x1
 4606 08e2 C0       		.byte	0xc0
 4607 08e3 43       		.byte	0x43
 4608 08e4 0A090000 		.4byte	0x90a
 4609 08e8 02       		.uleb128 0x2
 4610 08e9 91       		.byte	0x91
 4611 08ea 60       		.sleb128 -32
 4612 08eb 18       		.uleb128 0x18
 4613 08ec 6E656400 		.ascii	"ned\000"
 4614 08f0 01       		.byte	0x1
 4615 08f1 C0       		.byte	0xc0
ARM GAS  /tmp/cceRHmPh.s 			page 82


 4616 08f2 5A       		.byte	0x5a
 4617 08f3 10090000 		.4byte	0x910
 4618 08f7 02       		.uleb128 0x2
 4619 08f8 91       		.byte	0x91
 4620 08f9 5C       		.sleb128 -36
 4621 08fa 19       		.uleb128 0x19
 4622 08fb 656E7500 		.ascii	"enu\000"
 4623 08ff 01       		.byte	0x1
 4624 0900 C2       		.byte	0xc2
 4625 0901 14       		.byte	0x14
 4626 0902 5D010000 		.4byte	0x15d
 4627 0906 02       		.uleb128 0x2
 4628 0907 91       		.byte	0x91
 4629 0908 6C       		.sleb128 -20
 4630 0909 00       		.byte	0
 4631 090a 14       		.uleb128 0x14
 4632 090b 04       		.byte	0x4
 4633 090c CE010000 		.4byte	0x1ce
 4634 0910 14       		.uleb128 0x14
 4635 0911 04       		.byte	0x4
 4636 0912 2E010000 		.4byte	0x12e
 4637 0916 17       		.uleb128 0x17
 4638 0917 9C3C0000 		.4byte	.LASF1580
 4639 091b 01       		.byte	0x1
 4640 091c A4       		.byte	0xa4
 4641 091d 06       		.byte	0x6
 4642 091e 00000000 		.4byte	.LFB62
 4643 0922 62020000 		.4byte	.LFE62-.LFB62
 4644 0926 01       		.uleb128 0x1
 4645 0927 9C       		.byte	0x9c
 4646 0928 8D090000 		.4byte	0x98d
 4647 092c 1A       		.uleb128 0x1a
 4648 092d 36370000 		.4byte	.LASF1547
 4649 0931 01       		.byte	0x1
 4650 0932 A4       		.byte	0xa4
 4651 0933 2C       		.byte	0x2c
 4652 0934 3F070000 		.4byte	0x73f
 4653 0938 03       		.uleb128 0x3
 4654 0939 91       		.byte	0x91
 4655 093a F47E     		.sleb128 -140
 4656 093c 18       		.uleb128 0x18
 4657 093d 64656600 		.ascii	"def\000"
 4658 0941 01       		.byte	0x1
 4659 0942 A4       		.byte	0xa4
 4660 0943 43       		.byte	0x43
 4661 0944 0A090000 		.4byte	0x90a
 4662 0948 03       		.uleb128 0x3
 4663 0949 91       		.byte	0x91
 4664 094a F07E     		.sleb128 -144
 4665 094c 18       		.uleb128 0x18
 4666 094d 656E7500 		.ascii	"enu\000"
 4667 0951 01       		.byte	0x1
 4668 0952 A4       		.byte	0xa4
 4669 0953 5A       		.byte	0x5a
 4670 0954 8D090000 		.4byte	0x98d
 4671 0958 03       		.uleb128 0x3
 4672 0959 91       		.byte	0x91
ARM GAS  /tmp/cceRHmPh.s 			page 83


 4673 095a EC7E     		.sleb128 -148
 4674 095c 0B       		.uleb128 0xb
 4675 095d A6CB0000 		.4byte	.LASF1581
 4676 0961 01       		.byte	0x1
 4677 0962 A7       		.byte	0xa7
 4678 0963 15       		.byte	0x15
 4679 0964 20020000 		.4byte	0x220
 4680 0968 03       		.uleb128 0x3
 4681 0969 91       		.byte	0x91
 4682 096a A07F     		.sleb128 -96
 4683 096c 0B       		.uleb128 0xb
 4684 096d F5740000 		.4byte	.LASF1582
 4685 0971 01       		.byte	0x1
 4686 0972 B1       		.byte	0xb1
 4687 0973 14       		.byte	0x14
 4688 0974 5D010000 		.4byte	0x15d
 4689 0978 03       		.uleb128 0x3
 4690 0979 91       		.byte	0x91
 4691 097a 947F     		.sleb128 -108
 4692 097c 0B       		.uleb128 0xb
 4693 097d F7EC0000 		.4byte	.LASF1583
 4694 0981 01       		.byte	0x1
 4695 0982 B7       		.byte	0xb7
 4696 0983 15       		.byte	0x15
 4697 0984 39020000 		.4byte	0x239
 4698 0988 03       		.uleb128 0x3
 4699 0989 91       		.byte	0x91
 4700 098a F87E     		.sleb128 -136
 4701 098c 00       		.byte	0
 4702 098d 14       		.uleb128 0x14
 4703 098e 04       		.byte	0x4
 4704 098f 5D010000 		.4byte	0x15d
 4705 0993 17       		.uleb128 0x17
 4706 0994 97580000 		.4byte	.LASF1584
 4707 0998 01       		.byte	0x1
 4708 0999 9D       		.byte	0x9d
 4709 099a 06       		.byte	0x6
 4710 099b 00000000 		.4byte	.LFB61
 4711 099f 38000000 		.4byte	.LFE61-.LFB61
 4712 09a3 01       		.uleb128 0x1
 4713 09a4 9C       		.byte	0x9c
 4714 09a5 E6090000 		.4byte	0x9e6
 4715 09a9 1A       		.uleb128 0x1a
 4716 09aa 36370000 		.4byte	.LASF1547
 4717 09ae 01       		.byte	0x1
 4718 09af 9D       		.byte	0x9d
 4719 09b0 2D       		.byte	0x2d
 4720 09b1 3F070000 		.4byte	0x73f
 4721 09b5 02       		.uleb128 0x2
 4722 09b6 91       		.byte	0x91
 4723 09b7 64       		.sleb128 -28
 4724 09b8 18       		.uleb128 0x18
 4725 09b9 64656600 		.ascii	"def\000"
 4726 09bd 01       		.byte	0x1
 4727 09be 9D       		.byte	0x9d
 4728 09bf 44       		.byte	0x44
 4729 09c0 0A090000 		.4byte	0x90a
ARM GAS  /tmp/cceRHmPh.s 			page 84


 4730 09c4 02       		.uleb128 0x2
 4731 09c5 91       		.byte	0x91
 4732 09c6 60       		.sleb128 -32
 4733 09c7 18       		.uleb128 0x18
 4734 09c8 6E656400 		.ascii	"ned\000"
 4735 09cc 01       		.byte	0x1
 4736 09cd 9D       		.byte	0x9d
 4737 09ce 5B       		.byte	0x5b
 4738 09cf 10090000 		.4byte	0x910
 4739 09d3 02       		.uleb128 0x2
 4740 09d4 91       		.byte	0x91
 4741 09d5 5C       		.sleb128 -36
 4742 09d6 19       		.uleb128 0x19
 4743 09d7 656E7500 		.ascii	"enu\000"
 4744 09db 01       		.byte	0x1
 4745 09dc 9F       		.byte	0x9f
 4746 09dd 14       		.byte	0x14
 4747 09de 5D010000 		.4byte	0x15d
 4748 09e2 02       		.uleb128 0x2
 4749 09e3 91       		.byte	0x91
 4750 09e4 6C       		.sleb128 -20
 4751 09e5 00       		.byte	0
 4752 09e6 17       		.uleb128 0x17
 4753 09e7 DB490000 		.4byte	.LASF1585
 4754 09eb 01       		.byte	0x1
 4755 09ec 81       		.byte	0x81
 4756 09ed 06       		.byte	0x6
 4757 09ee 00000000 		.4byte	.LFB60
 4758 09f2 8C020000 		.4byte	.LFE60-.LFB60
 4759 09f6 01       		.uleb128 0x1
 4760 09f7 9C       		.byte	0x9c
 4761 09f8 5D0A0000 		.4byte	0xa5d
 4762 09fc 1A       		.uleb128 0x1a
 4763 09fd 36370000 		.4byte	.LASF1547
 4764 0a01 01       		.byte	0x1
 4765 0a02 81       		.byte	0x81
 4766 0a03 2D       		.byte	0x2d
 4767 0a04 3F070000 		.4byte	0x73f
 4768 0a08 03       		.uleb128 0x3
 4769 0a09 91       		.byte	0x91
 4770 0a0a F47E     		.sleb128 -140
 4771 0a0c 18       		.uleb128 0x18
 4772 0a0d 64656600 		.ascii	"def\000"
 4773 0a11 01       		.byte	0x1
 4774 0a12 81       		.byte	0x81
 4775 0a13 44       		.byte	0x44
 4776 0a14 0A090000 		.4byte	0x90a
 4777 0a18 03       		.uleb128 0x3
 4778 0a19 91       		.byte	0x91
 4779 0a1a F07E     		.sleb128 -144
 4780 0a1c 18       		.uleb128 0x18
 4781 0a1d 656E7500 		.ascii	"enu\000"
 4782 0a21 01       		.byte	0x1
 4783 0a22 81       		.byte	0x81
 4784 0a23 5B       		.byte	0x5b
 4785 0a24 8D090000 		.4byte	0x98d
 4786 0a28 03       		.uleb128 0x3
ARM GAS  /tmp/cceRHmPh.s 			page 85


 4787 0a29 91       		.byte	0x91
 4788 0a2a EC7E     		.sleb128 -148
 4789 0a2c 0B       		.uleb128 0xb
 4790 0a2d A6CB0000 		.4byte	.LASF1581
 4791 0a31 01       		.byte	0x1
 4792 0a32 84       		.byte	0x84
 4793 0a33 15       		.byte	0x15
 4794 0a34 20020000 		.4byte	0x220
 4795 0a38 03       		.uleb128 0x3
 4796 0a39 91       		.byte	0x91
 4797 0a3a A07F     		.sleb128 -96
 4798 0a3c 0B       		.uleb128 0xb
 4799 0a3d F5740000 		.4byte	.LASF1582
 4800 0a41 01       		.byte	0x1
 4801 0a42 8E       		.byte	0x8e
 4802 0a43 14       		.byte	0x14
 4803 0a44 5D010000 		.4byte	0x15d
 4804 0a48 03       		.uleb128 0x3
 4805 0a49 91       		.byte	0x91
 4806 0a4a 947F     		.sleb128 -108
 4807 0a4c 0B       		.uleb128 0xb
 4808 0a4d F7EC0000 		.4byte	.LASF1583
 4809 0a51 01       		.byte	0x1
 4810 0a52 94       		.byte	0x94
 4811 0a53 15       		.byte	0x15
 4812 0a54 39020000 		.4byte	0x239
 4813 0a58 03       		.uleb128 0x3
 4814 0a59 91       		.byte	0x91
 4815 0a5a F87E     		.sleb128 -136
 4816 0a5c 00       		.byte	0
 4817 0a5d 17       		.uleb128 0x17
 4818 0a5e 20C40000 		.4byte	.LASF1586
 4819 0a62 01       		.byte	0x1
 4820 0a63 77       		.byte	0x77
 4821 0a64 06       		.byte	0x6
 4822 0a65 00000000 		.4byte	.LFB59
 4823 0a69 28000000 		.4byte	.LFE59-.LFB59
 4824 0a6d 01       		.uleb128 0x1
 4825 0a6e 9C       		.byte	0x9c
 4826 0a6f B00A0000 		.4byte	0xab0
 4827 0a73 18       		.uleb128 0x18
 4828 0a74 6E656400 		.ascii	"ned\000"
 4829 0a78 01       		.byte	0x1
 4830 0a79 77       		.byte	0x77
 4831 0a7a 2B       		.byte	0x2b
 4832 0a7b 10090000 		.4byte	0x910
 4833 0a7f 02       		.uleb128 0x2
 4834 0a80 91       		.byte	0x91
 4835 0a81 64       		.sleb128 -28
 4836 0a82 18       		.uleb128 0x18
 4837 0a83 64656600 		.ascii	"def\000"
 4838 0a87 01       		.byte	0x1
 4839 0a88 77       		.byte	0x77
 4840 0a89 41       		.byte	0x41
 4841 0a8a 0A090000 		.4byte	0x90a
 4842 0a8e 02       		.uleb128 0x2
 4843 0a8f 91       		.byte	0x91
ARM GAS  /tmp/cceRHmPh.s 			page 86


 4844 0a90 60       		.sleb128 -32
 4845 0a91 18       		.uleb128 0x18
 4846 0a92 6C6C6100 		.ascii	"lla\000"
 4847 0a96 01       		.byte	0x1
 4848 0a97 77       		.byte	0x77
 4849 0a98 58       		.byte	0x58
 4850 0a99 1C040000 		.4byte	0x41c
 4851 0a9d 02       		.uleb128 0x2
 4852 0a9e 91       		.byte	0x91
 4853 0a9f 5C       		.sleb128 -36
 4854 0aa0 0B       		.uleb128 0xb
 4855 0aa1 36370000 		.4byte	.LASF1547
 4856 0aa5 01       		.byte	0x1
 4857 0aa6 79       		.byte	0x79
 4858 0aa7 15       		.byte	0x15
 4859 0aa8 CA000000 		.4byte	0xca
 4860 0aac 02       		.uleb128 0x2
 4861 0aad 91       		.byte	0x91
 4862 0aae 6C       		.sleb128 -20
 4863 0aaf 00       		.byte	0
 4864 0ab0 17       		.uleb128 0x17
 4865 0ab1 AC850000 		.4byte	.LASF1587
 4866 0ab5 01       		.byte	0x1
 4867 0ab6 70       		.byte	0x70
 4868 0ab7 06       		.byte	0x6
 4869 0ab8 00000000 		.4byte	.LFB58
 4870 0abc 28000000 		.4byte	.LFE58-.LFB58
 4871 0ac0 01       		.uleb128 0x1
 4872 0ac1 9C       		.byte	0x9c
 4873 0ac2 030B0000 		.4byte	0xb03
 4874 0ac6 18       		.uleb128 0x18
 4875 0ac7 656E7500 		.ascii	"enu\000"
 4876 0acb 01       		.byte	0x1
 4877 0acc 70       		.byte	0x70
 4878 0acd 2B       		.byte	0x2b
 4879 0ace 8D090000 		.4byte	0x98d
 4880 0ad2 02       		.uleb128 0x2
 4881 0ad3 91       		.byte	0x91
 4882 0ad4 64       		.sleb128 -28
 4883 0ad5 18       		.uleb128 0x18
 4884 0ad6 64656600 		.ascii	"def\000"
 4885 0ada 01       		.byte	0x1
 4886 0adb 70       		.byte	0x70
 4887 0adc 41       		.byte	0x41
 4888 0add 0A090000 		.4byte	0x90a
 4889 0ae1 02       		.uleb128 0x2
 4890 0ae2 91       		.byte	0x91
 4891 0ae3 60       		.sleb128 -32
 4892 0ae4 18       		.uleb128 0x18
 4893 0ae5 6C6C6100 		.ascii	"lla\000"
 4894 0ae9 01       		.byte	0x1
 4895 0aea 70       		.byte	0x70
 4896 0aeb 58       		.byte	0x58
 4897 0aec 1C040000 		.4byte	0x41c
 4898 0af0 02       		.uleb128 0x2
 4899 0af1 91       		.byte	0x91
 4900 0af2 5C       		.sleb128 -36
ARM GAS  /tmp/cceRHmPh.s 			page 87


 4901 0af3 0B       		.uleb128 0xb
 4902 0af4 36370000 		.4byte	.LASF1547
 4903 0af8 01       		.byte	0x1
 4904 0af9 72       		.byte	0x72
 4905 0afa 15       		.byte	0x15
 4906 0afb CA000000 		.4byte	0xca
 4907 0aff 02       		.uleb128 0x2
 4908 0b00 91       		.byte	0x91
 4909 0b01 6C       		.sleb128 -20
 4910 0b02 00       		.byte	0
 4911 0b03 17       		.uleb128 0x17
 4912 0b04 724F0000 		.4byte	.LASF1588
 4913 0b08 01       		.byte	0x1
 4914 0b09 69       		.byte	0x69
 4915 0b0a 06       		.byte	0x6
 4916 0b0b 00000000 		.4byte	.LFB57
 4917 0b0f 38000000 		.4byte	.LFE57-.LFB57
 4918 0b13 01       		.uleb128 0x1
 4919 0b14 9C       		.byte	0x9c
 4920 0b15 560B0000 		.4byte	0xb56
 4921 0b19 18       		.uleb128 0x18
 4922 0b1a 6E656400 		.ascii	"ned\000"
 4923 0b1e 01       		.byte	0x1
 4924 0b1f 69       		.byte	0x69
 4925 0b20 2B       		.byte	0x2b
 4926 0b21 10090000 		.4byte	0x910
 4927 0b25 02       		.uleb128 0x2
 4928 0b26 91       		.byte	0x91
 4929 0b27 64       		.sleb128 -28
 4930 0b28 18       		.uleb128 0x18
 4931 0b29 64656600 		.ascii	"def\000"
 4932 0b2d 01       		.byte	0x1
 4933 0b2e 69       		.byte	0x69
 4934 0b2f 41       		.byte	0x41
 4935 0b30 0A090000 		.4byte	0x90a
 4936 0b34 02       		.uleb128 0x2
 4937 0b35 91       		.byte	0x91
 4938 0b36 60       		.sleb128 -32
 4939 0b37 1A       		.uleb128 0x1a
 4940 0b38 36370000 		.4byte	.LASF1547
 4941 0b3c 01       		.byte	0x1
 4942 0b3d 69       		.byte	0x69
 4943 0b3e 59       		.byte	0x59
 4944 0b3f 3F070000 		.4byte	0x73f
 4945 0b43 02       		.uleb128 0x2
 4946 0b44 91       		.byte	0x91
 4947 0b45 5C       		.sleb128 -36
 4948 0b46 19       		.uleb128 0x19
 4949 0b47 656E7500 		.ascii	"enu\000"
 4950 0b4b 01       		.byte	0x1
 4951 0b4c 6B       		.byte	0x6b
 4952 0b4d 14       		.byte	0x14
 4953 0b4e 5D010000 		.4byte	0x15d
 4954 0b52 02       		.uleb128 0x2
 4955 0b53 91       		.byte	0x91
 4956 0b54 6C       		.sleb128 -20
 4957 0b55 00       		.byte	0
ARM GAS  /tmp/cceRHmPh.s 			page 88


 4958 0b56 1B       		.uleb128 0x1b
 4959 0b57 C4F40000 		.4byte	.LASF1589
 4960 0b5b 01       		.byte	0x1
 4961 0b5c 64       		.byte	0x64
 4962 0b5d 06       		.byte	0x6
 4963 0b5e 00000000 		.4byte	.LFB56
 4964 0b62 C8000000 		.4byte	.LFE56-.LFB56
 4965 0b66 01       		.uleb128 0x1
 4966 0b67 9C       		.byte	0x9c
 4967 0b68 9A0B0000 		.4byte	0xb9a
 4968 0b6c 18       		.uleb128 0x18
 4969 0b6d 656E7500 		.ascii	"enu\000"
 4970 0b71 01       		.byte	0x1
 4971 0b72 64       		.byte	0x64
 4972 0b73 2B       		.byte	0x2b
 4973 0b74 8D090000 		.4byte	0x98d
 4974 0b78 02       		.uleb128 0x2
 4975 0b79 91       		.byte	0x91
 4976 0b7a 7C       		.sleb128 -4
 4977 0b7b 18       		.uleb128 0x18
 4978 0b7c 64656600 		.ascii	"def\000"
 4979 0b80 01       		.byte	0x1
 4980 0b81 64       		.byte	0x64
 4981 0b82 41       		.byte	0x41
 4982 0b83 0A090000 		.4byte	0x90a
 4983 0b87 02       		.uleb128 0x2
 4984 0b88 91       		.byte	0x91
 4985 0b89 78       		.sleb128 -8
 4986 0b8a 1A       		.uleb128 0x1a
 4987 0b8b 36370000 		.4byte	.LASF1547
 4988 0b8f 01       		.byte	0x1
 4989 0b90 64       		.byte	0x64
 4990 0b91 59       		.byte	0x59
 4991 0b92 3F070000 		.4byte	0x73f
 4992 0b96 02       		.uleb128 0x2
 4993 0b97 91       		.byte	0x91
 4994 0b98 74       		.sleb128 -12
 4995 0b99 00       		.byte	0
 4996 0b9a 17       		.uleb128 0x17
 4997 0b9b 974A0000 		.4byte	.LASF1590
 4998 0b9f 01       		.byte	0x1
 4999 0ba0 5C       		.byte	0x5c
 5000 0ba1 06       		.byte	0x6
 5001 0ba2 00000000 		.4byte	.LFB55
 5002 0ba6 38000000 		.4byte	.LFE55-.LFB55
 5003 0baa 01       		.uleb128 0x1
 5004 0bab 9C       		.byte	0x9c
 5005 0bac ED0B0000 		.4byte	0xbed
 5006 0bb0 18       		.uleb128 0x18
 5007 0bb1 6E656400 		.ascii	"ned\000"
 5008 0bb5 01       		.byte	0x1
 5009 0bb6 5C       		.byte	0x5c
 5010 0bb7 2C       		.byte	0x2c
 5011 0bb8 10090000 		.4byte	0x910
 5012 0bbc 02       		.uleb128 0x2
 5013 0bbd 91       		.byte	0x91
 5014 0bbe 64       		.sleb128 -28
ARM GAS  /tmp/cceRHmPh.s 			page 89


 5015 0bbf 18       		.uleb128 0x18
 5016 0bc0 64656600 		.ascii	"def\000"
 5017 0bc4 01       		.byte	0x1
 5018 0bc5 5C       		.byte	0x5c
 5019 0bc6 42       		.byte	0x42
 5020 0bc7 0A090000 		.4byte	0x90a
 5021 0bcb 02       		.uleb128 0x2
 5022 0bcc 91       		.byte	0x91
 5023 0bcd 60       		.sleb128 -32
 5024 0bce 1A       		.uleb128 0x1a
 5025 0bcf 36370000 		.4byte	.LASF1547
 5026 0bd3 01       		.byte	0x1
 5027 0bd4 5C       		.byte	0x5c
 5028 0bd5 5A       		.byte	0x5a
 5029 0bd6 3F070000 		.4byte	0x73f
 5030 0bda 02       		.uleb128 0x2
 5031 0bdb 91       		.byte	0x91
 5032 0bdc 5C       		.sleb128 -36
 5033 0bdd 19       		.uleb128 0x19
 5034 0bde 656E7500 		.ascii	"enu\000"
 5035 0be2 01       		.byte	0x1
 5036 0be3 5E       		.byte	0x5e
 5037 0be4 14       		.byte	0x14
 5038 0be5 5D010000 		.4byte	0x15d
 5039 0be9 02       		.uleb128 0x2
 5040 0bea 91       		.byte	0x91
 5041 0beb 6C       		.sleb128 -20
 5042 0bec 00       		.byte	0
 5043 0bed 1B       		.uleb128 0x1b
 5044 0bee 9A070000 		.4byte	.LASF1591
 5045 0bf2 01       		.byte	0x1
 5046 0bf3 55       		.byte	0x55
 5047 0bf4 06       		.byte	0x6
 5048 0bf5 00000000 		.4byte	.LFB54
 5049 0bf9 F2000000 		.4byte	.LFE54-.LFB54
 5050 0bfd 01       		.uleb128 0x1
 5051 0bfe 9C       		.byte	0x9c
 5052 0bff 400C0000 		.4byte	0xc40
 5053 0c03 18       		.uleb128 0x18
 5054 0c04 656E7500 		.ascii	"enu\000"
 5055 0c08 01       		.byte	0x1
 5056 0c09 55       		.byte	0x55
 5057 0c0a 2C       		.byte	0x2c
 5058 0c0b 8D090000 		.4byte	0x98d
 5059 0c0f 02       		.uleb128 0x2
 5060 0c10 91       		.byte	0x91
 5061 0c11 6C       		.sleb128 -20
 5062 0c12 18       		.uleb128 0x18
 5063 0c13 64656600 		.ascii	"def\000"
 5064 0c17 01       		.byte	0x1
 5065 0c18 55       		.byte	0x55
 5066 0c19 42       		.byte	0x42
 5067 0c1a 0A090000 		.4byte	0x90a
 5068 0c1e 02       		.uleb128 0x2
 5069 0c1f 91       		.byte	0x91
 5070 0c20 68       		.sleb128 -24
 5071 0c21 1A       		.uleb128 0x1a
ARM GAS  /tmp/cceRHmPh.s 			page 90


 5072 0c22 36370000 		.4byte	.LASF1547
 5073 0c26 01       		.byte	0x1
 5074 0c27 55       		.byte	0x55
 5075 0c28 5A       		.byte	0x5a
 5076 0c29 3F070000 		.4byte	0x73f
 5077 0c2d 02       		.uleb128 0x2
 5078 0c2e 91       		.byte	0x91
 5079 0c2f 64       		.sleb128 -28
 5080 0c30 0B       		.uleb128 0xb
 5081 0c31 E7D50000 		.4byte	.LASF1592
 5082 0c35 01       		.byte	0x1
 5083 0c36 57       		.byte	0x57
 5084 0c37 15       		.byte	0x15
 5085 0c38 CA000000 		.4byte	0xca
 5086 0c3c 02       		.uleb128 0x2
 5087 0c3d 91       		.byte	0x91
 5088 0c3e 74       		.sleb128 -12
 5089 0c3f 00       		.byte	0
 5090 0c40 17       		.uleb128 0x17
 5091 0c41 4FE20000 		.4byte	.LASF1593
 5092 0c45 01       		.byte	0x1
 5093 0c46 3C       		.byte	0x3c
 5094 0c47 06       		.byte	0x6
 5095 0c48 00000000 		.4byte	.LFB53
 5096 0c4c DE000000 		.4byte	.LFE53-.LFB53
 5097 0c50 01       		.uleb128 0x1
 5098 0c51 9C       		.byte	0x9c
 5099 0c52 B10C0000 		.4byte	0xcb1
 5100 0c56 18       		.uleb128 0x18
 5101 0c57 64656600 		.ascii	"def\000"
 5102 0c5b 01       		.byte	0x1
 5103 0c5c 3C       		.byte	0x3c
 5104 0c5d 2A       		.byte	0x2a
 5105 0c5e 0A090000 		.4byte	0x90a
 5106 0c62 02       		.uleb128 0x2
 5107 0c63 91       		.byte	0x91
 5108 0c64 64       		.sleb128 -28
 5109 0c65 18       		.uleb128 0x18
 5110 0c66 6C6C6100 		.ascii	"lla\000"
 5111 0c6a 01       		.byte	0x1
 5112 0c6b 3C       		.byte	0x3c
 5113 0c6c 41       		.byte	0x41
 5114 0c6d 1C040000 		.4byte	0x41c
 5115 0c71 02       		.uleb128 0x2
 5116 0c72 91       		.byte	0x91
 5117 0c73 60       		.sleb128 -32
 5118 0c74 0B       		.uleb128 0xb
 5119 0c75 A2E80000 		.4byte	.LASF1573
 5120 0c79 01       		.byte	0x1
 5121 0c7a 44       		.byte	0x44
 5122 0c7b 0F       		.byte	0xf
 5123 0c7c 95000000 		.4byte	0x95
 5124 0c80 02       		.uleb128 0x2
 5125 0c81 91       		.byte	0x91
 5126 0c82 74       		.sleb128 -12
 5127 0c83 0B       		.uleb128 0xb
 5128 0c84 D15D0000 		.4byte	.LASF1574
ARM GAS  /tmp/cceRHmPh.s 			page 91


 5129 0c88 01       		.byte	0x1
 5130 0c89 45       		.byte	0x45
 5131 0c8a 0F       		.byte	0xf
 5132 0c8b 95000000 		.4byte	0x95
 5133 0c8f 02       		.uleb128 0x2
 5134 0c90 91       		.byte	0x91
 5135 0c91 70       		.sleb128 -16
 5136 0c92 0B       		.uleb128 0xb
 5137 0c93 64170000 		.4byte	.LASF1575
 5138 0c97 01       		.byte	0x1
 5139 0c98 46       		.byte	0x46
 5140 0c99 0F       		.byte	0xf
 5141 0c9a 95000000 		.4byte	0x95
 5142 0c9e 02       		.uleb128 0x2
 5143 0c9f 91       		.byte	0x91
 5144 0ca0 6C       		.sleb128 -20
 5145 0ca1 0B       		.uleb128 0xb
 5146 0ca2 07A20000 		.4byte	.LASF1576
 5147 0ca6 01       		.byte	0x1
 5148 0ca7 47       		.byte	0x47
 5149 0ca8 0F       		.byte	0xf
 5150 0ca9 95000000 		.4byte	0x95
 5151 0cad 02       		.uleb128 0x2
 5152 0cae 91       		.byte	0x91
 5153 0caf 68       		.sleb128 -24
 5154 0cb0 00       		.byte	0
 5155 0cb1 1C       		.uleb128 0x1c
 5156 0cb2 3D820000 		.4byte	.LASF1597
 5157 0cb6 01       		.byte	0x1
 5158 0cb7 24       		.byte	0x24
 5159 0cb8 06       		.byte	0x6
 5160 0cb9 00000000 		.4byte	.LFB52
 5161 0cbd DE000000 		.4byte	.LFE52-.LFB52
 5162 0cc1 01       		.uleb128 0x1
 5163 0cc2 9C       		.byte	0x9c
 5164 0cc3 18       		.uleb128 0x18
 5165 0cc4 64656600 		.ascii	"def\000"
 5166 0cc8 01       		.byte	0x1
 5167 0cc9 24       		.byte	0x24
 5168 0cca 2B       		.byte	0x2b
 5169 0ccb 0A090000 		.4byte	0x90a
 5170 0ccf 02       		.uleb128 0x2
 5171 0cd0 91       		.byte	0x91
 5172 0cd1 64       		.sleb128 -28
 5173 0cd2 1A       		.uleb128 0x1a
 5174 0cd3 36370000 		.4byte	.LASF1547
 5175 0cd7 01       		.byte	0x1
 5176 0cd8 24       		.byte	0x24
 5177 0cd9 43       		.byte	0x43
 5178 0cda 3F070000 		.4byte	0x73f
 5179 0cde 02       		.uleb128 0x2
 5180 0cdf 91       		.byte	0x91
 5181 0ce0 60       		.sleb128 -32
 5182 0ce1 0B       		.uleb128 0xb
 5183 0ce2 A2E80000 		.4byte	.LASF1573
 5184 0ce6 01       		.byte	0x1
 5185 0ce7 2B       		.byte	0x2b
ARM GAS  /tmp/cceRHmPh.s 			page 92


 5186 0ce8 0F       		.byte	0xf
 5187 0ce9 95000000 		.4byte	0x95
 5188 0ced 02       		.uleb128 0x2
 5189 0cee 91       		.byte	0x91
 5190 0cef 74       		.sleb128 -12
 5191 0cf0 0B       		.uleb128 0xb
 5192 0cf1 D15D0000 		.4byte	.LASF1574
 5193 0cf5 01       		.byte	0x1
 5194 0cf6 2C       		.byte	0x2c
 5195 0cf7 0F       		.byte	0xf
 5196 0cf8 95000000 		.4byte	0x95
 5197 0cfc 02       		.uleb128 0x2
 5198 0cfd 91       		.byte	0x91
 5199 0cfe 70       		.sleb128 -16
 5200 0cff 0B       		.uleb128 0xb
 5201 0d00 64170000 		.4byte	.LASF1575
 5202 0d04 01       		.byte	0x1
 5203 0d05 2D       		.byte	0x2d
 5204 0d06 0F       		.byte	0xf
 5205 0d07 95000000 		.4byte	0x95
 5206 0d0b 02       		.uleb128 0x2
 5207 0d0c 91       		.byte	0x91
 5208 0d0d 6C       		.sleb128 -20
 5209 0d0e 0B       		.uleb128 0xb
 5210 0d0f 07A20000 		.4byte	.LASF1576
 5211 0d13 01       		.byte	0x1
 5212 0d14 2E       		.byte	0x2e
 5213 0d15 0F       		.byte	0xf
 5214 0d16 95000000 		.4byte	0x95
 5215 0d1a 02       		.uleb128 0x2
 5216 0d1b 91       		.byte	0x91
 5217 0d1c 68       		.sleb128 -24
 5218 0d1d 00       		.byte	0
 5219 0d1e 00       		.byte	0
 5220              		.section	.debug_abbrev,"",%progbits
 5221              	.Ldebug_abbrev0:
 5222 0000 01       		.uleb128 0x1
 5223 0001 11       		.uleb128 0x11
 5224 0002 01       		.byte	0x1
 5225 0003 25       		.uleb128 0x25
 5226 0004 0E       		.uleb128 0xe
 5227 0005 13       		.uleb128 0x13
 5228 0006 0B       		.uleb128 0xb
 5229 0007 03       		.uleb128 0x3
 5230 0008 0E       		.uleb128 0xe
 5231 0009 1B       		.uleb128 0x1b
 5232 000a 0E       		.uleb128 0xe
 5233 000b 55       		.uleb128 0x55
 5234 000c 17       		.uleb128 0x17
 5235 000d 11       		.uleb128 0x11
 5236 000e 01       		.uleb128 0x1
 5237 000f 10       		.uleb128 0x10
 5238 0010 17       		.uleb128 0x17
 5239 0011 9942     		.uleb128 0x2119
 5240 0013 17       		.uleb128 0x17
 5241 0014 00       		.byte	0
 5242 0015 00       		.byte	0
ARM GAS  /tmp/cceRHmPh.s 			page 93


 5243 0016 02       		.uleb128 0x2
 5244 0017 24       		.uleb128 0x24
 5245 0018 00       		.byte	0
 5246 0019 0B       		.uleb128 0xb
 5247 001a 0B       		.uleb128 0xb
 5248 001b 3E       		.uleb128 0x3e
 5249 001c 0B       		.uleb128 0xb
 5250 001d 03       		.uleb128 0x3
 5251 001e 08       		.uleb128 0x8
 5252 001f 00       		.byte	0
 5253 0020 00       		.byte	0
 5254 0021 03       		.uleb128 0x3
 5255 0022 24       		.uleb128 0x24
 5256 0023 00       		.byte	0
 5257 0024 0B       		.uleb128 0xb
 5258 0025 0B       		.uleb128 0xb
 5259 0026 3E       		.uleb128 0x3e
 5260 0027 0B       		.uleb128 0xb
 5261 0028 03       		.uleb128 0x3
 5262 0029 0E       		.uleb128 0xe
 5263 002a 00       		.byte	0
 5264 002b 00       		.byte	0
 5265 002c 04       		.uleb128 0x4
 5266 002d 16       		.uleb128 0x16
 5267 002e 00       		.byte	0
 5268 002f 03       		.uleb128 0x3
 5269 0030 0E       		.uleb128 0xe
 5270 0031 3A       		.uleb128 0x3a
 5271 0032 0B       		.uleb128 0xb
 5272 0033 3B       		.uleb128 0x3b
 5273 0034 0B       		.uleb128 0xb
 5274 0035 39       		.uleb128 0x39
 5275 0036 0B       		.uleb128 0xb
 5276 0037 49       		.uleb128 0x49
 5277 0038 13       		.uleb128 0x13
 5278 0039 00       		.byte	0
 5279 003a 00       		.byte	0
 5280 003b 05       		.uleb128 0x5
 5281 003c 26       		.uleb128 0x26
 5282 003d 00       		.byte	0
 5283 003e 49       		.uleb128 0x49
 5284 003f 13       		.uleb128 0x13
 5285 0040 00       		.byte	0
 5286 0041 00       		.byte	0
 5287 0042 06       		.uleb128 0x6
 5288 0043 01       		.uleb128 0x1
 5289 0044 01       		.byte	0x1
 5290 0045 49       		.uleb128 0x49
 5291 0046 13       		.uleb128 0x13
 5292 0047 01       		.uleb128 0x1
 5293 0048 13       		.uleb128 0x13
 5294 0049 00       		.byte	0
 5295 004a 00       		.byte	0
 5296 004b 07       		.uleb128 0x7
 5297 004c 21       		.uleb128 0x21
 5298 004d 00       		.byte	0
 5299 004e 49       		.uleb128 0x49
ARM GAS  /tmp/cceRHmPh.s 			page 94


 5300 004f 13       		.uleb128 0x13
 5301 0050 2F       		.uleb128 0x2f
 5302 0051 0B       		.uleb128 0xb
 5303 0052 00       		.byte	0
 5304 0053 00       		.byte	0
 5305 0054 08       		.uleb128 0x8
 5306 0055 13       		.uleb128 0x13
 5307 0056 01       		.byte	0x1
 5308 0057 03       		.uleb128 0x3
 5309 0058 0E       		.uleb128 0xe
 5310 0059 0B       		.uleb128 0xb
 5311 005a 0B       		.uleb128 0xb
 5312 005b 3A       		.uleb128 0x3a
 5313 005c 0B       		.uleb128 0xb
 5314 005d 3B       		.uleb128 0x3b
 5315 005e 0B       		.uleb128 0xb
 5316 005f 39       		.uleb128 0x39
 5317 0060 0B       		.uleb128 0xb
 5318 0061 01       		.uleb128 0x1
 5319 0062 13       		.uleb128 0x13
 5320 0063 00       		.byte	0
 5321 0064 00       		.byte	0
 5322 0065 09       		.uleb128 0x9
 5323 0066 0D       		.uleb128 0xd
 5324 0067 00       		.byte	0
 5325 0068 03       		.uleb128 0x3
 5326 0069 08       		.uleb128 0x8
 5327 006a 3A       		.uleb128 0x3a
 5328 006b 0B       		.uleb128 0xb
 5329 006c 3B       		.uleb128 0x3b
 5330 006d 0B       		.uleb128 0xb
 5331 006e 39       		.uleb128 0x39
 5332 006f 0B       		.uleb128 0xb
 5333 0070 49       		.uleb128 0x49
 5334 0071 13       		.uleb128 0x13
 5335 0072 38       		.uleb128 0x38
 5336 0073 0B       		.uleb128 0xb
 5337 0074 00       		.byte	0
 5338 0075 00       		.byte	0
 5339 0076 0A       		.uleb128 0xa
 5340 0077 0D       		.uleb128 0xd
 5341 0078 00       		.byte	0
 5342 0079 03       		.uleb128 0x3
 5343 007a 0E       		.uleb128 0xe
 5344 007b 3A       		.uleb128 0x3a
 5345 007c 0B       		.uleb128 0xb
 5346 007d 3B       		.uleb128 0x3b
 5347 007e 0B       		.uleb128 0xb
 5348 007f 39       		.uleb128 0x39
 5349 0080 0B       		.uleb128 0xb
 5350 0081 49       		.uleb128 0x49
 5351 0082 13       		.uleb128 0x13
 5352 0083 38       		.uleb128 0x38
 5353 0084 0B       		.uleb128 0xb
 5354 0085 00       		.byte	0
 5355 0086 00       		.byte	0
 5356 0087 0B       		.uleb128 0xb
ARM GAS  /tmp/cceRHmPh.s 			page 95


 5357 0088 34       		.uleb128 0x34
 5358 0089 00       		.byte	0
 5359 008a 03       		.uleb128 0x3
 5360 008b 0E       		.uleb128 0xe
 5361 008c 3A       		.uleb128 0x3a
 5362 008d 0B       		.uleb128 0xb
 5363 008e 3B       		.uleb128 0x3b
 5364 008f 0B       		.uleb128 0xb
 5365 0090 39       		.uleb128 0x39
 5366 0091 0B       		.uleb128 0xb
 5367 0092 49       		.uleb128 0x49
 5368 0093 13       		.uleb128 0x13
 5369 0094 02       		.uleb128 0x2
 5370 0095 18       		.uleb128 0x18
 5371 0096 00       		.byte	0
 5372 0097 00       		.byte	0
 5373 0098 0C       		.uleb128 0xc
 5374 0099 13       		.uleb128 0x13
 5375 009a 01       		.byte	0x1
 5376 009b 03       		.uleb128 0x3
 5377 009c 0E       		.uleb128 0xe
 5378 009d 0B       		.uleb128 0xb
 5379 009e 0B       		.uleb128 0xb
 5380 009f 3A       		.uleb128 0x3a
 5381 00a0 0B       		.uleb128 0xb
 5382 00a1 3B       		.uleb128 0x3b
 5383 00a2 05       		.uleb128 0x5
 5384 00a3 39       		.uleb128 0x39
 5385 00a4 0B       		.uleb128 0xb
 5386 00a5 01       		.uleb128 0x1
 5387 00a6 13       		.uleb128 0x13
 5388 00a7 00       		.byte	0
 5389 00a8 00       		.byte	0
 5390 00a9 0D       		.uleb128 0xd
 5391 00aa 0D       		.uleb128 0xd
 5392 00ab 00       		.byte	0
 5393 00ac 03       		.uleb128 0x3
 5394 00ad 08       		.uleb128 0x8
 5395 00ae 3A       		.uleb128 0x3a
 5396 00af 0B       		.uleb128 0xb
 5397 00b0 3B       		.uleb128 0x3b
 5398 00b1 05       		.uleb128 0x5
 5399 00b2 39       		.uleb128 0x39
 5400 00b3 0B       		.uleb128 0xb
 5401 00b4 49       		.uleb128 0x49
 5402 00b5 13       		.uleb128 0x13
 5403 00b6 38       		.uleb128 0x38
 5404 00b7 0B       		.uleb128 0xb
 5405 00b8 00       		.byte	0
 5406 00b9 00       		.byte	0
 5407 00ba 0E       		.uleb128 0xe
 5408 00bb 2E       		.uleb128 0x2e
 5409 00bc 01       		.byte	0x1
 5410 00bd 3F       		.uleb128 0x3f
 5411 00be 19       		.uleb128 0x19
 5412 00bf 03       		.uleb128 0x3
 5413 00c0 0E       		.uleb128 0xe
ARM GAS  /tmp/cceRHmPh.s 			page 96


 5414 00c1 3A       		.uleb128 0x3a
 5415 00c2 0B       		.uleb128 0xb
 5416 00c3 3B       		.uleb128 0x3b
 5417 00c4 05       		.uleb128 0x5
 5418 00c5 39       		.uleb128 0x39
 5419 00c6 0B       		.uleb128 0xb
 5420 00c7 27       		.uleb128 0x27
 5421 00c8 19       		.uleb128 0x19
 5422 00c9 11       		.uleb128 0x11
 5423 00ca 01       		.uleb128 0x1
 5424 00cb 12       		.uleb128 0x12
 5425 00cc 06       		.uleb128 0x6
 5426 00cd 40       		.uleb128 0x40
 5427 00ce 18       		.uleb128 0x18
 5428 00cf 9642     		.uleb128 0x2116
 5429 00d1 19       		.uleb128 0x19
 5430 00d2 01       		.uleb128 0x1
 5431 00d3 13       		.uleb128 0x13
 5432 00d4 00       		.byte	0
 5433 00d5 00       		.byte	0
 5434 00d6 0F       		.uleb128 0xf
 5435 00d7 05       		.uleb128 0x5
 5436 00d8 00       		.byte	0
 5437 00d9 03       		.uleb128 0x3
 5438 00da 08       		.uleb128 0x8
 5439 00db 3A       		.uleb128 0x3a
 5440 00dc 0B       		.uleb128 0xb
 5441 00dd 3B       		.uleb128 0x3b
 5442 00de 05       		.uleb128 0x5
 5443 00df 39       		.uleb128 0x39
 5444 00e0 0B       		.uleb128 0xb
 5445 00e1 49       		.uleb128 0x49
 5446 00e2 13       		.uleb128 0x13
 5447 00e3 02       		.uleb128 0x2
 5448 00e4 18       		.uleb128 0x18
 5449 00e5 00       		.byte	0
 5450 00e6 00       		.byte	0
 5451 00e7 10       		.uleb128 0x10
 5452 00e8 34       		.uleb128 0x34
 5453 00e9 00       		.byte	0
 5454 00ea 03       		.uleb128 0x3
 5455 00eb 0E       		.uleb128 0xe
 5456 00ec 3A       		.uleb128 0x3a
 5457 00ed 0B       		.uleb128 0xb
 5458 00ee 3B       		.uleb128 0x3b
 5459 00ef 05       		.uleb128 0x5
 5460 00f0 39       		.uleb128 0x39
 5461 00f1 0B       		.uleb128 0xb
 5462 00f2 49       		.uleb128 0x49
 5463 00f3 13       		.uleb128 0x13
 5464 00f4 02       		.uleb128 0x2
 5465 00f5 18       		.uleb128 0x18
 5466 00f6 00       		.byte	0
 5467 00f7 00       		.byte	0
 5468 00f8 11       		.uleb128 0x11
 5469 00f9 34       		.uleb128 0x34
 5470 00fa 00       		.byte	0
ARM GAS  /tmp/cceRHmPh.s 			page 97


 5471 00fb 03       		.uleb128 0x3
 5472 00fc 08       		.uleb128 0x8
 5473 00fd 3A       		.uleb128 0x3a
 5474 00fe 0B       		.uleb128 0xb
 5475 00ff 3B       		.uleb128 0x3b
 5476 0100 05       		.uleb128 0x5
 5477 0101 39       		.uleb128 0x39
 5478 0102 0B       		.uleb128 0xb
 5479 0103 49       		.uleb128 0x49
 5480 0104 13       		.uleb128 0x13
 5481 0105 02       		.uleb128 0x2
 5482 0106 18       		.uleb128 0x18
 5483 0107 00       		.byte	0
 5484 0108 00       		.byte	0
 5485 0109 12       		.uleb128 0x12
 5486 010a 0B       		.uleb128 0xb
 5487 010b 01       		.byte	0x1
 5488 010c 11       		.uleb128 0x11
 5489 010d 01       		.uleb128 0x1
 5490 010e 12       		.uleb128 0x12
 5491 010f 06       		.uleb128 0x6
 5492 0110 00       		.byte	0
 5493 0111 00       		.byte	0
 5494 0112 13       		.uleb128 0x13
 5495 0113 0B       		.uleb128 0xb
 5496 0114 01       		.byte	0x1
 5497 0115 11       		.uleb128 0x11
 5498 0116 01       		.uleb128 0x1
 5499 0117 12       		.uleb128 0x12
 5500 0118 06       		.uleb128 0x6
 5501 0119 01       		.uleb128 0x1
 5502 011a 13       		.uleb128 0x13
 5503 011b 00       		.byte	0
 5504 011c 00       		.byte	0
 5505 011d 14       		.uleb128 0x14
 5506 011e 0F       		.uleb128 0xf
 5507 011f 00       		.byte	0
 5508 0120 0B       		.uleb128 0xb
 5509 0121 0B       		.uleb128 0xb
 5510 0122 49       		.uleb128 0x49
 5511 0123 13       		.uleb128 0x13
 5512 0124 00       		.byte	0
 5513 0125 00       		.byte	0
 5514 0126 15       		.uleb128 0x15
 5515 0127 2E       		.uleb128 0x2e
 5516 0128 01       		.byte	0x1
 5517 0129 03       		.uleb128 0x3
 5518 012a 0E       		.uleb128 0xe
 5519 012b 3A       		.uleb128 0x3a
 5520 012c 0B       		.uleb128 0xb
 5521 012d 3B       		.uleb128 0x3b
 5522 012e 05       		.uleb128 0x5
 5523 012f 39       		.uleb128 0x39
 5524 0130 0B       		.uleb128 0xb
 5525 0131 27       		.uleb128 0x27
 5526 0132 19       		.uleb128 0x19
 5527 0133 49       		.uleb128 0x49
ARM GAS  /tmp/cceRHmPh.s 			page 98


 5528 0134 13       		.uleb128 0x13
 5529 0135 11       		.uleb128 0x11
 5530 0136 01       		.uleb128 0x1
 5531 0137 12       		.uleb128 0x12
 5532 0138 06       		.uleb128 0x6
 5533 0139 40       		.uleb128 0x40
 5534 013a 18       		.uleb128 0x18
 5535 013b 9642     		.uleb128 0x2116
 5536 013d 19       		.uleb128 0x19
 5537 013e 01       		.uleb128 0x1
 5538 013f 13       		.uleb128 0x13
 5539 0140 00       		.byte	0
 5540 0141 00       		.byte	0
 5541 0142 16       		.uleb128 0x16
 5542 0143 05       		.uleb128 0x5
 5543 0144 00       		.byte	0
 5544 0145 03       		.uleb128 0x3
 5545 0146 0E       		.uleb128 0xe
 5546 0147 3A       		.uleb128 0x3a
 5547 0148 0B       		.uleb128 0xb
 5548 0149 3B       		.uleb128 0x3b
 5549 014a 05       		.uleb128 0x5
 5550 014b 39       		.uleb128 0x39
 5551 014c 0B       		.uleb128 0xb
 5552 014d 49       		.uleb128 0x49
 5553 014e 13       		.uleb128 0x13
 5554 014f 02       		.uleb128 0x2
 5555 0150 18       		.uleb128 0x18
 5556 0151 00       		.byte	0
 5557 0152 00       		.byte	0
 5558 0153 17       		.uleb128 0x17
 5559 0154 2E       		.uleb128 0x2e
 5560 0155 01       		.byte	0x1
 5561 0156 3F       		.uleb128 0x3f
 5562 0157 19       		.uleb128 0x19
 5563 0158 03       		.uleb128 0x3
 5564 0159 0E       		.uleb128 0xe
 5565 015a 3A       		.uleb128 0x3a
 5566 015b 0B       		.uleb128 0xb
 5567 015c 3B       		.uleb128 0x3b
 5568 015d 0B       		.uleb128 0xb
 5569 015e 39       		.uleb128 0x39
 5570 015f 0B       		.uleb128 0xb
 5571 0160 27       		.uleb128 0x27
 5572 0161 19       		.uleb128 0x19
 5573 0162 11       		.uleb128 0x11
 5574 0163 01       		.uleb128 0x1
 5575 0164 12       		.uleb128 0x12
 5576 0165 06       		.uleb128 0x6
 5577 0166 40       		.uleb128 0x40
 5578 0167 18       		.uleb128 0x18
 5579 0168 9642     		.uleb128 0x2116
 5580 016a 19       		.uleb128 0x19
 5581 016b 01       		.uleb128 0x1
 5582 016c 13       		.uleb128 0x13
 5583 016d 00       		.byte	0
 5584 016e 00       		.byte	0
ARM GAS  /tmp/cceRHmPh.s 			page 99


 5585 016f 18       		.uleb128 0x18
 5586 0170 05       		.uleb128 0x5
 5587 0171 00       		.byte	0
 5588 0172 03       		.uleb128 0x3
 5589 0173 08       		.uleb128 0x8
 5590 0174 3A       		.uleb128 0x3a
 5591 0175 0B       		.uleb128 0xb
 5592 0176 3B       		.uleb128 0x3b
 5593 0177 0B       		.uleb128 0xb
 5594 0178 39       		.uleb128 0x39
 5595 0179 0B       		.uleb128 0xb
 5596 017a 49       		.uleb128 0x49
 5597 017b 13       		.uleb128 0x13
 5598 017c 02       		.uleb128 0x2
 5599 017d 18       		.uleb128 0x18
 5600 017e 00       		.byte	0
 5601 017f 00       		.byte	0
 5602 0180 19       		.uleb128 0x19
 5603 0181 34       		.uleb128 0x34
 5604 0182 00       		.byte	0
 5605 0183 03       		.uleb128 0x3
 5606 0184 08       		.uleb128 0x8
 5607 0185 3A       		.uleb128 0x3a
 5608 0186 0B       		.uleb128 0xb
 5609 0187 3B       		.uleb128 0x3b
 5610 0188 0B       		.uleb128 0xb
 5611 0189 39       		.uleb128 0x39
 5612 018a 0B       		.uleb128 0xb
 5613 018b 49       		.uleb128 0x49
 5614 018c 13       		.uleb128 0x13
 5615 018d 02       		.uleb128 0x2
 5616 018e 18       		.uleb128 0x18
 5617 018f 00       		.byte	0
 5618 0190 00       		.byte	0
 5619 0191 1A       		.uleb128 0x1a
 5620 0192 05       		.uleb128 0x5
 5621 0193 00       		.byte	0
 5622 0194 03       		.uleb128 0x3
 5623 0195 0E       		.uleb128 0xe
 5624 0196 3A       		.uleb128 0x3a
 5625 0197 0B       		.uleb128 0xb
 5626 0198 3B       		.uleb128 0x3b
 5627 0199 0B       		.uleb128 0xb
 5628 019a 39       		.uleb128 0x39
 5629 019b 0B       		.uleb128 0xb
 5630 019c 49       		.uleb128 0x49
 5631 019d 13       		.uleb128 0x13
 5632 019e 02       		.uleb128 0x2
 5633 019f 18       		.uleb128 0x18
 5634 01a0 00       		.byte	0
 5635 01a1 00       		.byte	0
 5636 01a2 1B       		.uleb128 0x1b
 5637 01a3 2E       		.uleb128 0x2e
 5638 01a4 01       		.byte	0x1
 5639 01a5 3F       		.uleb128 0x3f
 5640 01a6 19       		.uleb128 0x19
 5641 01a7 03       		.uleb128 0x3
ARM GAS  /tmp/cceRHmPh.s 			page 100


 5642 01a8 0E       		.uleb128 0xe
 5643 01a9 3A       		.uleb128 0x3a
 5644 01aa 0B       		.uleb128 0xb
 5645 01ab 3B       		.uleb128 0x3b
 5646 01ac 0B       		.uleb128 0xb
 5647 01ad 39       		.uleb128 0x39
 5648 01ae 0B       		.uleb128 0xb
 5649 01af 27       		.uleb128 0x27
 5650 01b0 19       		.uleb128 0x19
 5651 01b1 11       		.uleb128 0x11
 5652 01b2 01       		.uleb128 0x1
 5653 01b3 12       		.uleb128 0x12
 5654 01b4 06       		.uleb128 0x6
 5655 01b5 40       		.uleb128 0x40
 5656 01b6 18       		.uleb128 0x18
 5657 01b7 9742     		.uleb128 0x2117
 5658 01b9 19       		.uleb128 0x19
 5659 01ba 01       		.uleb128 0x1
 5660 01bb 13       		.uleb128 0x13
 5661 01bc 00       		.byte	0
 5662 01bd 00       		.byte	0
 5663 01be 1C       		.uleb128 0x1c
 5664 01bf 2E       		.uleb128 0x2e
 5665 01c0 01       		.byte	0x1
 5666 01c1 3F       		.uleb128 0x3f
 5667 01c2 19       		.uleb128 0x19
 5668 01c3 03       		.uleb128 0x3
 5669 01c4 0E       		.uleb128 0xe
 5670 01c5 3A       		.uleb128 0x3a
 5671 01c6 0B       		.uleb128 0xb
 5672 01c7 3B       		.uleb128 0x3b
 5673 01c8 0B       		.uleb128 0xb
 5674 01c9 39       		.uleb128 0x39
 5675 01ca 0B       		.uleb128 0xb
 5676 01cb 27       		.uleb128 0x27
 5677 01cc 19       		.uleb128 0x19
 5678 01cd 11       		.uleb128 0x11
 5679 01ce 01       		.uleb128 0x1
 5680 01cf 12       		.uleb128 0x12
 5681 01d0 06       		.uleb128 0x6
 5682 01d1 40       		.uleb128 0x40
 5683 01d2 18       		.uleb128 0x18
 5684 01d3 9642     		.uleb128 0x2116
 5685 01d5 19       		.uleb128 0x19
 5686 01d6 00       		.byte	0
 5687 01d7 00       		.byte	0
 5688 01d8 00       		.byte	0
 5689              		.section	.debug_aranges,"",%progbits
 5690 0000 AC000000 		.4byte	0xac
 5691 0004 0200     		.2byte	0x2
 5692 0006 00000000 		.4byte	.Ldebug_info0
 5693 000a 04       		.byte	0x4
 5694 000b 00       		.byte	0
 5695 000c 0000     		.2byte	0
 5696 000e 0000     		.2byte	0
 5697 0010 00000000 		.4byte	.LFB52
 5698 0014 DE000000 		.4byte	.LFE52-.LFB52
ARM GAS  /tmp/cceRHmPh.s 			page 101


 5699 0018 00000000 		.4byte	.LFB53
 5700 001c DE000000 		.4byte	.LFE53-.LFB53
 5701 0020 00000000 		.4byte	.LFB54
 5702 0024 F2000000 		.4byte	.LFE54-.LFB54
 5703 0028 00000000 		.4byte	.LFB55
 5704 002c 38000000 		.4byte	.LFE55-.LFB55
 5705 0030 00000000 		.4byte	.LFB56
 5706 0034 C8000000 		.4byte	.LFE56-.LFB56
 5707 0038 00000000 		.4byte	.LFB57
 5708 003c 38000000 		.4byte	.LFE57-.LFB57
 5709 0040 00000000 		.4byte	.LFB58
 5710 0044 28000000 		.4byte	.LFE58-.LFB58
 5711 0048 00000000 		.4byte	.LFB59
 5712 004c 28000000 		.4byte	.LFE59-.LFB59
 5713 0050 00000000 		.4byte	.LFB60
 5714 0054 8C020000 		.4byte	.LFE60-.LFB60
 5715 0058 00000000 		.4byte	.LFB61
 5716 005c 38000000 		.4byte	.LFE61-.LFB61
 5717 0060 00000000 		.4byte	.LFB62
 5718 0064 62020000 		.4byte	.LFE62-.LFB62
 5719 0068 00000000 		.4byte	.LFB63
 5720 006c 38000000 		.4byte	.LFE63-.LFB63
 5721 0070 00000000 		.4byte	.LFB64
 5722 0074 D4040000 		.4byte	.LFE64-.LFB64
 5723 0078 00000000 		.4byte	.LFB65
 5724 007c 8C010000 		.4byte	.LFE65-.LFB65
 5725 0080 00000000 		.4byte	.LFB66
 5726 0084 34010000 		.4byte	.LFE66-.LFB66
 5727 0088 00000000 		.4byte	.LFB67
 5728 008c 60000000 		.4byte	.LFE67-.LFB67
 5729 0090 00000000 		.4byte	.LFB68
 5730 0094 4C010000 		.4byte	.LFE68-.LFB68
 5731 0098 00000000 		.4byte	.LFB69
 5732 009c EC030000 		.4byte	.LFE69-.LFB69
 5733 00a0 00000000 		.4byte	.LFB70
 5734 00a4 68030000 		.4byte	.LFE70-.LFB70
 5735 00a8 00000000 		.4byte	0
 5736 00ac 00000000 		.4byte	0
 5737              		.section	.debug_ranges,"",%progbits
 5738              	.Ldebug_ranges0:
 5739 0000 00000000 		.4byte	.LFB52
 5740 0004 DE000000 		.4byte	.LFE52
 5741 0008 00000000 		.4byte	.LFB53
 5742 000c DE000000 		.4byte	.LFE53
 5743 0010 00000000 		.4byte	.LFB54
 5744 0014 F2000000 		.4byte	.LFE54
 5745 0018 00000000 		.4byte	.LFB55
 5746 001c 38000000 		.4byte	.LFE55
 5747 0020 00000000 		.4byte	.LFB56
 5748 0024 C8000000 		.4byte	.LFE56
 5749 0028 00000000 		.4byte	.LFB57
 5750 002c 38000000 		.4byte	.LFE57
 5751 0030 00000000 		.4byte	.LFB58
 5752 0034 28000000 		.4byte	.LFE58
 5753 0038 00000000 		.4byte	.LFB59
 5754 003c 28000000 		.4byte	.LFE59
 5755 0040 00000000 		.4byte	.LFB60
ARM GAS  /tmp/cceRHmPh.s 			page 102


 5756 0044 8C020000 		.4byte	.LFE60
 5757 0048 00000000 		.4byte	.LFB61
 5758 004c 38000000 		.4byte	.LFE61
 5759 0050 00000000 		.4byte	.LFB62
 5760 0054 62020000 		.4byte	.LFE62
 5761 0058 00000000 		.4byte	.LFB63
 5762 005c 38000000 		.4byte	.LFE63
 5763 0060 00000000 		.4byte	.LFB64
 5764 0064 D4040000 		.4byte	.LFE64
 5765 0068 00000000 		.4byte	.LFB65
 5766 006c 8C010000 		.4byte	.LFE65
 5767 0070 00000000 		.4byte	.LFB66
 5768 0074 34010000 		.4byte	.LFE66
 5769 0078 00000000 		.4byte	.LFB67
 5770 007c 60000000 		.4byte	.LFE67
 5771 0080 00000000 		.4byte	.LFB68
 5772 0084 4C010000 		.4byte	.LFE68
 5773 0088 00000000 		.4byte	.LFB69
 5774 008c EC030000 		.4byte	.LFE69
 5775 0090 00000000 		.4byte	.LFB70
 5776 0094 68030000 		.4byte	.LFE70
 5777 0098 00000000 		.4byte	0
 5778 009c 00000000 		.4byte	0
 5779              		.section	.debug_macro,"",%progbits
 5780              	.Ldebug_macro0:
 5781 0000 0400     		.2byte	0x4
 5782 0002 02       		.byte	0x2
 5783 0003 00000000 		.4byte	.Ldebug_line0
 5784 0007 07       		.byte	0x7
 5785 0008 00000000 		.4byte	.Ldebug_macro2
 5786 000c 03       		.byte	0x3
 5787 000d 00       		.uleb128 0
 5788 000e 01       		.uleb128 0x1
 5789 000f 03       		.byte	0x3
 5790 0010 1C       		.uleb128 0x1c
 5791 0011 04       		.uleb128 0x4
 5792 0012 05       		.byte	0x5
 5793 0013 1D       		.uleb128 0x1d
 5794 0014 62BE0000 		.4byte	.LASF518
 5795              		.file 8 "math/pprz_geodetic.h"
 5796 0018 03       		.byte	0x3
 5797 0019 23       		.uleb128 0x23
 5798 001a 08       		.uleb128 0x8
 5799 001b 07       		.byte	0x7
 5800 001c 00000000 		.4byte	.Ldebug_macro3
 5801 0020 04       		.byte	0x4
 5802 0021 03       		.byte	0x3
 5803 0022 24       		.uleb128 0x24
 5804 0023 03       		.uleb128 0x3
 5805 0024 05       		.byte	0x5
 5806 0025 20       		.uleb128 0x20
 5807 0026 52EB0000 		.4byte	.LASF530
 5808              		.file 9 "math/pprz_algebra.h"
 5809 002a 03       		.byte	0x3
 5810 002b 26       		.uleb128 0x26
 5811 002c 09       		.uleb128 0x9
 5812 002d 05       		.byte	0x5
ARM GAS  /tmp/cceRHmPh.s 			page 103


 5813 002e 25       		.uleb128 0x25
 5814 002f F6210000 		.4byte	.LASF531
 5815              		.file 10 "/usr/lib/gcc/arm-none-eabi/10.3.1/include/float.h"
 5816 0033 03       		.byte	0x3
 5817 0034 2B       		.uleb128 0x2b
 5818 0035 0A       		.uleb128 0xa
 5819 0036 07       		.byte	0x7
 5820 0037 00000000 		.4byte	.Ldebug_macro4
 5821 003b 04       		.byte	0x4
 5822              		.file 11 "/usr/include/newlib/string.h"
 5823 003c 03       		.byte	0x3
 5824 003d 2C       		.uleb128 0x2c
 5825 003e 0B       		.uleb128 0xb
 5826 003f 05       		.byte	0x5
 5827 0040 08       		.uleb128 0x8
 5828 0041 08900000 		.4byte	.LASF595
 5829              		.file 12 "/usr/include/newlib/_ansi.h"
 5830 0045 03       		.byte	0x3
 5831 0046 0A       		.uleb128 0xa
 5832 0047 0C       		.uleb128 0xc
 5833 0048 05       		.byte	0x5
 5834 0049 08       		.uleb128 0x8
 5835 004a D2250000 		.4byte	.LASF596
 5836              		.file 13 "/usr/include/newlib/newlib.h"
 5837 004e 03       		.byte	0x3
 5838 004f 0A       		.uleb128 0xa
 5839 0050 0D       		.uleb128 0xd
 5840 0051 05       		.byte	0x5
 5841 0052 08       		.uleb128 0x8
 5842 0053 3FBD0000 		.4byte	.LASF597
 5843              		.file 14 "/usr/include/newlib/_newlib_version.h"
 5844 0057 03       		.byte	0x3
 5845 0058 0E       		.uleb128 0xe
 5846 0059 0E       		.uleb128 0xe
 5847 005a 07       		.byte	0x7
 5848 005b 00000000 		.4byte	.Ldebug_macro5
 5849 005f 04       		.byte	0x4
 5850 0060 07       		.byte	0x7
 5851 0061 00000000 		.4byte	.Ldebug_macro6
 5852 0065 04       		.byte	0x4
 5853              		.file 15 "/usr/include/newlib/sys/config.h"
 5854 0066 03       		.byte	0x3
 5855 0067 0B       		.uleb128 0xb
 5856 0068 0F       		.uleb128 0xf
 5857 0069 05       		.byte	0x5
 5858 006a 02       		.uleb128 0x2
 5859 006b 26A50000 		.4byte	.LASF616
 5860              		.file 16 "/usr/include/newlib/machine/ieeefp.h"
 5861 006f 03       		.byte	0x3
 5862 0070 04       		.uleb128 0x4
 5863 0071 10       		.uleb128 0x10
 5864 0072 07       		.byte	0x7
 5865 0073 00000000 		.4byte	.Ldebug_macro7
 5866 0077 04       		.byte	0x4
 5867              		.file 17 "/usr/include/newlib/sys/features.h"
 5868 0078 03       		.byte	0x3
 5869 0079 05       		.uleb128 0x5
ARM GAS  /tmp/cceRHmPh.s 			page 104


 5870 007a 11       		.uleb128 0x11
 5871 007b 07       		.byte	0x7
 5872 007c 00000000 		.4byte	.Ldebug_macro8
 5873 0080 04       		.byte	0x4
 5874 0081 07       		.byte	0x7
 5875 0082 00000000 		.4byte	.Ldebug_macro9
 5876 0086 04       		.byte	0x4
 5877 0087 07       		.byte	0x7
 5878 0088 00000000 		.4byte	.Ldebug_macro10
 5879 008c 04       		.byte	0x4
 5880              		.file 18 "/usr/include/newlib/sys/reent.h"
 5881 008d 03       		.byte	0x3
 5882 008e 0B       		.uleb128 0xb
 5883 008f 12       		.uleb128 0x12
 5884 0090 05       		.byte	0x5
 5885 0091 0B       		.uleb128 0xb
 5886 0092 BED90000 		.4byte	.LASF656
 5887 0096 03       		.byte	0x3
 5888 0097 0D       		.uleb128 0xd
 5889 0098 0C       		.uleb128 0xc
 5890 0099 04       		.byte	0x4
 5891              		.file 19 "/usr/lib/gcc/arm-none-eabi/10.3.1/include/stddef.h"
 5892 009a 03       		.byte	0x3
 5893 009b 0E       		.uleb128 0xe
 5894 009c 13       		.uleb128 0x13
 5895 009d 07       		.byte	0x7
 5896 009e 00000000 		.4byte	.Ldebug_macro11
 5897 00a2 04       		.byte	0x4
 5898              		.file 20 "/usr/include/newlib/sys/_types.h"
 5899 00a3 03       		.byte	0x3
 5900 00a4 0F       		.uleb128 0xf
 5901 00a5 14       		.uleb128 0x14
 5902 00a6 07       		.byte	0x7
 5903 00a7 00000000 		.4byte	.Ldebug_macro12
 5904 00ab 03       		.byte	0x3
 5905 00ac 18       		.uleb128 0x18
 5906 00ad 13       		.uleb128 0x13
 5907 00ae 07       		.byte	0x7
 5908 00af 00000000 		.4byte	.Ldebug_macro13
 5909 00b3 04       		.byte	0x4
 5910              		.file 21 "/usr/include/newlib/machine/_types.h"
 5911 00b4 03       		.byte	0x3
 5912 00b5 1B       		.uleb128 0x1b
 5913 00b6 15       		.uleb128 0x15
 5914 00b7 05       		.byte	0x5
 5915 00b8 06       		.uleb128 0x6
 5916 00b9 53020100 		.4byte	.LASF714
 5917              		.file 22 "/usr/include/newlib/machine/_default_types.h"
 5918 00bd 03       		.byte	0x3
 5919 00be 07       		.uleb128 0x7
 5920 00bf 16       		.uleb128 0x16
 5921 00c0 07       		.byte	0x7
 5922 00c1 00000000 		.4byte	.Ldebug_macro14
 5923 00c5 04       		.byte	0x4
 5924 00c6 04       		.byte	0x4
 5925 00c7 07       		.byte	0x7
 5926 00c8 00000000 		.4byte	.Ldebug_macro15
ARM GAS  /tmp/cceRHmPh.s 			page 105


 5927 00cc 04       		.byte	0x4
 5928 00cd 07       		.byte	0x7
 5929 00ce 00000000 		.4byte	.Ldebug_macro16
 5930              		.file 23 "/usr/include/newlib/sys/lock.h"
 5931 00d2 03       		.byte	0x3
 5932 00d3 22       		.uleb128 0x22
 5933 00d4 17       		.uleb128 0x17
 5934 00d5 07       		.byte	0x7
 5935 00d6 00000000 		.4byte	.Ldebug_macro17
 5936 00da 04       		.byte	0x4
 5937 00db 07       		.byte	0x7
 5938 00dc 00000000 		.4byte	.Ldebug_macro18
 5939 00e0 04       		.byte	0x4
 5940              		.file 24 "/usr/include/newlib/sys/cdefs.h"
 5941 00e1 03       		.byte	0x3
 5942 00e2 0C       		.uleb128 0xc
 5943 00e3 18       		.uleb128 0x18
 5944 00e4 05       		.byte	0x5
 5945 00e5 2B       		.uleb128 0x2b
 5946 00e6 E6B90000 		.4byte	.LASF805
 5947 00ea 03       		.byte	0x3
 5948 00eb 2F       		.uleb128 0x2f
 5949 00ec 13       		.uleb128 0x13
 5950 00ed 04       		.byte	0x4
 5951 00ee 07       		.byte	0x7
 5952 00ef 00000000 		.4byte	.Ldebug_macro19
 5953 00f3 04       		.byte	0x4
 5954 00f4 07       		.byte	0x7
 5955 00f5 00000000 		.4byte	.Ldebug_macro20
 5956 00f9 03       		.byte	0x3
 5957 00fa 11       		.uleb128 0x11
 5958 00fb 13       		.uleb128 0x13
 5959 00fc 07       		.byte	0x7
 5960 00fd 00000000 		.4byte	.Ldebug_macro21
 5961 0101 04       		.byte	0x4
 5962              		.file 25 "/usr/include/newlib/sys/_locale.h"
 5963 0102 03       		.byte	0x3
 5964 0103 14       		.uleb128 0x14
 5965 0104 19       		.uleb128 0x19
 5966 0105 05       		.byte	0x5
 5967 0106 04       		.uleb128 0x4
 5968 0107 F6590000 		.4byte	.LASF932
 5969 010b 04       		.byte	0x4
 5970              		.file 26 "/usr/include/newlib/strings.h"
 5971 010c 03       		.byte	0x3
 5972 010d 18       		.uleb128 0x18
 5973 010e 1A       		.uleb128 0x1a
 5974 010f 05       		.byte	0x5
 5975 0110 1E       		.uleb128 0x1e
 5976 0111 41EF0000 		.4byte	.LASF933
 5977 0115 04       		.byte	0x4
 5978              		.file 27 "/usr/include/newlib/sys/string.h"
 5979 0116 03       		.byte	0x3
 5980 0117 AF01     		.uleb128 0xaf
 5981 0119 1B       		.uleb128 0x1b
 5982 011a 04       		.byte	0x4
 5983 011b 04       		.byte	0x4
ARM GAS  /tmp/cceRHmPh.s 			page 106


 5984              		.file 28 "/home/argroos/paparazzi/sw/include/std.h"
 5985 011c 03       		.byte	0x3
 5986 011d 2D       		.uleb128 0x2d
 5987 011e 1C       		.uleb128 0x1c
 5988 011f 05       		.byte	0x5
 5989 0120 1B       		.uleb128 0x1b
 5990 0121 F8E20000 		.4byte	.LASF934
 5991              		.file 29 "/usr/include/newlib/inttypes.h"
 5992 0125 03       		.byte	0x3
 5993 0126 1D       		.uleb128 0x1d
 5994 0127 1D       		.uleb128 0x1d
 5995 0128 05       		.byte	0x5
 5996 0129 0E       		.uleb128 0xe
 5997 012a FB6D0000 		.4byte	.LASF935
 5998              		.file 30 "/usr/include/newlib/sys/_intsup.h"
 5999 012e 03       		.byte	0x3
 6000 012f 12       		.uleb128 0x12
 6001 0130 1E       		.uleb128 0x1e
 6002 0131 07       		.byte	0x7
 6003 0132 00000000 		.4byte	.Ldebug_macro22
 6004 0136 04       		.byte	0x4
 6005 0137 03       		.byte	0x3
 6006 0138 14       		.uleb128 0x14
 6007 0139 02       		.uleb128 0x2
 6008 013a 07       		.byte	0x7
 6009 013b 00000000 		.4byte	.Ldebug_macro23
 6010 013f 04       		.byte	0x4
 6011 0140 05       		.byte	0x5
 6012 0141 15       		.uleb128 0x15
 6013 0142 44D40000 		.4byte	.LASF1089
 6014 0146 03       		.byte	0x3
 6015 0147 16       		.uleb128 0x16
 6016 0148 13       		.uleb128 0x13
 6017 0149 07       		.byte	0x7
 6018 014a 00000000 		.4byte	.Ldebug_macro21
 6019 014e 04       		.byte	0x4
 6020 014f 07       		.byte	0x7
 6021 0150 00000000 		.4byte	.Ldebug_macro24
 6022 0154 04       		.byte	0x4
 6023              		.file 31 "/usr/lib/gcc/arm-none-eabi/10.3.1/include/stdbool.h"
 6024 0155 03       		.byte	0x3
 6025 0156 1E       		.uleb128 0x1e
 6026 0157 1F       		.uleb128 0x1f
 6027 0158 07       		.byte	0x7
 6028 0159 00000000 		.4byte	.Ldebug_macro25
 6029 015d 04       		.byte	0x4
 6030              		.file 32 "/usr/include/newlib/math.h"
 6031 015e 03       		.byte	0x3
 6032 015f 1F       		.uleb128 0x1f
 6033 0160 20       		.uleb128 0x20
 6034 0161 05       		.byte	0x5
 6035 0162 03       		.uleb128 0x3
 6036 0163 B5180000 		.4byte	.LASF1227
 6037 0167 03       		.byte	0x3
 6038 0168 07       		.uleb128 0x7
 6039 0169 10       		.uleb128 0x10
 6040 016a 04       		.byte	0x4
ARM GAS  /tmp/cceRHmPh.s 			page 107


 6041 016b 07       		.byte	0x7
 6042 016c 00000000 		.4byte	.Ldebug_macro26
 6043 0170 04       		.byte	0x4
 6044              		.file 33 "/home/argroos/paparazzi/sw/include/message_pragmas.h"
 6045 0171 03       		.byte	0x3
 6046 0172 26       		.uleb128 0x26
 6047 0173 21       		.uleb128 0x21
 6048 0174 07       		.byte	0x7
 6049 0175 00000000 		.4byte	.Ldebug_macro27
 6050 0179 04       		.byte	0x4
 6051 017a 07       		.byte	0x7
 6052 017b 00000000 		.4byte	.Ldebug_macro28
 6053 017f 04       		.byte	0x4
 6054 0180 07       		.byte	0x7
 6055 0181 00000000 		.4byte	.Ldebug_macro29
 6056 0185 04       		.byte	0x4
 6057 0186 03       		.byte	0x3
 6058 0187 27       		.uleb128 0x27
 6059 0188 21       		.uleb128 0x21
 6060 0189 04       		.byte	0x4
 6061 018a 07       		.byte	0x7
 6062 018b 00000000 		.4byte	.Ldebug_macro30
 6063 018f 04       		.byte	0x4
 6064 0190 04       		.byte	0x4
 6065 0191 03       		.byte	0x3
 6066 0192 22       		.uleb128 0x22
 6067 0193 06       		.uleb128 0x6
 6068 0194 05       		.byte	0x5
 6069 0195 21       		.uleb128 0x21
 6070 0196 55C40000 		.4byte	.LASF1499
 6071 019a 03       		.byte	0x3
 6072 019b 28       		.uleb128 0x28
 6073 019c 05       		.uleb128 0x5
 6074 019d 07       		.byte	0x7
 6075 019e 00000000 		.4byte	.Ldebug_macro31
 6076 01a2 04       		.byte	0x4
 6077 01a3 04       		.byte	0x4
 6078 01a4 03       		.byte	0x3
 6079 01a5 8802     		.uleb128 0x108
 6080 01a7 07       		.uleb128 0x7
 6081 01a8 07       		.byte	0x7
 6082 01a9 00000000 		.4byte	.Ldebug_macro32
 6083 01ad 04       		.byte	0x4
 6084 01ae 05       		.byte	0x5
 6085 01af 8B02     		.uleb128 0x10b
 6086 01b1 9DE60000 		.4byte	.LASF1518
 6087 01b5 05       		.byte	0x5
 6088 01b6 8C02     		.uleb128 0x10c
 6089 01b8 0ACC0000 		.4byte	.LASF1519
 6090 01bc 05       		.byte	0x5
 6091 01bd 8D02     		.uleb128 0x10d
 6092 01bf A1730000 		.4byte	.LASF1520
 6093 01c3 05       		.byte	0x5
 6094 01c4 8E02     		.uleb128 0x10e
 6095 01c6 0CF60000 		.4byte	.LASF1521
 6096 01ca 05       		.byte	0x5
 6097 01cb 8F02     		.uleb128 0x10f
ARM GAS  /tmp/cceRHmPh.s 			page 108


 6098 01cd 44BA0000 		.4byte	.LASF1522
 6099 01d1 05       		.byte	0x5
 6100 01d2 9202     		.uleb128 0x112
 6101 01d4 80540000 		.4byte	.LASF1523
 6102 01d8 04       		.byte	0x4
 6103 01d9 00       		.byte	0
 6104              		.section	.debug_macro,"G",%progbits,wm4.0.2794bdaec8201ab6082bad9e2f5cd9ec,comdat
 6105              	.Ldebug_macro2:
 6106 0000 0400     		.2byte	0x4
 6107 0002 00       		.byte	0
 6108 0003 05       		.byte	0x5
 6109 0004 00       		.uleb128 0
 6110 0005 9E0A0000 		.4byte	.LASF0
 6111 0009 05       		.byte	0x5
 6112 000a 00       		.uleb128 0
 6113 000b 07700000 		.4byte	.LASF1
 6114 000f 05       		.byte	0x5
 6115 0010 00       		.uleb128 0
 6116 0011 72E70000 		.4byte	.LASF2
 6117 0015 05       		.byte	0x5
 6118 0016 00       		.uleb128 0
 6119 0017 A0240000 		.4byte	.LASF3
 6120 001b 05       		.byte	0x5
 6121 001c 00       		.uleb128 0
 6122 001d BFA20000 		.4byte	.LASF4
 6123 0021 05       		.byte	0x5
 6124 0022 00       		.uleb128 0
 6125 0023 A0770000 		.4byte	.LASF5
 6126 0027 05       		.byte	0x5
 6127 0028 00       		.uleb128 0
 6128 0029 DC020100 		.4byte	.LASF6
 6129 002d 05       		.byte	0x5
 6130 002e 00       		.uleb128 0
 6131 002f 7E0A0100 		.4byte	.LASF7
 6132 0033 05       		.byte	0x5
 6133 0034 00       		.uleb128 0
 6134 0035 C4F70000 		.4byte	.LASF8
 6135 0039 05       		.byte	0x5
 6136 003a 00       		.uleb128 0
 6137 003b 88710000 		.4byte	.LASF9
 6138 003f 05       		.byte	0x5
 6139 0040 00       		.uleb128 0
 6140 0041 4B2A0000 		.4byte	.LASF10
 6141 0045 05       		.byte	0x5
 6142 0046 00       		.uleb128 0
 6143 0047 346C0000 		.4byte	.LASF11
 6144 004b 05       		.byte	0x5
 6145 004c 00       		.uleb128 0
 6146 004d CCEF0000 		.4byte	.LASF12
 6147 0051 05       		.byte	0x5
 6148 0052 00       		.uleb128 0
 6149 0053 CCD40000 		.4byte	.LASF13
 6150 0057 05       		.byte	0x5
 6151 0058 00       		.uleb128 0
 6152 0059 F7E60000 		.4byte	.LASF14
 6153 005d 05       		.byte	0x5
 6154 005e 00       		.uleb128 0
ARM GAS  /tmp/cceRHmPh.s 			page 109


 6155 005f 2BC90000 		.4byte	.LASF15
 6156 0063 05       		.byte	0x5
 6157 0064 00       		.uleb128 0
 6158 0065 F8180000 		.4byte	.LASF16
 6159 0069 05       		.byte	0x5
 6160 006a 00       		.uleb128 0
 6161 006b 560F0000 		.4byte	.LASF17
 6162 006f 05       		.byte	0x5
 6163 0070 00       		.uleb128 0
 6164 0071 A2460000 		.4byte	.LASF18
 6165 0075 05       		.byte	0x5
 6166 0076 00       		.uleb128 0
 6167 0077 79E20000 		.4byte	.LASF19
 6168 007b 05       		.byte	0x5
 6169 007c 00       		.uleb128 0
 6170 007d 5E370000 		.4byte	.LASF20
 6171 0081 05       		.byte	0x5
 6172 0082 00       		.uleb128 0
 6173 0083 25D10000 		.4byte	.LASF21
 6174 0087 05       		.byte	0x5
 6175 0088 00       		.uleb128 0
 6176 0089 7FF80000 		.4byte	.LASF22
 6177 008d 05       		.byte	0x5
 6178 008e 00       		.uleb128 0
 6179 008f A3420000 		.4byte	.LASF23
 6180 0093 05       		.byte	0x5
 6181 0094 00       		.uleb128 0
 6182 0095 D88C0000 		.4byte	.LASF24
 6183 0099 05       		.byte	0x5
 6184 009a 00       		.uleb128 0
 6185 009b 24220000 		.4byte	.LASF25
 6186 009f 05       		.byte	0x5
 6187 00a0 00       		.uleb128 0
 6188 00a1 903E0000 		.4byte	.LASF26
 6189 00a5 05       		.byte	0x5
 6190 00a6 00       		.uleb128 0
 6191 00a7 C0C40000 		.4byte	.LASF27
 6192 00ab 05       		.byte	0x5
 6193 00ac 00       		.uleb128 0
 6194 00ad F86B0000 		.4byte	.LASF28
 6195 00b1 05       		.byte	0x5
 6196 00b2 00       		.uleb128 0
 6197 00b3 FD0B0000 		.4byte	.LASF29
 6198 00b7 05       		.byte	0x5
 6199 00b8 00       		.uleb128 0
 6200 00b9 A3000000 		.4byte	.LASF30
 6201 00bd 05       		.byte	0x5
 6202 00be 00       		.uleb128 0
 6203 00bf 47B20000 		.4byte	.LASF31
 6204 00c3 05       		.byte	0x5
 6205 00c4 00       		.uleb128 0
 6206 00c5 81FB0000 		.4byte	.LASF32
 6207 00c9 05       		.byte	0x5
 6208 00ca 00       		.uleb128 0
 6209 00cb 3FA70000 		.4byte	.LASF33
 6210 00cf 05       		.byte	0x5
 6211 00d0 00       		.uleb128 0
ARM GAS  /tmp/cceRHmPh.s 			page 110


 6212 00d1 160E0000 		.4byte	.LASF34
 6213 00d5 05       		.byte	0x5
 6214 00d6 00       		.uleb128 0
 6215 00d7 26480000 		.4byte	.LASF35
 6216 00db 05       		.byte	0x5
 6217 00dc 00       		.uleb128 0
 6218 00dd F28C0000 		.4byte	.LASF36
 6219 00e1 05       		.byte	0x5
 6220 00e2 00       		.uleb128 0
 6221 00e3 1DB30000 		.4byte	.LASF37
 6222 00e7 05       		.byte	0x5
 6223 00e8 00       		.uleb128 0
 6224 00e9 C1FD0000 		.4byte	.LASF38
 6225 00ed 05       		.byte	0x5
 6226 00ee 00       		.uleb128 0
 6227 00ef 49B10000 		.4byte	.LASF39
 6228 00f3 05       		.byte	0x5
 6229 00f4 00       		.uleb128 0
 6230 00f5 0B1A0000 		.4byte	.LASF40
 6231 00f9 05       		.byte	0x5
 6232 00fa 00       		.uleb128 0
 6233 00fb 91D50000 		.4byte	.LASF41
 6234 00ff 05       		.byte	0x5
 6235 0100 00       		.uleb128 0
 6236 0101 4C540000 		.4byte	.LASF42
 6237 0105 05       		.byte	0x5
 6238 0106 00       		.uleb128 0
 6239 0107 8DC60000 		.4byte	.LASF43
 6240 010b 05       		.byte	0x5
 6241 010c 00       		.uleb128 0
 6242 010d 67EC0000 		.4byte	.LASF44
 6243 0111 05       		.byte	0x5
 6244 0112 00       		.uleb128 0
 6245 0113 47220000 		.4byte	.LASF45
 6246 0117 05       		.byte	0x5
 6247 0118 00       		.uleb128 0
 6248 0119 E0250000 		.4byte	.LASF46
 6249 011d 05       		.byte	0x5
 6250 011e 00       		.uleb128 0
 6251 011f D2390000 		.4byte	.LASF47
 6252 0123 05       		.byte	0x5
 6253 0124 00       		.uleb128 0
 6254 0125 3A0D0000 		.4byte	.LASF48
 6255 0129 05       		.byte	0x5
 6256 012a 00       		.uleb128 0
 6257 012b 5F7C0000 		.4byte	.LASF49
 6258 012f 05       		.byte	0x5
 6259 0130 00       		.uleb128 0
 6260 0131 53E70000 		.4byte	.LASF50
 6261 0135 05       		.byte	0x5
 6262 0136 00       		.uleb128 0
 6263 0137 33150000 		.4byte	.LASF51
 6264 013b 05       		.byte	0x5
 6265 013c 00       		.uleb128 0
 6266 013d DC1B0000 		.4byte	.LASF52
 6267 0141 05       		.byte	0x5
 6268 0142 00       		.uleb128 0
ARM GAS  /tmp/cceRHmPh.s 			page 111


 6269 0143 97960000 		.4byte	.LASF53
 6270 0147 05       		.byte	0x5
 6271 0148 00       		.uleb128 0
 6272 0149 90040100 		.4byte	.LASF54
 6273 014d 05       		.byte	0x5
 6274 014e 00       		.uleb128 0
 6275 014f A0EA0000 		.4byte	.LASF55
 6276 0153 05       		.byte	0x5
 6277 0154 00       		.uleb128 0
 6278 0155 84E70000 		.4byte	.LASF56
 6279 0159 05       		.byte	0x5
 6280 015a 00       		.uleb128 0
 6281 015b DBA10000 		.4byte	.LASF57
 6282 015f 05       		.byte	0x5
 6283 0160 00       		.uleb128 0
 6284 0161 C1770000 		.4byte	.LASF58
 6285 0165 05       		.byte	0x5
 6286 0166 00       		.uleb128 0
 6287 0167 3CD80000 		.4byte	.LASF59
 6288 016b 05       		.byte	0x5
 6289 016c 00       		.uleb128 0
 6290 016d 506C0000 		.4byte	.LASF60
 6291 0171 05       		.byte	0x5
 6292 0172 00       		.uleb128 0
 6293 0173 092C0000 		.4byte	.LASF61
 6294 0177 05       		.byte	0x5
 6295 0178 00       		.uleb128 0
 6296 0179 93180000 		.4byte	.LASF62
 6297 017d 05       		.byte	0x5
 6298 017e 00       		.uleb128 0
 6299 017f 57C50000 		.4byte	.LASF63
 6300 0183 05       		.byte	0x5
 6301 0184 00       		.uleb128 0
 6302 0185 D2670000 		.4byte	.LASF64
 6303 0189 05       		.byte	0x5
 6304 018a 00       		.uleb128 0
 6305 018b 80110000 		.4byte	.LASF65
 6306 018f 05       		.byte	0x5
 6307 0190 00       		.uleb128 0
 6308 0191 F1C80000 		.4byte	.LASF66
 6309 0195 05       		.byte	0x5
 6310 0196 00       		.uleb128 0
 6311 0197 487C0000 		.4byte	.LASF67
 6312 019b 05       		.byte	0x5
 6313 019c 00       		.uleb128 0
 6314 019d 97600000 		.4byte	.LASF68
 6315 01a1 05       		.byte	0x5
 6316 01a2 00       		.uleb128 0
 6317 01a3 58160000 		.4byte	.LASF69
 6318 01a7 05       		.byte	0x5
 6319 01a8 00       		.uleb128 0
 6320 01a9 F17B0000 		.4byte	.LASF70
 6321 01ad 05       		.byte	0x5
 6322 01ae 00       		.uleb128 0
 6323 01af D7850000 		.4byte	.LASF71
 6324 01b3 05       		.byte	0x5
 6325 01b4 00       		.uleb128 0
ARM GAS  /tmp/cceRHmPh.s 			page 112


 6326 01b5 29B70000 		.4byte	.LASF72
 6327 01b9 05       		.byte	0x5
 6328 01ba 00       		.uleb128 0
 6329 01bb 48BE0000 		.4byte	.LASF73
 6330 01bf 05       		.byte	0x5
 6331 01c0 00       		.uleb128 0
 6332 01c1 4B5C0000 		.4byte	.LASF74
 6333 01c5 05       		.byte	0x5
 6334 01c6 00       		.uleb128 0
 6335 01c7 45370000 		.4byte	.LASF75
 6336 01cb 05       		.byte	0x5
 6337 01cc 00       		.uleb128 0
 6338 01cd D8A40000 		.4byte	.LASF76
 6339 01d1 05       		.byte	0x5
 6340 01d2 00       		.uleb128 0
 6341 01d3 13080000 		.4byte	.LASF77
 6342 01d7 05       		.byte	0x5
 6343 01d8 00       		.uleb128 0
 6344 01d9 91810000 		.4byte	.LASF78
 6345 01dd 05       		.byte	0x5
 6346 01de 00       		.uleb128 0
 6347 01df 216B0000 		.4byte	.LASF79
 6348 01e3 05       		.byte	0x5
 6349 01e4 00       		.uleb128 0
 6350 01e5 5B110000 		.4byte	.LASF80
 6351 01e9 05       		.byte	0x5
 6352 01ea 00       		.uleb128 0
 6353 01eb 94510000 		.4byte	.LASF81
 6354 01ef 05       		.byte	0x5
 6355 01f0 00       		.uleb128 0
 6356 01f1 49D30000 		.4byte	.LASF82
 6357 01f5 05       		.byte	0x5
 6358 01f6 00       		.uleb128 0
 6359 01f7 9FA70000 		.4byte	.LASF83
 6360 01fb 05       		.byte	0x5
 6361 01fc 00       		.uleb128 0
 6362 01fd 4BAC0000 		.4byte	.LASF84
 6363 0201 05       		.byte	0x5
 6364 0202 00       		.uleb128 0
 6365 0203 DD420000 		.4byte	.LASF85
 6366 0207 05       		.byte	0x5
 6367 0208 00       		.uleb128 0
 6368 0209 25360000 		.4byte	.LASF86
 6369 020d 05       		.byte	0x5
 6370 020e 00       		.uleb128 0
 6371 020f EC410000 		.4byte	.LASF87
 6372 0213 05       		.byte	0x5
 6373 0214 00       		.uleb128 0
 6374 0215 1B3D0000 		.4byte	.LASF88
 6375 0219 05       		.byte	0x5
 6376 021a 00       		.uleb128 0
 6377 021b 9C7F0000 		.4byte	.LASF89
 6378 021f 05       		.byte	0x5
 6379 0220 00       		.uleb128 0
 6380 0221 8D4E0000 		.4byte	.LASF90
 6381 0225 05       		.byte	0x5
 6382 0226 00       		.uleb128 0
ARM GAS  /tmp/cceRHmPh.s 			page 113


 6383 0227 D1A20000 		.4byte	.LASF91
 6384 022b 05       		.byte	0x5
 6385 022c 00       		.uleb128 0
 6386 022d 9E6F0000 		.4byte	.LASF92
 6387 0231 05       		.byte	0x5
 6388 0232 00       		.uleb128 0
 6389 0233 3DCF0000 		.4byte	.LASF93
 6390 0237 05       		.byte	0x5
 6391 0238 00       		.uleb128 0
 6392 0239 79C50000 		.4byte	.LASF94
 6393 023d 05       		.byte	0x5
 6394 023e 00       		.uleb128 0
 6395 023f AB490000 		.4byte	.LASF95
 6396 0243 05       		.byte	0x5
 6397 0244 00       		.uleb128 0
 6398 0245 9F7D0000 		.4byte	.LASF96
 6399 0249 05       		.byte	0x5
 6400 024a 00       		.uleb128 0
 6401 024b C2620000 		.4byte	.LASF97
 6402 024f 05       		.byte	0x5
 6403 0250 00       		.uleb128 0
 6404 0251 F05E0000 		.4byte	.LASF98
 6405 0255 05       		.byte	0x5
 6406 0256 00       		.uleb128 0
 6407 0257 0F2A0000 		.4byte	.LASF99
 6408 025b 05       		.byte	0x5
 6409 025c 00       		.uleb128 0
 6410 025d E5E20000 		.4byte	.LASF100
 6411 0261 05       		.byte	0x5
 6412 0262 00       		.uleb128 0
 6413 0263 F4F40000 		.4byte	.LASF101
 6414 0267 05       		.byte	0x5
 6415 0268 00       		.uleb128 0
 6416 0269 9A060100 		.4byte	.LASF102
 6417 026d 05       		.byte	0x5
 6418 026e 00       		.uleb128 0
 6419 026f D3180000 		.4byte	.LASF103
 6420 0273 05       		.byte	0x5
 6421 0274 00       		.uleb128 0
 6422 0275 4E4C0000 		.4byte	.LASF104
 6423 0279 05       		.byte	0x5
 6424 027a 00       		.uleb128 0
 6425 027b 2F280000 		.4byte	.LASF105
 6426 027f 05       		.byte	0x5
 6427 0280 00       		.uleb128 0
 6428 0281 89770000 		.4byte	.LASF106
 6429 0285 05       		.byte	0x5
 6430 0286 00       		.uleb128 0
 6431 0287 C1160000 		.4byte	.LASF107
 6432 028b 05       		.byte	0x5
 6433 028c 00       		.uleb128 0
 6434 028d 62DE0000 		.4byte	.LASF108
 6435 0291 05       		.byte	0x5
 6436 0292 00       		.uleb128 0
 6437 0293 ED140000 		.4byte	.LASF109
 6438 0297 05       		.byte	0x5
 6439 0298 00       		.uleb128 0
ARM GAS  /tmp/cceRHmPh.s 			page 114


 6440 0299 BC7D0000 		.4byte	.LASF110
 6441 029d 05       		.byte	0x5
 6442 029e 00       		.uleb128 0
 6443 029f 93880000 		.4byte	.LASF111
 6444 02a3 05       		.byte	0x5
 6445 02a4 00       		.uleb128 0
 6446 02a5 8C780000 		.4byte	.LASF112
 6447 02a9 05       		.byte	0x5
 6448 02aa 00       		.uleb128 0
 6449 02ab D66C0000 		.4byte	.LASF113
 6450 02af 05       		.byte	0x5
 6451 02b0 00       		.uleb128 0
 6452 02b1 40CB0000 		.4byte	.LASF114
 6453 02b5 05       		.byte	0x5
 6454 02b6 00       		.uleb128 0
 6455 02b7 50700000 		.4byte	.LASF115
 6456 02bb 05       		.byte	0x5
 6457 02bc 00       		.uleb128 0
 6458 02bd 50060100 		.4byte	.LASF116
 6459 02c1 05       		.byte	0x5
 6460 02c2 00       		.uleb128 0
 6461 02c3 AD3A0000 		.4byte	.LASF117
 6462 02c7 05       		.byte	0x5
 6463 02c8 00       		.uleb128 0
 6464 02c9 AF400000 		.4byte	.LASF118
 6465 02cd 05       		.byte	0x5
 6466 02ce 00       		.uleb128 0
 6467 02cf B01B0000 		.4byte	.LASF119
 6468 02d3 05       		.byte	0x5
 6469 02d4 00       		.uleb128 0
 6470 02d5 33C40000 		.4byte	.LASF120
 6471 02d9 05       		.byte	0x5
 6472 02da 00       		.uleb128 0
 6473 02db B76D0000 		.4byte	.LASF121
 6474 02df 05       		.byte	0x5
 6475 02e0 00       		.uleb128 0
 6476 02e1 04280000 		.4byte	.LASF122
 6477 02e5 05       		.byte	0x5
 6478 02e6 00       		.uleb128 0
 6479 02e7 E34C0000 		.4byte	.LASF123
 6480 02eb 05       		.byte	0x5
 6481 02ec 00       		.uleb128 0
 6482 02ed 34320000 		.4byte	.LASF124
 6483 02f1 05       		.byte	0x5
 6484 02f2 00       		.uleb128 0
 6485 02f3 7B320000 		.4byte	.LASF125
 6486 02f7 05       		.byte	0x5
 6487 02f8 00       		.uleb128 0
 6488 02f9 45050000 		.4byte	.LASF126
 6489 02fd 05       		.byte	0x5
 6490 02fe 00       		.uleb128 0
 6491 02ff C5110000 		.4byte	.LASF127
 6492 0303 05       		.byte	0x5
 6493 0304 00       		.uleb128 0
 6494 0305 D6CC0000 		.4byte	.LASF128
 6495 0309 05       		.byte	0x5
 6496 030a 00       		.uleb128 0
ARM GAS  /tmp/cceRHmPh.s 			page 115


 6497 030b F8930000 		.4byte	.LASF129
 6498 030f 05       		.byte	0x5
 6499 0310 00       		.uleb128 0
 6500 0311 26180000 		.4byte	.LASF130
 6501 0315 05       		.byte	0x5
 6502 0316 00       		.uleb128 0
 6503 0317 1B5E0000 		.4byte	.LASF131
 6504 031b 05       		.byte	0x5
 6505 031c 00       		.uleb128 0
 6506 031d 51820000 		.4byte	.LASF132
 6507 0321 05       		.byte	0x5
 6508 0322 00       		.uleb128 0
 6509 0323 D67F0000 		.4byte	.LASF133
 6510 0327 05       		.byte	0x5
 6511 0328 00       		.uleb128 0
 6512 0329 39D10000 		.4byte	.LASF134
 6513 032d 05       		.byte	0x5
 6514 032e 00       		.uleb128 0
 6515 032f D70D0000 		.4byte	.LASF135
 6516 0333 05       		.byte	0x5
 6517 0334 00       		.uleb128 0
 6518 0335 51900000 		.4byte	.LASF136
 6519 0339 05       		.byte	0x5
 6520 033a 00       		.uleb128 0
 6521 033b 4AB40000 		.4byte	.LASF137
 6522 033f 05       		.byte	0x5
 6523 0340 00       		.uleb128 0
 6524 0341 2AE60000 		.4byte	.LASF138
 6525 0345 05       		.byte	0x5
 6526 0346 00       		.uleb128 0
 6527 0347 41740000 		.4byte	.LASF139
 6528 034b 05       		.byte	0x5
 6529 034c 00       		.uleb128 0
 6530 034d 162F0000 		.4byte	.LASF140
 6531 0351 05       		.byte	0x5
 6532 0352 00       		.uleb128 0
 6533 0353 99F00000 		.4byte	.LASF141
 6534 0357 05       		.byte	0x5
 6535 0358 00       		.uleb128 0
 6536 0359 034E0000 		.4byte	.LASF142
 6537 035d 05       		.byte	0x5
 6538 035e 00       		.uleb128 0
 6539 035f 53F70000 		.4byte	.LASF143
 6540 0363 05       		.byte	0x5
 6541 0364 00       		.uleb128 0
 6542 0365 634D0000 		.4byte	.LASF144
 6543 0369 05       		.byte	0x5
 6544 036a 00       		.uleb128 0
 6545 036b 0E4A0000 		.4byte	.LASF145
 6546 036f 05       		.byte	0x5
 6547 0370 00       		.uleb128 0
 6548 0371 FA3E0000 		.4byte	.LASF146
 6549 0375 05       		.byte	0x5
 6550 0376 00       		.uleb128 0
 6551 0377 704C0000 		.4byte	.LASF147
 6552 037b 05       		.byte	0x5
 6553 037c 00       		.uleb128 0
ARM GAS  /tmp/cceRHmPh.s 			page 116


 6554 037d 0C350000 		.4byte	.LASF148
 6555 0381 05       		.byte	0x5
 6556 0382 00       		.uleb128 0
 6557 0383 E9290000 		.4byte	.LASF149
 6558 0387 05       		.byte	0x5
 6559 0388 00       		.uleb128 0
 6560 0389 F4CC0000 		.4byte	.LASF150
 6561 038d 05       		.byte	0x5
 6562 038e 00       		.uleb128 0
 6563 038f 77C60000 		.4byte	.LASF151
 6564 0393 05       		.byte	0x5
 6565 0394 00       		.uleb128 0
 6566 0395 247C0000 		.4byte	.LASF152
 6567 0399 05       		.byte	0x5
 6568 039a 00       		.uleb128 0
 6569 039b F5000000 		.4byte	.LASF153
 6570 039f 05       		.byte	0x5
 6571 03a0 00       		.uleb128 0
 6572 03a1 2FE70000 		.4byte	.LASF154
 6573 03a5 05       		.byte	0x5
 6574 03a6 00       		.uleb128 0
 6575 03a7 F4390000 		.4byte	.LASF155
 6576 03ab 05       		.byte	0x5
 6577 03ac 00       		.uleb128 0
 6578 03ad AD050100 		.4byte	.LASF156
 6579 03b1 05       		.byte	0x5
 6580 03b2 00       		.uleb128 0
 6581 03b3 21F90000 		.4byte	.LASF157
 6582 03b7 05       		.byte	0x5
 6583 03b8 00       		.uleb128 0
 6584 03b9 DD110000 		.4byte	.LASF158
 6585 03bd 05       		.byte	0x5
 6586 03be 00       		.uleb128 0
 6587 03bf A0670000 		.4byte	.LASF159
 6588 03c3 05       		.byte	0x5
 6589 03c4 00       		.uleb128 0
 6590 03c5 1C5C0000 		.4byte	.LASF160
 6591 03c9 05       		.byte	0x5
 6592 03ca 00       		.uleb128 0
 6593 03cb F7350000 		.4byte	.LASF161
 6594 03cf 05       		.byte	0x5
 6595 03d0 00       		.uleb128 0
 6596 03d1 3A2C0000 		.4byte	.LASF162
 6597 03d5 05       		.byte	0x5
 6598 03d6 00       		.uleb128 0
 6599 03d7 E4EA0000 		.4byte	.LASF163
 6600 03db 05       		.byte	0x5
 6601 03dc 00       		.uleb128 0
 6602 03dd 29340000 		.4byte	.LASF164
 6603 03e1 05       		.byte	0x5
 6604 03e2 00       		.uleb128 0
 6605 03e3 917C0000 		.4byte	.LASF165
 6606 03e7 05       		.byte	0x5
 6607 03e8 00       		.uleb128 0
 6608 03e9 B00D0000 		.4byte	.LASF166
 6609 03ed 05       		.byte	0x5
 6610 03ee 00       		.uleb128 0
ARM GAS  /tmp/cceRHmPh.s 			page 117


 6611 03ef 8B460000 		.4byte	.LASF167
 6612 03f3 05       		.byte	0x5
 6613 03f4 00       		.uleb128 0
 6614 03f5 6B900000 		.4byte	.LASF168
 6615 03f9 05       		.byte	0x5
 6616 03fa 00       		.uleb128 0
 6617 03fb 38A50000 		.4byte	.LASF169
 6618 03ff 05       		.byte	0x5
 6619 0400 00       		.uleb128 0
 6620 0401 EC310000 		.4byte	.LASF170
 6621 0405 05       		.byte	0x5
 6622 0406 00       		.uleb128 0
 6623 0407 BF020000 		.4byte	.LASF171
 6624 040b 05       		.byte	0x5
 6625 040c 00       		.uleb128 0
 6626 040d EBF80000 		.4byte	.LASF172
 6627 0411 05       		.byte	0x5
 6628 0412 00       		.uleb128 0
 6629 0413 4BA60000 		.4byte	.LASF173
 6630 0417 05       		.byte	0x5
 6631 0418 00       		.uleb128 0
 6632 0419 51150000 		.4byte	.LASF174
 6633 041d 05       		.byte	0x5
 6634 041e 00       		.uleb128 0
 6635 041f 46F50000 		.4byte	.LASF175
 6636 0423 05       		.byte	0x5
 6637 0424 00       		.uleb128 0
 6638 0425 39C00000 		.4byte	.LASF176
 6639 0429 05       		.byte	0x5
 6640 042a 00       		.uleb128 0
 6641 042b 39B10000 		.4byte	.LASF177
 6642 042f 05       		.byte	0x5
 6643 0430 00       		.uleb128 0
 6644 0431 10340000 		.4byte	.LASF178
 6645 0435 05       		.byte	0x5
 6646 0436 00       		.uleb128 0
 6647 0437 5EF50000 		.4byte	.LASF179
 6648 043b 05       		.byte	0x5
 6649 043c 00       		.uleb128 0
 6650 043d 59D10000 		.4byte	.LASF180
 6651 0441 05       		.byte	0x5
 6652 0442 00       		.uleb128 0
 6653 0443 AFEB0000 		.4byte	.LASF181
 6654 0447 05       		.byte	0x5
 6655 0448 00       		.uleb128 0
 6656 0449 782C0000 		.4byte	.LASF182
 6657 044d 05       		.byte	0x5
 6658 044e 00       		.uleb128 0
 6659 044f 31210000 		.4byte	.LASF183
 6660 0453 05       		.byte	0x5
 6661 0454 00       		.uleb128 0
 6662 0455 C7320000 		.4byte	.LASF184
 6663 0459 05       		.byte	0x5
 6664 045a 00       		.uleb128 0
 6665 045b CCEC0000 		.4byte	.LASF185
 6666 045f 05       		.byte	0x5
 6667 0460 00       		.uleb128 0
ARM GAS  /tmp/cceRHmPh.s 			page 118


 6668 0461 55720000 		.4byte	.LASF186
 6669 0465 05       		.byte	0x5
 6670 0466 00       		.uleb128 0
 6671 0467 CA4D0000 		.4byte	.LASF187
 6672 046b 05       		.byte	0x5
 6673 046c 00       		.uleb128 0
 6674 046d 6F7F0000 		.4byte	.LASF188
 6675 0471 05       		.byte	0x5
 6676 0472 00       		.uleb128 0
 6677 0473 10940000 		.4byte	.LASF189
 6678 0477 05       		.byte	0x5
 6679 0478 00       		.uleb128 0
 6680 0479 ED840000 		.4byte	.LASF190
 6681 047d 05       		.byte	0x5
 6682 047e 00       		.uleb128 0
 6683 047f D1BD0000 		.4byte	.LASF191
 6684 0483 05       		.byte	0x5
 6685 0484 00       		.uleb128 0
 6686 0485 F32B0000 		.4byte	.LASF192
 6687 0489 05       		.byte	0x5
 6688 048a 00       		.uleb128 0
 6689 048b AF020000 		.4byte	.LASF193
 6690 048f 05       		.byte	0x5
 6691 0490 00       		.uleb128 0
 6692 0491 B1330000 		.4byte	.LASF194
 6693 0495 05       		.byte	0x5
 6694 0496 00       		.uleb128 0
 6695 0497 FB220000 		.4byte	.LASF195
 6696 049b 05       		.byte	0x5
 6697 049c 00       		.uleb128 0
 6698 049d 2C0C0000 		.4byte	.LASF196
 6699 04a1 05       		.byte	0x5
 6700 04a2 00       		.uleb128 0
 6701 04a3 B2920000 		.4byte	.LASF197
 6702 04a7 05       		.byte	0x5
 6703 04a8 00       		.uleb128 0
 6704 04a9 0B470000 		.4byte	.LASF198
 6705 04ad 05       		.byte	0x5
 6706 04ae 00       		.uleb128 0
 6707 04af E4990000 		.4byte	.LASF199
 6708 04b3 05       		.byte	0x5
 6709 04b4 00       		.uleb128 0
 6710 04b5 D1260000 		.4byte	.LASF200
 6711 04b9 05       		.byte	0x5
 6712 04ba 00       		.uleb128 0
 6713 04bb C3CB0000 		.4byte	.LASF201
 6714 04bf 05       		.byte	0x5
 6715 04c0 00       		.uleb128 0
 6716 04c1 94290000 		.4byte	.LASF202
 6717 04c5 05       		.byte	0x5
 6718 04c6 00       		.uleb128 0
 6719 04c7 35B80000 		.4byte	.LASF203
 6720 04cb 05       		.byte	0x5
 6721 04cc 00       		.uleb128 0
 6722 04cd 08AF0000 		.4byte	.LASF204
 6723 04d1 05       		.byte	0x5
 6724 04d2 00       		.uleb128 0
ARM GAS  /tmp/cceRHmPh.s 			page 119


 6725 04d3 5F070000 		.4byte	.LASF205
 6726 04d7 05       		.byte	0x5
 6727 04d8 00       		.uleb128 0
 6728 04d9 96EF0000 		.4byte	.LASF206
 6729 04dd 05       		.byte	0x5
 6730 04de 00       		.uleb128 0
 6731 04df 84140000 		.4byte	.LASF207
 6732 04e3 05       		.byte	0x5
 6733 04e4 00       		.uleb128 0
 6734 04e5 D1050000 		.4byte	.LASF208
 6735 04e9 05       		.byte	0x5
 6736 04ea 00       		.uleb128 0
 6737 04eb EF510000 		.4byte	.LASF209
 6738 04ef 05       		.byte	0x5
 6739 04f0 00       		.uleb128 0
 6740 04f1 22D80000 		.4byte	.LASF210
 6741 04f5 05       		.byte	0x5
 6742 04f6 00       		.uleb128 0
 6743 04f7 69080000 		.4byte	.LASF211
 6744 04fb 05       		.byte	0x5
 6745 04fc 00       		.uleb128 0
 6746 04fd 7B970000 		.4byte	.LASF212
 6747 0501 05       		.byte	0x5
 6748 0502 00       		.uleb128 0
 6749 0503 D2A60000 		.4byte	.LASF213
 6750 0507 05       		.byte	0x5
 6751 0508 00       		.uleb128 0
 6752 0509 11E60000 		.4byte	.LASF214
 6753 050d 05       		.byte	0x5
 6754 050e 00       		.uleb128 0
 6755 050f 26C10000 		.4byte	.LASF215
 6756 0513 05       		.byte	0x5
 6757 0514 00       		.uleb128 0
 6758 0515 CB880000 		.4byte	.LASF216
 6759 0519 05       		.byte	0x5
 6760 051a 00       		.uleb128 0
 6761 051b 28900000 		.4byte	.LASF217
 6762 051f 05       		.byte	0x5
 6763 0520 00       		.uleb128 0
 6764 0521 F1BC0000 		.4byte	.LASF218
 6765 0525 05       		.byte	0x5
 6766 0526 00       		.uleb128 0
 6767 0527 20ED0000 		.4byte	.LASF219
 6768 052b 05       		.byte	0x5
 6769 052c 00       		.uleb128 0
 6770 052d D4F80000 		.4byte	.LASF220
 6771 0531 05       		.byte	0x5
 6772 0532 00       		.uleb128 0
 6773 0533 D2B60000 		.4byte	.LASF221
 6774 0537 05       		.byte	0x5
 6775 0538 00       		.uleb128 0
 6776 0539 7CD80000 		.4byte	.LASF222
 6777 053d 05       		.byte	0x5
 6778 053e 00       		.uleb128 0
 6779 053f 3B8C0000 		.4byte	.LASF223
 6780 0543 05       		.byte	0x5
 6781 0544 00       		.uleb128 0
ARM GAS  /tmp/cceRHmPh.s 			page 120


 6782 0545 9C4D0000 		.4byte	.LASF224
 6783 0549 05       		.byte	0x5
 6784 054a 00       		.uleb128 0
 6785 054b CDD90000 		.4byte	.LASF225
 6786 054f 05       		.byte	0x5
 6787 0550 00       		.uleb128 0
 6788 0551 F5F60000 		.4byte	.LASF226
 6789 0555 05       		.byte	0x5
 6790 0556 00       		.uleb128 0
 6791 0557 C32B0000 		.4byte	.LASF227
 6792 055b 05       		.byte	0x5
 6793 055c 00       		.uleb128 0
 6794 055d 59190000 		.4byte	.LASF228
 6795 0561 05       		.byte	0x5
 6796 0562 00       		.uleb128 0
 6797 0563 C2530000 		.4byte	.LASF229
 6798 0567 05       		.byte	0x5
 6799 0568 00       		.uleb128 0
 6800 0569 F1020000 		.4byte	.LASF230
 6801 056d 05       		.byte	0x5
 6802 056e 00       		.uleb128 0
 6803 056f 42680000 		.4byte	.LASF231
 6804 0573 05       		.byte	0x5
 6805 0574 00       		.uleb128 0
 6806 0575 75FA0000 		.4byte	.LASF232
 6807 0579 05       		.byte	0x5
 6808 057a 00       		.uleb128 0
 6809 057b 71740000 		.4byte	.LASF233
 6810 057f 05       		.byte	0x5
 6811 0580 00       		.uleb128 0
 6812 0581 B2210000 		.4byte	.LASF234
 6813 0585 05       		.byte	0x5
 6814 0586 00       		.uleb128 0
 6815 0587 76EF0000 		.4byte	.LASF235
 6816 058b 05       		.byte	0x5
 6817 058c 00       		.uleb128 0
 6818 058d BC270000 		.4byte	.LASF236
 6819 0591 05       		.byte	0x5
 6820 0592 00       		.uleb128 0
 6821 0593 2BEA0000 		.4byte	.LASF237
 6822 0597 05       		.byte	0x5
 6823 0598 00       		.uleb128 0
 6824 0599 F8450000 		.4byte	.LASF238
 6825 059d 05       		.byte	0x5
 6826 059e 00       		.uleb128 0
 6827 059f 293E0000 		.4byte	.LASF239
 6828 05a3 05       		.byte	0x5
 6829 05a4 00       		.uleb128 0
 6830 05a5 4D840000 		.4byte	.LASF240
 6831 05a9 05       		.byte	0x5
 6832 05aa 00       		.uleb128 0
 6833 05ab 21F80000 		.4byte	.LASF241
 6834 05af 05       		.byte	0x5
 6835 05b0 00       		.uleb128 0
 6836 05b1 DBE60000 		.4byte	.LASF242
 6837 05b5 05       		.byte	0x5
 6838 05b6 00       		.uleb128 0
ARM GAS  /tmp/cceRHmPh.s 			page 121


 6839 05b7 2FE80000 		.4byte	.LASF243
 6840 05bb 05       		.byte	0x5
 6841 05bc 00       		.uleb128 0
 6842 05bd BBF60000 		.4byte	.LASF244
 6843 05c1 05       		.byte	0x5
 6844 05c2 00       		.uleb128 0
 6845 05c3 06150000 		.4byte	.LASF245
 6846 05c7 05       		.byte	0x5
 6847 05c8 00       		.uleb128 0
 6848 05c9 76990000 		.4byte	.LASF246
 6849 05cd 05       		.byte	0x5
 6850 05ce 00       		.uleb128 0
 6851 05cf 8EC40000 		.4byte	.LASF247
 6852 05d3 05       		.byte	0x5
 6853 05d4 00       		.uleb128 0
 6854 05d5 335E0000 		.4byte	.LASF248
 6855 05d9 05       		.byte	0x5
 6856 05da 00       		.uleb128 0
 6857 05db A5A20000 		.4byte	.LASF249
 6858 05df 05       		.byte	0x5
 6859 05e0 00       		.uleb128 0
 6860 05e1 35570000 		.4byte	.LASF250
 6861 05e5 05       		.byte	0x5
 6862 05e6 00       		.uleb128 0
 6863 05e7 87730000 		.4byte	.LASF251
 6864 05eb 05       		.byte	0x5
 6865 05ec 00       		.uleb128 0
 6866 05ed 8B500000 		.4byte	.LASF252
 6867 05f1 05       		.byte	0x5
 6868 05f2 00       		.uleb128 0
 6869 05f3 C4C60000 		.4byte	.LASF253
 6870 05f7 05       		.byte	0x5
 6871 05f8 00       		.uleb128 0
 6872 05f9 17F50000 		.4byte	.LASF254
 6873 05fd 05       		.byte	0x5
 6874 05fe 00       		.uleb128 0
 6875 05ff DC340000 		.4byte	.LASF255
 6876 0603 05       		.byte	0x5
 6877 0604 00       		.uleb128 0
 6878 0605 20C50000 		.4byte	.LASF256
 6879 0609 05       		.byte	0x5
 6880 060a 00       		.uleb128 0
 6881 060b 36810000 		.4byte	.LASF257
 6882 060f 05       		.byte	0x5
 6883 0610 00       		.uleb128 0
 6884 0611 A67C0000 		.4byte	.LASF258
 6885 0615 05       		.byte	0x5
 6886 0616 00       		.uleb128 0
 6887 0617 0B300000 		.4byte	.LASF259
 6888 061b 05       		.byte	0x5
 6889 061c 00       		.uleb128 0
 6890 061d 64B80000 		.4byte	.LASF260
 6891 0621 05       		.byte	0x5
 6892 0622 00       		.uleb128 0
 6893 0623 35720000 		.4byte	.LASF261
 6894 0627 05       		.byte	0x5
 6895 0628 00       		.uleb128 0
ARM GAS  /tmp/cceRHmPh.s 			page 122


 6896 0629 55EA0000 		.4byte	.LASF262
 6897 062d 05       		.byte	0x5
 6898 062e 00       		.uleb128 0
 6899 062f 50570000 		.4byte	.LASF263
 6900 0633 05       		.byte	0x5
 6901 0634 00       		.uleb128 0
 6902 0635 8DCE0000 		.4byte	.LASF264
 6903 0639 05       		.byte	0x5
 6904 063a 00       		.uleb128 0
 6905 063b F3C60000 		.4byte	.LASF265
 6906 063f 05       		.byte	0x5
 6907 0640 00       		.uleb128 0
 6908 0641 15B20000 		.4byte	.LASF266
 6909 0645 05       		.byte	0x5
 6910 0646 00       		.uleb128 0
 6911 0647 25BA0000 		.4byte	.LASF267
 6912 064b 05       		.byte	0x5
 6913 064c 00       		.uleb128 0
 6914 064d 25B10000 		.4byte	.LASF268
 6915 0651 05       		.byte	0x5
 6916 0652 00       		.uleb128 0
 6917 0653 F5AE0000 		.4byte	.LASF269
 6918 0657 05       		.byte	0x5
 6919 0658 00       		.uleb128 0
 6920 0659 DD330000 		.4byte	.LASF270
 6921 065d 05       		.byte	0x5
 6922 065e 00       		.uleb128 0
 6923 065f 9D010100 		.4byte	.LASF271
 6924 0663 05       		.byte	0x5
 6925 0664 00       		.uleb128 0
 6926 0665 E55D0000 		.4byte	.LASF272
 6927 0669 05       		.byte	0x5
 6928 066a 00       		.uleb128 0
 6929 066b F9C00000 		.4byte	.LASF273
 6930 066f 05       		.byte	0x5
 6931 0670 00       		.uleb128 0
 6932 0671 CC0B0000 		.4byte	.LASF274
 6933 0675 05       		.byte	0x5
 6934 0676 00       		.uleb128 0
 6935 0677 3F3D0000 		.4byte	.LASF275
 6936 067b 05       		.byte	0x5
 6937 067c 00       		.uleb128 0
 6938 067d 01620000 		.4byte	.LASF276
 6939 0681 05       		.byte	0x5
 6940 0682 00       		.uleb128 0
 6941 0683 9CF20000 		.4byte	.LASF277
 6942 0687 05       		.byte	0x5
 6943 0688 00       		.uleb128 0
 6944 0689 75B00000 		.4byte	.LASF278
 6945 068d 05       		.byte	0x5
 6946 068e 00       		.uleb128 0
 6947 068f B62F0000 		.4byte	.LASF279
 6948 0693 05       		.byte	0x5
 6949 0694 00       		.uleb128 0
 6950 0695 FDD80000 		.4byte	.LASF280
 6951 0699 05       		.byte	0x5
 6952 069a 00       		.uleb128 0
ARM GAS  /tmp/cceRHmPh.s 			page 123


 6953 069b 7B720000 		.4byte	.LASF281
 6954 069f 05       		.byte	0x5
 6955 06a0 00       		.uleb128 0
 6956 06a1 4EBD0000 		.4byte	.LASF282
 6957 06a5 05       		.byte	0x5
 6958 06a6 00       		.uleb128 0
 6959 06a7 B6A70000 		.4byte	.LASF283
 6960 06ab 05       		.byte	0x5
 6961 06ac 00       		.uleb128 0
 6962 06ad B1C60000 		.4byte	.LASF284
 6963 06b1 05       		.byte	0x5
 6964 06b2 00       		.uleb128 0
 6965 06b3 E6270000 		.4byte	.LASF285
 6966 06b7 05       		.byte	0x5
 6967 06b8 00       		.uleb128 0
 6968 06b9 EC7C0000 		.4byte	.LASF286
 6969 06bd 05       		.byte	0x5
 6970 06be 00       		.uleb128 0
 6971 06bf CA7E0000 		.4byte	.LASF287
 6972 06c3 05       		.byte	0x5
 6973 06c4 00       		.uleb128 0
 6974 06c5 9C6C0000 		.4byte	.LASF288
 6975 06c9 05       		.byte	0x5
 6976 06ca 00       		.uleb128 0
 6977 06cb A56E0000 		.4byte	.LASF289
 6978 06cf 05       		.byte	0x5
 6979 06d0 00       		.uleb128 0
 6980 06d1 F60C0000 		.4byte	.LASF290
 6981 06d5 05       		.byte	0x5
 6982 06d6 00       		.uleb128 0
 6983 06d7 A7D70000 		.4byte	.LASF291
 6984 06db 05       		.byte	0x5
 6985 06dc 00       		.uleb128 0
 6986 06dd C34E0000 		.4byte	.LASF292
 6987 06e1 05       		.byte	0x5
 6988 06e2 00       		.uleb128 0
 6989 06e3 3A000000 		.4byte	.LASF293
 6990 06e7 05       		.byte	0x5
 6991 06e8 00       		.uleb128 0
 6992 06e9 1C030000 		.4byte	.LASF294
 6993 06ed 05       		.byte	0x5
 6994 06ee 00       		.uleb128 0
 6995 06ef C5630000 		.4byte	.LASF295
 6996 06f3 05       		.byte	0x5
 6997 06f4 00       		.uleb128 0
 6998 06f5 CFF90000 		.4byte	.LASF296
 6999 06f9 05       		.byte	0x5
 7000 06fa 00       		.uleb128 0
 7001 06fb A8110000 		.4byte	.LASF297
 7002 06ff 05       		.byte	0x5
 7003 0700 00       		.uleb128 0
 7004 0701 9D840000 		.4byte	.LASF298
 7005 0705 05       		.byte	0x5
 7006 0706 00       		.uleb128 0
 7007 0707 24DE0000 		.4byte	.LASF299
 7008 070b 05       		.byte	0x5
 7009 070c 00       		.uleb128 0
ARM GAS  /tmp/cceRHmPh.s 			page 124


 7010 070d B27F0000 		.4byte	.LASF300
 7011 0711 05       		.byte	0x5
 7012 0712 00       		.uleb128 0
 7013 0713 234F0000 		.4byte	.LASF301
 7014 0717 05       		.byte	0x5
 7015 0718 00       		.uleb128 0
 7016 0719 12AA0000 		.4byte	.LASF302
 7017 071d 05       		.byte	0x5
 7018 071e 00       		.uleb128 0
 7019 071f 834A0000 		.4byte	.LASF303
 7020 0723 05       		.byte	0x5
 7021 0724 00       		.uleb128 0
 7022 0725 9F4B0000 		.4byte	.LASF304
 7023 0729 05       		.byte	0x5
 7024 072a 00       		.uleb128 0
 7025 072b D6840000 		.4byte	.LASF305
 7026 072f 05       		.byte	0x5
 7027 0730 00       		.uleb128 0
 7028 0731 C65E0000 		.4byte	.LASF306
 7029 0735 05       		.byte	0x5
 7030 0736 00       		.uleb128 0
 7031 0737 EF490000 		.4byte	.LASF307
 7032 073b 05       		.byte	0x5
 7033 073c 00       		.uleb128 0
 7034 073d BF180000 		.4byte	.LASF308
 7035 0741 05       		.byte	0x5
 7036 0742 00       		.uleb128 0
 7037 0743 9EB00000 		.4byte	.LASF309
 7038 0747 05       		.byte	0x5
 7039 0748 00       		.uleb128 0
 7040 0749 4E180000 		.4byte	.LASF310
 7041 074d 05       		.byte	0x5
 7042 074e 00       		.uleb128 0
 7043 074f 9D0C0000 		.4byte	.LASF311
 7044 0753 05       		.byte	0x5
 7045 0754 00       		.uleb128 0
 7046 0755 0A460000 		.4byte	.LASF312
 7047 0759 05       		.byte	0x5
 7048 075a 00       		.uleb128 0
 7049 075b 84BD0000 		.4byte	.LASF313
 7050 075f 05       		.byte	0x5
 7051 0760 00       		.uleb128 0
 7052 0761 8B240000 		.4byte	.LASF314
 7053 0765 05       		.byte	0x5
 7054 0766 00       		.uleb128 0
 7055 0767 7F360000 		.4byte	.LASF315
 7056 076b 05       		.byte	0x5
 7057 076c 00       		.uleb128 0
 7058 076d 5F240000 		.4byte	.LASF316
 7059 0771 05       		.byte	0x5
 7060 0772 00       		.uleb128 0
 7061 0773 B78C0000 		.4byte	.LASF317
 7062 0777 05       		.byte	0x5
 7063 0778 00       		.uleb128 0
 7064 0779 5A850000 		.4byte	.LASF318
 7065 077d 05       		.byte	0x5
 7066 077e 00       		.uleb128 0
ARM GAS  /tmp/cceRHmPh.s 			page 125


 7067 077f E1300000 		.4byte	.LASF319
 7068 0783 05       		.byte	0x5
 7069 0784 00       		.uleb128 0
 7070 0785 87B00000 		.4byte	.LASF320
 7071 0789 05       		.byte	0x5
 7072 078a 00       		.uleb128 0
 7073 078b DFEF0000 		.4byte	.LASF321
 7074 078f 05       		.byte	0x5
 7075 0790 00       		.uleb128 0
 7076 0791 7E4E0000 		.4byte	.LASF322
 7077 0795 05       		.byte	0x5
 7078 0796 00       		.uleb128 0
 7079 0797 0C830000 		.4byte	.LASF323
 7080 079b 05       		.byte	0x5
 7081 079c 00       		.uleb128 0
 7082 079d 94110000 		.4byte	.LASF324
 7083 07a1 05       		.byte	0x5
 7084 07a2 00       		.uleb128 0
 7085 07a3 18C10000 		.4byte	.LASF325
 7086 07a7 05       		.byte	0x5
 7087 07a8 00       		.uleb128 0
 7088 07a9 40C70000 		.4byte	.LASF326
 7089 07ad 05       		.byte	0x5
 7090 07ae 00       		.uleb128 0
 7091 07af 12FA0000 		.4byte	.LASF327
 7092 07b3 05       		.byte	0x5
 7093 07b4 00       		.uleb128 0
 7094 07b5 44020100 		.4byte	.LASF328
 7095 07b9 05       		.byte	0x5
 7096 07ba 00       		.uleb128 0
 7097 07bb B2C10000 		.4byte	.LASF329
 7098 07bf 05       		.byte	0x5
 7099 07c0 00       		.uleb128 0
 7100 07c1 85590000 		.4byte	.LASF330
 7101 07c5 05       		.byte	0x5
 7102 07c6 00       		.uleb128 0
 7103 07c7 EF830000 		.4byte	.LASF331
 7104 07cb 05       		.byte	0x5
 7105 07cc 00       		.uleb128 0
 7106 07cd B1A10000 		.4byte	.LASF332
 7107 07d1 05       		.byte	0x5
 7108 07d2 00       		.uleb128 0
 7109 07d3 44460000 		.4byte	.LASF333
 7110 07d7 05       		.byte	0x5
 7111 07d8 00       		.uleb128 0
 7112 07d9 5AC90000 		.4byte	.LASF334
 7113 07dd 05       		.byte	0x5
 7114 07de 00       		.uleb128 0
 7115 07df 55350000 		.4byte	.LASF335
 7116 07e3 05       		.byte	0x5
 7117 07e4 00       		.uleb128 0
 7118 07e5 E3AC0000 		.4byte	.LASF336
 7119 07e9 05       		.byte	0x5
 7120 07ea 00       		.uleb128 0
 7121 07eb 29790000 		.4byte	.LASF337
 7122 07ef 05       		.byte	0x5
 7123 07f0 00       		.uleb128 0
ARM GAS  /tmp/cceRHmPh.s 			page 126


 7124 07f1 61630000 		.4byte	.LASF338
 7125 07f5 05       		.byte	0x5
 7126 07f6 00       		.uleb128 0
 7127 07f7 0AC70000 		.4byte	.LASF339
 7128 07fb 05       		.byte	0x5
 7129 07fc 00       		.uleb128 0
 7130 07fd 420C0000 		.4byte	.LASF340
 7131 0801 05       		.byte	0x5
 7132 0802 00       		.uleb128 0
 7133 0803 480E0000 		.4byte	.LASF341
 7134 0807 05       		.byte	0x5
 7135 0808 00       		.uleb128 0
 7136 0809 B4CB0000 		.4byte	.LASF342
 7137 080d 05       		.byte	0x5
 7138 080e 00       		.uleb128 0
 7139 080f B4CD0000 		.4byte	.LASF343
 7140 0813 05       		.byte	0x5
 7141 0814 00       		.uleb128 0
 7142 0815 BDEC0000 		.4byte	.LASF344
 7143 0819 05       		.byte	0x5
 7144 081a 00       		.uleb128 0
 7145 081b F7EE0000 		.4byte	.LASF345
 7146 081f 05       		.byte	0x5
 7147 0820 00       		.uleb128 0
 7148 0821 43F20000 		.4byte	.LASF346
 7149 0825 05       		.byte	0x5
 7150 0826 00       		.uleb128 0
 7151 0827 D7000100 		.4byte	.LASF347
 7152 082b 05       		.byte	0x5
 7153 082c 00       		.uleb128 0
 7154 082d 854D0000 		.4byte	.LASF348
 7155 0831 05       		.byte	0x5
 7156 0832 00       		.uleb128 0
 7157 0833 B34E0000 		.4byte	.LASF349
 7158 0837 05       		.byte	0x5
 7159 0838 00       		.uleb128 0
 7160 0839 C70C0000 		.4byte	.LASF350
 7161 083d 05       		.byte	0x5
 7162 083e 00       		.uleb128 0
 7163 083f 000F0000 		.4byte	.LASF351
 7164 0843 05       		.byte	0x5
 7165 0844 00       		.uleb128 0
 7166 0845 2A2C0000 		.4byte	.LASF352
 7167 0849 05       		.byte	0x5
 7168 084a 00       		.uleb128 0
 7169 084b 062F0000 		.4byte	.LASF353
 7170 084f 05       		.byte	0x5
 7171 0850 00       		.uleb128 0
 7172 0851 F2A10000 		.4byte	.LASF354
 7173 0855 05       		.byte	0x5
 7174 0856 00       		.uleb128 0
 7175 0857 3F300000 		.4byte	.LASF355
 7176 085b 05       		.byte	0x5
 7177 085c 00       		.uleb128 0
 7178 085d 33A80000 		.4byte	.LASF356
 7179 0861 05       		.byte	0x5
 7180 0862 00       		.uleb128 0
ARM GAS  /tmp/cceRHmPh.s 			page 127


 7181 0863 2D140000 		.4byte	.LASF357
 7182 0867 05       		.byte	0x5
 7183 0868 00       		.uleb128 0
 7184 0869 E75F0000 		.4byte	.LASF358
 7185 086d 05       		.byte	0x5
 7186 086e 00       		.uleb128 0
 7187 086f 78840000 		.4byte	.LASF359
 7188 0873 05       		.byte	0x5
 7189 0874 00       		.uleb128 0
 7190 0875 ADA60000 		.4byte	.LASF360
 7191 0879 05       		.byte	0x5
 7192 087a 00       		.uleb128 0
 7193 087b B3D50000 		.4byte	.LASF361
 7194 087f 05       		.byte	0x5
 7195 0880 00       		.uleb128 0
 7196 0881 A9CC0000 		.4byte	.LASF362
 7197 0885 05       		.byte	0x5
 7198 0886 00       		.uleb128 0
 7199 0887 75180000 		.4byte	.LASF363
 7200 088b 05       		.byte	0x5
 7201 088c 00       		.uleb128 0
 7202 088d 1DBD0000 		.4byte	.LASF364
 7203 0891 05       		.byte	0x5
 7204 0892 00       		.uleb128 0
 7205 0893 11540000 		.4byte	.LASF365
 7206 0897 05       		.byte	0x5
 7207 0898 00       		.uleb128 0
 7208 0899 AAE80000 		.4byte	.LASF366
 7209 089d 05       		.byte	0x5
 7210 089e 00       		.uleb128 0
 7211 089f A2B10000 		.4byte	.LASF367
 7212 08a3 05       		.byte	0x5
 7213 08a4 00       		.uleb128 0
 7214 08a5 1B510000 		.4byte	.LASF368
 7215 08a9 05       		.byte	0x5
 7216 08aa 00       		.uleb128 0
 7217 08ab D4580000 		.4byte	.LASF369
 7218 08af 05       		.byte	0x5
 7219 08b0 00       		.uleb128 0
 7220 08b1 C7B90000 		.4byte	.LASF370
 7221 08b5 05       		.byte	0x5
 7222 08b6 00       		.uleb128 0
 7223 08b7 AE390000 		.4byte	.LASF371
 7224 08bb 05       		.byte	0x5
 7225 08bc 00       		.uleb128 0
 7226 08bd 81910000 		.4byte	.LASF372
 7227 08c1 05       		.byte	0x5
 7228 08c2 00       		.uleb128 0
 7229 08c3 405D0000 		.4byte	.LASF373
 7230 08c7 05       		.byte	0x5
 7231 08c8 00       		.uleb128 0
 7232 08c9 AA600000 		.4byte	.LASF374
 7233 08cd 05       		.byte	0x5
 7234 08ce 00       		.uleb128 0
 7235 08cf C01B0000 		.4byte	.LASF375
 7236 08d3 05       		.byte	0x5
 7237 08d4 00       		.uleb128 0
ARM GAS  /tmp/cceRHmPh.s 			page 128


 7238 08d5 CE7C0000 		.4byte	.LASF376
 7239 08d9 05       		.byte	0x5
 7240 08da 00       		.uleb128 0
 7241 08db 42790000 		.4byte	.LASF377
 7242 08df 05       		.byte	0x5
 7243 08e0 00       		.uleb128 0
 7244 08e1 87E90000 		.4byte	.LASF378
 7245 08e5 05       		.byte	0x5
 7246 08e6 00       		.uleb128 0
 7247 08e7 7CAE0000 		.4byte	.LASF379
 7248 08eb 05       		.byte	0x5
 7249 08ec 00       		.uleb128 0
 7250 08ed A26D0000 		.4byte	.LASF380
 7251 08f1 05       		.byte	0x5
 7252 08f2 00       		.uleb128 0
 7253 08f3 3A7A0000 		.4byte	.LASF381
 7254 08f7 06       		.byte	0x6
 7255 08f8 00       		.uleb128 0
 7256 08f9 C5AE0000 		.4byte	.LASF382
 7257 08fd 05       		.byte	0x5
 7258 08fe 00       		.uleb128 0
 7259 08ff 086E0000 		.4byte	.LASF383
 7260 0903 06       		.byte	0x6
 7261 0904 00       		.uleb128 0
 7262 0905 153E0000 		.4byte	.LASF384
 7263 0909 06       		.byte	0x6
 7264 090a 00       		.uleb128 0
 7265 090b A9EC0000 		.4byte	.LASF385
 7266 090f 06       		.byte	0x6
 7267 0910 00       		.uleb128 0
 7268 0911 708F0000 		.4byte	.LASF386
 7269 0915 06       		.byte	0x6
 7270 0916 00       		.uleb128 0
 7271 0917 46E60000 		.4byte	.LASF387
 7272 091b 05       		.byte	0x5
 7273 091c 00       		.uleb128 0
 7274 091d 74710000 		.4byte	.LASF388
 7275 0921 06       		.byte	0x6
 7276 0922 00       		.uleb128 0
 7277 0923 0A000100 		.4byte	.LASF389
 7278 0927 06       		.byte	0x6
 7279 0928 00       		.uleb128 0
 7280 0929 DAC40000 		.4byte	.LASF390
 7281 092d 06       		.byte	0x6
 7282 092e 00       		.uleb128 0
 7283 092f 0CC40000 		.4byte	.LASF391
 7284 0933 05       		.byte	0x5
 7285 0934 00       		.uleb128 0
 7286 0935 20700000 		.4byte	.LASF392
 7287 0939 05       		.byte	0x5
 7288 093a 00       		.uleb128 0
 7289 093b 41F30000 		.4byte	.LASF393
 7290 093f 06       		.byte	0x6
 7291 0940 00       		.uleb128 0
 7292 0941 703B0000 		.4byte	.LASF394
 7293 0945 05       		.byte	0x5
 7294 0946 00       		.uleb128 0
ARM GAS  /tmp/cceRHmPh.s 			page 129


 7295 0947 3F830000 		.4byte	.LASF395
 7296 094b 05       		.byte	0x5
 7297 094c 00       		.uleb128 0
 7298 094d C1CA0000 		.4byte	.LASF396
 7299 0951 05       		.byte	0x5
 7300 0952 00       		.uleb128 0
 7301 0953 8ED20000 		.4byte	.LASF397
 7302 0957 06       		.byte	0x6
 7303 0958 00       		.uleb128 0
 7304 0959 BCDB0000 		.4byte	.LASF398
 7305 095d 05       		.byte	0x5
 7306 095e 00       		.uleb128 0
 7307 095f DE4B0000 		.4byte	.LASF399
 7308 0963 05       		.byte	0x5
 7309 0964 00       		.uleb128 0
 7310 0965 00D40000 		.4byte	.LASF400
 7311 0969 06       		.byte	0x6
 7312 096a 00       		.uleb128 0
 7313 096b 3C220000 		.4byte	.LASF401
 7314 096f 05       		.byte	0x5
 7315 0970 00       		.uleb128 0
 7316 0971 0AF50000 		.4byte	.LASF402
 7317 0975 05       		.byte	0x5
 7318 0976 00       		.uleb128 0
 7319 0977 4D000000 		.4byte	.LASF403
 7320 097b 05       		.byte	0x5
 7321 097c 00       		.uleb128 0
 7322 097d 69B20000 		.4byte	.LASF404
 7323 0981 05       		.byte	0x5
 7324 0982 00       		.uleb128 0
 7325 0983 14000000 		.4byte	.LASF405
 7326 0987 05       		.byte	0x5
 7327 0988 00       		.uleb128 0
 7328 0989 6B840000 		.4byte	.LASF406
 7329 098d 05       		.byte	0x5
 7330 098e 00       		.uleb128 0
 7331 098f 69F90000 		.4byte	.LASF407
 7332 0993 06       		.byte	0x6
 7333 0994 00       		.uleb128 0
 7334 0995 B97C0000 		.4byte	.LASF408
 7335 0999 05       		.byte	0x5
 7336 099a 00       		.uleb128 0
 7337 099b 69060100 		.4byte	.LASF409
 7338 099f 05       		.byte	0x5
 7339 09a0 00       		.uleb128 0
 7340 09a1 51320000 		.4byte	.LASF410
 7341 09a5 05       		.byte	0x5
 7342 09a6 00       		.uleb128 0
 7343 09a7 2ECE0000 		.4byte	.LASF411
 7344 09ab 06       		.byte	0x6
 7345 09ac 00       		.uleb128 0
 7346 09ad 2FAA0000 		.4byte	.LASF412
 7347 09b1 05       		.byte	0x5
 7348 09b2 00       		.uleb128 0
 7349 09b3 E23D0000 		.4byte	.LASF413
 7350 09b7 06       		.byte	0x6
 7351 09b8 00       		.uleb128 0
ARM GAS  /tmp/cceRHmPh.s 			page 130


 7352 09b9 AC940000 		.4byte	.LASF414
 7353 09bd 06       		.byte	0x6
 7354 09be 00       		.uleb128 0
 7355 09bf 32380000 		.4byte	.LASF415
 7356 09c3 06       		.byte	0x6
 7357 09c4 00       		.uleb128 0
 7358 09c5 A1330000 		.4byte	.LASF416
 7359 09c9 06       		.byte	0x6
 7360 09ca 00       		.uleb128 0
 7361 09cb F7910000 		.4byte	.LASF417
 7362 09cf 06       		.byte	0x6
 7363 09d0 00       		.uleb128 0
 7364 09d1 DCD10000 		.4byte	.LASF418
 7365 09d5 06       		.byte	0x6
 7366 09d6 00       		.uleb128 0
 7367 09d7 2C420000 		.4byte	.LASF419
 7368 09db 05       		.byte	0x5
 7369 09dc 00       		.uleb128 0
 7370 09dd 0DF40000 		.4byte	.LASF420
 7371 09e1 06       		.byte	0x6
 7372 09e2 00       		.uleb128 0
 7373 09e3 96D80000 		.4byte	.LASF421
 7374 09e7 06       		.byte	0x6
 7375 09e8 00       		.uleb128 0
 7376 09e9 00520000 		.4byte	.LASF422
 7377 09ed 06       		.byte	0x6
 7378 09ee 00       		.uleb128 0
 7379 09ef B6F40000 		.4byte	.LASF423
 7380 09f3 05       		.byte	0x5
 7381 09f4 00       		.uleb128 0
 7382 09f5 24520000 		.4byte	.LASF424
 7383 09f9 05       		.byte	0x5
 7384 09fa 00       		.uleb128 0
 7385 09fb 16D80000 		.4byte	.LASF425
 7386 09ff 05       		.byte	0x5
 7387 0a00 00       		.uleb128 0
 7388 0a01 8D280000 		.4byte	.LASF426
 7389 0a05 06       		.byte	0x6
 7390 0a06 00       		.uleb128 0
 7391 0a07 D7F40000 		.4byte	.LASF427
 7392 0a0b 05       		.byte	0x5
 7393 0a0c 00       		.uleb128 0
 7394 0a0d F67F0000 		.4byte	.LASF428
 7395 0a11 05       		.byte	0x5
 7396 0a12 00       		.uleb128 0
 7397 0a13 010E0000 		.4byte	.LASF429
 7398 0a17 05       		.byte	0x5
 7399 0a18 00       		.uleb128 0
 7400 0a19 9B640000 		.4byte	.LASF430
 7401 0a1d 06       		.byte	0x6
 7402 0a1e 00       		.uleb128 0
 7403 0a1f AC770000 		.4byte	.LASF431
 7404 0a23 05       		.byte	0x5
 7405 0a24 00       		.uleb128 0
 7406 0a25 B34B0000 		.4byte	.LASF432
 7407 0a29 06       		.byte	0x6
 7408 0a2a 00       		.uleb128 0
ARM GAS  /tmp/cceRHmPh.s 			page 131


 7409 0a2b D0C30000 		.4byte	.LASF433
 7410 0a2f 06       		.byte	0x6
 7411 0a30 00       		.uleb128 0
 7412 0a31 84010100 		.4byte	.LASF434
 7413 0a35 06       		.byte	0x6
 7414 0a36 00       		.uleb128 0
 7415 0a37 9F010000 		.4byte	.LASF435
 7416 0a3b 06       		.byte	0x6
 7417 0a3c 00       		.uleb128 0
 7418 0a3d 3FA20000 		.4byte	.LASF436
 7419 0a41 06       		.byte	0x6
 7420 0a42 00       		.uleb128 0
 7421 0a43 0DCA0000 		.4byte	.LASF437
 7422 0a47 06       		.byte	0x6
 7423 0a48 00       		.uleb128 0
 7424 0a49 53770000 		.4byte	.LASF438
 7425 0a4d 05       		.byte	0x5
 7426 0a4e 00       		.uleb128 0
 7427 0a4f 31590000 		.4byte	.LASF439
 7428 0a53 05       		.byte	0x5
 7429 0a54 00       		.uleb128 0
 7430 0a55 4C0F0000 		.4byte	.LASF440
 7431 0a59 05       		.byte	0x5
 7432 0a5a 00       		.uleb128 0
 7433 0a5b 08970000 		.4byte	.LASF441
 7434 0a5f 05       		.byte	0x5
 7435 0a60 00       		.uleb128 0
 7436 0a61 57FE0000 		.4byte	.LASF442
 7437 0a65 05       		.byte	0x5
 7438 0a66 00       		.uleb128 0
 7439 0a67 CA330000 		.4byte	.LASF443
 7440 0a6b 05       		.byte	0x5
 7441 0a6c 00       		.uleb128 0
 7442 0a6d 53810000 		.4byte	.LASF444
 7443 0a71 05       		.byte	0x5
 7444 0a72 00       		.uleb128 0
 7445 0a73 54100000 		.4byte	.LASF445
 7446 0a77 05       		.byte	0x5
 7447 0a78 00       		.uleb128 0
 7448 0a79 8DBA0000 		.4byte	.LASF446
 7449 0a7d 05       		.byte	0x5
 7450 0a7e 00       		.uleb128 0
 7451 0a7f A8990000 		.4byte	.LASF447
 7452 0a83 05       		.byte	0x5
 7453 0a84 00       		.uleb128 0
 7454 0a85 75CC0000 		.4byte	.LASF448
 7455 0a89 05       		.byte	0x5
 7456 0a8a 00       		.uleb128 0
 7457 0a8b 4DEB0000 		.4byte	.LASF449
 7458 0a8f 05       		.byte	0x5
 7459 0a90 00       		.uleb128 0
 7460 0a91 76790000 		.4byte	.LASF450
 7461 0a95 05       		.byte	0x5
 7462 0a96 00       		.uleb128 0
 7463 0a97 AC320000 		.4byte	.LASF451
 7464 0a9b 05       		.byte	0x5
 7465 0a9c 00       		.uleb128 0
ARM GAS  /tmp/cceRHmPh.s 			page 132


 7466 0a9d C4590000 		.4byte	.LASF452
 7467 0aa1 05       		.byte	0x5
 7468 0aa2 00       		.uleb128 0
 7469 0aa3 29460000 		.4byte	.LASF453
 7470 0aa7 05       		.byte	0x5
 7471 0aa8 00       		.uleb128 0
 7472 0aa9 92320000 		.4byte	.LASF454
 7473 0aad 05       		.byte	0x5
 7474 0aae 00       		.uleb128 0
 7475 0aaf D70C0000 		.4byte	.LASF455
 7476 0ab3 05       		.byte	0x5
 7477 0ab4 00       		.uleb128 0
 7478 0ab5 D2F50000 		.4byte	.LASF456
 7479 0ab9 05       		.byte	0x5
 7480 0aba 00       		.uleb128 0
 7481 0abb 8DCB0000 		.4byte	.LASF457
 7482 0abf 05       		.byte	0x5
 7483 0ac0 00       		.uleb128 0
 7484 0ac1 0E400000 		.4byte	.LASF458
 7485 0ac5 05       		.byte	0x5
 7486 0ac6 00       		.uleb128 0
 7487 0ac7 C33D0000 		.4byte	.LASF459
 7488 0acb 05       		.byte	0x5
 7489 0acc 00       		.uleb128 0
 7490 0acd 89160000 		.4byte	.LASF460
 7491 0ad1 05       		.byte	0x5
 7492 0ad2 00       		.uleb128 0
 7493 0ad3 0C740000 		.4byte	.LASF461
 7494 0ad7 05       		.byte	0x5
 7495 0ad8 00       		.uleb128 0
 7496 0ad9 E87E0000 		.4byte	.LASF462
 7497 0add 05       		.byte	0x5
 7498 0ade 00       		.uleb128 0
 7499 0adf 35CB0000 		.4byte	.LASF463
 7500 0ae3 05       		.byte	0x5
 7501 0ae4 00       		.uleb128 0
 7502 0ae5 C18B0000 		.4byte	.LASF464
 7503 0ae9 05       		.byte	0x5
 7504 0aea 00       		.uleb128 0
 7505 0aeb 65540000 		.4byte	.LASF465
 7506 0aef 05       		.byte	0x5
 7507 0af0 00       		.uleb128 0
 7508 0af1 6CCF0000 		.4byte	.LASF466
 7509 0af5 05       		.byte	0x5
 7510 0af6 00       		.uleb128 0
 7511 0af7 B9C30000 		.4byte	.LASF467
 7512 0afb 05       		.byte	0x5
 7513 0afc 00       		.uleb128 0
 7514 0afd 42E80000 		.4byte	.LASF468
 7515 0b01 05       		.byte	0x5
 7516 0b02 00       		.uleb128 0
 7517 0b03 8BD10000 		.4byte	.LASF469
 7518 0b07 05       		.byte	0x5
 7519 0b08 00       		.uleb128 0
 7520 0b09 5E430000 		.4byte	.LASF470
 7521 0b0d 05       		.byte	0x5
 7522 0b0e 00       		.uleb128 0
ARM GAS  /tmp/cceRHmPh.s 			page 133


 7523 0b0f C04C0000 		.4byte	.LASF471
 7524 0b13 05       		.byte	0x5
 7525 0b14 00       		.uleb128 0
 7526 0b15 2FFC0000 		.4byte	.LASF472
 7527 0b19 05       		.byte	0x5
 7528 0b1a 00       		.uleb128 0
 7529 0b1b B7420000 		.4byte	.LASF473
 7530 0b1f 05       		.byte	0x5
 7531 0b20 00       		.uleb128 0
 7532 0b21 F0AF0000 		.4byte	.LASF474
 7533 0b25 05       		.byte	0x5
 7534 0b26 00       		.uleb128 0
 7535 0b27 B0CA0000 		.4byte	.LASF475
 7536 0b2b 05       		.byte	0x5
 7537 0b2c 00       		.uleb128 0
 7538 0b2d 8E4B0000 		.4byte	.LASF476
 7539 0b31 05       		.byte	0x5
 7540 0b32 00       		.uleb128 0
 7541 0b33 E0930000 		.4byte	.LASF477
 7542 0b37 05       		.byte	0x5
 7543 0b38 00       		.uleb128 0
 7544 0b39 E4F30000 		.4byte	.LASF478
 7545 0b3d 05       		.byte	0x5
 7546 0b3e 00       		.uleb128 0
 7547 0b3f B26F0000 		.4byte	.LASF479
 7548 0b43 05       		.byte	0x5
 7549 0b44 00       		.uleb128 0
 7550 0b45 B0800000 		.4byte	.LASF480
 7551 0b49 05       		.byte	0x5
 7552 0b4a 00       		.uleb128 0
 7553 0b4b 91990000 		.4byte	.LASF481
 7554 0b4f 05       		.byte	0x5
 7555 0b50 00       		.uleb128 0
 7556 0b51 70820000 		.4byte	.LASF482
 7557 0b55 05       		.byte	0x5
 7558 0b56 00       		.uleb128 0
 7559 0b57 73A20000 		.4byte	.LASF483
 7560 0b5b 05       		.byte	0x5
 7561 0b5c 00       		.uleb128 0
 7562 0b5d 4FC10000 		.4byte	.LASF484
 7563 0b61 05       		.byte	0x5
 7564 0b62 00       		.uleb128 0
 7565 0b63 BD360000 		.4byte	.LASF485
 7566 0b67 05       		.byte	0x5
 7567 0b68 00       		.uleb128 0
 7568 0b69 FFFD0000 		.4byte	.LASF486
 7569 0b6d 05       		.byte	0x5
 7570 0b6e 00       		.uleb128 0
 7571 0b6f 614F0000 		.4byte	.LASF487
 7572 0b73 05       		.byte	0x5
 7573 0b74 00       		.uleb128 0
 7574 0b75 BDCE0000 		.4byte	.LASF488
 7575 0b79 05       		.byte	0x5
 7576 0b7a 00       		.uleb128 0
 7577 0b7b 5BCF0000 		.4byte	.LASF489
 7578 0b7f 05       		.byte	0x5
 7579 0b80 00       		.uleb128 0
ARM GAS  /tmp/cceRHmPh.s 			page 134


 7580 0b81 057E0000 		.4byte	.LASF490
 7581 0b85 05       		.byte	0x5
 7582 0b86 00       		.uleb128 0
 7583 0b87 F0EB0000 		.4byte	.LASF491
 7584 0b8b 05       		.byte	0x5
 7585 0b8c 00       		.uleb128 0
 7586 0b8d 33540000 		.4byte	.LASF492
 7587 0b91 05       		.byte	0x5
 7588 0b92 00       		.uleb128 0
 7589 0b93 4D250000 		.4byte	.LASF493
 7590 0b97 05       		.byte	0x5
 7591 0b98 00       		.uleb128 0
 7592 0b99 C2E60000 		.4byte	.LASF494
 7593 0b9d 05       		.byte	0x5
 7594 0b9e 00       		.uleb128 0
 7595 0b9f AD270000 		.4byte	.LASF495
 7596 0ba3 05       		.byte	0x5
 7597 0ba4 00       		.uleb128 0
 7598 0ba5 5CE60000 		.4byte	.LASF496
 7599 0ba9 05       		.byte	0x5
 7600 0baa 00       		.uleb128 0
 7601 0bab 9F740000 		.4byte	.LASF497
 7602 0baf 05       		.byte	0x5
 7603 0bb0 00       		.uleb128 0
 7604 0bb1 A3E40000 		.4byte	.LASF498
 7605 0bb5 05       		.byte	0x5
 7606 0bb6 00       		.uleb128 0
 7607 0bb7 734D0000 		.4byte	.LASF499
 7608 0bbb 05       		.byte	0x5
 7609 0bbc 00       		.uleb128 0
 7610 0bbd 0FC90000 		.4byte	.LASF500
 7611 0bc1 05       		.byte	0x5
 7612 0bc2 00       		.uleb128 0
 7613 0bc3 AB0F0000 		.4byte	.LASF501
 7614 0bc7 05       		.byte	0x5
 7615 0bc8 00       		.uleb128 0
 7616 0bc9 CEFE0000 		.4byte	.LASF502
 7617 0bcd 05       		.byte	0x5
 7618 0bce 00       		.uleb128 0
 7619 0bcf 438B0000 		.4byte	.LASF503
 7620 0bd3 05       		.byte	0x5
 7621 0bd4 00       		.uleb128 0
 7622 0bd5 80130000 		.4byte	.LASF504
 7623 0bd9 05       		.byte	0x5
 7624 0bda 00       		.uleb128 0
 7625 0bdb ED2A0000 		.4byte	.LASF505
 7626 0bdf 05       		.byte	0x5
 7627 0be0 00       		.uleb128 0
 7628 0be1 66250000 		.4byte	.LASF506
 7629 0be5 05       		.byte	0x5
 7630 0be6 00       		.uleb128 0
 7631 0be7 6BE60000 		.4byte	.LASF507
 7632 0beb 05       		.byte	0x5
 7633 0bec 00       		.uleb128 0
 7634 0bed A5CA0000 		.4byte	.LASF508
 7635 0bf1 05       		.byte	0x5
 7636 0bf2 00       		.uleb128 0
ARM GAS  /tmp/cceRHmPh.s 			page 135


 7637 0bf3 9A830000 		.4byte	.LASF509
 7638 0bf7 05       		.byte	0x5
 7639 0bf8 00       		.uleb128 0
 7640 0bf9 74A40000 		.4byte	.LASF510
 7641 0bfd 05       		.byte	0x5
 7642 0bfe 00       		.uleb128 0
 7643 0bff 40250000 		.4byte	.LASF511
 7644 0c03 05       		.byte	0x5
 7645 0c04 00       		.uleb128 0
 7646 0c05 8CE20000 		.4byte	.LASF512
 7647 0c09 05       		.byte	0x5
 7648 0c0a 00       		.uleb128 0
 7649 0c0b 64220000 		.4byte	.LASF513
 7650 0c0f 05       		.byte	0x5
 7651 0c10 00       		.uleb128 0
 7652 0c11 06220000 		.4byte	.LASF514
 7653 0c15 05       		.byte	0x5
 7654 0c16 00       		.uleb128 0
 7655 0c17 0B520000 		.4byte	.LASF515
 7656 0c1b 05       		.byte	0x5
 7657 0c1c 00       		.uleb128 0
 7658 0c1d D4310000 		.4byte	.LASF516
 7659 0c21 05       		.byte	0x5
 7660 0c22 00       		.uleb128 0
 7661 0c23 73E10000 		.4byte	.LASF517
 7662 0c27 00       		.byte	0
 7663              		.section	.debug_macro,"G",%progbits,wm4.pprz_geodetic.h.35.f3fa96d246078502d67afc0af687adaf,comdat
 7664              	.Ldebug_macro3:
 7665 0000 0400     		.2byte	0x4
 7666 0002 00       		.byte	0
 7667 0003 05       		.byte	0x5
 7668 0004 23       		.uleb128 0x23
 7669 0005 290D0000 		.4byte	.LASF519
 7670 0009 05       		.byte	0x5
 7671 000a 29       		.uleb128 0x29
 7672 000b 05850000 		.4byte	.LASF520
 7673 000f 05       		.byte	0x5
 7674 0010 2F       		.uleb128 0x2f
 7675 0011 D0AB0000 		.4byte	.LASF521
 7676 0015 05       		.byte	0x5
 7677 0016 34       		.uleb128 0x34
 7678 0017 80AC0000 		.4byte	.LASF522
 7679 001b 05       		.byte	0x5
 7680 001c 3A       		.uleb128 0x3a
 7681 001d 68100000 		.4byte	.LASF523
 7682 0021 05       		.byte	0x5
 7683 0022 40       		.uleb128 0x40
 7684 0023 B9040100 		.4byte	.LASF524
 7685 0027 05       		.byte	0x5
 7686 0028 47       		.uleb128 0x47
 7687 0029 35400000 		.4byte	.LASF525
 7688 002d 05       		.byte	0x5
 7689 002e 4E       		.uleb128 0x4e
 7690 002f E6000100 		.4byte	.LASF526
 7691 0033 05       		.byte	0x5
 7692 0034 54       		.uleb128 0x54
 7693 0035 E8D90000 		.4byte	.LASF527
ARM GAS  /tmp/cceRHmPh.s 			page 136


 7694 0039 05       		.byte	0x5
 7695 003a 5A       		.uleb128 0x5a
 7696 003b 8D790000 		.4byte	.LASF528
 7697 003f 05       		.byte	0x5
 7698 0040 60       		.uleb128 0x60
 7699 0041 28E50000 		.4byte	.LASF529
 7700 0045 00       		.byte	0
 7701              		.section	.debug_macro,"G",%progbits,wm4.float.h.29.cae0b78251c51e3ff449cb238a29ed5b,comdat
 7702              	.Ldebug_macro4:
 7703 0000 0400     		.2byte	0x4
 7704 0002 00       		.byte	0
 7705 0003 05       		.byte	0x5
 7706 0004 1D       		.uleb128 0x1d
 7707 0005 A0050100 		.4byte	.LASF532
 7708 0009 06       		.byte	0x6
 7709 000a 20       		.uleb128 0x20
 7710 000b AD050000 		.4byte	.LASF533
 7711 000f 05       		.byte	0x5
 7712 0010 21       		.uleb128 0x21
 7713 0011 74780000 		.4byte	.LASF534
 7714 0015 06       		.byte	0x6
 7715 0016 24       		.uleb128 0x24
 7716 0017 76760000 		.4byte	.LASF535
 7717 001b 06       		.byte	0x6
 7718 001c 25       		.uleb128 0x25
 7719 001d 32A20000 		.4byte	.LASF536
 7720 0021 06       		.byte	0x6
 7721 0022 26       		.uleb128 0x26
 7722 0023 0C9A0000 		.4byte	.LASF537
 7723 0027 05       		.byte	0x5
 7724 0028 27       		.uleb128 0x27
 7725 0029 CF2E0000 		.4byte	.LASF538
 7726 002d 05       		.byte	0x5
 7727 002e 28       		.uleb128 0x28
 7728 002f 015B0000 		.4byte	.LASF539
 7729 0033 05       		.byte	0x5
 7730 0034 29       		.uleb128 0x29
 7731 0035 C7010100 		.4byte	.LASF540
 7732 0039 06       		.byte	0x6
 7733 003a 32       		.uleb128 0x32
 7734 003b 240C0000 		.4byte	.LASF541
 7735 003f 06       		.byte	0x6
 7736 0040 33       		.uleb128 0x33
 7737 0041 0E800000 		.4byte	.LASF542
 7738 0045 06       		.byte	0x6
 7739 0046 34       		.uleb128 0x34
 7740 0047 E1F40000 		.4byte	.LASF543
 7741 004b 05       		.byte	0x5
 7742 004c 35       		.uleb128 0x35
 7743 004d 77F90000 		.4byte	.LASF544
 7744 0051 05       		.byte	0x5
 7745 0052 36       		.uleb128 0x36
 7746 0053 53EC0000 		.4byte	.LASF545
 7747 0057 05       		.byte	0x5
 7748 0058 37       		.uleb128 0x37
 7749 0059 AC130000 		.4byte	.LASF546
 7750 005d 06       		.byte	0x6
ARM GAS  /tmp/cceRHmPh.s 			page 137


 7751 005e 3A       		.uleb128 0x3a
 7752 005f 49350000 		.4byte	.LASF547
 7753 0063 06       		.byte	0x6
 7754 0064 3B       		.uleb128 0x3b
 7755 0065 31820000 		.4byte	.LASF548
 7756 0069 06       		.byte	0x6
 7757 006a 3C       		.uleb128 0x3c
 7758 006b C1510000 		.4byte	.LASF549
 7759 006f 05       		.byte	0x5
 7760 0070 3D       		.uleb128 0x3d
 7761 0071 06170000 		.4byte	.LASF550
 7762 0075 05       		.byte	0x5
 7763 0076 3E       		.uleb128 0x3e
 7764 0077 08130000 		.4byte	.LASF551
 7765 007b 05       		.byte	0x5
 7766 007c 3F       		.uleb128 0x3f
 7767 007d 79600000 		.4byte	.LASF552
 7768 0081 06       		.byte	0x6
 7769 0082 46       		.uleb128 0x46
 7770 0083 D8D50000 		.4byte	.LASF553
 7771 0087 06       		.byte	0x6
 7772 0088 47       		.uleb128 0x47
 7773 0089 94420000 		.4byte	.LASF554
 7774 008d 06       		.byte	0x6
 7775 008e 48       		.uleb128 0x48
 7776 008f DFD40000 		.4byte	.LASF555
 7777 0093 05       		.byte	0x5
 7778 0094 49       		.uleb128 0x49
 7779 0095 0E070000 		.4byte	.LASF556
 7780 0099 05       		.byte	0x5
 7781 009a 4A       		.uleb128 0x4a
 7782 009b 41480000 		.4byte	.LASF557
 7783 009f 05       		.byte	0x5
 7784 00a0 4B       		.uleb128 0x4b
 7785 00a1 E8600000 		.4byte	.LASF558
 7786 00a5 06       		.byte	0x6
 7787 00a6 4E       		.uleb128 0x4e
 7788 00a7 DC970000 		.4byte	.LASF559
 7789 00ab 06       		.byte	0x6
 7790 00ac 4F       		.uleb128 0x4f
 7791 00ad 34000100 		.4byte	.LASF560
 7792 00b1 06       		.byte	0x6
 7793 00b2 50       		.uleb128 0x50
 7794 00b3 FFC30000 		.4byte	.LASF561
 7795 00b7 05       		.byte	0x5
 7796 00b8 51       		.uleb128 0x51
 7797 00b9 A5510000 		.4byte	.LASF562
 7798 00bd 05       		.byte	0x5
 7799 00be 52       		.uleb128 0x52
 7800 00bf 9EE90000 		.4byte	.LASF563
 7801 00c3 05       		.byte	0x5
 7802 00c4 53       		.uleb128 0x53
 7803 00c5 2D5C0000 		.4byte	.LASF564
 7804 00c9 06       		.byte	0x6
 7805 00ca 5A       		.uleb128 0x5a
 7806 00cb 75750000 		.4byte	.LASF565
 7807 00cf 06       		.byte	0x6
ARM GAS  /tmp/cceRHmPh.s 			page 138


 7808 00d0 5B       		.uleb128 0x5b
 7809 00d1 4EEF0000 		.4byte	.LASF566
 7810 00d5 06       		.byte	0x6
 7811 00d6 5C       		.uleb128 0x5c
 7812 00d7 61740000 		.4byte	.LASF567
 7813 00db 05       		.byte	0x5
 7814 00dc 5D       		.uleb128 0x5d
 7815 00dd C1E50000 		.4byte	.LASF568
 7816 00e1 05       		.byte	0x5
 7817 00e2 5E       		.uleb128 0x5e
 7818 00e3 791E0000 		.4byte	.LASF569
 7819 00e7 05       		.byte	0x5
 7820 00e8 5F       		.uleb128 0x5f
 7821 00e9 90AE0000 		.4byte	.LASF570
 7822 00ed 06       		.byte	0x6
 7823 00ee 65       		.uleb128 0x65
 7824 00ef 1DD10000 		.4byte	.LASF571
 7825 00f3 06       		.byte	0x6
 7826 00f4 66       		.uleb128 0x66
 7827 00f5 ABBC0000 		.4byte	.LASF572
 7828 00f9 06       		.byte	0x6
 7829 00fa 67       		.uleb128 0x67
 7830 00fb EBB60000 		.4byte	.LASF573
 7831 00ff 05       		.byte	0x5
 7832 0100 68       		.uleb128 0x68
 7833 0101 67320000 		.4byte	.LASF574
 7834 0105 05       		.byte	0x5
 7835 0106 69       		.uleb128 0x69
 7836 0107 A2430000 		.4byte	.LASF575
 7837 010b 05       		.byte	0x5
 7838 010c 6A       		.uleb128 0x6a
 7839 010d 2C680000 		.4byte	.LASF576
 7840 0111 06       		.byte	0x6
 7841 0112 6E       		.uleb128 0x6e
 7842 0113 3BCE0000 		.4byte	.LASF577
 7843 0117 06       		.byte	0x6
 7844 0118 6F       		.uleb128 0x6f
 7845 0119 32CA0000 		.4byte	.LASF578
 7846 011d 06       		.byte	0x6
 7847 011e 70       		.uleb128 0x70
 7848 011f 97FE0000 		.4byte	.LASF579
 7849 0123 05       		.byte	0x5
 7850 0124 71       		.uleb128 0x71
 7851 0125 087C0000 		.4byte	.LASF580
 7852 0129 05       		.byte	0x5
 7853 012a 72       		.uleb128 0x72
 7854 012b 53460000 		.4byte	.LASF581
 7855 012f 05       		.byte	0x5
 7856 0130 73       		.uleb128 0x73
 7857 0131 F5B90000 		.4byte	.LASF582
 7858 0135 06       		.byte	0x6
 7859 0136 76       		.uleb128 0x76
 7860 0137 F5650000 		.4byte	.LASF583
 7861 013b 06       		.byte	0x6
 7862 013c 77       		.uleb128 0x77
 7863 013d ABD50000 		.4byte	.LASF584
 7864 0141 06       		.byte	0x6
ARM GAS  /tmp/cceRHmPh.s 			page 139


 7865 0142 78       		.uleb128 0x78
 7866 0143 1AD30000 		.4byte	.LASF585
 7867 0147 05       		.byte	0x5
 7868 0148 79       		.uleb128 0x79
 7869 0149 DE4E0000 		.4byte	.LASF586
 7870 014d 05       		.byte	0x5
 7871 014e 7A       		.uleb128 0x7a
 7872 014f 267A0000 		.4byte	.LASF587
 7873 0153 05       		.byte	0x5
 7874 0154 7B       		.uleb128 0x7b
 7875 0155 29A70000 		.4byte	.LASF588
 7876 0159 06       		.byte	0x6
 7877 015a 7F       		.uleb128 0x7f
 7878 015b 85080000 		.4byte	.LASF589
 7879 015f 05       		.byte	0x5
 7880 0160 8001     		.uleb128 0x80
 7881 0162 DAAE0000 		.4byte	.LASF590
 7882 0166 06       		.byte	0x6
 7883 0167 C101     		.uleb128 0xc1
 7884 0169 16480000 		.4byte	.LASF591
 7885 016d 05       		.byte	0x5
 7886 016e C501     		.uleb128 0xc5
 7887 0170 DD3F0000 		.4byte	.LASF592
 7888 0174 06       		.byte	0x6
 7889 0175 D001     		.uleb128 0xd0
 7890 0177 DC7D0000 		.4byte	.LASF593
 7891 017b 05       		.byte	0x5
 7892 017c D101     		.uleb128 0xd1
 7893 017e EB6F0000 		.4byte	.LASF594
 7894 0182 00       		.byte	0
 7895              		.section	.debug_macro,"G",%progbits,wm4._newlib_version.h.4.1ef4e12f167f8b69d7c30054be56050d,comda
 7896              	.Ldebug_macro5:
 7897 0000 0400     		.2byte	0x4
 7898 0002 00       		.byte	0
 7899 0003 05       		.byte	0x5
 7900 0004 04       		.uleb128 0x4
 7901 0005 50710000 		.4byte	.LASF598
 7902 0009 05       		.byte	0x5
 7903 000a 06       		.uleb128 0x6
 7904 000b 71770000 		.4byte	.LASF599
 7905 000f 05       		.byte	0x5
 7906 0010 07       		.uleb128 0x7
 7907 0011 7A730000 		.4byte	.LASF600
 7908 0015 05       		.byte	0x5
 7909 0016 08       		.uleb128 0x8
 7910 0017 4B470000 		.4byte	.LASF601
 7911 001b 05       		.byte	0x5
 7912 001c 09       		.uleb128 0x9
 7913 001d C2500000 		.4byte	.LASF602
 7914 0021 00       		.byte	0
 7915              		.section	.debug_macro,"G",%progbits,wm4.newlib.h.21.1ae2897bc09bbe4bc80ffb801fb02432,comdat
 7916              	.Ldebug_macro6:
 7917 0000 0400     		.2byte	0x4
 7918 0002 00       		.byte	0
 7919 0003 05       		.byte	0x5
 7920 0004 15       		.uleb128 0x15
 7921 0005 67CE0000 		.4byte	.LASF603
ARM GAS  /tmp/cceRHmPh.s 			page 140


 7922 0009 05       		.byte	0x5
 7923 000a 18       		.uleb128 0x18
 7924 000b 1D150000 		.4byte	.LASF604
 7925 000f 05       		.byte	0x5
 7926 0010 25       		.uleb128 0x25
 7927 0011 5C520000 		.4byte	.LASF605
 7928 0015 05       		.byte	0x5
 7929 0016 2B       		.uleb128 0x2b
 7930 0017 68150000 		.4byte	.LASF606
 7931 001b 05       		.byte	0x5
 7932 001c 35       		.uleb128 0x35
 7933 001d 8C430000 		.4byte	.LASF607
 7934 0021 05       		.byte	0x5
 7935 0022 39       		.uleb128 0x39
 7936 0023 C3490000 		.4byte	.LASF608
 7937 0027 05       		.byte	0x5
 7938 0028 3C       		.uleb128 0x3c
 7939 0029 C26C0000 		.4byte	.LASF609
 7940 002d 05       		.byte	0x5
 7941 002e 3F       		.uleb128 0x3f
 7942 002f 1DB90000 		.4byte	.LASF610
 7943 0033 05       		.byte	0x5
 7944 0034 42       		.uleb128 0x42
 7945 0035 75050100 		.4byte	.LASF611
 7946 0039 05       		.byte	0x5
 7947 003a 45       		.uleb128 0x45
 7948 003b 71D50000 		.4byte	.LASF612
 7949 003f 05       		.byte	0x5
 7950 0040 48       		.uleb128 0x48
 7951 0041 8FF70000 		.4byte	.LASF613
 7952 0045 05       		.byte	0x5
 7953 0046 4B       		.uleb128 0x4b
 7954 0047 23F20000 		.4byte	.LASF614
 7955 004b 05       		.byte	0x5
 7956 004c 4E       		.uleb128 0x4e
 7957 004d 3F770000 		.4byte	.LASF615
 7958 0051 00       		.byte	0
 7959              		.section	.debug_macro,"G",%progbits,wm4.ieeefp.h.77.f33a4dce62116f6f5175ff8bae57a54c,comdat
 7960              	.Ldebug_macro7:
 7961 0000 0400     		.2byte	0x4
 7962 0002 00       		.byte	0
 7963 0003 05       		.byte	0x5
 7964 0004 4D       		.uleb128 0x4d
 7965 0005 6E890000 		.4byte	.LASF617
 7966 0009 05       		.byte	0x5
 7967 000a D903     		.uleb128 0x1d9
 7968 000c F1470000 		.4byte	.LASF618
 7969 0010 05       		.byte	0x5
 7970 0011 DC03     		.uleb128 0x1dc
 7971 0013 B7EE0000 		.4byte	.LASF619
 7972 0017 00       		.byte	0
 7973              		.section	.debug_macro,"G",%progbits,wm4.features.h.22.026edb2397769f4ae13f35900dbdb560,comdat
 7974              	.Ldebug_macro8:
 7975 0000 0400     		.2byte	0x4
 7976 0002 00       		.byte	0
 7977 0003 05       		.byte	0x5
 7978 0004 16       		.uleb128 0x16
ARM GAS  /tmp/cceRHmPh.s 			page 141


 7979 0005 EFD30000 		.4byte	.LASF620
 7980 0009 05       		.byte	0x5
 7981 000a 21       		.uleb128 0x21
 7982 000b C1B10000 		.4byte	.LASF621
 7983 000f 05       		.byte	0x5
 7984 0010 28       		.uleb128 0x28
 7985 0011 7AD70000 		.4byte	.LASF622
 7986 0015 06       		.byte	0x6
 7987 0016 8301     		.uleb128 0x83
 7988 0018 C6450000 		.4byte	.LASF623
 7989 001c 05       		.byte	0x5
 7990 001d 8401     		.uleb128 0x84
 7991 001f CC470000 		.4byte	.LASF624
 7992 0023 06       		.byte	0x6
 7993 0024 8801     		.uleb128 0x88
 7994 0026 28370000 		.4byte	.LASF625
 7995 002a 05       		.byte	0x5
 7996 002b 8901     		.uleb128 0x89
 7997 002d 52DE0000 		.4byte	.LASF626
 7998 0031 06       		.byte	0x6
 7999 0032 8A01     		.uleb128 0x8a
 8000 0034 51740000 		.4byte	.LASF627
 8001 0038 05       		.byte	0x5
 8002 0039 8B01     		.uleb128 0x8b
 8003 003b 82BE0000 		.4byte	.LASF628
 8004 003f 06       		.byte	0x6
 8005 0040 9E01     		.uleb128 0x9e
 8006 0042 46EA0000 		.4byte	.LASF629
 8007 0046 05       		.byte	0x5
 8008 0047 9F01     		.uleb128 0x9f
 8009 0049 2DD70000 		.4byte	.LASF630
 8010 004d 05       		.byte	0x5
 8011 004e F701     		.uleb128 0xf7
 8012 0050 9AA60000 		.4byte	.LASF631
 8013 0054 05       		.byte	0x5
 8014 0055 FD01     		.uleb128 0xfd
 8015 0057 E2C30000 		.4byte	.LASF632
 8016 005b 05       		.byte	0x5
 8017 005c 8502     		.uleb128 0x105
 8018 005e CCD10000 		.4byte	.LASF633
 8019 0062 05       		.byte	0x5
 8020 0063 8D02     		.uleb128 0x10d
 8021 0065 7EB90000 		.4byte	.LASF634
 8022 0069 05       		.byte	0x5
 8023 006a 9502     		.uleb128 0x115
 8024 006c 72FC0000 		.4byte	.LASF635
 8025 0070 05       		.byte	0x5
 8026 0071 9902     		.uleb128 0x119
 8027 0073 4C030000 		.4byte	.LASF636
 8028 0077 05       		.byte	0x5
 8029 0078 9F02     		.uleb128 0x11f
 8030 007a 63730000 		.4byte	.LASF637
 8031 007e 05       		.byte	0x5
 8032 007f AF02     		.uleb128 0x12f
 8033 0081 035C0000 		.4byte	.LASF638
 8034 0085 05       		.byte	0x5
 8035 0086 BF02     		.uleb128 0x13f
ARM GAS  /tmp/cceRHmPh.s 			page 142


 8036 0088 FDB60000 		.4byte	.LASF639
 8037 008c 05       		.byte	0x5
 8038 008d CA02     		.uleb128 0x14a
 8039 008f BDD30000 		.4byte	.LASF640
 8040 0093 00       		.byte	0
 8041              		.section	.debug_macro,"G",%progbits,wm4.config.h.224.c701144a7b0518c6ee9b9b5465b79f81,comdat
 8042              	.Ldebug_macro9:
 8043 0000 0400     		.2byte	0x4
 8044 0002 00       		.byte	0
 8045 0003 05       		.byte	0x5
 8046 0004 E001     		.uleb128 0xe0
 8047 0006 328D0000 		.4byte	.LASF641
 8048 000a 06       		.byte	0x6
 8049 000b E601     		.uleb128 0xe6
 8050 000d 3ED70000 		.4byte	.LASF642
 8051 0011 05       		.byte	0x5
 8052 0012 EA01     		.uleb128 0xea
 8053 0014 B44D0000 		.4byte	.LASF643
 8054 0018 05       		.byte	0x5
 8055 0019 FA01     		.uleb128 0xfa
 8056 001b B5AB0000 		.4byte	.LASF644
 8057 001f 05       		.byte	0x5
 8058 0020 FE01     		.uleb128 0xfe
 8059 0022 E6EB0000 		.4byte	.LASF645
 8060 0026 05       		.byte	0x5
 8061 0027 8502     		.uleb128 0x105
 8062 0029 D7C60000 		.4byte	.LASF646
 8063 002d 05       		.byte	0x5
 8064 002e 8B02     		.uleb128 0x10b
 8065 0030 E00B0000 		.4byte	.LASF647
 8066 0034 00       		.byte	0
 8067              		.section	.debug_macro,"G",%progbits,wm4._ansi.h.31.de524f58584151836e90d8620a16f8e8,comdat
 8068              	.Ldebug_macro10:
 8069 0000 0400     		.2byte	0x4
 8070 0002 00       		.byte	0
 8071 0003 05       		.byte	0x5
 8072 0004 1F       		.uleb128 0x1f
 8073 0005 D3300000 		.4byte	.LASF648
 8074 0009 05       		.byte	0x5
 8075 000a 20       		.uleb128 0x20
 8076 000b C3750000 		.4byte	.LASF649
 8077 000f 05       		.byte	0x5
 8078 0010 21       		.uleb128 0x21
 8079 0011 A3D80000 		.4byte	.LASF650
 8080 0015 05       		.byte	0x5
 8081 0016 25       		.uleb128 0x25
 8082 0017 CEED0000 		.4byte	.LASF651
 8083 001b 05       		.byte	0x5
 8084 001c 2B       		.uleb128 0x2b
 8085 001d ED3D0000 		.4byte	.LASF652
 8086 0021 05       		.byte	0x5
 8087 0022 45       		.uleb128 0x45
 8088 0023 A9D40000 		.4byte	.LASF653
 8089 0027 05       		.byte	0x5
 8090 0028 49       		.uleb128 0x49
 8091 0029 F1170000 		.4byte	.LASF654
 8092 002d 05       		.byte	0x5
ARM GAS  /tmp/cceRHmPh.s 			page 143


 8093 002e 4A       		.uleb128 0x4a
 8094 002f ACED0000 		.4byte	.LASF655
 8095 0033 00       		.byte	0
 8096              		.section	.debug_macro,"G",%progbits,wm4.stddef.h.39.27677723d43e5b5a7afdf8d798429f1d,comdat
 8097              	.Ldebug_macro11:
 8098 0000 0400     		.2byte	0x4
 8099 0002 00       		.byte	0
 8100 0003 05       		.byte	0x5
 8101 0004 27       		.uleb128 0x27
 8102 0005 3DD20000 		.4byte	.LASF657
 8103 0009 05       		.byte	0x5
 8104 000a 28       		.uleb128 0x28
 8105 000b 93D60000 		.4byte	.LASF658
 8106 000f 05       		.byte	0x5
 8107 0010 2A       		.uleb128 0x2a
 8108 0011 9C940000 		.4byte	.LASF659
 8109 0015 05       		.byte	0x5
 8110 0016 8301     		.uleb128 0x83
 8111 0018 3F430000 		.4byte	.LASF660
 8112 001c 05       		.byte	0x5
 8113 001d 8401     		.uleb128 0x84
 8114 001f 9C140000 		.4byte	.LASF661
 8115 0023 05       		.byte	0x5
 8116 0024 8501     		.uleb128 0x85
 8117 0026 A5C60000 		.4byte	.LASF662
 8118 002a 05       		.byte	0x5
 8119 002b 8601     		.uleb128 0x86
 8120 002d 7EAD0000 		.4byte	.LASF663
 8121 0031 05       		.byte	0x5
 8122 0032 8701     		.uleb128 0x87
 8123 0034 17AC0000 		.4byte	.LASF664
 8124 0038 05       		.byte	0x5
 8125 0039 8801     		.uleb128 0x88
 8126 003b 06DB0000 		.4byte	.LASF665
 8127 003f 05       		.byte	0x5
 8128 0040 8901     		.uleb128 0x89
 8129 0042 55E10000 		.4byte	.LASF666
 8130 0046 05       		.byte	0x5
 8131 0047 8A01     		.uleb128 0x8a
 8132 0049 FC340000 		.4byte	.LASF667
 8133 004d 05       		.byte	0x5
 8134 004e 8B01     		.uleb128 0x8b
 8135 0050 AD3E0000 		.4byte	.LASF668
 8136 0054 06       		.byte	0x6
 8137 0055 9B01     		.uleb128 0x9b
 8138 0057 B1620000 		.4byte	.LASF669
 8139 005b 05       		.byte	0x5
 8140 005c B501     		.uleb128 0xb5
 8141 005e B58B0000 		.4byte	.LASF670
 8142 0062 05       		.byte	0x5
 8143 0063 B601     		.uleb128 0xb6
 8144 0065 5AFB0000 		.4byte	.LASF671
 8145 0069 05       		.byte	0x5
 8146 006a B701     		.uleb128 0xb7
 8147 006c 79BE0000 		.4byte	.LASF672
 8148 0070 05       		.byte	0x5
 8149 0071 B801     		.uleb128 0xb8
ARM GAS  /tmp/cceRHmPh.s 			page 144


 8150 0073 607F0000 		.4byte	.LASF673
 8151 0077 05       		.byte	0x5
 8152 0078 B901     		.uleb128 0xb9
 8153 007a C7260000 		.4byte	.LASF674
 8154 007e 05       		.byte	0x5
 8155 007f BA01     		.uleb128 0xba
 8156 0081 45B30000 		.4byte	.LASF675
 8157 0085 05       		.byte	0x5
 8158 0086 BB01     		.uleb128 0xbb
 8159 0088 1BB10000 		.4byte	.LASF676
 8160 008c 05       		.byte	0x5
 8161 008d BC01     		.uleb128 0xbc
 8162 008f DE600000 		.4byte	.LASF677
 8163 0093 05       		.byte	0x5
 8164 0094 BD01     		.uleb128 0xbd
 8165 0096 C4F50000 		.4byte	.LASF678
 8166 009a 05       		.byte	0x5
 8167 009b BE01     		.uleb128 0xbe
 8168 009d 85580000 		.4byte	.LASF679
 8169 00a1 05       		.byte	0x5
 8170 00a2 BF01     		.uleb128 0xbf
 8171 00a4 64C10000 		.4byte	.LASF680
 8172 00a8 05       		.byte	0x5
 8173 00a9 C001     		.uleb128 0xc0
 8174 00ab 231A0000 		.4byte	.LASF681
 8175 00af 05       		.byte	0x5
 8176 00b0 C101     		.uleb128 0xc1
 8177 00b2 6C300000 		.4byte	.LASF682
 8178 00b6 05       		.byte	0x5
 8179 00b7 C201     		.uleb128 0xc2
 8180 00b9 80570000 		.4byte	.LASF683
 8181 00bd 05       		.byte	0x5
 8182 00be C301     		.uleb128 0xc3
 8183 00c0 B7F70000 		.4byte	.LASF684
 8184 00c4 05       		.byte	0x5
 8185 00c5 C401     		.uleb128 0xc4
 8186 00c7 88D50000 		.4byte	.LASF685
 8187 00cb 05       		.byte	0x5
 8188 00cc CB01     		.uleb128 0xcb
 8189 00ce 3B370000 		.4byte	.LASF686
 8190 00d2 06       		.byte	0x6
 8191 00d3 E701     		.uleb128 0xe7
 8192 00d5 F3E40000 		.4byte	.LASF687
 8193 00d9 05       		.byte	0x5
 8194 00da 8402     		.uleb128 0x104
 8195 00dc 69760000 		.4byte	.LASF688
 8196 00e0 05       		.byte	0x5
 8197 00e1 8502     		.uleb128 0x105
 8198 00e3 47100000 		.4byte	.LASF689
 8199 00e7 05       		.byte	0x5
 8200 00e8 8602     		.uleb128 0x106
 8201 00ea 5D320000 		.4byte	.LASF690
 8202 00ee 05       		.byte	0x5
 8203 00ef 8702     		.uleb128 0x107
 8204 00f1 2AB80000 		.4byte	.LASF691
 8205 00f5 05       		.byte	0x5
 8206 00f6 8802     		.uleb128 0x108
ARM GAS  /tmp/cceRHmPh.s 			page 145


 8207 00f8 7F7C0000 		.4byte	.LASF692
 8208 00fc 05       		.byte	0x5
 8209 00fd 8902     		.uleb128 0x109
 8210 00ff 17DB0000 		.4byte	.LASF693
 8211 0103 05       		.byte	0x5
 8212 0104 8A02     		.uleb128 0x10a
 8213 0106 B17D0000 		.4byte	.LASF694
 8214 010a 05       		.byte	0x5
 8215 010b 8B02     		.uleb128 0x10b
 8216 010d BDD10000 		.4byte	.LASF695
 8217 0111 05       		.byte	0x5
 8218 0112 8C02     		.uleb128 0x10c
 8219 0114 DE470000 		.4byte	.LASF696
 8220 0118 05       		.byte	0x5
 8221 0119 8D02     		.uleb128 0x10d
 8222 011b 170D0000 		.4byte	.LASF697
 8223 011f 05       		.byte	0x5
 8224 0120 8E02     		.uleb128 0x10e
 8225 0122 424C0000 		.4byte	.LASF698
 8226 0126 05       		.byte	0x5
 8227 0127 8F02     		.uleb128 0x10f
 8228 0129 EABD0000 		.4byte	.LASF699
 8229 012d 05       		.byte	0x5
 8230 012e 9002     		.uleb128 0x110
 8231 0130 98360000 		.4byte	.LASF700
 8232 0134 05       		.byte	0x5
 8233 0135 9102     		.uleb128 0x111
 8234 0137 7C5D0000 		.4byte	.LASF701
 8235 013b 05       		.byte	0x5
 8236 013c 9202     		.uleb128 0x112
 8237 013e C2760000 		.4byte	.LASF702
 8238 0142 06       		.byte	0x6
 8239 0143 9F02     		.uleb128 0x11f
 8240 0145 6B600000 		.4byte	.LASF703
 8241 0149 06       		.byte	0x6
 8242 014a D402     		.uleb128 0x154
 8243 014c 68C60000 		.4byte	.LASF704
 8244 0150 06       		.byte	0x6
 8245 0151 8603     		.uleb128 0x186
 8246 0153 AF5A0000 		.4byte	.LASF705
 8247 0157 05       		.byte	0x5
 8248 0158 8B03     		.uleb128 0x18b
 8249 015a 7DC40000 		.4byte	.LASF706
 8250 015e 06       		.byte	0x6
 8251 015f 9103     		.uleb128 0x191
 8252 0161 56830000 		.4byte	.LASF707
 8253 0165 05       		.byte	0x5
 8254 0166 9603     		.uleb128 0x196
 8255 0168 62830000 		.4byte	.LASF708
 8256 016c 00       		.byte	0
 8257              		.section	.debug_macro,"G",%progbits,wm4._types.h.20.dd0d04dca3800a0d2a6129b87f3adbb2,comdat
 8258              	.Ldebug_macro12:
 8259 0000 0400     		.2byte	0x4
 8260 0002 00       		.byte	0
 8261 0003 05       		.byte	0x5
 8262 0004 14       		.uleb128 0x14
 8263 0005 9D850000 		.4byte	.LASF709
ARM GAS  /tmp/cceRHmPh.s 			page 146


 8264 0009 05       		.byte	0x5
 8265 000a 16       		.uleb128 0x16
 8266 000b A15E0000 		.4byte	.LASF710
 8267 000f 05       		.byte	0x5
 8268 0010 17       		.uleb128 0x17
 8269 0011 750F0000 		.4byte	.LASF711
 8270 0015 00       		.byte	0
 8271              		.section	.debug_macro,"G",%progbits,wm4.stddef.h.155.3588ebfdd1e8c7ede80509bb9c3b8009,comdat
 8272              	.Ldebug_macro13:
 8273 0000 0400     		.2byte	0x4
 8274 0002 00       		.byte	0
 8275 0003 06       		.byte	0x6
 8276 0004 9B01     		.uleb128 0x9b
 8277 0006 B1620000 		.4byte	.LASF669
 8278 000a 06       		.byte	0x6
 8279 000b E701     		.uleb128 0xe7
 8280 000d F3E40000 		.4byte	.LASF687
 8281 0011 06       		.byte	0x6
 8282 0012 D402     		.uleb128 0x154
 8283 0014 68C60000 		.4byte	.LASF704
 8284 0018 05       		.byte	0x5
 8285 0019 D902     		.uleb128 0x159
 8286 001b 40060000 		.4byte	.LASF712
 8287 001f 06       		.byte	0x6
 8288 0020 E002     		.uleb128 0x160
 8289 0022 66710000 		.4byte	.LASF713
 8290 0026 06       		.byte	0x6
 8291 0027 8603     		.uleb128 0x186
 8292 0029 AF5A0000 		.4byte	.LASF705
 8293 002d 05       		.byte	0x5
 8294 002e 8B03     		.uleb128 0x18b
 8295 0030 7DC40000 		.4byte	.LASF706
 8296 0034 06       		.byte	0x6
 8297 0035 9103     		.uleb128 0x191
 8298 0037 56830000 		.4byte	.LASF707
 8299 003b 05       		.byte	0x5
 8300 003c 9603     		.uleb128 0x196
 8301 003e 62830000 		.4byte	.LASF708
 8302 0042 00       		.byte	0
 8303              		.section	.debug_macro,"G",%progbits,wm4._default_types.h.6.959254cf5f09734ea7516c89e8bb21bd,comdat
 8304              	.Ldebug_macro14:
 8305 0000 0400     		.2byte	0x4
 8306 0002 00       		.byte	0
 8307 0003 05       		.byte	0x5
 8308 0004 06       		.uleb128 0x6
 8309 0005 3CC50000 		.4byte	.LASF715
 8310 0009 05       		.byte	0x5
 8311 000a 0F       		.uleb128 0xf
 8312 000b 632C0000 		.4byte	.LASF716
 8313 000f 05       		.byte	0x5
 8314 0010 1A       		.uleb128 0x1a
 8315 0011 FF070000 		.4byte	.LASF717
 8316 0015 05       		.byte	0x5
 8317 0016 21       		.uleb128 0x21
 8318 0017 CAE20000 		.4byte	.LASF718
 8319 001b 05       		.byte	0x5
 8320 001c 2F       		.uleb128 0x2f
ARM GAS  /tmp/cceRHmPh.s 			page 147


 8321 001d C1C10000 		.4byte	.LASF719
 8322 0021 05       		.byte	0x5
 8323 0022 3D       		.uleb128 0x3d
 8324 0023 454B0000 		.4byte	.LASF720
 8325 0027 05       		.byte	0x5
 8326 0028 53       		.uleb128 0x53
 8327 0029 DCE90000 		.4byte	.LASF721
 8328 002d 05       		.byte	0x5
 8329 002e 6D       		.uleb128 0x6d
 8330 002f 37520000 		.4byte	.LASF722
 8331 0033 05       		.byte	0x5
 8332 0034 8C01     		.uleb128 0x8c
 8333 0036 B1480000 		.4byte	.LASF723
 8334 003a 05       		.byte	0x5
 8335 003b A601     		.uleb128 0xa6
 8336 003d 37DE0000 		.4byte	.LASF724
 8337 0041 05       		.byte	0x5
 8338 0042 BC01     		.uleb128 0xbc
 8339 0044 84B20000 		.4byte	.LASF725
 8340 0048 05       		.byte	0x5
 8341 0049 CE01     		.uleb128 0xce
 8342 004b 288B0000 		.4byte	.LASF726
 8343 004f 06       		.byte	0x6
 8344 0050 F401     		.uleb128 0xf4
 8345 0052 03260000 		.4byte	.LASF727
 8346 0056 00       		.byte	0
 8347              		.section	.debug_macro,"G",%progbits,wm4._types.h.127.34941de1b2539d59d5cac00e0dd27a45,comdat
 8348              	.Ldebug_macro15:
 8349 0000 0400     		.2byte	0x4
 8350 0002 00       		.byte	0
 8351 0003 06       		.byte	0x6
 8352 0004 7F       		.uleb128 0x7f
 8353 0005 54D40000 		.4byte	.LASF728
 8354 0009 05       		.byte	0x5
 8355 000a 9201     		.uleb128 0x92
 8356 000c 25400000 		.4byte	.LASF729
 8357 0010 06       		.byte	0x6
 8358 0011 9401     		.uleb128 0x94
 8359 0013 B6A20000 		.4byte	.LASF730
 8360 0017 05       		.byte	0x5
 8361 0018 B301     		.uleb128 0xb3
 8362 001a AE070000 		.4byte	.LASF731
 8363 001e 05       		.byte	0x5
 8364 001f BB01     		.uleb128 0xbb
 8365 0021 1B320000 		.4byte	.LASF732
 8366 0025 05       		.byte	0x5
 8367 0026 C001     		.uleb128 0xc0
 8368 0028 D2960000 		.4byte	.LASF733
 8369 002c 05       		.byte	0x5
 8370 002d C501     		.uleb128 0xc5
 8371 002f FE830000 		.4byte	.LASF734
 8372 0033 00       		.byte	0
 8373              		.section	.debug_macro,"G",%progbits,wm4.reent.h.17.e292bf8b0bec6c96e131a54347145a30,comdat
 8374              	.Ldebug_macro16:
 8375 0000 0400     		.2byte	0x4
 8376 0002 00       		.byte	0
 8377 0003 05       		.byte	0x5
ARM GAS  /tmp/cceRHmPh.s 			page 148


 8378 0004 11       		.uleb128 0x11
 8379 0005 CF750000 		.4byte	.LASF735
 8380 0009 05       		.byte	0x5
 8381 000a 15       		.uleb128 0x15
 8382 000b 78B10000 		.4byte	.LASF736
 8383 000f 00       		.byte	0
 8384              		.section	.debug_macro,"G",%progbits,wm4.lock.h.2.c0958401bd0ce484d507ee19aacab817,comdat
 8385              	.Ldebug_macro17:
 8386 0000 0400     		.2byte	0x4
 8387 0002 00       		.byte	0
 8388 0003 05       		.byte	0x5
 8389 0004 02       		.uleb128 0x2
 8390 0005 AC910000 		.4byte	.LASF737
 8391 0009 05       		.byte	0x5
 8392 000a 0E       		.uleb128 0xe
 8393 000b A45D0000 		.4byte	.LASF738
 8394 000f 05       		.byte	0x5
 8395 0010 0F       		.uleb128 0xf
 8396 0011 3E0A0100 		.4byte	.LASF739
 8397 0015 05       		.byte	0x5
 8398 0016 10       		.uleb128 0x10
 8399 0017 54D80000 		.4byte	.LASF740
 8400 001b 05       		.byte	0x5
 8401 001c 11       		.uleb128 0x11
 8402 001d DA500000 		.4byte	.LASF741
 8403 0021 05       		.byte	0x5
 8404 0022 12       		.uleb128 0x12
 8405 0023 1A9A0000 		.4byte	.LASF742
 8406 0027 05       		.byte	0x5
 8407 0028 13       		.uleb128 0x13
 8408 0029 C52A0000 		.4byte	.LASF743
 8409 002d 05       		.byte	0x5
 8410 002e 14       		.uleb128 0x14
 8411 002f F11C0000 		.4byte	.LASF744
 8412 0033 05       		.byte	0x5
 8413 0034 15       		.uleb128 0x15
 8414 0035 92DB0000 		.4byte	.LASF745
 8415 0039 05       		.byte	0x5
 8416 003a 16       		.uleb128 0x16
 8417 003b 6F880000 		.4byte	.LASF746
 8418 003f 05       		.byte	0x5
 8419 0040 17       		.uleb128 0x17
 8420 0041 22DB0000 		.4byte	.LASF747
 8421 0045 05       		.byte	0x5
 8422 0046 18       		.uleb128 0x18
 8423 0047 703E0000 		.4byte	.LASF748
 8424 004b 05       		.byte	0x5
 8425 004c 19       		.uleb128 0x19
 8426 004d B2890000 		.4byte	.LASF749
 8427 0051 00       		.byte	0
 8428              		.section	.debug_macro,"G",%progbits,wm4.reent.h.77.dcd6129ff07fe81bd5636db29abe53b2,comdat
 8429              	.Ldebug_macro18:
 8430 0000 0400     		.2byte	0x4
 8431 0002 00       		.byte	0
 8432 0003 05       		.byte	0x5
 8433 0004 4D       		.uleb128 0x4d
 8434 0005 D6270000 		.4byte	.LASF750
ARM GAS  /tmp/cceRHmPh.s 			page 149


 8435 0009 05       		.byte	0x5
 8436 000a 69       		.uleb128 0x69
 8437 000b 06EF0000 		.4byte	.LASF751
 8438 000f 05       		.byte	0x5
 8439 0010 6F       		.uleb128 0x6f
 8440 0011 18C70000 		.4byte	.LASF752
 8441 0015 05       		.byte	0x5
 8442 0016 B701     		.uleb128 0xb7
 8443 0018 E3E50000 		.4byte	.LASF753
 8444 001c 05       		.byte	0x5
 8445 001d BD02     		.uleb128 0x13d
 8446 001f 48D20000 		.4byte	.LASF754
 8447 0023 05       		.byte	0x5
 8448 0024 BE02     		.uleb128 0x13e
 8449 0026 5AFC0000 		.4byte	.LASF755
 8450 002a 05       		.byte	0x5
 8451 002b BF02     		.uleb128 0x13f
 8452 002d BF850000 		.4byte	.LASF756
 8453 0031 05       		.byte	0x5
 8454 0032 C002     		.uleb128 0x140
 8455 0034 AA810000 		.4byte	.LASF757
 8456 0038 05       		.byte	0x5
 8457 0039 C102     		.uleb128 0x141
 8458 003b DF910000 		.4byte	.LASF758
 8459 003f 05       		.byte	0x5
 8460 0040 C202     		.uleb128 0x142
 8461 0042 BA960000 		.4byte	.LASF759
 8462 0046 05       		.byte	0x5
 8463 0047 C302     		.uleb128 0x143
 8464 0049 28D20000 		.4byte	.LASF760
 8465 004d 05       		.byte	0x5
 8466 004e CF02     		.uleb128 0x14f
 8467 0050 ED2E0000 		.4byte	.LASF761
 8468 0054 05       		.byte	0x5
 8469 0055 D002     		.uleb128 0x150
 8470 0057 B4880000 		.4byte	.LASF762
 8471 005b 05       		.byte	0x5
 8472 005c D102     		.uleb128 0x151
 8473 005e A8D90000 		.4byte	.LASF763
 8474 0062 05       		.byte	0x5
 8475 0063 A005     		.uleb128 0x2a0
 8476 0065 1DA70000 		.4byte	.LASF764
 8477 0069 05       		.byte	0x5
 8478 006a BC05     		.uleb128 0x2bc
 8479 006c 52590000 		.4byte	.LASF765
 8480 0070 05       		.byte	0x5
 8481 0071 BF05     		.uleb128 0x2bf
 8482 0073 668D0000 		.4byte	.LASF766
 8483 0077 05       		.byte	0x5
 8484 0078 EF05     		.uleb128 0x2ef
 8485 007a C2680000 		.4byte	.LASF767
 8486 007e 05       		.byte	0x5
 8487 007f FD05     		.uleb128 0x2fd
 8488 0081 B7050000 		.4byte	.LASF768
 8489 0085 05       		.byte	0x5
 8490 0086 FE05     		.uleb128 0x2fe
 8491 0088 725C0000 		.4byte	.LASF769
ARM GAS  /tmp/cceRHmPh.s 			page 150


 8492 008c 05       		.byte	0x5
 8493 008d FF05     		.uleb128 0x2ff
 8494 008f 4B4F0000 		.4byte	.LASF770
 8495 0093 05       		.byte	0x5
 8496 0094 8006     		.uleb128 0x300
 8497 0096 30070000 		.4byte	.LASF771
 8498 009a 05       		.byte	0x5
 8499 009b 8106     		.uleb128 0x301
 8500 009d 22770000 		.4byte	.LASF772
 8501 00a1 05       		.byte	0x5
 8502 00a2 8206     		.uleb128 0x302
 8503 00a4 4FCE0000 		.4byte	.LASF773
 8504 00a8 05       		.byte	0x5
 8505 00a9 8306     		.uleb128 0x303
 8506 00ab FC2A0000 		.4byte	.LASF774
 8507 00af 05       		.byte	0x5
 8508 00b0 8506     		.uleb128 0x305
 8509 00b2 C23E0000 		.4byte	.LASF775
 8510 00b6 05       		.byte	0x5
 8511 00b7 8606     		.uleb128 0x306
 8512 00b9 7A800000 		.4byte	.LASF776
 8513 00bd 05       		.byte	0x5
 8514 00be 8706     		.uleb128 0x307
 8515 00c0 66B30000 		.4byte	.LASF777
 8516 00c4 05       		.byte	0x5
 8517 00c5 8806     		.uleb128 0x308
 8518 00c7 E8920000 		.4byte	.LASF778
 8519 00cb 05       		.byte	0x5
 8520 00cc 8906     		.uleb128 0x309
 8521 00ce E53C0000 		.4byte	.LASF779
 8522 00d2 05       		.byte	0x5
 8523 00d3 8A06     		.uleb128 0x30a
 8524 00d5 1A740000 		.4byte	.LASF780
 8525 00d9 05       		.byte	0x5
 8526 00da 8B06     		.uleb128 0x30b
 8527 00dc F66A0000 		.4byte	.LASF781
 8528 00e0 05       		.byte	0x5
 8529 00e1 8C06     		.uleb128 0x30c
 8530 00e3 05A50000 		.4byte	.LASF782
 8531 00e7 05       		.byte	0x5
 8532 00e8 8D06     		.uleb128 0x30d
 8533 00ea 5BD30000 		.4byte	.LASF783
 8534 00ee 05       		.byte	0x5
 8535 00ef 8E06     		.uleb128 0x30e
 8536 00f1 0DA10000 		.4byte	.LASF784
 8537 00f5 05       		.byte	0x5
 8538 00f6 8F06     		.uleb128 0x30f
 8539 00f8 87300000 		.4byte	.LASF785
 8540 00fc 05       		.byte	0x5
 8541 00fd 9006     		.uleb128 0x310
 8542 00ff DC160000 		.4byte	.LASF786
 8543 0103 05       		.byte	0x5
 8544 0104 9106     		.uleb128 0x311
 8545 0106 43420000 		.4byte	.LASF787
 8546 010a 05       		.byte	0x5
 8547 010b 9206     		.uleb128 0x312
 8548 010d C1220000 		.4byte	.LASF788
ARM GAS  /tmp/cceRHmPh.s 			page 151


 8549 0111 05       		.byte	0x5
 8550 0112 9306     		.uleb128 0x313
 8551 0114 1BFE0000 		.4byte	.LASF789
 8552 0118 05       		.byte	0x5
 8553 0119 9406     		.uleb128 0x314
 8554 011b B5820000 		.4byte	.LASF790
 8555 011f 05       		.byte	0x5
 8556 0120 9506     		.uleb128 0x315
 8557 0122 100F0000 		.4byte	.LASF791
 8558 0126 05       		.byte	0x5
 8559 0127 9606     		.uleb128 0x316
 8560 0129 3D280000 		.4byte	.LASF792
 8561 012d 05       		.byte	0x5
 8562 012e 9706     		.uleb128 0x317
 8563 0130 5E470000 		.4byte	.LASF793
 8564 0134 05       		.byte	0x5
 8565 0135 9806     		.uleb128 0x318
 8566 0137 B5E40000 		.4byte	.LASF794
 8567 013b 05       		.byte	0x5
 8568 013c 9906     		.uleb128 0x319
 8569 013e 22170000 		.4byte	.LASF795
 8570 0142 05       		.byte	0x5
 8571 0143 9A06     		.uleb128 0x31a
 8572 0145 B9010000 		.4byte	.LASF796
 8573 0149 05       		.byte	0x5
 8574 014a 9B06     		.uleb128 0x31b
 8575 014c 99BD0000 		.4byte	.LASF797
 8576 0150 05       		.byte	0x5
 8577 0151 9C06     		.uleb128 0x31c
 8578 0153 84750000 		.4byte	.LASF798
 8579 0157 05       		.byte	0x5
 8580 0158 A006     		.uleb128 0x320
 8581 015a 7AB60000 		.4byte	.LASF799
 8582 015e 05       		.byte	0x5
 8583 015f A806     		.uleb128 0x328
 8584 0161 85820000 		.4byte	.LASF800
 8585 0165 05       		.byte	0x5
 8586 0166 B006     		.uleb128 0x330
 8587 0168 9ACD0000 		.4byte	.LASF801
 8588 016c 05       		.byte	0x5
 8589 016d C006     		.uleb128 0x340
 8590 016f A2820000 		.4byte	.LASF802
 8591 0173 05       		.byte	0x5
 8592 0174 C306     		.uleb128 0x343
 8593 0176 CE510000 		.4byte	.LASF803
 8594 017a 05       		.byte	0x5
 8595 017b C906     		.uleb128 0x349
 8596 017d 868F0000 		.4byte	.LASF804
 8597 0181 00       		.byte	0
 8598              		.section	.debug_macro,"G",%progbits,wm4.cdefs.h.49.3d0fe8ea14e93bda8c589d4f684b21b8,comdat
 8599              	.Ldebug_macro19:
 8600 0000 0400     		.2byte	0x4
 8601 0002 00       		.byte	0
 8602 0003 05       		.byte	0x5
 8603 0004 31       		.uleb128 0x31
 8604 0005 BFAB0000 		.4byte	.LASF806
 8605 0009 05       		.byte	0x5
ARM GAS  /tmp/cceRHmPh.s 			page 152


 8606 000a 32       		.uleb128 0x32
 8607 000b 5CB20000 		.4byte	.LASF807
 8608 000f 05       		.byte	0x5
 8609 0010 33       		.uleb128 0x33
 8610 0011 F7FE0000 		.4byte	.LASF808
 8611 0015 05       		.byte	0x5
 8612 0016 36       		.uleb128 0x36
 8613 0017 157E0000 		.4byte	.LASF809
 8614 001b 05       		.byte	0x5
 8615 001c 39       		.uleb128 0x39
 8616 001d 64A20000 		.4byte	.LASF810
 8617 0021 05       		.byte	0x5
 8618 0022 3A       		.uleb128 0x3a
 8619 0023 BA2C0000 		.4byte	.LASF811
 8620 0027 05       		.byte	0x5
 8621 0028 3C       		.uleb128 0x3c
 8622 0029 56300000 		.4byte	.LASF812
 8623 002d 05       		.byte	0x5
 8624 002e 3D       		.uleb128 0x3d
 8625 002f AE6C0000 		.4byte	.LASF813
 8626 0033 05       		.byte	0x5
 8627 0034 3E       		.uleb128 0x3e
 8628 0035 2CE20000 		.4byte	.LASF814
 8629 0039 05       		.byte	0x5
 8630 003a 3F       		.uleb128 0x3f
 8631 003b D73C0000 		.4byte	.LASF815
 8632 003f 05       		.byte	0x5
 8633 0040 42       		.uleb128 0x42
 8634 0041 0B480000 		.4byte	.LASF816
 8635 0045 05       		.byte	0x5
 8636 0046 43       		.uleb128 0x43
 8637 0047 E0140000 		.4byte	.LASF817
 8638 004b 05       		.byte	0x5
 8639 004c 44       		.uleb128 0x44
 8640 004d 996E0000 		.4byte	.LASF818
 8641 0051 05       		.byte	0x5
 8642 0052 4E       		.uleb128 0x4e
 8643 0053 BE970000 		.4byte	.LASF819
 8644 0057 05       		.byte	0x5
 8645 0058 51       		.uleb128 0x51
 8646 0059 BC2E0000 		.4byte	.LASF820
 8647 005d 05       		.byte	0x5
 8648 005e 5E       		.uleb128 0x5e
 8649 005f 01E50000 		.4byte	.LASF821
 8650 0063 05       		.byte	0x5
 8651 0064 5F       		.uleb128 0x5f
 8652 0065 A7880000 		.4byte	.LASF822
 8653 0069 05       		.byte	0x5
 8654 006a 6B       		.uleb128 0x6b
 8655 006b 8A640000 		.4byte	.LASF823
 8656 006f 05       		.byte	0x5
 8657 0070 6C       		.uleb128 0x6c
 8658 0071 36F90000 		.4byte	.LASF824
 8659 0075 05       		.byte	0x5
 8660 0076 70       		.uleb128 0x70
 8661 0077 320E0000 		.4byte	.LASF825
 8662 007b 05       		.byte	0x5
ARM GAS  /tmp/cceRHmPh.s 			page 153


 8663 007c 71       		.uleb128 0x71
 8664 007d 1B3A0000 		.4byte	.LASF826
 8665 0081 05       		.byte	0x5
 8666 0082 72       		.uleb128 0x72
 8667 0083 7D420000 		.4byte	.LASF827
 8668 0087 05       		.byte	0x5
 8669 0088 75       		.uleb128 0x75
 8670 0089 391A0000 		.4byte	.LASF828
 8671 008d 05       		.byte	0x5
 8672 008e 78       		.uleb128 0x78
 8673 008f 49080000 		.4byte	.LASF829
 8674 0093 05       		.byte	0x5
 8675 0094 7F       		.uleb128 0x7f
 8676 0095 E87D0000 		.4byte	.LASF830
 8677 0099 05       		.byte	0x5
 8678 009a 8001     		.uleb128 0x80
 8679 009c 0D890000 		.4byte	.LASF831
 8680 00a0 05       		.byte	0x5
 8681 00a1 8101     		.uleb128 0x81
 8682 00a3 19810000 		.4byte	.LASF832
 8683 00a7 05       		.byte	0x5
 8684 00a8 8501     		.uleb128 0x85
 8685 00aa AB4A0000 		.4byte	.LASF833
 8686 00ae 05       		.byte	0x5
 8687 00af 8C01     		.uleb128 0x8c
 8688 00b1 1F5B0000 		.4byte	.LASF834
 8689 00b5 05       		.byte	0x5
 8690 00b6 9001     		.uleb128 0x90
 8691 00b8 72520000 		.4byte	.LASF835
 8692 00bc 05       		.byte	0x5
 8693 00bd 9101     		.uleb128 0x91
 8694 00bf 6E4B0000 		.4byte	.LASF836
 8695 00c3 05       		.byte	0x5
 8696 00c4 9401     		.uleb128 0x94
 8697 00c6 64570000 		.4byte	.LASF837
 8698 00ca 05       		.byte	0x5
 8699 00cb 9701     		.uleb128 0x97
 8700 00cd BC3A0000 		.4byte	.LASF838
 8701 00d1 05       		.byte	0x5
 8702 00d2 9801     		.uleb128 0x98
 8703 00d4 322A0000 		.4byte	.LASF839
 8704 00d8 05       		.byte	0x5
 8705 00d9 9901     		.uleb128 0x99
 8706 00db ADD80000 		.4byte	.LASF840
 8707 00df 05       		.byte	0x5
 8708 00e0 9B01     		.uleb128 0x9b
 8709 00e2 50DB0000 		.4byte	.LASF841
 8710 00e6 05       		.byte	0x5
 8711 00e7 9C01     		.uleb128 0x9c
 8712 00e9 DB2B0000 		.4byte	.LASF842
 8713 00ed 05       		.byte	0x5
 8714 00ee 9E01     		.uleb128 0x9e
 8715 00f0 EC960000 		.4byte	.LASF843
 8716 00f4 05       		.byte	0x5
 8717 00f5 A001     		.uleb128 0xa0
 8718 00f7 73EB0000 		.4byte	.LASF844
 8719 00fb 05       		.byte	0x5
ARM GAS  /tmp/cceRHmPh.s 			page 154


 8720 00fc B101     		.uleb128 0xb1
 8721 00fe 6D110000 		.4byte	.LASF845
 8722 0102 05       		.byte	0x5
 8723 0103 B201     		.uleb128 0xb2
 8724 0105 9CB40000 		.4byte	.LASF846
 8725 0109 05       		.byte	0x5
 8726 010a B301     		.uleb128 0xb3
 8727 010c 29F50000 		.4byte	.LASF847
 8728 0110 05       		.byte	0x5
 8729 0111 B401     		.uleb128 0xb4
 8730 0113 B9FC0000 		.4byte	.LASF848
 8731 0117 05       		.byte	0x5
 8732 0118 B501     		.uleb128 0xb5
 8733 011a 3ACC0000 		.4byte	.LASF849
 8734 011e 05       		.byte	0x5
 8735 011f B701     		.uleb128 0xb7
 8736 0121 18250000 		.4byte	.LASF850
 8737 0125 05       		.byte	0x5
 8738 0126 B801     		.uleb128 0xb8
 8739 0128 ADD30000 		.4byte	.LASF851
 8740 012c 05       		.byte	0x5
 8741 012d B901     		.uleb128 0xb9
 8742 012f 0A5F0000 		.4byte	.LASF852
 8743 0133 05       		.byte	0x5
 8744 0134 E601     		.uleb128 0xe6
 8745 0136 AF3C0000 		.4byte	.LASF853
 8746 013a 05       		.byte	0x5
 8747 013b F301     		.uleb128 0xf3
 8748 013d 7B5E0000 		.4byte	.LASF854
 8749 0141 05       		.byte	0x5
 8750 0142 F401     		.uleb128 0xf4
 8751 0144 ADC50000 		.4byte	.LASF855
 8752 0148 05       		.byte	0x5
 8753 0149 F501     		.uleb128 0xf5
 8754 014b 0AE70000 		.4byte	.LASF856
 8755 014f 05       		.byte	0x5
 8756 0150 F601     		.uleb128 0xf6
 8757 0152 E7ED0000 		.4byte	.LASF857
 8758 0156 05       		.byte	0x5
 8759 0157 F701     		.uleb128 0xf7
 8760 0159 16840000 		.4byte	.LASF858
 8761 015d 05       		.byte	0x5
 8762 015e F801     		.uleb128 0xf8
 8763 0160 57140000 		.4byte	.LASF859
 8764 0164 05       		.byte	0x5
 8765 0165 F901     		.uleb128 0xf9
 8766 0167 616E0000 		.4byte	.LASF860
 8767 016b 05       		.byte	0x5
 8768 016c FC01     		.uleb128 0xfc
 8769 016e D5760000 		.4byte	.LASF861
 8770 0172 05       		.byte	0x5
 8771 0173 FD01     		.uleb128 0xfd
 8772 0175 953F0000 		.4byte	.LASF862
 8773 0179 05       		.byte	0x5
 8774 017a 8302     		.uleb128 0x103
 8775 017c EFD40000 		.4byte	.LASF863
 8776 0180 05       		.byte	0x5
ARM GAS  /tmp/cceRHmPh.s 			page 155


 8777 0181 9802     		.uleb128 0x118
 8778 0183 FF1B0000 		.4byte	.LASF864
 8779 0187 05       		.byte	0x5
 8780 0188 9F02     		.uleb128 0x11f
 8781 018a E9FB0000 		.4byte	.LASF865
 8782 018e 05       		.byte	0x5
 8783 018f A802     		.uleb128 0x128
 8784 0191 A7F90000 		.4byte	.LASF866
 8785 0195 05       		.byte	0x5
 8786 0196 AE02     		.uleb128 0x12e
 8787 0198 01C20000 		.4byte	.LASF867
 8788 019c 05       		.byte	0x5
 8789 019d CB02     		.uleb128 0x14b
 8790 019f 4E7E0000 		.4byte	.LASF868
 8791 01a3 05       		.byte	0x5
 8792 01a4 DF02     		.uleb128 0x15f
 8793 01a6 47A10000 		.4byte	.LASF869
 8794 01aa 05       		.byte	0x5
 8795 01ab EE02     		.uleb128 0x16e
 8796 01ad 68850000 		.4byte	.LASF870
 8797 01b1 05       		.byte	0x5
 8798 01b2 F402     		.uleb128 0x174
 8799 01b4 A4FE0000 		.4byte	.LASF871
 8800 01b8 05       		.byte	0x5
 8801 01b9 F502     		.uleb128 0x175
 8802 01bb 9FB20000 		.4byte	.LASF872
 8803 01bf 05       		.byte	0x5
 8804 01c0 FC02     		.uleb128 0x17c
 8805 01c2 37B00000 		.4byte	.LASF873
 8806 01c6 05       		.byte	0x5
 8807 01c7 8203     		.uleb128 0x182
 8808 01c9 726C0000 		.4byte	.LASF874
 8809 01cd 05       		.byte	0x5
 8810 01ce 8803     		.uleb128 0x188
 8811 01d0 DF460000 		.4byte	.LASF875
 8812 01d4 05       		.byte	0x5
 8813 01d5 8903     		.uleb128 0x189
 8814 01d7 A9F80000 		.4byte	.LASF876
 8815 01db 05       		.byte	0x5
 8816 01dc 9003     		.uleb128 0x190
 8817 01de 8B170000 		.4byte	.LASF877
 8818 01e2 05       		.byte	0x5
 8819 01e3 9103     		.uleb128 0x191
 8820 01e5 70250000 		.4byte	.LASF878
 8821 01e9 05       		.byte	0x5
 8822 01ea 9803     		.uleb128 0x198
 8823 01ec D9730000 		.4byte	.LASF879
 8824 01f0 05       		.byte	0x5
 8825 01f1 9E03     		.uleb128 0x19e
 8826 01f3 88FC0000 		.4byte	.LASF880
 8827 01f7 05       		.byte	0x5
 8828 01f8 B203     		.uleb128 0x1b2
 8829 01fa 16D40000 		.4byte	.LASF881
 8830 01fe 05       		.byte	0x5
 8831 01ff D303     		.uleb128 0x1d3
 8832 0201 E2130000 		.4byte	.LASF882
 8833 0205 05       		.byte	0x5
ARM GAS  /tmp/cceRHmPh.s 			page 156


 8834 0206 D403     		.uleb128 0x1d4
 8835 0208 0B8C0000 		.4byte	.LASF883
 8836 020c 05       		.byte	0x5
 8837 020d DB03     		.uleb128 0x1db
 8838 020f FE410000 		.4byte	.LASF884
 8839 0213 05       		.byte	0x5
 8840 0214 DC03     		.uleb128 0x1dc
 8841 0216 FCEA0000 		.4byte	.LASF885
 8842 021a 05       		.byte	0x5
 8843 021b DF03     		.uleb128 0x1df
 8844 021d EDD50000 		.4byte	.LASF886
 8845 0221 05       		.byte	0x5
 8846 0222 E903     		.uleb128 0x1e9
 8847 0224 02FC0000 		.4byte	.LASF887
 8848 0228 05       		.byte	0x5
 8849 0229 EA03     		.uleb128 0x1ea
 8850 022b FCBD0000 		.4byte	.LASF888
 8851 022f 05       		.byte	0x5
 8852 0230 F403     		.uleb128 0x1f4
 8853 0232 DA630000 		.4byte	.LASF889
 8854 0236 05       		.byte	0x5
 8855 0237 8A04     		.uleb128 0x20a
 8856 0239 3F0A0000 		.4byte	.LASF890
 8857 023d 05       		.byte	0x5
 8858 023e 8C04     		.uleb128 0x20c
 8859 0240 E0CE0000 		.4byte	.LASF891
 8860 0244 05       		.byte	0x5
 8861 0245 8E04     		.uleb128 0x20e
 8862 0247 C6430000 		.4byte	.LASF892
 8863 024b 05       		.byte	0x5
 8864 024c 8F04     		.uleb128 0x20f
 8865 024e 1FAF0000 		.4byte	.LASF893
 8866 0252 05       		.byte	0x5
 8867 0253 9104     		.uleb128 0x211
 8868 0255 1BAD0000 		.4byte	.LASF894
 8869 0259 05       		.byte	0x5
 8870 025a 9B04     		.uleb128 0x21b
 8871 025c B0280000 		.4byte	.LASF895
 8872 0260 05       		.byte	0x5
 8873 0261 A004     		.uleb128 0x220
 8874 0263 257D0000 		.4byte	.LASF896
 8875 0267 05       		.byte	0x5
 8876 0268 A504     		.uleb128 0x225
 8877 026a DDCA0000 		.4byte	.LASF897
 8878 026e 05       		.byte	0x5
 8879 026f A804     		.uleb128 0x228
 8880 0271 96A00000 		.4byte	.LASF898
 8881 0275 05       		.byte	0x5
 8882 0276 AC04     		.uleb128 0x22c
 8883 0278 111D0000 		.4byte	.LASF899
 8884 027c 05       		.byte	0x5
 8885 027d AE04     		.uleb128 0x22e
 8886 027f 91570000 		.4byte	.LASF900
 8887 0283 05       		.byte	0x5
 8888 0284 D104     		.uleb128 0x251
 8889 0286 3A360000 		.4byte	.LASF901
 8890 028a 05       		.byte	0x5
ARM GAS  /tmp/cceRHmPh.s 			page 157


 8891 028b D504     		.uleb128 0x255
 8892 028d 56880000 		.4byte	.LASF902
 8893 0291 05       		.byte	0x5
 8894 0292 D904     		.uleb128 0x259
 8895 0294 4CB90000 		.4byte	.LASF903
 8896 0298 05       		.byte	0x5
 8897 0299 DD04     		.uleb128 0x25d
 8898 029b 53CC0000 		.4byte	.LASF904
 8899 029f 05       		.byte	0x5
 8900 02a0 E104     		.uleb128 0x261
 8901 02a2 D9F20000 		.4byte	.LASF905
 8902 02a6 05       		.byte	0x5
 8903 02a7 E504     		.uleb128 0x265
 8904 02a9 97310000 		.4byte	.LASF906
 8905 02ad 05       		.byte	0x5
 8906 02ae E904     		.uleb128 0x269
 8907 02b0 1C970000 		.4byte	.LASF907
 8908 02b4 05       		.byte	0x5
 8909 02b5 ED04     		.uleb128 0x26d
 8910 02b7 742E0000 		.4byte	.LASF908
 8911 02bb 05       		.byte	0x5
 8912 02bc F404     		.uleb128 0x274
 8913 02be A2910000 		.4byte	.LASF909
 8914 02c2 05       		.byte	0x5
 8915 02c3 F504     		.uleb128 0x275
 8916 02c5 71D80000 		.4byte	.LASF910
 8917 02c9 05       		.byte	0x5
 8918 02ca F604     		.uleb128 0x276
 8919 02cc B90B0000 		.4byte	.LASF911
 8920 02d0 05       		.byte	0x5
 8921 02d1 F704     		.uleb128 0x277
 8922 02d3 32EB0000 		.4byte	.LASF912
 8923 02d7 05       		.byte	0x5
 8924 02d8 F804     		.uleb128 0x278
 8925 02da A0700000 		.4byte	.LASF913
 8926 02de 05       		.byte	0x5
 8927 02df 8D05     		.uleb128 0x28d
 8928 02e1 7C490000 		.4byte	.LASF914
 8929 02e5 05       		.byte	0x5
 8930 02e6 8E05     		.uleb128 0x28e
 8931 02e8 A0470000 		.4byte	.LASF915
 8932 02ec 05       		.byte	0x5
 8933 02ed A005     		.uleb128 0x2a0
 8934 02ef A9360000 		.4byte	.LASF916
 8935 02f3 05       		.byte	0x5
 8936 02f4 A605     		.uleb128 0x2a6
 8937 02f6 FEF10000 		.4byte	.LASF917
 8938 02fa 05       		.byte	0x5
 8939 02fb A905     		.uleb128 0x2a9
 8940 02fd B45A0000 		.4byte	.LASF918
 8941 0301 05       		.byte	0x5
 8942 0302 AB05     		.uleb128 0x2ab
 8943 0304 D2800000 		.4byte	.LASF919
 8944 0308 05       		.byte	0x5
 8945 0309 AF05     		.uleb128 0x2af
 8946 030b E7010100 		.4byte	.LASF920
 8947 030f 05       		.byte	0x5
ARM GAS  /tmp/cceRHmPh.s 			page 158


 8948 0310 B105     		.uleb128 0x2b1
 8949 0312 BB8F0000 		.4byte	.LASF921
 8950 0316 05       		.byte	0x5
 8951 0317 B505     		.uleb128 0x2b5
 8952 0319 39990000 		.4byte	.LASF922
 8953 031d 05       		.byte	0x5
 8954 031e B805     		.uleb128 0x2b8
 8955 0320 364A0000 		.4byte	.LASF923
 8956 0324 05       		.byte	0x5
 8957 0325 BA05     		.uleb128 0x2ba
 8958 0327 E44A0000 		.4byte	.LASF924
 8959 032b 05       		.byte	0x5
 8960 032c BE05     		.uleb128 0x2be
 8961 032e 23A40000 		.4byte	.LASF925
 8962 0332 05       		.byte	0x5
 8963 0333 C005     		.uleb128 0x2c0
 8964 0335 ABD20000 		.4byte	.LASF926
 8965 0339 05       		.byte	0x5
 8966 033a C205     		.uleb128 0x2c2
 8967 033c 651D0000 		.4byte	.LASF927
 8968 0340 05       		.byte	0x5
 8969 0341 C605     		.uleb128 0x2c6
 8970 0343 1A160000 		.4byte	.LASF928
 8971 0347 05       		.byte	0x5
 8972 0348 C905     		.uleb128 0x2c9
 8973 034a B1C90000 		.4byte	.LASF929
 8974 034e 05       		.byte	0x5
 8975 034f CA05     		.uleb128 0x2ca
 8976 0351 8D760000 		.4byte	.LASF930
 8977 0355 00       		.byte	0
 8978              		.section	.debug_macro,"G",%progbits,wm4.string.h.15.dab3980bf35408a4c507182805e2de3a,comdat
 8979              	.Ldebug_macro20:
 8980 0000 0400     		.2byte	0x4
 8981 0002 00       		.byte	0
 8982 0003 05       		.byte	0x5
 8983 0004 0F       		.uleb128 0xf
 8984 0005 A15E0000 		.4byte	.LASF710
 8985 0009 05       		.byte	0x5
 8986 000a 10       		.uleb128 0x10
 8987 000b F2C30000 		.4byte	.LASF931
 8988 000f 00       		.byte	0
 8989              		.section	.debug_macro,"G",%progbits,wm4.stddef.h.155.ba788add86a0e365f264484f110c3c29,comdat
 8990              	.Ldebug_macro21:
 8991 0000 0400     		.2byte	0x4
 8992 0002 00       		.byte	0
 8993 0003 06       		.byte	0x6
 8994 0004 9B01     		.uleb128 0x9b
 8995 0006 B1620000 		.4byte	.LASF669
 8996 000a 06       		.byte	0x6
 8997 000b E701     		.uleb128 0xe7
 8998 000d F3E40000 		.4byte	.LASF687
 8999 0011 06       		.byte	0x6
 9000 0012 D402     		.uleb128 0x154
 9001 0014 68C60000 		.4byte	.LASF704
 9002 0018 06       		.byte	0x6
 9003 0019 8603     		.uleb128 0x186
 9004 001b AF5A0000 		.4byte	.LASF705
ARM GAS  /tmp/cceRHmPh.s 			page 159


 9005 001f 05       		.byte	0x5
 9006 0020 8B03     		.uleb128 0x18b
 9007 0022 7DC40000 		.4byte	.LASF706
 9008 0026 06       		.byte	0x6
 9009 0027 9103     		.uleb128 0x191
 9010 0029 56830000 		.4byte	.LASF707
 9011 002d 05       		.byte	0x5
 9012 002e 9603     		.uleb128 0x196
 9013 0030 62830000 		.4byte	.LASF708
 9014 0034 00       		.byte	0
 9015              		.section	.debug_macro,"G",%progbits,wm4._intsup.h.10.48bafbb683905c4daa4565a85aeeb264,comdat
 9016              	.Ldebug_macro22:
 9017 0000 0400     		.2byte	0x4
 9018 0002 00       		.byte	0
 9019 0003 05       		.byte	0x5
 9020 0004 0A       		.uleb128 0xa
 9021 0005 1B730000 		.4byte	.LASF936
 9022 0009 05       		.byte	0x5
 9023 000a 10       		.uleb128 0x10
 9024 000b 61CB0000 		.4byte	.LASF937
 9025 000f 06       		.byte	0x6
 9026 0010 2B       		.uleb128 0x2b
 9027 0011 FD270000 		.4byte	.LASF938
 9028 0015 06       		.byte	0x6
 9029 0016 2C       		.uleb128 0x2c
 9030 0017 B6A20000 		.4byte	.LASF730
 9031 001b 06       		.byte	0x6
 9032 001c 2D       		.uleb128 0x2d
 9033 001d D2BC0000 		.4byte	.LASF939
 9034 0021 06       		.byte	0x6
 9035 0022 2E       		.uleb128 0x2e
 9036 0023 5C1A0000 		.4byte	.LASF940
 9037 0027 02       		.byte	0x2
 9038 0028 2F       		.uleb128 0x2f
 9039 0029 696E7400 		.ascii	"int\000"
 9040 002d 06       		.byte	0x6
 9041 002e 30       		.uleb128 0x30
 9042 002f 5EB40000 		.4byte	.LASF941
 9043 0033 06       		.byte	0x6
 9044 0034 31       		.uleb128 0x31
 9045 0035 73190000 		.4byte	.LASF942
 9046 0039 06       		.byte	0x6
 9047 003a 32       		.uleb128 0x32
 9048 003b 3EF20000 		.4byte	.LASF943
 9049 003f 05       		.byte	0x5
 9050 0040 33       		.uleb128 0x33
 9051 0041 22680000 		.4byte	.LASF944
 9052 0045 05       		.byte	0x5
 9053 0046 34       		.uleb128 0x34
 9054 0047 32F20000 		.4byte	.LASF945
 9055 004b 05       		.byte	0x5
 9056 004c 35       		.uleb128 0x35
 9057 004d 18EA0000 		.4byte	.LASF946
 9058 0051 05       		.byte	0x5
 9059 0052 36       		.uleb128 0x36
 9060 0053 04890000 		.4byte	.LASF947
 9061 0057 05       		.byte	0x5
ARM GAS  /tmp/cceRHmPh.s 			page 160


 9062 0058 37       		.uleb128 0x37
 9063 0059 F1340000 		.4byte	.LASF948
 9064 005d 05       		.byte	0x5
 9065 005e 38       		.uleb128 0x38
 9066 005f AE8F0000 		.4byte	.LASF949
 9067 0063 05       		.byte	0x5
 9068 0064 39       		.uleb128 0x39
 9069 0065 954D0000 		.4byte	.LASF950
 9070 0069 05       		.byte	0x5
 9071 006a 3A       		.uleb128 0x3a
 9072 006b 47CE0000 		.4byte	.LASF951
 9073 006f 05       		.byte	0x5
 9074 0070 43       		.uleb128 0x43
 9075 0071 F34D0000 		.4byte	.LASF952
 9076 0075 05       		.byte	0x5
 9077 0076 4A       		.uleb128 0x4a
 9078 0077 6DC40000 		.4byte	.LASF953
 9079 007b 05       		.byte	0x5
 9080 007c 52       		.uleb128 0x52
 9081 007d D95D0000 		.4byte	.LASF954
 9082 0081 05       		.byte	0x5
 9083 0082 5D       		.uleb128 0x5d
 9084 0083 55CB0000 		.4byte	.LASF955
 9085 0087 05       		.byte	0x5
 9086 0088 68       		.uleb128 0x68
 9087 0089 CB000100 		.4byte	.LASF956
 9088 008d 05       		.byte	0x5
 9089 008e 71       		.uleb128 0x71
 9090 008f 680F0000 		.4byte	.LASF957
 9091 0093 05       		.byte	0x5
 9092 0094 78       		.uleb128 0x78
 9093 0095 CE3F0000 		.4byte	.LASF958
 9094 0099 05       		.byte	0x5
 9095 009a 8101     		.uleb128 0x81
 9096 009c 576E0000 		.4byte	.LASF959
 9097 00a0 05       		.byte	0x5
 9098 00a1 8801     		.uleb128 0x88
 9099 00a3 38790000 		.4byte	.LASF960
 9100 00a7 05       		.byte	0x5
 9101 00a8 9301     		.uleb128 0x93
 9102 00aa F3C10000 		.4byte	.LASF961
 9103 00ae 05       		.byte	0x5
 9104 00af 9701     		.uleb128 0x97
 9105 00b1 E7AE0000 		.4byte	.LASF962
 9106 00b5 05       		.byte	0x5
 9107 00b6 A201     		.uleb128 0xa2
 9108 00b8 D4130000 		.4byte	.LASF963
 9109 00bc 05       		.byte	0x5
 9110 00bd AD01     		.uleb128 0xad
 9111 00bf 8D3B0000 		.4byte	.LASF964
 9112 00c3 05       		.byte	0x5
 9113 00c4 B601     		.uleb128 0xb6
 9114 00c6 A7F40000 		.4byte	.LASF965
 9115 00ca 06       		.byte	0x6
 9116 00cb B801     		.uleb128 0xb8
 9117 00cd FD270000 		.4byte	.LASF938
 9118 00d1 06       		.byte	0x6
ARM GAS  /tmp/cceRHmPh.s 			page 161


 9119 00d2 B901     		.uleb128 0xb9
 9120 00d4 B6A20000 		.4byte	.LASF730
 9121 00d8 06       		.byte	0x6
 9122 00d9 BA01     		.uleb128 0xba
 9123 00db D2BC0000 		.4byte	.LASF939
 9124 00df 06       		.byte	0x6
 9125 00e0 BB01     		.uleb128 0xbb
 9126 00e2 5C1A0000 		.4byte	.LASF940
 9127 00e6 02       		.byte	0x2
 9128 00e7 BC01     		.uleb128 0xbc
 9129 00e9 696E7400 		.ascii	"int\000"
 9130 00ed 06       		.byte	0x6
 9131 00ee BD01     		.uleb128 0xbd
 9132 00f0 3EF20000 		.4byte	.LASF943
 9133 00f4 06       		.byte	0x6
 9134 00f5 C201     		.uleb128 0xc2
 9135 00f7 5EB40000 		.4byte	.LASF941
 9136 00fb 06       		.byte	0x6
 9137 00fc C301     		.uleb128 0xc3
 9138 00fe 73190000 		.4byte	.LASF942
 9139 0102 00       		.byte	0
 9140              		.section	.debug_macro,"G",%progbits,wm4.stdint.h.29.6d480f4ba0f60596e88234283d42444f,comdat
 9141              	.Ldebug_macro23:
 9142 0000 0400     		.2byte	0x4
 9143 0002 00       		.byte	0
 9144 0003 05       		.byte	0x5
 9145 0004 1D       		.uleb128 0x1d
 9146 0005 F2580000 		.4byte	.LASF966
 9147 0009 06       		.byte	0x6
 9148 000a 64       		.uleb128 0x64
 9149 000b D2D80000 		.4byte	.LASF967
 9150 000f 05       		.byte	0x5
 9151 0010 65       		.uleb128 0x65
 9152 0011 B4E20000 		.4byte	.LASF968
 9153 0015 06       		.byte	0x6
 9154 0016 66       		.uleb128 0x66
 9155 0017 01CC0000 		.4byte	.LASF969
 9156 001b 05       		.byte	0x5
 9157 001c 67       		.uleb128 0x67
 9158 001d 5DEF0000 		.4byte	.LASF970
 9159 0021 06       		.byte	0x6
 9160 0022 6A       		.uleb128 0x6a
 9161 0023 89CA0000 		.4byte	.LASF971
 9162 0027 05       		.byte	0x5
 9163 0028 6B       		.uleb128 0x6b
 9164 0029 42C90000 		.4byte	.LASF972
 9165 002d 06       		.byte	0x6
 9166 002e 6E       		.uleb128 0x6e
 9167 002f 41A60000 		.4byte	.LASF973
 9168 0033 05       		.byte	0x5
 9169 0034 6F       		.uleb128 0x6f
 9170 0035 C6600000 		.4byte	.LASF974
 9171 0039 06       		.byte	0x6
 9172 003a 70       		.uleb128 0x70
 9173 003b 69E10000 		.4byte	.LASF975
 9174 003f 05       		.byte	0x5
 9175 0040 71       		.uleb128 0x71
ARM GAS  /tmp/cceRHmPh.s 			page 162


 9176 0041 E4FD0000 		.4byte	.LASF976
 9177 0045 06       		.byte	0x6
 9178 0046 74       		.uleb128 0x74
 9179 0047 68EB0000 		.4byte	.LASF977
 9180 004b 05       		.byte	0x5
 9181 004c 75       		.uleb128 0x75
 9182 004d 823C0000 		.4byte	.LASF978
 9183 0051 06       		.byte	0x6
 9184 0052 78       		.uleb128 0x78
 9185 0053 7CCE0000 		.4byte	.LASF979
 9186 0057 05       		.byte	0x5
 9187 0058 79       		.uleb128 0x79
 9188 0059 17E80000 		.4byte	.LASF980
 9189 005d 06       		.byte	0x6
 9190 005e 7A       		.uleb128 0x7a
 9191 005f 38510000 		.4byte	.LASF981
 9192 0063 05       		.byte	0x5
 9193 0064 7B       		.uleb128 0x7b
 9194 0065 01B00000 		.4byte	.LASF982
 9195 0069 06       		.byte	0x6
 9196 006a 7E       		.uleb128 0x7e
 9197 006b 27A20000 		.4byte	.LASF983
 9198 006f 05       		.byte	0x5
 9199 0070 7F       		.uleb128 0x7f
 9200 0071 2AD40000 		.4byte	.LASF984
 9201 0075 06       		.byte	0x6
 9202 0076 8201     		.uleb128 0x82
 9203 0078 10D30000 		.4byte	.LASF985
 9204 007c 05       		.byte	0x5
 9205 007d 8301     		.uleb128 0x83
 9206 007f BB300000 		.4byte	.LASF986
 9207 0083 06       		.byte	0x6
 9208 0084 8401     		.uleb128 0x84
 9209 0086 EAF40000 		.4byte	.LASF987
 9210 008a 05       		.byte	0x5
 9211 008b 8501     		.uleb128 0x85
 9212 008d 2E080000 		.4byte	.LASF988
 9213 0091 06       		.byte	0x6
 9214 0092 8801     		.uleb128 0x88
 9215 0094 20EA0000 		.4byte	.LASF989
 9216 0098 05       		.byte	0x5
 9217 0099 8901     		.uleb128 0x89
 9218 009b B76E0000 		.4byte	.LASF990
 9219 009f 06       		.byte	0x6
 9220 00a0 8C01     		.uleb128 0x8c
 9221 00a2 D1930000 		.4byte	.LASF991
 9222 00a6 05       		.byte	0x5
 9223 00a7 8D01     		.uleb128 0x8d
 9224 00a9 BF290000 		.4byte	.LASF992
 9225 00ad 06       		.byte	0x6
 9226 00ae 8E01     		.uleb128 0x8e
 9227 00b0 89C10000 		.4byte	.LASF993
 9228 00b4 05       		.byte	0x5
 9229 00b5 8F01     		.uleb128 0x8f
 9230 00b7 84EC0000 		.4byte	.LASF994
 9231 00bb 06       		.byte	0x6
 9232 00bc 9001     		.uleb128 0x90
ARM GAS  /tmp/cceRHmPh.s 			page 163


 9233 00be 59F90000 		.4byte	.LASF995
 9234 00c2 05       		.byte	0x5
 9235 00c3 9101     		.uleb128 0x91
 9236 00c5 F8050000 		.4byte	.LASF996
 9237 00c9 06       		.byte	0x6
 9238 00ca 9201     		.uleb128 0x92
 9239 00cc 7DCB0000 		.4byte	.LASF997
 9240 00d0 05       		.byte	0x5
 9241 00d1 9301     		.uleb128 0x93
 9242 00d3 68430000 		.4byte	.LASF998
 9243 00d7 06       		.byte	0x6
 9244 00d8 9401     		.uleb128 0x94
 9245 00da 4F070000 		.4byte	.LASF999
 9246 00de 05       		.byte	0x5
 9247 00df 9501     		.uleb128 0x95
 9248 00e1 49060000 		.4byte	.LASF1000
 9249 00e5 06       		.byte	0x6
 9250 00e6 9601     		.uleb128 0x96
 9251 00e8 E7050000 		.4byte	.LASF1001
 9252 00ec 05       		.byte	0x5
 9253 00ed 9701     		.uleb128 0x97
 9254 00ef 23D30000 		.4byte	.LASF1002
 9255 00f3 06       		.byte	0x6
 9256 00f4 9801     		.uleb128 0x98
 9257 00f6 55F30000 		.4byte	.LASF1003
 9258 00fa 05       		.byte	0x5
 9259 00fb 9901     		.uleb128 0x99
 9260 00fd 66640000 		.4byte	.LASF1004
 9261 0101 06       		.byte	0x6
 9262 0102 9A01     		.uleb128 0x9a
 9263 0104 C70D0000 		.4byte	.LASF1005
 9264 0108 05       		.byte	0x5
 9265 0109 9B01     		.uleb128 0x9b
 9266 010b 20930000 		.4byte	.LASF1006
 9267 010f 06       		.byte	0x6
 9268 0110 9C01     		.uleb128 0x9c
 9269 0112 B4AE0000 		.4byte	.LASF1007
 9270 0116 05       		.byte	0x5
 9271 0117 9D01     		.uleb128 0x9d
 9272 0119 5DD40000 		.4byte	.LASF1008
 9273 011d 06       		.byte	0x6
 9274 011e 9E01     		.uleb128 0x9e
 9275 0120 69F70000 		.4byte	.LASF1009
 9276 0124 05       		.byte	0x5
 9277 0125 9F01     		.uleb128 0x9f
 9278 0127 25350000 		.4byte	.LASF1010
 9279 012b 06       		.byte	0x6
 9280 012c A001     		.uleb128 0xa0
 9281 012e 9FBB0000 		.4byte	.LASF1011
 9282 0132 05       		.byte	0x5
 9283 0133 A101     		.uleb128 0xa1
 9284 0135 86D30000 		.4byte	.LASF1012
 9285 0139 06       		.byte	0x6
 9286 013a A201     		.uleb128 0xa2
 9287 013c 86310000 		.4byte	.LASF1013
 9288 0140 05       		.byte	0x5
 9289 0141 A301     		.uleb128 0xa3
ARM GAS  /tmp/cceRHmPh.s 			page 164


 9290 0143 F7B20000 		.4byte	.LASF1014
 9291 0147 06       		.byte	0x6
 9292 0148 A501     		.uleb128 0xa5
 9293 014a A8520000 		.4byte	.LASF1015
 9294 014e 05       		.byte	0x5
 9295 014f A601     		.uleb128 0xa6
 9296 0151 9A2C0000 		.4byte	.LASF1016
 9297 0155 06       		.byte	0x6
 9298 0156 A701     		.uleb128 0xa7
 9299 0158 68790000 		.4byte	.LASF1017
 9300 015c 05       		.byte	0x5
 9301 015d A801     		.uleb128 0xa8
 9302 015f EFF90000 		.4byte	.LASF1018
 9303 0163 06       		.byte	0x6
 9304 0164 A901     		.uleb128 0xa9
 9305 0166 24AC0000 		.4byte	.LASF1019
 9306 016a 05       		.byte	0x5
 9307 016b AA01     		.uleb128 0xaa
 9308 016d D6450000 		.4byte	.LASF1020
 9309 0171 06       		.byte	0x6
 9310 0172 AB01     		.uleb128 0xab
 9311 0174 18440000 		.4byte	.LASF1021
 9312 0178 05       		.byte	0x5
 9313 0179 AC01     		.uleb128 0xac
 9314 017b 60000100 		.4byte	.LASF1022
 9315 017f 06       		.byte	0x6
 9316 0180 AD01     		.uleb128 0xad
 9317 0182 8B2C0000 		.4byte	.LASF1023
 9318 0186 05       		.byte	0x5
 9319 0187 AE01     		.uleb128 0xae
 9320 0189 1A830000 		.4byte	.LASF1024
 9321 018d 06       		.byte	0x6
 9322 018e AF01     		.uleb128 0xaf
 9323 0190 01E60000 		.4byte	.LASF1025
 9324 0194 05       		.byte	0x5
 9325 0195 B001     		.uleb128 0xb0
 9326 0197 1C060000 		.4byte	.LASF1026
 9327 019b 06       		.byte	0x6
 9328 019c B101     		.uleb128 0xb1
 9329 019e ED320000 		.4byte	.LASF1027
 9330 01a2 05       		.byte	0x5
 9331 01a3 B201     		.uleb128 0xb2
 9332 01a5 F2050100 		.4byte	.LASF1028
 9333 01a9 06       		.byte	0x6
 9334 01aa B301     		.uleb128 0xb3
 9335 01ac 7C500000 		.4byte	.LASF1029
 9336 01b0 05       		.byte	0x5
 9337 01b1 B401     		.uleb128 0xb4
 9338 01b3 4CD50000 		.4byte	.LASF1030
 9339 01b7 06       		.byte	0x6
 9340 01b8 B501     		.uleb128 0xb5
 9341 01ba 8F010000 		.4byte	.LASF1031
 9342 01be 05       		.byte	0x5
 9343 01bf B601     		.uleb128 0xb6
 9344 01c1 8E890000 		.4byte	.LASF1032
 9345 01c5 06       		.byte	0x6
 9346 01c6 B701     		.uleb128 0xb7
ARM GAS  /tmp/cceRHmPh.s 			page 165


 9347 01c8 CD360000 		.4byte	.LASF1033
 9348 01cc 05       		.byte	0x5
 9349 01cd B801     		.uleb128 0xb8
 9350 01cf 5E130000 		.4byte	.LASF1034
 9351 01d3 06       		.byte	0x6
 9352 01d4 B901     		.uleb128 0xb9
 9353 01d6 C7CC0000 		.4byte	.LASF1035
 9354 01da 05       		.byte	0x5
 9355 01db BA01     		.uleb128 0xba
 9356 01dd 70220000 		.4byte	.LASF1036
 9357 01e1 06       		.byte	0x6
 9358 01e2 BB01     		.uleb128 0xbb
 9359 01e4 16090000 		.4byte	.LASF1037
 9360 01e8 05       		.byte	0x5
 9361 01e9 BC01     		.uleb128 0xbc
 9362 01eb FE670000 		.4byte	.LASF1038
 9363 01ef 06       		.byte	0x6
 9364 01f0 BF01     		.uleb128 0xbf
 9365 01f2 F9880000 		.4byte	.LASF1039
 9366 01f6 05       		.byte	0x5
 9367 01f7 C001     		.uleb128 0xc0
 9368 01f9 492C0000 		.4byte	.LASF1040
 9369 01fd 06       		.byte	0x6
 9370 01fe C101     		.uleb128 0xc1
 9371 0200 B2B40000 		.4byte	.LASF1041
 9372 0204 05       		.byte	0x5
 9373 0205 C201     		.uleb128 0xc2
 9374 0207 2F030000 		.4byte	.LASF1042
 9375 020b 06       		.byte	0x6
 9376 020c C501     		.uleb128 0xc5
 9377 020e 6D390000 		.4byte	.LASF1043
 9378 0212 05       		.byte	0x5
 9379 0213 C601     		.uleb128 0xc6
 9380 0215 98E20000 		.4byte	.LASF1044
 9381 0219 06       		.byte	0x6
 9382 021a C901     		.uleb128 0xc9
 9383 021c 8E6E0000 		.4byte	.LASF1045
 9384 0220 05       		.byte	0x5
 9385 0221 CA01     		.uleb128 0xca
 9386 0223 07030100 		.4byte	.LASF1046
 9387 0227 06       		.byte	0x6
 9388 0228 CB01     		.uleb128 0xcb
 9389 022a E78C0000 		.4byte	.LASF1047
 9390 022e 05       		.byte	0x5
 9391 022f CC01     		.uleb128 0xcc
 9392 0231 6C160000 		.4byte	.LASF1048
 9393 0235 06       		.byte	0x6
 9394 0236 CD01     		.uleb128 0xcd
 9395 0238 1A180000 		.4byte	.LASF1049
 9396 023c 05       		.byte	0x5
 9397 023d CE01     		.uleb128 0xce
 9398 023f 14060100 		.4byte	.LASF1050
 9399 0243 06       		.byte	0x6
 9400 0244 D201     		.uleb128 0xd2
 9401 0246 40B90000 		.4byte	.LASF1051
 9402 024a 05       		.byte	0x5
 9403 024b D301     		.uleb128 0xd3
ARM GAS  /tmp/cceRHmPh.s 			page 166


 9404 024d 15590000 		.4byte	.LASF1052
 9405 0251 06       		.byte	0x6
 9406 0252 D401     		.uleb128 0xd4
 9407 0254 0AD40000 		.4byte	.LASF1053
 9408 0258 05       		.byte	0x5
 9409 0259 D501     		.uleb128 0xd5
 9410 025b B3BC0000 		.4byte	.LASF1054
 9411 025f 06       		.byte	0x6
 9412 0260 D701     		.uleb128 0xd7
 9413 0262 ACF60000 		.4byte	.LASF1055
 9414 0266 05       		.byte	0x5
 9415 0267 D801     		.uleb128 0xd8
 9416 0269 A0680000 		.4byte	.LASF1056
 9417 026d 06       		.byte	0x6
 9418 026e D901     		.uleb128 0xd9
 9419 0270 4C110000 		.4byte	.LASF1057
 9420 0274 05       		.byte	0x5
 9421 0275 DA01     		.uleb128 0xda
 9422 0277 FEEC0000 		.4byte	.LASF1058
 9423 027b 06       		.byte	0x6
 9424 027c DC01     		.uleb128 0xdc
 9425 027e C9460000 		.4byte	.LASF1059
 9426 0282 05       		.byte	0x5
 9427 0283 DD01     		.uleb128 0xdd
 9428 0285 EBCB0000 		.4byte	.LASF1060
 9429 0289 06       		.byte	0x6
 9430 028a DF01     		.uleb128 0xdf
 9431 028c 0EC10000 		.4byte	.LASF1061
 9432 0290 05       		.byte	0x5
 9433 0291 E001     		.uleb128 0xe0
 9434 0293 3BF70000 		.4byte	.LASF1062
 9435 0297 06       		.byte	0x6
 9436 0298 E101     		.uleb128 0xe1
 9437 029a 27440000 		.4byte	.LASF1063
 9438 029e 05       		.byte	0x5
 9439 029f E201     		.uleb128 0xe2
 9440 02a1 8AE10000 		.4byte	.LASF1064
 9441 02a5 06       		.byte	0x6
 9442 02a6 E401     		.uleb128 0xe4
 9443 02a8 12F70000 		.4byte	.LASF1065
 9444 02ac 05       		.byte	0x5
 9445 02ad E501     		.uleb128 0xe5
 9446 02af 6C8C0000 		.4byte	.LASF1066
 9447 02b3 06       		.byte	0x6
 9448 02b4 E601     		.uleb128 0xe6
 9449 02b6 C2810000 		.4byte	.LASF1067
 9450 02ba 05       		.byte	0x5
 9451 02bb E701     		.uleb128 0xe7
 9452 02bd 6DCD0000 		.4byte	.LASF1068
 9453 02c1 06       		.byte	0x6
 9454 02c2 EF01     		.uleb128 0xef
 9455 02c4 E4210000 		.4byte	.LASF1069
 9456 02c8 05       		.byte	0x5
 9457 02c9 F001     		.uleb128 0xf0
 9458 02cb 4D3C0000 		.4byte	.LASF1070
 9459 02cf 06       		.byte	0x6
 9460 02d0 F101     		.uleb128 0xf1
ARM GAS  /tmp/cceRHmPh.s 			page 167


 9461 02d2 8EEF0000 		.4byte	.LASF1071
 9462 02d6 05       		.byte	0x5
 9463 02d7 F201     		.uleb128 0xf2
 9464 02d9 DFEE0000 		.4byte	.LASF1072
 9465 02dd 06       		.byte	0x6
 9466 02de F301     		.uleb128 0xf3
 9467 02e0 897C0000 		.4byte	.LASF1073
 9468 02e4 05       		.byte	0x5
 9469 02e5 F401     		.uleb128 0xf4
 9470 02e7 96390000 		.4byte	.LASF1074
 9471 02eb 06       		.byte	0x6
 9472 02ec F501     		.uleb128 0xf5
 9473 02ee 5D1D0000 		.4byte	.LASF1075
 9474 02f2 05       		.byte	0x5
 9475 02f3 F601     		.uleb128 0xf6
 9476 02f5 AFB90000 		.4byte	.LASF1076
 9477 02f9 06       		.byte	0x6
 9478 02fa F701     		.uleb128 0xf7
 9479 02fc 96B00000 		.4byte	.LASF1077
 9480 0300 05       		.byte	0x5
 9481 0301 F801     		.uleb128 0xf8
 9482 0303 0FA20000 		.4byte	.LASF1078
 9483 0307 06       		.byte	0x6
 9484 0308 F901     		.uleb128 0xf9
 9485 030a B0FC0000 		.4byte	.LASF1079
 9486 030e 05       		.byte	0x5
 9487 030f FA01     		.uleb128 0xfa
 9488 0311 20000000 		.4byte	.LASF1080
 9489 0315 06       		.byte	0x6
 9490 0316 FB01     		.uleb128 0xfb
 9491 0318 DC890000 		.4byte	.LASF1081
 9492 031c 05       		.byte	0x5
 9493 031d FC01     		.uleb128 0xfc
 9494 031f E16D0000 		.4byte	.LASF1082
 9495 0323 06       		.byte	0x6
 9496 0324 FD01     		.uleb128 0xfd
 9497 0326 2E2F0000 		.4byte	.LASF1083
 9498 032a 05       		.byte	0x5
 9499 032b FE01     		.uleb128 0xfe
 9500 032d D3280000 		.4byte	.LASF1084
 9501 0331 06       		.byte	0x6
 9502 0332 FF01     		.uleb128 0xff
 9503 0334 E37C0000 		.4byte	.LASF1085
 9504 0338 05       		.byte	0x5
 9505 0339 8002     		.uleb128 0x100
 9506 033b 528C0000 		.4byte	.LASF1086
 9507 033f 06       		.byte	0x6
 9508 0340 8102     		.uleb128 0x101
 9509 0342 EC6A0000 		.4byte	.LASF1087
 9510 0346 05       		.byte	0x5
 9511 0347 8202     		.uleb128 0x102
 9512 0349 651F0000 		.4byte	.LASF1088
 9513 034d 00       		.byte	0
 9514              		.section	.debug_macro,"G",%progbits,wm4.inttypes.h.28.c5f35ffa6c62f217ce23d4796ab1c6e6,comdat
 9515              	.Ldebug_macro24:
 9516 0000 0400     		.2byte	0x4
 9517 0002 00       		.byte	0
ARM GAS  /tmp/cceRHmPh.s 			page 168


 9518 0003 05       		.byte	0x5
 9519 0004 1C       		.uleb128 0x1c
 9520 0005 5C890000 		.4byte	.LASF1090
 9521 0009 05       		.byte	0x5
 9522 000a 1F       		.uleb128 0x1f
 9523 000b 1BF70000 		.4byte	.LASF1091
 9524 000f 05       		.byte	0x5
 9525 0010 20       		.uleb128 0x20
 9526 0011 CEF60000 		.4byte	.LASF1092
 9527 0015 05       		.byte	0x5
 9528 0016 21       		.uleb128 0x21
 9529 0017 D0000000 		.4byte	.LASF1093
 9530 001b 05       		.byte	0x5
 9531 001c 34       		.uleb128 0x34
 9532 001d B6430000 		.4byte	.LASF1094
 9533 0021 05       		.byte	0x5
 9534 0022 35       		.uleb128 0x35
 9535 0023 60D20000 		.4byte	.LASF1095
 9536 0027 05       		.byte	0x5
 9537 0028 36       		.uleb128 0x36
 9538 0029 DC170000 		.4byte	.LASF1096
 9539 002d 05       		.byte	0x5
 9540 002e 37       		.uleb128 0x37
 9541 002f 3B470000 		.4byte	.LASF1097
 9542 0033 05       		.byte	0x5
 9543 0034 38       		.uleb128 0x38
 9544 0035 4C520000 		.4byte	.LASF1098
 9545 0039 05       		.byte	0x5
 9546 003a 39       		.uleb128 0x39
 9547 003b 37B20000 		.4byte	.LASF1099
 9548 003f 05       		.byte	0x5
 9549 0040 47       		.uleb128 0x47
 9550 0041 6ABD0000 		.4byte	.LASF1100
 9551 0045 05       		.byte	0x5
 9552 0046 48       		.uleb128 0x48
 9553 0047 065A0000 		.4byte	.LASF1101
 9554 004b 05       		.byte	0x5
 9555 004c 49       		.uleb128 0x49
 9556 004d 01510000 		.4byte	.LASF1102
 9557 0051 05       		.byte	0x5
 9558 0052 4A       		.uleb128 0x4a
 9559 0053 CA4A0000 		.4byte	.LASF1103
 9560 0057 05       		.byte	0x5
 9561 0058 4B       		.uleb128 0x4b
 9562 0059 60A60000 		.4byte	.LASF1104
 9563 005d 05       		.byte	0x5
 9564 005e 4C       		.uleb128 0x4c
 9565 005f 6AC90000 		.4byte	.LASF1105
 9566 0063 05       		.byte	0x5
 9567 0064 59       		.uleb128 0x59
 9568 0065 4EB30000 		.4byte	.LASF1106
 9569 0069 05       		.byte	0x5
 9570 006a 5A       		.uleb128 0x5a
 9571 006b 1C000100 		.4byte	.LASF1107
 9572 006f 05       		.byte	0x5
 9573 0070 5B       		.uleb128 0x5b
 9574 0071 33AC0000 		.4byte	.LASF1108
ARM GAS  /tmp/cceRHmPh.s 			page 169


 9575 0075 05       		.byte	0x5
 9576 0076 5C       		.uleb128 0x5c
 9577 0077 23470000 		.4byte	.LASF1109
 9578 007b 05       		.byte	0x5
 9579 007c 5D       		.uleb128 0x5d
 9580 007d 7EA40000 		.4byte	.LASF1110
 9581 0081 05       		.byte	0x5
 9582 0082 5E       		.uleb128 0x5e
 9583 0083 90520000 		.4byte	.LASF1111
 9584 0087 05       		.byte	0x5
 9585 0088 6C       		.uleb128 0x6c
 9586 0089 6F810000 		.4byte	.LASF1112
 9587 008d 05       		.byte	0x5
 9588 008e 6D       		.uleb128 0x6d
 9589 008f 50B70000 		.4byte	.LASF1113
 9590 0093 05       		.byte	0x5
 9591 0094 6E       		.uleb128 0x6e
 9592 0095 F4AC0000 		.4byte	.LASF1114
 9593 0099 05       		.byte	0x5
 9594 009a 6F       		.uleb128 0x6f
 9595 009b BAE90000 		.4byte	.LASF1115
 9596 009f 05       		.byte	0x5
 9597 00a0 70       		.uleb128 0x70
 9598 00a1 6E960000 		.4byte	.LASF1116
 9599 00a5 05       		.byte	0x5
 9600 00a6 71       		.uleb128 0x71
 9601 00a7 891B0000 		.4byte	.LASF1117
 9602 00ab 05       		.byte	0x5
 9603 00ac 74       		.uleb128 0x74
 9604 00ad 4AA80000 		.4byte	.LASF1118
 9605 00b1 05       		.byte	0x5
 9606 00b2 75       		.uleb128 0x75
 9607 00b3 52F20000 		.4byte	.LASF1119
 9608 00b7 05       		.byte	0x5
 9609 00b8 76       		.uleb128 0x76
 9610 00b9 FE330000 		.4byte	.LASF1120
 9611 00bd 05       		.byte	0x5
 9612 00be 77       		.uleb128 0x77
 9613 00bf C0B20000 		.4byte	.LASF1121
 9614 00c3 05       		.byte	0x5
 9615 00c4 78       		.uleb128 0x78
 9616 00c5 7B280000 		.4byte	.LASF1122
 9617 00c9 05       		.byte	0x5
 9618 00ca 79       		.uleb128 0x79
 9619 00cb FD290000 		.4byte	.LASF1123
 9620 00cf 05       		.byte	0x5
 9621 00d0 7B       		.uleb128 0x7b
 9622 00d1 0FF80000 		.4byte	.LASF1124
 9623 00d5 05       		.byte	0x5
 9624 00d6 7C       		.uleb128 0x7c
 9625 00d7 C2130000 		.4byte	.LASF1125
 9626 00db 05       		.byte	0x5
 9627 00dc 7D       		.uleb128 0x7d
 9628 00dd 3B840000 		.4byte	.LASF1126
 9629 00e1 05       		.byte	0x5
 9630 00e2 7E       		.uleb128 0x7e
 9631 00e3 09FE0000 		.4byte	.LASF1127
ARM GAS  /tmp/cceRHmPh.s 			page 170


 9632 00e7 05       		.byte	0x5
 9633 00e8 7F       		.uleb128 0x7f
 9634 00e9 56790000 		.4byte	.LASF1128
 9635 00ed 05       		.byte	0x5
 9636 00ee 8201     		.uleb128 0x82
 9637 00f0 BDF20000 		.4byte	.LASF1129
 9638 00f4 05       		.byte	0x5
 9639 00f5 8301     		.uleb128 0x83
 9640 00f7 11140000 		.4byte	.LASF1130
 9641 00fb 05       		.byte	0x5
 9642 00fc 8401     		.uleb128 0x84
 9643 00fe 8BF90000 		.4byte	.LASF1131
 9644 0102 05       		.byte	0x5
 9645 0103 8501     		.uleb128 0x85
 9646 0105 1FD90000 		.4byte	.LASF1132
 9647 0109 05       		.byte	0x5
 9648 010a 8601     		.uleb128 0x86
 9649 010c 097D0000 		.4byte	.LASF1133
 9650 0110 05       		.byte	0x5
 9651 0111 8701     		.uleb128 0x87
 9652 0113 F6A60000 		.4byte	.LASF1134
 9653 0117 05       		.byte	0x5
 9654 0118 8901     		.uleb128 0x89
 9655 011a 605D0000 		.4byte	.LASF1135
 9656 011e 05       		.byte	0x5
 9657 011f 8A01     		.uleb128 0x8a
 9658 0121 B0EF0000 		.4byte	.LASF1136
 9659 0125 05       		.byte	0x5
 9660 0126 8B01     		.uleb128 0x8b
 9661 0128 6FD10000 		.4byte	.LASF1137
 9662 012c 05       		.byte	0x5
 9663 012d 8C01     		.uleb128 0x8c
 9664 012f 66B40000 		.4byte	.LASF1138
 9665 0133 05       		.byte	0x5
 9666 0134 8D01     		.uleb128 0x8d
 9667 0136 C8EA0000 		.4byte	.LASF1139
 9668 013a 05       		.byte	0x5
 9669 013b 9001     		.uleb128 0x90
 9670 013d C1A10000 		.4byte	.LASF1140
 9671 0141 05       		.byte	0x5
 9672 0142 9101     		.uleb128 0x91
 9673 0144 3BE10000 		.4byte	.LASF1141
 9674 0148 05       		.byte	0x5
 9675 0149 9201     		.uleb128 0x92
 9676 014b 1FC00000 		.4byte	.LASF1142
 9677 014f 05       		.byte	0x5
 9678 0150 9301     		.uleb128 0x93
 9679 0152 0B360000 		.4byte	.LASF1143
 9680 0156 05       		.byte	0x5
 9681 0157 9401     		.uleb128 0x94
 9682 0159 ED020100 		.4byte	.LASF1144
 9683 015d 05       		.byte	0x5
 9684 015e 9501     		.uleb128 0x95
 9685 0160 82B40000 		.4byte	.LASF1145
 9686 0164 05       		.byte	0x5
 9687 0165 9701     		.uleb128 0x97
 9688 0167 86680000 		.4byte	.LASF1146
ARM GAS  /tmp/cceRHmPh.s 			page 171


 9689 016b 05       		.byte	0x5
 9690 016c 9801     		.uleb128 0x98
 9691 016e D8050100 		.4byte	.LASF1147
 9692 0172 05       		.byte	0x5
 9693 0173 9901     		.uleb128 0x99
 9694 0175 B8670000 		.4byte	.LASF1148
 9695 0179 05       		.byte	0x5
 9696 017a 9A01     		.uleb128 0x9a
 9697 017c 8A5D0000 		.4byte	.LASF1149
 9698 0180 05       		.byte	0x5
 9699 0181 9B01     		.uleb128 0x9b
 9700 0183 26250000 		.4byte	.LASF1150
 9701 0187 05       		.byte	0x5
 9702 0188 9E01     		.uleb128 0x9e
 9703 018a 1D300000 		.4byte	.LASF1151
 9704 018e 05       		.byte	0x5
 9705 018f 9F01     		.uleb128 0x9f
 9706 0191 448D0000 		.4byte	.LASF1152
 9707 0195 05       		.byte	0x5
 9708 0196 A001     		.uleb128 0xa0
 9709 0198 CC650000 		.4byte	.LASF1153
 9710 019c 05       		.byte	0x5
 9711 019d A101     		.uleb128 0xa1
 9712 019f 333A0000 		.4byte	.LASF1154
 9713 01a3 05       		.byte	0x5
 9714 01a4 A201     		.uleb128 0xa2
 9715 01a6 01D20000 		.4byte	.LASF1155
 9716 01aa 05       		.byte	0x5
 9717 01ab A301     		.uleb128 0xa3
 9718 01ad 840F0000 		.4byte	.LASF1156
 9719 01b1 05       		.byte	0x5
 9720 01b2 A501     		.uleb128 0xa5
 9721 01b4 6CB90000 		.4byte	.LASF1157
 9722 01b8 05       		.byte	0x5
 9723 01b9 A601     		.uleb128 0xa6
 9724 01bb 97D40000 		.4byte	.LASF1158
 9725 01bf 05       		.byte	0x5
 9726 01c0 A701     		.uleb128 0xa7
 9727 01c2 13BA0000 		.4byte	.LASF1159
 9728 01c6 05       		.byte	0x5
 9729 01c7 A801     		.uleb128 0xa8
 9730 01c9 2D430000 		.4byte	.LASF1160
 9731 01cd 05       		.byte	0x5
 9732 01ce A901     		.uleb128 0xa9
 9733 01d0 43340000 		.4byte	.LASF1161
 9734 01d4 05       		.byte	0x5
 9735 01d5 AA01     		.uleb128 0xaa
 9736 01d7 CECE0000 		.4byte	.LASF1162
 9737 01db 05       		.byte	0x5
 9738 01dc AC01     		.uleb128 0xac
 9739 01de 7E040100 		.4byte	.LASF1163
 9740 01e2 05       		.byte	0x5
 9741 01e3 AD01     		.uleb128 0xad
 9742 01e5 93CA0000 		.4byte	.LASF1164
 9743 01e9 05       		.byte	0x5
 9744 01ea AE01     		.uleb128 0xae
 9745 01ec 12220000 		.4byte	.LASF1165
ARM GAS  /tmp/cceRHmPh.s 			page 172


 9746 01f0 05       		.byte	0x5
 9747 01f1 AF01     		.uleb128 0xaf
 9748 01f3 8A940000 		.4byte	.LASF1166
 9749 01f7 05       		.byte	0x5
 9750 01f8 B001     		.uleb128 0xb0
 9751 01fa B0840000 		.4byte	.LASF1167
 9752 01fe 05       		.byte	0x5
 9753 01ff B301     		.uleb128 0xb3
 9754 0201 5F970000 		.4byte	.LASF1168
 9755 0205 05       		.byte	0x5
 9756 0206 B401     		.uleb128 0xb4
 9757 0208 81850000 		.4byte	.LASF1169
 9758 020c 05       		.byte	0x5
 9759 020d B501     		.uleb128 0xb5
 9760 020f 51390000 		.4byte	.LASF1170
 9761 0213 05       		.byte	0x5
 9762 0214 B601     		.uleb128 0xb6
 9763 0216 6F460000 		.4byte	.LASF1171
 9764 021a 05       		.byte	0x5
 9765 021b B701     		.uleb128 0xb7
 9766 021d B6800000 		.4byte	.LASF1172
 9767 0221 05       		.byte	0x5
 9768 0222 B801     		.uleb128 0xb8
 9769 0224 60AE0000 		.4byte	.LASF1173
 9770 0228 05       		.byte	0x5
 9771 0229 BA01     		.uleb128 0xba
 9772 022b 63360000 		.4byte	.LASF1174
 9773 022f 05       		.byte	0x5
 9774 0230 BB01     		.uleb128 0xbb
 9775 0232 84700000 		.4byte	.LASF1175
 9776 0236 05       		.byte	0x5
 9777 0237 BC01     		.uleb128 0xbc
 9778 0239 D3D30000 		.4byte	.LASF1176
 9779 023d 05       		.byte	0x5
 9780 023e BD01     		.uleb128 0xbd
 9781 0240 93B90000 		.4byte	.LASF1177
 9782 0244 05       		.byte	0x5
 9783 0245 BE01     		.uleb128 0xbe
 9784 0247 A6500000 		.4byte	.LASF1178
 9785 024b 05       		.byte	0x5
 9786 024c C101     		.uleb128 0xc1
 9787 024e 24130000 		.4byte	.LASF1179
 9788 0252 05       		.byte	0x5
 9789 0253 C201     		.uleb128 0xc2
 9790 0255 2B4B0000 		.4byte	.LASF1180
 9791 0259 05       		.byte	0x5
 9792 025a C301     		.uleb128 0xc3
 9793 025c B4440000 		.4byte	.LASF1181
 9794 0260 05       		.byte	0x5
 9795 0261 C401     		.uleb128 0xc4
 9796 0263 D7BC0000 		.4byte	.LASF1182
 9797 0267 05       		.byte	0x5
 9798 0268 C501     		.uleb128 0xc5
 9799 026a B7740000 		.4byte	.LASF1183
 9800 026e 05       		.byte	0x5
 9801 026f C601     		.uleb128 0xc6
 9802 0271 3D1F0000 		.4byte	.LASF1184
ARM GAS  /tmp/cceRHmPh.s 			page 173


 9803 0275 05       		.byte	0x5
 9804 0276 C801     		.uleb128 0xc8
 9805 0278 0E370000 		.4byte	.LASF1185
 9806 027c 05       		.byte	0x5
 9807 027d C901     		.uleb128 0xc9
 9808 027f 08770000 		.4byte	.LASF1186
 9809 0283 05       		.byte	0x5
 9810 0284 CA01     		.uleb128 0xca
 9811 0286 36700000 		.4byte	.LASF1187
 9812 028a 05       		.byte	0x5
 9813 028b CB01     		.uleb128 0xcb
 9814 028d 49D70000 		.4byte	.LASF1188
 9815 0291 05       		.byte	0x5
 9816 0292 CC01     		.uleb128 0xcc
 9817 0294 8BA20000 		.4byte	.LASF1189
 9818 0298 05       		.byte	0x5
 9819 0299 D001     		.uleb128 0xd0
 9820 029b AB1D0000 		.4byte	.LASF1190
 9821 029f 05       		.byte	0x5
 9822 02a0 D101     		.uleb128 0xd1
 9823 02a2 A2F50000 		.4byte	.LASF1191
 9824 02a6 05       		.byte	0x5
 9825 02a7 D301     		.uleb128 0xd3
 9826 02a9 AB580000 		.4byte	.LASF1192
 9827 02ad 05       		.byte	0x5
 9828 02ae D401     		.uleb128 0xd4
 9829 02b0 69DB0000 		.4byte	.LASF1193
 9830 02b4 05       		.byte	0x5
 9831 02b5 D501     		.uleb128 0xd5
 9832 02b7 F1E90000 		.4byte	.LASF1194
 9833 02bb 05       		.byte	0x5
 9834 02bc D601     		.uleb128 0xd6
 9835 02be 9D590000 		.4byte	.LASF1195
 9836 02c2 05       		.byte	0x5
 9837 02c3 8A02     		.uleb128 0x10a
 9838 02c5 40000100 		.4byte	.LASF1196
 9839 02c9 05       		.byte	0x5
 9840 02ca 8B02     		.uleb128 0x10b
 9841 02cc 6AFE0000 		.4byte	.LASF1197
 9842 02d0 05       		.byte	0x5
 9843 02d1 9102     		.uleb128 0x111
 9844 02d3 00000000 		.4byte	.LASF1198
 9845 02d7 05       		.byte	0x5
 9846 02d8 9202     		.uleb128 0x112
 9847 02da ACC40000 		.4byte	.LASF1199
 9848 02de 05       		.byte	0x5
 9849 02df 9302     		.uleb128 0x113
 9850 02e1 04440000 		.4byte	.LASF1200
 9851 02e5 05       		.byte	0x5
 9852 02e6 9402     		.uleb128 0x114
 9853 02e8 14900000 		.4byte	.LASF1201
 9854 02ec 05       		.byte	0x5
 9855 02ed 9502     		.uleb128 0x115
 9856 02ef 5A4B0000 		.4byte	.LASF1202
 9857 02f3 05       		.byte	0x5
 9858 02f4 9602     		.uleb128 0x116
 9859 02f6 9C280000 		.4byte	.LASF1203
ARM GAS  /tmp/cceRHmPh.s 			page 174


 9860 02fa 05       		.byte	0x5
 9861 02fb 9802     		.uleb128 0x118
 9862 02fd 83D40000 		.4byte	.LASF1204
 9863 0301 05       		.byte	0x5
 9864 0302 9902     		.uleb128 0x119
 9865 0304 C2840000 		.4byte	.LASF1205
 9866 0308 05       		.byte	0x5
 9867 0309 9A02     		.uleb128 0x11a
 9868 030b 72680000 		.4byte	.LASF1206
 9869 030f 05       		.byte	0x5
 9870 0310 9B02     		.uleb128 0x11b
 9871 0312 8EF50000 		.4byte	.LASF1207
 9872 0316 05       		.byte	0x5
 9873 0317 9C02     		.uleb128 0x11c
 9874 0319 45190000 		.4byte	.LASF1208
 9875 031d 05       		.byte	0x5
 9876 031e A602     		.uleb128 0x126
 9877 0320 9A900000 		.4byte	.LASF1209
 9878 0324 05       		.byte	0x5
 9879 0325 A702     		.uleb128 0x127
 9880 0327 58070100 		.4byte	.LASF1210
 9881 032b 05       		.byte	0x5
 9882 032c AA02     		.uleb128 0x12a
 9883 032e 75C10000 		.4byte	.LASF1211
 9884 0332 05       		.byte	0x5
 9885 0333 AB02     		.uleb128 0x12b
 9886 0335 CD6D0000 		.4byte	.LASF1212
 9887 0339 05       		.byte	0x5
 9888 033a AC02     		.uleb128 0x12c
 9889 033c 01590000 		.4byte	.LASF1213
 9890 0340 05       		.byte	0x5
 9891 0341 AD02     		.uleb128 0x12d
 9892 0343 C9420000 		.4byte	.LASF1214
 9893 0347 05       		.byte	0x5
 9894 0348 AE02     		.uleb128 0x12e
 9895 034a 9ABE0000 		.4byte	.LASF1215
 9896 034e 05       		.byte	0x5
 9897 034f AF02     		.uleb128 0x12f
 9898 0351 224A0000 		.4byte	.LASF1216
 9899 0355 05       		.byte	0x5
 9900 0356 B102     		.uleb128 0x131
 9901 0358 F7810000 		.4byte	.LASF1217
 9902 035c 05       		.byte	0x5
 9903 035d B202     		.uleb128 0x132
 9904 035f DC360000 		.4byte	.LASF1218
 9905 0363 05       		.byte	0x5
 9906 0364 B302     		.uleb128 0x133
 9907 0366 BE250000 		.4byte	.LASF1219
 9908 036a 05       		.byte	0x5
 9909 036b B402     		.uleb128 0x134
 9910 036d 5B120000 		.4byte	.LASF1220
 9911 0371 05       		.byte	0x5
 9912 0372 B502     		.uleb128 0x135
 9913 0374 43E30000 		.4byte	.LASF1221
 9914 0378 00       		.byte	0
 9915              		.section	.debug_macro,"G",%progbits,wm4.stdbool.h.29.07dce69c3b78884144b7f7bd19483461,comdat
 9916              	.Ldebug_macro25:
ARM GAS  /tmp/cceRHmPh.s 			page 175


 9917 0000 0400     		.2byte	0x4
 9918 0002 00       		.byte	0
 9919 0003 05       		.byte	0x5
 9920 0004 1D       		.uleb128 0x1d
 9921 0005 40110000 		.4byte	.LASF1222
 9922 0009 05       		.byte	0x5
 9923 000a 21       		.uleb128 0x21
 9924 000b EB210000 		.4byte	.LASF1223
 9925 000f 05       		.byte	0x5
 9926 0010 22       		.uleb128 0x22
 9927 0011 A6C50000 		.4byte	.LASF1224
 9928 0015 05       		.byte	0x5
 9929 0016 23       		.uleb128 0x23
 9930 0017 E1290000 		.4byte	.LASF1225
 9931 001b 05       		.byte	0x5
 9932 001c 34       		.uleb128 0x34
 9933 001d 79550000 		.4byte	.LASF1226
 9934 0021 00       		.byte	0
 9935              		.section	.debug_macro,"G",%progbits,wm4.math.h.13.3407b0d71b4c439015d8928b0a2edca3,comdat
 9936              	.Ldebug_macro26:
 9937 0000 0400     		.2byte	0x4
 9938 0002 00       		.byte	0
 9939 0003 05       		.byte	0x5
 9940 0004 0D       		.uleb128 0xd
 9941 0005 71370000 		.4byte	.LASF1228
 9942 0009 05       		.byte	0x5
 9943 000a 13       		.uleb128 0x13
 9944 000b 3E130000 		.4byte	.LASF1229
 9945 000f 05       		.byte	0x5
 9946 0010 17       		.uleb128 0x17
 9947 0011 D16E0000 		.4byte	.LASF1230
 9948 0015 05       		.byte	0x5
 9949 0016 1B       		.uleb128 0x1b
 9950 0017 78070000 		.4byte	.LASF1231
 9951 001b 05       		.byte	0x5
 9952 001c 1F       		.uleb128 0x1f
 9953 001d 9BEE0000 		.4byte	.LASF1232
 9954 0021 05       		.byte	0x5
 9955 0022 23       		.uleb128 0x23
 9956 0023 76010000 		.4byte	.LASF1233
 9957 0027 05       		.byte	0x5
 9958 0028 AB01     		.uleb128 0xab
 9959 002a 22C90000 		.4byte	.LASF1234
 9960 002e 05       		.byte	0x5
 9961 002f AC01     		.uleb128 0xac
 9962 0031 76150000 		.4byte	.LASF1235
 9963 0035 05       		.byte	0x5
 9964 0036 AD01     		.uleb128 0xad
 9965 0038 F69F0000 		.4byte	.LASF1236
 9966 003c 05       		.byte	0x5
 9967 003d AE01     		.uleb128 0xae
 9968 003f 7BE10000 		.4byte	.LASF1237
 9969 0043 05       		.byte	0x5
 9970 0044 AF01     		.uleb128 0xaf
 9971 0046 C0470000 		.4byte	.LASF1238
 9972 004a 05       		.byte	0x5
 9973 004b B201     		.uleb128 0xb2
ARM GAS  /tmp/cceRHmPh.s 			page 176


 9974 004d A9140000 		.4byte	.LASF1239
 9975 0051 05       		.byte	0x5
 9976 0052 B501     		.uleb128 0xb5
 9977 0054 10E50000 		.4byte	.LASF1240
 9978 0058 05       		.byte	0x5
 9979 0059 B901     		.uleb128 0xb9
 9980 005b D2460000 		.4byte	.LASF1241
 9981 005f 05       		.byte	0x5
 9982 0060 BC01     		.uleb128 0xbc
 9983 0062 92000000 		.4byte	.LASF1242
 9984 0066 05       		.byte	0x5
 9985 0067 BF01     		.uleb128 0xbf
 9986 0069 C3CD0000 		.4byte	.LASF1243
 9987 006d 05       		.byte	0x5
 9988 006e D301     		.uleb128 0xd3
 9989 0070 26940000 		.4byte	.LASF1244
 9990 0074 05       		.byte	0x5
 9991 0075 D701     		.uleb128 0xd7
 9992 0077 EF300000 		.4byte	.LASF1245
 9993 007b 05       		.byte	0x5
 9994 007c DA01     		.uleb128 0xda
 9995 007e 5C3A0000 		.4byte	.LASF1246
 9996 0082 05       		.byte	0x5
 9997 0083 DD01     		.uleb128 0xdd
 9998 0085 ECF70000 		.4byte	.LASF1247
 9999 0089 05       		.byte	0x5
 10000 008a DF01     		.uleb128 0xdf
 10001 008c BB990000 		.4byte	.LASF1248
 10002 0090 05       		.byte	0x5
 10003 0091 F401     		.uleb128 0xf4
 10004 0093 05A30000 		.4byte	.LASF1249
 10005 0097 05       		.byte	0x5
 10006 0098 8402     		.uleb128 0x104
 10007 009a D78B0000 		.4byte	.LASF1250
 10008 009e 05       		.byte	0x5
 10009 009f 8502     		.uleb128 0x105
 10010 00a1 6F050000 		.4byte	.LASF1251
 10011 00a5 05       		.byte	0x5
 10012 00a6 8602     		.uleb128 0x106
 10013 00a8 72EA0000 		.4byte	.LASF1252
 10014 00ac 05       		.byte	0x5
 10015 00ad 8702     		.uleb128 0x107
 10016 00af 9CFB0000 		.4byte	.LASF1253
 10017 00b3 05       		.byte	0x5
 10018 00b4 8802     		.uleb128 0x108
 10019 00b6 09190000 		.4byte	.LASF1254
 10020 00ba 05       		.byte	0x5
 10021 00bb 8902     		.uleb128 0x109
 10022 00bd 64F20000 		.4byte	.LASF1255
 10023 00c1 05       		.byte	0x5
 10024 00c2 CD02     		.uleb128 0x14d
 10025 00c4 F1820000 		.4byte	.LASF1256
 10026 00c8 05       		.byte	0x5
 10027 00c9 B404     		.uleb128 0x234
 10028 00cb F44B0000 		.4byte	.LASF1257
 10029 00cf 05       		.byte	0x5
 10030 00d0 B804     		.uleb128 0x238
ARM GAS  /tmp/cceRHmPh.s 			page 177


 10031 00d2 641B0000 		.4byte	.LASF1258
 10032 00d6 05       		.byte	0x5
 10033 00d7 BF04     		.uleb128 0x23f
 10034 00d9 E70E0000 		.4byte	.LASF1259
 10035 00dd 05       		.byte	0x5
 10036 00de C104     		.uleb128 0x241
 10037 00e0 80060100 		.4byte	.LASF1260
 10038 00e4 05       		.byte	0x5
 10039 00e5 C204     		.uleb128 0x242
 10040 00e7 70D20000 		.4byte	.LASF1261
 10041 00eb 05       		.byte	0x5
 10042 00ec C304     		.uleb128 0x243
 10043 00ee E0C90000 		.4byte	.LASF1262
 10044 00f2 05       		.byte	0x5
 10045 00f3 C404     		.uleb128 0x244
 10046 00f5 00CA0000 		.4byte	.LASF1263
 10047 00f9 05       		.byte	0x5
 10048 00fa C504     		.uleb128 0x245
 10049 00fc F0360000 		.4byte	.LASF1264
 10050 0100 05       		.byte	0x5
 10051 0101 C604     		.uleb128 0x246
 10052 0103 0DB70000 		.4byte	.LASF1265
 10053 0107 05       		.byte	0x5
 10054 0108 C704     		.uleb128 0x247
 10055 010a CA920000 		.4byte	.LASF1266
 10056 010e 05       		.byte	0x5
 10057 010f C804     		.uleb128 0x248
 10058 0111 D5C10000 		.4byte	.LASF1267
 10059 0115 05       		.byte	0x5
 10060 0116 C904     		.uleb128 0x249
 10061 0118 C2140000 		.4byte	.LASF1268
 10062 011c 05       		.byte	0x5
 10063 011d CA04     		.uleb128 0x24a
 10064 011f 84B10000 		.4byte	.LASF1269
 10065 0123 05       		.byte	0x5
 10066 0124 CB04     		.uleb128 0x24b
 10067 0126 DBD80000 		.4byte	.LASF1270
 10068 012a 05       		.byte	0x5
 10069 012b CC04     		.uleb128 0x24c
 10070 012d 633C0000 		.4byte	.LASF1271
 10071 0131 05       		.byte	0x5
 10072 0132 CD04     		.uleb128 0x24d
 10073 0134 EBF50000 		.4byte	.LASF1272
 10074 0138 05       		.byte	0x5
 10075 0139 D304     		.uleb128 0x253
 10076 013b 55340000 		.4byte	.LASF1273
 10077 013f 05       		.byte	0x5
 10078 0140 D404     		.uleb128 0x254
 10079 0142 7AA60000 		.4byte	.LASF1274
 10080 0146 05       		.byte	0x5
 10081 0147 D504     		.uleb128 0x255
 10082 0149 BC910000 		.4byte	.LASF1275
 10083 014d 05       		.byte	0x5
 10084 014e D604     		.uleb128 0x256
 10085 0150 5EAC0000 		.4byte	.LASF1276
 10086 0154 05       		.byte	0x5
 10087 0155 D704     		.uleb128 0x257
ARM GAS  /tmp/cceRHmPh.s 			page 178


 10088 0157 D59F0000 		.4byte	.LASF1277
 10089 015b 05       		.byte	0x5
 10090 015c D804     		.uleb128 0x258
 10091 015e C7EB0000 		.4byte	.LASF1278
 10092 0162 05       		.byte	0x5
 10093 0163 D904     		.uleb128 0x259
 10094 0165 A0FA0000 		.4byte	.LASF1279
 10095 0169 05       		.byte	0x5
 10096 016a DA04     		.uleb128 0x25a
 10097 016c 625C0000 		.4byte	.LASF1280
 10098 0170 05       		.byte	0x5
 10099 0171 DB04     		.uleb128 0x25b
 10100 0173 854F0000 		.4byte	.LASF1281
 10101 0177 05       		.byte	0x5
 10102 0178 E504     		.uleb128 0x265
 10103 017a 24D50000 		.4byte	.LASF1282
 10104 017e 05       		.byte	0x5
 10105 017f E604     		.uleb128 0x266
 10106 0181 E8A40000 		.4byte	.LASF1283
 10107 0185 05       		.byte	0x5
 10108 0186 EA04     		.uleb128 0x26a
 10109 0188 79F50000 		.4byte	.LASF1284
 10110 018c 05       		.byte	0x5
 10111 018d EB04     		.uleb128 0x26b
 10112 018f 63D70000 		.4byte	.LASF1285
 10113 0193 00       		.byte	0
 10114              		.section	.debug_macro,"G",%progbits,wm4.message_pragmas.h.2.19f9da639d3b857b5eedec0176791f43,comda
 10115              	.Ldebug_macro27:
 10116 0000 0400     		.2byte	0x4
 10117 0002 00       		.byte	0
 10118 0003 05       		.byte	0x5
 10119 0004 02       		.uleb128 0x2
 10120 0005 4B430000 		.4byte	.LASF1286
 10121 0009 05       		.byte	0x5
 10122 000a 05       		.uleb128 0x5
 10123 000b F6D20000 		.4byte	.LASF1287
 10124 000f 05       		.byte	0x5
 10125 0010 06       		.uleb128 0x6
 10126 0011 B05E0000 		.4byte	.LASF1288
 10127 0015 05       		.byte	0x5
 10128 0016 07       		.uleb128 0x7
 10129 0017 84050100 		.4byte	.LASF1289
 10130 001b 05       		.byte	0x5
 10131 001c 12       		.uleb128 0x12
 10132 001d D2B20000 		.4byte	.LASF1290
 10133 0021 05       		.byte	0x5
 10134 0022 13       		.uleb128 0x13
 10135 0023 126C0000 		.4byte	.LASF1291
 10136 0027 05       		.byte	0x5
 10137 0028 14       		.uleb128 0x14
 10138 0029 843A0000 		.4byte	.LASF1292
 10139 002d 05       		.byte	0x5
 10140 002e 15       		.uleb128 0x15
 10141 002f B4170000 		.4byte	.LASF1293
 10142 0033 05       		.byte	0x5
 10143 0034 16       		.uleb128 0x16
 10144 0035 9FA40000 		.4byte	.LASF1294
ARM GAS  /tmp/cceRHmPh.s 			page 179


 10145 0039 05       		.byte	0x5
 10146 003a 17       		.uleb128 0x17
 10147 003b 18FB0000 		.4byte	.LASF1295
 10148 003f 05       		.byte	0x5
 10149 0040 20       		.uleb128 0x20
 10150 0041 D4FB0000 		.4byte	.LASF1296
 10151 0045 05       		.byte	0x5
 10152 0046 21       		.uleb128 0x21
 10153 0047 A0CE0000 		.4byte	.LASF1297
 10154 004b 05       		.byte	0x5
 10155 004c 22       		.uleb128 0x22
 10156 004d 83CD0000 		.4byte	.LASF1298
 10157 0051 00       		.byte	0
 10158              		.section	.debug_macro,"G",%progbits,wm4.std.h.41.98eaba0fe9afe518eab028a73a8ce0e2,comdat
 10159              	.Ldebug_macro28:
 10160 0000 0400     		.2byte	0x4
 10161 0002 00       		.byte	0
 10162 0003 05       		.byte	0x5
 10163 0004 29       		.uleb128 0x29
 10164 0005 98F80000 		.4byte	.LASF1299
 10165 0009 05       		.byte	0x5
 10166 000a 2A       		.uleb128 0x2a
 10167 000b 69700000 		.4byte	.LASF1300
 10168 000f 05       		.byte	0x5
 10169 0010 2C       		.uleb128 0x2c
 10170 0011 63050000 		.4byte	.LASF1301
 10171 0015 05       		.byte	0x5
 10172 0016 2F       		.uleb128 0x2f
 10173 0017 EC6B0000 		.4byte	.LASF1302
 10174 001b 05       		.byte	0x5
 10175 001c 32       		.uleb128 0x32
 10176 001d F7610000 		.4byte	.LASF1303
 10177 0021 05       		.byte	0x5
 10178 0022 4E       		.uleb128 0x4e
 10179 0023 A5780000 		.4byte	.LASF1304
 10180 0027 05       		.byte	0x5
 10181 0028 52       		.uleb128 0x52
 10182 0029 79F70000 		.4byte	.LASF1305
 10183 002d 05       		.byte	0x5
 10184 002e 55       		.uleb128 0x55
 10185 002f 98C10000 		.4byte	.LASF1306
 10186 0033 05       		.byte	0x5
 10187 0034 56       		.uleb128 0x56
 10188 0035 79390000 		.4byte	.LASF1307
 10189 0039 05       		.byte	0x5
 10190 003a 59       		.uleb128 0x59
 10191 003b 20FA0000 		.4byte	.LASF1308
 10192 003f 05       		.byte	0x5
 10193 0040 5E       		.uleb128 0x5e
 10194 0041 3AF80000 		.4byte	.LASF1309
 10195 0045 05       		.byte	0x5
 10196 0046 63       		.uleb128 0x63
 10197 0047 EC1E0000 		.4byte	.LASF1310
 10198 004b 05       		.byte	0x5
 10199 004c 72       		.uleb128 0x72
 10200 004d 583D0000 		.4byte	.LASF1311
 10201 0051 05       		.byte	0x5
ARM GAS  /tmp/cceRHmPh.s 			page 180


 10202 0052 73       		.uleb128 0x73
 10203 0053 C6780000 		.4byte	.LASF1312
 10204 0057 05       		.byte	0x5
 10205 0058 75       		.uleb128 0x75
 10206 0059 083F0000 		.4byte	.LASF1313
 10207 005d 05       		.byte	0x5
 10208 005e 76       		.uleb128 0x76
 10209 005f 0B820000 		.4byte	.LASF1314
 10210 0063 05       		.byte	0x5
 10211 0064 77       		.uleb128 0x77
 10212 0065 30060100 		.4byte	.LASF1315
 10213 0069 05       		.byte	0x5
 10214 006a 78       		.uleb128 0x78
 10215 006b CB810000 		.4byte	.LASF1316
 10216 006f 05       		.byte	0x5
 10217 0070 7A       		.uleb128 0x7a
 10218 0071 6C170000 		.4byte	.LASF1317
 10219 0075 05       		.byte	0x5
 10220 0076 7B       		.uleb128 0x7b
 10221 0077 508F0000 		.4byte	.LASF1318
 10222 007b 05       		.byte	0x5
 10223 007c 7D       		.uleb128 0x7d
 10224 007d 64B60000 		.4byte	.LASF1319
 10225 0081 05       		.byte	0x5
 10226 0082 7E       		.uleb128 0x7e
 10227 0083 63480000 		.4byte	.LASF1320
 10228 0087 05       		.byte	0x5
 10229 0088 7F       		.uleb128 0x7f
 10230 0089 93130000 		.4byte	.LASF1321
 10231 008d 05       		.byte	0x5
 10232 008e 8001     		.uleb128 0x80
 10233 0090 96EB0000 		.4byte	.LASF1322
 10234 0094 05       		.byte	0x5
 10235 0095 8101     		.uleb128 0x81
 10236 0097 FFE20000 		.4byte	.LASF1323
 10237 009b 05       		.byte	0x5
 10238 009c 8201     		.uleb128 0x82
 10239 009e D9FE0000 		.4byte	.LASF1324
 10240 00a2 05       		.byte	0x5
 10241 00a3 8501     		.uleb128 0x85
 10242 00a5 F5B00000 		.4byte	.LASF1325
 10243 00a9 05       		.byte	0x5
 10244 00aa 8801     		.uleb128 0x88
 10245 00ac AEBE0000 		.4byte	.LASF1326
 10246 00b0 05       		.byte	0x5
 10247 00b1 8B01     		.uleb128 0x8b
 10248 00b3 568B0000 		.4byte	.LASF1327
 10249 00b7 05       		.byte	0x5
 10250 00b8 8D01     		.uleb128 0x8d
 10251 00ba 570E0000 		.4byte	.LASF1328
 10252 00be 05       		.byte	0x5
 10253 00bf 9501     		.uleb128 0x95
 10254 00c1 3BD90000 		.4byte	.LASF1329
 10255 00c5 05       		.byte	0x5
 10256 00c6 9B01     		.uleb128 0x9b
 10257 00c8 84C90000 		.4byte	.LASF1330
 10258 00cc 05       		.byte	0x5
ARM GAS  /tmp/cceRHmPh.s 			page 181


 10259 00cd 9C01     		.uleb128 0x9c
 10260 00cf C0FA0000 		.4byte	.LASF1331
 10261 00d3 05       		.byte	0x5
 10262 00d4 9D01     		.uleb128 0x9d
 10263 00d6 F9BF0000 		.4byte	.LASF1332
 10264 00da 05       		.byte	0x5
 10265 00db 9F01     		.uleb128 0x9f
 10266 00dd DC530000 		.4byte	.LASF1333
 10267 00e1 05       		.byte	0x5
 10268 00e2 A101     		.uleb128 0xa1
 10269 00e4 B3080000 		.4byte	.LASF1334
 10270 00e8 05       		.byte	0x5
 10271 00e9 AA01     		.uleb128 0xaa
 10272 00eb 31890000 		.4byte	.LASF1335
 10273 00ef 05       		.byte	0x5
 10274 00f0 AC01     		.uleb128 0xac
 10275 00f2 21F40000 		.4byte	.LASF1336
 10276 00f6 05       		.byte	0x5
 10277 00f7 B501     		.uleb128 0xb5
 10278 00f9 BDB40000 		.4byte	.LASF1337
 10279 00fd 05       		.byte	0x5
 10280 00fe C401     		.uleb128 0xc4
 10281 0100 00FF0000 		.4byte	.LASF1338
 10282 0104 05       		.byte	0x5
 10283 0105 DB01     		.uleb128 0xdb
 10284 0107 811F0000 		.4byte	.LASF1339
 10285 010b 05       		.byte	0x5
 10286 010c 8D02     		.uleb128 0x10d
 10287 010e 90080000 		.4byte	.LASF1340
 10288 0112 05       		.byte	0x5
 10289 0113 8E02     		.uleb128 0x10e
 10290 0115 66FB0000 		.4byte	.LASF1341
 10291 0119 05       		.byte	0x5
 10292 011a 9502     		.uleb128 0x115
 10293 011c 38AA0000 		.4byte	.LASF1342
 10294 0120 00       		.byte	0
 10295              		.section	.debug_macro,"G",%progbits,wm4.pprz_algebra.h.48.e27d96e216b5b7bc59138cb613a0c51a,comdat
 10296              	.Ldebug_macro29:
 10297 0000 0400     		.2byte	0x4
 10298 0002 00       		.byte	0
 10299 0003 05       		.byte	0x5
 10300 0004 30       		.uleb128 0x30
 10301 0005 887D0000 		.4byte	.LASF1343
 10302 0009 05       		.byte	0x5
 10303 000a 3E       		.uleb128 0x3e
 10304 000b C6070000 		.4byte	.LASF1344
 10305 000f 05       		.byte	0x5
 10306 0010 44       		.uleb128 0x44
 10307 0011 2B730000 		.4byte	.LASF1345
 10308 0015 05       		.byte	0x5
 10309 0016 4A       		.uleb128 0x4a
 10310 0017 874C0000 		.4byte	.LASF1346
 10311 001b 05       		.byte	0x5
 10312 001c 50       		.uleb128 0x50
 10313 001d 78480000 		.4byte	.LASF1347
 10314 0021 05       		.byte	0x5
 10315 0022 56       		.uleb128 0x56
ARM GAS  /tmp/cceRHmPh.s 			page 182


 10316 0023 510C0000 		.4byte	.LASF1348
 10317 0027 05       		.byte	0x5
 10318 0028 5C       		.uleb128 0x5c
 10319 0029 6F630000 		.4byte	.LASF1349
 10320 002d 05       		.byte	0x5
 10321 002e 62       		.uleb128 0x62
 10322 002f 04EC0000 		.4byte	.LASF1350
 10323 0033 05       		.byte	0x5
 10324 0034 68       		.uleb128 0x68
 10325 0035 DFCD0000 		.4byte	.LASF1351
 10326 0039 05       		.byte	0x5
 10327 003a 6E       		.uleb128 0x6e
 10328 003b 0FBC0000 		.4byte	.LASF1352
 10329 003f 05       		.byte	0x5
 10330 0040 74       		.uleb128 0x74
 10331 0041 D3100000 		.4byte	.LASF1353
 10332 0045 05       		.byte	0x5
 10333 0046 76       		.uleb128 0x76
 10334 0047 4C500000 		.4byte	.LASF1354
 10335 004b 05       		.byte	0x5
 10336 004c 7D       		.uleb128 0x7d
 10337 004d 54A70000 		.4byte	.LASF1355
 10338 0051 05       		.byte	0x5
 10339 0052 8501     		.uleb128 0x85
 10340 0054 1E010000 		.4byte	.LASF1356
 10341 0058 05       		.byte	0x5
 10342 0059 8C01     		.uleb128 0x8c
 10343 005b 59E80000 		.4byte	.LASF1357
 10344 005f 05       		.byte	0x5
 10345 0060 9301     		.uleb128 0x93
 10346 0062 3ECA0000 		.4byte	.LASF1358
 10347 0066 05       		.byte	0x5
 10348 0067 9A01     		.uleb128 0x9a
 10349 0069 F6F20000 		.4byte	.LASF1359
 10350 006d 05       		.byte	0x5
 10351 006e A101     		.uleb128 0xa1
 10352 0070 B2240000 		.4byte	.LASF1360
 10353 0074 05       		.byte	0x5
 10354 0075 A801     		.uleb128 0xa8
 10355 0077 FB5F0000 		.4byte	.LASF1361
 10356 007b 05       		.byte	0x5
 10357 007c AF01     		.uleb128 0xaf
 10358 007e 87DA0000 		.4byte	.LASF1362
 10359 0082 05       		.byte	0x5
 10360 0083 B601     		.uleb128 0xb6
 10361 0085 5E2A0000 		.4byte	.LASF1363
 10362 0089 05       		.byte	0x5
 10363 008a BD01     		.uleb128 0xbd
 10364 008c 43F60000 		.4byte	.LASF1364
 10365 0090 05       		.byte	0x5
 10366 0091 C401     		.uleb128 0xc4
 10367 0093 FA4C0000 		.4byte	.LASF1365
 10368 0097 05       		.byte	0x5
 10369 0098 CB01     		.uleb128 0xcb
 10370 009a D62C0000 		.4byte	.LASF1366
 10371 009e 05       		.byte	0x5
 10372 009f D201     		.uleb128 0xd2
ARM GAS  /tmp/cceRHmPh.s 			page 183


 10373 00a1 57650000 		.4byte	.LASF1367
 10374 00a5 05       		.byte	0x5
 10375 00a6 D901     		.uleb128 0xd9
 10376 00a8 440B0000 		.4byte	.LASF1368
 10377 00ac 05       		.byte	0x5
 10378 00ad E001     		.uleb128 0xe0
 10379 00af E3BE0000 		.4byte	.LASF1369
 10380 00b3 05       		.byte	0x5
 10381 00b4 E701     		.uleb128 0xe7
 10382 00b6 16230000 		.4byte	.LASF1370
 10383 00ba 05       		.byte	0x5
 10384 00bb EE01     		.uleb128 0xee
 10385 00bd 181C0000 		.4byte	.LASF1371
 10386 00c1 05       		.byte	0x5
 10387 00c2 F401     		.uleb128 0xf4
 10388 00c4 CD1D0000 		.4byte	.LASF1372
 10389 00c8 05       		.byte	0x5
 10390 00c9 FA01     		.uleb128 0xfa
 10391 00cb 9B1E0000 		.4byte	.LASF1373
 10392 00cf 05       		.byte	0x5
 10393 00d0 FC01     		.uleb128 0xfc
 10394 00d2 81FD0000 		.4byte	.LASF1374
 10395 00d6 05       		.byte	0x5
 10396 00d7 FE01     		.uleb128 0xfe
 10397 00d9 E8970000 		.4byte	.LASF1375
 10398 00dd 05       		.byte	0x5
 10399 00de 8C02     		.uleb128 0x10c
 10400 00e0 244E0000 		.4byte	.LASF1376
 10401 00e4 05       		.byte	0x5
 10402 00e5 9202     		.uleb128 0x112
 10403 00e7 16800000 		.4byte	.LASF1377
 10404 00eb 05       		.byte	0x5
 10405 00ec 9902     		.uleb128 0x119
 10406 00ee B2C20000 		.4byte	.LASF1378
 10407 00f2 05       		.byte	0x5
 10408 00f3 A002     		.uleb128 0x120
 10409 00f5 50ED0000 		.4byte	.LASF1379
 10410 00f9 05       		.byte	0x5
 10411 00fa A702     		.uleb128 0x127
 10412 00fc A3A30000 		.4byte	.LASF1380
 10413 0100 05       		.byte	0x5
 10414 0101 AF02     		.uleb128 0x12f
 10415 0103 FB740000 		.4byte	.LASF1381
 10416 0107 05       		.byte	0x5
 10417 0108 B602     		.uleb128 0x136
 10418 010a 771C0000 		.4byte	.LASF1382
 10419 010e 05       		.byte	0x5
 10420 010f BD02     		.uleb128 0x13d
 10421 0111 26090000 		.4byte	.LASF1383
 10422 0115 05       		.byte	0x5
 10423 0116 CA02     		.uleb128 0x14a
 10424 0118 610D0000 		.4byte	.LASF1384
 10425 011c 05       		.byte	0x5
 10426 011d D102     		.uleb128 0x151
 10427 011f 82000100 		.4byte	.LASF1385
 10428 0123 05       		.byte	0x5
 10429 0124 D802     		.uleb128 0x158
ARM GAS  /tmp/cceRHmPh.s 			page 184


 10430 0126 A4830000 		.4byte	.LASF1386
 10431 012a 05       		.byte	0x5
 10432 012b DF02     		.uleb128 0x15f
 10433 012d 191B0000 		.4byte	.LASF1387
 10434 0131 05       		.byte	0x5
 10435 0132 E602     		.uleb128 0x166
 10436 0134 B1E70000 		.4byte	.LASF1388
 10437 0138 05       		.byte	0x5
 10438 0139 ED02     		.uleb128 0x16d
 10439 013b 65F30000 		.4byte	.LASF1389
 10440 013f 05       		.byte	0x5
 10441 0140 F402     		.uleb128 0x174
 10442 0142 F4110000 		.4byte	.LASF1390
 10443 0146 05       		.byte	0x5
 10444 0147 FB02     		.uleb128 0x17b
 10445 0149 49210000 		.4byte	.LASF1391
 10446 014d 05       		.byte	0x5
 10447 014e 8203     		.uleb128 0x182
 10448 0150 C9A70000 		.4byte	.LASF1392
 10449 0154 05       		.byte	0x5
 10450 0155 8903     		.uleb128 0x189
 10451 0157 DFB50000 		.4byte	.LASF1393
 10452 015b 05       		.byte	0x5
 10453 015c 9103     		.uleb128 0x191
 10454 015e CE440000 		.4byte	.LASF1394
 10455 0162 05       		.byte	0x5
 10456 0163 9703     		.uleb128 0x197
 10457 0165 6CAA0000 		.4byte	.LASF1395
 10458 0169 05       		.byte	0x5
 10459 016a 9D03     		.uleb128 0x19d
 10460 016c 57E30000 		.4byte	.LASF1396
 10461 0170 05       		.byte	0x5
 10462 0171 A303     		.uleb128 0x1a3
 10463 0173 20D60000 		.4byte	.LASF1397
 10464 0177 05       		.byte	0x5
 10465 0178 B403     		.uleb128 0x1b4
 10466 017a EDC40000 		.4byte	.LASF1398
 10467 017e 05       		.byte	0x5
 10468 017f B603     		.uleb128 0x1b6
 10469 0181 6F860000 		.4byte	.LASF1399
 10470 0185 05       		.byte	0x5
 10471 0186 C203     		.uleb128 0x1c2
 10472 0188 CFDB0000 		.4byte	.LASF1400
 10473 018c 05       		.byte	0x5
 10474 018d CF03     		.uleb128 0x1cf
 10475 018f 81CF0000 		.4byte	.LASF1401
 10476 0193 05       		.byte	0x5
 10477 0194 DC03     		.uleb128 0x1dc
 10478 0196 FD650000 		.4byte	.LASF1402
 10479 019a 05       		.byte	0x5
 10480 019b E903     		.uleb128 0x1e9
 10481 019d 389A0000 		.4byte	.LASF1403
 10482 01a1 05       		.byte	0x5
 10483 01a2 8204     		.uleb128 0x202
 10484 01a4 336B0000 		.4byte	.LASF1404
 10485 01a8 05       		.byte	0x5
 10486 01a9 8904     		.uleb128 0x209
ARM GAS  /tmp/cceRHmPh.s 			page 185


 10487 01ab 5CA80000 		.4byte	.LASF1405
 10488 01af 05       		.byte	0x5
 10489 01b0 9604     		.uleb128 0x216
 10490 01b2 73070100 		.4byte	.LASF1406
 10491 01b6 05       		.byte	0x5
 10492 01b7 A304     		.uleb128 0x223
 10493 01b9 71DE0000 		.4byte	.LASF1407
 10494 01bd 05       		.byte	0x5
 10495 01be B004     		.uleb128 0x230
 10496 01c0 5D030000 		.4byte	.LASF1408
 10497 01c4 05       		.byte	0x5
 10498 01c5 C404     		.uleb128 0x244
 10499 01c7 AFBB0000 		.4byte	.LASF1409
 10500 01cb 05       		.byte	0x5
 10501 01cc CC04     		.uleb128 0x24c
 10502 01ce A90A0000 		.4byte	.LASF1410
 10503 01d2 05       		.byte	0x5
 10504 01d3 D404     		.uleb128 0x254
 10505 01d5 2A3F0000 		.4byte	.LASF1411
 10506 01d9 05       		.byte	0x5
 10507 01da DB04     		.uleb128 0x25b
 10508 01dc 0ACD0000 		.4byte	.LASF1412
 10509 01e0 05       		.byte	0x5
 10510 01e1 E304     		.uleb128 0x263
 10511 01e3 A2E10000 		.4byte	.LASF1413
 10512 01e7 05       		.byte	0x5
 10513 01e8 EB04     		.uleb128 0x26b
 10514 01ea 18310000 		.4byte	.LASF1414
 10515 01ee 05       		.byte	0x5
 10516 01ef F304     		.uleb128 0x273
 10517 01f1 80AF0000 		.4byte	.LASF1415
 10518 01f5 05       		.byte	0x5
 10519 01f6 FB04     		.uleb128 0x27b
 10520 01f8 42510000 		.4byte	.LASF1416
 10521 01fc 05       		.byte	0x5
 10522 01fd 8205     		.uleb128 0x282
 10523 01ff 47930000 		.4byte	.LASF1417
 10524 0203 05       		.byte	0x5
 10525 0204 8A05     		.uleb128 0x28a
 10526 0206 6A340000 		.4byte	.LASF1418
 10527 020a 05       		.byte	0x5
 10528 020b 9405     		.uleb128 0x294
 10529 020d 828C0000 		.4byte	.LASF1419
 10530 0211 05       		.byte	0x5
 10531 0212 9705     		.uleb128 0x297
 10532 0214 C5D70000 		.4byte	.LASF1420
 10533 0218 05       		.byte	0x5
 10534 0219 9A05     		.uleb128 0x29a
 10535 021b 2B030100 		.4byte	.LASF1421
 10536 021f 05       		.byte	0x5
 10537 0220 A705     		.uleb128 0x2a7
 10538 0222 99550000 		.4byte	.LASF1422
 10539 0226 05       		.byte	0x5
 10540 0227 B305     		.uleb128 0x2b3
 10541 0229 4E7A0000 		.4byte	.LASF1423
 10542 022d 05       		.byte	0x5
 10543 022e C005     		.uleb128 0x2c0
ARM GAS  /tmp/cceRHmPh.s 			page 186


 10544 0230 455E0000 		.4byte	.LASF1424
 10545 0234 05       		.byte	0x5
 10546 0235 C505     		.uleb128 0x2c5
 10547 0237 DF570000 		.4byte	.LASF1425
 10548 023b 05       		.byte	0x5
 10549 023c CB05     		.uleb128 0x2cb
 10550 023e 90370000 		.4byte	.LASF1426
 10551 0242 05       		.byte	0x5
 10552 0243 D105     		.uleb128 0x2d1
 10553 0245 50C70000 		.4byte	.LASF1427
 10554 0249 05       		.byte	0x5
 10555 024a DD05     		.uleb128 0x2dd
 10556 024c C3940000 		.4byte	.LASF1428
 10557 0250 05       		.byte	0x5
 10558 0251 E905     		.uleb128 0x2e9
 10559 0253 B12D0000 		.4byte	.LASF1429
 10560 0257 05       		.byte	0x5
 10561 0258 F005     		.uleb128 0x2f0
 10562 025a 09260000 		.4byte	.LASF1430
 10563 025e 05       		.byte	0x5
 10564 025f F705     		.uleb128 0x2f7
 10565 0261 D7750000 		.4byte	.LASF1431
 10566 0265 05       		.byte	0x5
 10567 0266 FD05     		.uleb128 0x2fd
 10568 0268 9FD60000 		.4byte	.LASF1432
 10569 026c 05       		.byte	0x5
 10570 026d 8306     		.uleb128 0x303
 10571 026f 08EE0000 		.4byte	.LASF1433
 10572 0273 05       		.byte	0x5
 10573 0274 8906     		.uleb128 0x309
 10574 0276 205A0000 		.4byte	.LASF1434
 10575 027a 05       		.byte	0x5
 10576 027b 8F06     		.uleb128 0x30f
 10577 027d 1C920000 		.4byte	.LASF1435
 10578 0281 05       		.byte	0x5
 10579 0282 9506     		.uleb128 0x315
 10580 0284 F8890000 		.4byte	.LASF1436
 10581 0288 05       		.byte	0x5
 10582 0289 9B06     		.uleb128 0x31b
 10583 028b 84150000 		.4byte	.LASF1437
 10584 028f 05       		.byte	0x5
 10585 0290 A106     		.uleb128 0x321
 10586 0292 B50F0000 		.4byte	.LASF1438
 10587 0296 05       		.byte	0x5
 10588 0297 A706     		.uleb128 0x327
 10589 0299 146D0000 		.4byte	.LASF1439
 10590 029d 05       		.byte	0x5
 10591 029e AD06     		.uleb128 0x32d
 10592 02a0 D7620000 		.4byte	.LASF1440
 10593 02a4 00       		.byte	0
 10594              		.section	.debug_macro,"G",%progbits,wm4.pprz_algebra_float.h.99.3ecbbede49507432559ec22e1139225e,c
 10595              	.Ldebug_macro30:
 10596 0000 0400     		.2byte	0x4
 10597 0002 00       		.byte	0
 10598 0003 05       		.byte	0x5
 10599 0004 63       		.uleb128 0x63
 10600 0005 657E0000 		.4byte	.LASF1441
ARM GAS  /tmp/cceRHmPh.s 			page 187


 10601 0009 05       		.byte	0x5
 10602 000a 8101     		.uleb128 0x81
 10603 000c 12110000 		.4byte	.LASF1442
 10604 0010 05       		.byte	0x5
 10605 0011 8401     		.uleb128 0x84
 10606 0013 95220000 		.4byte	.LASF1443
 10607 0017 05       		.byte	0x5
 10608 0018 9A01     		.uleb128 0x9a
 10609 001a 5B000000 		.4byte	.LASF1444
 10610 001e 05       		.byte	0x5
 10611 001f A101     		.uleb128 0xa1
 10612 0021 B5900000 		.4byte	.LASF1445
 10613 0025 05       		.byte	0x5
 10614 0026 A401     		.uleb128 0xa4
 10615 0028 92970000 		.4byte	.LASF1446
 10616 002c 05       		.byte	0x5
 10617 002d BB01     		.uleb128 0xbb
 10618 002f 0B4C0000 		.4byte	.LASF1447
 10619 0033 05       		.byte	0x5
 10620 0034 BF01     		.uleb128 0xbf
 10621 0036 D42F0000 		.4byte	.LASF1448
 10622 003a 05       		.byte	0x5
 10623 003b C301     		.uleb128 0xc3
 10624 003d 05390000 		.4byte	.LASF1449
 10625 0041 05       		.byte	0x5
 10626 0042 C501     		.uleb128 0xc5
 10627 0044 BA700000 		.4byte	.LASF1450
 10628 0048 05       		.byte	0x5
 10629 0049 D601     		.uleb128 0xd6
 10630 004b CB480000 		.4byte	.LASF1451
 10631 004f 05       		.byte	0x5
 10632 0050 D701     		.uleb128 0xd7
 10633 0052 50380000 		.4byte	.LASF1452
 10634 0056 05       		.byte	0x5
 10635 0057 D801     		.uleb128 0xd8
 10636 0059 9B3B0000 		.4byte	.LASF1453
 10637 005d 05       		.byte	0x5
 10638 005e DE01     		.uleb128 0xde
 10639 0060 B6520000 		.4byte	.LASF1454
 10640 0064 05       		.byte	0x5
 10641 0065 EA01     		.uleb128 0xea
 10642 0067 CB400000 		.4byte	.LASF1455
 10643 006b 05       		.byte	0x5
 10644 006c CD02     		.uleb128 0x14d
 10645 006e BD6F0000 		.4byte	.LASF1456
 10646 0072 05       		.byte	0x5
 10647 0073 D502     		.uleb128 0x155
 10648 0075 00A00000 		.4byte	.LASF1457
 10649 0079 05       		.byte	0x5
 10650 007a D602     		.uleb128 0x156
 10651 007c 372F0000 		.4byte	.LASF1458
 10652 0080 05       		.byte	0x5
 10653 0081 D702     		.uleb128 0x157
 10654 0083 0EC30000 		.4byte	.LASF1459
 10655 0087 05       		.byte	0x5
 10656 0088 D802     		.uleb128 0x158
 10657 008a 621A0000 		.4byte	.LASF1460
ARM GAS  /tmp/cceRHmPh.s 			page 188


 10658 008e 05       		.byte	0x5
 10659 008f D902     		.uleb128 0x159
 10660 0091 B6060100 		.4byte	.LASF1461
 10661 0095 05       		.byte	0x5
 10662 0096 DA02     		.uleb128 0x15a
 10663 0098 AFF00000 		.4byte	.LASF1462
 10664 009c 05       		.byte	0x5
 10665 009d DB02     		.uleb128 0x15b
 10666 009f 4EC00000 		.4byte	.LASF1463
 10667 00a3 05       		.byte	0x5
 10668 00a4 DC02     		.uleb128 0x15c
 10669 00a6 C8FC0000 		.4byte	.LASF1464
 10670 00aa 05       		.byte	0x5
 10671 00ab DD02     		.uleb128 0x15d
 10672 00ad 79B70000 		.4byte	.LASF1465
 10673 00b1 05       		.byte	0x5
 10674 00b2 DE02     		.uleb128 0x15e
 10675 00b4 EDEF0000 		.4byte	.LASF1466
 10676 00b8 05       		.byte	0x5
 10677 00b9 DF02     		.uleb128 0x15f
 10678 00bb A64F0000 		.4byte	.LASF1467
 10679 00bf 05       		.byte	0x5
 10680 00c0 E002     		.uleb128 0x160
 10681 00c2 0C610000 		.4byte	.LASF1468
 10682 00c6 05       		.byte	0x5
 10683 00c7 E102     		.uleb128 0x161
 10684 00c9 6F120000 		.4byte	.LASF1469
 10685 00cd 05       		.byte	0x5
 10686 00ce E202     		.uleb128 0x162
 10687 00d0 CBE80000 		.4byte	.LASF1470
 10688 00d4 05       		.byte	0x5
 10689 00d5 F502     		.uleb128 0x175
 10690 00d7 037F0000 		.4byte	.LASF1471
 10691 00db 05       		.byte	0x5
 10692 00dc 9303     		.uleb128 0x193
 10693 00de 3B3E0000 		.4byte	.LASF1472
 10694 00e2 05       		.byte	0x5
 10695 00e3 E903     		.uleb128 0x1e9
 10696 00e5 31440000 		.4byte	.LASF1473
 10697 00e9 05       		.byte	0x5
 10698 00ea EA03     		.uleb128 0x1ea
 10699 00ec 64350000 		.4byte	.LASF1474
 10700 00f0 05       		.byte	0x5
 10701 00f1 EB03     		.uleb128 0x1eb
 10702 00f3 E7900000 		.4byte	.LASF1475
 10703 00f7 05       		.byte	0x5
 10704 00f8 EC03     		.uleb128 0x1ec
 10705 00fa F0850000 		.4byte	.LASF1476
 10706 00fe 05       		.byte	0x5
 10707 00ff ED03     		.uleb128 0x1ed
 10708 0101 7D190000 		.4byte	.LASF1477
 10709 0105 05       		.byte	0x5
 10710 0106 EE03     		.uleb128 0x1ee
 10711 0108 B8640000 		.4byte	.LASF1478
 10712 010c 05       		.byte	0x5
 10713 010d EF03     		.uleb128 0x1ef
 10714 010f 13C20000 		.4byte	.LASF1479
ARM GAS  /tmp/cceRHmPh.s 			page 189


 10715 0113 05       		.byte	0x5
 10716 0114 F003     		.uleb128 0x1f0
 10717 0116 585B0000 		.4byte	.LASF1480
 10718 011a 05       		.byte	0x5
 10719 011b F103     		.uleb128 0x1f1
 10720 011d F36E0000 		.4byte	.LASF1481
 10721 0121 05       		.byte	0x5
 10722 0122 F203     		.uleb128 0x1f2
 10723 0124 1E5F0000 		.4byte	.LASF1482
 10724 0128 05       		.byte	0x5
 10725 0129 F303     		.uleb128 0x1f3
 10726 012b 6CA50000 		.4byte	.LASF1483
 10727 012f 05       		.byte	0x5
 10728 0130 F403     		.uleb128 0x1f4
 10729 0132 8BAD0000 		.4byte	.LASF1484
 10730 0136 05       		.byte	0x5
 10731 0137 F503     		.uleb128 0x1f5
 10732 0139 9EB30000 		.4byte	.LASF1485
 10733 013d 05       		.byte	0x5
 10734 013e F603     		.uleb128 0x1f6
 10735 0140 1A2B0000 		.4byte	.LASF1486
 10736 0144 05       		.byte	0x5
 10737 0145 F703     		.uleb128 0x1f7
 10738 0147 70060000 		.4byte	.LASF1487
 10739 014b 05       		.byte	0x5
 10740 014c F803     		.uleb128 0x1f8
 10741 014e ED280000 		.4byte	.LASF1488
 10742 0152 05       		.byte	0x5
 10743 0153 F903     		.uleb128 0x1f9
 10744 0155 ED010000 		.4byte	.LASF1489
 10745 0159 05       		.byte	0x5
 10746 015a FA03     		.uleb128 0x1fa
 10747 015c D0C50000 		.4byte	.LASF1490
 10748 0160 05       		.byte	0x5
 10749 0161 FB03     		.uleb128 0x1fb
 10750 0163 FE260000 		.4byte	.LASF1491
 10751 0167 05       		.byte	0x5
 10752 0168 FC03     		.uleb128 0x1fc
 10753 016a 885C0000 		.4byte	.LASF1492
 10754 016e 05       		.byte	0x5
 10755 016f FD03     		.uleb128 0x1fd
 10756 0171 8A8A0000 		.4byte	.LASF1493
 10757 0175 05       		.byte	0x5
 10758 0176 8704     		.uleb128 0x207
 10759 0178 226E0000 		.4byte	.LASF1494
 10760 017c 05       		.byte	0x5
 10761 017d 9304     		.uleb128 0x213
 10762 017f 9B710000 		.4byte	.LASF1495
 10763 0183 05       		.byte	0x5
 10764 0184 9404     		.uleb128 0x214
 10765 0186 66F10000 		.4byte	.LASF1496
 10766 018a 05       		.byte	0x5
 10767 018b 9504     		.uleb128 0x215
 10768 018d 96720000 		.4byte	.LASF1497
 10769 0191 05       		.byte	0x5
 10770 0192 FE04     		.uleb128 0x27e
 10771 0194 2D620000 		.4byte	.LASF1498
ARM GAS  /tmp/cceRHmPh.s 			page 190


 10772 0198 00       		.byte	0
 10773              		.section	.debug_macro,"G",%progbits,wm4.pprz_algebra_double.h.32.7f91f703899e017f221f03c67eb8c9df,
 10774              	.Ldebug_macro31:
 10775 0000 0400     		.2byte	0x4
 10776 0002 00       		.byte	0
 10777 0003 05       		.byte	0x5
 10778 0004 20       		.uleb128 0x20
 10779 0005 045E0000 		.4byte	.LASF1500
 10780 0009 05       		.byte	0x5
 10781 000a 5B       		.uleb128 0x5b
 10782 000b F24E0000 		.4byte	.LASF1501
 10783 000f 05       		.byte	0x5
 10784 0010 5E       		.uleb128 0x5e
 10785 0011 66020100 		.4byte	.LASF1502
 10786 0015 05       		.byte	0x5
 10787 0016 C901     		.uleb128 0xc9
 10788 0018 D33A0000 		.4byte	.LASF1503
 10789 001c 05       		.byte	0x5
 10790 001d CA01     		.uleb128 0xca
 10791 001f FC320000 		.4byte	.LASF1504
 10792 0023 05       		.byte	0x5
 10793 0024 CB01     		.uleb128 0xcb
 10794 0026 82B80000 		.4byte	.LASF1505
 10795 002a 05       		.byte	0x5
 10796 002b CC01     		.uleb128 0xcc
 10797 002d D9770000 		.4byte	.LASF1506
 10798 0031 05       		.byte	0x5
 10799 0032 CD01     		.uleb128 0xcd
 10800 0034 98980000 		.4byte	.LASF1507
 10801 0038 00       		.byte	0
 10802              		.section	.debug_macro,"G",%progbits,wm4.pprz_geodetic_utm.h.31.75931423081a7967d00585c8ad115843,co
 10803              	.Ldebug_macro32:
 10804 0000 0400     		.2byte	0x4
 10805 0002 00       		.byte	0
 10806 0003 05       		.byte	0x5
 10807 0004 1F       		.uleb128 0x1f
 10808 0005 88E60000 		.4byte	.LASF1508
 10809 0009 05       		.byte	0x5
 10810 000a 28       		.uleb128 0x28
 10811 000b B9460000 		.4byte	.LASF1509
 10812 000f 05       		.byte	0x5
 10813 0010 29       		.uleb128 0x29
 10814 0011 84890000 		.4byte	.LASF1510
 10815 0015 05       		.byte	0x5
 10816 0016 2A       		.uleb128 0x2a
 10817 0017 CB4B0000 		.4byte	.LASF1511
 10818 001b 05       		.byte	0x5
 10819 001c 2B       		.uleb128 0x2b
 10820 001d 54360000 		.4byte	.LASF1512
 10821 0021 05       		.byte	0x5
 10822 0022 2C       		.uleb128 0x2c
 10823 0023 1DE30000 		.4byte	.LASF1513
 10824 0027 05       		.byte	0x5
 10825 0028 2D       		.uleb128 0x2d
 10826 0029 F4B60000 		.4byte	.LASF1514
 10827 002d 05       		.byte	0x5
 10828 002e 2F       		.uleb128 0x2f
ARM GAS  /tmp/cceRHmPh.s 			page 191


 10829 002f F4420000 		.4byte	.LASF1515
 10830 0033 05       		.byte	0x5
 10831 0034 30       		.uleb128 0x30
 10832 0035 B2610000 		.4byte	.LASF1516
 10833 0039 05       		.byte	0x5
 10834 003a 31       		.uleb128 0x31
 10835 003b B2B00000 		.4byte	.LASF1517
 10836 003f 00       		.byte	0
 10837              		.section	.debug_line,"",%progbits
 10838              	.Ldebug_line0:
 10839 0000 3E090000 		.section	.debug_str,"MS",%progbits,1
 10839      0300B002 
 10839      00000201 
 10839      FB0E0D00 
 10839      01010101 
 10840              	.LASF1198:
 10841 0000 50524964 		.ascii	"PRIdMAX __PRIMAX(d)\000"
 10841      4D415820 
 10841      5F5F5052 
 10841      494D4158 
 10841      28642900 
 10842              	.LASF405:
 10843 0014 5F5F7468 		.ascii	"__thumb__ 1\000"
 10843      756D625F 
 10843      5F203100 
 10844              	.LASF1080:
 10845 0020 55494E54 		.ascii	"UINT16_C(c) __UINT16_C(c)\000"
 10845      31365F43 
 10845      28632920 
 10845      5F5F5549 
 10845      4E543136 
 10846              	.LASF293:
 10847 003a 5F5F5541 		.ascii	"__UACCUM_FBIT__ 16\000"
 10847      4343554D 
 10847      5F464249 
 10847      545F5F20 
 10847      313600
 10848              	.LASF403:
 10849 004d 5F5F4150 		.ascii	"__APCS_32__ 1\000"
 10849      43535F33 
 10849      325F5F20 
 10849      3100
 10850              	.LASF1444:
 10851 005b 464C4F41 		.ascii	"FLOAT_VECT2_NORMALIZE(_v) float_vect2_normalize(&(_"
 10851      545F5645 
 10851      4354325F 
 10851      4E4F524D 
 10851      414C495A 
 10852 008e 76292900 		.ascii	"v))\000"
 10853              	.LASF1242:
 10854 0092 4D415448 		.ascii	"MATH_ERREXCEPT 2\000"
 10854      5F455252 
 10854      45584345 
 10854      50542032 
 10854      00
 10855              	.LASF30:
 10856 00a3 5F5F464C 		.ascii	"__FLOAT_WORD_ORDER__ __ORDER_LITTLE_ENDIAN__\000"
ARM GAS  /tmp/cceRHmPh.s 			page 192


 10856      4F41545F 
 10856      574F5244 
 10856      5F4F5244 
 10856      45525F5F 
 10857              	.LASF1093:
 10858 00d0 5F5F5052 		.ascii	"__PRI8FAST(x) __FAST8 __STRINGIFY(x)\000"
 10858      49384641 
 10858      53542878 
 10858      29205F5F 
 10858      46415354 
 10859              	.LASF153:
 10860 00f5 5F5F464C 		.ascii	"__FLT_NORM_MAX__ 3.4028234663852886e+38F\000"
 10860      545F4E4F 
 10860      524D5F4D 
 10860      41585F5F 
 10860      20332E34 
 10861              	.LASF1356:
 10862 011e 56454354 		.ascii	"VECT3_ASSIGN_ABS(_a,_x,_y,_z) { (_a).x = ABS(_x); ("
 10862      335F4153 
 10862      5349474E 
 10862      5F414253 
 10862      285F612C 
 10863 0151 5F61292E 		.ascii	"_a).y = ABS(_y); (_a).z = ABS(_z); }\000"
 10863      79203D20 
 10863      41425328 
 10863      5F79293B 
 10863      20285F61 
 10864              	.LASF1233:
 10865 0176 4E414E20 		.ascii	"NAN (__builtin_nanf(\"\"))\000"
 10865      285F5F62 
 10865      75696C74 
 10865      696E5F6E 
 10865      616E6628 
 10866              	.LASF1031:
 10867 018f 55494E54 		.ascii	"UINT_FAST32_MAX\000"
 10867      5F464153 
 10867      5433325F 
 10867      4D415800 
 10868              	.LASF435:
 10869 019f 5F5F4152 		.ascii	"__ARM_FEATURE_MATMUL_INT8\000"
 10869      4D5F4645 
 10869      41545552 
 10869      455F4D41 
 10869      544D554C 
 10870              	.LASF796:
 10871 01b9 5F524545 		.ascii	"_REENT_L64A_BUF(ptr) ((ptr)->_new._reent._l64a_buf)"
 10871      4E545F4C 
 10871      3634415F 
 10871      42554628 
 10871      70747229 
 10872 01ec 00       		.ascii	"\000"
 10873              	.LASF1489:
 10874 01ed 464C4F41 		.ascii	"FLOAT_QUAT_DERIVATIVE_LAGRANGE(_qd,_r,_q) WARNING(\""
 10874      545F5155 
 10874      41545F44 
 10874      45524956 
 10874      41544956 
ARM GAS  /tmp/cceRHmPh.s 			page 193


 10875 0220 464C4F41 		.ascii	"FLOAT_QUAT_DERIVATIVE_LAGRANGE macro is deprecated,"
 10875      545F5155 
 10875      41545F44 
 10875      45524956 
 10875      41544956 
 10876 0253 20757365 		.ascii	" use the lower case function instead\") float_quat_"
 10876      20746865 
 10876      206C6F77 
 10876      65722063 
 10876      61736520 
 10877 0285 64657269 		.ascii	"derivative_lagrange(&(_qd), &(_r), &(_q))\000"
 10877      76617469 
 10877      76655F6C 
 10877      61677261 
 10877      6E676528 
 10878              	.LASF193:
 10879 02af 5F5F464C 		.ascii	"__FLT32_DIG__ 6\000"
 10879      5433325F 
 10879      4449475F 
 10879      5F203600 
 10880              	.LASF171:
 10881 02bf 5F5F4442 		.ascii	"__DBL_EPSILON__ ((double)2.2204460492503131e-16L)\000"
 10881      4C5F4550 
 10881      53494C4F 
 10881      4E5F5F20 
 10881      2828646F 
 10882              	.LASF230:
 10883 02f1 5F5F464C 		.ascii	"__FLT32X_MAX__ 1.7976931348623157e+308F32x\000"
 10883      54333258 
 10883      5F4D4158 
 10883      5F5F2031 
 10883      2E373937 
 10884              	.LASF294:
 10885 031c 5F5F5541 		.ascii	"__UACCUM_IBIT__ 16\000"
 10885      4343554D 
 10885      5F494249 
 10885      545F5F20 
 10885      313600
 10886              	.LASF1042:
 10887 032f 494E5450 		.ascii	"INTPTR_MIN (-INTPTR_MAX - 1)\000"
 10887      54525F4D 
 10887      494E2028 
 10887      2D494E54 
 10887      5054525F 
 10888              	.LASF636:
 10889 034c 5F5F4D49 		.ascii	"__MISC_VISIBLE 1\000"
 10889      53435F56 
 10889      49534942 
 10889      4C452031 
 10889      00
 10890              	.LASF1408:
 10891 035d 4D415433 		.ascii	"MAT33_TRANS(_mat1,_mat2) { MAT33_ELMT((_mat1),0,0) "
 10891      335F5452 
 10891      414E5328 
 10891      5F6D6174 
 10891      312C5F6D 
 10892 0390 3D204D41 		.ascii	"= MAT33_ELMT((_mat2),0,0); MAT33_ELMT((_mat1),0,1) "
ARM GAS  /tmp/cceRHmPh.s 			page 194


 10892      5433335F 
 10892      454C4D54 
 10892      28285F6D 
 10892      61743229 
 10893 03c3 3D204D41 		.ascii	"= MAT33_ELMT((_mat2),1,0); MAT33_ELMT((_mat1),0,2) "
 10893      5433335F 
 10893      454C4D54 
 10893      28285F6D 
 10893      61743229 
 10894 03f6 3D204D41 		.ascii	"= MAT33_ELMT((_mat2),2,0); MAT33_ELMT((_mat1),1,0) "
 10894      5433335F 
 10894      454C4D54 
 10894      28285F6D 
 10894      61743229 
 10895 0429 3D204D41 		.ascii	"= MAT33_ELMT((_mat2),0,1); MAT33_ELMT((_mat1),1,1) "
 10895      5433335F 
 10895      454C4D54 
 10895      28285F6D 
 10895      61743229 
 10896 045c 3D204D41 		.ascii	"= MAT33_ELMT((_mat2),1,1); MAT33_ELMT((_mat1),1,2) "
 10896      5433335F 
 10896      454C4D54 
 10896      28285F6D 
 10896      61743229 
 10897 048f 3D204D41 		.ascii	"= MAT33_ELMT((_mat2),2,1); MAT33_ELMT((_mat1),2,0) "
 10897      5433335F 
 10897      454C4D54 
 10897      28285F6D 
 10897      61743229 
 10898 04c2 3D204D41 		.ascii	"= MAT33_ELMT((_mat2),0,2); MAT33_ELMT((_mat1),2,1) "
 10898      5433335F 
 10898      454C4D54 
 10898      28285F6D 
 10898      61743229 
 10899 04f5 3D204D41 		.ascii	"= MAT33_ELMT((_mat2),1,2); MAT33_ELMT((_mat1),2,2) "
 10899      5433335F 
 10899      454C4D54 
 10899      28285F6D 
 10899      61743229 
 10900 0528 3D204D41 		.ascii	"= MAT33_ELMT((_mat2),2,2); }\000"
 10900      5433335F 
 10900      454C4D54 
 10900      28285F6D 
 10900      61743229 
 10901              	.LASF126:
 10902 0545 5F5F494E 		.ascii	"__INT_FAST16_MAX__ 0x7fffffff\000"
 10902      545F4641 
 10902      53543136 
 10902      5F4D4158 
 10902      5F5F2030 
 10903              	.LASF1301:
 10904 0563 50545228 		.ascii	"PTR(_f) &_f\000"
 10904      5F662920 
 10904      265F6600 
 10905              	.LASF1251:
 10906 056f 69736772 		.ascii	"isgreaterequal(__x,__y) (__builtin_isgreaterequal ("
 10906      65617465 
ARM GAS  /tmp/cceRHmPh.s 			page 195


 10906      72657175 
 10906      616C285F 
 10906      5F782C5F 
 10907 05a2 5F5F782C 		.ascii	"__x, __y))\000"
 10907      205F5F79 
 10907      292900
 10908              	.LASF533:
 10909 05ad 464C545F 		.ascii	"FLT_RADIX\000"
 10909      52414449 
 10909      5800
 10910              	.LASF768:
 10911 05b7 5F524545 		.ascii	"_REENT_CHECK_RAND48(ptr) \000"
 10911      4E545F43 
 10911      4845434B 
 10911      5F52414E 
 10911      44343828 
 10912              	.LASF208:
 10913 05d1 5F5F464C 		.ascii	"__FLT64_MANT_DIG__ 53\000"
 10913      5436345F 
 10913      4D414E54 
 10913      5F444947 
 10913      5F5F2035 
 10914              	.LASF1001:
 10915 05e7 55494E54 		.ascii	"UINT_LEAST16_MAX\000"
 10915      5F4C4541 
 10915      53543136 
 10915      5F4D4158 
 10915      00
 10916              	.LASF996:
 10917 05f8 55494E54 		.ascii	"UINT_LEAST8_MAX __UINT_LEAST8_MAX__\000"
 10917      5F4C4541 
 10917      5354385F 
 10917      4D415820 
 10917      5F5F5549 
 10918              	.LASF1026:
 10919 061c 55494E54 		.ascii	"UINT_FAST16_MAX __UINT_FAST16_MAX__\000"
 10919      5F464153 
 10919      5431365F 
 10919      4D415820 
 10919      5F5F5549 
 10920              	.LASF712:
 10921 0640 5F57494E 		.ascii	"_WINT_T \000"
 10921      545F5420 
 10921      00
 10922              	.LASF1000:
 10923 0649 494E545F 		.ascii	"INT_LEAST16_MIN (-INT_LEAST16_MAX - 1)\000"
 10923      4C454153 
 10923      5431365F 
 10923      4D494E20 
 10923      282D494E 
 10924              	.LASF1487:
 10925 0670 464C4F41 		.ascii	"FLOAT_QUAT_VMULT(v_out,q,v_in) WARNING(\"FLOAT_QUAT"
 10925      545F5155 
 10925      41545F56 
 10925      4D554C54 
 10925      28765F6F 
 10926 06a2 5F564D55 		.ascii	"_VMULT macro is deprecated, use the lower case func"
ARM GAS  /tmp/cceRHmPh.s 			page 196


 10926      4C54206D 
 10926      6163726F 
 10926      20697320 
 10926      64657072 
 10927 06d5 74696F6E 		.ascii	"tion instead\") float_quat_vmult(&(v_out), &(q), &("
 10927      20696E73 
 10927      74656164 
 10927      22292066 
 10927      6C6F6174 
 10928 0707 765F696E 		.ascii	"v_in))\000"
 10928      292900
 10929              	.LASF556:
 10930 070e 464C545F 		.ascii	"FLT_MIN_10_EXP __FLT_MIN_10_EXP__\000"
 10930      4D494E5F 
 10930      31305F45 
 10930      5850205F 
 10930      5F464C54 
 10931              	.LASF771:
 10932 0730 5F524545 		.ascii	"_REENT_CHECK_ASCTIME_BUF(ptr) \000"
 10932      4E545F43 
 10932      4845434B 
 10932      5F415343 
 10932      54494D45 
 10933              	.LASF999:
 10934 074f 494E545F 		.ascii	"INT_LEAST16_MIN\000"
 10934      4C454153 
 10934      5431365F 
 10934      4D494E00 
 10935              	.LASF205:
 10936 075f 5F5F464C 		.ascii	"__FLT32_HAS_INFINITY__ 1\000"
 10936      5433325F 
 10936      4841535F 
 10936      494E4649 
 10936      4E495459 
 10937              	.LASF1231:
 10938 0778 48554745 		.ascii	"HUGE_VALL (__builtin_huge_vall())\000"
 10938      5F56414C 
 10938      4C20285F 
 10938      5F627569 
 10938      6C74696E 
 10939              	.LASF1591:
 10940 079a 656E755F 		.ascii	"enu_of_ecef_point_f\000"
 10940      6F665F65 
 10940      6365665F 
 10940      706F696E 
 10940      745F6600 
 10941              	.LASF731:
 10942 07ae 5F434C4F 		.ascii	"_CLOCK_T_ unsigned long\000"
 10942      434B5F54 
 10942      5F20756E 
 10942      7369676E 
 10942      6564206C 
 10943              	.LASF1344:
 10944 07c6 56454354 		.ascii	"VECT2_ASSIGN(_a,_x,_y) { (_a).x = (_x); (_a).y = (_"
 10944      325F4153 
 10944      5349474E 
 10944      285F612C 
ARM GAS  /tmp/cceRHmPh.s 			page 197


 10944      5F782C5F 
 10945 07f9 79293B20 		.ascii	"y); }\000"
 10945      7D00
 10946              	.LASF717:
 10947 07ff 5F5F6861 		.ascii	"__have_longlong64 1\000"
 10947      76655F6C 
 10947      6F6E676C 
 10947      6F6E6736 
 10947      34203100 
 10948              	.LASF77:
 10949 0813 5F5F5054 		.ascii	"__PTRDIFF_MAX__ 0x7fffffff\000"
 10949      52444946 
 10949      465F4D41 
 10949      585F5F20 
 10949      30783766 
 10950              	.LASF988:
 10951 082e 494E5436 		.ascii	"INT64_MIN (-INT64_MAX - 1)\000"
 10951      345F4D49 
 10951      4E20282D 
 10951      494E5436 
 10951      345F4D41 
 10952              	.LASF829:
 10953 0849 5F5F474E 		.ascii	"__GNUCLIKE_BUILTIN_CONSTANT_P 1\000"
 10953      55434C49 
 10953      4B455F42 
 10953      55494C54 
 10953      494E5F43 
 10954              	.LASF211:
 10955 0869 5F5F464C 		.ascii	"__FLT64_MIN_10_EXP__ (-307)\000"
 10955      5436345F 
 10955      4D494E5F 
 10955      31305F45 
 10955      58505F5F 
 10956              	.LASF589:
 10957 0885 464C545F 		.ascii	"FLT_ROUNDS\000"
 10957      524F554E 
 10957      445300
 10958              	.LASF1340:
 10959 0890 554E5553 		.ascii	"UNUSED __attribute__((__unused__))\000"
 10959      4544205F 
 10959      5F617474 
 10959      72696275 
 10959      74655F5F 
 10960              	.LASF1334:
 10961 08b3 44656164 		.ascii	"DeadBand(_x,_v) { if (_x > (_v)) _x = _x -(_v); els"
 10961      42616E64 
 10961      285F782C 
 10961      5F762920 
 10961      7B206966 
 10962 08e6 65206966 		.ascii	"e if (_x < -(_v)) _x = _x +(_v); else _x = 0; }\000"
 10962      20285F78 
 10962      203C202D 
 10962      285F7629 
 10962      29205F78 
 10963              	.LASF1037:
 10964 0916 55494E54 		.ascii	"UINT_FAST64_MAX\000"
 10964      5F464153 
ARM GAS  /tmp/cceRHmPh.s 			page 198


 10964      5436345F 
 10964      4D415800 
 10965              	.LASF1383:
 10966 0926 45554C45 		.ascii	"EULERS_BOUND_CUBE(_v,_min,_max) { (_v).phi = (_v).p"
 10966      52535F42 
 10966      4F554E44 
 10966      5F435542 
 10966      45285F76 
 10967 0959 6869203C 		.ascii	"hi < (_min) ? (_min) : (_v).phi > (_max) ? (_max) :"
 10967      20285F6D 
 10967      696E2920 
 10967      3F20285F 
 10967      6D696E29 
 10968 098c 20285F76 		.ascii	" (_v).phi; (_v).theta = (_v).theta < (_min) ? (_min"
 10968      292E7068 
 10968      693B2028 
 10968      5F76292E 
 10968      74686574 
 10969 09bf 29203A20 		.ascii	") : (_v).theta > (_max) ? (_max) : (_v).theta; (_v)"
 10969      285F7629 
 10969      2E746865 
 10969      7461203E 
 10969      20285F6D 
 10970 09f2 2E707369 		.ascii	".psi = (_v).psi < (_min) ? (_min) : (_v).psi > (_ma"
 10970      203D2028 
 10970      5F76292E 
 10970      70736920 
 10970      3C20285F 
 10971 0a25 7829203F 		.ascii	"x) ? (_max) : (_v).psi; }\000"
 10971      20285F6D 
 10971      61782920 
 10971      3A20285F 
 10971      76292E70 
 10972              	.LASF890:
 10973 0a3f 5F5F7072 		.ascii	"__printflike(fmtarg,firstvararg) __attribute__((__f"
 10973      696E7466 
 10973      6C696B65 
 10973      28666D74 
 10973      6172672C 
 10974 0a72 6F726D61 		.ascii	"ormat__ (__printf__, fmtarg, firstvararg)))\000"
 10974      745F5F20 
 10974      285F5F70 
 10974      72696E74 
 10974      665F5F2C 
 10975              	.LASF0:
 10976 0a9e 5F5F5354 		.ascii	"__STDC__ 1\000"
 10976      44435F5F 
 10976      203100
 10977              	.LASF1410:
 10978 0aa9 51554154 		.ascii	"QUAT_DIFF(_qc,_qa,_qb) { (_qc).qi = (_qa).qi - (_qb"
 10978      5F444946 
 10978      46285F71 
 10978      632C5F71 
 10978      612C5F71 
 10979 0adc 292E7169 		.ascii	").qi; (_qc).qx = (_qa).qx - (_qb).qx; (_qc).qy = (_"
 10979      3B20285F 
 10979      7163292E 
ARM GAS  /tmp/cceRHmPh.s 			page 199


 10979      7178203D 
 10979      20285F71 
 10980 0b0f 7161292E 		.ascii	"qa).qy - (_qb).qy; (_qc).qz = (_qa).qz - (_qb).qz; "
 10980      7179202D 
 10980      20285F71 
 10980      62292E71 
 10980      793B2028 
 10981 0b42 7D00     		.ascii	"}\000"
 10982              	.LASF1368:
 10983 0b44 56454354 		.ascii	"VECT3_EW_MUL(_vo,_va,_vb) { (_vo).x = (_va).x * (_v"
 10983      335F4557 
 10983      5F4D554C 
 10983      285F766F 
 10983      2C5F7661 
 10984 0b77 62292E78 		.ascii	"b).x; (_vo).y = (_va).y * (_vb).y; (_vo).z = (_va)."
 10984      3B20285F 
 10984      766F292E 
 10984      79203D20 
 10984      285F7661 
 10985 0baa 7A202A20 		.ascii	"z * (_vb).z; }\000"
 10985      285F7662 
 10985      292E7A3B 
 10985      207D00
 10986              	.LASF911:
 10987 0bb9 5F4E756C 		.ascii	"_Null_unspecified \000"
 10987      6C5F756E 
 10987      73706563 
 10987      69666965 
 10987      642000
 10988              	.LASF274:
 10989 0bcc 5F5F554C 		.ascii	"__ULLFRACT_IBIT__ 0\000"
 10989      4C465241 
 10989      43545F49 
 10989      4249545F 
 10989      5F203000 
 10990              	.LASF647:
 10991 0be0 5F524541 		.ascii	"_READ_WRITE_BUFSIZE_TYPE int\000"
 10991      445F5752 
 10991      4954455F 
 10991      42554653 
 10991      495A455F 
 10992              	.LASF29:
 10993 0bfd 5F5F4259 		.ascii	"__BYTE_ORDER__ __ORDER_LITTLE_ENDIAN__\000"
 10993      54455F4F 
 10993      52444552 
 10993      5F5F205F 
 10993      5F4F5244 
 10994              	.LASF541:
 10995 0c24 464C545F 		.ascii	"FLT_DIG\000"
 10995      44494700 
 10996              	.LASF196:
 10997 0c2c 5F5F464C 		.ascii	"__FLT32_MAX_EXP__ 128\000"
 10997      5433325F 
 10997      4D41585F 
 10997      4558505F 
 10997      5F203132 
 10998              	.LASF340:
ARM GAS  /tmp/cceRHmPh.s 			page 200


 10999 0c42 5F5F5341 		.ascii	"__SA_FBIT__ 15\000"
 10999      5F464249 
 10999      545F5F20 
 10999      313500
 11000              	.LASF1348:
 11001 0c51 56454354 		.ascii	"VECT2_SUM(_c,_a,_b) { (_c).x = (_a).x + (_b).x; (_c"
 11001      325F5355 
 11001      4D285F63 
 11001      2C5F612C 
 11001      5F622920 
 11002 0c84 292E7920 		.ascii	").y = (_a).y + (_b).y; }\000"
 11002      3D20285F 
 11002      61292E79 
 11002      202B2028 
 11002      5F62292E 
 11003              	.LASF311:
 11004 0c9d 5F5F4C4C 		.ascii	"__LLACCUM_MAX__ 0X7FFFFFFFFFFFFFFFP-31LLK\000"
 11004      41434355 
 11004      4D5F4D41 
 11004      585F5F20 
 11004      30583746 
 11005              	.LASF350:
 11006 0cc7 5F5F5544 		.ascii	"__UDA_FBIT__ 32\000"
 11006      415F4642 
 11006      49545F5F 
 11006      20333200 
 11007              	.LASF455:
 11008 0cd7 43485F44 		.ascii	"CH_DBG_ENABLE_STACK_CHECK TRUE\000"
 11008      42475F45 
 11008      4E41424C 
 11008      455F5354 
 11008      41434B5F 
 11009              	.LASF290:
 11010 0cf6 5F5F4143 		.ascii	"__ACCUM_MIN__ (-0X1P15K-0X1P15K)\000"
 11010      43554D5F 
 11010      4D494E5F 
 11010      5F20282D 
 11010      30583150 
 11011              	.LASF697:
 11012 0d17 5F574348 		.ascii	"_WCHAR_T_DEFINED \000"
 11012      41525F54 
 11012      5F444546 
 11012      494E4544 
 11012      2000
 11013              	.LASF519:
 11014 0d29 5050525A 		.ascii	"PPRZ_GEODETIC_H \000"
 11014      5F47454F 
 11014      44455449 
 11014      435F4820 
 11014      00
 11015              	.LASF48:
 11016 0d3a 5F5F5549 		.ascii	"__UINT64_TYPE__ long long unsigned int\000"
 11016      4E543634 
 11016      5F545950 
 11016      455F5F20 
 11016      6C6F6E67 
 11017              	.LASF1384:
ARM GAS  /tmp/cceRHmPh.s 			page 201


 11018 0d61 52415445 		.ascii	"RATES_ASSIGN(_ra,_p,_q,_r) { (_ra).p = (_p); (_ra)."
 11018      535F4153 
 11018      5349474E 
 11018      285F7261 
 11018      2C5F702C 
 11019 0d94 71203D20 		.ascii	"q = (_q); (_ra).r = (_r); }\000"
 11019      285F7129 
 11019      3B20285F 
 11019      7261292E 
 11019      72203D20 
 11020              	.LASF166:
 11021 0db0 5F5F4442 		.ascii	"__DBL_MAX_10_EXP__ 308\000"
 11021      4C5F4D41 
 11021      585F3130 
 11021      5F455850 
 11021      5F5F2033 
 11022              	.LASF1005:
 11023 0dc7 494E545F 		.ascii	"INT_LEAST32_MIN\000"
 11023      4C454153 
 11023      5433325F 
 11023      4D494E00 
 11024              	.LASF135:
 11025 0dd7 5F5F5549 		.ascii	"__UINT_FAST64_MAX__ 0xffffffffffffffffULL\000"
 11025      4E545F46 
 11025      41535436 
 11025      345F4D41 
 11025      585F5F20 
 11026              	.LASF429:
 11027 0e01 5F5F4152 		.ascii	"__ARM_FEATURE_IDIV 1\000"
 11027      4D5F4645 
 11027      41545552 
 11027      455F4944 
 11027      49562031 
 11028              	.LASF34:
 11029 0e16 5F5F5743 		.ascii	"__WCHAR_TYPE__ unsigned int\000"
 11029      4841525F 
 11029      54595045 
 11029      5F5F2075 
 11029      6E736967 
 11030              	.LASF825:
 11031 0e32 5F5F474E 		.ascii	"__GNUCLIKE___TYPEOF 1\000"
 11031      55434C49 
 11031      4B455F5F 
 11031      5F545950 
 11031      454F4620 
 11032              	.LASF341:
 11033 0e48 5F5F5341 		.ascii	"__SA_IBIT__ 16\000"
 11033      5F494249 
 11033      545F5F20 
 11033      313600
 11034              	.LASF1328:
 11035 0e57 426F756E 		.ascii	"BoundInverted(_x,_min,_max) { if ((_x < (_min)) && "
 11035      64496E76 
 11035      65727465 
 11035      64285F78 
 11035      2C5F6D69 
 11036 0e8a 285F7820 		.ascii	"(_x > (_max))) { if (abs(_x - (_min)) < abs(_x - (_"
ARM GAS  /tmp/cceRHmPh.s 			page 202


 11036      3E20285F 
 11036      6D617829 
 11036      2929207B 
 11036      20696620 
 11037 0ebd 6D617829 		.ascii	"max))) _x = (_min); else _x = (_max); } }\000"
 11037      2929205F 
 11037      78203D20 
 11037      285F6D69 
 11037      6E293B20 
 11038              	.LASF1259:
 11039 0ee7 4D415846 		.ascii	"MAXFLOAT 3.40282347e+38F\000"
 11039      4C4F4154 
 11039      20332E34 
 11039      30323832 
 11039      33343765 
 11040              	.LASF351:
 11041 0f00 5F5F5544 		.ascii	"__UDA_IBIT__ 32\000"
 11041      415F4942 
 11041      49545F5F 
 11041      20333200 
 11042              	.LASF791:
 11043 0f10 5F524545 		.ascii	"_REENT_MBRLEN_STATE(ptr) ((ptr)->_new._reent._mbrle"
 11043      4E545F4D 
 11043      42524C45 
 11043      4E5F5354 
 11043      41544528 
 11044 0f43 6E5F7374 		.ascii	"n_state)\000"
 11044      61746529 
 11044      00
 11045              	.LASF440:
 11046 0f4c 5F5F454C 		.ascii	"__ELF__ 1\000"
 11046      465F5F20 
 11046      3100
 11047              	.LASF17:
 11048 0f56 5F5F5349 		.ascii	"__SIZEOF_LONG__ 4\000"
 11048      5A454F46 
 11048      5F4C4F4E 
 11048      475F5F20 
 11048      3400
 11049              	.LASF957:
 11050 0f68 5F5F494E 		.ascii	"__INT64 \"ll\"\000"
 11050      54363420 
 11050      226C6C22 
 11050      00
 11051              	.LASF711:
 11052 0f75 5F5F6E65 		.ascii	"__need_wint_t \000"
 11052      65645F77 
 11052      696E745F 
 11052      742000
 11053              	.LASF1156:
 11054 0f84 5F5F5343 		.ascii	"__SCN32FAST(x) __FAST32 __STRINGIFY(x)\000"
 11054      4E333246 
 11054      41535428 
 11054      7829205F 
 11054      5F464153 
 11055              	.LASF501:
 11056 0fab 5553455F 		.ascii	"USE_ADC 1\000"
ARM GAS  /tmp/cceRHmPh.s 			page 203


 11056      41444320 
 11056      3100
 11057              	.LASF1438:
 11058 0fb5 41434345 		.ascii	"ACCELS_BFP_OF_REAL(_ef,_ei) { (_ef).x = ACCEL_BFP_O"
 11058      4C535F42 
 11058      46505F4F 
 11058      465F5245 
 11058      414C285F 
 11059 0fe8 465F5245 		.ascii	"F_REAL((_ei).x); (_ef).y = ACCEL_BFP_OF_REAL((_ei)."
 11059      414C2828 
 11059      5F656929 
 11059      2E78293B 
 11059      20285F65 
 11060 101b 79293B20 		.ascii	"y); (_ef).z = ACCEL_BFP_OF_REAL((_ei).z); }\000"
 11060      285F6566 
 11060      292E7A20 
 11060      3D204143 
 11060      43454C5F 
 11061              	.LASF689:
 11062 1047 5F5F5743 		.ascii	"__WCHAR_T__ \000"
 11062      4841525F 
 11062      545F5F20 
 11062      00
 11063              	.LASF445:
 11064 1054 434F5254 		.ascii	"CORTEX_USE_FPU TRUE\000"
 11064      45585F55 
 11064      53455F46 
 11064      50552054 
 11064      52554500 
 11065              	.LASF523:
 11066 1068 4C4C415F 		.ascii	"LLA_COPY(_pos1,_pos2) { (_pos1).lat = (_pos2).lat; "
 11066      434F5059 
 11066      285F706F 
 11066      73312C5F 
 11066      706F7332 
 11067 109b 285F706F 		.ascii	"(_pos1).lon = (_pos2).lon; (_pos1).alt = (_pos2).al"
 11067      7331292E 
 11067      6C6F6E20 
 11067      3D20285F 
 11067      706F7332 
 11068 10ce 743B207D 		.ascii	"t; }\000"
 11068      00
 11069              	.LASF1353:
 11070 10d3 56454354 		.ascii	"VECT2_DOT_PRODUCT(_v1,_v2) ((_v1).x*(_v2).x + (_v1)"
 11070      325F444F 
 11070      545F5052 
 11070      4F445543 
 11070      54285F76 
 11071 1106 2E792A28 		.ascii	".y*(_v2).y)\000"
 11071      5F763229 
 11071      2E792900 
 11072              	.LASF1442:
 11073 1112 464C4F41 		.ascii	"FLOAT_VECT2_ZERO(_v) VECT2_ASSIGN(_v, 0., 0.)\000"
 11073      545F5645 
 11073      4354325F 
 11073      5A45524F 
 11073      285F7629 
ARM GAS  /tmp/cceRHmPh.s 			page 204


 11074              	.LASF1222:
 11075 1140 5F535444 		.ascii	"_STDBOOL_H \000"
 11075      424F4F4C 
 11075      5F482000 
 11076              	.LASF1057:
 11077 114c 5349475F 		.ascii	"SIG_ATOMIC_MIN\000"
 11077      41544F4D 
 11077      49435F4D 
 11077      494E00
 11078              	.LASF80:
 11079 115b 5F5F5348 		.ascii	"__SHRT_WIDTH__ 16\000"
 11079      52545F57 
 11079      49445448 
 11079      5F5F2031 
 11079      3600
 11080              	.LASF845:
 11081 116d 5F5F5028 		.ascii	"__P(protos) protos\000"
 11081      70726F74 
 11081      6F732920 
 11081      70726F74 
 11081      6F7300
 11082              	.LASF65:
 11083 1180 5F5F494E 		.ascii	"__INTPTR_TYPE__ int\000"
 11083      54505452 
 11083      5F545950 
 11083      455F5F20 
 11083      696E7400 
 11084              	.LASF324:
 11085 1194 5F5F4451 		.ascii	"__DQ_FBIT__ 63\000"
 11085      5F464249 
 11085      545F5F20 
 11085      363300
 11086              	.LASF1556:
 11087 11a3 7265616C 		.ascii	"real\000"
 11087      00
 11088              	.LASF297:
 11089 11a8 5F5F5541 		.ascii	"__UACCUM_EPSILON__ 0x1P-16UK\000"
 11089      4343554D 
 11089      5F455053 
 11089      494C4F4E 
 11089      5F5F2030 
 11090              	.LASF127:
 11091 11c5 5F5F494E 		.ascii	"__INT_FAST16_WIDTH__ 32\000"
 11091      545F4641 
 11091      53543136 
 11091      5F574944 
 11091      54485F5F 
 11092              	.LASF158:
 11093 11dd 5F5F464C 		.ascii	"__FLT_HAS_INFINITY__ 1\000"
 11093      545F4841 
 11093      535F494E 
 11093      46494E49 
 11093      54595F5F 
 11094              	.LASF1390:
 11095 11f4 52415445 		.ascii	"RATES_DIFF(_c,_a,_b) { (_c).p = (_a).p - (_b).p; (_"
 11095      535F4449 
 11095      4646285F 
ARM GAS  /tmp/cceRHmPh.s 			page 205


 11095      632C5F61 
 11095      2C5F6229 
 11096 1227 63292E71 		.ascii	"c).q = (_a).q - (_b).q; (_c).r = (_a).r - (_b).r; }"
 11096      203D2028 
 11096      5F61292E 
 11096      71202D20 
 11096      285F6229 
 11097 125a 00       		.ascii	"\000"
 11098              	.LASF1220:
 11099 125b 53434E75 		.ascii	"SCNuPTR __SCNPTR(u)\000"
 11099      50545220 
 11099      5F5F5343 
 11099      4E505452 
 11099      28752900 
 11100              	.LASF1469:
 11101 126f 464C4F41 		.ascii	"FLOAT_RMAT_OF_QUAT(_rm,_q) WARNING(\"FLOAT_RMAT_OF_"
 11101      545F524D 
 11101      41545F4F 
 11101      465F5155 
 11101      4154285F 
 11102 12a1 51554154 		.ascii	"QUAT macro is deprecated, use the lower case functi"
 11102      206D6163 
 11102      726F2069 
 11102      73206465 
 11102      70726563 
 11103 12d4 6F6E2069 		.ascii	"on instead\") float_rmat_of_quat(&(_rm), &(_q))\000"
 11103      6E737465 
 11103      61642229 
 11103      20666C6F 
 11103      61745F72 
 11104              	.LASF1566:
 11105 1303 70686930 		.ascii	"phi0\000"
 11105      00
 11106              	.LASF551:
 11107 1308 44424C5F 		.ascii	"DBL_MIN_EXP __DBL_MIN_EXP__\000"
 11107      4D494E5F 
 11107      45585020 
 11107      5F5F4442 
 11107      4C5F4D49 
 11108              	.LASF1179:
 11109 1324 50524964 		.ascii	"PRIdFAST32 __PRI32FAST(d)\000"
 11109      46415354 
 11109      3332205F 
 11109      5F505249 
 11109      33324641 
 11110              	.LASF1229:
 11111 133e 48554745 		.ascii	"HUGE_VAL (__builtin_huge_val())\000"
 11111      5F56414C 
 11111      20285F5F 
 11111      6275696C 
 11111      74696E5F 
 11112              	.LASF1034:
 11113 135e 494E545F 		.ascii	"INT_FAST64_MAX __INT_FAST64_MAX__\000"
 11113      46415354 
 11113      36345F4D 
 11113      4158205F 
 11113      5F494E54 
ARM GAS  /tmp/cceRHmPh.s 			page 206


 11114              	.LASF504:
 11115 1380 5553455F 		.ascii	"USE_BAROMETER TRUE\000"
 11115      4241524F 
 11115      4D455445 
 11115      52205452 
 11115      554500
 11116              	.LASF1321:
 11117 1393 4D696E28 		.ascii	"Min(x,y) (x < y ? x : y)\000"
 11117      782C7929 
 11117      20287820 
 11117      3C207920 
 11117      3F207820 
 11118              	.LASF546:
 11119 13ac 4C44424C 		.ascii	"LDBL_DIG __LDBL_DIG__\000"
 11119      5F444947 
 11119      205F5F4C 
 11119      44424C5F 
 11119      4449475F 
 11120              	.LASF1125:
 11121 13c2 53434E69 		.ascii	"SCNi16 __SCN16(i)\000"
 11121      3136205F 
 11121      5F53434E 
 11121      31362869 
 11121      2900
 11122              	.LASF963:
 11123 13d4 5F5F4C45 		.ascii	"__LEAST16 \"h\"\000"
 11123      41535431 
 11123      36202268 
 11123      2200
 11124              	.LASF882:
 11125 13e2 5F5F7072 		.ascii	"__predict_true(exp) __builtin_expect((exp), 1)\000"
 11125      65646963 
 11125      745F7472 
 11125      75652865 
 11125      78702920 
 11126              	.LASF1130:
 11127 1411 50524969 		.ascii	"PRIiLEAST16 __PRI16LEAST(i)\000"
 11127      4C454153 
 11127      54313620 
 11127      5F5F5052 
 11127      4931364C 
 11128              	.LASF357:
 11129 142d 5F5F4E4F 		.ascii	"__NO_INLINE__ 1\000"
 11129      5F494E4C 
 11129      494E455F 
 11129      5F203100 
 11130              	.LASF1552:
 11131 143d 73657269 		.ascii	"serie_coeff_proj_mercator\000"
 11131      655F636F 
 11131      6566665F 
 11131      70726F6A 
 11131      5F6D6572 
 11132              	.LASF859:
 11133 1457 5F5F616C 		.ascii	"__aligned(x) __attribute__((__aligned__(x)))\000"
 11133      69676E65 
 11133      64287829 
 11133      205F5F61 
ARM GAS  /tmp/cceRHmPh.s 			page 207


 11133      74747269 
 11134              	.LASF207:
 11135 1484 5F5F4650 		.ascii	"__FP_FAST_FMAF32 1\000"
 11135      5F464153 
 11135      545F464D 
 11135      41463332 
 11135      203100
 11136              	.LASF1558:
 11137 1497 7068695F 		.ascii	"phi_\000"
 11137      00
 11138              	.LASF661:
 11139 149c 5F545F50 		.ascii	"_T_PTRDIFF_ \000"
 11139      54524449 
 11139      46465F20 
 11139      00
 11140              	.LASF1239:
 11141 14a9 46505F49 		.ascii	"FP_ILOGB0 (-__INT_MAX__)\000"
 11141      4C4F4742 
 11141      3020282D 
 11141      5F5F494E 
 11141      545F4D41 
 11142              	.LASF1268:
 11143 14c2 4D5F315F 		.ascii	"M_1_PI 0.31830988618379067154\000"
 11143      50492030 
 11143      2E333138 
 11143      33303938 
 11143      38363138 
 11144              	.LASF817:
 11145 14e0 5F5F756E 		.ascii	"__unbounded \000"
 11145      626F756E 
 11145      64656420 
 11145      00
 11146              	.LASF109:
 11147 14ed 5F5F494E 		.ascii	"__INT_LEAST16_WIDTH__ 16\000"
 11147      545F4C45 
 11147      41535431 
 11147      365F5749 
 11147      4454485F 
 11148              	.LASF245:
 11149 1506 5F5F5553 		.ascii	"__USFRACT_MIN__ 0.0UHR\000"
 11149      46524143 
 11149      545F4D49 
 11149      4E5F5F20 
 11149      302E3055 
 11150              	.LASF604:
 11151 151d 5F57414E 		.ascii	"_WANT_REGISTER_FINI 1\000"
 11151      545F5245 
 11151      47495354 
 11151      45525F46 
 11151      494E4920 
 11152              	.LASF51:
 11153 1533 5F5F494E 		.ascii	"__INT_LEAST32_TYPE__ long int\000"
 11153      545F4C45 
 11153      41535433 
 11153      325F5459 
 11153      50455F5F 
 11154              	.LASF174:
ARM GAS  /tmp/cceRHmPh.s 			page 208


 11155 1551 5F5F4442 		.ascii	"__DBL_HAS_INFINITY__ 1\000"
 11155      4C5F4841 
 11155      535F494E 
 11155      46494E49 
 11155      54595F5F 
 11156              	.LASF606:
 11157 1568 5F4D425F 		.ascii	"_MB_LEN_MAX 1\000"
 11157      4C454E5F 
 11157      4D415820 
 11157      3100
 11158              	.LASF1235:
 11159 1576 46505F49 		.ascii	"FP_INFINITE 1\000"
 11159      4E46494E 
 11159      49544520 
 11159      3100
 11160              	.LASF1437:
 11161 1584 41434345 		.ascii	"ACCELS_FLOAT_OF_BFP(_ef,_ei) { (_ef).x = ACCEL_FLOA"
 11161      4C535F46 
 11161      4C4F4154 
 11161      5F4F465F 
 11161      42465028 
 11162 15b7 545F4F46 		.ascii	"T_OF_BFP((_ei).x); (_ef).y = ACCEL_FLOAT_OF_BFP((_e"
 11162      5F424650 
 11162      28285F65 
 11162      69292E78 
 11162      293B2028 
 11163 15ea 69292E79 		.ascii	"i).y); (_ef).z = ACCEL_FLOAT_OF_BFP((_ei).z); }\000"
 11163      293B2028 
 11163      5F656629 
 11163      2E7A203D 
 11163      20414343 
 11164              	.LASF928:
 11165 161a 5F5F6E6F 		.ascii	"__no_lock_analysis __lock_annotate(no_thread_safety"
 11165      5F6C6F63 
 11165      6B5F616E 
 11165      616C7973 
 11165      6973205F 
 11166 164d 5F616E61 		.ascii	"_analysis)\000"
 11166      6C797369 
 11166      732900
 11167              	.LASF69:
 11168 1658 5F5F5348 		.ascii	"__SHRT_MAX__ 0x7fff\000"
 11168      52545F4D 
 11168      41585F5F 
 11168      20307837 
 11168      66666600 
 11169              	.LASF1048:
 11170 166c 494E544D 		.ascii	"INTMAX_MIN (-INTMAX_MAX - 1)\000"
 11170      41585F4D 
 11170      494E2028 
 11170      2D494E54 
 11170      4D41585F 
 11171              	.LASF460:
 11172 1689 4354524C 		.ascii	"CTRL_TYPE_H \"firmwares/fixedwing/guidance/guidance"
 11172      5F545950 
 11172      455F4820 
 11172      22666972 
ARM GAS  /tmp/cceRHmPh.s 			page 209


 11172      6D776172 
 11173 16bb 5F762E68 		.ascii	"_v.h\"\000"
 11173      2200
 11174              	.LASF107:
 11175 16c1 5F5F494E 		.ascii	"__INT_LEAST16_MAX__ 0x7fff\000"
 11175      545F4C45 
 11175      41535431 
 11175      365F4D41 
 11175      585F5F20 
 11176              	.LASF786:
 11177 16dc 5F524545 		.ascii	"_REENT_EMERGENCY(ptr) ((ptr)->_emergency)\000"
 11177      4E545F45 
 11177      4D455247 
 11177      454E4359 
 11177      28707472 
 11178              	.LASF550:
 11179 1706 464C545F 		.ascii	"FLT_MIN_EXP __FLT_MIN_EXP__\000"
 11179      4D494E5F 
 11179      45585020 
 11179      5F5F464C 
 11179      545F4D49 
 11180              	.LASF795:
 11181 1722 5F524545 		.ascii	"_REENT_WCSRTOMBS_STATE(ptr) ((ptr)->_new._reent._wc"
 11181      4E545F57 
 11181      43535254 
 11181      4F4D4253 
 11181      5F535441 
 11182 1755 7372746F 		.ascii	"srtombs_state)\000"
 11182      6D62735F 
 11182      73746174 
 11182      652900
 11183              	.LASF1575:
 11184 1764 73696E5F 		.ascii	"sin_lon\000"
 11184      6C6F6E00 
 11185              	.LASF1317:
 11186 176c 4D4F6643 		.ascii	"MOfCm(_x) (((float)(_x))/100.)\000"
 11186      6D285F78 
 11186      29202828 
 11186      28666C6F 
 11186      61742928 
 11187              	.LASF877:
 11188 178b 5F5F6661 		.ascii	"__fastcall __attribute__((__fastcall__))\000"
 11188      73746361 
 11188      6C6C205F 
 11188      5F617474 
 11188      72696275 
 11189              	.LASF1293:
 11190 17b4 494E464F 		.ascii	"INFO(x) DO_PRAGMA(message (\"Info: \" x))\000"
 11190      28782920 
 11190      444F5F50 
 11190      5241474D 
 11190      41286D65 
 11191              	.LASF1096:
 11192 17dc 5052496F 		.ascii	"PRIo8 __PRI8(o)\000"
 11192      38205F5F 
 11192      50524938 
 11192      286F2900 
ARM GAS  /tmp/cceRHmPh.s 			page 210


 11193              	.LASF1545:
 11194 17ec 7A6F6E65 		.ascii	"zone\000"
 11194      00
 11195              	.LASF654:
 11196 17f1 5F4E4F49 		.ascii	"_NOINLINE __attribute__ ((__noinline__))\000"
 11196      4E4C494E 
 11196      45205F5F 
 11196      61747472 
 11196      69627574 
 11197              	.LASF1049:
 11198 181a 55494E54 		.ascii	"UINTMAX_MAX\000"
 11198      4D41585F 
 11198      4D415800 
 11199              	.LASF130:
 11200 1826 5F5F494E 		.ascii	"__INT_FAST64_MAX__ 0x7fffffffffffffffLL\000"
 11200      545F4641 
 11200      53543634 
 11200      5F4D4158 
 11200      5F5F2030 
 11201              	.LASF310:
 11202 184e 5F5F4C4C 		.ascii	"__LLACCUM_MIN__ (-0X1P31LLK-0X1P31LLK)\000"
 11202      41434355 
 11202      4D5F4D49 
 11202      4E5F5F20 
 11202      282D3058 
 11203              	.LASF363:
 11204 1875 5F5F4743 		.ascii	"__GCC_ATOMIC_CHAR_LOCK_FREE 2\000"
 11204      435F4154 
 11204      4F4D4943 
 11204      5F434841 
 11204      525F4C4F 
 11205              	.LASF62:
 11206 1893 5F5F5549 		.ascii	"__UINT_FAST16_TYPE__ unsigned int\000"
 11206      4E545F46 
 11206      41535431 
 11206      365F5459 
 11206      50455F5F 
 11207              	.LASF1227:
 11208 18b5 5F4D4154 		.ascii	"_MATH_H_ \000"
 11208      485F485F 
 11208      2000
 11209              	.LASF308:
 11210 18bf 5F5F4C4C 		.ascii	"__LLACCUM_FBIT__ 31\000"
 11210      41434355 
 11210      4D5F4642 
 11210      49545F5F 
 11210      20333100 
 11211              	.LASF103:
 11212 18d3 5F5F5549 		.ascii	"__UINT64_MAX__ 0xffffffffffffffffULL\000"
 11212      4E543634 
 11212      5F4D4158 
 11212      5F5F2030 
 11212      78666666 
 11213              	.LASF16:
 11214 18f8 5F5F5349 		.ascii	"__SIZEOF_INT__ 4\000"
 11214      5A454F46 
 11214      5F494E54 
ARM GAS  /tmp/cceRHmPh.s 			page 211


 11214      5F5F2034 
 11214      00
 11215              	.LASF1254:
 11216 1909 69736C65 		.ascii	"islessgreater(__x,__y) (__builtin_islessgreater (__"
 11216      73736772 
 11216      65617465 
 11216      72285F5F 
 11216      782C5F5F 
 11217 193c 782C205F 		.ascii	"x, __y))\000"
 11217      5F792929 
 11217      00
 11218              	.LASF1208:
 11219 1945 53434E78 		.ascii	"SCNxMAX __SCNMAX(x)\000"
 11219      4D415820 
 11219      5F5F5343 
 11219      4E4D4158 
 11219      28782900 
 11220              	.LASF228:
 11221 1959 5F5F464C 		.ascii	"__FLT32X_MAX_10_EXP__ 308\000"
 11221      54333258 
 11221      5F4D4158 
 11221      5F31305F 
 11221      4558505F 
 11222              	.LASF942:
 11223 1973 5F5F696E 		.ascii	"__int20__\000"
 11223      7432305F 
 11223      5F00
 11224              	.LASF1477:
 11225 197d 464C4F41 		.ascii	"FLOAT_QUAT_NORMALIZE(_q) WARNING(\"FLOAT_QUAT_NORMA"
 11225      545F5155 
 11225      41545F4E 
 11225      4F524D41 
 11225      4C495A45 
 11226 19af 4C495A45 		.ascii	"LIZE macro is deprecated, use the lower case functi"
 11226      206D6163 
 11226      726F2069 
 11226      73206465 
 11226      70726563 
 11227 19e2 6F6E2069 		.ascii	"on instead\") float_quat_normalize(&(_q))\000"
 11227      6E737465 
 11227      61642229 
 11227      20666C6F 
 11227      61745F71 
 11228              	.LASF40:
 11229 1a0b 5F5F5349 		.ascii	"__SIG_ATOMIC_TYPE__ int\000"
 11229      475F4154 
 11229      4F4D4943 
 11229      5F545950 
 11229      455F5F20 
 11230              	.LASF681:
 11231 1a23 5F425344 		.ascii	"_BSD_SIZE_T_DEFINED_ \000"
 11231      5F53495A 
 11231      455F545F 
 11231      44454649 
 11231      4E45445F 
 11232              	.LASF828:
 11233 1a39 5F5F474E 		.ascii	"__GNUCLIKE_CTOR_SECTION_HANDLING 1\000"
ARM GAS  /tmp/cceRHmPh.s 			page 212


 11233      55434C49 
 11233      4B455F43 
 11233      544F525F 
 11233      53454354 
 11234              	.LASF940:
 11235 1a5c 73686F72 		.ascii	"short\000"
 11235      7400
 11236              	.LASF1460:
 11237 1a62 464C4F41 		.ascii	"FLOAT_RMAT_COMP_INV(_m_a2b,_m_a2c,_m_b2c) WARNING(\""
 11237      545F524D 
 11237      41545F43 
 11237      4F4D505F 
 11237      494E5628 
 11238 1a95 464C4F41 		.ascii	"FLOAT_RMAT_COMP_INV macro is deprecated, use the lo"
 11238      545F524D 
 11238      41545F43 
 11238      4F4D505F 
 11238      494E5620 
 11239 1ac8 77657220 		.ascii	"wer case function instead\") float_rmat_comp_inv(&("
 11239      63617365 
 11239      2066756E 
 11239      6374696F 
 11239      6E20696E 
 11240 1afa 5F6D5F61 		.ascii	"_m_a2b), &(_m_a2c), &(_m_b2c))\000"
 11240      3262292C 
 11240      2026285F 
 11240      6D5F6132 
 11240      63292C20 
 11241              	.LASF1387:
 11242 1b19 52415445 		.ascii	"RATES_SUB(_a,_b) { (_a).p -= (_b).p; (_a).q -= (_b)"
 11242      535F5355 
 11242      42285F61 
 11242      2C5F6229 
 11242      207B2028 
 11243 1b4c 2E713B20 		.ascii	".q; (_a).r -= (_b).r; }\000"
 11243      285F6129 
 11243      2E72202D 
 11243      3D20285F 
 11243      62292E72 
 11244              	.LASF1258:
 11245 1b64 5F5F7369 		.ascii	"__signgam_r(ptr) _REENT_SIGNGAM(ptr)\000"
 11245      676E6761 
 11245      6D5F7228 
 11245      70747229 
 11245      205F5245 
 11246              	.LASF1117:
 11247 1b89 5F5F5343 		.ascii	"__SCN16FAST(x) __FAST16 __STRINGIFY(x)\000"
 11247      4E313646 
 11247      41535428 
 11247      7829205F 
 11247      5F464153 
 11248              	.LASF119:
 11249 1bb0 5F5F5549 		.ascii	"__UINT16_C(c) c\000"
 11249      4E543136 
 11249      5F432863 
 11249      29206300 
 11250              	.LASF375:
ARM GAS  /tmp/cceRHmPh.s 			page 213


 11251 1bc0 5F5F5052 		.ascii	"__PRAGMA_REDEFINE_EXTNAME 1\000"
 11251      41474D41 
 11251      5F524544 
 11251      4546494E 
 11251      455F4558 
 11252              	.LASF52:
 11253 1bdc 5F5F494E 		.ascii	"__INT_LEAST64_TYPE__ long long int\000"
 11253      545F4C45 
 11253      41535436 
 11253      345F5459 
 11253      50455F5F 
 11254              	.LASF864:
 11255 1bff 5F416C69 		.ascii	"_Alignas(x) __aligned(x)\000"
 11255      676E6173 
 11255      28782920 
 11255      5F5F616C 
 11255      69676E65 
 11256              	.LASF1371:
 11257 1c18 56454354 		.ascii	"VECT3_ABS(_vo,_vi) { (_vo).x = ABS((_vi).x); (_vo)."
 11257      335F4142 
 11257      53285F76 
 11257      6F2C5F76 
 11257      6929207B 
 11258 1c4b 79203D20 		.ascii	"y = ABS((_vi).y); (_vo).z = ABS((_vi).z); }\000"
 11258      41425328 
 11258      285F7669 
 11258      292E7929 
 11258      3B20285F 
 11259              	.LASF1382:
 11260 1c77 45554C45 		.ascii	"EULERS_SDIV(_eo,_ei,_s) { (_eo).phi = (_ei).phi / ("
 11260      52535F53 
 11260      44495628 
 11260      5F656F2C 
 11260      5F65692C 
 11261 1caa 5F73293B 		.ascii	"_s); (_eo).theta = (_ei).theta / (_s); (_eo).psi = "
 11261      20285F65 
 11261      6F292E74 
 11261      68657461 
 11261      203D2028 
 11262 1cdd 285F6569 		.ascii	"(_ei).psi / (_s); }\000"
 11262      292E7073 
 11262      69202F20 
 11262      285F7329 
 11262      3B207D00 
 11263              	.LASF744:
 11264 1cf1 5F5F6C6F 		.ascii	"__lock_acquire(lock) ((void) 0)\000"
 11264      636B5F61 
 11264      63717569 
 11264      7265286C 
 11264      6F636B29 
 11265              	.LASF899:
 11266 1d11 5F5F7379 		.ascii	"__sym_compat(sym,impl,verid) __asm__(\".symver \" #"
 11266      6D5F636F 
 11266      6D706174 
 11266      2873796D 
 11266      2C696D70 
 11267 1d42 696D706C 		.ascii	"impl \", \" #sym \"@\" #verid)\000"
ARM GAS  /tmp/cceRHmPh.s 			page 214


 11267      20222C20 
 11267      22202373 
 11267      796D2022 
 11267      40222023 
 11268              	.LASF1075:
 11269 1d5d 494E5436 		.ascii	"INT64_C\000"
 11269      345F4300 
 11270              	.LASF927:
 11271 1d65 5F5F7265 		.ascii	"__requires_unlocked(...) __lock_annotate(locks_excl"
 11271      71756972 
 11271      65735F75 
 11271      6E6C6F63 
 11271      6B656428 
 11272 1d98 75646564 		.ascii	"uded(__VA_ARGS__))\000"
 11272      285F5F56 
 11272      415F4152 
 11272      47535F5F 
 11272      292900
 11273              	.LASF1190:
 11274 1dab 5F5F5052 		.ascii	"__PRI64(x) __INT64 __STRINGIFY(x)\000"
 11274      49363428 
 11274      7829205F 
 11274      5F494E54 
 11274      3634205F 
 11275              	.LASF1372:
 11276 1dcd 56454354 		.ascii	"VECT3_CROSS_PRODUCT(_vo,_v1,_v2) { (_vo).x = (_v1)."
 11276      335F4352 
 11276      4F53535F 
 11276      50524F44 
 11276      55435428 
 11277 1e00 792A285F 		.ascii	"y*(_v2).z - (_v1).z*(_v2).y; (_vo).y = (_v1).z*(_v2"
 11277      7632292E 
 11277      7A202D20 
 11277      285F7631 
 11277      292E7A2A 
 11278 1e33 292E7820 		.ascii	").x - (_v1).x*(_v2).z; (_vo).z = (_v1).x*(_v2).y - "
 11278      2D20285F 
 11278      7631292E 
 11278      782A285F 
 11278      7632292E 
 11279 1e66 285F7631 		.ascii	"(_v1).y*(_v2).x; }\000"
 11279      292E792A 
 11279      285F7632 
 11279      292E783B 
 11279      207D00
 11280              	.LASF569:
 11281 1e79 44424C5F 		.ascii	"DBL_MAX_10_EXP __DBL_MAX_10_EXP__\000"
 11281      4D41585F 
 11281      31305F45 
 11281      5850205F 
 11281      5F44424C 
 11282              	.LASF1373:
 11283 1e9b 56454354 		.ascii	"VECT3_DOT_PRODUCT(_v1,_v2) ((_v1).x*(_v2).x + (_v1)"
 11283      335F444F 
 11283      545F5052 
 11283      4F445543 
 11283      54285F76 
ARM GAS  /tmp/cceRHmPh.s 			page 215


 11284 1ece 2E792A28 		.ascii	".y*(_v2).y + (_v1).z*(_v2).z)\000"
 11284      5F763229 
 11284      2E79202B 
 11284      20285F76 
 11284      31292E7A 
 11285              	.LASF1310:
 11286 1eec 4E6F726D 		.ascii	"NormCourseRad(x) { while (x < 0) x += 2*M_PI; while"
 11286      436F7572 
 11286      73655261 
 11286      64287829 
 11286      207B2077 
 11287 1f1f 20287820 		.ascii	" (x >= 2*M_PI) x -= 2*M_PI; }\000"
 11287      3E3D2032 
 11287      2A4D5F50 
 11287      49292078 
 11287      202D3D20 
 11288              	.LASF1184:
 11289 1f3d 50524958 		.ascii	"PRIXFAST32 __PRI32FAST(X)\000"
 11289      46415354 
 11289      3332205F 
 11289      5F505249 
 11289      33324641 
 11290              	.LASF1526:
 11291 1f57 756E7369 		.ascii	"unsigned char\000"
 11291      676E6564 
 11291      20636861 
 11291      7200
 11292              	.LASF1088:
 11293 1f65 55494E54 		.ascii	"UINTMAX_C(c) __UINTMAX_C(c)\000"
 11293      4D41585F 
 11293      43286329 
 11293      205F5F55 
 11293      494E544D 
 11294              	.LASF1339:
 11295 1f81 50657269 		.ascii	"PeriodicPrescaleBy10(_code_0,_code_1,_code_2,_code_"
 11295      6F646963 
 11295      50726573 
 11295      63616C65 
 11295      42793130 
 11296 1fb4 332C5F63 		.ascii	"3,_code_4,_code_5,_code_6,_code_7,_code_8,_code_9) "
 11296      6F64655F 
 11296      342C5F63 
 11296      6F64655F 
 11296      352C5F63 
 11297 1fe7 7B207374 		.ascii	"{ static uint8_t _cnt = 0; _cnt++; if (_cnt >= 10) "
 11297      61746963 
 11297      2075696E 
 11297      74385F74 
 11297      205F636E 
 11298 201a 5F636E74 		.ascii	"_cnt = 0; switch (_cnt) { case 0: _code_0; break; c"
 11298      203D2030 
 11298      3B207377 
 11298      69746368 
 11298      20285F63 
 11299 204d 61736520 		.ascii	"ase 1: _code_1; break; case 2: _code_2; break; case"
 11299      313A205F 
 11299      636F6465 
ARM GAS  /tmp/cceRHmPh.s 			page 216


 11299      5F313B20 
 11299      62726561 
 11300 2080 20333A20 		.ascii	" 3: _code_3; break; case 4: _code_4; break; case 5:"
 11300      5F636F64 
 11300      655F333B 
 11300      20627265 
 11300      616B3B20 
 11301 20b3 205F636F 		.ascii	" _code_5; break; case 6: _code_6; break; case 7: _c"
 11301      64655F35 
 11301      3B206272 
 11301      65616B3B 
 11301      20636173 
 11302 20e6 6F64655F 		.ascii	"ode_7; break; case 8: _code_8; break; case 9: defau"
 11302      373B2062 
 11302      7265616B 
 11302      3B206361 
 11302      73652038 
 11303 2119 6C743A20 		.ascii	"lt: _code_9; break; } }\000"
 11303      5F636F64 
 11303      655F393B 
 11303      20627265 
 11303      616B3B20 
 11304              	.LASF183:
 11305 2131 5F5F4C44 		.ascii	"__LDBL_DECIMAL_DIG__ 17\000"
 11305      424C5F44 
 11305      4543494D 
 11305      414C5F44 
 11305      49475F5F 
 11306              	.LASF1391:
 11307 2149 52415445 		.ascii	"RATES_SMUL(_ro,_ri,_s) { (_ro).p = (_ri).p * (_s); "
 11307      535F534D 
 11307      554C285F 
 11307      726F2C5F 
 11307      72692C5F 
 11308 217c 285F726F 		.ascii	"(_ro).q = (_ri).q * (_s); (_ro).r = (_ri).r * (_s);"
 11308      292E7120 
 11308      3D20285F 
 11308      7269292E 
 11308      71202A20 
 11309 21af 207D00   		.ascii	" }\000"
 11310              	.LASF234:
 11311 21b2 5F5F464C 		.ascii	"__FLT32X_DENORM_MIN__ 4.9406564584124654e-324F32x\000"
 11311      54333258 
 11311      5F44454E 
 11311      4F524D5F 
 11311      4D494E5F 
 11312              	.LASF1069:
 11313 21e4 494E5438 		.ascii	"INT8_C\000"
 11313      5F4300
 11314              	.LASF1223:
 11315 21eb 626F6F6C 		.ascii	"bool _Bool\000"
 11315      205F426F 
 11315      6F6C00
 11316              	.LASF531:
 11317 21f6 5050525A 		.ascii	"PPRZ_ALGEBRA_H \000"
 11317      5F414C47 
 11317      45425241 
ARM GAS  /tmp/cceRHmPh.s 			page 217


 11317      5F482000 
 11318              	.LASF514:
 11319 2206 57494E44 		.ascii	"WIND_INFO 1\000"
 11319      5F494E46 
 11319      4F203100 
 11320              	.LASF1165:
 11321 2212 53434E6F 		.ascii	"SCNo32 __SCN32(o)\000"
 11321      3332205F 
 11321      5F53434E 
 11321      3332286F 
 11321      2900
 11322              	.LASF25:
 11323 2224 5F5F4249 		.ascii	"__BIGGEST_ALIGNMENT__ 8\000"
 11323      47474553 
 11323      545F414C 
 11323      49474E4D 
 11323      454E545F 
 11324              	.LASF401:
 11325 223c 5F5F4152 		.ascii	"__ARM_ARCH\000"
 11325      4D5F4152 
 11325      434800
 11326              	.LASF45:
 11327 2247 5F5F5549 		.ascii	"__UINT8_TYPE__ unsigned char\000"
 11327      4E54385F 
 11327      54595045 
 11327      5F5F2075 
 11327      6E736967 
 11328              	.LASF513:
 11329 2264 5553455F 		.ascii	"USE_UART4 1\000"
 11329      55415254 
 11329      34203100 
 11330              	.LASF1036:
 11331 2270 494E545F 		.ascii	"INT_FAST64_MIN (-INT_FAST64_MAX - 1)\000"
 11331      46415354 
 11331      36345F4D 
 11331      494E2028 
 11331      2D494E54 
 11332              	.LASF1443:
 11333 2295 464C4F41 		.ascii	"FLOAT_VECT2_NORM(_v) sqrtf(VECT2_NORM2(_v))\000"
 11333      545F5645 
 11333      4354325F 
 11333      4E4F524D 
 11333      285F7629 
 11334              	.LASF788:
 11335 22c1 5F524545 		.ascii	"_REENT_MBLEN_STATE(ptr) ((ptr)->_new._reent._mblen_"
 11335      4E545F4D 
 11335      424C454E 
 11335      5F535441 
 11335      54452870 
 11336 22f4 73746174 		.ascii	"state)\000"
 11336      652900
 11337              	.LASF195:
 11338 22fb 5F5F464C 		.ascii	"__FLT32_MIN_10_EXP__ (-37)\000"
 11338      5433325F 
 11338      4D494E5F 
 11338      31305F45 
 11338      58505F5F 
ARM GAS  /tmp/cceRHmPh.s 			page 218


 11339              	.LASF1370:
 11340 2316 56454354 		.ascii	"VECT3_BOUND_BOX(_v,_v_min,_v_max) { if ((_v).x > (_"
 11340      335F424F 
 11340      554E445F 
 11340      424F5828 
 11340      5F762C5F 
 11341 2349 765F6D61 		.ascii	"v_max).x) (_v).x = (_v_max).x; else if ((_v).x < (_"
 11341      78292E78 
 11341      2920285F 
 11341      76292E78 
 11341      203D2028 
 11342 237c 765F6D69 		.ascii	"v_min).x) (_v).x = (_v_min).x; if ((_v).y > (_v_max"
 11342      6E292E78 
 11342      2920285F 
 11342      76292E78 
 11342      203D2028 
 11343 23af 292E7929 		.ascii	").y) (_v).y = (_v_max).y; else if ((_v).y < (_v_min"
 11343      20285F76 
 11343      292E7920 
 11343      3D20285F 
 11343      765F6D61 
 11344 23e2 292E7929 		.ascii	").y) (_v).y = (_v_min).y; if ((_v).z > (_v_max).z) "
 11344      20285F76 
 11344      292E7920 
 11344      3D20285F 
 11344      765F6D69 
 11345 2415 285F7629 		.ascii	"(_v).z = (_v_max).z; else if ((_v).z < (_v_min).z) "
 11345      2E7A203D 
 11345      20285F76 
 11345      5F6D6178 
 11345      292E7A3B 
 11346 2448 285F7629 		.ascii	"(_v).z = (_v_min).z; }\000"
 11346      2E7A203D 
 11346      20285F76 
 11346      5F6D696E 
 11346      292E7A3B 
 11347              	.LASF316:
 11348 245f 5F5F554C 		.ascii	"__ULLACCUM_MAX__ 0XFFFFFFFFFFFFFFFFP-32ULLK\000"
 11348      4C414343 
 11348      554D5F4D 
 11348      41585F5F 
 11348      20305846 
 11349              	.LASF314:
 11350 248b 5F5F554C 		.ascii	"__ULLACCUM_IBIT__ 32\000"
 11350      4C414343 
 11350      554D5F49 
 11350      4249545F 
 11350      5F203332 
 11351              	.LASF3:
 11352 24a0 5F5F5354 		.ascii	"__STDC_UTF_32__ 1\000"
 11352      44435F55 
 11352      54465F33 
 11352      325F5F20 
 11352      3100
 11353              	.LASF1360:
 11354 24b2 56454354 		.ascii	"VECT3_SUM(_c,_a,_b) { (_c).x = (_a).x + (_b).x; (_c"
 11354      335F5355 
ARM GAS  /tmp/cceRHmPh.s 			page 219


 11354      4D285F63 
 11354      2C5F612C 
 11354      5F622920 
 11355 24e5 292E7920 		.ascii	").y = (_a).y + (_b).y; (_c).z = (_a).z + (_b).z; }\000"
 11355      3D20285F 
 11355      61292E79 
 11355      202B2028 
 11355      5F62292E 
 11356              	.LASF850:
 11357 2518 5F5F636F 		.ascii	"__const const\000"
 11357      6E737420 
 11357      636F6E73 
 11357      7400
 11358              	.LASF1150:
 11359 2526 53434E78 		.ascii	"SCNxFAST16 __SCN16FAST(x)\000"
 11359      46415354 
 11359      3136205F 
 11359      5F53434E 
 11359      31364641 
 11360              	.LASF511:
 11361 2540 5553455F 		.ascii	"USE_PPM TRUE\000"
 11361      50504D20 
 11361      54525545 
 11361      00
 11362              	.LASF493:
 11363 254d 5348545F 		.ascii	"SHT_DAT_GPIO GPIOB,GPIO1\000"
 11363      4441545F 
 11363      4750494F 
 11363      20475049 
 11363      4F422C47 
 11364              	.LASF506:
 11365 2566 5553455F 		.ascii	"USE_GPS 1\000"
 11365      47505320 
 11365      3100
 11366              	.LASF878:
 11367 2570 5F5F7265 		.ascii	"__result_use_check __attribute__((__warn_unused_res"
 11367      73756C74 
 11367      5F757365 
 11367      5F636865 
 11367      636B205F 
 11368 25a3 756C745F 		.ascii	"ult__))\000"
 11368      5F292900 
 11369              	.LASF1579:
 11370 25ab 65636566 		.ascii	"ecef_of_ned_vect_f\000"
 11370      5F6F665F 
 11370      6E65645F 
 11370      76656374 
 11370      5F6600
 11371              	.LASF1219:
 11372 25be 53434E6F 		.ascii	"SCNoPTR __SCNPTR(o)\000"
 11372      50545220 
 11372      5F5F5343 
 11372      4E505452 
 11372      286F2900 
 11373              	.LASF596:
 11374 25d2 5F414E53 		.ascii	"_ANSIDECL_H_ \000"
 11374      49444543 
ARM GAS  /tmp/cceRHmPh.s 			page 220


 11374      4C5F485F 
 11374      2000
 11375              	.LASF46:
 11376 25e0 5F5F5549 		.ascii	"__UINT16_TYPE__ short unsigned int\000"
 11376      4E543136 
 11376      5F545950 
 11376      455F5F20 
 11376      73686F72 
 11377              	.LASF727:
 11378 2603 5F5F4558 		.ascii	"__EXP\000"
 11378      5000
 11379              	.LASF1430:
 11380 2609 51554154 		.ascii	"QUAT_BFP_OF_REAL(_qi,_qf) { (_qi).qi = QUAT1_BFP_OF"
 11380      5F424650 
 11380      5F4F465F 
 11380      5245414C 
 11380      285F7169 
 11381 263c 5F524541 		.ascii	"_REAL((_qf).qi); (_qi).qx = QUAT1_BFP_OF_REAL((_qf)"
 11381      4C28285F 
 11381      7166292E 
 11381      7169293B 
 11381      20285F71 
 11382 266f 2E717829 		.ascii	".qx); (_qi).qy = QUAT1_BFP_OF_REAL((_qf).qy); (_qi)"
 11382      3B20285F 
 11382      7169292E 
 11382      7179203D 
 11382      20515541 
 11383 26a2 2E717A20 		.ascii	".qz = QUAT1_BFP_OF_REAL((_qf).qz); }\000"
 11383      3D205155 
 11383      4154315F 
 11383      4246505F 
 11383      4F465F52 
 11384              	.LASF674:
 11385 26c7 5F545F53 		.ascii	"_T_SIZE_ \000"
 11385      495A455F 
 11385      2000
 11386              	.LASF200:
 11387 26d1 5F5F464C 		.ascii	"__FLT32_NORM_MAX__ 3.4028234663852886e+38F32\000"
 11387      5433325F 
 11387      4E4F524D 
 11387      5F4D4158 
 11387      5F5F2033 
 11388              	.LASF1491:
 11389 26fe 464C4F41 		.ascii	"FLOAT_QUAT_OF_AXIS_ANGLE(_q,_uv,_an) WARNING(\"FLOA"
 11389      545F5155 
 11389      41545F4F 
 11389      465F4158 
 11389      49535F41 
 11390 2730 545F5155 		.ascii	"T_QUAT_OF_AXIS_ANGLE macro is deprecated, use the l"
 11390      41545F4F 
 11390      465F4158 
 11390      49535F41 
 11390      4E474C45 
 11391 2763 6F776572 		.ascii	"ower case function instead\") float_quat_of_axis_an"
 11391      20636173 
 11391      65206675 
 11391      6E637469 
ARM GAS  /tmp/cceRHmPh.s 			page 221


 11391      6F6E2069 
 11392 2795 676C6528 		.ascii	"gle(&(_q), &(_uv), _an)\000"
 11392      26285F71 
 11392      292C2026 
 11392      285F7576 
 11392      292C205F 
 11393              	.LASF495:
 11394 27ad 5348545F 		.ascii	"SHT_SDLOG TRUE\000"
 11394      53444C4F 
 11394      47205452 
 11394      554500
 11395              	.LASF236:
 11396 27bc 5F5F464C 		.ascii	"__FLT32X_HAS_INFINITY__ 1\000"
 11396      54333258 
 11396      5F484153 
 11396      5F494E46 
 11396      494E4954 
 11397              	.LASF750:
 11398 27d6 5F415445 		.ascii	"_ATEXIT_SIZE 32\000"
 11398      5849545F 
 11398      53495A45 
 11398      20333200 
 11399              	.LASF285:
 11400 27e6 5F5F5553 		.ascii	"__USACCUM_MIN__ 0.0UHK\000"
 11400      41434355 
 11400      4D5F4D49 
 11400      4E5F5F20 
 11400      302E3055 
 11401              	.LASF938:
 11402 27fd 7369676E 		.ascii	"signed\000"
 11402      656400
 11403              	.LASF122:
 11404 2804 5F5F5549 		.ascii	"__UINT_LEAST64_MAX__ 0xffffffffffffffffULL\000"
 11404      4E545F4C 
 11404      45415354 
 11404      36345F4D 
 11404      41585F5F 
 11405              	.LASF105:
 11406 282f 5F5F494E 		.ascii	"__INT8_C(c) c\000"
 11406      54385F43 
 11406      28632920 
 11406      6300
 11407              	.LASF792:
 11408 283d 5F524545 		.ascii	"_REENT_MBRTOWC_STATE(ptr) ((ptr)->_new._reent._mbrt"
 11408      4E545F4D 
 11408      4252544F 
 11408      57435F53 
 11408      54415445 
 11409 2870 6F77635F 		.ascii	"owc_state)\000"
 11409      73746174 
 11409      652900
 11410              	.LASF1122:
 11411 287b 50524978 		.ascii	"PRIx16 __PRI16(x)\000"
 11411      3136205F 
 11411      5F505249 
 11411      31362878 
 11411      2900
ARM GAS  /tmp/cceRHmPh.s 			page 222


 11412              	.LASF426:
 11413 288d 5F5F4152 		.ascii	"__ARM_EABI__ 1\000"
 11413      4D5F4541 
 11413      42495F5F 
 11413      203100
 11414              	.LASF1203:
 11415 289c 50524958 		.ascii	"PRIXMAX __PRIMAX(X)\000"
 11415      4D415820 
 11415      5F5F5052 
 11415      494D4158 
 11415      28582900 
 11416              	.LASF895:
 11417 28b0 5F5F7072 		.ascii	"__printf0like(fmtarg,firstvararg) \000"
 11417      696E7466 
 11417      306C696B 
 11417      6528666D 
 11417      74617267 
 11418              	.LASF1084:
 11419 28d3 55494E54 		.ascii	"UINT64_C(c) __UINT64_C(c)\000"
 11419      36345F43 
 11419      28632920 
 11419      5F5F5549 
 11419      4E543634 
 11420              	.LASF1488:
 11421 28ed 464C4F41 		.ascii	"FLOAT_QUAT_DERIVATIVE(_qd,_r,_q) WARNING(\"FLOAT_QU"
 11421      545F5155 
 11421      41545F44 
 11421      45524956 
 11421      41544956 
 11422 291f 41545F44 		.ascii	"AT_DERIVATIVE macro is deprecated, use the lower ca"
 11422      45524956 
 11422      41544956 
 11422      45206D61 
 11422      63726F20 
 11423 2952 73652066 		.ascii	"se function instead\") float_quat_derivative(&(_qd)"
 11423      756E6374 
 11423      696F6E20 
 11423      696E7374 
 11423      65616422 
 11424 2984 2C202628 		.ascii	", &(_r), &(_q))\000"
 11424      5F72292C 
 11424      2026285F 
 11424      71292900 
 11425              	.LASF202:
 11426 2994 5F5F464C 		.ascii	"__FLT32_EPSILON__ 1.1920928955078125e-7F32\000"
 11426      5433325F 
 11426      45505349 
 11426      4C4F4E5F 
 11426      5F20312E 
 11427              	.LASF992:
 11428 29bf 494E545F 		.ascii	"INT_LEAST8_MAX __INT_LEAST8_MAX__\000"
 11428      4C454153 
 11428      54385F4D 
 11428      4158205F 
 11428      5F494E54 
 11429              	.LASF1225:
 11430 29e1 66616C73 		.ascii	"false 0\000"
ARM GAS  /tmp/cceRHmPh.s 			page 223


 11430      65203000 
 11431              	.LASF149:
 11432 29e9 5F5F464C 		.ascii	"__FLT_MAX_EXP__ 128\000"
 11432      545F4D41 
 11432      585F4558 
 11432      505F5F20 
 11432      31323800 
 11433              	.LASF1123:
 11434 29fd 50524958 		.ascii	"PRIX16 __PRI16(X)\000"
 11434      3136205F 
 11434      5F505249 
 11434      31362858 
 11434      2900
 11435              	.LASF99:
 11436 2a0f 5F5F494E 		.ascii	"__INT64_MAX__ 0x7fffffffffffffffLL\000"
 11436      5436345F 
 11436      4D41585F 
 11436      5F203078 
 11436      37666666 
 11437              	.LASF839:
 11438 2a32 5F5F4343 		.ascii	"__CC_SUPPORTS___INLINE 1\000"
 11438      5F535550 
 11438      504F5254 
 11438      535F5F5F 
 11438      494E4C49 
 11439              	.LASF10:
 11440 2a4b 5F5F4154 		.ascii	"__ATOMIC_SEQ_CST 5\000"
 11440      4F4D4943 
 11440      5F534551 
 11440      5F435354 
 11440      203500
 11441              	.LASF1363:
 11442 2a5e 56454354 		.ascii	"VECT3_DIFF(_c,_a,_b) { (_c).x = (_a).x - (_b).x; (_"
 11442      335F4449 
 11442      4646285F 
 11442      632C5F61 
 11442      2C5F6229 
 11443 2a91 63292E79 		.ascii	"c).y = (_a).y - (_b).y; (_c).z = (_a).z - (_b).z; }"
 11443      203D2028 
 11443      5F61292E 
 11443      79202D20 
 11443      285F6229 
 11444 2ac4 00       		.ascii	"\000"
 11445              	.LASF743:
 11446 2ac5 5F5F6C6F 		.ascii	"__lock_close_recursive(lock) ((void) 0)\000"
 11446      636B5F63 
 11446      6C6F7365 
 11446      5F726563 
 11446      75727369 
 11447              	.LASF505:
 11448 2aed 5553455F 		.ascii	"USE_COMMANDS 1\000"
 11448      434F4D4D 
 11448      414E4453 
 11448      203100
 11449              	.LASF774:
 11450 2afc 5F524545 		.ascii	"_REENT_CHECK_SIGNAL_BUF(ptr) \000"
 11450      4E545F43 
ARM GAS  /tmp/cceRHmPh.s 			page 224


 11450      4845434B 
 11450      5F534947 
 11450      4E414C5F 
 11451              	.LASF1486:
 11452 2b1a 464C4F41 		.ascii	"FLOAT_QUAT_INTEGRATE(_q,_omega,_dt) WARNING(\"FLOAT"
 11452      545F5155 
 11452      41545F49 
 11452      4E544547 
 11452      52415445 
 11453 2b4c 5F515541 		.ascii	"_QUAT_INTEGRATE macro is deprecated, use the lower "
 11453      545F494E 
 11453      54454752 
 11453      41544520 
 11453      6D616372 
 11454 2b7f 63617365 		.ascii	"case function instead\") float_quat_integrate(&(_q)"
 11454      2066756E 
 11454      6374696F 
 11454      6E20696E 
 11454      73746561 
 11455 2bb1 2C202628 		.ascii	", &(_omega), _dt)\000"
 11455      5F6F6D65 
 11455      6761292C 
 11455      205F6474 
 11455      2900
 11456              	.LASF227:
 11457 2bc3 5F5F464C 		.ascii	"__FLT32X_MAX_EXP__ 1024\000"
 11457      54333258 
 11457      5F4D4158 
 11457      5F455850 
 11457      5F5F2031 
 11458              	.LASF842:
 11459 2bdb 5F5F4343 		.ascii	"__CC_SUPPORTS_WARNING 1\000"
 11459      5F535550 
 11459      504F5254 
 11459      535F5741 
 11459      524E494E 
 11460              	.LASF192:
 11461 2bf3 5F5F464C 		.ascii	"__FLT32_MANT_DIG__ 24\000"
 11461      5433325F 
 11461      4D414E54 
 11461      5F444947 
 11461      5F5F2032 
 11462              	.LASF61:
 11463 2c09 5F5F5549 		.ascii	"__UINT_FAST8_TYPE__ unsigned int\000"
 11463      4E545F46 
 11463      41535438 
 11463      5F545950 
 11463      455F5F20 
 11464              	.LASF352:
 11465 2c2a 5F5F5554 		.ascii	"__UTA_FBIT__ 64\000"
 11465      415F4642 
 11465      49545F5F 
 11465      20363400 
 11466              	.LASF162:
 11467 2c3a 5F5F4442 		.ascii	"__DBL_DIG__ 15\000"
 11467      4C5F4449 
 11467      475F5F20 
ARM GAS  /tmp/cceRHmPh.s 			page 225


 11467      313500
 11468              	.LASF1040:
 11469 2c49 494E5450 		.ascii	"INTPTR_MAX __INTPTR_MAX__\000"
 11469      54525F4D 
 11469      4158205F 
 11469      5F494E54 
 11469      5054525F 
 11470              	.LASF716:
 11471 2c63 5F5F4558 		.ascii	"__EXP(x) __ ##x ##__\000"
 11471      50287829 
 11471      205F5F20 
 11471      23237820 
 11471      23235F5F 
 11472              	.LASF182:
 11473 2c78 5F5F4445 		.ascii	"__DECIMAL_DIG__ 17\000"
 11473      43494D41 
 11473      4C5F4449 
 11473      475F5F20 
 11473      313700
 11474              	.LASF1023:
 11475 2c8b 494E545F 		.ascii	"INT_FAST16_MIN\000"
 11475      46415354 
 11475      31365F4D 
 11475      494E00
 11476              	.LASF1016:
 11477 2c9a 494E545F 		.ascii	"INT_FAST8_MAX __INT_FAST8_MAX__\000"
 11477      46415354 
 11477      385F4D41 
 11477      58205F5F 
 11477      494E545F 
 11478              	.LASF811:
 11479 2cba 5F5F6C6F 		.ascii	"__long_double_t long double\000"
 11479      6E675F64 
 11479      6F75626C 
 11479      655F7420 
 11479      6C6F6E67 
 11480              	.LASF1366:
 11481 2cd6 56454354 		.ascii	"VECT3_STRIM(_v,_min,_max) { (_v).x = (_v).x < _min "
 11481      335F5354 
 11481      52494D28 
 11481      5F762C5F 
 11481      6D696E2C 
 11482 2d09 3F205F6D 		.ascii	"? _min : (_v).x > _max ? _max : (_v).x; (_v).y = (_"
 11482      696E203A 
 11482      20285F76 
 11482      292E7820 
 11482      3E205F6D 
 11483 2d3c 76292E79 		.ascii	"v).y < _min ? _min : (_v).y > _max ? _max : (_v).y;"
 11483      203C205F 
 11483      6D696E20 
 11483      3F205F6D 
 11483      696E203A 
 11484 2d6f 20285F76 		.ascii	" (_v).z = (_v).z < _min ? _min : (_v).z > _max ? _m"
 11484      292E7A20 
 11484      3D20285F 
 11484      76292E7A 
 11484      203C205F 
ARM GAS  /tmp/cceRHmPh.s 			page 226


 11485 2da2 6178203A 		.ascii	"ax : (_v).z; }\000"
 11485      20285F76 
 11485      292E7A3B 
 11485      207D00
 11486              	.LASF1429:
 11487 2db1 51554154 		.ascii	"QUAT_FLOAT_OF_BFP(_qf,_qi) { (_qf).qi = QUAT1_FLOAT"
 11487      5F464C4F 
 11487      41545F4F 
 11487      465F4246 
 11487      50285F71 
 11488 2de4 5F4F465F 		.ascii	"_OF_BFP((_qi).qi); (_qf).qx = QUAT1_FLOAT_OF_BFP((_"
 11488      42465028 
 11488      285F7169 
 11488      292E7169 
 11488      293B2028 
 11489 2e17 7169292E 		.ascii	"qi).qx); (_qf).qy = QUAT1_FLOAT_OF_BFP((_qi).qy); ("
 11489      7178293B 
 11489      20285F71 
 11489      66292E71 
 11489      79203D20 
 11490 2e4a 5F716629 		.ascii	"_qf).qz = QUAT1_FLOAT_OF_BFP((_qi).qz); }\000"
 11490      2E717A20 
 11490      3D205155 
 11490      4154315F 
 11490      464C4F41 
 11491              	.LASF908:
 11492 2e74 5F5F4445 		.ascii	"__DEQUALIFY(type,var) ((type)(__uintptr_t)(const vo"
 11492      5155414C 
 11492      49465928 
 11492      74797065 
 11492      2C766172 
 11493 2ea7 6C617469 		.ascii	"latile void *)(var))\000"
 11493      6C652076 
 11493      6F696420 
 11493      2A292876 
 11493      61722929 
 11494              	.LASF820:
 11495 2ebc 5F5F6861 		.ascii	"__has_feature(x) 0\000"
 11495      735F6665 
 11495      61747572 
 11495      65287829 
 11495      203000
 11496              	.LASF538:
 11497 2ecf 464C545F 		.ascii	"FLT_MANT_DIG __FLT_MANT_DIG__\000"
 11497      4D414E54 
 11497      5F444947 
 11497      205F5F46 
 11497      4C545F4D 
 11498              	.LASF761:
 11499 2eed 5F524545 		.ascii	"_REENT_EMERGENCY_SIZE 25\000"
 11499      4E545F45 
 11499      4D455247 
 11499      454E4359 
 11499      5F53495A 
 11500              	.LASF353:
 11501 2f06 5F5F5554 		.ascii	"__UTA_IBIT__ 64\000"
 11501      415F4942 
ARM GAS  /tmp/cceRHmPh.s 			page 227


 11501      49545F5F 
 11501      20363400 
 11502              	.LASF140:
 11503 2f16 5F5F4743 		.ascii	"__GCC_IEC_559_COMPLEX 0\000"
 11503      435F4945 
 11503      435F3535 
 11503      395F434F 
 11503      4D504C45 
 11504              	.LASF1083:
 11505 2f2e 55494E54 		.ascii	"UINT64_C\000"
 11505      36345F43 
 11505      00
 11506              	.LASF1458:
 11507 2f37 464C4F41 		.ascii	"FLOAT_RMAT_NORM(_m) WARNING(\"FLOAT_RMAT_NORM macro"
 11507      545F524D 
 11507      41545F4E 
 11507      4F524D28 
 11507      5F6D2920 
 11508 2f69 20697320 		.ascii	" is deprecated, use the lower case function instead"
 11508      64657072 
 11508      65636174 
 11508      65642C20 
 11508      75736520 
 11509 2f9c 22292066 		.ascii	"\") float_rmat_norm(&(_m))\000"
 11509      6C6F6174 
 11509      5F726D61 
 11509      745F6E6F 
 11509      726D2826 
 11510              	.LASF279:
 11511 2fb6 5F5F5341 		.ascii	"__SACCUM_IBIT__ 8\000"
 11511      4343554D 
 11511      5F494249 
 11511      545F5F20 
 11511      3800
 11512              	.LASF1548:
 11513 2fc8 6C74705F 		.ascii	"ltp_of_ecef\000"
 11513      6F665F65 
 11513      63656600 
 11514              	.LASF1448:
 11515 2fd4 464C4F41 		.ascii	"FLOAT_RATES_ZERO(_r) { RATES_ASSIGN(_r, 0., 0., 0.)"
 11515      545F5241 
 11515      5445535F 
 11515      5A45524F 
 11515      285F7229 
 11516 3007 3B207D00 		.ascii	"; }\000"
 11517              	.LASF259:
 11518 300b 5F5F4C46 		.ascii	"__LFRACT_IBIT__ 0\000"
 11518      52414354 
 11518      5F494249 
 11518      545F5F20 
 11518      3000
 11519              	.LASF1151:
 11520 301d 5F5F5052 		.ascii	"__PRI32(x) __INT32 __STRINGIFY(x)\000"
 11520      49333228 
 11520      7829205F 
 11520      5F494E54 
 11520      3332205F 
ARM GAS  /tmp/cceRHmPh.s 			page 228


 11521              	.LASF355:
 11522 303f 5F5F5553 		.ascii	"__USER_LABEL_PREFIX__ \000"
 11522      45525F4C 
 11522      4142454C 
 11522      5F505245 
 11522      4649585F 
 11523              	.LASF812:
 11524 3056 5F5F6174 		.ascii	"__attribute_malloc__ \000"
 11524      74726962 
 11524      7574655F 
 11524      6D616C6C 
 11524      6F635F5F 
 11525              	.LASF682:
 11526 306c 5F53495A 		.ascii	"_SIZE_T_DECLARED \000"
 11526      455F545F 
 11526      4445434C 
 11526      41524544 
 11526      2000
 11527              	.LASF1559:
 11528 307e 636F735F 		.ascii	"cos_z_im\000"
 11528      7A5F696D 
 11528      00
 11529              	.LASF785:
 11530 3087 5F524545 		.ascii	"_REENT_TM(ptr) (&(ptr)->_new._reent._localtime_buf)"
 11530      4E545F54 
 11530      4D287074 
 11530      72292028 
 11530      26287074 
 11531 30ba 00       		.ascii	"\000"
 11532              	.LASF986:
 11533 30bb 494E5436 		.ascii	"INT64_MAX __INT64_MAX__\000"
 11533      345F4D41 
 11533      58205F5F 
 11533      494E5436 
 11533      345F4D41 
 11534              	.LASF648:
 11535 30d3 5F424547 		.ascii	"_BEGIN_STD_C \000"
 11535      494E5F53 
 11535      54445F43 
 11535      2000
 11536              	.LASF319:
 11537 30e1 5F5F5151 		.ascii	"__QQ_IBIT__ 0\000"
 11537      5F494249 
 11537      545F5F20 
 11537      3000
 11538              	.LASF1245:
 11539 30ef 69736669 		.ascii	"isfinite(__x) (__builtin_isfinite (__x))\000"
 11539      6E697465 
 11539      285F5F78 
 11539      2920285F 
 11539      5F627569 
 11540              	.LASF1414:
 11541 3118 51554154 		.ascii	"QUAT_ADD(_qo,_qi) { (_qo).qi += (_qi).qi; (_qo).qx "
 11541      5F414444 
 11541      285F716F 
 11541      2C5F7169 
 11541      29207B20 
ARM GAS  /tmp/cceRHmPh.s 			page 229


 11542 314b 2B3D2028 		.ascii	"+= (_qi).qx; (_qo).qy += (_qi).qy; (_qo).qz += (_qi"
 11542      5F716929 
 11542      2E71783B 
 11542      20285F71 
 11542      6F292E71 
 11543 317e 292E717A 		.ascii	").qz; }\000"
 11543      3B207D00 
 11544              	.LASF1013:
 11545 3186 55494E54 		.ascii	"UINT_LEAST64_MAX\000"
 11545      5F4C4541 
 11545      53543634 
 11545      5F4D4158 
 11545      00
 11546              	.LASF906:
 11547 3197 5F5F4445 		.ascii	"__DECONST(type,var) ((type)(__uintptr_t)(const void"
 11547      434F4E53 
 11547      54287479 
 11547      70652C76 
 11547      61722920 
 11548 31ca 202A2928 		.ascii	" *)(var))\000"
 11548      76617229 
 11548      2900
 11549              	.LASF516:
 11550 31d4 5448554D 		.ascii	"THUMB_NO_INTERWORKING 1\000"
 11550      425F4E4F 
 11550      5F494E54 
 11550      4552574F 
 11550      524B494E 
 11551              	.LASF170:
 11552 31ec 5F5F4442 		.ascii	"__DBL_MIN__ ((double)2.2250738585072014e-308L)\000"
 11552      4C5F4D49 
 11552      4E5F5F20 
 11552      2828646F 
 11552      75626C65 
 11553              	.LASF732:
 11554 321b 5F54494D 		.ascii	"_TIME_T_ __int_least64_t\000"
 11554      455F545F 
 11554      205F5F69 
 11554      6E745F6C 
 11554      65617374 
 11555              	.LASF124:
 11556 3234 5F5F494E 		.ascii	"__INT_FAST8_MAX__ 0x7fffffff\000"
 11556      545F4641 
 11556      5354385F 
 11556      4D41585F 
 11556      5F203078 
 11557              	.LASF410:
 11558 3251 5F5F4152 		.ascii	"__ARMEL__ 1\000"
 11558      4D454C5F 
 11558      5F203100 
 11559              	.LASF690:
 11560 325d 5F574348 		.ascii	"_WCHAR_T \000"
 11560      41525F54 
 11560      2000
 11561              	.LASF574:
 11562 3267 464C545F 		.ascii	"FLT_MAX __FLT_MAX__\000"
 11562      4D415820 
ARM GAS  /tmp/cceRHmPh.s 			page 230


 11562      5F5F464C 
 11562      545F4D41 
 11562      585F5F00 
 11563              	.LASF125:
 11564 327b 5F5F494E 		.ascii	"__INT_FAST8_WIDTH__ 32\000"
 11564      545F4641 
 11564      5354385F 
 11564      57494454 
 11564      485F5F20 
 11565              	.LASF454:
 11566 3292 43485F44 		.ascii	"CH_DBG_ENABLE_CHECKS TRUE\000"
 11566      42475F45 
 11566      4E41424C 
 11566      455F4348 
 11566      45434B53 
 11567              	.LASF451:
 11568 32ac 4241524F 		.ascii	"BARO_PERIODIC_FREQUENCY 50\000"
 11568      5F504552 
 11568      494F4449 
 11568      435F4652 
 11568      45515545 
 11569              	.LASF184:
 11570 32c7 5F5F4C44 		.ascii	"__LDBL_MAX__ 1.7976931348623157e+308L\000"
 11570      424C5F4D 
 11570      41585F5F 
 11570      20312E37 
 11570      39373639 
 11571              	.LASF1027:
 11572 32ed 494E545F 		.ascii	"INT_FAST32_MAX\000"
 11572      46415354 
 11572      33325F4D 
 11572      415800
 11573              	.LASF1504:
 11574 32fc 444F5542 		.ascii	"DOUBLE_RMAT_OF_EULERS_321(_rm,_e) WARNING(\"DOUBLE_"
 11574      4C455F52 
 11574      4D41545F 
 11574      4F465F45 
 11574      554C4552 
 11575 332e 524D4154 		.ascii	"RMAT_OF_EULERS_321 macro is deprecated, use the low"
 11575      5F4F465F 
 11575      45554C45 
 11575      52535F33 
 11575      3231206D 
 11576 3361 65722063 		.ascii	"er case function instead\") double_rmat_of_eulers(&"
 11576      61736520 
 11576      66756E63 
 11576      74696F6E 
 11576      20696E73 
 11577 3393 285F726D 		.ascii	"(_rm), &(_e))\000"
 11577      292C2026 
 11577      285F6529 
 11577      2900
 11578              	.LASF416:
 11579 33a1 5F5F4152 		.ascii	"__ARM_FP16_ARGS\000"
 11579      4D5F4650 
 11579      31365F41 
 11579      52475300 
ARM GAS  /tmp/cceRHmPh.s 			page 231


 11580              	.LASF194:
 11581 33b1 5F5F464C 		.ascii	"__FLT32_MIN_EXP__ (-125)\000"
 11581      5433325F 
 11581      4D494E5F 
 11581      4558505F 
 11581      5F20282D 
 11582              	.LASF443:
 11583 33ca 5553455F 		.ascii	"USE_ADC_WATCHDOG 1\000"
 11583      4144435F 
 11583      57415443 
 11583      48444F47 
 11583      203100
 11584              	.LASF270:
 11585 33dd 5F5F4C4C 		.ascii	"__LLFRACT_MIN__ (-0.5LLR-0.5LLR)\000"
 11585      46524143 
 11585      545F4D49 
 11585      4E5F5F20 
 11585      282D302E 
 11586              	.LASF1120:
 11587 33fe 5052496F 		.ascii	"PRIo16 __PRI16(o)\000"
 11587      3136205F 
 11587      5F505249 
 11587      3136286F 
 11587      2900
 11588              	.LASF178:
 11589 3410 5F5F4C44 		.ascii	"__LDBL_MIN_EXP__ (-1021)\000"
 11589      424C5F4D 
 11589      494E5F45 
 11589      58505F5F 
 11589      20282D31 
 11590              	.LASF164:
 11591 3429 5F5F4442 		.ascii	"__DBL_MIN_10_EXP__ (-307)\000"
 11591      4C5F4D49 
 11591      4E5F3130 
 11591      5F455850 
 11591      5F5F2028 
 11592              	.LASF1161:
 11593 3443 50524978 		.ascii	"PRIx32 __PRI32(x)\000"
 11593      3332205F 
 11593      5F505249 
 11593      33322878 
 11593      2900
 11594              	.LASF1273:
 11595 3455 4D5F5457 		.ascii	"M_TWOPI (M_PI * 2.0)\000"
 11595      4F504920 
 11595      284D5F50 
 11595      49202A20 
 11595      322E3029 
 11596              	.LASF1418:
 11597 346a 51554154 		.ascii	"QUAT_DOT_PRODUCT(_qa,_qb) ((_qa).qi * (_qb).qi + (_"
 11597      5F444F54 
 11597      5F50524F 
 11597      44554354 
 11597      285F7161 
 11598 349d 7161292E 		.ascii	"qa).qx * (_qb).qx + (_qa).qy * (_qb).qy + (_qa).qz "
 11598      7178202A 
 11598      20285F71 
ARM GAS  /tmp/cceRHmPh.s 			page 232


 11598      62292E71 
 11598      78202B20 
 11599 34d0 2A20285F 		.ascii	"* (_qb).qz)\000"
 11599      7162292E 
 11599      717A2900 
 11600              	.LASF255:
 11601 34dc 5F5F5546 		.ascii	"__UFRACT_MIN__ 0.0UR\000"
 11601      52414354 
 11601      5F4D494E 
 11601      5F5F2030 
 11601      2E305552 
 11602              	.LASF948:
 11603 34f1 5F5F696E 		.ascii	"__int20 +2\000"
 11603      74323020 
 11603      2B3200
 11604              	.LASF667:
 11605 34fc 5F474343 		.ascii	"_GCC_PTRDIFF_T \000"
 11605      5F505452 
 11605      44494646 
 11605      5F542000 
 11606              	.LASF148:
 11607 350c 5F5F464C 		.ascii	"__FLT_MIN_10_EXP__ (-37)\000"
 11607      545F4D49 
 11607      4E5F3130 
 11607      5F455850 
 11607      5F5F2028 
 11608              	.LASF1010:
 11609 3525 494E545F 		.ascii	"INT_LEAST64_MAX __INT_LEAST64_MAX__\000"
 11609      4C454153 
 11609      5436345F 
 11609      4D415820 
 11609      5F5F494E 
 11610              	.LASF547:
 11611 3549 464C545F 		.ascii	"FLT_MIN_EXP\000"
 11611      4D494E5F 
 11611      45585000 
 11612              	.LASF335:
 11613 3555 5F5F5544 		.ascii	"__UDQ_IBIT__ 0\000"
 11613      515F4942 
 11613      49545F5F 
 11613      203000
 11614              	.LASF1474:
 11615 3564 464C4F41 		.ascii	"FLOAT_QUAT_INVERT(_qo,_qi) WARNING(\"FLOAT_QUAT_INV"
 11615      545F5155 
 11615      41545F49 
 11615      4E564552 
 11615      54285F71 
 11616 3596 45525420 		.ascii	"ERT macro is deprecated, use the lower case functio"
 11616      6D616372 
 11616      6F206973 
 11616      20646570 
 11616      72656361 
 11617 35c9 6E20696E 		.ascii	"n instead\") float_quat_invert(&(_qo), &(_qi))\000"
 11617      73746561 
 11617      64222920 
 11617      666C6F61 
 11617      745F7175 
ARM GAS  /tmp/cceRHmPh.s 			page 233


 11618              	.LASF161:
 11619 35f7 5F5F4442 		.ascii	"__DBL_MANT_DIG__ 53\000"
 11619      4C5F4D41 
 11619      4E545F44 
 11619      49475F5F 
 11619      20353300 
 11620              	.LASF1143:
 11621 360b 50524975 		.ascii	"PRIuFAST16 __PRI16FAST(u)\000"
 11621      46415354 
 11621      3136205F 
 11621      5F505249 
 11621      31364641 
 11622              	.LASF86:
 11623 3625 5F5F5054 		.ascii	"__PTRDIFF_WIDTH__ 32\000"
 11623      52444946 
 11623      465F5749 
 11623      4454485F 
 11623      5F203332 
 11624              	.LASF901:
 11625 363a 5F5F4642 		.ascii	"__FBSDID(s) struct __hack\000"
 11625      53444944 
 11625      28732920 
 11625      73747275 
 11625      6374205F 
 11626              	.LASF1512:
 11627 3654 44454C54 		.ascii	"DELTA_NORTH 0.\000"
 11627      415F4E4F 
 11627      52544820 
 11627      302E00
 11628              	.LASF1174:
 11629 3663 53434E64 		.ascii	"SCNdLEAST32 __SCN32LEAST(d)\000"
 11629      4C454153 
 11629      54333220 
 11629      5F5F5343 
 11629      4E33324C 
 11630              	.LASF315:
 11631 367f 5F5F554C 		.ascii	"__ULLACCUM_MIN__ 0.0ULLK\000"
 11631      4C414343 
 11631      554D5F4D 
 11631      494E5F5F 
 11631      20302E30 
 11632              	.LASF700:
 11633 3698 5F5F494E 		.ascii	"__INT_WCHAR_T_H \000"
 11633      545F5743 
 11633      4841525F 
 11633      545F4820 
 11633      00
 11634              	.LASF916:
 11635 36a9 5F5F6C6F 		.ascii	"__lock_annotate(x) \000"
 11635      636B5F61 
 11635      6E6E6F74 
 11635      61746528 
 11635      78292000 
 11636              	.LASF485:
 11637 36bd 5050525A 		.ascii	"PPRZ_UART uart1\000"
 11637      5F554152 
 11637      54207561 
ARM GAS  /tmp/cceRHmPh.s 			page 234


 11637      72743100 
 11638              	.LASF1033:
 11639 36cd 494E545F 		.ascii	"INT_FAST64_MAX\000"
 11639      46415354 
 11639      36345F4D 
 11639      415800
 11640              	.LASF1218:
 11641 36dc 53434E69 		.ascii	"SCNiPTR __SCNPTR(i)\000"
 11641      50545220 
 11641      5F5F5343 
 11641      4E505452 
 11641      28692900 
 11642              	.LASF1264:
 11643 36f0 4D5F4C4E 		.ascii	"M_LN10 2.30258509299404568402\000"
 11643      31302032 
 11643      2E333032 
 11643      35383530 
 11643      39323939 
 11644              	.LASF1185:
 11645 370e 53434E64 		.ascii	"SCNdFAST32 __SCN32FAST(d)\000"
 11645      46415354 
 11645      3332205F 
 11645      5F53434E 
 11645      33324641 
 11646              	.LASF625:
 11647 3728 5F504F53 		.ascii	"_POSIX_SOURCE\000"
 11647      49585F53 
 11647      4F555243 
 11647      4500
 11648              	.LASF1547:
 11649 3736 65636566 		.ascii	"ecef\000"
 11649      00
 11650              	.LASF686:
 11651 373b 5F5F7369 		.ascii	"__size_t \000"
 11651      7A655F74 
 11651      2000
 11652              	.LASF75:
 11653 3745 5F5F5749 		.ascii	"__WINT_MAX__ 0xffffffffU\000"
 11653      4E545F4D 
 11653      41585F5F 
 11653      20307866 
 11653      66666666 
 11654              	.LASF20:
 11655 375e 5F5F5349 		.ascii	"__SIZEOF_FLOAT__ 4\000"
 11655      5A454F46 
 11655      5F464C4F 
 11655      41545F5F 
 11655      203400
 11656              	.LASF1228:
 11657 3771 5F4D5F4C 		.ascii	"_M_LN2 0.693147180559945309417\000"
 11657      4E322030 
 11657      2E363933 
 11657      31343731 
 11657      38303535 
 11658              	.LASF1426:
 11659 3790 45554C45 		.ascii	"EULERS_BFP_OF_REAL(_ei,_ef) { (_ei).phi = ANGLE_BFP"
 11659      52535F42 
ARM GAS  /tmp/cceRHmPh.s 			page 235


 11659      46505F4F 
 11659      465F5245 
 11659      414C285F 
 11660 37c3 5F4F465F 		.ascii	"_OF_REAL((_ef).phi); (_ei).theta = ANGLE_BFP_OF_REA"
 11660      5245414C 
 11660      28285F65 
 11660      66292E70 
 11660      6869293B 
 11661 37f6 4C28285F 		.ascii	"L((_ef).theta); (_ei).psi = ANGLE_BFP_OF_REAL((_ef)"
 11661      6566292E 
 11661      74686574 
 11661      61293B20 
 11661      285F6569 
 11662 3829 2E707369 		.ascii	".psi); }\000"
 11662      293B207D 
 11662      00
 11663              	.LASF415:
 11664 3832 5F5F4152 		.ascii	"__ARM_FP16_FORMAT_ALTERNATIVE\000"
 11664      4D5F4650 
 11664      31365F46 
 11664      4F524D41 
 11664      545F414C 
 11665              	.LASF1452:
 11666 3850 464C4F41 		.ascii	"FLOAT_RATES_INTEGRATE_FI(_ra,_racc,_dt) WARNING(\"F"
 11666      545F5241 
 11666      5445535F 
 11666      494E5445 
 11666      47524154 
 11667 3882 4C4F4154 		.ascii	"LOAT_RATES_INTEGRATE_FI macro is deprecated, use th"
 11667      5F524154 
 11667      45535F49 
 11667      4E544547 
 11667      52415445 
 11668 38b5 65206C6F 		.ascii	"e lower case function instead\") float_rates_integr"
 11668      77657220 
 11668      63617365 
 11668      2066756E 
 11668      6374696F 
 11669 38e7 6174655F 		.ascii	"ate_fi(&(_ra), &(_racc), _dt)\000"
 11669      66692826 
 11669      285F7261 
 11669      292C2026 
 11669      285F7261 
 11670              	.LASF1449:
 11671 3905 464C4F41 		.ascii	"FLOAT_RATES_NORM(_v) (sqrtf((_v).p*(_v).p + (_v).q*"
 11671      545F5241 
 11671      5445535F 
 11671      4E4F524D 
 11671      285F7629 
 11672 3938 285F7629 		.ascii	"(_v).q + (_v).r*(_v).r))\000"
 11672      2E71202B 
 11672      20285F76 
 11672      292E722A 
 11672      285F7629 
 11673              	.LASF1170:
 11674 3951 5052496F 		.ascii	"PRIoLEAST32 __PRI32LEAST(o)\000"
 11674      4C454153 
ARM GAS  /tmp/cceRHmPh.s 			page 236


 11674      54333220 
 11674      5F5F5052 
 11674      4933324C 
 11675              	.LASF1043:
 11676 396d 55494E54 		.ascii	"UINTPTR_MAX\000"
 11676      5054525F 
 11676      4D415800 
 11677              	.LASF1307:
 11678 3979 436C6561 		.ascii	"ClearBit(a,n) a &= ~(1 << n)\000"
 11678      72426974 
 11678      28612C6E 
 11678      29206120 
 11678      263D207E 
 11679              	.LASF1074:
 11680 3996 494E5433 		.ascii	"INT32_C(c) __INT32_C(c)\000"
 11680      325F4328 
 11680      6329205F 
 11680      5F494E54 
 11680      33325F43 
 11681              	.LASF371:
 11682 39ae 5F5F4743 		.ascii	"__GCC_ATOMIC_TEST_AND_SET_TRUEVAL 1\000"
 11682      435F4154 
 11682      4F4D4943 
 11682      5F544553 
 11682      545F414E 
 11683              	.LASF47:
 11684 39d2 5F5F5549 		.ascii	"__UINT32_TYPE__ long unsigned int\000"
 11684      4E543332 
 11684      5F545950 
 11684      455F5F20 
 11684      6C6F6E67 
 11685              	.LASF155:
 11686 39f4 5F5F464C 		.ascii	"__FLT_EPSILON__ 1.1920928955078125e-7F\000"
 11686      545F4550 
 11686      53494C4F 
 11686      4E5F5F20 
 11686      312E3139 
 11687              	.LASF826:
 11688 3a1b 5F5F474E 		.ascii	"__GNUCLIKE___OFFSETOF 1\000"
 11688      55434C49 
 11688      4B455F5F 
 11688      5F4F4646 
 11688      5345544F 
 11689              	.LASF1154:
 11690 3a33 5F5F5343 		.ascii	"__SCN32LEAST(x) __LEAST32 __STRINGIFY(x)\000"
 11690      4E33324C 
 11690      45415354 
 11690      28782920 
 11690      5F5F4C45 
 11691              	.LASF1246:
 11692 3a5c 6973696E 		.ascii	"isinf(__x) (__builtin_isinf_sign (__x))\000"
 11692      66285F5F 
 11692      78292028 
 11692      5F5F6275 
 11692      696C7469 
 11693              	.LASF1292:
 11694 3a84 544F444F 		.ascii	"TODO(x) DO_PRAGMA(message (\"TODO - \" x))\000"
ARM GAS  /tmp/cceRHmPh.s 			page 237


 11694      28782920 
 11694      444F5F50 
 11694      5241474D 
 11694      41286D65 
 11695              	.LASF117:
 11696 3aad 5F5F5549 		.ascii	"__UINT8_C(c) c\000"
 11696      4E54385F 
 11696      43286329 
 11696      206300
 11697              	.LASF838:
 11698 3abc 5F5F4343 		.ascii	"__CC_SUPPORTS_INLINE 1\000"
 11698      5F535550 
 11698      504F5254 
 11698      535F494E 
 11698      4C494E45 
 11699              	.LASF1503:
 11700 3ad3 444F5542 		.ascii	"DOUBLE_RMAT_OF_EULERS(_rm,_e) WARNING(\"DOUBLE_RMAT"
 11700      4C455F52 
 11700      4D41545F 
 11700      4F465F45 
 11700      554C4552 
 11701 3b05 5F4F465F 		.ascii	"_OF_EULERS macro is deprecated, use the lower case "
 11701      45554C45 
 11701      5253206D 
 11701      6163726F 
 11701      20697320 
 11702 3b38 66756E63 		.ascii	"function instead\") double_rmat_of_eulers(&(_rm), &"
 11702      74696F6E 
 11702      20696E73 
 11702      74656164 
 11702      22292064 
 11703 3b6a 285F6529 		.ascii	"(_e))\000"
 11703      2900
 11704              	.LASF394:
 11705 3b70 5F5F4152 		.ascii	"__ARM_FEATURE_NUMERIC_MAXMIN\000"
 11705      4D5F4645 
 11705      41545552 
 11705      455F4E55 
 11705      4D455249 
 11706              	.LASF964:
 11707 3b8d 5F5F4C45 		.ascii	"__LEAST32 \"l\"\000"
 11707      41535433 
 11707      3220226C 
 11707      2200
 11708              	.LASF1453:
 11709 3b9b 464C4F41 		.ascii	"FLOAT_RATES_OF_EULER_DOT(_ra,_e,_ed) WARNING(\"FLOA"
 11709      545F5241 
 11709      5445535F 
 11709      4F465F45 
 11709      554C4552 
 11710 3bcd 545F5241 		.ascii	"T_RATES_OF_EULER_DOT macro is deprecated, use the l"
 11710      5445535F 
 11710      4F465F45 
 11710      554C4552 
 11710      5F444F54 
 11711 3c00 6F776572 		.ascii	"ower case function instead\") float_rates_of_euler_"
 11711      20636173 
ARM GAS  /tmp/cceRHmPh.s 			page 238


 11711      65206675 
 11711      6E637469 
 11711      6F6E2069 
 11712 3c32 646F7428 		.ascii	"dot(&(_ra), &(_e), &(_ed))\000"
 11712      26285F72 
 11712      61292C20 
 11712      26285F65 
 11712      292C2026 
 11713              	.LASF1070:
 11714 3c4d 494E5438 		.ascii	"INT8_C(c) __INT8_C(c)\000"
 11714      5F432863 
 11714      29205F5F 
 11714      494E5438 
 11714      5F432863 
 11715              	.LASF1271:
 11716 3c63 4D5F5351 		.ascii	"M_SQRT2 1.41421356237309504880\000"
 11716      52543220 
 11716      312E3431 
 11716      34323133 
 11716      35363233 
 11717              	.LASF978:
 11718 3c82 55494E54 		.ascii	"UINT16_MAX __UINT16_MAX__\000"
 11718      31365F4D 
 11718      4158205F 
 11718      5F55494E 
 11718      5431365F 
 11719              	.LASF1580:
 11720 3c9c 65636566 		.ascii	"ecef_of_enu_vect_f\000"
 11720      5F6F665F 
 11720      656E755F 
 11720      76656374 
 11720      5F6600
 11721              	.LASF853:
 11722 3caf 5F5F7765 		.ascii	"__weak_symbol __attribute__((__weak__))\000"
 11722      616B5F73 
 11722      796D626F 
 11722      6C205F5F 
 11722      61747472 
 11723              	.LASF815:
 11724 3cd7 5F5F666C 		.ascii	"__flexarr [0]\000"
 11724      65786172 
 11724      72205B30 
 11724      5D00
 11725              	.LASF779:
 11726 3ce5 5F524545 		.ascii	"_REENT_RAND48_ADD(ptr) ((ptr)->_new._reent._r48._ad"
 11726      4E545F52 
 11726      414E4434 
 11726      385F4144 
 11726      44287074 
 11727 3d18 642900   		.ascii	"d)\000"
 11728              	.LASF88:
 11729 3d1b 5F5F494E 		.ascii	"__INTMAX_MAX__ 0x7fffffffffffffffLL\000"
 11729      544D4158 
 11729      5F4D4158 
 11729      5F5F2030 
 11729      78376666 
 11730              	.LASF275:
ARM GAS  /tmp/cceRHmPh.s 			page 239


 11731 3d3f 5F5F554C 		.ascii	"__ULLFRACT_MIN__ 0.0ULLR\000"
 11731      4C465241 
 11731      43545F4D 
 11731      494E5F5F 
 11731      20302E30 
 11732              	.LASF1311:
 11733 3d58 436C6F73 		.ascii	"CloseDegAngles(_c1,_c2) ({ float _diff = _c1 - _c2;"
 11733      65446567 
 11733      416E676C 
 11733      6573285F 
 11733      63312C5F 
 11734 3d8b 204E6F72 		.ascii	" NormCourse(_diff); 350 < _diff || _diff < 10; })\000"
 11734      6D436F75 
 11734      72736528 
 11734      5F646966 
 11734      66293B20 
 11735              	.LASF1555:
 11736 3dbd 7363616C 		.ascii	"scale\000"
 11736      6500
 11737              	.LASF459:
 11738 3dc3 43485F44 		.ascii	"CH_DBG_SYSTEM_STATE_CHECK TRUE\000"
 11738      42475F53 
 11738      59535445 
 11738      4D5F5354 
 11738      4154455F 
 11739              	.LASF413:
 11740 3de2 5F5F4152 		.ascii	"__ARM_FP 4\000"
 11740      4D5F4650 
 11740      203400
 11741              	.LASF652:
 11742 3ded 5F415454 		.ascii	"_ATTRIBUTE(attrs) __attribute__ (attrs)\000"
 11742      52494255 
 11742      54452861 
 11742      74747273 
 11742      29205F5F 
 11743              	.LASF384:
 11744 3e15 5F5F4152 		.ascii	"__ARM_FEATURE_QRDMX\000"
 11744      4D5F4645 
 11744      41545552 
 11744      455F5152 
 11744      444D5800 
 11745              	.LASF239:
 11746 3e29 5F5F5346 		.ascii	"__SFRACT_IBIT__ 0\000"
 11746      52414354 
 11746      5F494249 
 11746      545F5F20 
 11746      3000
 11747              	.LASF1472:
 11748 3e3b 464C4F41 		.ascii	"FLOAT_QUAT_EXTRACT(_vo,_qi) QUAT_EXTRACT_Q(_vo, _qi"
 11748      545F5155 
 11748      41545F45 
 11748      58545241 
 11748      4354285F 
 11749 3e6e 2900     		.ascii	")\000"
 11750              	.LASF748:
 11751 3e70 5F5F6C6F 		.ascii	"__lock_release(lock) ((void) 0)\000"
 11751      636B5F72 
ARM GAS  /tmp/cceRHmPh.s 			page 240


 11751      656C6561 
 11751      7365286C 
 11751      6F636B29 
 11752              	.LASF26:
 11753 3e90 5F5F4F52 		.ascii	"__ORDER_LITTLE_ENDIAN__ 1234\000"
 11753      4445525F 
 11753      4C495454 
 11753      4C455F45 
 11753      4E444941 
 11754              	.LASF668:
 11755 3ead 5F505452 		.ascii	"_PTRDIFF_T_DECLARED \000"
 11755      44494646 
 11755      5F545F44 
 11755      45434C41 
 11755      52454420 
 11756              	.LASF775:
 11757 3ec2 5F524545 		.ascii	"_REENT_SIGNGAM(ptr) ((ptr)->_new._reent._gamma_sign"
 11757      4E545F53 
 11757      49474E47 
 11757      414D2870 
 11757      74722920 
 11758 3ef5 67616D29 		.ascii	"gam)\000"
 11758      00
 11759              	.LASF146:
 11760 3efa 5F5F464C 		.ascii	"__FLT_DIG__ 6\000"
 11760      545F4449 
 11760      475F5F20 
 11760      3600
 11761              	.LASF1313:
 11762 3f08 4465674F 		.ascii	"DegOfRad(x) ((x) * (180. / M_PI))\000"
 11762      66526164 
 11762      28782920 
 11762      28287829 
 11762      202A2028 
 11763              	.LASF1411:
 11764 3f2a 51554154 		.ascii	"QUAT_COPY(_qo,_qi) { (_qo).qi = (_qi).qi; (_qo).qx "
 11764      5F434F50 
 11764      59285F71 
 11764      6F2C5F71 
 11764      6929207B 
 11765 3f5d 3D20285F 		.ascii	"= (_qi).qx; (_qo).qy = (_qi).qy; (_qo).qz = (_qi).q"
 11765      7169292E 
 11765      71783B20 
 11765      285F716F 
 11765      292E7179 
 11766 3f90 7A3B207D 		.ascii	"z; }\000"
 11766      00
 11767              	.LASF862:
 11768 3f95 5F5F616C 		.ascii	"__alloc_size2(n,x) __attribute__((__alloc_size__(n,"
 11768      6C6F635F 
 11768      73697A65 
 11768      32286E2C 
 11768      7829205F 
 11769 3fc8 20782929 		.ascii	" x)))\000"
 11769      2900
 11770              	.LASF958:
 11771 3fce 5F5F4641 		.ascii	"__FAST8 \000"
ARM GAS  /tmp/cceRHmPh.s 			page 241


 11771      53543820 
 11771      00
 11772              	.LASF1535:
 11773 3fd7 666C6F61 		.ascii	"float\000"
 11773      7400
 11774              	.LASF592:
 11775 3fdd 464C545F 		.ascii	"FLT_EVAL_METHOD __FLT_EVAL_METHOD__\000"
 11775      4556414C 
 11775      5F4D4554 
 11775      484F4420 
 11775      5F5F464C 
 11776              	.LASF1561:
 11777 4001 6C6C615F 		.ascii	"lla_of_utm_f\000"
 11777      6F665F75 
 11777      746D5F66 
 11777      00
 11778              	.LASF458:
 11779 400e 43485F44 		.ascii	"CH_DBG_STATISTICS TRUE\000"
 11779      42475F53 
 11779      54415449 
 11779      53544943 
 11779      53205452 
 11780              	.LASF729:
 11781 4025 756E7369 		.ascii	"unsigned signed\000"
 11781      676E6564 
 11781      20736967 
 11781      6E656400 
 11782              	.LASF525:
 11783 4035 55544D5F 		.ascii	"UTM_COPY(_u1,_u2) { (_u1).north = (_u2).north; (_u1"
 11783      434F5059 
 11783      285F7531 
 11783      2C5F7532 
 11783      29207B20 
 11784 4068 292E6561 		.ascii	").east = (_u2).east; (_u1).alt = (_u2).alt; (_u1).z"
 11784      7374203D 
 11784      20285F75 
 11784      32292E65 
 11784      6173743B 
 11785 409b 6F6E6520 		.ascii	"one = (_u2).zone; }\000"
 11785      3D20285F 
 11785      7532292E 
 11785      7A6F6E65 
 11785      3B207D00 
 11786              	.LASF118:
 11787 40af 5F5F5549 		.ascii	"__UINT_LEAST16_MAX__ 0xffff\000"
 11787      4E545F4C 
 11787      45415354 
 11787      31365F4D 
 11787      41585F5F 
 11788              	.LASF1455:
 11789 40cb 464C4F41 		.ascii	"FLOAT_MAT33_DIAG(_m,_d00,_d11,_d22) { MAT33_ELMT(_m"
 11789      545F4D41 
 11789      5433335F 
 11789      44494147 
 11789      285F6D2C 
 11790 40fe 2C20302C 		.ascii	", 0, 0) = _d00; MAT33_ELMT(_m, 0, 1) = 0.; MAT33_EL"
 11790      20302920 
ARM GAS  /tmp/cceRHmPh.s 			page 242


 11790      3D205F64 
 11790      30303B20 
 11790      4D415433 
 11791 4131 4D54285F 		.ascii	"MT(_m, 0, 2) = 0.; MAT33_ELMT(_m, 1, 0) = 0.; MAT33"
 11791      6D2C2030 
 11791      2C203229 
 11791      203D2030 
 11791      2E3B204D 
 11792 4164 5F454C4D 		.ascii	"_ELMT(_m, 1, 1) = _d11; MAT33_ELMT(_m, 1, 2) = 0.; "
 11792      54285F6D 
 11792      2C20312C 
 11792      20312920 
 11792      3D205F64 
 11793 4197 4D415433 		.ascii	"MAT33_ELMT(_m, 2, 0) = 0.; MAT33_ELMT(_m, 2, 1) = 0"
 11793      335F454C 
 11793      4D54285F 
 11793      6D2C2032 
 11793      2C203029 
 11794 41ca 2E3B204D 		.ascii	".; MAT33_ELMT(_m, 2, 2) = _d22; }\000"
 11794      41543333 
 11794      5F454C4D 
 11794      54285F6D 
 11794      2C20322C 
 11795              	.LASF87:
 11796 41ec 5F5F5349 		.ascii	"__SIZE_WIDTH__ 32\000"
 11796      5A455F57 
 11796      49445448 
 11796      5F5F2033 
 11796      3200
 11797              	.LASF884:
 11798 41fe 5F5F6E75 		.ascii	"__null_sentinel __attribute__((__sentinel__))\000"
 11798      6C6C5F73 
 11798      656E7469 
 11798      6E656C20 
 11798      5F5F6174 
 11799              	.LASF419:
 11800 422c 5F5F4152 		.ascii	"__ARM_FEATURE_FP16_FML\000"
 11800      4D5F4645 
 11800      41545552 
 11800      455F4650 
 11800      31365F46 
 11801              	.LASF787:
 11802 4243 5F524545 		.ascii	"_REENT_STRTOK_LAST(ptr) ((ptr)->_new._reent._strtok"
 11802      4E545F53 
 11802      5452544F 
 11802      4B5F4C41 
 11802      53542870 
 11803 4276 5F6C6173 		.ascii	"_last)\000"
 11803      742900
 11804              	.LASF827:
 11805 427d 5F5F474E 		.ascii	"__GNUCLIKE___SECTION 1\000"
 11805      55434C49 
 11805      4B455F5F 
 11805      5F534543 
 11805      54494F4E 
 11806              	.LASF554:
 11807 4294 44424C5F 		.ascii	"DBL_MIN_10_EXP\000"
ARM GAS  /tmp/cceRHmPh.s 			page 243


 11807      4D494E5F 
 11807      31305F45 
 11807      585000
 11808              	.LASF23:
 11809 42a3 5F5F5349 		.ascii	"__SIZEOF_SIZE_T__ 4\000"
 11809      5A454F46 
 11809      5F53495A 
 11809      455F545F 
 11809      5F203400 
 11810              	.LASF473:
 11811 42b7 4750535F 		.ascii	"GPS_UBX_UCENTER 1\000"
 11811      5542585F 
 11811      5543454E 
 11811      54455220 
 11811      3100
 11812              	.LASF1214:
 11813 42c9 50524975 		.ascii	"PRIuPTR __PRIPTR(u)\000"
 11813      50545220 
 11813      5F5F5052 
 11813      49505452 
 11813      28752900 
 11814              	.LASF85:
 11815 42dd 5F5F5749 		.ascii	"__WINT_WIDTH__ 32\000"
 11815      4E545F57 
 11815      49445448 
 11815      5F5F2033 
 11815      3200
 11816              	.LASF1544:
 11817 42ef 65617374 		.ascii	"east\000"
 11817      00
 11818              	.LASF1515:
 11819 42f4 4C616D62 		.ascii	"LambdaOfUtmZone(utm_zone) RadOfDeg((utm_zone-1)*6-1"
 11819      64614F66 
 11819      55746D5A 
 11819      6F6E6528 
 11819      75746D5F 
 11820 4327 38302B33 		.ascii	"80+3)\000"
 11820      2900
 11821              	.LASF1160:
 11822 432d 50524975 		.ascii	"PRIu32 __PRI32(u)\000"
 11822      3332205F 
 11822      5F505249 
 11822      33322875 
 11822      2900
 11823              	.LASF660:
 11824 433f 5F505452 		.ascii	"_PTRDIFF_T \000"
 11824      44494646 
 11824      5F542000 
 11825              	.LASF1286:
 11826 434b 4D455353 		.ascii	"MESSAGE_PRAGMAS_H \000"
 11826      4147455F 
 11826      50524147 
 11826      4D41535F 
 11826      482000
 11827              	.LASF470:
 11828 435e 4750535F 		.ascii	"GPS_LED 3\000"
 11828      4C454420 
ARM GAS  /tmp/cceRHmPh.s 			page 244


 11828      3300
 11829              	.LASF998:
 11830 4368 494E545F 		.ascii	"INT_LEAST16_MAX __INT_LEAST16_MAX__\000"
 11830      4C454153 
 11830      5431365F 
 11830      4D415820 
 11830      5F5F494E 
 11831              	.LASF607:
 11832 438c 48415645 		.ascii	"HAVE_INITFINI_ARRAY 1\000"
 11832      5F494E49 
 11832      5446494E 
 11832      495F4152 
 11832      52415920 
 11833              	.LASF575:
 11834 43a2 44424C5F 		.ascii	"DBL_MAX __DBL_MAX__\000"
 11834      4D415820 
 11834      5F5F4442 
 11834      4C5F4D41 
 11834      585F5F00 
 11835              	.LASF1094:
 11836 43b6 50524964 		.ascii	"PRId8 __PRI8(d)\000"
 11836      38205F5F 
 11836      50524938 
 11836      28642900 
 11837              	.LASF892:
 11838 43c6 5F5F666F 		.ascii	"__format_arg(fmtarg) __attribute__((__format_arg__ "
 11838      726D6174 
 11838      5F617267 
 11838      28666D74 
 11838      61726729 
 11839 43f9 28666D74 		.ascii	"(fmtarg)))\000"
 11839      61726729 
 11839      292900
 11840              	.LASF1200:
 11841 4404 5052496F 		.ascii	"PRIoMAX __PRIMAX(o)\000"
 11841      4D415820 
 11841      5F5F5052 
 11841      494D4158 
 11841      286F2900 
 11842              	.LASF1021:
 11843 4418 494E545F 		.ascii	"INT_FAST16_MAX\000"
 11843      46415354 
 11843      31365F4D 
 11843      415800
 11844              	.LASF1063:
 11845 4427 57434841 		.ascii	"WCHAR_MIN\000"
 11845      525F4D49 
 11845      4E00
 11846              	.LASF1473:
 11847 4431 464C4F41 		.ascii	"FLOAT_QUAT_ZERO(_q) WARNING(\"FLOAT_QUAT_ZERO macro"
 11847      545F5155 
 11847      41545F5A 
 11847      45524F28 
 11847      5F712920 
 11848 4463 20697320 		.ascii	" is deprecated, use the lower case function instead"
 11848      64657072 
 11848      65636174 
ARM GAS  /tmp/cceRHmPh.s 			page 245


 11848      65642C20 
 11848      75736520 
 11849 4496 22292066 		.ascii	"\") float_quat_identity(&(_q))\000"
 11849      6C6F6174 
 11849      5F717561 
 11849      745F6964 
 11849      656E7469 
 11850              	.LASF1181:
 11851 44b4 5052496F 		.ascii	"PRIoFAST32 __PRI32FAST(o)\000"
 11851      46415354 
 11851      3332205F 
 11851      5F505249 
 11851      33324641 
 11852              	.LASF1394:
 11853 44ce 52415445 		.ascii	"RATES_BOUND_CUBE(_v,_min,_max) { (_v).p = (_v).p < "
 11853      535F424F 
 11853      554E445F 
 11853      43554245 
 11853      285F762C 
 11854 4501 285F6D69 		.ascii	"(_min) ? (_min) : (_v).p > (_max) ? (_max) : (_v).p"
 11854      6E29203F 
 11854      20285F6D 
 11854      696E2920 
 11854      3A20285F 
 11855 4534 3B20285F 		.ascii	"; (_v).q = (_v).q < (_min) ? (_min) : (_v).q > (_ma"
 11855      76292E71 
 11855      203D2028 
 11855      5F76292E 
 11855      71203C20 
 11856 4567 7829203F 		.ascii	"x) ? (_max) : (_v).q; (_v).r = (_v).r < (_min) ? (_"
 11856      20285F6D 
 11856      61782920 
 11856      3A20285F 
 11856      76292E71 
 11857 459a 6D696E29 		.ascii	"min) : (_v).r > (_max) ? (_max) : (_v).r; }\000"
 11857      203A2028 
 11857      5F76292E 
 11857      72203E20 
 11857      285F6D61 
 11858              	.LASF623:
 11859 45c6 5F444546 		.ascii	"_DEFAULT_SOURCE\000"
 11859      41554C54 
 11859      5F534F55 
 11859      52434500 
 11860              	.LASF1020:
 11861 45d6 55494E54 		.ascii	"UINT_FAST8_MAX __UINT_FAST8_MAX__\000"
 11861      5F464153 
 11861      54385F4D 
 11861      4158205F 
 11861      5F55494E 
 11862              	.LASF238:
 11863 45f8 5F5F5346 		.ascii	"__SFRACT_FBIT__ 7\000"
 11863      52414354 
 11863      5F464249 
 11863      545F5F20 
 11863      3700
 11864              	.LASF312:
ARM GAS  /tmp/cceRHmPh.s 			page 246


 11865 460a 5F5F4C4C 		.ascii	"__LLACCUM_EPSILON__ 0x1P-31LLK\000"
 11865      41434355 
 11865      4D5F4550 
 11865      53494C4F 
 11865      4E5F5F20 
 11866              	.LASF453:
 11867 4629 43485F44 		.ascii	"CH_DBG_ENABLE_ASSERTS TRUE\000"
 11867      42475F45 
 11867      4E41424C 
 11867      455F4153 
 11867      53455254 
 11868              	.LASF333:
 11869 4644 5F5F5553 		.ascii	"__USQ_IBIT__ 0\000"
 11869      515F4942 
 11869      49545F5F 
 11869      203000
 11870              	.LASF581:
 11871 4653 44424C5F 		.ascii	"DBL_EPSILON __DBL_EPSILON__\000"
 11871      45505349 
 11871      4C4F4E20 
 11871      5F5F4442 
 11871      4C5F4550 
 11872              	.LASF1171:
 11873 466f 50524975 		.ascii	"PRIuLEAST32 __PRI32LEAST(u)\000"
 11873      4C454153 
 11873      54333220 
 11873      5F5F5052 
 11873      4933324C 
 11874              	.LASF167:
 11875 468b 5F5F4442 		.ascii	"__DBL_DECIMAL_DIG__ 17\000"
 11875      4C5F4445 
 11875      43494D41 
 11875      4C5F4449 
 11875      475F5F20 
 11876              	.LASF18:
 11877 46a2 5F5F5349 		.ascii	"__SIZEOF_LONG_LONG__ 8\000"
 11877      5A454F46 
 11877      5F4C4F4E 
 11877      475F4C4F 
 11877      4E475F5F 
 11878              	.LASF1509:
 11879 46b9 4520302E 		.ascii	"E 0.08181919106\000"
 11879      30383138 
 11879      31393139 
 11879      31303600 
 11880              	.LASF1059:
 11881 46c9 53495A45 		.ascii	"SIZE_MAX\000"
 11881      5F4D4158 
 11881      00
 11882              	.LASF1241:
 11883 46d2 4D415448 		.ascii	"MATH_ERRNO 1\000"
 11883      5F455252 
 11883      4E4F2031 
 11883      00
 11884              	.LASF875:
 11885 46df 5F5F6E6F 		.ascii	"__nonnull(x) __attribute__((__nonnull__ x))\000"
 11885      6E6E756C 
ARM GAS  /tmp/cceRHmPh.s 			page 247


 11885      6C287829 
 11885      205F5F61 
 11885      74747269 
 11886              	.LASF198:
 11887 470b 5F5F464C 		.ascii	"__FLT32_DECIMAL_DIG__ 9\000"
 11887      5433325F 
 11887      44454349 
 11887      4D414C5F 
 11887      4449475F 
 11888              	.LASF1109:
 11889 4723 50524975 		.ascii	"PRIuFAST8 __PRI8FAST(u)\000"
 11889      46415354 
 11889      38205F5F 
 11889      50524938 
 11889      46415354 
 11890              	.LASF1097:
 11891 473b 50524975 		.ascii	"PRIu8 __PRI8(u)\000"
 11891      38205F5F 
 11891      50524938 
 11891      28752900 
 11892              	.LASF601:
 11893 474b 5F5F4E45 		.ascii	"__NEWLIB_MINOR__ 3\000"
 11893      574C4942 
 11893      5F4D494E 
 11893      4F525F5F 
 11893      203300
 11894              	.LASF793:
 11895 475e 5F524545 		.ascii	"_REENT_MBSRTOWCS_STATE(ptr) ((ptr)->_new._reent._mb"
 11895      4E545F4D 
 11895      42535254 
 11895      4F574353 
 11895      5F535441 
 11896 4791 7372746F 		.ascii	"srtowcs_state)\000"
 11896      7763735F 
 11896      73746174 
 11896      652900
 11897              	.LASF915:
 11898 47a0 5F5F6461 		.ascii	"__datatype_type_tag(kind,type) \000"
 11898      74617479 
 11898      70655F74 
 11898      7970655F 
 11898      74616728 
 11899              	.LASF1238:
 11900 47c0 46505F4E 		.ascii	"FP_NORMAL 4\000"
 11900      4F524D41 
 11900      4C203400 
 11901              	.LASF624:
 11902 47cc 5F444546 		.ascii	"_DEFAULT_SOURCE 1\000"
 11902      41554C54 
 11902      5F534F55 
 11902      52434520 
 11902      3100
 11903              	.LASF696:
 11904 47de 5F574348 		.ascii	"_WCHAR_T_DEFINED_ \000"
 11904      41525F54 
 11904      5F444546 
 11904      494E4544 
ARM GAS  /tmp/cceRHmPh.s 			page 248


 11904      5F2000
 11905              	.LASF618:
 11906 47f1 5F5F4F42 		.ascii	"__OBSOLETE_MATH_DEFAULT 1\000"
 11906      534F4C45 
 11906      54455F4D 
 11906      4154485F 
 11906      44454641 
 11907              	.LASF816:
 11908 480b 5F5F626F 		.ascii	"__bounded \000"
 11908      756E6465 
 11908      642000
 11909              	.LASF591:
 11910 4816 464C545F 		.ascii	"FLT_EVAL_METHOD\000"
 11910      4556414C 
 11910      5F4D4554 
 11910      484F4400 
 11911              	.LASF35:
 11912 4826 5F5F5749 		.ascii	"__WINT_TYPE__ unsigned int\000"
 11912      4E545F54 
 11912      5950455F 
 11912      5F20756E 
 11912      7369676E 
 11913              	.LASF557:
 11914 4841 44424C5F 		.ascii	"DBL_MIN_10_EXP __DBL_MIN_10_EXP__\000"
 11914      4D494E5F 
 11914      31305F45 
 11914      5850205F 
 11914      5F44424C 
 11915              	.LASF1320:
 11916 4863 4F722878 		.ascii	"Or(x,y) ((x) || (y))\000"
 11916      2C792920 
 11916      28287829 
 11916      207C7C20 
 11916      28792929 
 11917              	.LASF1347:
 11918 4878 56454354 		.ascii	"VECT2_SUB(_a,_b) { (_a).x -= (_b).x; (_a).y -= (_b)"
 11918      325F5355 
 11918      42285F61 
 11918      2C5F6229 
 11918      207B2028 
 11919 48ab 2E793B20 		.ascii	".y; }\000"
 11919      7D00
 11920              	.LASF723:
 11921 48b1 5F5F5F69 		.ascii	"___int_least8_t_defined 1\000"
 11921      6E745F6C 
 11921      65617374 
 11921      385F745F 
 11921      64656669 
 11922              	.LASF1451:
 11923 48cb 464C4F41 		.ascii	"FLOAT_VECT3_INTEGRATE_FI(_vo,_dv,_dt) WARNING(\"FLO"
 11923      545F5645 
 11923      4354335F 
 11923      494E5445 
 11923      47524154 
 11924 48fd 41545F56 		.ascii	"AT_VECT3_INTEGRATE_FI macro is deprecated, use the "
 11924      45435433 
 11924      5F494E54 
ARM GAS  /tmp/cceRHmPh.s 			page 249


 11924      45475241 
 11924      54455F46 
 11925 4930 6C6F7765 		.ascii	"lower case function instead\") float_vect3_integrat"
 11925      72206361 
 11925      73652066 
 11925      756E6374 
 11925      696F6E20 
 11926 4962 655F6669 		.ascii	"e_fi(&(_vo), &(_dv), _dt)\000"
 11926      2826285F 
 11926      766F292C 
 11926      2026285F 
 11926      6476292C 
 11927              	.LASF914:
 11928 497c 5F5F6172 		.ascii	"__arg_type_tag(arg_kind,arg_idx,type_tag_idx) \000"
 11928      675F7479 
 11928      70655F74 
 11928      61672861 
 11928      72675F6B 
 11929              	.LASF95:
 11930 49ab 5F5F5349 		.ascii	"__SIG_ATOMIC_WIDTH__ 32\000"
 11930      475F4154 
 11930      4F4D4943 
 11930      5F574944 
 11930      54485F5F 
 11931              	.LASF608:
 11932 49c3 5F415445 		.ascii	"_ATEXIT_DYNAMIC_ALLOC 1\000"
 11932      5849545F 
 11932      44594E41 
 11932      4D49435F 
 11932      414C4C4F 
 11933              	.LASF1585:
 11934 49db 65636566 		.ascii	"ecef_of_enu_point_f\000"
 11934      5F6F665F 
 11934      656E755F 
 11934      706F696E 
 11934      745F6600 
 11935              	.LASF307:
 11936 49ef 5F5F554C 		.ascii	"__ULACCUM_EPSILON__ 0x1P-32ULK\000"
 11936      41434355 
 11936      4D5F4550 
 11936      53494C4F 
 11936      4E5F5F20 
 11937              	.LASF145:
 11938 4a0e 5F5F464C 		.ascii	"__FLT_MANT_DIG__ 24\000"
 11938      545F4D41 
 11938      4E545F44 
 11938      49475F5F 
 11938      20323400 
 11939              	.LASF1216:
 11940 4a22 50524958 		.ascii	"PRIXPTR __PRIPTR(X)\000"
 11940      50545220 
 11940      5F5F5052 
 11940      49505452 
 11940      28582900 
 11941              	.LASF923:
 11942 4a36 5F5F6173 		.ascii	"__asserts_exclusive(...) __lock_annotate(assert_exc"
 11942      73657274 
ARM GAS  /tmp/cceRHmPh.s 			page 250


 11942      735F6578 
 11942      636C7573 
 11942      69766528 
 11943 4a69 6C757369 		.ascii	"lusive_lock(__VA_ARGS__))\000"
 11943      76655F6C 
 11943      6F636B28 
 11943      5F5F5641 
 11943      5F415247 
 11944              	.LASF303:
 11945 4a83 5F5F554C 		.ascii	"__ULACCUM_FBIT__ 32\000"
 11945      41434355 
 11945      4D5F4642 
 11945      49545F5F 
 11945      20333200 
 11946              	.LASF1590:
 11947 4a97 6E65645F 		.ascii	"ned_of_ecef_point_f\000"
 11947      6F665F65 
 11947      6365665F 
 11947      706F696E 
 11947      745F6600 
 11948              	.LASF833:
 11949 4aab 5F5F474E 		.ascii	"__GNUC_VA_LIST_COMPATIBILITY 1\000"
 11949      55435F56 
 11949      415F4C49 
 11949      53545F43 
 11949      4F4D5041 
 11950              	.LASF1103:
 11951 4aca 50524975 		.ascii	"PRIuLEAST8 __PRI8LEAST(u)\000"
 11951      4C454153 
 11951      5438205F 
 11951      5F505249 
 11951      384C4541 
 11952              	.LASF924:
 11953 4ae4 5F5F6173 		.ascii	"__asserts_shared(...) __lock_annotate(assert_shared"
 11953      73657274 
 11953      735F7368 
 11953      61726564 
 11953      282E2E2E 
 11954 4b17 5F6C6F63 		.ascii	"_lock(__VA_ARGS__))\000"
 11954      6B285F5F 
 11954      56415F41 
 11954      5247535F 
 11954      5F292900 
 11955              	.LASF1180:
 11956 4b2b 50524969 		.ascii	"PRIiFAST32 __PRI32FAST(i)\000"
 11956      46415354 
 11956      3332205F 
 11956      5F505249 
 11956      33324641 
 11957              	.LASF720:
 11958 4b45 5F5F5F69 		.ascii	"___int16_t_defined 1\000"
 11958      6E743136 
 11958      5F745F64 
 11958      6566696E 
 11958      65642031 
 11959              	.LASF1202:
 11960 4b5a 50524978 		.ascii	"PRIxMAX __PRIMAX(x)\000"
ARM GAS  /tmp/cceRHmPh.s 			page 251


 11960      4D415820 
 11960      5F5F5052 
 11960      494D4158 
 11960      28782900 
 11961              	.LASF836:
 11962 4b6e 5F5F474E 		.ascii	"__GNUCLIKE_MATH_BUILTIN_RELOPS \000"
 11962      55434C49 
 11962      4B455F4D 
 11962      4154485F 
 11962      4255494C 
 11963              	.LASF476:
 11964 4b8e 48414C5F 		.ascii	"HAL_USE_USB TRUE\000"
 11964      5553455F 
 11964      55534220 
 11964      54525545 
 11964      00
 11965              	.LASF304:
 11966 4b9f 5F5F554C 		.ascii	"__ULACCUM_IBIT__ 32\000"
 11966      41434355 
 11966      4D5F4942 
 11966      49545F5F 
 11966      20333200 
 11967              	.LASF432:
 11968 4bb3 5F5F4152 		.ascii	"__ARM_FEATURE_COPROC 15\000"
 11968      4D5F4645 
 11968      41545552 
 11968      455F434F 
 11968      50524F43 
 11969              	.LASF1511:
 11970 4bcb 44454C54 		.ascii	"DELTA_EAST 500000.\000"
 11970      415F4541 
 11970      53542035 
 11970      30303030 
 11970      302E00
 11971              	.LASF399:
 11972 4bde 5F5F4152 		.ascii	"__ARM_ARCH_PROFILE 77\000"
 11972      4D5F4152 
 11972      43485F50 
 11972      524F4649 
 11972      4C452037 
 11973              	.LASF1257:
 11974 4bf4 7369676E 		.ascii	"signgam (*__signgam())\000"
 11974      67616D20 
 11974      282A5F5F 
 11974      7369676E 
 11974      67616D28 
 11975              	.LASF1447:
 11976 4c0b 464C4F41 		.ascii	"FLOAT_VECT3_NORMALIZE(_v) float_vect3_normalize(&(_"
 11976      545F5645 
 11976      4354335F 
 11976      4E4F524D 
 11976      414C495A 
 11977 4c3e 76292900 		.ascii	"v))\000"
 11978              	.LASF698:
 11979 4c42 5F574348 		.ascii	"_WCHAR_T_H \000"
 11979      41525F54 
 11979      5F482000 
ARM GAS  /tmp/cceRHmPh.s 			page 252


 11980              	.LASF104:
 11981 4c4e 5F5F494E 		.ascii	"__INT_LEAST8_MAX__ 0x7f\000"
 11981      545F4C45 
 11981      41535438 
 11981      5F4D4158 
 11981      5F5F2030 
 11982              	.LASF1540:
 11983 4c66 4E656443 		.ascii	"NedCoor_f\000"
 11983      6F6F725F 
 11983      6600
 11984              	.LASF147:
 11985 4c70 5F5F464C 		.ascii	"__FLT_MIN_EXP__ (-125)\000"
 11985      545F4D49 
 11985      4E5F4558 
 11985      505F5F20 
 11985      282D3132 
 11986              	.LASF1346:
 11987 4c87 56454354 		.ascii	"VECT2_ADD(_a,_b) { (_a).x += (_b).x; (_a).y += (_b)"
 11987      325F4144 
 11987      44285F61 
 11987      2C5F6229 
 11987      207B2028 
 11988 4cba 2E793B20 		.ascii	".y; }\000"
 11988      7D00
 11989              	.LASF471:
 11990 4cc0 4750535F 		.ascii	"GPS_TYPE_H \"modules/gps/gps_ubx.h\"\000"
 11990      54595045 
 11990      5F482022 
 11990      6D6F6475 
 11990      6C65732F 
 11991              	.LASF123:
 11992 4ce3 5F5F5549 		.ascii	"__UINT64_C(c) c ## ULL\000"
 11992      4E543634 
 11992      5F432863 
 11992      29206320 
 11992      23232055 
 11993              	.LASF1365:
 11994 4cfa 56454354 		.ascii	"VECT3_SDIV(_vo,_vi,_s) { (_vo).x = (_vi).x / (_s); "
 11994      335F5344 
 11994      4956285F 
 11994      766F2C5F 
 11994      76692C5F 
 11995 4d2d 285F766F 		.ascii	"(_vo).y = (_vi).y / (_s); (_vo).z = (_vi).z / (_s);"
 11995      292E7920 
 11995      3D20285F 
 11995      7669292E 
 11995      79202F20 
 11996 4d60 207D00   		.ascii	" }\000"
 11997              	.LASF144:
 11998 4d63 5F5F464C 		.ascii	"__FLT_RADIX__ 2\000"
 11998      545F5241 
 11998      4449585F 
 11998      5F203200 
 11999              	.LASF499:
 12000 4d73 55415254 		.ascii	"UART4_BAUD B38400\000"
 12000      345F4241 
 12000      55442042 
ARM GAS  /tmp/cceRHmPh.s 			page 253


 12000      33383430 
 12000      3000
 12001              	.LASF348:
 12002 4d85 5F5F5553 		.ascii	"__USA_FBIT__ 16\000"
 12002      415F4642 
 12002      49545F5F 
 12002      20313600 
 12003              	.LASF950:
 12004 4d95 696E7420 		.ascii	"int +2\000"
 12004      2B3200
 12005              	.LASF224:
 12006 4d9c 5F5F464C 		.ascii	"__FLT32X_DIG__ 15\000"
 12006      54333258 
 12006      5F444947 
 12006      5F5F2031 
 12006      3500
 12007              	.LASF1543:
 12008 4dae 6E6F7274 		.ascii	"north\000"
 12008      6800
 12009              	.LASF643:
 12010 4db4 5F5F5241 		.ascii	"__RAND_MAX 0x7fffffff\000"
 12010      4E445F4D 
 12010      41582030 
 12010      78376666 
 12010      66666666 
 12011              	.LASF187:
 12012 4dca 5F5F4C44 		.ascii	"__LDBL_EPSILON__ 2.2204460492503131e-16L\000"
 12012      424C5F45 
 12012      5053494C 
 12012      4F4E5F5F 
 12012      20322E32 
 12013              	.LASF952:
 12014 4df3 5F494E54 		.ascii	"_INTPTR_EQ_INT \000"
 12014      5054525F 
 12014      45515F49 
 12014      4E542000 
 12015              	.LASF142:
 12016 4e03 5F5F464C 		.ascii	"__FLT_EVAL_METHOD_TS_18661_3__ 0\000"
 12016      545F4556 
 12016      414C5F4D 
 12016      4554484F 
 12016      445F5453 
 12017              	.LASF1376:
 12018 4e24 45554C45 		.ascii	"EULERS_COPY(_a,_b) { (_a).phi = (_b).phi; (_a).thet"
 12018      52535F43 
 12018      4F505928 
 12018      5F612C5F 
 12018      6229207B 
 12019 4e57 61203D20 		.ascii	"a = (_b).theta; (_a).psi = (_b).psi; }\000"
 12019      285F6229 
 12019      2E746865 
 12019      74613B20 
 12019      285F6129 
 12020              	.LASF322:
 12021 4e7e 5F5F5351 		.ascii	"__SQ_FBIT__ 31\000"
 12021      5F464249 
 12021      545F5F20 
ARM GAS  /tmp/cceRHmPh.s 			page 254


 12021      333100
 12022              	.LASF90:
 12023 4e8d 5F5F5549 		.ascii	"__UINTMAX_MAX__ 0xffffffffffffffffULL\000"
 12023      4E544D41 
 12023      585F4D41 
 12023      585F5F20 
 12023      30786666 
 12024              	.LASF349:
 12025 4eb3 5F5F5553 		.ascii	"__USA_IBIT__ 16\000"
 12025      415F4942 
 12025      49545F5F 
 12025      20313600 
 12026              	.LASF292:
 12027 4ec3 5F5F4143 		.ascii	"__ACCUM_EPSILON__ 0x1P-15K\000"
 12027      43554D5F 
 12027      45505349 
 12027      4C4F4E5F 
 12027      5F203078 
 12028              	.LASF586:
 12029 4ede 464C545F 		.ascii	"FLT_MIN __FLT_MIN__\000"
 12029      4D494E20 
 12029      5F5F464C 
 12029      545F4D49 
 12029      4E5F5F00 
 12030              	.LASF1501:
 12031 4ef2 444F5542 		.ascii	"DOUBLE_VECT3_ROUND(_v) DOUBLE_VECT3_RINT(_v, _v)\000"
 12031      4C455F56 
 12031      45435433 
 12031      5F524F55 
 12031      4E44285F 
 12032              	.LASF301:
 12033 4f23 5F5F4C41 		.ascii	"__LACCUM_MAX__ 0X7FFFFFFFFFFFFFFFP-31LK\000"
 12033      4343554D 
 12033      5F4D4158 
 12033      5F5F2030 
 12033      58374646 
 12034              	.LASF770:
 12035 4f4b 5F524545 		.ascii	"_REENT_CHECK_TM(ptr) \000"
 12035      4E545F43 
 12035      4845434B 
 12035      5F544D28 
 12035      70747229 
 12036              	.LASF487:
 12037 4f61 5050525A 		.ascii	"PPRZ_VER_MAJOR 6\000"
 12037      5F564552 
 12037      5F4D414A 
 12037      4F522036 
 12037      00
 12038              	.LASF1588:
 12039 4f72 6E65645F 		.ascii	"ned_of_ecef_vect_f\000"
 12039      6F665F65 
 12039      6365665F 
 12039      76656374 
 12039      5F6600
 12040              	.LASF1281:
 12041 4f85 4D5F494E 		.ascii	"M_INVLN2 1.4426950408889633870E0\000"
 12041      564C4E32 
ARM GAS  /tmp/cceRHmPh.s 			page 255


 12041      20312E34 
 12041      34323639 
 12041      35303430 
 12042              	.LASF1467:
 12043 4fa6 464C4F41 		.ascii	"FLOAT_RMAT_OF_EULERS_321(_rm,_e) WARNING(\"FLOAT_RM"
 12043      545F524D 
 12043      41545F4F 
 12043      465F4555 
 12043      4C455253 
 12044 4fd8 41545F4F 		.ascii	"AT_OF_EULERS_321 macro is deprecated, use the lower"
 12044      465F4555 
 12044      4C455253 
 12044      5F333231 
 12044      206D6163 
 12045 500b 20636173 		.ascii	" case function instead\") float_rmat_of_eulers_321("
 12045      65206675 
 12045      6E637469 
 12045      6F6E2069 
 12045      6E737465 
 12046 503d 26285F72 		.ascii	"&(_rm), &(_e))\000"
 12046      6D292C20 
 12046      26285F65 
 12046      292900
 12047              	.LASF1354:
 12048 504c 56454354 		.ascii	"VECT2_NORM2(_v) ((_v).x*(_v).x + (_v).y*(_v).y)\000"
 12048      325F4E4F 
 12048      524D3228 
 12048      5F762920 
 12048      28285F76 
 12049              	.LASF1029:
 12050 507c 494E545F 		.ascii	"INT_FAST32_MIN\000"
 12050      46415354 
 12050      33325F4D 
 12050      494E00
 12051              	.LASF252:
 12052 508b 5F5F4652 		.ascii	"__FRACT_EPSILON__ 0x1P-15R\000"
 12052      4143545F 
 12052      45505349 
 12052      4C4F4E5F 
 12052      5F203078 
 12053              	.LASF1178:
 12054 50a6 53434E78 		.ascii	"SCNxLEAST32 __SCN32LEAST(x)\000"
 12054      4C454153 
 12054      54333220 
 12054      5F5F5343 
 12054      4E33324C 
 12055              	.LASF602:
 12056 50c2 5F5F4E45 		.ascii	"__NEWLIB_PATCHLEVEL__ 0\000"
 12056      574C4942 
 12056      5F504154 
 12056      43484C45 
 12056      56454C5F 
 12057              	.LASF741:
 12058 50da 5F5F6C6F 		.ascii	"__lock_init_recursive(lock) ((void) 0)\000"
 12058      636B5F69 
 12058      6E69745F 
 12058      72656375 
ARM GAS  /tmp/cceRHmPh.s 			page 256


 12058      72736976 
 12059              	.LASF1102:
 12060 5101 5052496F 		.ascii	"PRIoLEAST8 __PRI8LEAST(o)\000"
 12060      4C454153 
 12060      5438205F 
 12060      5F505249 
 12060      384C4541 
 12061              	.LASF368:
 12062 511b 5F5F4743 		.ascii	"__GCC_ATOMIC_INT_LOCK_FREE 2\000"
 12062      435F4154 
 12062      4F4D4943 
 12062      5F494E54 
 12062      5F4C4F43 
 12063              	.LASF981:
 12064 5138 494E5433 		.ascii	"INT32_MIN\000"
 12064      325F4D49 
 12064      4E00
 12065              	.LASF1416:
 12066 5142 51554154 		.ascii	"QUAT_EXTRACT_Q(_vo,_qi) { (_vo).x=(_qi).qx; (_vo).y"
 12066      5F455854 
 12066      52414354 
 12066      5F51285F 
 12066      766F2C5F 
 12067 5175 3D285F71 		.ascii	"=(_qi).qy; (_vo).z=(_qi).qz; }\000"
 12067      69292E71 
 12067      793B2028 
 12067      5F766F29 
 12067      2E7A3D28 
 12068              	.LASF81:
 12069 5194 5F5F494E 		.ascii	"__INT_WIDTH__ 32\000"
 12069      545F5749 
 12069      4454485F 
 12069      5F203332 
 12069      00
 12070              	.LASF562:
 12071 51a5 464C545F 		.ascii	"FLT_MAX_EXP __FLT_MAX_EXP__\000"
 12071      4D41585F 
 12071      45585020 
 12071      5F5F464C 
 12071      545F4D41 
 12072              	.LASF549:
 12073 51c1 4C44424C 		.ascii	"LDBL_MIN_EXP\000"
 12073      5F4D494E 
 12073      5F455850 
 12073      00
 12074              	.LASF803:
 12075 51ce 5F474C4F 		.ascii	"_GLOBAL_REENT _global_impure_ptr\000"
 12075      42414C5F 
 12075      5245454E 
 12075      54205F67 
 12075      6C6F6261 
 12076              	.LASF209:
 12077 51ef 5F5F464C 		.ascii	"__FLT64_DIG__ 15\000"
 12077      5436345F 
 12077      4449475F 
 12077      5F203135 
 12077      00
ARM GAS  /tmp/cceRHmPh.s 			page 257


 12078              	.LASF422:
 12079 5200 5F5F4152 		.ascii	"__ARM_NEON\000"
 12079      4D5F4E45 
 12079      4F4E00
 12080              	.LASF515:
 12081 520b 5448554D 		.ascii	"THUMB_PRESENT 1\000"
 12081      425F5052 
 12081      4553454E 
 12081      54203100 
 12082              	.LASF1560:
 12083 521b 73696E5F 		.ascii	"sin_z_im\000"
 12083      7A5F696D 
 12083      00
 12084              	.LASF424:
 12085 5224 5F5F4152 		.ascii	"__ARM_ARCH_7EM__ 1\000"
 12085      4D5F4152 
 12085      43485F37 
 12085      454D5F5F 
 12085      203100
 12086              	.LASF722:
 12087 5237 5F5F5F69 		.ascii	"___int64_t_defined 1\000"
 12087      6E743634 
 12087      5F745F64 
 12087      6566696E 
 12087      65642031 
 12088              	.LASF1098:
 12089 524c 50524978 		.ascii	"PRIx8 __PRI8(x)\000"
 12089      38205F5F 
 12089      50524938 
 12089      28782900 
 12090              	.LASF605:
 12091 525c 5F524545 		.ascii	"_REENT_CHECK_VERIFY 1\000"
 12091      4E545F43 
 12091      4845434B 
 12091      5F564552 
 12091      49465920 
 12092              	.LASF835:
 12093 5272 5F5F474E 		.ascii	"__GNUCLIKE_BUILTIN_NEXT_ARG 1\000"
 12093      55434C49 
 12093      4B455F42 
 12093      55494C54 
 12093      494E5F4E 
 12094              	.LASF1111:
 12095 5290 50524958 		.ascii	"PRIXFAST8 __PRI8FAST(X)\000"
 12095      46415354 
 12095      38205F5F 
 12095      50524938 
 12095      46415354 
 12096              	.LASF1015:
 12097 52a8 494E545F 		.ascii	"INT_FAST8_MAX\000"
 12097      46415354 
 12097      385F4D41 
 12097      5800
 12098              	.LASF1454:
 12099 52b6 464C4F41 		.ascii	"FLOAT_MAT33_ZERO(_m) { MAT33_ELMT(_m, 0, 0) = 0.; M"
 12099      545F4D41 
 12099      5433335F 
ARM GAS  /tmp/cceRHmPh.s 			page 258


 12099      5A45524F 
 12099      285F6D29 
 12100 52e9 41543333 		.ascii	"AT33_ELMT(_m, 0, 1) = 0.; MAT33_ELMT(_m, 0, 2) = 0."
 12100      5F454C4D 
 12100      54285F6D 
 12100      2C20302C 
 12100      20312920 
 12101 531c 3B204D41 		.ascii	"; MAT33_ELMT(_m, 1, 0) = 0.; MAT33_ELMT(_m, 1, 1) ="
 12101      5433335F 
 12101      454C4D54 
 12101      285F6D2C 
 12101      20312C20 
 12102 534f 20302E3B 		.ascii	" 0.; MAT33_ELMT(_m, 1, 2) = 0.; MAT33_ELMT(_m, 2, 0"
 12102      204D4154 
 12102      33335F45 
 12102      4C4D5428 
 12102      5F6D2C20 
 12103 5382 29203D20 		.ascii	") = 0.; MAT33_ELMT(_m, 2, 1) = 0.; MAT33_ELMT(_m, 2"
 12103      302E3B20 
 12103      4D415433 
 12103      335F454C 
 12103      4D54285F 
 12104 53b5 2C203229 		.ascii	", 2) = 0.; }\000"
 12104      203D2030 
 12104      2E3B207D 
 12104      00
 12105              	.LASF229:
 12106 53c2 5F5F464C 		.ascii	"__FLT32X_DECIMAL_DIG__ 17\000"
 12106      54333258 
 12106      5F444543 
 12106      494D414C 
 12106      5F444947 
 12107              	.LASF1333:
 12108 53dc 416C6967 		.ascii	"Align(_x,_a1) (_x%_a1 ? _x + (_a1 - (_x%_a1)) : _x "
 12108      6E285F78 
 12108      2C5F6131 
 12108      2920285F 
 12108      78255F61 
 12109 540f 2900     		.ascii	")\000"
 12110              	.LASF365:
 12111 5411 5F5F4743 		.ascii	"__GCC_ATOMIC_CHAR32_T_LOCK_FREE 2\000"
 12111      435F4154 
 12111      4F4D4943 
 12111      5F434841 
 12111      5233325F 
 12112              	.LASF492:
 12113 5433 52414449 		.ascii	"RADIO_CONTROL_TYPE_PPM 1\000"
 12113      4F5F434F 
 12113      4E54524F 
 12113      4C5F5459 
 12113      50455F50 
 12114              	.LASF42:
 12115 544c 5F5F494E 		.ascii	"__INT16_TYPE__ short int\000"
 12115      5431365F 
 12115      54595045 
 12115      5F5F2073 
 12115      686F7274 
ARM GAS  /tmp/cceRHmPh.s 			page 259


 12116              	.LASF465:
 12117 5465 444F574E 		.ascii	"DOWNLINK_TRANSPORT pprz_tp\000"
 12117      4C494E4B 
 12117      5F545241 
 12117      4E53504F 
 12117      52542070 
 12118              	.LASF1523:
 12119 5480 4353696E 		.ascii	"CSin(z) { CI(z); struct complex _z = {-z.re, -z.im}"
 12119      287A2920 
 12119      7B204349 
 12119      287A293B 
 12119      20737472 
 12120 54b3 3B20666C 		.ascii	"; float e = exp(z.re); float cos_z_im = cosf(z.im);"
 12120      6F617420 
 12120      65203D20 
 12120      65787028 
 12120      7A2E7265 
 12121 54e6 207A2E72 		.ascii	" z.re = e*cos_z_im; float sin_z_im = sinf(z.im); z."
 12121      65203D20 
 12121      652A636F 
 12121      735F7A5F 
 12121      696D3B20 
 12122 5519 696D203D 		.ascii	"im = e*sin_z_im; _z.re = cos_z_im/e; _z.im = -sin_z"
 12122      20652A73 
 12122      696E5F7A 
 12122      5F696D3B 
 12122      205F7A2E 
 12123 554c 5F696D2F 		.ascii	"_im/e; CSub(_z, z); CScal(-0.5, z); CI(z); }\000"
 12123      653B2043 
 12123      53756228 
 12123      5F7A2C20 
 12123      7A293B20 
 12124              	.LASF1226:
 12125 5579 5F5F626F 		.ascii	"__bool_true_false_are_defined 1\000"
 12125      6F6C5F74 
 12125      7275655F 
 12125      66616C73 
 12125      655F6172 
 12126              	.LASF1422:
 12127 5599 524D4154 		.ascii	"RMAT_VECT3_MUL(_vout,_rmat,_vin) { (_vout).x = RMAT"
 12127      5F564543 
 12127      54335F4D 
 12127      554C285F 
 12127      766F7574 
 12128 55cc 5F454C4D 		.ascii	"_ELMT((_rmat), 0, 0) * (_vin).x + RMAT_ELMT((_rmat)"
 12128      5428285F 
 12128      726D6174 
 12128      292C2030 
 12128      2C203029 
 12129 55ff 2C20302C 		.ascii	", 0, 1) * (_vin).y + RMAT_ELMT((_rmat), 0, 2) * (_v"
 12129      20312920 
 12129      2A20285F 
 12129      76696E29 
 12129      2E79202B 
 12130 5632 696E292E 		.ascii	"in).z; (_vout).y = RMAT_ELMT((_rmat), 1, 0) * (_vin"
 12130      7A3B2028 
 12130      5F766F75 
ARM GAS  /tmp/cceRHmPh.s 			page 260


 12130      74292E79 
 12130      203D2052 
 12131 5665 292E7820 		.ascii	").x + RMAT_ELMT((_rmat), 1, 1) * (_vin).y + RMAT_EL"
 12131      2B20524D 
 12131      41545F45 
 12131      4C4D5428 
 12131      285F726D 
 12132 5698 4D542828 		.ascii	"MT((_rmat), 1, 2) * (_vin).z; (_vout).z = RMAT_ELMT"
 12132      5F726D61 
 12132      74292C20 
 12132      312C2032 
 12132      29202A20 
 12133 56cb 28285F72 		.ascii	"((_rmat), 2, 0) * (_vin).x + RMAT_ELMT((_rmat), 2, "
 12133      6D617429 
 12133      2C20322C 
 12133      20302920 
 12133      2A20285F 
 12134 56fe 3129202A 		.ascii	"1) * (_vin).y + RMAT_ELMT((_rmat), 2, 2) * (_vin).z"
 12134      20285F76 
 12134      696E292E 
 12134      79202B20 
 12134      524D4154 
 12135 5731 3B207D00 		.ascii	"; }\000"
 12136              	.LASF250:
 12137 5735 5F5F4652 		.ascii	"__FRACT_MIN__ (-0.5R-0.5R)\000"
 12137      4143545F 
 12137      4D494E5F 
 12137      5F20282D 
 12137      302E3552 
 12138              	.LASF263:
 12139 5750 5F5F554C 		.ascii	"__ULFRACT_FBIT__ 32\000"
 12139      46524143 
 12139      545F4642 
 12139      49545F5F 
 12139      20333200 
 12140              	.LASF837:
 12141 5764 5F5F474E 		.ascii	"__GNUCLIKE_BUILTIN_MEMCPY 1\000"
 12141      55434C49 
 12141      4B455F42 
 12141      55494C54 
 12141      494E5F4D 
 12142              	.LASF683:
 12143 5780 5F5F5F69 		.ascii	"___int_size_t_h \000"
 12143      6E745F73 
 12143      697A655F 
 12143      745F6820 
 12143      00
 12144              	.LASF900:
 12145 5791 5F5F7379 		.ascii	"__sym_default(sym,impl,verid) __asm__(\".symver \" "
 12145      6D5F6465 
 12145      6661756C 
 12145      74287379 
 12145      6D2C696D 
 12146 57c2 23696D70 		.ascii	"#impl \", \" #sym \"@@\" #verid)\000"
 12146      6C20222C 
 12146      20222023 
 12146      73796D20 
ARM GAS  /tmp/cceRHmPh.s 			page 261


 12146      22404022 
 12147              	.LASF1425:
 12148 57df 45554C45 		.ascii	"EULERS_FLOAT_OF_BFP(_ef,_ei) { (_ef).phi = ANGLE_FL"
 12148      52535F46 
 12148      4C4F4154 
 12148      5F4F465F 
 12148      42465028 
 12149 5812 4F41545F 		.ascii	"OAT_OF_BFP((_ei).phi); (_ef).theta = ANGLE_FLOAT_OF"
 12149      4F465F42 
 12149      46502828 
 12149      5F656929 
 12149      2E706869 
 12150 5845 5F424650 		.ascii	"_BFP((_ei).theta); (_ef).psi = ANGLE_FLOAT_OF_BFP(("
 12150      28285F65 
 12150      69292E74 
 12150      68657461 
 12150      293B2028 
 12151 5878 5F656929 		.ascii	"_ei).psi); }\000"
 12151      2E707369 
 12151      293B207D 
 12151      00
 12152              	.LASF679:
 12153 5885 5F53495A 		.ascii	"_SIZE_T_DEFINED_ \000"
 12153      455F545F 
 12153      44454649 
 12153      4E45445F 
 12153      2000
 12154              	.LASF1584:
 12155 5897 65636566 		.ascii	"ecef_of_ned_point_f\000"
 12155      5F6F665F 
 12155      6E65645F 
 12155      706F696E 
 12155      745F6600 
 12156              	.LASF1192:
 12157 58ab 5F5F5052 		.ascii	"__PRI64LEAST(x) __LEAST64 __STRINGIFY(x)\000"
 12157      4936344C 
 12157      45415354 
 12157      28782920 
 12157      5F5F4C45 
 12158              	.LASF369:
 12159 58d4 5F5F4743 		.ascii	"__GCC_ATOMIC_LONG_LOCK_FREE 2\000"
 12159      435F4154 
 12159      4F4D4943 
 12159      5F4C4F4E 
 12159      475F4C4F 
 12160              	.LASF966:
 12161 58f2 5F474343 		.ascii	"_GCC_STDINT_H \000"
 12161      5F535444 
 12161      494E545F 
 12161      482000
 12162              	.LASF1213:
 12163 5901 5052496F 		.ascii	"PRIoPTR __PRIPTR(o)\000"
 12163      50545220 
 12163      5F5F5052 
 12163      49505452 
 12163      286F2900 
 12164              	.LASF1052:
ARM GAS  /tmp/cceRHmPh.s 			page 262


 12165 5915 50545244 		.ascii	"PTRDIFF_MAX __PTRDIFF_MAX__\000"
 12165      4946465F 
 12165      4D415820 
 12165      5F5F5054 
 12165      52444946 
 12166              	.LASF439:
 12167 5931 5F5F4758 		.ascii	"__GXX_TYPEINFO_EQUALITY_INLINE 0\000"
 12167      585F5459 
 12167      5045494E 
 12167      464F5F45 
 12167      5155414C 
 12168              	.LASF765:
 12169 5952 5F524545 		.ascii	"_REENT_STDIO_STREAM(var,index) &(var)->__sf[index]\000"
 12169      4E545F53 
 12169      5444494F 
 12169      5F535452 
 12169      45414D28 
 12170              	.LASF330:
 12171 5985 5F5F5548 		.ascii	"__UHQ_FBIT__ 16\000"
 12171      515F4642 
 12171      49545F5F 
 12171      20313600 
 12172              	.LASF1534:
 12173 5995 75696E74 		.ascii	"uint8_t\000"
 12173      385F7400 
 12174              	.LASF1195:
 12175 599d 5F5F5343 		.ascii	"__SCN64FAST(x) __FAST64 __STRINGIFY(x)\000"
 12175      4E363446 
 12175      41535428 
 12175      7829205F 
 12175      5F464153 
 12176              	.LASF452:
 12177 59c4 424F4152 		.ascii	"BOARD_CONFIG \"boards/apogee/chibios/v1.0/board.h\""
 12177      445F434F 
 12177      4E464947 
 12177      2022626F 
 12177      61726473 
 12178 59f5 00       		.ascii	"\000"
 12179              	.LASF932:
 12180 59f6 5F535953 		.ascii	"_SYS__LOCALE_H \000"
 12180      5F5F4C4F 
 12180      43414C45 
 12180      5F482000 
 12181              	.LASF1101:
 12182 5a06 50524969 		.ascii	"PRIiLEAST8 __PRI8LEAST(i)\000"
 12182      4C454153 
 12182      5438205F 
 12182      5F505249 
 12182      384C4541 
 12183              	.LASF1434:
 12184 5a20 504F5349 		.ascii	"POSITIONS_BFP_OF_REAL(_ef,_ei) { (_ef).x = POS_BFP_"
 12184      54494F4E 
 12184      535F4246 
 12184      505F4F46 
 12184      5F524541 
 12185 5a53 4F465F52 		.ascii	"OF_REAL((_ei).x); (_ef).y = POS_BFP_OF_REAL((_ei).y"
 12185      45414C28 
ARM GAS  /tmp/cceRHmPh.s 			page 263


 12185      285F6569 
 12185      292E7829 
 12185      3B20285F 
 12186 5a86 293B2028 		.ascii	"); (_ef).z = POS_BFP_OF_REAL((_ei).z); }\000"
 12186      5F656629 
 12186      2E7A203D 
 12186      20504F53 
 12186      5F424650 
 12187              	.LASF705:
 12188 5aaf 4E554C4C 		.ascii	"NULL\000"
 12188      00
 12189              	.LASF918:
 12190 5ab4 5F5F6C6F 		.ascii	"__locks_exclusive(...) __lock_annotate(exclusive_lo"
 12190      636B735F 
 12190      6578636C 
 12190      75736976 
 12190      65282E2E 
 12191 5ae7 636B5F66 		.ascii	"ck_function(__VA_ARGS__))\000"
 12191      756E6374 
 12191      696F6E28 
 12191      5F5F5641 
 12191      5F415247 
 12192              	.LASF539:
 12193 5b01 44424C5F 		.ascii	"DBL_MANT_DIG __DBL_MANT_DIG__\000"
 12193      4D414E54 
 12193      5F444947 
 12193      205F5F44 
 12193      424C5F4D 
 12194              	.LASF834:
 12195 5b1f 5F5F636F 		.ascii	"__compiler_membar() __asm __volatile(\" \" : : : \""
 12195      6D70696C 
 12195      65725F6D 
 12195      656D6261 
 12195      72282920 
 12196 5b4f 6D656D6F 		.ascii	"memory\")\000"
 12196      72792229 
 12196      00
 12197              	.LASF1480:
 12198 5b58 464C4F41 		.ascii	"FLOAT_QUAT_INV_COMP(_b2c,_a2b,_a2c) WARNING(\"FLOAT"
 12198      545F5155 
 12198      41545F49 
 12198      4E565F43 
 12198      4F4D5028 
 12199 5b8a 5F515541 		.ascii	"_QUAT_INV_COMP macro is deprecated, use the lower c"
 12199      545F494E 
 12199      565F434F 
 12199      4D50206D 
 12199      6163726F 
 12200 5bbd 61736520 		.ascii	"ase function instead\") float_quat_inv_comp(&(_b2c)"
 12200      66756E63 
 12200      74696F6E 
 12200      20696E73 
 12200      74656164 
 12201 5bef 2C202628 		.ascii	", &(_a2b), &(_a2c))\000"
 12201      5F613262 
 12201      292C2026 
 12201      285F6132 
ARM GAS  /tmp/cceRHmPh.s 			page 264


 12201      63292900 
 12202              	.LASF638:
 12203 5c03 5F5F5356 		.ascii	"__SVID_VISIBLE 1\000"
 12203      49445F56 
 12203      49534942 
 12203      4C452031 
 12203      00
 12204              	.LASF1568:
 12205 5c14 73696E5F 		.ascii	"sin_phi\000"
 12205      70686900 
 12206              	.LASF160:
 12207 5c1c 5F5F4650 		.ascii	"__FP_FAST_FMAF 1\000"
 12207      5F464153 
 12207      545F464D 
 12207      41462031 
 12207      00
 12208              	.LASF564:
 12209 5c2d 4C44424C 		.ascii	"LDBL_MAX_EXP __LDBL_MAX_EXP__\000"
 12209      5F4D4158 
 12209      5F455850 
 12209      205F5F4C 
 12209      44424C5F 
 12210              	.LASF74:
 12211 5c4b 5F5F5743 		.ascii	"__WCHAR_MIN__ 0U\000"
 12211      4841525F 
 12211      4D494E5F 
 12211      5F203055 
 12211      00
 12212              	.LASF1577:
 12213 5c5c 615F6368 		.ascii	"a_chi\000"
 12213      6900
 12214              	.LASF1280:
 12215 5c62 4D5F4C4F 		.ascii	"M_LOG2_E _M_LN2\000"
 12215      47325F45 
 12215      205F4D5F 
 12215      4C4E3200 
 12216              	.LASF769:
 12217 5c72 5F524545 		.ascii	"_REENT_CHECK_MP(ptr) \000"
 12217      4E545F43 
 12217      4845434B 
 12217      5F4D5028 
 12217      70747229 
 12218              	.LASF1492:
 12219 5c88 464C4F41 		.ascii	"FLOAT_QUAT_OF_ORIENTATION_VECT(_q,_ov) WARNING(\"FL"
 12219      545F5155 
 12219      41545F4F 
 12219      465F4F52 
 12219      49454E54 
 12220 5cba 4F41545F 		.ascii	"OAT_QUAT_OF_ORIENTATION_VECT macro is deprecated, u"
 12220      51554154 
 12220      5F4F465F 
 12220      4F524945 
 12220      4E544154 
 12221 5ced 73652074 		.ascii	"se the lower case function instead\") float_quat_of"
 12221      6865206C 
 12221      6F776572 
 12221      20636173 
ARM GAS  /tmp/cceRHmPh.s 			page 265


 12221      65206675 
 12222 5d1f 5F6F7269 		.ascii	"_orientation_vect(&(_q), &(_ov))\000"
 12222      656E7461 
 12222      74696F6E 
 12222      5F766563 
 12222      74282628 
 12223              	.LASF373:
 12224 5d40 5F5F4841 		.ascii	"__HAVE_SPECULATION_SAFE_VALUE 1\000"
 12224      56455F53 
 12224      50454355 
 12224      4C415449 
 12224      4F4E5F53 
 12225              	.LASF1135:
 12226 5d60 53434E64 		.ascii	"SCNdLEAST16 __SCN16LEAST(d)\000"
 12226      4C454153 
 12226      54313620 
 12226      5F5F5343 
 12226      4E31364C 
 12227              	.LASF701:
 12228 5d7c 5F474343 		.ascii	"_GCC_WCHAR_T \000"
 12228      5F574348 
 12228      41525F54 
 12228      2000
 12229              	.LASF1149:
 12230 5d8a 53434E75 		.ascii	"SCNuFAST16 __SCN16FAST(u)\000"
 12230      46415354 
 12230      3136205F 
 12230      5F53434E 
 12230      31364641 
 12231              	.LASF738:
 12232 5da4 5F5F4C4F 		.ascii	"__LOCK_INIT(class,lock) static int lock = 0;\000"
 12232      434B5F49 
 12232      4E495428 
 12232      636C6173 
 12232      732C6C6F 
 12233              	.LASF1574:
 12234 5dd1 636F735F 		.ascii	"cos_lat\000"
 12234      6C617400 
 12235              	.LASF954:
 12236 5dd9 5F5F494E 		.ascii	"__INT8 \"hh\"\000"
 12236      54382022 
 12236      68682200 
 12237              	.LASF272:
 12238 5de5 5F5F4C4C 		.ascii	"__LLFRACT_EPSILON__ 0x1P-63LLR\000"
 12238      46524143 
 12238      545F4550 
 12238      53494C4F 
 12238      4E5F5F20 
 12239              	.LASF1500:
 12240 5e04 5050525A 		.ascii	"PPRZ_ALGEBRA_DOUBLE_H \000"
 12240      5F414C47 
 12240      45425241 
 12240      5F444F55 
 12240      424C455F 
 12241              	.LASF131:
 12242 5e1b 5F5F494E 		.ascii	"__INT_FAST64_WIDTH__ 64\000"
 12242      545F4641 
ARM GAS  /tmp/cceRHmPh.s 			page 266


 12242      53543634 
 12242      5F574944 
 12242      54485F5F 
 12243              	.LASF248:
 12244 5e33 5F5F4652 		.ascii	"__FRACT_FBIT__ 15\000"
 12244      4143545F 
 12244      46424954 
 12244      5F5F2031 
 12244      3500
 12245              	.LASF1424:
 12246 5e45 524D4154 		.ascii	"RMAT_COPY(_o,_i) { memcpy(&(_o), &(_i), sizeof(_o))"
 12246      5F434F50 
 12246      59285F6F 
 12246      2C5F6929 
 12246      207B206D 
 12247 5e78 3B7D00   		.ascii	";}\000"
 12248              	.LASF854:
 12249 5e7b 5F5F6465 		.ascii	"__dead2 __attribute__((__noreturn__))\000"
 12249      61643220 
 12249      5F5F6174 
 12249      74726962 
 12249      7574655F 
 12250              	.LASF710:
 12251 5ea1 5F5F6E65 		.ascii	"__need_size_t \000"
 12251      65645F73 
 12251      697A655F 
 12251      742000
 12252              	.LASF1288:
 12253 5eb0 56414C55 		.ascii	"VALUE_TO_STRING(x) #x\000"
 12253      455F544F 
 12253      5F535452 
 12253      494E4728 
 12253      78292023 
 12254              	.LASF306:
 12255 5ec6 5F5F554C 		.ascii	"__ULACCUM_MAX__ 0XFFFFFFFFFFFFFFFFP-32ULK\000"
 12255      41434355 
 12255      4D5F4D41 
 12255      585F5F20 
 12255      30584646 
 12256              	.LASF98:
 12257 5ef0 5F5F494E 		.ascii	"__INT32_MAX__ 0x7fffffffL\000"
 12257      5433325F 
 12257      4D41585F 
 12257      5F203078 
 12257      37666666 
 12258              	.LASF852:
 12259 5f0a 5F5F766F 		.ascii	"__volatile volatile\000"
 12259      6C617469 
 12259      6C652076 
 12259      6F6C6174 
 12259      696C6500 
 12260              	.LASF1482:
 12261 5f1e 464C4F41 		.ascii	"FLOAT_QUAT_COMP_NORM_SHORTEST(_a2c,_a2b,_b2c) WARNI"
 12261      545F5155 
 12261      41545F43 
 12261      4F4D505F 
 12261      4E4F524D 
ARM GAS  /tmp/cceRHmPh.s 			page 267


 12262 5f51 4E472822 		.ascii	"NG(\"FLOAT_QUAT_COMP_NORM_SHORTEST macro is depreca"
 12262      464C4F41 
 12262      545F5155 
 12262      41545F43 
 12262      4F4D505F 
 12263 5f83 7465642C 		.ascii	"ted, use the lower case function instead\") float_q"
 12263      20757365 
 12263      20746865 
 12263      206C6F77 
 12263      65722063 
 12264 5fb5 7561745F 		.ascii	"uat_comp_norm_shortest(&(_a2c), &(_a2b), &(_b2c))\000"
 12264      636F6D70 
 12264      5F6E6F72 
 12264      6D5F7368 
 12264      6F727465 
 12265              	.LASF358:
 12266 5fe7 5F5F4348 		.ascii	"__CHAR_UNSIGNED__ 1\000"
 12266      41525F55 
 12266      4E534947 
 12266      4E45445F 
 12266      5F203100 
 12267              	.LASF1361:
 12268 5ffb 56454354 		.ascii	"VECT3_ADD_SCALED(_a,_b,_s) { (_a).x += ((_b).x * (_"
 12268      335F4144 
 12268      445F5343 
 12268      414C4544 
 12268      285F612C 
 12269 602e 7329293B 		.ascii	"s)); (_a).y += ((_b).y * (_s)); (_a).z += ((_b).z *"
 12269      20285F61 
 12269      292E7920 
 12269      2B3D2028 
 12269      285F6229 
 12270 6061 20285F73 		.ascii	" (_s)); }\000"
 12270      29293B20 
 12270      7D00
 12271              	.LASF703:
 12272 606b 5F425344 		.ascii	"_BSD_WCHAR_T_\000"
 12272      5F574348 
 12272      41525F54 
 12272      5F00
 12273              	.LASF552:
 12274 6079 4C44424C 		.ascii	"LDBL_MIN_EXP __LDBL_MIN_EXP__\000"
 12274      5F4D494E 
 12274      5F455850 
 12274      205F5F4C 
 12274      44424C5F 
 12275              	.LASF68:
 12276 6097 5F5F5343 		.ascii	"__SCHAR_MAX__ 0x7f\000"
 12276      4841525F 
 12276      4D41585F 
 12276      5F203078 
 12276      376600
 12277              	.LASF374:
 12278 60aa 5F5F4743 		.ascii	"__GCC_HAVE_DWARF2_CFI_ASM 1\000"
 12278      435F4841 
 12278      56455F44 
 12278      57415246 
ARM GAS  /tmp/cceRHmPh.s 			page 268


 12278      325F4346 
 12279              	.LASF974:
 12280 60c6 494E5431 		.ascii	"INT16_MAX __INT16_MAX__\000"
 12280      365F4D41 
 12280      58205F5F 
 12280      494E5431 
 12280      365F4D41 
 12281              	.LASF677:
 12282 60de 5F53495A 		.ascii	"_SIZE_T_ \000"
 12282      455F545F 
 12282      2000
 12283              	.LASF558:
 12284 60e8 4C44424C 		.ascii	"LDBL_MIN_10_EXP __LDBL_MIN_10_EXP__\000"
 12284      5F4D494E 
 12284      5F31305F 
 12284      45585020 
 12284      5F5F4C44 
 12285              	.LASF1468:
 12286 610c 464C4F41 		.ascii	"FLOAT_RMAT_OF_EULERS_312(_rm,_e) WARNING(\"FLOAT_RM"
 12286      545F524D 
 12286      41545F4F 
 12286      465F4555 
 12286      4C455253 
 12287 613e 41545F4F 		.ascii	"AT_OF_EULERS_312 macro is deprecated, use the lower"
 12287      465F4555 
 12287      4C455253 
 12287      5F333132 
 12287      206D6163 
 12288 6171 20636173 		.ascii	" case function instead\") float_rmat_of_eulers_312("
 12288      65206675 
 12288      6E637469 
 12288      6F6E2069 
 12288      6E737465 
 12289 61a3 26285F72 		.ascii	"&(_rm), &(_e))\000"
 12289      6D292C20 
 12289      26285F65 
 12289      292900
 12290              	.LASF1516:
 12291 61b2 55746D5A 		.ascii	"UtmZoneOfLlaLonRad(lla_lon) (floor(DegOfRad(lla_lon"
 12291      6F6E654F 
 12291      664C6C61 
 12291      4C6F6E52 
 12291      6164286C 
 12292 61e5 29202B20 		.ascii	") + 180) / 6) + 1\000"
 12292      31383029 
 12292      202F2036 
 12292      29202B20 
 12292      3100
 12293              	.LASF1303:
 12294 61f7 54525545 		.ascii	"TRUE true\000"
 12294      20747275 
 12294      6500
 12295              	.LASF276:
 12296 6201 5F5F554C 		.ascii	"__ULLFRACT_MAX__ 0XFFFFFFFFFFFFFFFFP-64ULLR\000"
 12296      4C465241 
 12296      43545F4D 
 12296      41585F5F 
ARM GAS  /tmp/cceRHmPh.s 			page 269


 12296      20305846 
 12297              	.LASF1498:
 12298 622d 4D414B45 		.ascii	"MAKE_MATRIX_PTR(_ptr,_mat,_rows) float * _ptr[_rows"
 12298      5F4D4154 
 12298      5249585F 
 12298      50545228 
 12298      5F707472 
 12299 6260 5D3B207B 		.ascii	"]; { int __i; for (__i = 0; __i < _rows; __i++) { _"
 12299      20696E74 
 12299      205F5F69 
 12299      3B20666F 
 12299      7220285F 
 12300 6293 7074725B 		.ascii	"ptr[__i] = &_mat[__i][0]; } }\000"
 12300      5F5F695D 
 12300      203D2026 
 12300      5F6D6174 
 12300      5B5F5F69 
 12301              	.LASF669:
 12302 62b1 5F5F6E65 		.ascii	"__need_ptrdiff_t\000"
 12302      65645F70 
 12302      74726469 
 12302      66665F74 
 12302      00
 12303              	.LASF97:
 12304 62c2 5F5F494E 		.ascii	"__INT16_MAX__ 0x7fff\000"
 12304      5431365F 
 12304      4D41585F 
 12304      5F203078 
 12304      37666666 
 12305              	.LASF1440:
 12306 62d7 4D414753 		.ascii	"MAGS_BFP_OF_REAL(_ef,_ei) { (_ef).x = MAG_BFP_OF_RE"
 12306      5F424650 
 12306      5F4F465F 
 12306      5245414C 
 12306      285F6566 
 12307 630a 414C2828 		.ascii	"AL((_ei).x); (_ef).y = MAG_BFP_OF_REAL((_ei).y); (_"
 12307      5F656929 
 12307      2E78293B 
 12307      20285F65 
 12307      66292E79 
 12308 633d 6566292E 		.ascii	"ef).z = MAG_BFP_OF_REAL((_ei).z); }\000"
 12308      7A203D20 
 12308      4D41475F 
 12308      4246505F 
 12308      4F465F52 
 12309              	.LASF338:
 12310 6361 5F5F4841 		.ascii	"__HA_FBIT__ 7\000"
 12310      5F464249 
 12310      545F5F20 
 12310      3700
 12311              	.LASF1349:
 12312 636f 56454354 		.ascii	"VECT2_DIFF(_c,_a,_b) { (_c).x = (_a).x - (_b).x; (_"
 12312      325F4449 
 12312      4646285F 
 12312      632C5F61 
 12312      2C5F6229 
 12313 63a2 63292E79 		.ascii	"c).y = (_a).y - (_b).y; }\000"
ARM GAS  /tmp/cceRHmPh.s 			page 270


 12313      203D2028 
 12313      5F61292E 
 12313      79202D20 
 12313      285F6229 
 12314              	.LASF1546:
 12315 63bc 4C747044 		.ascii	"LtpDef_f\000"
 12315      65665F66 
 12315      00
 12316              	.LASF295:
 12317 63c5 5F5F5541 		.ascii	"__UACCUM_MIN__ 0.0UK\000"
 12317      4343554D 
 12317      5F4D494E 
 12317      5F5F2030 
 12317      2E30554B 
 12318              	.LASF889:
 12319 63da 5F5F636F 		.ascii	"__containerof(x,s,m) ({ const volatile __typeof(((s"
 12319      6E746169 
 12319      6E65726F 
 12319      6628782C 
 12319      732C6D29 
 12320 640d 202A2930 		.ascii	" *)0)->m) *__x = (x); __DEQUALIFY(s *, (const volat"
 12320      292D3E6D 
 12320      29202A5F 
 12320      5F78203D 
 12320      20287829 
 12321 6440 696C6520 		.ascii	"ile char *)__x - __offsetof(s, m));})\000"
 12321      63686172 
 12321      202A295F 
 12321      5F78202D 
 12321      205F5F6F 
 12322              	.LASF1004:
 12323 6466 494E545F 		.ascii	"INT_LEAST32_MAX __INT_LEAST32_MAX__\000"
 12323      4C454153 
 12323      5433325F 
 12323      4D415820 
 12323      5F5F494E 
 12324              	.LASF823:
 12325 648a 5F5F474E 		.ascii	"__GNUCLIKE_ASM 3\000"
 12325      55434C49 
 12325      4B455F41 
 12325      534D2033 
 12325      00
 12326              	.LASF430:
 12327 649b 5F5F4152 		.ascii	"__ARM_ASM_SYNTAX_UNIFIED__ 1\000"
 12327      4D5F4153 
 12327      4D5F5359 
 12327      4E544158 
 12327      5F554E49 
 12328              	.LASF1478:
 12329 64b8 464C4F41 		.ascii	"FLOAT_QUAT_COMP(_a2c,_a2b,_b2c) WARNING(\"FLOAT_QUA"
 12329      545F5155 
 12329      41545F43 
 12329      4F4D5028 
 12329      5F613263 
 12330 64ea 545F434F 		.ascii	"T_COMP macro is deprecated, use the lower case func"
 12330      4D50206D 
 12330      6163726F 
ARM GAS  /tmp/cceRHmPh.s 			page 271


 12330      20697320 
 12330      64657072 
 12331 651d 74696F6E 		.ascii	"tion instead\") float_quat_comp(&(_a2c), &(_a2b), &"
 12331      20696E73 
 12331      74656164 
 12331      22292066 
 12331      6C6F6174 
 12332 654f 285F6232 		.ascii	"(_b2c))\000"
 12332      63292900 
 12333              	.LASF1367:
 12334 6557 56454354 		.ascii	"VECT3_EW_DIV(_vo,_va,_vb) { (_vo).x = (_va).x / (_v"
 12334      335F4557 
 12334      5F444956 
 12334      285F766F 
 12334      2C5F7661 
 12335 658a 62292E78 		.ascii	"b).x; (_vo).y = (_va).y / (_vb).y; (_vo).z = (_va)."
 12335      3B20285F 
 12335      766F292E 
 12335      79203D20 
 12335      285F7661 
 12336 65bd 7A202F20 		.ascii	"z / (_vb).z; }\000"
 12336      285F7662 
 12336      292E7A3B 
 12336      207D00
 12337              	.LASF1153:
 12338 65cc 5F5F5052 		.ascii	"__PRI32LEAST(x) __LEAST32 __STRINGIFY(x)\000"
 12338      4933324C 
 12338      45415354 
 12338      28782920 
 12338      5F5F4C45 
 12339              	.LASF583:
 12340 65f5 464C545F 		.ascii	"FLT_MIN\000"
 12340      4D494E00 
 12341              	.LASF1402:
 12342 65fd 4D415433 		.ascii	"MAT33_VECT3_TRANSP_MUL(_vout,_mat,_vin) { (_vout).x"
 12342      335F5645 
 12342      4354335F 
 12342      5452414E 
 12342      53505F4D 
 12343 6630 203D204D 		.ascii	" = MAT33_ELMT((_mat), 0, 0) * (_vin).x + MAT33_ELMT"
 12343      41543333 
 12343      5F454C4D 
 12343      5428285F 
 12343      6D617429 
 12344 6663 28285F6D 		.ascii	"((_mat), 1, 0) * (_vin).y + MAT33_ELMT((_mat), 2, 0"
 12344      6174292C 
 12344      20312C20 
 12344      3029202A 
 12344      20285F76 
 12345 6696 29202A20 		.ascii	") * (_vin).z; (_vout).y = MAT33_ELMT((_mat), 0, 1) "
 12345      285F7669 
 12345      6E292E7A 
 12345      3B20285F 
 12345      766F7574 
 12346 66c9 2A20285F 		.ascii	"* (_vin).x + MAT33_ELMT((_mat), 1, 1) * (_vin).y + "
 12346      76696E29 
 12346      2E78202B 
ARM GAS  /tmp/cceRHmPh.s 			page 272


 12346      204D4154 
 12346      33335F45 
 12347 66fc 4D415433 		.ascii	"MAT33_ELMT((_mat), 2, 1) * (_vin).z; (_vout).z = MA"
 12347      335F454C 
 12347      4D542828 
 12347      5F6D6174 
 12347      292C2032 
 12348 672f 5433335F 		.ascii	"T33_ELMT((_mat), 0, 2) * (_vin).x + MAT33_ELMT((_ma"
 12348      454C4D54 
 12348      28285F6D 
 12348      6174292C 
 12348      20302C20 
 12349 6762 74292C20 		.ascii	"t), 1, 2) * (_vin).y + MAT33_ELMT((_mat), 2, 2) * ("
 12349      312C2032 
 12349      29202A20 
 12349      285F7669 
 12349      6E292E79 
 12350 6795 5F76696E 		.ascii	"_vin).z; }\000"
 12350      292E7A3B 
 12350      207D00
 12351              	.LASF159:
 12352 67a0 5F5F464C 		.ascii	"__FLT_HAS_QUIET_NAN__ 1\000"
 12352      545F4841 
 12352      535F5155 
 12352      4945545F 
 12352      4E414E5F 
 12353              	.LASF1148:
 12354 67b8 53434E6F 		.ascii	"SCNoFAST16 __SCN16FAST(o)\000"
 12354      46415354 
 12354      3136205F 
 12354      5F53434E 
 12354      31364641 
 12355              	.LASF64:
 12356 67d2 5F5F5549 		.ascii	"__UINT_FAST64_TYPE__ long long unsigned int\000"
 12356      4E545F46 
 12356      41535436 
 12356      345F5459 
 12356      50455F5F 
 12357              	.LASF1038:
 12358 67fe 55494E54 		.ascii	"UINT_FAST64_MAX __UINT_FAST64_MAX__\000"
 12358      5F464153 
 12358      5436345F 
 12358      4D415820 
 12358      5F5F5549 
 12359              	.LASF944:
 12360 6822 7369676E 		.ascii	"signed +0\000"
 12360      6564202B 
 12360      3000
 12361              	.LASF576:
 12362 682c 4C44424C 		.ascii	"LDBL_MAX __LDBL_MAX__\000"
 12362      5F4D4158 
 12362      205F5F4C 
 12362      44424C5F 
 12362      4D41585F 
 12363              	.LASF231:
 12364 6842 5F5F464C 		.ascii	"__FLT32X_NORM_MAX__ 1.7976931348623157e+308F32x\000"
 12364      54333258 
ARM GAS  /tmp/cceRHmPh.s 			page 273


 12364      5F4E4F52 
 12364      4D5F4D41 
 12364      585F5F20 
 12365              	.LASF1206:
 12366 6872 53434E6F 		.ascii	"SCNoMAX __SCNMAX(o)\000"
 12366      4D415820 
 12366      5F5F5343 
 12366      4E4D4158 
 12366      286F2900 
 12367              	.LASF1146:
 12368 6886 53434E64 		.ascii	"SCNdFAST16 __SCN16FAST(d)\000"
 12368      46415354 
 12368      3136205F 
 12368      5F53434E 
 12368      31364641 
 12369              	.LASF1056:
 12370 68a0 5349475F 		.ascii	"SIG_ATOMIC_MAX __SIG_ATOMIC_MAX__\000"
 12370      41544F4D 
 12370      49435F4D 
 12370      4158205F 
 12370      5F534947 
 12371              	.LASF767:
 12372 68c2 5F524545 		.ascii	"_REENT_INIT_PTR_ZEROED(var) { (var)->_stdin = _REEN"
 12372      4E545F49 
 12372      4E49545F 
 12372      5054525F 
 12372      5A45524F 
 12373 68f5 545F5354 		.ascii	"T_STDIO_STREAM(var, 0); (var)->_stdout = _REENT_STD"
 12373      44494F5F 
 12373      53545245 
 12373      414D2876 
 12373      61722C20 
 12374 6928 494F5F53 		.ascii	"IO_STREAM(var, 1); (var)->_stderr = _REENT_STDIO_ST"
 12374      54524541 
 12374      4D287661 
 12374      722C2031 
 12374      293B2028 
 12375 695b 5245414D 		.ascii	"REAM(var, 2); (var)->_new._reent._rand_next = 1; (v"
 12375      28766172 
 12375      2C203229 
 12375      3B202876 
 12375      6172292D 
 12376 698e 6172292D 		.ascii	"ar)->_new._reent._r48._seed[0] = _RAND48_SEED_0; (v"
 12376      3E5F6E65 
 12376      772E5F72 
 12376      65656E74 
 12376      2E5F7234 
 12377 69c1 6172292D 		.ascii	"ar)->_new._reent._r48._seed[1] = _RAND48_SEED_1; (v"
 12377      3E5F6E65 
 12377      772E5F72 
 12377      65656E74 
 12377      2E5F7234 
 12378 69f4 6172292D 		.ascii	"ar)->_new._reent._r48._seed[2] = _RAND48_SEED_2; (v"
 12378      3E5F6E65 
 12378      772E5F72 
 12378      65656E74 
 12378      2E5F7234 
ARM GAS  /tmp/cceRHmPh.s 			page 274


 12379 6a27 6172292D 		.ascii	"ar)->_new._reent._r48._mult[0] = _RAND48_MULT_0; (v"
 12379      3E5F6E65 
 12379      772E5F72 
 12379      65656E74 
 12379      2E5F7234 
 12380 6a5a 6172292D 		.ascii	"ar)->_new._reent._r48._mult[1] = _RAND48_MULT_1; (v"
 12380      3E5F6E65 
 12380      772E5F72 
 12380      65656E74 
 12380      2E5F7234 
 12381 6a8d 6172292D 		.ascii	"ar)->_new._reent._r48._mult[2] = _RAND48_MULT_2; (v"
 12381      3E5F6E65 
 12381      772E5F72 
 12381      65656E74 
 12381      2E5F7234 
 12382 6ac0 6172292D 		.ascii	"ar)->_new._reent._r48._add = _RAND48_ADD; }\000"
 12382      3E5F6E65 
 12382      772E5F72 
 12382      65656E74 
 12382      2E5F7234 
 12383              	.LASF1087:
 12384 6aec 55494E54 		.ascii	"UINTMAX_C\000"
 12384      4D41585F 
 12384      4300
 12385              	.LASF781:
 12386 6af6 5F524545 		.ascii	"_REENT_MP_RESULT_K(ptr) ((ptr)->_result_k)\000"
 12386      4E545F4D 
 12386      505F5245 
 12386      53554C54 
 12386      5F4B2870 
 12387              	.LASF79:
 12388 6b21 5F5F5343 		.ascii	"__SCHAR_WIDTH__ 8\000"
 12388      4841525F 
 12388      57494454 
 12388      485F5F20 
 12388      3800
 12389              	.LASF1404:
 12390 6b33 4D415433 		.ascii	"MAT33_ROW_VECT3_SMUL(_mat,_row,_vin,_s) { MAT33_ELM"
 12390      335F524F 
 12390      575F5645 
 12390      4354335F 
 12390      534D554C 
 12391 6b66 5428285F 		.ascii	"T((_mat), _row, 0) = (_vin).x * (_s); MAT33_ELMT((_"
 12391      6D617429 
 12391      2C205F72 
 12391      6F772C20 
 12391      3029203D 
 12392 6b99 6D617429 		.ascii	"mat), _row, 1) = (_vin).y * (_s); MAT33_ELMT((_mat)"
 12392      2C205F72 
 12392      6F772C20 
 12392      3129203D 
 12392      20285F76 
 12393 6bcc 2C205F72 		.ascii	", _row, 2) = (_vin).z * (_s); }\000"
 12393      6F772C20 
 12393      3229203D 
 12393      20285F76 
 12393      696E292E 
ARM GAS  /tmp/cceRHmPh.s 			page 275


 12394              	.LASF1302:
 12395 6bec 46414C53 		.ascii	"FALSE false\000"
 12395      45206661 
 12395      6C736500 
 12396              	.LASF28:
 12397 6bf8 5F5F4F52 		.ascii	"__ORDER_PDP_ENDIAN__ 3412\000"
 12397      4445525F 
 12397      5044505F 
 12397      454E4449 
 12397      414E5F5F 
 12398              	.LASF1291:
 12399 6c12 4D455353 		.ascii	"MESSAGE(x) DO_PRAGMA(message (x))\000"
 12399      41474528 
 12399      78292044 
 12399      4F5F5052 
 12399      41474D41 
 12400              	.LASF11:
 12401 6c34 5F5F4154 		.ascii	"__ATOMIC_ACQUIRE 2\000"
 12401      4F4D4943 
 12401      5F414351 
 12401      55495245 
 12401      203200
 12402              	.LASF1557:
 12403 6c47 6C616D62 		.ascii	"lambda_c\000"
 12403      64615F63 
 12403      00
 12404              	.LASF60:
 12405 6c50 5F5F494E 		.ascii	"__INT_FAST64_TYPE__ long long int\000"
 12405      545F4641 
 12405      53543634 
 12405      5F545950 
 12405      455F5F20 
 12406              	.LASF874:
 12407 6c72 5F5F6E6F 		.ascii	"__noinline __attribute__ ((__noinline__))\000"
 12407      696E6C69 
 12407      6E65205F 
 12407      5F617474 
 12407      72696275 
 12408              	.LASF288:
 12409 6c9c 5F5F4143 		.ascii	"__ACCUM_FBIT__ 15\000"
 12409      43554D5F 
 12409      46424954 
 12409      5F5F2031 
 12409      3500
 12410              	.LASF813:
 12411 6cae 5F5F6174 		.ascii	"__attribute_pure__ \000"
 12411      74726962 
 12411      7574655F 
 12411      70757265 
 12411      5F5F2000 
 12412              	.LASF609:
 12413 6cc2 5F484156 		.ascii	"_HAVE_LONG_DOUBLE 1\000"
 12413      455F4C4F 
 12413      4E475F44 
 12413      4F55424C 
 12413      45203100 
 12414              	.LASF113:
ARM GAS  /tmp/cceRHmPh.s 			page 276


 12415 6cd6 5F5F494E 		.ascii	"__INT_LEAST64_MAX__ 0x7fffffffffffffffLL\000"
 12415      545F4C45 
 12415      41535436 
 12415      345F4D41 
 12415      585F5F20 
 12416              	.LASF1571:
 12417 6cff 69736F6D 		.ascii	"isometric_latitude_f\000"
 12417      65747269 
 12417      635F6C61 
 12417      74697475 
 12417      64655F66 
 12418              	.LASF1439:
 12419 6d14 4D414753 		.ascii	"MAGS_FLOAT_OF_BFP(_ef,_ei) { (_ef).x = MAG_FLOAT_OF"
 12419      5F464C4F 
 12419      41545F4F 
 12419      465F4246 
 12419      50285F65 
 12420 6d47 5F424650 		.ascii	"_BFP((_ei).x); (_ef).y = MAG_FLOAT_OF_BFP((_ei).y);"
 12420      28285F65 
 12420      69292E78 
 12420      293B2028 
 12420      5F656629 
 12421 6d7a 20285F65 		.ascii	" (_ef).z = MAG_FLOAT_OF_BFP((_ei).z); }\000"
 12421      66292E7A 
 12421      203D204D 
 12421      41475F46 
 12421      4C4F4154 
 12422              	.LASF380:
 12423 6da2 5F5F4152 		.ascii	"__ARM_FEATURE_QBIT 1\000"
 12423      4D5F4645 
 12423      41545552 
 12423      455F5142 
 12423      49542031 
 12424              	.LASF121:
 12425 6db7 5F5F5549 		.ascii	"__UINT32_C(c) c ## UL\000"
 12425      4E543332 
 12425      5F432863 
 12425      29206320 
 12425      23232055 
 12426              	.LASF1212:
 12427 6dcd 50524969 		.ascii	"PRIiPTR __PRIPTR(i)\000"
 12427      50545220 
 12427      5F5F5052 
 12427      49505452 
 12427      28692900 
 12428              	.LASF1082:
 12429 6de1 55494E54 		.ascii	"UINT32_C(c) __UINT32_C(c)\000"
 12429      33325F43 
 12429      28632920 
 12429      5F5F5549 
 12429      4E543332 
 12430              	.LASF935:
 12431 6dfb 5F494E54 		.ascii	"_INTTYPES_H \000"
 12431      54595045 
 12431      535F4820 
 12431      00
 12432              	.LASF383:
ARM GAS  /tmp/cceRHmPh.s 			page 277


 12433 6e08 5F5F4152 		.ascii	"__ARM_FEATURE_UNALIGNED 1\000"
 12433      4D5F4645 
 12433      41545552 
 12433      455F554E 
 12433      414C4947 
 12434              	.LASF1494:
 12435 6e22 464C4F41 		.ascii	"FLOAT_EULERS_ZERO(_e) EULERS_ASSIGN(_e, 0., 0., 0.)"
 12435      545F4555 
 12435      4C455253 
 12435      5F5A4552 
 12435      4F285F65 
 12436 6e55 3B00     		.ascii	";\000"
 12437              	.LASF959:
 12438 6e57 5F5F4641 		.ascii	"__FAST16 \000"
 12438      53543136 
 12438      2000
 12439              	.LASF860:
 12440 6e61 5F5F7365 		.ascii	"__section(x) __attribute__((__section__(x)))\000"
 12440      6374696F 
 12440      6E287829 
 12440      205F5F61 
 12440      74747269 
 12441              	.LASF1045:
 12442 6e8e 494E544D 		.ascii	"INTMAX_MAX\000"
 12442      41585F4D 
 12442      415800
 12443              	.LASF818:
 12444 6e99 5F5F7074 		.ascii	"__ptrvalue \000"
 12444      7276616C 
 12444      75652000 
 12445              	.LASF289:
 12446 6ea5 5F5F4143 		.ascii	"__ACCUM_IBIT__ 16\000"
 12446      43554D5F 
 12446      49424954 
 12446      5F5F2031 
 12446      3600
 12447              	.LASF990:
 12448 6eb7 55494E54 		.ascii	"UINT64_MAX __UINT64_MAX__\000"
 12448      36345F4D 
 12448      4158205F 
 12448      5F55494E 
 12448      5436345F 
 12449              	.LASF1230:
 12450 6ed1 48554745 		.ascii	"HUGE_VALF (__builtin_huge_valf())\000"
 12450      5F56414C 
 12450      4620285F 
 12450      5F627569 
 12450      6C74696E 
 12451              	.LASF1481:
 12452 6ef3 464C4F41 		.ascii	"FLOAT_QUAT_COMP_INV(_a2b,_a2c,_b2c) WARNING(\"FLOAT"
 12452      545F5155 
 12452      41545F43 
 12452      4F4D505F 
 12452      494E5628 
 12453 6f25 5F515541 		.ascii	"_QUAT_COMP_INV macro is deprecated, use the lower c"
 12453      545F434F 
 12453      4D505F49 
ARM GAS  /tmp/cceRHmPh.s 			page 278


 12453      4E56206D 
 12453      6163726F 
 12454 6f58 61736520 		.ascii	"ase function instead\") float_quat_comp_inv(&(_a2b)"
 12454      66756E63 
 12454      74696F6E 
 12454      20696E73 
 12454      74656164 
 12455 6f8a 2C202628 		.ascii	", &(_a2c), &(_b2c))\000"
 12455      5F613263 
 12455      292C2026 
 12455      285F6232 
 12455      63292900 
 12456              	.LASF92:
 12457 6f9e 5F5F494E 		.ascii	"__INTMAX_WIDTH__ 64\000"
 12457      544D4158 
 12457      5F574944 
 12457      54485F5F 
 12457      20363400 
 12458              	.LASF479:
 12459 6fb2 4D41585F 		.ascii	"MAX_FLI 16\000"
 12459      464C4920 
 12459      313600
 12460              	.LASF1456:
 12461 6fbd 666C6F61 		.ascii	"float_rmat_of_eulers float_rmat_of_eulers_321\000"
 12461      745F726D 
 12461      61745F6F 
 12461      665F6575 
 12461      6C657273 
 12462              	.LASF594:
 12463 6feb 44454349 		.ascii	"DECIMAL_DIG __DECIMAL_DIG__\000"
 12463      4D414C5F 
 12463      44494720 
 12463      5F5F4445 
 12463      43494D41 
 12464              	.LASF1:
 12465 7007 5F5F5354 		.ascii	"__STDC_VERSION__ 199901L\000"
 12465      44435F56 
 12465      45525349 
 12465      4F4E5F5F 
 12465      20313939 
 12466              	.LASF392:
 12467 7020 5F5F4152 		.ascii	"__ARM_FEATURE_LDREX 7\000"
 12467      4D5F4645 
 12467      41545552 
 12467      455F4C44 
 12467      52455820 
 12468              	.LASF1187:
 12469 7036 53434E6F 		.ascii	"SCNoFAST32 __SCN32FAST(o)\000"
 12469      46415354 
 12469      3332205F 
 12469      5F53434E 
 12469      33324641 
 12470              	.LASF115:
 12471 7050 5F5F494E 		.ascii	"__INT_LEAST64_WIDTH__ 64\000"
 12471      545F4C45 
 12471      41535436 
 12471      345F5749 
ARM GAS  /tmp/cceRHmPh.s 			page 279


 12471      4454485F 
 12472              	.LASF1300:
 12473 7069 53545249 		.ascii	"STRINGIFY(s) _STRINGIFY(s)\000"
 12473      4E474946 
 12473      59287329 
 12473      205F5354 
 12473      52494E47 
 12474              	.LASF1175:
 12475 7084 53434E69 		.ascii	"SCNiLEAST32 __SCN32LEAST(i)\000"
 12475      4C454153 
 12475      54333220 
 12475      5F5F5343 
 12475      4E33324C 
 12476              	.LASF913:
 12477 70a0 5F5F4E55 		.ascii	"__NULLABILITY_PRAGMA_POP \000"
 12477      4C4C4142 
 12477      494C4954 
 12477      595F5052 
 12477      41474D41 
 12478              	.LASF1450:
 12479 70ba 464C4F41 		.ascii	"FLOAT_RATES_LIN_CMB(_ro,_r1,_s1,_r2,_s2) { _ro.p = "
 12479      545F5241 
 12479      5445535F 
 12479      4C494E5F 
 12479      434D4228 
 12480 70ed 5F733120 		.ascii	"_s1 * _r1.p + _s2 * _r2.p; _ro.q = _s1 * _r1.q + _s"
 12480      2A205F72 
 12480      312E7020 
 12480      2B205F73 
 12480      32202A20 
 12481 7120 32202A20 		.ascii	"2 * _r2.q; _ro.r = _s1 * _r1.r + _s2 * _r2.r; }\000"
 12481      5F72322E 
 12481      713B205F 
 12481      726F2E72 
 12481      203D205F 
 12482              	.LASF598:
 12483 7150 5F4E4557 		.ascii	"_NEWLIB_VERSION_H__ 1\000"
 12483      4C49425F 
 12483      56455253 
 12483      494F4E5F 
 12483      485F5F20 
 12484              	.LASF713:
 12485 7166 5F5F6E65 		.ascii	"__need_wint_t\000"
 12485      65645F77 
 12485      696E745F 
 12485      7400
 12486              	.LASF388:
 12487 7174 5F5F4152 		.ascii	"__ARM_32BIT_STATE 1\000"
 12487      4D5F3332 
 12487      4249545F 
 12487      53544154 
 12487      45203100 
 12488              	.LASF9:
 12489 7188 5F5F4154 		.ascii	"__ATOMIC_RELAXED 0\000"
 12489      4F4D4943 
 12489      5F52454C 
 12489      41584544 
ARM GAS  /tmp/cceRHmPh.s 			page 280


 12489      203000
 12490              	.LASF1495:
 12491 719b 464C4F41 		.ascii	"FLOAT_EULERS_OF_RMAT(_e,_rm) WARNING(\"FLOAT_EULERS"
 12491      545F4555 
 12491      4C455253 
 12491      5F4F465F 
 12491      524D4154 
 12492 71cd 5F4F465F 		.ascii	"_OF_RMAT macro is deprecated, use the lower case fu"
 12492      524D4154 
 12492      206D6163 
 12492      726F2069 
 12492      73206465 
 12493 7200 6E637469 		.ascii	"nction instead\") float_eulers_of_rmat(&(_e), &(_rm"
 12493      6F6E2069 
 12493      6E737465 
 12493      61642229 
 12493      20666C6F 
 12494 7232 292900   		.ascii	"))\000"
 12495              	.LASF261:
 12496 7235 5F5F4C46 		.ascii	"__LFRACT_MAX__ 0X7FFFFFFFP-31LR\000"
 12496      52414354 
 12496      5F4D4158 
 12496      5F5F2030 
 12496      58374646 
 12497              	.LASF186:
 12498 7255 5F5F4C44 		.ascii	"__LDBL_MIN__ 2.2250738585072014e-308L\000"
 12498      424C5F4D 
 12498      494E5F5F 
 12498      20322E32 
 12498      32353037 
 12499              	.LASF281:
 12500 727b 5F5F5341 		.ascii	"__SACCUM_MAX__ 0X7FFFP-7HK\000"
 12500      4343554D 
 12500      5F4D4158 
 12500      5F5F2030 
 12500      58374646 
 12501              	.LASF1497:
 12502 7296 464C4F41 		.ascii	"FLOAT_EULERS_NORM(_e) WARNING(\"FLOAT_EULERS_NORM m"
 12502      545F4555 
 12502      4C455253 
 12502      5F4E4F52 
 12502      4D285F65 
 12503 72c8 6163726F 		.ascii	"acro is deprecated, use the lower case function ins"
 12503      20697320 
 12503      64657072 
 12503      65636174 
 12503      65642C20 
 12504 72fb 74656164 		.ascii	"tead\") float_eulers_norm(&(_e))\000"
 12504      22292066 
 12504      6C6F6174 
 12504      5F65756C 
 12504      6572735F 
 12505              	.LASF936:
 12506 731b 5F535953 		.ascii	"_SYS__INTSUP_H \000"
 12506      5F5F494E 
 12506      54535550 
 12506      5F482000 
ARM GAS  /tmp/cceRHmPh.s 			page 281


 12507              	.LASF1345:
 12508 732b 56454354 		.ascii	"VECT2_COPY(_a,_b) { (_a).x = (_b).x; (_a).y = (_b)."
 12508      325F434F 
 12508      5059285F 
 12508      612C5F62 
 12508      29207B20 
 12509 735e 793B207D 		.ascii	"y; }\000"
 12509      00
 12510              	.LASF637:
 12511 7363 5F5F504F 		.ascii	"__POSIX_VISIBLE 200809\000"
 12511      5349585F 
 12511      56495349 
 12511      424C4520 
 12511      32303038 
 12512              	.LASF600:
 12513 737a 5F5F4E45 		.ascii	"__NEWLIB__ 3\000"
 12513      574C4942 
 12513      5F5F2033 
 12513      00
 12514              	.LASF251:
 12515 7387 5F5F4652 		.ascii	"__FRACT_MAX__ 0X7FFFP-15R\000"
 12515      4143545F 
 12515      4D41585F 
 12515      5F203058 
 12515      37464646 
 12516              	.LASF1520:
 12517 73a1 43537562 		.ascii	"CSub(z1,z2) { z2.re -= z1.re; z2.im -= z1.im; }\000"
 12517      287A312C 
 12517      7A322920 
 12517      7B207A32 
 12517      2E726520 
 12518              	.LASF1564:
 12519 73d1 65707369 		.ascii	"epsilon\000"
 12519      6C6F6E00 
 12520              	.LASF879:
 12521 73d9 5F5F7265 		.ascii	"__returns_twice __attribute__((__returns_twice__))\000"
 12521      7475726E 
 12521      735F7477 
 12521      69636520 
 12521      5F5F6174 
 12522              	.LASF461:
 12523 740c 44415441 		.ascii	"DATALINK PPRZ\000"
 12523      4C494E4B 
 12523      20505052 
 12523      5A00
 12524              	.LASF780:
 12525 741a 5F524545 		.ascii	"_REENT_MP_RESULT(ptr) ((ptr)->_result)\000"
 12525      4E545F4D 
 12525      505F5245 
 12525      53554C54 
 12525      28707472 
 12526              	.LASF139:
 12527 7441 5F5F4743 		.ascii	"__GCC_IEC_559 0\000"
 12527      435F4945 
 12527      435F3535 
 12527      39203000 
 12528              	.LASF627:
ARM GAS  /tmp/cceRHmPh.s 			page 282


 12529 7451 5F504F53 		.ascii	"_POSIX_C_SOURCE\000"
 12529      49585F43 
 12529      5F534F55 
 12529      52434500 
 12530              	.LASF567:
 12531 7461 4C44424C 		.ascii	"LDBL_MAX_10_EXP\000"
 12531      5F4D4158 
 12531      5F31305F 
 12531      45585000 
 12532              	.LASF233:
 12533 7471 5F5F464C 		.ascii	"__FLT32X_EPSILON__ 2.2204460492503131e-16F32x\000"
 12533      54333258 
 12533      5F455053 
 12533      494C4F4E 
 12533      5F5F2032 
 12534              	.LASF497:
 12535 749f 54454C45 		.ascii	"TELEMETRY_FREQUENCY 100\000"
 12535      4D455452 
 12535      595F4652 
 12535      45515545 
 12535      4E435920 
 12536              	.LASF1183:
 12537 74b7 50524978 		.ascii	"PRIxFAST32 __PRI32FAST(x)\000"
 12537      46415354 
 12537      3332205F 
 12537      5F505249 
 12537      33324641 
 12538              	.LASF1596:
 12539 74d1 2F686F6D 		.ascii	"/home/argroos/paparazzi/sw/airborne\000"
 12539      652F6172 
 12539      67726F6F 
 12539      732F7061 
 12539      70617261 
 12540              	.LASF1582:
 12541 74f5 656E755F 		.ascii	"enu_d\000"
 12541      6400
 12542              	.LASF1381:
 12543 74fb 45554C45 		.ascii	"EULERS_SMUL(_eo,_ei,_s) { (_eo).phi = (_ei).phi * ("
 12543      52535F53 
 12543      4D554C28 
 12543      5F656F2C 
 12543      5F65692C 
 12544 752e 5F73293B 		.ascii	"_s); (_eo).theta = (_ei).theta * (_s); (_eo).psi = "
 12544      20285F65 
 12544      6F292E74 
 12544      68657461 
 12544      203D2028 
 12545 7561 285F6569 		.ascii	"(_ei).psi * (_s); }\000"
 12545      292E7073 
 12545      69202A20 
 12545      285F7329 
 12545      3B207D00 
 12546              	.LASF565:
 12547 7575 464C545F 		.ascii	"FLT_MAX_10_EXP\000"
 12547      4D41585F 
 12547      31305F45 
 12547      585000
ARM GAS  /tmp/cceRHmPh.s 			page 283


 12548              	.LASF798:
 12549 7584 5F524545 		.ascii	"_REENT_GETDATE_ERR_P(ptr) (&((ptr)->_new._reent._ge"
 12549      4E545F47 
 12549      45544441 
 12549      54455F45 
 12549      52525F50 
 12550 75b7 74646174 		.ascii	"tdate_err))\000"
 12550      655F6572 
 12550      72292900 
 12551              	.LASF649:
 12552 75c3 5F454E44 		.ascii	"_END_STD_C \000"
 12552      5F535444 
 12552      5F432000 
 12553              	.LASF735:
 12554 75cf 5F4E554C 		.ascii	"_NULL 0\000"
 12554      4C203000 
 12555              	.LASF1431:
 12556 75d7 52415445 		.ascii	"RATES_FLOAT_OF_BFP(_rf,_ri) { (_rf).p = RATE_FLOAT_"
 12556      535F464C 
 12556      4F41545F 
 12556      4F465F42 
 12556      4650285F 
 12557 760a 4F465F42 		.ascii	"OF_BFP((_ri).p); (_rf).q = RATE_FLOAT_OF_BFP((_ri)."
 12557      46502828 
 12557      5F726929 
 12557      2E70293B 
 12557      20285F72 
 12558 763d 71293B20 		.ascii	"q); (_rf).r = RATE_FLOAT_OF_BFP((_ri).r); }\000"
 12558      285F7266 
 12558      292E7220 
 12558      3D205241 
 12558      54455F46 
 12559              	.LASF688:
 12560 7669 5F5F7763 		.ascii	"__wchar_t__ \000"
 12560      6861725F 
 12560      745F5F20 
 12560      00
 12561              	.LASF535:
 12562 7676 464C545F 		.ascii	"FLT_MANT_DIG\000"
 12562      4D414E54 
 12562      5F444947 
 12562      00
 12563              	.LASF1542:
 12564 7683 55746D43 		.ascii	"UtmCoor_f\000"
 12564      6F6F725F 
 12564      6600
 12565              	.LASF930:
 12566 768d 5F5F7074 		.ascii	"__pt_guarded_by(x) __lock_annotate(pt_guarded_by(x)"
 12566      5F677561 
 12566      72646564 
 12566      5F627928 
 12566      7829205F 
 12567 76c0 2900     		.ascii	")\000"
 12568              	.LASF702:
 12569 76c2 5F574348 		.ascii	"_WCHAR_T_DECLARED \000"
 12569      41525F54 
 12569      5F444543 
ARM GAS  /tmp/cceRHmPh.s 			page 284


 12569      4C415245 
 12569      442000
 12570              	.LASF861:
 12571 76d5 5F5F616C 		.ascii	"__alloc_size(x) __attribute__((__alloc_size__(x)))\000"
 12571      6C6F635F 
 12571      73697A65 
 12571      28782920 
 12571      5F5F6174 
 12572              	.LASF1186:
 12573 7708 53434E69 		.ascii	"SCNiFAST32 __SCN32FAST(i)\000"
 12573      46415354 
 12573      3332205F 
 12573      5F53434E 
 12573      33324641 
 12574              	.LASF772:
 12575 7722 5F524545 		.ascii	"_REENT_CHECK_EMERGENCY(ptr) \000"
 12575      4E545F43 
 12575      4845434B 
 12575      5F454D45 
 12575      5247454E 
 12576              	.LASF615:
 12577 773f 5F554E42 		.ascii	"_UNBUF_STREAM_OPT 1\000"
 12577      55465F53 
 12577      54524541 
 12577      4D5F4F50 
 12577      54203100 
 12578              	.LASF438:
 12579 7753 5F5F4152 		.ascii	"__ARM_BF16_FORMAT_ALTERNATIVE\000"
 12579      4D5F4246 
 12579      31365F46 
 12579      4F524D41 
 12579      545F414C 
 12580              	.LASF599:
 12581 7771 5F4E4557 		.ascii	"_NEWLIB_VERSION \"3.3.0\"\000"
 12581      4C49425F 
 12581      56455253 
 12581      494F4E20 
 12581      22332E33 
 12582              	.LASF106:
 12583 7789 5F5F494E 		.ascii	"__INT_LEAST8_WIDTH__ 8\000"
 12583      545F4C45 
 12583      41535438 
 12583      5F574944 
 12583      54485F5F 
 12584              	.LASF5:
 12585 77a0 5F5F474E 		.ascii	"__GNUC__ 10\000"
 12585      55435F5F 
 12585      20313000 
 12586              	.LASF431:
 12587 77ac 5F5F4152 		.ascii	"__ARM_FEATURE_COPROC\000"
 12587      4D5F4645 
 12587      41545552 
 12587      455F434F 
 12587      50524F43 
 12588              	.LASF58:
 12589 77c1 5F5F494E 		.ascii	"__INT_FAST16_TYPE__ int\000"
 12589      545F4641 
ARM GAS  /tmp/cceRHmPh.s 			page 285


 12589      53543136 
 12589      5F545950 
 12589      455F5F20 
 12590              	.LASF1506:
 12591 77d9 444F5542 		.ascii	"DOUBLE_EULERS_OF_QUAT(_e,_q) WARNING(\"DOUBLE_EULER"
 12591      4C455F45 
 12591      554C4552 
 12591      535F4F46 
 12591      5F515541 
 12592 780b 535F4F46 		.ascii	"S_OF_QUAT macro is deprecated, use the lower case f"
 12592      5F515541 
 12592      54206D61 
 12592      63726F20 
 12592      69732064 
 12593 783e 756E6374 		.ascii	"unction instead\") double_eulers_of_quat(&(_e), &(_"
 12593      696F6E20 
 12593      696E7374 
 12593      65616422 
 12593      2920646F 
 12594 7870 71292900 		.ascii	"q))\000"
 12595              	.LASF534:
 12596 7874 464C545F 		.ascii	"FLT_RADIX __FLT_RADIX__\000"
 12596      52414449 
 12596      58205F5F 
 12596      464C545F 
 12596      52414449 
 12597              	.LASF112:
 12598 788c 5F5F494E 		.ascii	"__INT_LEAST32_WIDTH__ 32\000"
 12598      545F4C45 
 12598      41535433 
 12598      325F5749 
 12598      4454485F 
 12599              	.LASF1304:
 12600 78a5 6269745F 		.ascii	"bit_is_set(x,b) ((x >> b) & 0x1)\000"
 12600      69735F73 
 12600      65742878 
 12600      2C622920 
 12600      28287820 
 12601              	.LASF1312:
 12602 78c6 436C6F73 		.ascii	"CloseRadAngles(_c1,_c2) ({ float _diff = _c1 - _c2;"
 12602      65526164 
 12602      416E676C 
 12602      6573285F 
 12602      63312C5F 
 12603 78f9 204E6F72 		.ascii	" NormRadAngle(_diff); fabsf(_diff) < 0.0177; })\000"
 12603      6D526164 
 12603      416E676C 
 12603      65285F64 
 12603      69666629 
 12604              	.LASF337:
 12605 7929 5F5F5554 		.ascii	"__UTQ_IBIT__ 0\000"
 12605      515F4942 
 12605      49545F5F 
 12605      203000
 12606              	.LASF960:
 12607 7938 5F5F4641 		.ascii	"__FAST32 \000"
 12607      53543332 
ARM GAS  /tmp/cceRHmPh.s 			page 286


 12607      2000
 12608              	.LASF377:
 12609 7942 5F5F5349 		.ascii	"__SIZEOF_WINT_T__ 4\000"
 12609      5A454F46 
 12609      5F57494E 
 12609      545F545F 
 12609      5F203400 
 12610              	.LASF1128:
 12611 7956 53434E78 		.ascii	"SCNx16 __SCN16(x)\000"
 12611      3136205F 
 12611      5F53434E 
 12611      31362878 
 12611      2900
 12612              	.LASF1017:
 12613 7968 494E545F 		.ascii	"INT_FAST8_MIN\000"
 12613      46415354 
 12613      385F4D49 
 12613      4E00
 12614              	.LASF450:
 12615 7976 41504F47 		.ascii	"APOGEE_BARO_SDLOG TRUE\000"
 12615      45455F42 
 12615      41524F5F 
 12615      53444C4F 
 12615      47205452 
 12616              	.LASF528:
 12617 798d 55544D5F 		.ascii	"UTM_OF_ENU_ADD(_utm,_pos,_utm0) { (_utm).east = (_u"
 12617      4F465F45 
 12617      4E555F41 
 12617      4444285F 
 12617      75746D2C 
 12618 79c0 746D3029 		.ascii	"tm0).east + (_pos).x; (_utm).north = (_utm0).north "
 12618      2E656173 
 12618      74202B20 
 12618      285F706F 
 12618      73292E78 
 12619 79f3 2B20285F 		.ascii	"+ (_pos).y; (_utm).alt = (_utm0).alt + (_pos).z; }\000"
 12619      706F7329 
 12619      2E793B20 
 12619      285F7574 
 12619      6D292E61 
 12620              	.LASF587:
 12621 7a26 44424C5F 		.ascii	"DBL_MIN __DBL_MIN__\000"
 12621      4D494E20 
 12621      5F5F4442 
 12621      4C5F4D49 
 12621      4E5F5F00 
 12622              	.LASF381:
 12623 7a3a 5F5F4152 		.ascii	"__ARM_FEATURE_SAT 1\000"
 12623      4D5F4645 
 12623      41545552 
 12623      455F5341 
 12623      54203100 
 12624              	.LASF1423:
 12625 7a4e 524D4154 		.ascii	"RMAT_VECT3_TRANSP_MUL(_vout,_rmat,_vin) { (_vout).x"
 12625      5F564543 
 12625      54335F54 
 12625      52414E53 
ARM GAS  /tmp/cceRHmPh.s 			page 287


 12625      505F4D55 
 12626 7a81 203D2052 		.ascii	" = RMAT_ELMT((_rmat), 0, 0) * (_vin).x + RMAT_ELMT("
 12626      4D41545F 
 12626      454C4D54 
 12626      28285F72 
 12626      6D617429 
 12627 7ab4 285F726D 		.ascii	"(_rmat), 1, 0) * (_vin).y + RMAT_ELMT((_rmat), 2, 0"
 12627      6174292C 
 12627      20312C20 
 12627      3029202A 
 12627      20285F76 
 12628 7ae7 29202A20 		.ascii	") * (_vin).z; (_vout).y = RMAT_ELMT((_rmat), 0, 1) "
 12628      285F7669 
 12628      6E292E7A 
 12628      3B20285F 
 12628      766F7574 
 12629 7b1a 2A20285F 		.ascii	"* (_vin).x + RMAT_ELMT((_rmat), 1, 1) * (_vin).y + "
 12629      76696E29 
 12629      2E78202B 
 12629      20524D41 
 12629      545F454C 
 12630 7b4d 524D4154 		.ascii	"RMAT_ELMT((_rmat), 2, 1) * (_vin).z; (_vout).z = RM"
 12630      5F454C4D 
 12630      5428285F 
 12630      726D6174 
 12630      292C2032 
 12631 7b80 41545F45 		.ascii	"AT_ELMT((_rmat), 0, 2) * (_vin).x + RMAT_ELMT((_rma"
 12631      4C4D5428 
 12631      285F726D 
 12631      6174292C 
 12631      20302C20 
 12632 7bb3 74292C20 		.ascii	"t), 1, 2) * (_vin).y + RMAT_ELMT((_rmat), 2, 2) * ("
 12632      312C2032 
 12632      29202A20 
 12632      285F7669 
 12632      6E292E79 
 12633 7be6 5F76696E 		.ascii	"_vin).z; }\000"
 12633      292E7A3B 
 12633      207D00
 12634              	.LASF70:
 12635 7bf1 5F5F494E 		.ascii	"__INT_MAX__ 0x7fffffff\000"
 12635      545F4D41 
 12635      585F5F20 
 12635      30783766 
 12635      66666666 
 12636              	.LASF580:
 12637 7c08 464C545F 		.ascii	"FLT_EPSILON __FLT_EPSILON__\000"
 12637      45505349 
 12637      4C4F4E20 
 12637      5F5F464C 
 12637      545F4550 
 12638              	.LASF152:
 12639 7c24 5F5F464C 		.ascii	"__FLT_MAX__ 3.4028234663852886e+38F\000"
 12639      545F4D41 
 12639      585F5F20 
 12639      332E3430 
 12639      32383233 
ARM GAS  /tmp/cceRHmPh.s 			page 288


 12640              	.LASF67:
 12641 7c48 5F5F4758 		.ascii	"__GXX_ABI_VERSION 1014\000"
 12641      585F4142 
 12641      495F5645 
 12641      5253494F 
 12641      4E203130 
 12642              	.LASF49:
 12643 7c5f 5F5F494E 		.ascii	"__INT_LEAST8_TYPE__ signed char\000"
 12643      545F4C45 
 12643      41535438 
 12643      5F545950 
 12643      455F5F20 
 12644              	.LASF692:
 12645 7c7f 5F545F57 		.ascii	"_T_WCHAR \000"
 12645      43484152 
 12645      2000
 12646              	.LASF1073:
 12647 7c89 494E5433 		.ascii	"INT32_C\000"
 12647      325F4300 
 12648              	.LASF165:
 12649 7c91 5F5F4442 		.ascii	"__DBL_MAX_EXP__ 1024\000"
 12649      4C5F4D41 
 12649      585F4558 
 12649      505F5F20 
 12649      31303234 
 12650              	.LASF258:
 12651 7ca6 5F5F4C46 		.ascii	"__LFRACT_FBIT__ 31\000"
 12651      52414354 
 12651      5F464249 
 12651      545F5F20 
 12651      333100
 12652              	.LASF408:
 12653 7cb9 5F5F4152 		.ascii	"__ARM_ARCH_ISA_THUMB\000"
 12653      4D5F4152 
 12653      43485F49 
 12653      53415F54 
 12653      48554D42 
 12654              	.LASF376:
 12655 7cce 5F5F5349 		.ascii	"__SIZEOF_WCHAR_T__ 4\000"
 12655      5A454F46 
 12655      5F574348 
 12655      41525F54 
 12655      5F5F2034 
 12656              	.LASF1085:
 12657 7ce3 494E544D 		.ascii	"INTMAX_C\000"
 12657      41585F43 
 12657      00
 12658              	.LASF286:
 12659 7cec 5F5F5553 		.ascii	"__USACCUM_MAX__ 0XFFFFP-8UHK\000"
 12659      41434355 
 12659      4D5F4D41 
 12659      585F5F20 
 12659      30584646 
 12660              	.LASF1133:
 12661 7d09 50524978 		.ascii	"PRIxLEAST16 __PRI16LEAST(x)\000"
 12661      4C454153 
 12661      54313620 
ARM GAS  /tmp/cceRHmPh.s 			page 289


 12661      5F5F5052 
 12661      4931364C 
 12662              	.LASF896:
 12663 7d25 5F5F7374 		.ascii	"__strong_reference(sym,aliassym) extern __typeof (s"
 12663      726F6E67 
 12663      5F726566 
 12663      6572656E 
 12663      63652873 
 12664 7d58 796D2920 		.ascii	"ym) aliassym __attribute__ ((__alias__ (#sym)))\000"
 12664      616C6961 
 12664      7373796D 
 12664      205F5F61 
 12664      74747269 
 12665              	.LASF1343:
 12666 7d88 53515541 		.ascii	"SQUARE(_a) ((_a)*(_a))\000"
 12666      5245285F 
 12666      61292028 
 12666      285F6129 
 12666      2A285F61 
 12667              	.LASF96:
 12668 7d9f 5F5F494E 		.ascii	"__INT8_MAX__ 0x7f\000"
 12668      54385F4D 
 12668      41585F5F 
 12668      20307837 
 12668      6600
 12669              	.LASF694:
 12670 7db1 5F574348 		.ascii	"_WCHAR_T_ \000"
 12670      41525F54 
 12670      5F2000
 12671              	.LASF110:
 12672 7dbc 5F5F494E 		.ascii	"__INT_LEAST32_MAX__ 0x7fffffffL\000"
 12672      545F4C45 
 12672      41535433 
 12672      325F4D41 
 12672      585F5F20 
 12673              	.LASF593:
 12674 7ddc 44454349 		.ascii	"DECIMAL_DIG\000"
 12674      4D414C5F 
 12674      44494700 
 12675              	.LASF830:
 12676 7de8 5F5F474E 		.ascii	"__GNUCLIKE_BUILTIN_VARARGS 1\000"
 12676      55434C49 
 12676      4B455F42 
 12676      55494C54 
 12676      494E5F56 
 12677              	.LASF490:
 12678 7e05 52414449 		.ascii	"RADIO_CONTROL 1\000"
 12678      4F5F434F 
 12678      4E54524F 
 12678      4C203100 
 12679              	.LASF809:
 12680 7e15 5F5F4153 		.ascii	"__ASMNAME(cname) __XSTRING (__USER_LABEL_PREFIX__) "
 12680      4D4E414D 
 12680      4528636E 
 12680      616D6529 
 12680      205F5F58 
 12681 7e48 636E616D 		.ascii	"cname\000"
ARM GAS  /tmp/cceRHmPh.s 			page 290


 12681      6500
 12682              	.LASF868:
 12683 7e4e 5F546872 		.ascii	"_Thread_local __thread\000"
 12683      6561645F 
 12683      6C6F6361 
 12683      6C205F5F 
 12683      74687265 
 12684              	.LASF1441:
 12685 7e65 464C4F41 		.ascii	"FLOAT_ANGLE_NORMALIZE(_a) { while (_a > M_PI) _a -="
 12685      545F414E 
 12685      474C455F 
 12685      4E4F524D 
 12685      414C495A 
 12686 7e98 2028322E 		.ascii	" (2.*M_PI); while (_a < -M_PI) _a += (2.*M_PI); }\000"
 12686      2A4D5F50 
 12686      49293B20 
 12686      7768696C 
 12686      6520285F 
 12687              	.LASF287:
 12688 7eca 5F5F5553 		.ascii	"__USACCUM_EPSILON__ 0x1P-8UHK\000"
 12688      41434355 
 12688      4D5F4550 
 12688      53494C4F 
 12688      4E5F5F20 
 12689              	.LASF462:
 12690 7ee8 44454255 		.ascii	"DEBUG_GPS_UBX_UCENTER TRUE\000"
 12690      475F4750 
 12690      535F5542 
 12690      585F5543 
 12690      454E5445 
 12691              	.LASF1471:
 12692 7f03 464C4F41 		.ascii	"FLOAT_QUAT_NORM2(_q) (SQUARE((_q).qi) + SQUARE((_q)"
 12692      545F5155 
 12692      41545F4E 
 12692      4F524D32 
 12692      285F7129 
 12693 7f36 2E717829 		.ascii	".qx) + SQUARE((_q).qy) + SQUARE((_q).qz))\000"
 12693      202B2053 
 12693      51554152 
 12693      4528285F 
 12693      71292E71 
 12694              	.LASF673:
 12695 7f60 5F535953 		.ascii	"_SYS_SIZE_T_H \000"
 12695      5F53495A 
 12695      455F545F 
 12695      482000
 12696              	.LASF188:
 12697 7f6f 5F5F4C44 		.ascii	"__LDBL_DENORM_MIN__ 4.9406564584124654e-324L\000"
 12697      424C5F44 
 12697      454E4F52 
 12697      4D5F4D49 
 12697      4E5F5F20 
 12698              	.LASF89:
 12699 7f9c 5F5F494E 		.ascii	"__INTMAX_C(c) c ## LL\000"
 12699      544D4158 
 12699      5F432863 
 12699      29206320 
ARM GAS  /tmp/cceRHmPh.s 			page 291


 12699      2323204C 
 12700              	.LASF300:
 12701 7fb2 5F5F4C41 		.ascii	"__LACCUM_MIN__ (-0X1P31LK-0X1P31LK)\000"
 12701      4343554D 
 12701      5F4D494E 
 12701      5F5F2028 
 12701      2D305831 
 12702              	.LASF133:
 12703 7fd6 5F5F5549 		.ascii	"__UINT_FAST16_MAX__ 0xffffffffU\000"
 12703      4E545F46 
 12703      41535431 
 12703      365F4D41 
 12703      585F5F20 
 12704              	.LASF428:
 12705 7ff6 5F5F4152 		.ascii	"__ARM_ARCH_EXT_IDIV__ 1\000"
 12705      4D5F4152 
 12705      43485F45 
 12705      58545F49 
 12705      4449565F 
 12706              	.LASF542:
 12707 800e 44424C5F 		.ascii	"DBL_DIG\000"
 12707      44494700 
 12708              	.LASF1377:
 12709 8016 45554C45 		.ascii	"EULERS_ASSIGN(_e,_phi,_theta,_psi) { (_e).phi = (_p"
 12709      52535F41 
 12709      53534947 
 12709      4E285F65 
 12709      2C5F7068 
 12710 8049 6869293B 		.ascii	"hi); (_e).theta = (_theta); (_e).psi = (_psi); }\000"
 12710      20285F65 
 12710      292E7468 
 12710      65746120 
 12710      3D20285F 
 12711              	.LASF776:
 12712 807a 5F524545 		.ascii	"_REENT_RAND_NEXT(ptr) ((ptr)->_new._reent._rand_nex"
 12712      4E545F52 
 12712      414E445F 
 12712      4E455854 
 12712      28707472 
 12713 80ad 742900   		.ascii	"t)\000"
 12714              	.LASF480:
 12715 80b0 4E415620 		.ascii	"NAV 1\000"
 12715      3100
 12716              	.LASF1172:
 12717 80b6 50524978 		.ascii	"PRIxLEAST32 __PRI32LEAST(x)\000"
 12717      4C454153 
 12717      54333220 
 12717      5F5F5052 
 12717      4933324C 
 12718              	.LASF919:
 12719 80d2 5F5F6C6F 		.ascii	"__locks_shared(...) __lock_annotate(shared_lock_fun"
 12719      636B735F 
 12719      73686172 
 12719      6564282E 
 12719      2E2E2920 
 12720 8105 6374696F 		.ascii	"ction(__VA_ARGS__))\000"
 12720      6E285F5F 
ARM GAS  /tmp/cceRHmPh.s 			page 292


 12720      56415F41 
 12720      5247535F 
 12720      5F292900 
 12721              	.LASF832:
 12722 8119 5F5F474E 		.ascii	"__GNUCLIKE_BUILTIN_VAALIST 1\000"
 12722      55434C49 
 12722      4B455F42 
 12722      55494C54 
 12722      494E5F56 
 12723              	.LASF257:
 12724 8136 5F5F5546 		.ascii	"__UFRACT_EPSILON__ 0x1P-16UR\000"
 12724      52414354 
 12724      5F455053 
 12724      494C4F4E 
 12724      5F5F2030 
 12725              	.LASF444:
 12726 8153 5050525A 		.ascii	"PPRZLINK_UNALIGNED_ACCESS 1\000"
 12726      4C494E4B 
 12726      5F554E41 
 12726      4C49474E 
 12726      45445F41 
 12727              	.LASF1112:
 12728 816f 5F5F5052 		.ascii	"__PRI16(x) __INT16 __STRINGIFY(x)\000"
 12728      49313628 
 12728      7829205F 
 12728      5F494E54 
 12728      3136205F 
 12729              	.LASF78:
 12730 8191 5F5F5349 		.ascii	"__SIZE_MAX__ 0xffffffffU\000"
 12730      5A455F4D 
 12730      41585F5F 
 12730      20307866 
 12730      66666666 
 12731              	.LASF757:
 12732 81aa 5F52414E 		.ascii	"_RAND48_MULT_0 (0xe66d)\000"
 12732      4434385F 
 12732      4D554C54 
 12732      5F302028 
 12732      30786536 
 12733              	.LASF1067:
 12734 81c2 57494E54 		.ascii	"WINT_MIN\000"
 12734      5F4D494E 
 12734      00
 12735              	.LASF1316:
 12736 81cb 5261644F 		.ascii	"RadOfDeciDeg(x) ((x) * (M_PI/1800.))\000"
 12736      66446563 
 12736      69446567 
 12736      28782920 
 12736      28287829 
 12737              	.LASF1533:
 12738 81f0 696E7438 		.ascii	"int8_t\000"
 12738      5F7400
 12739              	.LASF1217:
 12740 81f7 53434E64 		.ascii	"SCNdPTR __SCNPTR(d)\000"
 12740      50545220 
 12740      5F5F5343 
 12740      4E505452 
ARM GAS  /tmp/cceRHmPh.s 			page 293


 12740      28642900 
 12741              	.LASF1314:
 12742 820b 44656369 		.ascii	"DeciDegOfRad(x) ((x) * (1800./ M_PI))\000"
 12742      4465674F 
 12742      66526164 
 12742      28782920 
 12742      28287829 
 12743              	.LASF548:
 12744 8231 44424C5F 		.ascii	"DBL_MIN_EXP\000"
 12744      4D494E5F 
 12744      45585000 
 12745              	.LASF1597:
 12746 823d 6C74705F 		.ascii	"ltp_def_from_ecef_f\000"
 12746      6465665F 
 12746      66726F6D 
 12746      5F656365 
 12746      665F6600 
 12747              	.LASF132:
 12748 8251 5F5F5549 		.ascii	"__UINT_FAST8_MAX__ 0xffffffffU\000"
 12748      4E545F46 
 12748      41535438 
 12748      5F4D4158 
 12748      5F5F2030 
 12749              	.LASF482:
 12750 8270 50455249 		.ascii	"PERIODIC_TELEMETRY 1\000"
 12750      4F444943 
 12750      5F54454C 
 12750      454D4554 
 12750      52592031 
 12751              	.LASF800:
 12752 8285 5F4B6D61 		.ascii	"_Kmax (sizeof (size_t) << 3)\000"
 12752      78202873 
 12752      697A656F 
 12752      66202873 
 12752      697A655F 
 12753              	.LASF802:
 12754 82a2 5F524545 		.ascii	"_REENT _impure_ptr\000"
 12754      4E54205F 
 12754      696D7075 
 12754      72655F70 
 12754      747200
 12755              	.LASF790:
 12756 82b5 5F524545 		.ascii	"_REENT_WCTOMB_STATE(ptr) ((ptr)->_new._reent._wctom"
 12756      4E545F57 
 12756      43544F4D 
 12756      425F5354 
 12756      41544528 
 12757 82e8 625F7374 		.ascii	"b_state)\000"
 12757      61746529 
 12757      00
 12758              	.LASF1256:
 12759 82f1 6C6F6732 		.ascii	"log2(x) (log (x) / _M_LN2)\000"
 12759      28782920 
 12759      286C6F67 
 12759      20287829 
 12759      202F205F 
 12760              	.LASF323:
ARM GAS  /tmp/cceRHmPh.s 			page 294


 12761 830c 5F5F5351 		.ascii	"__SQ_IBIT__ 0\000"
 12761      5F494249 
 12761      545F5F20 
 12761      3000
 12762              	.LASF1024:
 12763 831a 494E545F 		.ascii	"INT_FAST16_MIN (-INT_FAST16_MAX - 1)\000"
 12763      46415354 
 12763      31365F4D 
 12763      494E2028 
 12763      2D494E54 
 12764              	.LASF395:
 12765 833f 5F5F4152 		.ascii	"__ARM_FEATURE_SIMD32 1\000"
 12765      4D5F4645 
 12765      41545552 
 12765      455F5349 
 12765      4D443332 
 12766              	.LASF707:
 12767 8356 5F5F6E65 		.ascii	"__need_NULL\000"
 12767      65645F4E 
 12767      554C4C00 
 12768              	.LASF708:
 12769 8362 6F666673 		.ascii	"offsetof(TYPE,MEMBER) __builtin_offsetof (TYPE, MEM"
 12769      65746F66 
 12769      28545950 
 12769      452C4D45 
 12769      4D424552 
 12770 8395 42455229 		.ascii	"BER)\000"
 12770      00
 12771              	.LASF509:
 12772 839a 5553455F 		.ascii	"USE_IMU 1\000"
 12772      494D5520 
 12772      3100
 12773              	.LASF1386:
 12774 83a4 52415445 		.ascii	"RATES_ADD(_a,_b) { (_a).p += (_b).p; (_a).q += (_b)"
 12774      535F4144 
 12774      44285F61 
 12774      2C5F6229 
 12774      207B2028 
 12775 83d7 2E713B20 		.ascii	".q; (_a).r += (_b).r; }\000"
 12775      285F6129 
 12775      2E72202B 
 12775      3D20285F 
 12775      62292E72 
 12776              	.LASF331:
 12777 83ef 5F5F5548 		.ascii	"__UHQ_IBIT__ 0\000"
 12777      515F4942 
 12777      49545F5F 
 12777      203000
 12778              	.LASF734:
 12779 83fe 5F54494D 		.ascii	"_TIMER_T_ unsigned long\000"
 12779      45525F54 
 12779      5F20756E 
 12779      7369676E 
 12779      6564206C 
 12780              	.LASF858:
 12781 8416 5F5F7061 		.ascii	"__packed __attribute__((__packed__))\000"
 12781      636B6564 
ARM GAS  /tmp/cceRHmPh.s 			page 295


 12781      205F5F61 
 12781      74747269 
 12781      62757465 
 12782              	.LASF1126:
 12783 843b 53434E6F 		.ascii	"SCNo16 __SCN16(o)\000"
 12783      3136205F 
 12783      5F53434E 
 12783      3136286F 
 12783      2900
 12784              	.LASF240:
 12785 844d 5F5F5346 		.ascii	"__SFRACT_MIN__ (-0.5HR-0.5HR)\000"
 12785      52414354 
 12785      5F4D494E 
 12785      5F5F2028 
 12785      2D302E35 
 12786              	.LASF406:
 12787 846b 5F5F7468 		.ascii	"__thumb2__ 1\000"
 12787      756D6232 
 12787      5F5F2031 
 12787      00
 12788              	.LASF359:
 12789 8478 5F5F4743 		.ascii	"__GCC_HAVE_SYNC_COMPARE_AND_SWAP_1 1\000"
 12789      435F4841 
 12789      56455F53 
 12789      594E435F 
 12789      434F4D50 
 12790              	.LASF298:
 12791 849d 5F5F4C41 		.ascii	"__LACCUM_FBIT__ 31\000"
 12791      4343554D 
 12791      5F464249 
 12791      545F5F20 
 12791      333100
 12792              	.LASF1167:
 12793 84b0 53434E78 		.ascii	"SCNx32 __SCN32(x)\000"
 12793      3332205F 
 12793      5F53434E 
 12793      33322878 
 12793      2900
 12794              	.LASF1205:
 12795 84c2 53434E69 		.ascii	"SCNiMAX __SCNMAX(i)\000"
 12795      4D415820 
 12795      5F5F5343 
 12795      4E4D4158 
 12795      28692900 
 12796              	.LASF305:
 12797 84d6 5F5F554C 		.ascii	"__ULACCUM_MIN__ 0.0ULK\000"
 12797      41434355 
 12797      4D5F4D49 
 12797      4E5F5F20 
 12797      302E3055 
 12798              	.LASF190:
 12799 84ed 5F5F4C44 		.ascii	"__LDBL_HAS_INFINITY__ 1\000"
 12799      424C5F48 
 12799      41535F49 
 12799      4E46494E 
 12799      4954595F 
 12800              	.LASF520:
ARM GAS  /tmp/cceRHmPh.s 			page 296


 12801 8505 454E555F 		.ascii	"ENU_OF_TO_NED(_po,_pi) { (_po).x = (_pi).y; (_po).y"
 12801      4F465F54 
 12801      4F5F4E45 
 12801      44285F70 
 12801      6F2C5F70 
 12802 8538 203D2028 		.ascii	" = (_pi).x; (_po).z = -(_pi).z; }\000"
 12802      5F706929 
 12802      2E783B20 
 12802      285F706F 
 12802      292E7A20 
 12803              	.LASF318:
 12804 855a 5F5F5151 		.ascii	"__QQ_FBIT__ 7\000"
 12804      5F464249 
 12804      545F5F20 
 12804      3700
 12805              	.LASF870:
 12806 8568 5F5F6D69 		.ascii	"__min_size(x) static (x)\000"
 12806      6E5F7369 
 12806      7A652878 
 12806      29207374 
 12806      61746963 
 12807              	.LASF1169:
 12808 8581 50524969 		.ascii	"PRIiLEAST32 __PRI32LEAST(i)\000"
 12808      4C454153 
 12808      54333220 
 12808      5F5F5052 
 12808      4933324C 
 12809              	.LASF709:
 12810 859d 5F535953 		.ascii	"_SYS__TYPES_H \000"
 12810      5F5F5459 
 12810      5045535F 
 12810      482000
 12811              	.LASF1587:
 12812 85ac 656E755F 		.ascii	"enu_of_lla_point_f\000"
 12812      6F665F6C 
 12812      6C615F70 
 12812      6F696E74 
 12812      5F6600
 12813              	.LASF756:
 12814 85bf 5F52414E 		.ascii	"_RAND48_SEED_2 (0x1234)\000"
 12814      4434385F 
 12814      53454544 
 12814      5F322028 
 12814      30783132 
 12815              	.LASF71:
 12816 85d7 5F5F4C4F 		.ascii	"__LONG_MAX__ 0x7fffffffL\000"
 12816      4E475F4D 
 12816      41585F5F 
 12816      20307837 
 12816      66666666 
 12817              	.LASF1476:
 12818 85f0 464C4F41 		.ascii	"FLOAT_QUAT_NORM(_q) WARNING(\"FLOAT_QUAT_NORM macro"
 12818      545F5155 
 12818      41545F4E 
 12818      4F524D28 
 12818      5F712920 
 12819 8622 20697320 		.ascii	" is deprecated, use the lower case function instead"
ARM GAS  /tmp/cceRHmPh.s 			page 297


 12819      64657072 
 12819      65636174 
 12819      65642C20 
 12819      75736520 
 12820 8655 22292066 		.ascii	"\") float_quat_norm(&(_q))\000"
 12820      6C6F6174 
 12820      5F717561 
 12820      745F6E6F 
 12820      726D2826 
 12821              	.LASF1399:
 12822 866f 4D415433 		.ascii	"MAT33_COPY(_mat1,_mat2) { MAT33_ELMT((_mat1),0,0) ="
 12822      335F434F 
 12822      5059285F 
 12822      6D617431 
 12822      2C5F6D61 
 12823 86a2 204D4154 		.ascii	" MAT33_ELMT((_mat2),0,0); MAT33_ELMT((_mat1),0,1) ="
 12823      33335F45 
 12823      4C4D5428 
 12823      285F6D61 
 12823      7432292C 
 12824 86d5 204D4154 		.ascii	" MAT33_ELMT((_mat2),0,1); MAT33_ELMT((_mat1),0,2) ="
 12824      33335F45 
 12824      4C4D5428 
 12824      285F6D61 
 12824      7432292C 
 12825 8708 204D4154 		.ascii	" MAT33_ELMT((_mat2),0,2); MAT33_ELMT((_mat1),1,0) ="
 12825      33335F45 
 12825      4C4D5428 
 12825      285F6D61 
 12825      7432292C 
 12826 873b 204D4154 		.ascii	" MAT33_ELMT((_mat2),1,0); MAT33_ELMT((_mat1),1,1) ="
 12826      33335F45 
 12826      4C4D5428 
 12826      285F6D61 
 12826      7432292C 
 12827 876e 204D4154 		.ascii	" MAT33_ELMT((_mat2),1,1); MAT33_ELMT((_mat1),1,2) ="
 12827      33335F45 
 12827      4C4D5428 
 12827      285F6D61 
 12827      7432292C 
 12828 87a1 204D4154 		.ascii	" MAT33_ELMT((_mat2),1,2); MAT33_ELMT((_mat1),2,0) ="
 12828      33335F45 
 12828      4C4D5428 
 12828      285F6D61 
 12828      7432292C 
 12829 87d4 204D4154 		.ascii	" MAT33_ELMT((_mat2),2,0); MAT33_ELMT((_mat1),2,1) ="
 12829      33335F45 
 12829      4C4D5428 
 12829      285F6D61 
 12829      7432292C 
 12830 8807 204D4154 		.ascii	" MAT33_ELMT((_mat2),2,1); MAT33_ELMT((_mat1),2,2) ="
 12830      33335F45 
 12830      4C4D5428 
 12830      285F6D61 
 12830      7432292C 
 12831 883a 204D4154 		.ascii	" MAT33_ELMT((_mat2),2,2); }\000"
 12831      33335F45 
ARM GAS  /tmp/cceRHmPh.s 			page 298


 12831      4C4D5428 
 12831      285F6D61 
 12831      7432292C 
 12832              	.LASF902:
 12833 8856 5F5F5243 		.ascii	"__RCSID(s) struct __hack\000"
 12833      53494428 
 12833      73292073 
 12833      74727563 
 12833      74205F5F 
 12834              	.LASF746:
 12835 886f 5F5F6C6F 		.ascii	"__lock_try_acquire(lock) ((void) 0)\000"
 12835      636B5F74 
 12835      72795F61 
 12835      63717569 
 12835      7265286C 
 12836              	.LASF111:
 12837 8893 5F5F494E 		.ascii	"__INT32_C(c) c ## L\000"
 12837      5433325F 
 12837      43286329 
 12837      20632023 
 12837      23204C00 
 12838              	.LASF822:
 12839 88a7 5F5F454E 		.ascii	"__END_DECLS \000"
 12839      445F4445 
 12839      434C5320 
 12839      00
 12840              	.LASF762:
 12841 88b4 5F524545 		.ascii	"_REENT_ASCTIME_SIZE 26\000"
 12841      4E545F41 
 12841      53435449 
 12841      4D455F53 
 12841      495A4520 
 12842              	.LASF216:
 12843 88cb 5F5F464C 		.ascii	"__FLT64_NORM_MAX__ 1.7976931348623157e+308F64\000"
 12843      5436345F 
 12843      4E4F524D 
 12843      5F4D4158 
 12843      5F5F2031 
 12844              	.LASF1039:
 12845 88f9 494E5450 		.ascii	"INTPTR_MAX\000"
 12845      54525F4D 
 12845      415800
 12846              	.LASF947:
 12847 8904 73686F72 		.ascii	"short +1\000"
 12847      74202B31 
 12847      00
 12848              	.LASF831:
 12849 890d 5F5F474E 		.ascii	"__GNUCLIKE_BUILTIN_STDARG 1\000"
 12849      55434C49 
 12849      4B455F42 
 12849      55494C54 
 12849      494E5F53 
 12850              	.LASF1563:
 12851 8929 6C616D62 		.ascii	"lambda_\000"
 12851      64615F00 
 12852              	.LASF1335:
 12853 8931 426C656E 		.ascii	"Blend(a,b,rho) (((rho)*(a))+(1-(rho))*(b))\000"
ARM GAS  /tmp/cceRHmPh.s 			page 299


 12853      6428612C 
 12853      622C7268 
 12853      6F292028 
 12853      28287268 
 12854              	.LASF1090:
 12855 895c 5F5F5354 		.ascii	"__STRINGIFY(a) #a\000"
 12855      52494E47 
 12855      49465928 
 12855      61292023 
 12855      6100
 12856              	.LASF617:
 12857 896e 5F5F4945 		.ascii	"__IEEE_LITTLE_ENDIAN \000"
 12857      45455F4C 
 12857      4954544C 
 12857      455F454E 
 12857      4449414E 
 12858              	.LASF1510:
 12859 8984 4B302030 		.ascii	"K0 0.9996\000"
 12859      2E393939 
 12859      3600
 12860              	.LASF1032:
 12861 898e 55494E54 		.ascii	"UINT_FAST32_MAX __UINT_FAST32_MAX__\000"
 12861      5F464153 
 12861      5433325F 
 12861      4D415820 
 12861      5F5F5549 
 12862              	.LASF749:
 12863 89b2 5F5F6C6F 		.ascii	"__lock_release_recursive(lock) ((void) 0)\000"
 12863      636B5F72 
 12863      656C6561 
 12863      73655F72 
 12863      65637572 
 12864              	.LASF1081:
 12865 89dc 55494E54 		.ascii	"UINT32_C\000"
 12865      33325F43 
 12865      00
 12866              	.LASF1528:
 12867 89e5 73686F72 		.ascii	"short unsigned int\000"
 12867      7420756E 
 12867      7369676E 
 12867      65642069 
 12867      6E7400
 12868              	.LASF1436:
 12869 89f8 53504545 		.ascii	"SPEEDS_BFP_OF_REAL(_ef,_ei) { (_ef).x = SPEED_BFP_O"
 12869      44535F42 
 12869      46505F4F 
 12869      465F5245 
 12869      414C285F 
 12870 8a2b 465F5245 		.ascii	"F_REAL((_ei).x); (_ef).y = SPEED_BFP_OF_REAL((_ei)."
 12870      414C2828 
 12870      5F656929 
 12870      2E78293B 
 12870      20285F65 
 12871 8a5e 79293B20 		.ascii	"y); (_ef).z = SPEED_BFP_OF_REAL((_ei).z); }\000"
 12871      285F6566 
 12871      292E7A20 
 12871      3D205350 
ARM GAS  /tmp/cceRHmPh.s 			page 300


 12871      4545445F 
 12872              	.LASF1493:
 12873 8a8a 464C4F41 		.ascii	"FLOAT_QUAT_OF_RMAT(_q,_r) WARNING(\"FLOAT_QUAT_OF_R"
 12873      545F5155 
 12873      41545F4F 
 12873      465F524D 
 12873      4154285F 
 12874 8abc 4D415420 		.ascii	"MAT macro is deprecated, use the lower case functio"
 12874      6D616372 
 12874      6F206973 
 12874      20646570 
 12874      72656361 
 12875 8aef 6E20696E 		.ascii	"n instead\") float_quat_of_rmat(&(_q), &(_r))\000"
 12875      73746561 
 12875      64222920 
 12875      666C6F61 
 12875      745F7175 
 12876              	.LASF1525:
 12877 8b1c 7369676E 		.ascii	"signed char\000"
 12877      65642063 
 12877      68617200 
 12878              	.LASF726:
 12879 8b28 5F5F5F69 		.ascii	"___int_least64_t_defined 1\000"
 12879      6E745F6C 
 12879      65617374 
 12879      36345F74 
 12879      5F646566 
 12880              	.LASF503:
 12881 8b43 5553455F 		.ascii	"USE_AHRS_ALIGNER 1\000"
 12881      41485253 
 12881      5F414C49 
 12881      474E4552 
 12881      203100
 12882              	.LASF1327:
 12883 8b56 426F756E 		.ascii	"Bound(_x,_min,_max) { if (!(_x > (_min))) _x = (_mi"
 12883      64285F78 
 12883      2C5F6D69 
 12883      6E2C5F6D 
 12883      61782920 
 12884 8b89 6E293B20 		.ascii	"n); else if (!(_x < (_max))) _x = (_max); }\000"
 12884      656C7365 
 12884      20696620 
 12884      2821285F 
 12884      78203C20 
 12885              	.LASF670:
 12886 8bb5 5F5F7369 		.ascii	"__size_t__ \000"
 12886      7A655F74 
 12886      5F5F2000 
 12887              	.LASF464:
 12888 8bc1 444F574E 		.ascii	"DOWNLINK_DEVICE uart1\000"
 12888      4C494E4B 
 12888      5F444556 
 12888      49434520 
 12888      75617274 
 12889              	.LASF1250:
 12890 8bd7 69736772 		.ascii	"isgreater(__x,__y) (__builtin_isgreater (__x, __y))"
 12890      65617465 
ARM GAS  /tmp/cceRHmPh.s 			page 301


 12890      72285F5F 
 12890      782C5F5F 
 12890      79292028 
 12891 8c0a 00       		.ascii	"\000"
 12892              	.LASF883:
 12893 8c0b 5F5F7072 		.ascii	"__predict_false(exp) __builtin_expect((exp), 0)\000"
 12893      65646963 
 12893      745F6661 
 12893      6C736528 
 12893      65787029 
 12894              	.LASF223:
 12895 8c3b 5F5F464C 		.ascii	"__FLT32X_MANT_DIG__ 53\000"
 12895      54333258 
 12895      5F4D414E 
 12895      545F4449 
 12895      475F5F20 
 12896              	.LASF1086:
 12897 8c52 494E544D 		.ascii	"INTMAX_C(c) __INTMAX_C(c)\000"
 12897      41585F43 
 12897      28632920 
 12897      5F5F494E 
 12897      544D4158 
 12898              	.LASF1066:
 12899 8c6c 57494E54 		.ascii	"WINT_MAX __WINT_MAX__\000"
 12899      5F4D4158 
 12899      205F5F57 
 12899      494E545F 
 12899      4D41585F 
 12900              	.LASF1419:
 12901 8c82 524D4154 		.ascii	"RMAT_ELMT(_rm,_row,_col) MAT33_ELMT(_rm, _row, _col"
 12901      5F454C4D 
 12901      54285F72 
 12901      6D2C5F72 
 12901      6F772C5F 
 12902 8cb5 2900     		.ascii	")\000"
 12903              	.LASF317:
 12904 8cb7 5F5F554C 		.ascii	"__ULLACCUM_EPSILON__ 0x1P-32ULLK\000"
 12904      4C414343 
 12904      554D5F45 
 12904      5053494C 
 12904      4F4E5F5F 
 12905              	.LASF24:
 12906 8cd8 5F5F4348 		.ascii	"__CHAR_BIT__ 8\000"
 12906      41525F42 
 12906      49545F5F 
 12906      203800
 12907              	.LASF1047:
 12908 8ce7 494E544D 		.ascii	"INTMAX_MIN\000"
 12908      41585F4D 
 12908      494E00
 12909              	.LASF36:
 12910 8cf2 5F5F494E 		.ascii	"__INTMAX_TYPE__ long long int\000"
 12910      544D4158 
 12910      5F545950 
 12910      455F5F20 
 12910      6C6F6E67 
 12911              	.LASF1553:
ARM GAS  /tmp/cceRHmPh.s 			page 302


 12912 8d10 73657269 		.ascii	"serie_coeff_proj_mercator_inverse\000"
 12912      655F636F 
 12912      6566665F 
 12912      70726F6A 
 12912      5F6D6572 
 12913              	.LASF641:
 12914 8d32 5F504F49 		.ascii	"_POINTER_INT long\000"
 12914      4E544552 
 12914      5F494E54 
 12914      206C6F6E 
 12914      6700
 12915              	.LASF1152:
 12916 8d44 5F5F5343 		.ascii	"__SCN32(x) __INT32 __STRINGIFY(x)\000"
 12916      4E333228 
 12916      7829205F 
 12916      5F494E54 
 12916      3332205F 
 12917              	.LASF766:
 12918 8d66 5F524545 		.ascii	"_REENT_INIT(var) { 0, _REENT_STDIO_STREAM(&(var), 0"
 12918      4E545F49 
 12918      4E495428 
 12918      76617229 
 12918      207B2030 
 12919 8d99 292C205F 		.ascii	"), _REENT_STDIO_STREAM(&(var), 1), _REENT_STDIO_STR"
 12919      5245454E 
 12919      545F5354 
 12919      44494F5F 
 12919      53545245 
 12920 8dcc 45414D28 		.ascii	"EAM(&(var), 2), 0, \"\", 0, _NULL, 0, _NULL, _NULL,"
 12920      26287661 
 12920      72292C20 
 12920      32292C20 
 12920      302C2022 
 12921 8dfd 20302C20 		.ascii	" 0, _NULL, _NULL, 0, _NULL, { { 0, _NULL, \"\", {0,"
 12921      5F4E554C 
 12921      4C2C205F 
 12921      4E554C4C 
 12921      2C20302C 
 12922 8e2e 20302C20 		.ascii	" 0, 0, 0, 0, 0, 0, 0, 0}, 0, 1, { {_RAND48_SEED_0, "
 12922      302C2030 
 12922      2C20302C 
 12922      20302C20 
 12922      302C2030 
 12923 8e61 5F52414E 		.ascii	"_RAND48_SEED_1, _RAND48_SEED_2}, {_RAND48_MULT_0, _"
 12923      4434385F 
 12923      53454544 
 12923      5F312C20 
 12923      5F52414E 
 12924 8e94 52414E44 		.ascii	"RAND48_MULT_1, _RAND48_MULT_2}, _RAND48_ADD }, {0, "
 12924      34385F4D 
 12924      554C545F 
 12924      312C205F 
 12924      52414E44 
 12925 8ec7 7B307D7D 		.ascii	"{0}}, {0, {0}}, {0, {0}}, \"\", \"\", 0, {0, {0}}, "
 12925      2C207B30 
 12925      2C207B30 
 12925      7D7D2C20 
ARM GAS  /tmp/cceRHmPh.s 			page 303


 12925      7B302C20 
 12926 8ef6 7B302C20 		.ascii	"{0, {0}}, {0, {0}}, {0, {0}}, {0, {0}} } }, _REENT_"
 12926      7B307D7D 
 12926      2C207B30 
 12926      2C207B30 
 12926      7D7D2C20 
 12927 8f29 494E4954 		.ascii	"INIT_ATEXIT _NULL, {_NULL, 0, _NULL} }\000"
 12927      5F415445 
 12927      58495420 
 12927      5F4E554C 
 12927      4C2C207B 
 12928              	.LASF1318:
 12929 8f50 4D4F664D 		.ascii	"MOfMm(_x) (((float)(_x))/1000.)\000"
 12929      6D285F78 
 12929      29202828 
 12929      28666C6F 
 12929      61742928 
 12930              	.LASF386:
 12931 8f70 5F5F4152 		.ascii	"__ARM_FEATURE_DOTPROD\000"
 12931      4D5F4645 
 12931      41545552 
 12931      455F444F 
 12931      5450524F 
 12932              	.LASF804:
 12933 8f86 5F474C4F 		.ascii	"_GLOBAL_ATEXIT (_GLOBAL_REENT->_atexit)\000"
 12933      42414C5F 
 12933      41544558 
 12933      49542028 
 12933      5F474C4F 
 12934              	.LASF949:
 12935 8fae 5F5F696E 		.ascii	"__int20__ +2\000"
 12935      7432305F 
 12935      5F202B32 
 12935      00
 12936              	.LASF921:
 12937 8fbb 5F5F7472 		.ascii	"__trylocks_shared(...) __lock_annotate(shared_trylo"
 12937      796C6F63 
 12937      6B735F73 
 12937      68617265 
 12937      64282E2E 
 12938 8fee 636B5F66 		.ascii	"ck_function(__VA_ARGS__))\000"
 12938      756E6374 
 12938      696F6E28 
 12938      5F5F5641 
 12938      5F415247 
 12939              	.LASF595:
 12940 9008 5F535452 		.ascii	"_STRING_H_ \000"
 12940      494E475F 
 12940      485F2000 
 12941              	.LASF1201:
 12942 9014 50524975 		.ascii	"PRIuMAX __PRIMAX(u)\000"
 12942      4D415820 
 12942      5F5F5052 
 12942      494D4158 
 12942      28752900 
 12943              	.LASF217:
 12944 9028 5F5F464C 		.ascii	"__FLT64_MIN__ 2.2250738585072014e-308F64\000"
ARM GAS  /tmp/cceRHmPh.s 			page 304


 12944      5436345F 
 12944      4D494E5F 
 12944      5F20322E 
 12944      32323530 
 12945              	.LASF136:
 12946 9051 5F5F494E 		.ascii	"__INTPTR_MAX__ 0x7fffffff\000"
 12946      54505452 
 12946      5F4D4158 
 12946      5F5F2030 
 12946      78376666 
 12947              	.LASF168:
 12948 906b 5F5F4442 		.ascii	"__DBL_MAX__ ((double)1.7976931348623157e+308L)\000"
 12948      4C5F4D41 
 12948      585F5F20 
 12948      2828646F 
 12948      75626C65 
 12949              	.LASF1209:
 12950 909a 5F5F5052 		.ascii	"__PRIPTR(x) __STRINGIFY(x)\000"
 12950      49505452 
 12950      28782920 
 12950      5F5F5354 
 12950      52494E47 
 12951              	.LASF1445:
 12952 90b5 464C4F41 		.ascii	"FLOAT_VECT3_ZERO(_v) VECT3_ASSIGN(_v, 0., 0., 0.)\000"
 12952      545F5645 
 12952      4354335F 
 12952      5A45524F 
 12952      285F7629 
 12953              	.LASF1475:
 12954 90e7 464C4F41 		.ascii	"FLOAT_QUAT_WRAP_SHORTEST(_q) WARNING(\"FLOAT_QUAT_W"
 12954      545F5155 
 12954      41545F57 
 12954      5241505F 
 12954      53484F52 
 12955 9119 5241505F 		.ascii	"RAP_SHORTEST macro is deprecated, use the lower cas"
 12955      53484F52 
 12955      54455354 
 12955      206D6163 
 12955      726F2069 
 12956 914c 65206675 		.ascii	"e function instead\") float_quat_wrap_shortest(&(_q"
 12956      6E637469 
 12956      6F6E2069 
 12956      6E737465 
 12956      61642229 
 12957 917e 292900   		.ascii	"))\000"
 12958              	.LASF372:
 12959 9181 5F5F4743 		.ascii	"__GCC_ATOMIC_POINTER_LOCK_FREE 2\000"
 12959      435F4154 
 12959      4F4D4943 
 12959      5F504F49 
 12959      4E544552 
 12960              	.LASF909:
 12961 91a2 5F4E6F6E 		.ascii	"_Nonnull \000"
 12961      6E756C6C 
 12961      2000
 12962              	.LASF737:
 12963 91ac 5F5F5359 		.ascii	"__SYS_LOCK_H__ \000"
ARM GAS  /tmp/cceRHmPh.s 			page 305


 12963      535F4C4F 
 12963      434B5F48 
 12963      5F5F2000 
 12964              	.LASF1275:
 12965 91bc 4D5F5351 		.ascii	"M_SQRTPI 1.77245385090551602792981\000"
 12965      52545049 
 12965      20312E37 
 12965      37323435 
 12965      33383530 
 12966              	.LASF758:
 12967 91df 5F52414E 		.ascii	"_RAND48_MULT_1 (0xdeec)\000"
 12967      4434385F 
 12967      4D554C54 
 12967      5F312028 
 12967      30786465 
 12968              	.LASF417:
 12969 91f7 5F5F4152 		.ascii	"__ARM_FEATURE_FP16_SCALAR_ARITHMETIC\000"
 12969      4D5F4645 
 12969      41545552 
 12969      455F4650 
 12969      31365F53 
 12970              	.LASF1435:
 12971 921c 53504545 		.ascii	"SPEEDS_FLOAT_OF_BFP(_ef,_ei) { (_ef).x = SPEED_FLOA"
 12971      44535F46 
 12971      4C4F4154 
 12971      5F4F465F 
 12971      42465028 
 12972 924f 545F4F46 		.ascii	"T_OF_BFP((_ei).x); (_ef).y = SPEED_FLOAT_OF_BFP((_e"
 12972      5F424650 
 12972      28285F65 
 12972      69292E78 
 12972      293B2028 
 12973 9282 69292E79 		.ascii	"i).y); (_ef).z = SPEED_FLOAT_OF_BFP((_ei).z); }\000"
 12973      293B2028 
 12973      5F656629 
 12973      2E7A203D 
 12973      20535045 
 12974              	.LASF197:
 12975 92b2 5F5F464C 		.ascii	"__FLT32_MAX_10_EXP__ 38\000"
 12975      5433325F 
 12975      4D41585F 
 12975      31305F45 
 12975      58505F5F 
 12976              	.LASF1266:
 12977 92ca 4D5F5049 		.ascii	"M_PI_2 1.57079632679489661923\000"
 12977      5F322031 
 12977      2E353730 
 12977      37393633 
 12977      32363739 
 12978              	.LASF778:
 12979 92e8 5F524545 		.ascii	"_REENT_RAND48_MULT(ptr) ((ptr)->_new._reent._r48._m"
 12979      4E545F52 
 12979      414E4434 
 12979      385F4D55 
 12979      4C542870 
 12980 931b 756C7429 		.ascii	"ult)\000"
 12980      00
ARM GAS  /tmp/cceRHmPh.s 			page 306


 12981              	.LASF1006:
 12982 9320 494E545F 		.ascii	"INT_LEAST32_MIN (-INT_LEAST32_MAX - 1)\000"
 12982      4C454153 
 12982      5433325F 
 12982      4D494E20 
 12982      282D494E 
 12983              	.LASF1417:
 12984 9347 51554154 		.ascii	"QUAT_SDIV(_qo,_qi,_s) { (_qo).qi = (_qi).qi / (_s);"
 12984      5F534449 
 12984      56285F71 
 12984      6F2C5F71 
 12984      692C5F73 
 12985 937a 20285F71 		.ascii	" (_qo).qx = (_qi).qx / (_s); (_qo).qy = (_qi).qy / "
 12985      6F292E71 
 12985      78203D20 
 12985      285F7169 
 12985      292E7178 
 12986 93ad 285F7329 		.ascii	"(_s); (_qo).qz = (_qi).qz / (_s); }\000"
 12986      3B20285F 
 12986      716F292E 
 12986      717A203D 
 12986      20285F71 
 12987              	.LASF991:
 12988 93d1 494E545F 		.ascii	"INT_LEAST8_MAX\000"
 12988      4C454153 
 12988      54385F4D 
 12988      415800
 12989              	.LASF477:
 12990 93e0 494D555F 		.ascii	"IMU_APOGEE_I2C_DEV i2c1\000"
 12990      41504F47 
 12990      45455F49 
 12990      32435F44 
 12990      45562069 
 12991              	.LASF129:
 12992 93f8 5F5F494E 		.ascii	"__INT_FAST32_WIDTH__ 32\000"
 12992      545F4641 
 12992      53543332 
 12992      5F574944 
 12992      54485F5F 
 12993              	.LASF189:
 12994 9410 5F5F4C44 		.ascii	"__LDBL_HAS_DENORM__ 1\000"
 12994      424C5F48 
 12994      41535F44 
 12994      454E4F52 
 12994      4D5F5F20 
 12995              	.LASF1244:
 12996 9426 6670636C 		.ascii	"fpclassify(__x) (__builtin_fpclassify (FP_NAN, FP_I"
 12996      61737369 
 12996      6679285F 
 12996      5F782920 
 12996      285F5F62 
 12997 9459 4E46494E 		.ascii	"NFINITE, FP_NORMAL, FP_SUBNORMAL, FP_ZERO, __x))\000"
 12997      4954452C 
 12997      2046505F 
 12997      4E4F524D 
 12997      414C2C20 
 12998              	.LASF1166:
ARM GAS  /tmp/cceRHmPh.s 			page 307


 12999 948a 53434E75 		.ascii	"SCNu32 __SCN32(u)\000"
 12999      3332205F 
 12999      5F53434E 
 12999      33322875 
 12999      2900
 13000              	.LASF659:
 13001 949c 5F414E53 		.ascii	"_ANSI_STDDEF_H \000"
 13001      495F5354 
 13001      44444546 
 13001      5F482000 
 13002              	.LASF414:
 13003 94ac 5F5F4152 		.ascii	"__ARM_FP16_FORMAT_IEEE\000"
 13003      4D5F4650 
 13003      31365F46 
 13003      4F524D41 
 13003      545F4945 
 13004              	.LASF1428:
 13005 94c3 524D4154 		.ascii	"RMAT_FLOAT_OF_BFP(_ef,_ei) { (_ef).m[0] = TRIG_FLOA"
 13005      5F464C4F 
 13005      41545F4F 
 13005      465F4246 
 13005      50285F65 
 13006 94f6 545F4F46 		.ascii	"T_OF_BFP((_ei).m[0]); (_ef).m[1] = TRIG_FLOAT_OF_BF"
 13006      5F424650 
 13006      28285F65 
 13006      69292E6D 
 13006      5B305D29 
 13007 9529 5028285F 		.ascii	"P((_ei).m[1]); (_ef).m[2] = TRIG_FLOAT_OF_BFP((_ei)"
 13007      6569292E 
 13007      6D5B315D 
 13007      293B2028 
 13007      5F656629 
 13008 955c 2E6D5B32 		.ascii	".m[2]); (_ef).m[3] = TRIG_FLOAT_OF_BFP((_ei).m[3]);"
 13008      5D293B20 
 13008      285F6566 
 13008      292E6D5B 
 13008      335D203D 
 13009 958f 20285F65 		.ascii	" (_ef).m[4] = TRIG_FLOAT_OF_BFP((_ei).m[4]); (_ef)."
 13009      66292E6D 
 13009      5B345D20 
 13009      3D205452 
 13009      49475F46 
 13010 95c2 6D5B355D 		.ascii	"m[5] = TRIG_FLOAT_OF_BFP((_ei).m[5]); (_ef).m[6] = "
 13010      203D2054 
 13010      5249475F 
 13010      464C4F41 
 13010      545F4F46 
 13011 95f5 54524947 		.ascii	"TRIG_FLOAT_OF_BFP((_ei).m[6]); (_ef).m[7] = TRIG_FL"
 13011      5F464C4F 
 13011      41545F4F 
 13011      465F4246 
 13011      5028285F 
 13012 9628 4F41545F 		.ascii	"OAT_OF_BFP((_ei).m[7]); (_ef).m[8] = TRIG_FLOAT_OF_"
 13012      4F465F42 
 13012      46502828 
 13012      5F656929 
 13012      2E6D5B37 
ARM GAS  /tmp/cceRHmPh.s 			page 308


 13013 965b 42465028 		.ascii	"BFP((_ei).m[8]); }\000"
 13013      285F6569 
 13013      292E6D5B 
 13013      385D293B 
 13013      207D00
 13014              	.LASF1116:
 13015 966e 5F5F5343 		.ascii	"__SCN16LEAST(x) __LEAST16 __STRINGIFY(x)\000"
 13015      4E31364C 
 13015      45415354 
 13015      28782920 
 13015      5F5F4C45 
 13016              	.LASF53:
 13017 9697 5F5F5549 		.ascii	"__UINT_LEAST8_TYPE__ unsigned char\000"
 13017      4E545F4C 
 13017      45415354 
 13017      385F5459 
 13017      50455F5F 
 13018              	.LASF759:
 13019 96ba 5F52414E 		.ascii	"_RAND48_MULT_2 (0x0005)\000"
 13019      4434385F 
 13019      4D554C54 
 13019      5F322028 
 13019      30783030 
 13020              	.LASF733:
 13021 96d2 5F434C4F 		.ascii	"_CLOCKID_T_ unsigned long\000"
 13021      434B4944 
 13021      5F545F20 
 13021      756E7369 
 13021      676E6564 
 13022              	.LASF843:
 13023 96ec 5F5F4343 		.ascii	"__CC_SUPPORTS_VARADIC_XXX 1\000"
 13023      5F535550 
 13023      504F5254 
 13023      535F5641 
 13023      52414449 
 13024              	.LASF441:
 13025 9708 5F5F5553 		.ascii	"__USES_INITFINI__ 1\000"
 13025      45535F49 
 13025      4E495446 
 13025      494E495F 
 13025      5F203100 
 13026              	.LASF907:
 13027 971c 5F5F4445 		.ascii	"__DEVOLATILE(type,var) ((type)(__uintptr_t)(volatil"
 13027      564F4C41 
 13027      54494C45 
 13027      28747970 
 13027      652C7661 
 13028 974f 6520766F 		.ascii	"e void *)(var))\000"
 13028      6964202A 
 13028      29287661 
 13028      72292900 
 13029              	.LASF1168:
 13030 975f 50524964 		.ascii	"PRIdLEAST32 __PRI32LEAST(d)\000"
 13030      4C454153 
 13030      54333220 
 13030      5F5F5052 
 13030      4933324C 
ARM GAS  /tmp/cceRHmPh.s 			page 309


 13031              	.LASF212:
 13032 977b 5F5F464C 		.ascii	"__FLT64_MAX_EXP__ 1024\000"
 13032      5436345F 
 13032      4D41585F 
 13032      4558505F 
 13032      5F203130 
 13033              	.LASF1446:
 13034 9792 464C4F41 		.ascii	"FLOAT_VECT3_NORM(_v) sqrtf(VECT3_NORM2(_v))\000"
 13034      545F5645 
 13034      4354335F 
 13034      4E4F524D 
 13034      285F7629 
 13035              	.LASF819:
 13036 97be 5F5F6861 		.ascii	"__has_extension __has_feature\000"
 13036      735F6578 
 13036      74656E73 
 13036      696F6E20 
 13036      5F5F6861 
 13037              	.LASF559:
 13038 97dc 464C545F 		.ascii	"FLT_MAX_EXP\000"
 13038      4D41585F 
 13038      45585000 
 13039              	.LASF1375:
 13040 97e8 56454354 		.ascii	"VECT3_RATES_CROSS_VECT3(_vo,_r1,_v2) { (_vo).x = (_"
 13040      335F5241 
 13040      5445535F 
 13040      43524F53 
 13040      535F5645 
 13041 981b 7231292E 		.ascii	"r1).q*(_v2).z - (_r1).r*(_v2).y; (_vo).y = (_r1).r*"
 13041      712A285F 
 13041      7632292E 
 13041      7A202D20 
 13041      285F7231 
 13042 984e 285F7632 		.ascii	"(_v2).x - (_r1).p*(_v2).z; (_vo).z = (_r1).p*(_v2)."
 13042      292E7820 
 13042      2D20285F 
 13042      7231292E 
 13042      702A285F 
 13043 9881 79202D20 		.ascii	"y - (_r1).q*(_v2).x; }\000"
 13043      285F7231 
 13043      292E712A 
 13043      285F7632 
 13043      292E783B 
 13044              	.LASF1507:
 13045 9898 444F5542 		.ascii	"DOUBLE_QUAT_VMULT(v_out,q,v_in) WARNING(\"DOUBLE_QU"
 13045      4C455F51 
 13045      5541545F 
 13045      564D554C 
 13045      5428765F 
 13046 98ca 41545F56 		.ascii	"AT_VMULT macro is deprecated, use the lower case fu"
 13046      4D554C54 
 13046      206D6163 
 13046      726F2069 
 13046      73206465 
 13047 98fd 6E637469 		.ascii	"nction instead\") double_quat_vmult(&(v_out), &(q),"
 13047      6F6E2069 
 13047      6E737465 
ARM GAS  /tmp/cceRHmPh.s 			page 310


 13047      61642229 
 13047      20646F75 
 13048 992f 20262876 		.ascii	" &(v_in))\000"
 13048      5F696E29 
 13048      2900
 13049              	.LASF922:
 13050 9939 5F5F756E 		.ascii	"__unlocks(...) __lock_annotate(unlock_function(__VA"
 13050      6C6F636B 
 13050      73282E2E 
 13050      2E29205F 
 13050      5F6C6F63 
 13051 996c 5F415247 		.ascii	"_ARGS__))\000"
 13051      535F5F29 
 13051      2900
 13052              	.LASF246:
 13053 9976 5F5F5553 		.ascii	"__USFRACT_MAX__ 0XFFP-8UHR\000"
 13053      46524143 
 13053      545F4D41 
 13053      585F5F20 
 13053      30584646 
 13054              	.LASF481:
 13055 9991 50455249 		.ascii	"PERIODIC_FREQUENCY 100\000"
 13055      4F444943 
 13055      5F465245 
 13055      5155454E 
 13055      43592031 
 13056              	.LASF447:
 13057 99a8 41485253 		.ascii	"AHRS_ALIGNER_LED 2\000"
 13057      5F414C49 
 13057      474E4552 
 13057      5F4C4544 
 13057      203200
 13058              	.LASF1248:
 13059 99bb 69736E6F 		.ascii	"isnormal(__x) (__builtin_isnormal (__x))\000"
 13059      726D616C 
 13059      285F5F78 
 13059      2920285F 
 13059      5F627569 
 13060              	.LASF199:
 13061 99e4 5F5F464C 		.ascii	"__FLT32_MAX__ 3.4028234663852886e+38F32\000"
 13061      5433325F 
 13061      4D41585F 
 13061      5F20332E 
 13061      34303238 
 13062              	.LASF537:
 13063 9a0c 4C44424C 		.ascii	"LDBL_MANT_DIG\000"
 13063      5F4D414E 
 13063      545F4449 
 13063      4700
 13064              	.LASF742:
 13065 9a1a 5F5F6C6F 		.ascii	"__lock_close(lock) ((void) 0)\000"
 13065      636B5F63 
 13065      6C6F7365 
 13065      286C6F63 
 13065      6B292028 
 13066              	.LASF1403:
 13067 9a38 4D415433 		.ascii	"MAT33_INV(_minv,_m) { const float m00 = MAT33_ELMT("
ARM GAS  /tmp/cceRHmPh.s 			page 311


 13067      335F494E 
 13067      56285F6D 
 13067      696E762C 
 13067      5F6D2920 
 13068 9a6b 285F6D29 		.ascii	"(_m),1,1)*MAT33_ELMT((_m),2,2) - MAT33_ELMT((_m),1,"
 13068      2C312C31 
 13068      292A4D41 
 13068      5433335F 
 13068      454C4D54 
 13069 9a9e 32292A4D 		.ascii	"2)*MAT33_ELMT((_m),2,1); const float m10 = MAT33_EL"
 13069      41543333 
 13069      5F454C4D 
 13069      5428285F 
 13069      6D292C32 
 13070 9ad1 4D542828 		.ascii	"MT((_m),0,1)*MAT33_ELMT((_m),2,2) - MAT33_ELMT((_m)"
 13070      5F6D292C 
 13070      302C3129 
 13070      2A4D4154 
 13070      33335F45 
 13071 9b04 2C302C32 		.ascii	",0,2)*MAT33_ELMT((_m),2,1); const float m20 = MAT33"
 13071      292A4D41 
 13071      5433335F 
 13071      454C4D54 
 13071      28285F6D 
 13072 9b37 5F454C4D 		.ascii	"_ELMT((_m),0,1)*MAT33_ELMT((_m),1,2) - MAT33_ELMT(("
 13072      5428285F 
 13072      6D292C30 
 13072      2C31292A 
 13072      4D415433 
 13073 9b6a 5F6D292C 		.ascii	"_m),0,2)*MAT33_ELMT((_m),1,1); const float m01 = MA"
 13073      302C3229 
 13073      2A4D4154 
 13073      33335F45 
 13073      4C4D5428 
 13074 9b9d 5433335F 		.ascii	"T33_ELMT((_m),1,0)*MAT33_ELMT((_m),2,2) - MAT33_ELM"
 13074      454C4D54 
 13074      28285F6D 
 13074      292C312C 
 13074      30292A4D 
 13075 9bd0 5428285F 		.ascii	"T((_m),1,2)*MAT33_ELMT((_m),2,0); const float m11 ="
 13075      6D292C31 
 13075      2C32292A 
 13075      4D415433 
 13075      335F454C 
 13076 9c03 204D4154 		.ascii	" MAT33_ELMT((_m),0,0)*MAT33_ELMT((_m),2,2) - MAT33_"
 13076      33335F45 
 13076      4C4D5428 
 13076      285F6D29 
 13076      2C302C30 
 13077 9c36 454C4D54 		.ascii	"ELMT((_m),0,2)*MAT33_ELMT((_m),2,0); const float m2"
 13077      28285F6D 
 13077      292C302C 
 13077      32292A4D 
 13077      41543333 
 13078 9c69 31203D20 		.ascii	"1 = MAT33_ELMT((_m),0,0)*MAT33_ELMT((_m),1,2) - MAT"
 13078      4D415433 
 13078      335F454C 
ARM GAS  /tmp/cceRHmPh.s 			page 312


 13078      4D542828 
 13078      5F6D292C 
 13079 9c9c 33335F45 		.ascii	"33_ELMT((_m),0,2)*MAT33_ELMT((_m),1,0); const float"
 13079      4C4D5428 
 13079      285F6D29 
 13079      2C302C32 
 13079      292A4D41 
 13080 9ccf 206D3032 		.ascii	" m02 = MAT33_ELMT((_m),1,0)*MAT33_ELMT((_m),2,1) - "
 13080      203D204D 
 13080      41543333 
 13080      5F454C4D 
 13080      5428285F 
 13081 9d02 4D415433 		.ascii	"MAT33_ELMT((_m),1,1)*MAT33_ELMT((_m),2,0); const fl"
 13081      335F454C 
 13081      4D542828 
 13081      5F6D292C 
 13081      312C3129 
 13082 9d35 6F617420 		.ascii	"oat m12 = MAT33_ELMT((_m),0,0)*MAT33_ELMT((_m),2,1)"
 13082      6D313220 
 13082      3D204D41 
 13082      5433335F 
 13082      454C4D54 
 13083 9d68 202D204D 		.ascii	" - MAT33_ELMT((_m),0,1)*MAT33_ELMT((_m),2,0); const"
 13083      41543333 
 13083      5F454C4D 
 13083      5428285F 
 13083      6D292C30 
 13084 9d9b 20666C6F 		.ascii	" float m22 = MAT33_ELMT((_m),0,0)*MAT33_ELMT((_m),1"
 13084      6174206D 
 13084      3232203D 
 13084      204D4154 
 13084      33335F45 
 13085 9dce 2C312920 		.ascii	",1) - MAT33_ELMT((_m),0,1)*MAT33_ELMT((_m),1,0); co"
 13085      2D204D41 
 13085      5433335F 
 13085      454C4D54 
 13085      28285F6D 
 13086 9e01 6E737420 		.ascii	"nst float det = MAT33_ELMT((_m),0,0)*m00 - MAT33_EL"
 13086      666C6F61 
 13086      74206465 
 13086      74203D20 
 13086      4D415433 
 13087 9e34 4D542828 		.ascii	"MT((_m),1,0)*m10 + MAT33_ELMT((_m),2,0)*m20; if (fa"
 13087      5F6D292C 
 13087      312C3029 
 13087      2A6D3130 
 13087      202B204D 
 13088 9e67 62732864 		.ascii	"bs(det) > FLT_EPSILON) { MAT33_ELMT((_minv),0,0) = "
 13088      65742920 
 13088      3E20464C 
 13088      545F4550 
 13088      53494C4F 
 13089 9e9a 6D303020 		.ascii	"m00 / det; MAT33_ELMT((_minv),1,0) = -m01 / det; MA"
 13089      2F206465 
 13089      743B204D 
 13089      41543333 
 13089      5F454C4D 
ARM GAS  /tmp/cceRHmPh.s 			page 313


 13090 9ecd 5433335F 		.ascii	"T33_ELMT((_minv),2,0) = m02 / det; MAT33_ELMT((_min"
 13090      454C4D54 
 13090      28285F6D 
 13090      696E7629 
 13090      2C322C30 
 13091 9f00 76292C30 		.ascii	"v),0,1) = -m10 / det; MAT33_ELMT((_minv),1,1) = m11"
 13091      2C312920 
 13091      3D202D6D 
 13091      3130202F 
 13091      20646574 
 13092 9f33 202F2064 		.ascii	" / det; MAT33_ELMT((_minv),2,1) = -m12 / det; MAT33"
 13092      65743B20 
 13092      4D415433 
 13092      335F454C 
 13092      4D542828 
 13093 9f66 5F454C4D 		.ascii	"_ELMT((_minv),0,2) = m20 / det; MAT33_ELMT((_minv),"
 13093      5428285F 
 13093      6D696E76 
 13093      292C302C 
 13093      3229203D 
 13094 9f99 312C3229 		.ascii	"1,2) = -m21 / det; MAT33_ELMT((_minv),2,2) = m22 / "
 13094      203D202D 
 13094      6D323120 
 13094      2F206465 
 13094      743B204D 
 13095 9fcc 6465743B 		.ascii	"det; } }\000"
 13095      207D207D 
 13095      00
 13096              	.LASF1277:
 13097 9fd5 4D5F4C4E 		.ascii	"M_LN2HI 6.9314718036912381649E-1\000"
 13097      32484920 
 13097      362E3933 
 13097      31343731 
 13097      38303336 
 13098              	.LASF1236:
 13099 9ff6 46505F5A 		.ascii	"FP_ZERO 2\000"
 13099      45524F20 
 13099      3200
 13100              	.LASF1457:
 13101 a000 464C4F41 		.ascii	"FLOAT_RMAT_INV(_m_b2a,_m_a2b) WARNING(\"FLOAT_RMAT_"
 13101      545F524D 
 13101      41545F49 
 13101      4E56285F 
 13101      6D5F6232 
 13102 a032 494E5620 		.ascii	"INV macro is deprecated, use the lower case functio"
 13102      6D616372 
 13102      6F206973 
 13102      20646570 
 13102      72656361 
 13103 a065 6E20696E 		.ascii	"n instead\") float_rmat_inv(&(_m_b2a), &(_m_a2b))\000"
 13103      73746561 
 13103      64222920 
 13103      666C6F61 
 13103      745F726D 
 13104              	.LASF898:
 13105 a096 5F5F7761 		.ascii	"__warn_references(sym,msg) __asm__(\".section .gnu."
 13105      726E5F72 
ARM GAS  /tmp/cceRHmPh.s 			page 314


 13105      65666572 
 13105      656E6365 
 13105      73287379 
 13106 a0c8 7761726E 		.ascii	"warning.\" #sym); __asm__(\".asciz \\\"\" msg \"\\\""
 13106      696E672E 
 13106      22202373 
 13106      796D293B 
 13106      205F5F61 
 13107 a0f4 22293B20 		.ascii	"\"); __asm__(\".previous\")\000"
 13107      5F5F6173 
 13107      6D5F5F28 
 13107      222E7072 
 13107      6576696F 
 13108              	.LASF784:
 13109 a10d 5F524545 		.ascii	"_REENT_ASCTIME_BUF(ptr) ((ptr)->_new._reent._asctim"
 13109      4E545F41 
 13109      53435449 
 13109      4D455F42 
 13109      55462870 
 13110 a140 655F6275 		.ascii	"e_buf)\000"
 13110      662900
 13111              	.LASF869:
 13112 a147 5F5F6765 		.ascii	"__generic(expr,t,yes,no) __builtin_choose_expr( __b"
 13112      6E657269 
 13112      63286578 
 13112      70722C74 
 13112      2C796573 
 13113 a17a 75696C74 		.ascii	"uiltin_types_compatible_p(__typeof(expr), t), yes, "
 13113      696E5F74 
 13113      79706573 
 13113      5F636F6D 
 13113      70617469 
 13114 a1ad 6E6F2900 		.ascii	"no)\000"
 13115              	.LASF332:
 13116 a1b1 5F5F5553 		.ascii	"__USQ_FBIT__ 32\000"
 13116      515F4642 
 13116      49545F5F 
 13116      20333200 
 13117              	.LASF1140:
 13118 a1c1 50524964 		.ascii	"PRIdFAST16 __PRI16FAST(d)\000"
 13118      46415354 
 13118      3136205F 
 13118      5F505249 
 13118      31364641 
 13119              	.LASF57:
 13120 a1db 5F5F494E 		.ascii	"__INT_FAST8_TYPE__ int\000"
 13120      545F4641 
 13120      5354385F 
 13120      54595045 
 13120      5F5F2069 
 13121              	.LASF354:
 13122 a1f2 5F5F5245 		.ascii	"__REGISTER_PREFIX__ \000"
 13122      47495354 
 13122      45525F50 
 13122      52454649 
 13122      585F5F20 
 13123              	.LASF1576:
ARM GAS  /tmp/cceRHmPh.s 			page 315


 13124 a207 636F735F 		.ascii	"cos_lon\000"
 13124      6C6F6E00 
 13125              	.LASF1078:
 13126 a20f 55494E54 		.ascii	"UINT8_C(c) __UINT8_C(c)\000"
 13126      385F4328 
 13126      6329205F 
 13126      5F55494E 
 13126      54385F43 
 13127              	.LASF983:
 13128 a227 55494E54 		.ascii	"UINT32_MAX\000"
 13128      33325F4D 
 13128      415800
 13129              	.LASF536:
 13130 a232 44424C5F 		.ascii	"DBL_MANT_DIG\000"
 13130      4D414E54 
 13130      5F444947 
 13130      00
 13131              	.LASF436:
 13132 a23f 5F5F4152 		.ascii	"__ARM_FEATURE_BF16_SCALAR_ARITHMETIC\000"
 13132      4D5F4645 
 13132      41545552 
 13132      455F4246 
 13132      31365F53 
 13133              	.LASF810:
 13134 a264 5F5F7074 		.ascii	"__ptr_t void *\000"
 13134      725F7420 
 13134      766F6964 
 13134      202A00
 13135              	.LASF483:
 13136 a273 50455249 		.ascii	"PERIPHERALS_AUTO_INIT 1\000"
 13136      50484552 
 13136      414C535F 
 13136      4155544F 
 13136      5F494E49 
 13137              	.LASF1189:
 13138 a28b 53434E78 		.ascii	"SCNxFAST32 __SCN32FAST(x)\000"
 13138      46415354 
 13138      3332205F 
 13138      5F53434E 
 13138      33324641 
 13139              	.LASF249:
 13140 a2a5 5F5F4652 		.ascii	"__FRACT_IBIT__ 0\000"
 13140      4143545F 
 13140      49424954 
 13140      5F5F2030 
 13140      00
 13141              	.LASF730:
 13142 a2b6 756E7369 		.ascii	"unsigned\000"
 13142      676E6564 
 13142      00
 13143              	.LASF4:
 13144 a2bf 5F5F5354 		.ascii	"__STDC_HOSTED__ 1\000"
 13144      44435F48 
 13144      4F535445 
 13144      445F5F20 
 13144      3100
 13145              	.LASF91:
ARM GAS  /tmp/cceRHmPh.s 			page 316


 13146 a2d1 5F5F5549 		.ascii	"__UINTMAX_C(c) c ## ULL\000"
 13146      4E544D41 
 13146      585F4328 
 13146      63292063 
 13146      20232320 
 13147              	.LASF1572:
 13148 a2e9 65636566 		.ascii	"ecef_of_lla_f\000"
 13148      5F6F665F 
 13148      6C6C615F 
 13148      6600
 13149              	.LASF1578:
 13150 a2f7 6C6C615F 		.ascii	"lla_of_ecef_f\000"
 13150      6F665F65 
 13150      6365665F 
 13150      6600
 13151              	.LASF1249:
 13152 a305 7369676E 		.ascii	"signbit(__x) ((sizeof(__x) == sizeof(float)) ? __bu"
 13152      62697428 
 13152      5F5F7829 
 13152      20282873 
 13152      697A656F 
 13153 a338 696C7469 		.ascii	"iltin_signbitf(__x) : (sizeof(__x) == sizeof(double"
 13153      6E5F7369 
 13153      676E6269 
 13153      7466285F 
 13153      5F782920 
 13154 a36b 2929203F 		.ascii	")) ? __builtin_signbit (__x) : __builtin_signbitl(_"
 13154      205F5F62 
 13154      75696C74 
 13154      696E5F73 
 13154      69676E62 
 13155 a39e 5F782929 		.ascii	"_x))\000"
 13155      00
 13156              	.LASF1380:
 13157 a3a3 45554C45 		.ascii	"EULERS_DIFF(_c,_a,_b) { (_c).phi = (_a).phi - (_b)."
 13157      52535F44 
 13157      49464628 
 13157      5F632C5F 
 13157      612C5F62 
 13158 a3d6 7068693B 		.ascii	"phi; (_c).theta = (_a).theta - (_b).theta; (_c).psi"
 13158      20285F63 
 13158      292E7468 
 13158      65746120 
 13158      3D20285F 
 13159 a409 203D2028 		.ascii	" = (_a).psi - (_b).psi; }\000"
 13159      5F61292E 
 13159      70736920 
 13159      2D20285F 
 13159      62292E70 
 13160              	.LASF925:
 13161 a423 5F5F7265 		.ascii	"__requires_exclusive(...) __lock_annotate(exclusive"
 13161      71756972 
 13161      65735F65 
 13161      78636C75 
 13161      73697665 
 13162 a456 5F6C6F63 		.ascii	"_locks_required(__VA_ARGS__))\000"
 13162      6B735F72 
ARM GAS  /tmp/cceRHmPh.s 			page 317


 13162      65717569 
 13162      72656428 
 13162      5F5F5641 
 13163              	.LASF510:
 13164 a474 5553455F 		.ascii	"USE_LED 1\000"
 13164      4C454420 
 13164      3100
 13165              	.LASF1110:
 13166 a47e 50524978 		.ascii	"PRIxFAST8 __PRI8FAST(x)\000"
 13166      46415354 
 13166      38205F5F 
 13166      50524938 
 13166      46415354 
 13167              	.LASF1529:
 13168 a496 6C6F6E67 		.ascii	"long int\000"
 13168      20696E74 
 13168      00
 13169              	.LASF1294:
 13170 a49f 494E464F 		.ascii	"INFO_VALUE(x,v) DO_PRAGMA(message (\"Info: \" x VAL"
 13170      5F56414C 
 13170      55452878 
 13170      2C762920 
 13170      444F5F50 
 13171 a4d0 55452876 		.ascii	"UE(v)))\000"
 13171      29292900 
 13172              	.LASF76:
 13173 a4d8 5F5F5749 		.ascii	"__WINT_MIN__ 0U\000"
 13173      4E545F4D 
 13173      494E5F5F 
 13173      20305500 
 13174              	.LASF1283:
 13175 a4e8 5F4C4942 		.ascii	"_LIB_VERSION __fdlib_version\000"
 13175      5F564552 
 13175      53494F4E 
 13175      205F5F66 
 13175      646C6962 
 13176              	.LASF782:
 13177 a505 5F524545 		.ascii	"_REENT_MP_P5S(ptr) ((ptr)->_p5s)\000"
 13177      4E545F4D 
 13177      505F5035 
 13177      53287074 
 13177      72292028 
 13178              	.LASF616:
 13179 a526 5F5F5359 		.ascii	"__SYS_CONFIG_H__ \000"
 13179      535F434F 
 13179      4E464947 
 13179      5F485F5F 
 13179      2000
 13180              	.LASF169:
 13181 a538 5F5F4442 		.ascii	"__DBL_NORM_MAX__ ((double)1.7976931348623157e+308L)"
 13181      4C5F4E4F 
 13181      524D5F4D 
 13181      41585F5F 
 13181      20282864 
 13182 a56b 00       		.ascii	"\000"
 13183              	.LASF1483:
 13184 a56c 464C4F41 		.ascii	"FLOAT_QUAT_COMP_INV_NORM_SHORTEST(_a2b,_a2c,_b2c) W"
ARM GAS  /tmp/cceRHmPh.s 			page 318


 13184      545F5155 
 13184      41545F43 
 13184      4F4D505F 
 13184      494E565F 
 13185 a59f 41524E49 		.ascii	"ARNING(\"FLOAT_QUAT_COMP_INV_NORM_SHORTEST macro is"
 13185      4E472822 
 13185      464C4F41 
 13185      545F5155 
 13185      41545F43 
 13186 a5d1 20646570 		.ascii	" deprecated, use the lower case function instead\")"
 13186      72656361 
 13186      7465642C 
 13186      20757365 
 13186      20746865 
 13187 a603 20666C6F 		.ascii	" float_quat_comp_inv_norm_shortest(&(_a2b), &(_a2c)"
 13187      61745F71 
 13187      7561745F 
 13187      636F6D70 
 13187      5F696E76 
 13188 a636 2C202628 		.ascii	", &(_b2c))\000"
 13188      5F623263 
 13188      292900
 13189              	.LASF973:
 13190 a641 494E5431 		.ascii	"INT16_MAX\000"
 13190      365F4D41 
 13190      5800
 13191              	.LASF173:
 13192 a64b 5F5F4442 		.ascii	"__DBL_HAS_DENORM__ 1\000"
 13192      4C5F4841 
 13192      535F4445 
 13192      4E4F524D 
 13192      5F5F2031 
 13193              	.LASF1104:
 13194 a660 50524978 		.ascii	"PRIxLEAST8 __PRI8LEAST(x)\000"
 13194      4C454153 
 13194      5438205F 
 13194      5F505249 
 13194      384C4541 
 13195              	.LASF1274:
 13196 a67a 4D5F3350 		.ascii	"M_3PI_4 2.3561944901923448370E0\000"
 13196      495F3420 
 13196      322E3335 
 13196      36313934 
 13196      34393031 
 13197              	.LASF631:
 13198 a69a 5F5F4154 		.ascii	"__ATFILE_VISIBLE 1\000"
 13198      46494C45 
 13198      5F564953 
 13198      49424C45 
 13198      203100
 13199              	.LASF360:
 13200 a6ad 5F5F4743 		.ascii	"__GCC_HAVE_SYNC_COMPARE_AND_SWAP_2 1\000"
 13200      435F4841 
 13200      56455F53 
 13200      594E435F 
 13200      434F4D50 
 13201              	.LASF213:
ARM GAS  /tmp/cceRHmPh.s 			page 319


 13202 a6d2 5F5F464C 		.ascii	"__FLT64_MAX_10_EXP__ 308\000"
 13202      5436345F 
 13202      4D41585F 
 13202      31305F45 
 13202      58505F5F 
 13203              	.LASF1551:
 13204 a6eb 45636566 		.ascii	"EcefCoor_d\000"
 13204      436F6F72 
 13204      5F6400
 13205              	.LASF1134:
 13206 a6f6 50524958 		.ascii	"PRIXLEAST16 __PRI16LEAST(X)\000"
 13206      4C454153 
 13206      54313620 
 13206      5F5F5052 
 13206      4931364C 
 13207              	.LASF1538:
 13208 a712 45636566 		.ascii	"EcefCoor_f\000"
 13208      436F6F72 
 13208      5F6600
 13209              	.LASF764:
 13210 a71d 5F4E5F4C 		.ascii	"_N_LISTS 30\000"
 13210      49535453 
 13210      20333000 
 13211              	.LASF588:
 13212 a729 4C44424C 		.ascii	"LDBL_MIN __LDBL_MIN__\000"
 13212      5F4D494E 
 13212      205F5F4C 
 13212      44424C5F 
 13212      4D494E5F 
 13213              	.LASF33:
 13214 a73f 5F5F5054 		.ascii	"__PTRDIFF_TYPE__ int\000"
 13214      52444946 
 13214      465F5459 
 13214      50455F5F 
 13214      20696E74 
 13215              	.LASF1355:
 13216 a754 56454354 		.ascii	"VECT3_ASSIGN(_a,_x,_y,_z) { (_a).x = (_x); (_a).y ="
 13216      335F4153 
 13216      5349474E 
 13216      285F612C 
 13216      5F782C5F 
 13217 a787 20285F79 		.ascii	" (_y); (_a).z = (_z); }\000"
 13217      293B2028 
 13217      5F61292E 
 13217      7A203D20 
 13217      285F7A29 
 13218              	.LASF83:
 13219 a79f 5F5F4C4F 		.ascii	"__LONG_LONG_WIDTH__ 64\000"
 13219      4E475F4C 
 13219      4F4E475F 
 13219      57494454 
 13219      485F5F20 
 13220              	.LASF283:
 13221 a7b6 5F5F5553 		.ascii	"__USACCUM_FBIT__ 8\000"
 13221      41434355 
 13221      4D5F4642 
 13221      49545F5F 
ARM GAS  /tmp/cceRHmPh.s 			page 320


 13221      203800
 13222              	.LASF1392:
 13223 a7c9 52415445 		.ascii	"RATES_SDIV(_ro,_ri,_s) { (_ro).p = (_ri).p / (_s) ;"
 13223      535F5344 
 13223      4956285F 
 13223      726F2C5F 
 13223      72692C5F 
 13224 a7fc 20285F72 		.ascii	" (_ro).q = (_ri).q / (_s); (_ro).r = (_ri).r / (_s)"
 13224      6F292E71 
 13224      203D2028 
 13224      5F726929 
 13224      2E71202F 
 13225 a82f 3B207D00 		.ascii	"; }\000"
 13226              	.LASF356:
 13227 a833 5F5F474E 		.ascii	"__GNUC_STDC_INLINE__ 1\000"
 13227      55435F53 
 13227      5444435F 
 13227      494E4C49 
 13227      4E455F5F 
 13228              	.LASF1118:
 13229 a84a 50524964 		.ascii	"PRId16 __PRI16(d)\000"
 13229      3136205F 
 13229      5F505249 
 13229      31362864 
 13229      2900
 13230              	.LASF1405:
 13231 a85c 56454354 		.ascii	"VECT3_VECT3_TRANS_MUL(_mat,_v_a,_v_b) { MAT33_ELMT("
 13231      335F5645 
 13231      4354335F 
 13231      5452414E 
 13231      535F4D55 
 13232 a88f 285F6D61 		.ascii	"(_mat),0,0) = (_v_a).x*(_v_b).x; MAT33_ELMT((_mat),"
 13232      74292C30 
 13232      2C302920 
 13232      3D20285F 
 13232      765F6129 
 13233 a8c2 302C3129 		.ascii	"0,1) = (_v_a).x*(_v_b).y; MAT33_ELMT((_mat),0,2) = "
 13233      203D2028 
 13233      5F765F61 
 13233      292E782A 
 13233      285F765F 
 13234 a8f5 285F765F 		.ascii	"(_v_a).x*(_v_b).z; MAT33_ELMT((_mat),1,0) = (_v_a)."
 13234      61292E78 
 13234      2A285F76 
 13234      5F62292E 
 13234      7A3B204D 
 13235 a928 792A285F 		.ascii	"y*(_v_b).x; MAT33_ELMT((_mat),1,1) = (_v_a).y*(_v_b"
 13235      765F6229 
 13235      2E783B20 
 13235      4D415433 
 13235      335F454C 
 13236 a95b 292E793B 		.ascii	").y; MAT33_ELMT((_mat),1,2) = (_v_a).y*(_v_b).z; MA"
 13236      204D4154 
 13236      33335F45 
 13236      4C4D5428 
 13236      285F6D61 
 13237 a98e 5433335F 		.ascii	"T33_ELMT((_mat),2,0) = (_v_a).z*(_v_b).x; MAT33_ELM"
ARM GAS  /tmp/cceRHmPh.s 			page 321


 13237      454C4D54 
 13237      28285F6D 
 13237      6174292C 
 13237      322C3029 
 13238 a9c1 5428285F 		.ascii	"T((_mat),2,1) = (_v_a).z*(_v_b).y; MAT33_ELMT((_mat"
 13238      6D617429 
 13238      2C322C31 
 13238      29203D20 
 13238      285F765F 
 13239 a9f4 292C322C 		.ascii	"),2,2) = (_v_a).z*(_v_b).z; }\000"
 13239      3229203D 
 13239      20285F76 
 13239      5F61292E 
 13239      7A2A285F 
 13240              	.LASF302:
 13241 aa12 5F5F4C41 		.ascii	"__LACCUM_EPSILON__ 0x1P-31LK\000"
 13241      4343554D 
 13241      5F455053 
 13241      494C4F4E 
 13241      5F5F2030 
 13242              	.LASF412:
 13243 aa2f 5F5F4152 		.ascii	"__ARM_FP\000"
 13243      4D5F4650 
 13243      00
 13244              	.LASF1342:
 13245 aa38 494E5445 		.ascii	"INTENTIONAL_FALLTHRU __attribute__ ((fallthrough));"
 13245      4E54494F 
 13245      4E414C5F 
 13245      46414C4C 
 13245      54485255 
 13246 aa6b 00       		.ascii	"\000"
 13247              	.LASF1395:
 13248 aa6c 52415445 		.ascii	"RATES_BOUND_BOX(_v,_v_min,_v_max) { if ((_v).p > (_"
 13248      535F424F 
 13248      554E445F 
 13248      424F5828 
 13248      5F762C5F 
 13249 aa9f 765F6D61 		.ascii	"v_max).p) (_v).p = (_v_max).p; else if ((_v).p < (_"
 13249      78292E70 
 13249      2920285F 
 13249      76292E70 
 13249      203D2028 
 13250 aad2 765F6D69 		.ascii	"v_min).p) (_v).p = (_v_min).p; if ((_v).q > (_v_max"
 13250      6E292E70 
 13250      2920285F 
 13250      76292E70 
 13250      203D2028 
 13251 ab05 292E7129 		.ascii	").q) (_v).q = (_v_max).q; else if ((_v).q < (_v_min"
 13251      20285F76 
 13251      292E7120 
 13251      3D20285F 
 13251      765F6D61 
 13252 ab38 292E7129 		.ascii	").q) (_v).q = (_v_min).q; if ((_v).r > (_v_max).r) "
 13252      20285F76 
 13252      292E7120 
 13252      3D20285F 
 13252      765F6D69 
ARM GAS  /tmp/cceRHmPh.s 			page 322


 13253 ab6b 285F7629 		.ascii	"(_v).r = (_v_max).r; else if ((_v).r < (_v_min).r) "
 13253      2E72203D 
 13253      20285F76 
 13253      5F6D6178 
 13253      292E723B 
 13254 ab9e 285F7629 		.ascii	"(_v).r = (_v_min).r; }\000"
 13254      2E72203D 
 13254      20285F76 
 13254      5F6D696E 
 13254      292E723B 
 13255              	.LASF644:
 13256 abb5 5F5F4558 		.ascii	"__EXPORT \000"
 13256      504F5254 
 13256      2000
 13257              	.LASF806:
 13258 abbf 5F5F504D 		.ascii	"__PMT(args) args\000"
 13258      54286172 
 13258      67732920 
 13258      61726773 
 13258      00
 13259              	.LASF521:
 13260 abd0 56454354 		.ascii	"VECT2_ENU_OF_TO_NED(_po,_pi) { (_po).x = (_pi).y; ("
 13260      325F454E 
 13260      555F4F46 
 13260      5F544F5F 
 13260      4E454428 
 13261 ac03 5F706F29 		.ascii	"_po).y = (_pi).x; }\000"
 13261      2E79203D 
 13261      20285F70 
 13261      69292E78 
 13261      3B207D00 
 13262              	.LASF664:
 13263 ac17 5F505452 		.ascii	"_PTRDIFF_T_ \000"
 13263      44494646 
 13263      5F545F20 
 13263      00
 13264              	.LASF1019:
 13265 ac24 55494E54 		.ascii	"UINT_FAST8_MAX\000"
 13265      5F464153 
 13265      54385F4D 
 13265      415800
 13266              	.LASF1108:
 13267 ac33 5052496F 		.ascii	"PRIoFAST8 __PRI8FAST(o)\000"
 13267      46415354 
 13267      38205F5F 
 13267      50524938 
 13267      46415354 
 13268              	.LASF84:
 13269 ac4b 5F5F5743 		.ascii	"__WCHAR_WIDTH__ 32\000"
 13269      4841525F 
 13269      57494454 
 13269      485F5F20 
 13269      333200
 13270              	.LASF1276:
 13271 ac5e 4D5F4C4E 		.ascii	"M_LN2LO 1.9082149292705877000E-10\000"
 13271      324C4F20 
 13271      312E3930 
ARM GAS  /tmp/cceRHmPh.s 			page 323


 13271      38323134 
 13271      39323932 
 13272              	.LASF522:
 13273 ac80 4C4C415F 		.ascii	"LLA_ASSIGN(_pos,_lat,_lon,_alt) { (_pos).lat = (_la"
 13273      41535349 
 13273      474E285F 
 13273      706F732C 
 13273      5F6C6174 
 13274 acb3 74293B20 		.ascii	"t); (_pos).lon = (_lon); (_pos).alt = (_alt); }\000"
 13274      285F706F 
 13274      73292E6C 
 13274      6F6E203D 
 13274      20285F6C 
 13275              	.LASF336:
 13276 ace3 5F5F5554 		.ascii	"__UTQ_FBIT__ 128\000"
 13276      515F4642 
 13276      49545F5F 
 13276      20313238 
 13276      00
 13277              	.LASF1114:
 13278 acf4 5F5F5052 		.ascii	"__PRI16FAST(x) __FAST16 __STRINGIFY(x)\000"
 13278      49313646 
 13278      41535428 
 13278      7829205F 
 13278      5F464153 
 13279              	.LASF894:
 13280 ad1b 5F5F7374 		.ascii	"__strftimelike(fmtarg,firstvararg) __attribute__((_"
 13280      72667469 
 13280      6D656C69 
 13280      6B652866 
 13280      6D746172 
 13281 ad4e 5F666F72 		.ascii	"_format__ (__strftime__, fmtarg, firstvararg)))\000"
 13281      6D61745F 
 13281      5F20285F 
 13281      5F737472 
 13281      6674696D 
 13282              	.LASF663:
 13283 ad7e 5F5F5054 		.ascii	"__PTRDIFF_T \000"
 13283      52444946 
 13283      465F5420 
 13283      00
 13284              	.LASF1484:
 13285 ad8b 464C4F41 		.ascii	"FLOAT_QUAT_INV_COMP_NORM_SHORTEST(_b2c,_a2b,_a2c) W"
 13285      545F5155 
 13285      41545F49 
 13285      4E565F43 
 13285      4F4D505F 
 13286 adbe 41524E49 		.ascii	"ARNING(\"FLOAT_QUAT_INV_COMP_NORM_SHORTEST macro is"
 13286      4E472822 
 13286      464C4F41 
 13286      545F5155 
 13286      41545F49 
 13287 adf0 20646570 		.ascii	" deprecated, use the lower case function instead\")"
 13287      72656361 
 13287      7465642C 
 13287      20757365 
 13287      20746865 
ARM GAS  /tmp/cceRHmPh.s 			page 324


 13288 ae22 20666C6F 		.ascii	" float_quat_inv_comp_norm_shortest(&(_b2c), &(_a2b)"
 13288      61745F71 
 13288      7561745F 
 13288      696E765F 
 13288      636F6D70 
 13289 ae55 2C202628 		.ascii	", &(_a2c))\000"
 13289      5F613263 
 13289      292900
 13290              	.LASF1173:
 13291 ae60 50524958 		.ascii	"PRIXLEAST32 __PRI32LEAST(X)\000"
 13291      4C454153 
 13291      54333220 
 13291      5F5F5052 
 13291      4933324C 
 13292              	.LASF379:
 13293 ae7c 5F5F4152 		.ascii	"__ARM_FEATURE_DSP 1\000"
 13293      4D5F4645 
 13293      41545552 
 13293      455F4453 
 13293      50203100 
 13294              	.LASF570:
 13295 ae90 4C44424C 		.ascii	"LDBL_MAX_10_EXP __LDBL_MAX_10_EXP__\000"
 13295      5F4D4158 
 13295      5F31305F 
 13295      45585020 
 13295      5F5F4C44 
 13296              	.LASF1007:
 13297 aeb4 55494E54 		.ascii	"UINT_LEAST32_MAX\000"
 13297      5F4C4541 
 13297      53543332 
 13297      5F4D4158 
 13297      00
 13298              	.LASF382:
 13299 aec5 5F5F4152 		.ascii	"__ARM_FEATURE_CRYPTO\000"
 13299      4D5F4645 
 13299      41545552 
 13299      455F4352 
 13299      5950544F 
 13300              	.LASF590:
 13301 aeda 464C545F 		.ascii	"FLT_ROUNDS 1\000"
 13301      524F554E 
 13301      44532031 
 13301      00
 13302              	.LASF962:
 13303 aee7 5F5F4C45 		.ascii	"__LEAST8 \"hh\"\000"
 13303      41535438 
 13303      20226868 
 13303      2200
 13304              	.LASF269:
 13305 aef5 5F5F4C4C 		.ascii	"__LLFRACT_IBIT__ 0\000"
 13305      46524143 
 13305      545F4942 
 13305      49545F5F 
 13305      203000
 13306              	.LASF204:
 13307 af08 5F5F464C 		.ascii	"__FLT32_HAS_DENORM__ 1\000"
 13307      5433325F 
ARM GAS  /tmp/cceRHmPh.s 			page 325


 13307      4841535F 
 13307      44454E4F 
 13307      524D5F5F 
 13308              	.LASF893:
 13309 af1f 5F5F7374 		.ascii	"__strfmonlike(fmtarg,firstvararg) __attribute__((__"
 13309      72666D6F 
 13309      6E6C696B 
 13309      6528666D 
 13309      74617267 
 13310 af52 666F726D 		.ascii	"format__ (__strfmon__, fmtarg, firstvararg)))\000"
 13310      61745F5F 
 13310      20285F5F 
 13310      73747266 
 13310      6D6F6E5F 
 13311              	.LASF1415:
 13312 af80 51554154 		.ascii	"QUAT_INVERT(_qo,_qi) { (_qo).qi = (_qi).qi; (_qo).q"
 13312      5F494E56 
 13312      45525428 
 13312      5F716F2C 
 13312      5F716929 
 13313 afb3 78203D20 		.ascii	"x = -(_qi).qx; (_qo).qy = -(_qi).qy; (_qo).qz = -(_"
 13313      2D285F71 
 13313      69292E71 
 13313      783B2028 
 13313      5F716F29 
 13314 afe6 7169292E 		.ascii	"qi).qz; }\000"
 13314      717A3B20 
 13314      7D00
 13315              	.LASF474:
 13316 aff0 48414C5F 		.ascii	"HAL_USE_RTC TRUE\000"
 13316      5553455F 
 13316      52544320 
 13316      54525545 
 13316      00
 13317              	.LASF982:
 13318 b001 494E5433 		.ascii	"INT32_MIN (-INT32_MAX - 1)\000"
 13318      325F4D49 
 13318      4E20282D 
 13318      494E5433 
 13318      325F4D41 
 13319              	.LASF1595:
 13320 b01c 6D617468 		.ascii	"math/pprz_geodetic_float.c\000"
 13320      2F707072 
 13320      7A5F6765 
 13320      6F646574 
 13320      69635F66 
 13321              	.LASF873:
 13322 b037 5F5F616C 		.ascii	"__always_inline __inline__ __attribute__((__always_"
 13322      77617973 
 13322      5F696E6C 
 13322      696E6520 
 13322      5F5F696E 
 13323 b06a 696E6C69 		.ascii	"inline__))\000"
 13323      6E655F5F 
 13323      292900
 13324              	.LASF278:
 13325 b075 5F5F5341 		.ascii	"__SACCUM_FBIT__ 7\000"
ARM GAS  /tmp/cceRHmPh.s 			page 326


 13325      4343554D 
 13325      5F464249 
 13325      545F5F20 
 13325      3700
 13326              	.LASF320:
 13327 b087 5F5F4851 		.ascii	"__HQ_FBIT__ 15\000"
 13327      5F464249 
 13327      545F5F20 
 13327      313500
 13328              	.LASF1077:
 13329 b096 55494E54 		.ascii	"UINT8_C\000"
 13329      385F4300 
 13330              	.LASF309:
 13331 b09e 5F5F4C4C 		.ascii	"__LLACCUM_IBIT__ 32\000"
 13331      41434355 
 13331      4D5F4942 
 13331      49545F5F 
 13331      20333200 
 13332              	.LASF1517:
 13333 b0b2 55746D5A 		.ascii	"UtmZoneOfLlaLonDeg(lla_lon) (floor((lla_lon) / 1e7 "
 13333      6F6E654F 
 13333      664C6C61 
 13333      4C6F6E44 
 13333      6567286C 
 13334 b0e5 2B203138 		.ascii	"+ 180) / 6) + 1\000"
 13334      3029202F 
 13334      20362920 
 13334      2B203100 
 13335              	.LASF1325:
 13336 b0f5 41425328 		.ascii	"ABS(val) ((val) < 0 ? -(val) : (val))\000"
 13336      76616C29 
 13336      20282876 
 13336      616C2920 
 13336      3C203020 
 13337              	.LASF676:
 13338 b11b 5F5F5349 		.ascii	"__SIZE_T \000"
 13338      5A455F54 
 13338      2000
 13339              	.LASF268:
 13340 b125 5F5F4C4C 		.ascii	"__LLFRACT_FBIT__ 63\000"
 13340      46524143 
 13340      545F4642 
 13340      49545F5F 
 13340      20363300 
 13341              	.LASF177:
 13342 b139 5F5F4C44 		.ascii	"__LDBL_DIG__ 15\000"
 13342      424C5F44 
 13342      49475F5F 
 13342      20313500 
 13343              	.LASF39:
 13344 b149 5F5F4348 		.ascii	"__CHAR32_TYPE__ long unsigned int\000"
 13344      41523332 
 13344      5F545950 
 13344      455F5F20 
 13344      6C6F6E67 
 13345              	.LASF1562:
 13346 b16b 75746D5F 		.ascii	"utm_of_lla_f\000"
ARM GAS  /tmp/cceRHmPh.s 			page 327


 13346      6F665F6C 
 13346      6C615F66 
 13346      00
 13347              	.LASF736:
 13348 b178 5F5F4C6F 		.ascii	"__Long long\000"
 13348      6E67206C 
 13348      6F6E6700 
 13349              	.LASF1269:
 13350 b184 4D5F325F 		.ascii	"M_2_PI 0.63661977236758134308\000"
 13350      50492030 
 13350      2E363336 
 13350      36313937 
 13350      37323336 
 13351              	.LASF367:
 13352 b1a2 5F5F4743 		.ascii	"__GCC_ATOMIC_SHORT_LOCK_FREE 2\000"
 13352      435F4154 
 13352      4F4D4943 
 13352      5F53484F 
 13352      52545F4C 
 13353              	.LASF621:
 13354 b1c1 5F5F474E 		.ascii	"__GNUC_PREREQ(maj,min) ((__GNUC__ << 16) + __GNUC_M"
 13354      55435F50 
 13354      52455245 
 13354      51286D61 
 13354      6A2C6D69 
 13355 b1f4 494E4F52 		.ascii	"INOR__ >= ((maj) << 16) + (min))\000"
 13355      5F5F203E 
 13355      3D202828 
 13355      6D616A29 
 13355      203C3C20 
 13356              	.LASF266:
 13357 b215 5F5F554C 		.ascii	"__ULFRACT_MAX__ 0XFFFFFFFFP-32ULR\000"
 13357      46524143 
 13357      545F4D41 
 13357      585F5F20 
 13357      30584646 
 13358              	.LASF1099:
 13359 b237 50524958 		.ascii	"PRIX8 __PRI8(X)\000"
 13359      38205F5F 
 13359      50524938 
 13359      28582900 
 13360              	.LASF31:
 13361 b247 5F5F5349 		.ascii	"__SIZEOF_POINTER__ 4\000"
 13361      5A454F46 
 13361      5F504F49 
 13361      4E544552 
 13361      5F5F2034 
 13362              	.LASF807:
 13363 b25c 5F5F444F 		.ascii	"__DOTS , ...\000"
 13363      5453202C 
 13363      202E2E2E 
 13363      00
 13364              	.LASF404:
 13365 b269 5F5F4743 		.ascii	"__GCC_ASM_FLAG_OUTPUTS__ 1\000"
 13365      435F4153 
 13365      4D5F464C 
 13365      41475F4F 
ARM GAS  /tmp/cceRHmPh.s 			page 328


 13365      55545055 
 13366              	.LASF725:
 13367 b284 5F5F5F69 		.ascii	"___int_least32_t_defined 1\000"
 13367      6E745F6C 
 13367      65617374 
 13367      33325F74 
 13367      5F646566 
 13368              	.LASF872:
 13369 b29f 5F5F7075 		.ascii	"__pure __attribute__((__pure__))\000"
 13369      7265205F 
 13369      5F617474 
 13369      72696275 
 13369      74655F5F 
 13370              	.LASF1121:
 13371 b2c0 50524975 		.ascii	"PRIu16 __PRI16(u)\000"
 13371      3136205F 
 13371      5F505249 
 13371      31362875 
 13371      2900
 13372              	.LASF1290:
 13373 b2d2 5741524E 		.ascii	"WARNING(x) DO_PRAGMA(GCC warning #x)\000"
 13373      494E4728 
 13373      78292044 
 13373      4F5F5052 
 13373      41474D41 
 13374              	.LASF1014:
 13375 b2f7 55494E54 		.ascii	"UINT_LEAST64_MAX __UINT_LEAST64_MAX__\000"
 13375      5F4C4541 
 13375      53543634 
 13375      5F4D4158 
 13375      205F5F55 
 13376              	.LASF37:
 13377 b31d 5F5F5549 		.ascii	"__UINTMAX_TYPE__ long long unsigned int\000"
 13377      4E544D41 
 13377      585F5459 
 13377      50455F5F 
 13377      206C6F6E 
 13378              	.LASF675:
 13379 b345 5F545F53 		.ascii	"_T_SIZE \000"
 13379      495A4520 
 13379      00
 13380              	.LASF1106:
 13381 b34e 50524964 		.ascii	"PRIdFAST8 __PRI8FAST(d)\000"
 13381      46415354 
 13381      38205F5F 
 13381      50524938 
 13381      46415354 
 13382              	.LASF777:
 13383 b366 5F524545 		.ascii	"_REENT_RAND48_SEED(ptr) ((ptr)->_new._reent._r48._s"
 13383      4E545F52 
 13383      414E4434 
 13383      385F5345 
 13383      45442870 
 13384 b399 65656429 		.ascii	"eed)\000"
 13384      00
 13385              	.LASF1485:
 13386 b39e 464C4F41 		.ascii	"FLOAT_QUAT_DIFFERENTIAL(q_out,w,dt) WARNING(\"FLOAT"
ARM GAS  /tmp/cceRHmPh.s 			page 329


 13386      545F5155 
 13386      41545F44 
 13386      49464645 
 13386      52454E54 
 13387 b3d0 5F515541 		.ascii	"_QUAT_DIFFERENTIAL macro is deprecated, use the low"
 13387      545F4449 
 13387      46464552 
 13387      454E5449 
 13387      414C206D 
 13388 b403 65722063 		.ascii	"er case function instead\") float_quat_differential"
 13388      61736520 
 13388      66756E63 
 13388      74696F6E 
 13388      20696E73 
 13389 b435 28262871 		.ascii	"(&(q_out), &(w), dt)\000"
 13389      5F6F7574 
 13389      292C2026 
 13389      2877292C 
 13389      20647429 
 13390              	.LASF137:
 13391 b44a 5F5F494E 		.ascii	"__INTPTR_WIDTH__ 32\000"
 13391      54505452 
 13391      5F574944 
 13391      54485F5F 
 13391      20333200 
 13392              	.LASF941:
 13393 b45e 5F5F696E 		.ascii	"__int20\000"
 13393      74323000 
 13394              	.LASF1138:
 13395 b466 53434E75 		.ascii	"SCNuLEAST16 __SCN16LEAST(u)\000"
 13395      4C454153 
 13395      54313620 
 13395      5F5F5343 
 13395      4E31364C 
 13396              	.LASF1145:
 13397 b482 50524958 		.ascii	"PRIXFAST16 __PRI16FAST(X)\000"
 13397      46415354 
 13397      3136205F 
 13397      5F505249 
 13397      31364641 
 13398              	.LASF846:
 13399 b49c 5F5F434F 		.ascii	"__CONCAT1(x,y) x ## y\000"
 13399      4E434154 
 13399      3128782C 
 13399      79292078 
 13399      20232320 
 13400              	.LASF1041:
 13401 b4b2 494E5450 		.ascii	"INTPTR_MIN\000"
 13401      54525F4D 
 13401      494E00
 13402              	.LASF1337:
 13403 b4bd 52756E58 		.ascii	"RunXTimesEvery(_jumpstart,_prescaler,_interval,_xti"
 13403      54696D65 
 13403      73457665 
 13403      7279285F 
 13403      6A756D70 
 13404 b4f0 6D65732C 		.ascii	"mes,_code) { static uint16_t prescaler = _jumpstart"
ARM GAS  /tmp/cceRHmPh.s 			page 330


 13404      5F636F64 
 13404      6529207B 
 13404      20737461 
 13404      74696320 
 13405 b523 3B207374 		.ascii	"; static uint16_t xtimes = 0; prescaler++; if (pres"
 13405      61746963 
 13405      2075696E 
 13405      7431365F 
 13405      74207874 
 13406 b556 63616C65 		.ascii	"caler >= _prescaler + _interval*xtimes && xtimes < "
 13406      72203E3D 
 13406      205F7072 
 13406      65736361 
 13406      6C657220 
 13407 b589 5F787469 		.ascii	"_xtimes) { _code; xtimes++; } if (xtimes >= _xtimes"
 13407      6D657329 
 13407      207B205F 
 13407      636F6465 
 13407      3B207874 
 13408 b5bc 29207B20 		.ascii	") { xtimes = 0; prescaler = 0; } }\000"
 13408      7874696D 
 13408      6573203D 
 13408      20303B20 
 13408      70726573 
 13409              	.LASF1393:
 13410 b5df 52415445 		.ascii	"RATES_EWMULT_RSHIFT(c,a,b,_s) { (c).p = ((a).p * (b"
 13410      535F4557 
 13410      4D554C54 
 13410      5F525348 
 13410      49465428 
 13411 b612 292E7029 		.ascii	").p) >> (_s); (c).q = ((a).q * (b).q) >> (_s); (c)."
 13411      203E3E20 
 13411      285F7329 
 13411      3B202863 
 13411      292E7120 
 13412 b645 72203D20 		.ascii	"r = ((a).r * (b).r) >> (_s); }\000"
 13412      28286129 
 13412      2E72202A 
 13412      20286229 
 13412      2E722920 
 13413              	.LASF1319:
 13414 b664 416E6428 		.ascii	"And(x,y) ((x) && (y))\000"
 13414      782C7929 
 13414      20282878 
 13414      29202626 
 13414      20287929 
 13415              	.LASF799:
 13416 b67a 5F524545 		.ascii	"_REENT_INIT_PTR(var) { memset((var), 0, sizeof(*(va"
 13416      4E545F49 
 13416      4E49545F 
 13416      50545228 
 13416      76617229 
 13417 b6ad 72292929 		.ascii	"r))); _REENT_INIT_PTR_ZEROED(var); }\000"
 13417      3B205F52 
 13417      45454E54 
 13417      5F494E49 
 13417      545F5054 
ARM GAS  /tmp/cceRHmPh.s 			page 331


 13418              	.LASF221:
 13419 b6d2 5F5F464C 		.ascii	"__FLT64_HAS_INFINITY__ 1\000"
 13419      5436345F 
 13419      4841535F 
 13419      494E4649 
 13419      4E495459 
 13420              	.LASF573:
 13421 b6eb 4C44424C 		.ascii	"LDBL_MAX\000"
 13421      5F4D4158 
 13421      00
 13422              	.LASF1514:
 13423 b6f4 4E20284B 		.ascii	"N (K0*A)\000"
 13423      302A4129 
 13423      00
 13424              	.LASF639:
 13425 b6fd 5F5F5853 		.ascii	"__XSI_VISIBLE 0\000"
 13425      495F5649 
 13425      5349424C 
 13425      45203000 
 13426              	.LASF1265:
 13427 b70d 4D5F5049 		.ascii	"M_PI 3.14159265358979323846\000"
 13427      20332E31 
 13427      34313539 
 13427      32363533 
 13427      35383937 
 13428              	.LASF72:
 13429 b729 5F5F4C4F 		.ascii	"__LONG_LONG_MAX__ 0x7fffffffffffffffLL\000"
 13429      4E475F4C 
 13429      4F4E475F 
 13429      4D41585F 
 13429      5F203078 
 13430              	.LASF1113:
 13431 b750 5F5F5052 		.ascii	"__PRI16LEAST(x) __LEAST16 __STRINGIFY(x)\000"
 13431      4931364C 
 13431      45415354 
 13431      28782920 
 13431      5F5F4C45 
 13432              	.LASF1465:
 13433 b779 464C4F41 		.ascii	"FLOAT_RMAT_OF_AXIS_ANGLE(_rm,_uv,_an) WARNING(\"FLO"
 13433      545F524D 
 13433      41545F4F 
 13433      465F4158 
 13433      49535F41 
 13434 b7ab 41545F52 		.ascii	"AT_RMAT_OF_AXIS_ANGLE macro is deprecated, use the "
 13434      4D41545F 
 13434      4F465F41 
 13434      5849535F 
 13434      414E474C 
 13435 b7de 6C6F7765 		.ascii	"lower case function instead\") float_rmat_of_axis_a"
 13435      72206361 
 13435      73652066 
 13435      756E6374 
 13435      696F6E20 
 13436 b810 6E676C65 		.ascii	"ngle(&(_rm), &(_uv), _an)\000"
 13436      2826285F 
 13436      726D292C 
 13436      2026285F 
ARM GAS  /tmp/cceRHmPh.s 			page 332


 13436      7576292C 
 13437              	.LASF691:
 13438 b82a 5F545F57 		.ascii	"_T_WCHAR_ \000"
 13438      43484152 
 13438      5F2000
 13439              	.LASF203:
 13440 b835 5F5F464C 		.ascii	"__FLT32_DENORM_MIN__ 1.4012984643248171e-45F32\000"
 13440      5433325F 
 13440      44454E4F 
 13440      524D5F4D 
 13440      494E5F5F 
 13441              	.LASF260:
 13442 b864 5F5F4C46 		.ascii	"__LFRACT_MIN__ (-0.5LR-0.5LR)\000"
 13442      52414354 
 13442      5F4D494E 
 13442      5F5F2028 
 13442      2D302E35 
 13443              	.LASF1505:
 13444 b882 444F5542 		.ascii	"DOUBLE_QUAT_OF_EULERS(_q,_e) WARNING(\"DOUBLE_QUAT_"
 13444      4C455F51 
 13444      5541545F 
 13444      4F465F45 
 13444      554C4552 
 13445 b8b4 4F465F45 		.ascii	"OF_EULERS macro is deprecated, use the lower case f"
 13445      554C4552 
 13445      53206D61 
 13445      63726F20 
 13445      69732064 
 13446 b8e7 756E6374 		.ascii	"unction instead\") double_quat_of_eulers(&(_q), &(_"
 13446      696F6E20 
 13446      696E7374 
 13446      65616422 
 13446      2920646F 
 13447 b919 65292900 		.ascii	"e))\000"
 13448              	.LASF610:
 13449 b91d 5F484156 		.ascii	"_HAVE_CC_INHIBIT_LOOP_TO_LIBCALL 1\000"
 13449      455F4343 
 13449      5F494E48 
 13449      49424954 
 13449      5F4C4F4F 
 13450              	.LASF1051:
 13451 b940 50545244 		.ascii	"PTRDIFF_MAX\000"
 13451      4946465F 
 13451      4D415800 
 13452              	.LASF903:
 13453 b94c 5F5F5243 		.ascii	"__RCSID_SOURCE(s) struct __hack\000"
 13453      5349445F 
 13453      534F5552 
 13453      43452873 
 13453      29207374 
 13454              	.LASF1157:
 13455 b96c 50524964 		.ascii	"PRId32 __PRI32(d)\000"
 13455      3332205F 
 13455      5F505249 
 13455      33322864 
 13455      2900
 13456              	.LASF634:
ARM GAS  /tmp/cceRHmPh.s 			page 333


 13457 b97e 5F5F4953 		.ascii	"__ISO_C_VISIBLE 1999\000"
 13457      4F5F435F 
 13457      56495349 
 13457      424C4520 
 13457      31393939 
 13458              	.LASF1177:
 13459 b993 53434E75 		.ascii	"SCNuLEAST32 __SCN32LEAST(u)\000"
 13459      4C454153 
 13459      54333220 
 13459      5F5F5343 
 13459      4E33324C 
 13460              	.LASF1076:
 13461 b9af 494E5436 		.ascii	"INT64_C(c) __INT64_C(c)\000"
 13461      345F4328 
 13461      6329205F 
 13461      5F494E54 
 13461      36345F43 
 13462              	.LASF370:
 13463 b9c7 5F5F4743 		.ascii	"__GCC_ATOMIC_LLONG_LOCK_FREE 1\000"
 13463      435F4154 
 13463      4F4D4943 
 13463      5F4C4C4F 
 13463      4E475F4C 
 13464              	.LASF805:
 13465 b9e6 5F535953 		.ascii	"_SYS_CDEFS_H_ \000"
 13465      5F434445 
 13465      46535F48 
 13465      5F2000
 13466              	.LASF582:
 13467 b9f5 4C44424C 		.ascii	"LDBL_EPSILON __LDBL_EPSILON__\000"
 13467      5F455053 
 13467      494C4F4E 
 13467      205F5F4C 
 13467      44424C5F 
 13468              	.LASF1159:
 13469 ba13 5052496F 		.ascii	"PRIo32 __PRI32(o)\000"
 13469      3332205F 
 13469      5F505249 
 13469      3332286F 
 13469      2900
 13470              	.LASF267:
 13471 ba25 5F5F554C 		.ascii	"__ULFRACT_EPSILON__ 0x1P-32ULR\000"
 13471      46524143 
 13471      545F4550 
 13471      53494C4F 
 13471      4E5F5F20 
 13472              	.LASF1522:
 13473 ba44 43457870 		.ascii	"CExp(z) { float e = exp(z.re); z.re = e*cos(z.im); "
 13473      287A2920 
 13473      7B20666C 
 13473      6F617420 
 13473      65203D20 
 13474 ba77 7A2E696D 		.ascii	"z.im = e*sin(z.im); }\000"
 13474      203D2065 
 13474      2A73696E 
 13474      287A2E69 
 13474      6D293B20 
ARM GAS  /tmp/cceRHmPh.s 			page 334


 13475              	.LASF446:
 13476 ba8d 41435455 		.ascii	"ACTUATORS 1\000"
 13476      41544F52 
 13476      53203100 
 13477              	.LASF1594:
 13478 ba99 474E5520 		.ascii	"GNU C99 10.3.1 20210621 (release) -mcpu=cortex-m4 -"
 13478      43393920 
 13478      31302E33 
 13478      2E312032 
 13478      30323130 
 13479 bacc 6D666C6F 		.ascii	"mfloat-abi=softfp -mfpu=fpv4-sp-d16 -mno-thumb-inte"
 13479      61742D61 
 13479      62693D73 
 13479      6F667466 
 13479      70202D6D 
 13480 baff 72776F72 		.ascii	"rwork -mthumb -march=armv7e-m+fp -g -ggdb3 -O0 -std"
 13480      6B202D6D 
 13480      7468756D 
 13480      62202D6D 
 13480      61726368 
 13481 bb32 3D676E75 		.ascii	"=gnu99 -fno-inline -falign-functions=16 -fomit-fram"
 13481      3939202D 
 13481      666E6F2D 
 13481      696E6C69 
 13481      6E65202D 
 13482 bb65 652D706F 		.ascii	"e-pointer -ffunction-sections -fdata-sections -fno-"
 13482      696E7465 
 13482      72202D66 
 13482      66756E63 
 13482      74696F6E 
 13483 bb98 636F6D6D 		.ascii	"common\000"
 13483      6F6E00
 13484              	.LASF1011:
 13485 bb9f 494E545F 		.ascii	"INT_LEAST64_MIN\000"
 13485      4C454153 
 13485      5436345F 
 13485      4D494E00 
 13486              	.LASF1409:
 13487 bbaf 51554154 		.ascii	"QUAT_ASSIGN(_q,_i,_x,_y,_z) { (_q).qi = (_i); (_q)."
 13487      5F415353 
 13487      49474E28 
 13487      5F712C5F 
 13487      692C5F78 
 13488 bbe2 7178203D 		.ascii	"qx = (_x); (_q).qy = (_y); (_q).qz = (_z); }\000"
 13488      20285F78 
 13488      293B2028 
 13488      5F71292E 
 13488      7179203D 
 13489              	.LASF1352:
 13490 bc0f 56454354 		.ascii	"VECT2_STRIM(_v,_min,_max) { (_v).x = (_v).x < _min "
 13490      325F5354 
 13490      52494D28 
 13490      5F762C5F 
 13490      6D696E2C 
 13491 bc42 3F205F6D 		.ascii	"? _min : (_v).x > _max ? _max : (_v).x; (_v).y = (_"
 13491      696E203A 
 13491      20285F76 
ARM GAS  /tmp/cceRHmPh.s 			page 335


 13491      292E7820 
 13491      3E205F6D 
 13492 bc75 76292E79 		.ascii	"v).y < _min ? _min : (_v).y > _max ? _max : (_v).y;"
 13492      203C205F 
 13492      6D696E20 
 13492      3F205F6D 
 13492      696E203A 
 13493 bca8 207D00   		.ascii	" }\000"
 13494              	.LASF572:
 13495 bcab 44424C5F 		.ascii	"DBL_MAX\000"
 13495      4D415800 
 13496              	.LASF1054:
 13497 bcb3 50545244 		.ascii	"PTRDIFF_MIN (-PTRDIFF_MAX - 1)\000"
 13497      4946465F 
 13497      4D494E20 
 13497      282D5054 
 13497      52444946 
 13498              	.LASF939:
 13499 bcd2 63686172 		.ascii	"char\000"
 13499      00
 13500              	.LASF1182:
 13501 bcd7 50524975 		.ascii	"PRIuFAST32 __PRI32FAST(u)\000"
 13501      46415354 
 13501      3332205F 
 13501      5F505249 
 13501      33324641 
 13502              	.LASF218:
 13503 bcf1 5F5F464C 		.ascii	"__FLT64_EPSILON__ 2.2204460492503131e-16F64\000"
 13503      5436345F 
 13503      45505349 
 13503      4C4F4E5F 
 13503      5F20322E 
 13504              	.LASF364:
 13505 bd1d 5F5F4743 		.ascii	"__GCC_ATOMIC_CHAR16_T_LOCK_FREE 2\000"
 13505      435F4154 
 13505      4F4D4943 
 13505      5F434841 
 13505      5231365F 
 13506              	.LASF597:
 13507 bd3f 5F5F4E45 		.ascii	"__NEWLIB_H__ 1\000"
 13507      574C4942 
 13507      5F485F5F 
 13507      203100
 13508              	.LASF282:
 13509 bd4e 5F5F5341 		.ascii	"__SACCUM_EPSILON__ 0x1P-7HK\000"
 13509      4343554D 
 13509      5F455053 
 13509      494C4F4E 
 13509      5F5F2030 
 13510              	.LASF1100:
 13511 bd6a 50524964 		.ascii	"PRIdLEAST8 __PRI8LEAST(d)\000"
 13511      4C454153 
 13511      5438205F 
 13511      5F505249 
 13511      384C4541 
 13512              	.LASF313:
 13513 bd84 5F5F554C 		.ascii	"__ULLACCUM_FBIT__ 32\000"
ARM GAS  /tmp/cceRHmPh.s 			page 336


 13513      4C414343 
 13513      554D5F46 
 13513      4249545F 
 13513      5F203332 
 13514              	.LASF797:
 13515 bd99 5F524545 		.ascii	"_REENT_SIGNAL_BUF(ptr) ((ptr)->_new._reent._signal_"
 13515      4E545F53 
 13515      49474E41 
 13515      4C5F4255 
 13515      46287074 
 13516 bdcc 62756629 		.ascii	"buf)\000"
 13516      00
 13517              	.LASF191:
 13518 bdd1 5F5F4C44 		.ascii	"__LDBL_HAS_QUIET_NAN__ 1\000"
 13518      424C5F48 
 13518      41535F51 
 13518      55494554 
 13518      5F4E414E 
 13519              	.LASF699:
 13520 bdea 5F5F5F69 		.ascii	"___int_wchar_t_h \000"
 13520      6E745F77 
 13520      63686172 
 13520      5F745F68 
 13520      2000
 13521              	.LASF888:
 13522 bdfc 5F5F7261 		.ascii	"__rangeof(type,start,end) (__offsetof(type, end) - "
 13522      6E67656F 
 13522      66287479 
 13522      70652C73 
 13522      74617274 
 13523 be2f 5F5F6F66 		.ascii	"__offsetof(type, start))\000"
 13523      66736574 
 13523      6F662874 
 13523      7970652C 
 13523      20737461 
 13524              	.LASF73:
 13525 be48 5F5F5743 		.ascii	"__WCHAR_MAX__ 0xffffffffU\000"
 13525      4841525F 
 13525      4D41585F 
 13525      5F203078 
 13525      66666666 
 13526              	.LASF518:
 13527 be62 5050525A 		.ascii	"PPRZ_GEODETIC_FLOAT_H \000"
 13527      5F47454F 
 13527      44455449 
 13527      435F464C 
 13527      4F41545F 
 13528              	.LASF672:
 13529 be79 5F53495A 		.ascii	"_SIZE_T \000"
 13529      455F5420 
 13529      00
 13530              	.LASF628:
 13531 be82 5F504F53 		.ascii	"_POSIX_C_SOURCE 200809L\000"
 13531      49585F43 
 13531      5F534F55 
 13531      52434520 
 13531      32303038 
ARM GAS  /tmp/cceRHmPh.s 			page 337


 13532              	.LASF1215:
 13533 be9a 50524978 		.ascii	"PRIxPTR __PRIPTR(x)\000"
 13533      50545220 
 13533      5F5F5052 
 13533      49505452 
 13533      28782900 
 13534              	.LASF1326:
 13535 beae 426F756E 		.ascii	"BoundUpper(_x,_max) { if (_x > (_max)) _x = (_max);"
 13535      64557070 
 13535      6572285F 
 13535      782C5F6D 
 13535      61782920 
 13536 bee1 7D00     		.ascii	"}\000"
 13537              	.LASF1369:
 13538 bee3 56454354 		.ascii	"VECT3_BOUND_CUBE(_v,_min,_max) { if ((_v).x > (_max"
 13538      335F424F 
 13538      554E445F 
 13538      43554245 
 13538      285F762C 
 13539 bf16 29292028 		.ascii	")) (_v).x = (_max); else if ((_v).x < (_min)) (_v)."
 13539      5F76292E 
 13539      78203D20 
 13539      285F6D61 
 13539      78293B20 
 13540 bf49 78203D20 		.ascii	"x = (_min); if ((_v).y > (_max)) (_v).y = (_max); e"
 13540      285F6D69 
 13540      6E293B20 
 13540      69662028 
 13540      285F7629 
 13541 bf7c 6C736520 		.ascii	"lse if ((_v).y < (_min)) (_v).y = (_min); if ((_v)."
 13541      69662028 
 13541      285F7629 
 13541      2E79203C 
 13541      20285F6D 
 13542 bfaf 7A203E20 		.ascii	"z > (_max)) (_v).z = (_max); else if ((_v).z < (_mi"
 13542      285F6D61 
 13542      78292920 
 13542      285F7629 
 13542      2E7A203D 
 13543 bfe2 6E292920 		.ascii	"n)) (_v).z = (_min); }\000"
 13543      285F7629 
 13543      2E7A203D 
 13543      20285F6D 
 13543      696E293B 
 13544              	.LASF1332:
 13545 bff9 436C6970 		.ascii	"ClipAbs(x,max) Clip(x, -(max), (max))\000"
 13545      41627328 
 13545      782C6D61 
 13545      78292043 
 13545      6C697028 
 13546              	.LASF1142:
 13547 c01f 5052496F 		.ascii	"PRIoFAST16 __PRI16FAST(o)\000"
 13547      46415354 
 13547      3136205F 
 13547      5F505249 
 13547      31364641 
 13548              	.LASF176:
ARM GAS  /tmp/cceRHmPh.s 			page 338


 13549 c039 5F5F4C44 		.ascii	"__LDBL_MANT_DIG__ 53\000"
 13549      424C5F4D 
 13549      414E545F 
 13549      4449475F 
 13549      5F203533 
 13550              	.LASF1463:
 13551 c04e 464C4F41 		.ascii	"FLOAT_RMAT_RATEMULT(_rb,_m_a2b,_ra) WARNING(\"FLOAT"
 13551      545F524D 
 13551      41545F52 
 13551      4154454D 
 13551      554C5428 
 13552 c080 5F524D41 		.ascii	"_RMAT_RATEMULT macro is deprecated, use the lower c"
 13552      545F5241 
 13552      54454D55 
 13552      4C54206D 
 13552      6163726F 
 13553 c0b3 61736520 		.ascii	"ase function instead\") float_rmat_ratemult(&(_rb),"
 13553      66756E63 
 13553      74696F6E 
 13553      20696E73 
 13553      74656164 
 13554 c0e5 2026285F 		.ascii	" &(_m_a2b), &(_ra))\000"
 13554      6D5F6132 
 13554      62292C20 
 13554      26285F72 
 13554      61292900 
 13555              	.LASF273:
 13556 c0f9 5F5F554C 		.ascii	"__ULLFRACT_FBIT__ 64\000"
 13556      4C465241 
 13556      43545F46 
 13556      4249545F 
 13556      5F203634 
 13557              	.LASF1061:
 13558 c10e 57434841 		.ascii	"WCHAR_MAX\000"
 13558      525F4D41 
 13558      5800
 13559              	.LASF325:
 13560 c118 5F5F4451 		.ascii	"__DQ_IBIT__ 0\000"
 13560      5F494249 
 13560      545F5F20 
 13560      3000
 13561              	.LASF215:
 13562 c126 5F5F464C 		.ascii	"__FLT64_MAX__ 1.7976931348623157e+308F64\000"
 13562      5436345F 
 13562      4D41585F 
 13562      5F20312E 
 13562      37393736 
 13563              	.LASF484:
 13564 c14f 5050525A 		.ascii	"PPRZLINK_ENABLE_FD 1\000"
 13564      4C494E4B 
 13564      5F454E41 
 13564      424C455F 
 13564      46442031 
 13565              	.LASF680:
 13566 c164 5F53495A 		.ascii	"_SIZE_T_DEFINED \000"
 13566      455F545F 
 13566      44454649 
ARM GAS  /tmp/cceRHmPh.s 			page 339


 13566      4E454420 
 13566      00
 13567              	.LASF1211:
 13568 c175 50524964 		.ascii	"PRIdPTR __PRIPTR(d)\000"
 13568      50545220 
 13568      5F5F5052 
 13568      49505452 
 13568      28642900 
 13569              	.LASF993:
 13570 c189 494E545F 		.ascii	"INT_LEAST8_MIN\000"
 13570      4C454153 
 13570      54385F4D 
 13570      494E00
 13571              	.LASF1306:
 13572 c198 53657442 		.ascii	"SetBit(a,n) a |= (1 << n)\000"
 13572      69742861 
 13572      2C6E2920 
 13572      61207C3D 
 13572      20283120 
 13573              	.LASF329:
 13574 c1b2 5F5F5551 		.ascii	"__UQQ_IBIT__ 0\000"
 13574      515F4942 
 13574      49545F5F 
 13574      203000
 13575              	.LASF719:
 13576 c1c1 5F5F5F69 		.ascii	"___int8_t_defined 1\000"
 13576      6E74385F 
 13576      745F6465 
 13576      66696E65 
 13576      64203100 
 13577              	.LASF1267:
 13578 c1d5 4D5F5049 		.ascii	"M_PI_4 0.78539816339744830962\000"
 13578      5F342030 
 13578      2E373835 
 13578      33393831 
 13578      36333339 
 13579              	.LASF961:
 13580 c1f3 5F5F4641 		.ascii	"__FAST64 \"ll\"\000"
 13580      53543634 
 13580      20226C6C 
 13580      2200
 13581              	.LASF867:
 13582 c201 5F4E6F72 		.ascii	"_Noreturn __dead2\000"
 13582      65747572 
 13582      6E205F5F 
 13582      64656164 
 13582      3200
 13583              	.LASF1479:
 13584 c213 464C4F41 		.ascii	"FLOAT_QUAT_MULT(_a2c,_a2b,_b2c) WARNING(\"FLOAT_QUA"
 13584      545F5155 
 13584      41545F4D 
 13584      554C5428 
 13584      5F613263 
 13585 c245 545F4D55 		.ascii	"T_MULT macro is deprecated, use the lower case func"
 13585      4C54206D 
 13585      6163726F 
 13585      20697320 
ARM GAS  /tmp/cceRHmPh.s 			page 340


 13585      64657072 
 13586 c278 74696F6E 		.ascii	"tion instead\") float_quat_comp(&(_a2c), &(_a2b), &"
 13586      20696E73 
 13586      74656164 
 13586      22292066 
 13586      6C6F6174 
 13587 c2aa 285F6232 		.ascii	"(_b2c))\000"
 13587      63292900 
 13588              	.LASF1378:
 13589 c2b2 45554C45 		.ascii	"EULERS_ADD(_a,_b) { (_a).phi += (_b).phi; (_a).thet"
 13589      52535F41 
 13589      4444285F 
 13589      612C5F62 
 13589      29207B20 
 13590 c2e5 61202B3D 		.ascii	"a += (_b).theta; (_a).psi += (_b).psi; }\000"
 13590      20285F62 
 13590      292E7468 
 13590      6574613B 
 13590      20285F61 
 13591              	.LASF1459:
 13592 c30e 464C4F41 		.ascii	"FLOAT_RMAT_COMP(_m_a2c,_m_a2b,_m_b2c) WARNING(\"FLO"
 13592      545F524D 
 13592      41545F43 
 13592      4F4D5028 
 13592      5F6D5F61 
 13593 c340 41545F52 		.ascii	"AT_RMAT_COMP macro is deprecated, use the lower cas"
 13593      4D41545F 
 13593      434F4D50 
 13593      206D6163 
 13593      726F2069 
 13594 c373 65206675 		.ascii	"e function instead\") float_rmat_comp(&(_m_a2c), &("
 13594      6E637469 
 13594      6F6E2069 
 13594      6E737465 
 13594      61642229 
 13595 c3a5 5F6D5F61 		.ascii	"_m_a2b), &(_m_b2c))\000"
 13595      3262292C 
 13595      2026285F 
 13595      6D5F6232 
 13595      63292900 
 13596              	.LASF467:
 13597 c3b9 464C4947 		.ascii	"FLIGHTRECORDER_SDLOG 1\000"
 13597      48545245 
 13597      434F5244 
 13597      45525F53 
 13597      444C4F47 
 13598              	.LASF433:
 13599 c3d0 5F5F4152 		.ascii	"__ARM_FEATURE_CDE\000"
 13599      4D5F4645 
 13599      41545552 
 13599      455F4344 
 13599      4500
 13600              	.LASF632:
 13601 c3e2 5F5F4253 		.ascii	"__BSD_VISIBLE 1\000"
 13601      445F5649 
 13601      5349424C 
 13601      45203100 
ARM GAS  /tmp/cceRHmPh.s 			page 341


 13602              	.LASF931:
 13603 c3f2 5F5F6E65 		.ascii	"__need_NULL \000"
 13603      65645F4E 
 13603      554C4C20 
 13603      00
 13604              	.LASF561:
 13605 c3ff 4C44424C 		.ascii	"LDBL_MAX_EXP\000"
 13605      5F4D4158 
 13605      5F455850 
 13605      00
 13606              	.LASF391:
 13607 c40c 5F5F4152 		.ascii	"__ARM_FEATURE_LDREX\000"
 13607      4D5F4645 
 13607      41545552 
 13607      455F4C44 
 13607      52455800 
 13608              	.LASF1586:
 13609 c420 6E65645F 		.ascii	"ned_of_lla_point_f\000"
 13609      6F665F6C 
 13609      6C615F70 
 13609      6F696E74 
 13609      5F6600
 13610              	.LASF120:
 13611 c433 5F5F5549 		.ascii	"__UINT_LEAST32_MAX__ 0xffffffffUL\000"
 13611      4E545F4C 
 13611      45415354 
 13611      33325F4D 
 13611      41585F5F 
 13612              	.LASF1499:
 13613 c455 5050525A 		.ascii	"PPRZ_GEODETIC_DOUBLE_H \000"
 13613      5F47454F 
 13613      44455449 
 13613      435F444F 
 13613      55424C45 
 13614              	.LASF953:
 13615 c46d 5F494E54 		.ascii	"_INT32_EQ_LONG \000"
 13615      33325F45 
 13615      515F4C4F 
 13615      4E472000 
 13616              	.LASF706:
 13617 c47d 4E554C4C 		.ascii	"NULL ((void *)0)\000"
 13617      20282876 
 13617      6F696420 
 13617      2A293029 
 13617      00
 13618              	.LASF247:
 13619 c48e 5F5F5553 		.ascii	"__USFRACT_EPSILON__ 0x1P-8UHR\000"
 13619      46524143 
 13619      545F4550 
 13619      53494C4F 
 13619      4E5F5F20 
 13620              	.LASF1199:
 13621 c4ac 50524969 		.ascii	"PRIiMAX __PRIMAX(i)\000"
 13621      4D415820 
 13621      5F5F5052 
 13621      494D4158 
 13621      28692900 
ARM GAS  /tmp/cceRHmPh.s 			page 342


 13622              	.LASF27:
 13623 c4c0 5F5F4F52 		.ascii	"__ORDER_BIG_ENDIAN__ 4321\000"
 13623      4445525F 
 13623      4249475F 
 13623      454E4449 
 13623      414E5F5F 
 13624              	.LASF390:
 13625 c4da 5F5F4152 		.ascii	"__ARM_FEATURE_CMSE\000"
 13625      4D5F4645 
 13625      41545552 
 13625      455F434D 
 13625      534500
 13626              	.LASF1398:
 13627 c4ed 4D415433 		.ascii	"MAT33_ELMT(_m,_row,_col) ((_m).m[(_row)*3+(_col)])\000"
 13627      335F454C 
 13627      4D54285F 
 13627      6D2C5F72 
 13627      6F772C5F 
 13628              	.LASF256:
 13629 c520 5F5F5546 		.ascii	"__UFRACT_MAX__ 0XFFFFP-16UR\000"
 13629      52414354 
 13629      5F4D4158 
 13629      5F5F2030 
 13629      58464646 
 13630              	.LASF715:
 13631 c53c 5F4D4143 		.ascii	"_MACHINE__DEFAULT_TYPES_H \000"
 13631      48494E45 
 13631      5F5F4445 
 13631      4641554C 
 13631      545F5459 
 13632              	.LASF63:
 13633 c557 5F5F5549 		.ascii	"__UINT_FAST32_TYPE__ unsigned int\000"
 13633      4E545F46 
 13633      41535433 
 13633      325F5459 
 13633      50455F5F 
 13634              	.LASF94:
 13635 c579 5F5F5349 		.ascii	"__SIG_ATOMIC_MIN__ (-__SIG_ATOMIC_MAX__ - 1)\000"
 13635      475F4154 
 13635      4F4D4943 
 13635      5F4D494E 
 13635      5F5F2028 
 13636              	.LASF1224:
 13637 c5a6 74727565 		.ascii	"true 1\000"
 13637      203100
 13638              	.LASF855:
 13639 c5ad 5F5F7075 		.ascii	"__pure2 __attribute__((__const__))\000"
 13639      72653220 
 13639      5F5F6174 
 13639      74726962 
 13639      7574655F 
 13640              	.LASF1490:
 13641 c5d0 464C4F41 		.ascii	"FLOAT_QUAT_OF_EULERS(_q,_e) WARNING(\"FLOAT_QUAT_OF"
 13641      545F5155 
 13641      41545F4F 
 13641      465F4555 
 13641      4C455253 
ARM GAS  /tmp/cceRHmPh.s 			page 343


 13642 c602 5F45554C 		.ascii	"_EULERS macro is deprecated, use the lower case fun"
 13642      45525320 
 13642      6D616372 
 13642      6F206973 
 13642      20646570 
 13643 c635 6374696F 		.ascii	"ction instead\") float_quat_of_eulers(&(_q), &(_e))"
 13643      6E20696E 
 13643      73746561 
 13643      64222920 
 13643      666C6F61 
 13644 c667 00       		.ascii	"\000"
 13645              	.LASF704:
 13646 c668 5F5F6E65 		.ascii	"__need_wchar_t\000"
 13646      65645F77 
 13646      63686172 
 13646      5F7400
 13647              	.LASF151:
 13648 c677 5F5F464C 		.ascii	"__FLT_DECIMAL_DIG__ 9\000"
 13648      545F4445 
 13648      43494D41 
 13648      4C5F4449 
 13648      475F5F20 
 13649              	.LASF43:
 13650 c68d 5F5F494E 		.ascii	"__INT32_TYPE__ long int\000"
 13650      5433325F 
 13650      54595045 
 13650      5F5F206C 
 13650      6F6E6720 
 13651              	.LASF662:
 13652 c6a5 5F545F50 		.ascii	"_T_PTRDIFF \000"
 13652      54524449 
 13652      46462000 
 13653              	.LASF284:
 13654 c6b1 5F5F5553 		.ascii	"__USACCUM_IBIT__ 8\000"
 13654      41434355 
 13654      4D5F4942 
 13654      49545F5F 
 13654      203800
 13655              	.LASF253:
 13656 c6c4 5F5F5546 		.ascii	"__UFRACT_FBIT__ 16\000"
 13656      52414354 
 13656      5F464249 
 13656      545F5F20 
 13656      313600
 13657              	.LASF646:
 13658 c6d7 5F524541 		.ascii	"_READ_WRITE_RETURN_TYPE int\000"
 13658      445F5752 
 13658      4954455F 
 13658      52455455 
 13658      524E5F54 
 13659              	.LASF265:
 13660 c6f3 5F5F554C 		.ascii	"__ULFRACT_MIN__ 0.0ULR\000"
 13660      46524143 
 13660      545F4D49 
 13660      4E5F5F20 
 13660      302E3055 
 13661              	.LASF339:
ARM GAS  /tmp/cceRHmPh.s 			page 344


 13662 c70a 5F5F4841 		.ascii	"__HA_IBIT__ 8\000"
 13662      5F494249 
 13662      545F5F20 
 13662      3800
 13663              	.LASF752:
 13664 c718 5F524545 		.ascii	"_REENT_INIT_ATEXIT _NULL, _ATEXIT_INIT,\000"
 13664      4E545F49 
 13664      4E49545F 
 13664      41544558 
 13664      4954205F 
 13665              	.LASF326:
 13666 c740 5F5F5451 		.ascii	"__TQ_FBIT__ 127\000"
 13666      5F464249 
 13666      545F5F20 
 13666      31323700 
 13667              	.LASF1427:
 13668 c750 524D4154 		.ascii	"RMAT_BFP_OF_REAL(_ei,_ef) { (_ei).m[0] = TRIG_BFP_O"
 13668      5F424650 
 13668      5F4F465F 
 13668      5245414C 
 13668      285F6569 
 13669 c783 465F5245 		.ascii	"F_REAL((_ef).m[0]); (_ei).m[1] = TRIG_BFP_OF_REAL(("
 13669      414C2828 
 13669      5F656629 
 13669      2E6D5B30 
 13669      5D293B20 
 13670 c7b6 5F656629 		.ascii	"_ef).m[1]); (_ei).m[2] = TRIG_BFP_OF_REAL((_ef).m[2"
 13670      2E6D5B31 
 13670      5D293B20 
 13670      285F6569 
 13670      292E6D5B 
 13671 c7e9 5D293B20 		.ascii	"]); (_ei).m[3] = TRIG_BFP_OF_REAL((_ef).m[3]); (_ei"
 13671      285F6569 
 13671      292E6D5B 
 13671      335D203D 
 13671      20545249 
 13672 c81c 292E6D5B 		.ascii	").m[4] = TRIG_BFP_OF_REAL((_ef).m[4]); (_ei).m[5] ="
 13672      345D203D 
 13672      20545249 
 13672      475F4246 
 13672      505F4F46 
 13673 c84f 20545249 		.ascii	" TRIG_BFP_OF_REAL((_ef).m[5]); (_ei).m[6] = TRIG_BF"
 13673      475F4246 
 13673      505F4F46 
 13673      5F524541 
 13673      4C28285F 
 13674 c882 505F4F46 		.ascii	"P_OF_REAL((_ef).m[6]); (_ei).m[7] = TRIG_BFP_OF_REA"
 13674      5F524541 
 13674      4C28285F 
 13674      6566292E 
 13674      6D5B365D 
 13675 c8b5 4C28285F 		.ascii	"L((_ef).m[7]); (_ei).m[8] = TRIG_BFP_OF_REAL((_ef)."
 13675      6566292E 
 13675      6D5B375D 
 13675      293B2028 
 13675      5F656929 
 13676 c8e8 6D5B385D 		.ascii	"m[8]); }\000"
ARM GAS  /tmp/cceRHmPh.s 			page 345


 13676      293B207D 
 13676      00
 13677              	.LASF66:
 13678 c8f1 5F5F5549 		.ascii	"__UINTPTR_TYPE__ unsigned int\000"
 13678      4E545054 
 13678      525F5459 
 13678      50455F5F 
 13678      20756E73 
 13679              	.LASF500:
 13680 c90f 5542585F 		.ascii	"UBX_GPS_LINK uart4\000"
 13680      4750535F 
 13680      4C494E4B 
 13680      20756172 
 13680      743400
 13681              	.LASF1234:
 13682 c922 46505F4E 		.ascii	"FP_NAN 0\000"
 13682      414E2030 
 13682      00
 13683              	.LASF15:
 13684 c92b 5F5F4649 		.ascii	"__FINITE_MATH_ONLY__ 0\000"
 13684      4E495445 
 13684      5F4D4154 
 13684      485F4F4E 
 13684      4C595F5F 
 13685              	.LASF972:
 13686 c942 55494E54 		.ascii	"UINT8_MAX __UINT8_MAX__\000"
 13686      385F4D41 
 13686      58205F5F 
 13686      55494E54 
 13686      385F4D41 
 13687              	.LASF334:
 13688 c95a 5F5F5544 		.ascii	"__UDQ_FBIT__ 64\000"
 13688      515F4642 
 13688      49545F5F 
 13688      20363400 
 13689              	.LASF1105:
 13690 c96a 50524958 		.ascii	"PRIXLEAST8 __PRI8LEAST(X)\000"
 13690      4C454153 
 13690      5438205F 
 13690      5F505249 
 13690      384C4541 
 13691              	.LASF1330:
 13692 c984 426F756E 		.ascii	"BoundAbs(_x,_max) Bound(_x, -(_max), (_max))\000"
 13692      64416273 
 13692      285F782C 
 13692      5F6D6178 
 13692      2920426F 
 13693              	.LASF929:
 13694 c9b1 5F5F6775 		.ascii	"__guarded_by(x) __lock_annotate(guarded_by(x))\000"
 13694      61726465 
 13694      645F6279 
 13694      28782920 
 13694      5F5F6C6F 
 13695              	.LASF1262:
 13696 c9e0 4D5F4C4F 		.ascii	"M_LOG10E 0.43429448190325182765\000"
 13696      47313045 
 13696      20302E34 
ARM GAS  /tmp/cceRHmPh.s 			page 346


 13696      33343239 
 13696      34343831 
 13697              	.LASF1263:
 13698 ca00 4D5F4C4E 		.ascii	"M_LN2 _M_LN2\000"
 13698      32205F4D 
 13698      5F4C4E32 
 13698      00
 13699              	.LASF437:
 13700 ca0d 5F5F4152 		.ascii	"__ARM_FEATURE_BF16_VECTOR_ARITHMETIC\000"
 13700      4D5F4645 
 13700      41545552 
 13700      455F4246 
 13700      31365F56 
 13701              	.LASF578:
 13702 ca32 44424C5F 		.ascii	"DBL_EPSILON\000"
 13702      45505349 
 13702      4C4F4E00 
 13703              	.LASF1358:
 13704 ca3e 56454354 		.ascii	"VECT3_ADD(_a,_b) { (_a).x += (_b).x; (_a).y += (_b)"
 13704      335F4144 
 13704      44285F61 
 13704      2C5F6229 
 13704      207B2028 
 13705 ca71 2E793B20 		.ascii	".y; (_a).z += (_b).z; }\000"
 13705      285F6129 
 13705      2E7A202B 
 13705      3D20285F 
 13705      62292E7A 
 13706              	.LASF971:
 13707 ca89 55494E54 		.ascii	"UINT8_MAX\000"
 13707      385F4D41 
 13707      5800
 13708              	.LASF1164:
 13709 ca93 53434E69 		.ascii	"SCNi32 __SCN32(i)\000"
 13709      3332205F 
 13709      5F53434E 
 13709      33322869 
 13709      2900
 13710              	.LASF508:
 13711 caa5 5553455F 		.ascii	"USE_I2C1 1\000"
 13711      49324331 
 13711      203100
 13712              	.LASF475:
 13713 cab0 48414C5F 		.ascii	"HAL_USE_SDC TRUE\000"
 13713      5553455F 
 13713      53444320 
 13713      54525545 
 13713      00
 13714              	.LASF396:
 13715 cac1 5F5F4152 		.ascii	"__ARM_SIZEOF_MINIMAL_ENUM 1\000"
 13715      4D5F5349 
 13715      5A454F46 
 13715      5F4D494E 
 13715      494D414C 
 13716              	.LASF897:
 13717 cadd 5F5F7765 		.ascii	"__weak_reference(sym,alias) __asm__(\".weak \" #ali"
 13717      616B5F72 
ARM GAS  /tmp/cceRHmPh.s 			page 347


 13717      65666572 
 13717      656E6365 
 13717      2873796D 
 13718 cb0e 6173293B 		.ascii	"as); __asm__(\".equ \" #alias \", \" #sym)\000"
 13718      205F5F61 
 13718      736D5F5F 
 13718      28222E65 
 13718      71752022 
 13719              	.LASF463:
 13720 cb35 444F574E 		.ascii	"DOWNLINK 1\000"
 13720      4C494E4B 
 13720      203100
 13721              	.LASF114:
 13722 cb40 5F5F494E 		.ascii	"__INT64_C(c) c ## LL\000"
 13722      5436345F 
 13722      43286329 
 13722      20632023 
 13722      23204C4C 
 13723              	.LASF955:
 13724 cb55 5F5F494E 		.ascii	"__INT16 \"h\"\000"
 13724      54313620 
 13724      22682200 
 13725              	.LASF937:
 13726 cb61 5F5F5354 		.ascii	"__STDINT_EXP(x) __ ##x ##__\000"
 13726      44494E54 
 13726      5F455850 
 13726      28782920 
 13726      5F5F2023 
 13727              	.LASF997:
 13728 cb7d 494E545F 		.ascii	"INT_LEAST16_MAX\000"
 13728      4C454153 
 13728      5431365F 
 13728      4D415800 
 13729              	.LASF457:
 13730 cb8d 43485F44 		.ascii	"CH_DBG_FILL_THREADS TRUE\000"
 13730      42475F46 
 13730      494C4C5F 
 13730      54485245 
 13730      41445320 
 13731              	.LASF1581:
 13732 cba6 6C74705F 		.ascii	"ltp_of_ecef_d\000"
 13732      6F665F65 
 13732      6365665F 
 13732      6400
 13733              	.LASF342:
 13734 cbb4 5F5F4441 		.ascii	"__DA_FBIT__ 31\000"
 13734      5F464249 
 13734      545F5F20 
 13734      333100
 13735              	.LASF201:
 13736 cbc3 5F5F464C 		.ascii	"__FLT32_MIN__ 1.1754943508222875e-38F32\000"
 13736      5433325F 
 13736      4D494E5F 
 13736      5F20312E 
 13736      31373534 
 13737              	.LASF1060:
 13738 cbeb 53495A45 		.ascii	"SIZE_MAX __SIZE_MAX__\000"
ARM GAS  /tmp/cceRHmPh.s 			page 348


 13738      5F4D4158 
 13738      205F5F53 
 13738      495A455F 
 13738      4D41585F 
 13739              	.LASF969:
 13740 cc01 494E5438 		.ascii	"INT8_MIN\000"
 13740      5F4D494E 
 13740      00
 13741              	.LASF1519:
 13742 cc0a 43416464 		.ascii	"CAdd(z1,z2) { z2.re += z1.re; z2.im += z1.im; }\000"
 13742      287A312C 
 13742      7A322920 
 13742      7B207A32 
 13742      2E726520 
 13743              	.LASF849:
 13744 cc3a 5F5F5853 		.ascii	"__XSTRING(x) __STRING(x)\000"
 13744      5452494E 
 13744      47287829 
 13744      205F5F53 
 13744      5452494E 
 13745              	.LASF904:
 13746 cc53 5F5F5343 		.ascii	"__SCCSID(s) struct __hack\000"
 13746      43534944 
 13746      28732920 
 13746      73747275 
 13746      6374205F 
 13747              	.LASF1554:
 13748 cc6d 636F6D70 		.ascii	"complex\000"
 13748      6C657800 
 13749              	.LASF448:
 13750 cc75 41485253 		.ascii	"AHRS_TYPE_H \"modules/ahrs/ahrs_float_dcm_wrapper.h"
 13750      5F545950 
 13750      455F4820 
 13750      226D6F64 
 13750      756C6573 
 13751 cca7 2200     		.ascii	"\"\000"
 13752              	.LASF362:
 13753 cca9 5F5F4743 		.ascii	"__GCC_ATOMIC_BOOL_LOCK_FREE 2\000"
 13753      435F4154 
 13753      4F4D4943 
 13753      5F424F4F 
 13753      4C5F4C4F 
 13754              	.LASF1035:
 13755 ccc7 494E545F 		.ascii	"INT_FAST64_MIN\000"
 13755      46415354 
 13755      36345F4D 
 13755      494E00
 13756              	.LASF128:
 13757 ccd6 5F5F494E 		.ascii	"__INT_FAST32_MAX__ 0x7fffffff\000"
 13757      545F4641 
 13757      53543332 
 13757      5F4D4158 
 13757      5F5F2030 
 13758              	.LASF150:
 13759 ccf4 5F5F464C 		.ascii	"__FLT_MAX_10_EXP__ 38\000"
 13759      545F4D41 
 13759      585F3130 
ARM GAS  /tmp/cceRHmPh.s 			page 349


 13759      5F455850 
 13759      5F5F2033 
 13760              	.LASF1412:
 13761 cd0a 51554154 		.ascii	"QUAT_EXPLEMENTARY(b,a) { (b).qi = -(a).qi; (b).qx ="
 13761      5F455850 
 13761      4C454D45 
 13761      4E544152 
 13761      5928622C 
 13762 cd3d 202D2861 		.ascii	" -(a).qx; (b).qy = -(a).qy; (b).qz = -(a).qz; }\000"
 13762      292E7178 
 13762      3B202862 
 13762      292E7179 
 13762      203D202D 
 13763              	.LASF1068:
 13764 cd6d 57494E54 		.ascii	"WINT_MIN __WINT_MIN__\000"
 13764      5F4D494E 
 13764      205F5F57 
 13764      494E545F 
 13764      4D494E5F 
 13765              	.LASF1298:
 13766 cd83 5052494E 		.ascii	"PRINT_CONFIG_VAR(var) \000"
 13766      545F434F 
 13766      4E464947 
 13766      5F564152 
 13766      28766172 
 13767              	.LASF801:
 13768 cd9a 5F5F4154 		.ascii	"__ATTRIBUTE_IMPURE_PTR__ \000"
 13768      54524942 
 13768      5554455F 
 13768      494D5055 
 13768      52455F50 
 13769              	.LASF343:
 13770 cdb4 5F5F4441 		.ascii	"__DA_IBIT__ 32\000"
 13770      5F494249 
 13770      545F5F20 
 13770      333200
 13771              	.LASF1243:
 13772 cdc3 6D617468 		.ascii	"math_errhandling MATH_ERRNO\000"
 13772      5F657272 
 13772      68616E64 
 13772      6C696E67 
 13772      204D4154 
 13773              	.LASF1351:
 13774 cddf 56454354 		.ascii	"VECT2_SDIV(_vo,_vi,_s) { (_vo).x = (_vi).x / (_s); "
 13774      325F5344 
 13774      4956285F 
 13774      766F2C5F 
 13774      76692C5F 
 13775 ce12 285F766F 		.ascii	"(_vo).y = (_vi).y / (_s); }\000"
 13775      292E7920 
 13775      3D20285F 
 13775      7669292E 
 13775      79202F20 
 13776              	.LASF411:
 13777 ce2e 5F5F5646 		.ascii	"__VFP_FP__ 1\000"
 13777      505F4650 
 13777      5F5F2031 
ARM GAS  /tmp/cceRHmPh.s 			page 350


 13777      00
 13778              	.LASF577:
 13779 ce3b 464C545F 		.ascii	"FLT_EPSILON\000"
 13779      45505349 
 13779      4C4F4E00 
 13780              	.LASF951:
 13781 ce47 6C6F6E67 		.ascii	"long +4\000"
 13781      202B3400 
 13782              	.LASF773:
 13783 ce4f 5F524545 		.ascii	"_REENT_CHECK_MISC(ptr) \000"
 13783      4E545F43 
 13783      4845434B 
 13783      5F4D4953 
 13783      43287074 
 13784              	.LASF603:
 13785 ce67 5F57414E 		.ascii	"_WANT_IO_LONG_LONG 1\000"
 13785      545F494F 
 13785      5F4C4F4E 
 13785      475F4C4F 
 13785      4E472031 
 13786              	.LASF979:
 13787 ce7c 494E5433 		.ascii	"INT32_MAX\000"
 13787      325F4D41 
 13787      5800
 13788              	.LASF1536:
 13789 ce86 646F7562 		.ascii	"double\000"
 13789      6C6500
 13790              	.LASF264:
 13791 ce8d 5F5F554C 		.ascii	"__ULFRACT_IBIT__ 0\000"
 13791      46524143 
 13791      545F4942 
 13791      49545F5F 
 13791      203000
 13792              	.LASF1297:
 13793 cea0 5052494E 		.ascii	"PRINT_CONFIG_MSG_VALUE(x,v) \000"
 13793      545F434F 
 13793      4E464947 
 13793      5F4D5347 
 13793      5F56414C 
 13794              	.LASF488:
 13795 cebd 5050525A 		.ascii	"PPRZ_VER_MINOR 4\000"
 13795      5F564552 
 13795      5F4D494E 
 13795      4F522034 
 13795      00
 13796              	.LASF1162:
 13797 cece 50524958 		.ascii	"PRIX32 __PRI32(X)\000"
 13797      3332205F 
 13797      5F505249 
 13797      33322858 
 13797      2900
 13798              	.LASF891:
 13799 cee0 5F5F7363 		.ascii	"__scanflike(fmtarg,firstvararg) __attribute__((__fo"
 13799      616E666C 
 13799      696B6528 
 13799      666D7461 
 13799      72672C66 
ARM GAS  /tmp/cceRHmPh.s 			page 351


 13800 cf13 726D6174 		.ascii	"rmat__ (__scanf__, fmtarg, firstvararg)))\000"
 13800      5F5F2028 
 13800      5F5F7363 
 13800      616E665F 
 13800      5F2C2066 
 13801              	.LASF93:
 13802 cf3d 5F5F5349 		.ascii	"__SIG_ATOMIC_MAX__ 0x7fffffff\000"
 13802      475F4154 
 13802      4F4D4943 
 13802      5F4D4158 
 13802      5F5F2030 
 13803              	.LASF489:
 13804 cf5b 5050525A 		.ascii	"PPRZ_VER_PATCH 0\000"
 13804      5F564552 
 13804      5F504154 
 13804      43482030 
 13804      00
 13805              	.LASF466:
 13806 cf6c 46495845 		.ascii	"FIXEDWING_FIRMWARE 1\000"
 13806      4457494E 
 13806      475F4649 
 13806      524D5741 
 13806      52452031 
 13807              	.LASF1401:
 13808 cf81 4D415433 		.ascii	"MAT33_VECT3_MUL(_vout,_mat,_vin) { (_vout).x = MAT3"
 13808      335F5645 
 13808      4354335F 
 13808      4D554C28 
 13808      5F766F75 
 13809 cfb4 335F454C 		.ascii	"3_ELMT((_mat), 0, 0) * (_vin).x + MAT33_ELMT((_mat)"
 13809      4D542828 
 13809      5F6D6174 
 13809      292C2030 
 13809      2C203029 
 13810 cfe7 2C20302C 		.ascii	", 0, 1) * (_vin).y + MAT33_ELMT((_mat), 0, 2) * (_v"
 13810      20312920 
 13810      2A20285F 
 13810      76696E29 
 13810      2E79202B 
 13811 d01a 696E292E 		.ascii	"in).z; (_vout).y = MAT33_ELMT((_mat), 1, 0) * (_vin"
 13811      7A3B2028 
 13811      5F766F75 
 13811      74292E79 
 13811      203D204D 
 13812 d04d 292E7820 		.ascii	").x + MAT33_ELMT((_mat), 1, 1) * (_vin).y + MAT33_E"
 13812      2B204D41 
 13812      5433335F 
 13812      454C4D54 
 13812      28285F6D 
 13813 d080 4C4D5428 		.ascii	"LMT((_mat), 1, 2) * (_vin).z; (_vout).z = MAT33_ELM"
 13813      285F6D61 
 13813      74292C20 
 13813      312C2032 
 13813      29202A20 
 13814 d0b3 5428285F 		.ascii	"T((_mat), 2, 0) * (_vin).x + MAT33_ELMT((_mat), 2, "
 13814      6D617429 
 13814      2C20322C 
ARM GAS  /tmp/cceRHmPh.s 			page 352


 13814      20302920 
 13814      2A20285F 
 13815 d0e6 3129202A 		.ascii	"1) * (_vin).y + MAT33_ELMT((_mat), 2, 2) * (_vin).z"
 13815      20285F76 
 13815      696E292E 
 13815      79202B20 
 13815      4D415433 
 13816 d119 3B207D00 		.ascii	"; }\000"
 13817              	.LASF571:
 13818 d11d 464C545F 		.ascii	"FLT_MAX\000"
 13818      4D415800 
 13819              	.LASF21:
 13820 d125 5F5F5349 		.ascii	"__SIZEOF_DOUBLE__ 8\000"
 13820      5A454F46 
 13820      5F444F55 
 13820      424C455F 
 13820      5F203800 
 13821              	.LASF134:
 13822 d139 5F5F5549 		.ascii	"__UINT_FAST32_MAX__ 0xffffffffU\000"
 13822      4E545F46 
 13822      41535433 
 13822      325F4D41 
 13822      585F5F20 
 13823              	.LASF180:
 13824 d159 5F5F4C44 		.ascii	"__LDBL_MAX_EXP__ 1024\000"
 13824      424C5F4D 
 13824      41585F45 
 13824      58505F5F 
 13824      20313032 
 13825              	.LASF1137:
 13826 d16f 53434E6F 		.ascii	"SCNoLEAST16 __SCN16LEAST(o)\000"
 13826      4C454153 
 13826      54313620 
 13826      5F5F5343 
 13826      4E31364C 
 13827              	.LASF469:
 13828 d18b 4749545F 		.ascii	"GIT_SHA1 232f532dc3af5329cebb0954554d3061da91f830\000"
 13828      53484131 
 13828      20323332 
 13828      66353332 
 13828      64633361 
 13829              	.LASF695:
 13830 d1bd 5F425344 		.ascii	"_BSD_WCHAR_T_ \000"
 13830      5F574348 
 13830      41525F54 
 13830      5F2000
 13831              	.LASF633:
 13832 d1cc 5F5F474E 		.ascii	"__GNU_VISIBLE 0\000"
 13832      555F5649 
 13832      5349424C 
 13832      45203000 
 13833              	.LASF418:
 13834 d1dc 5F5F4152 		.ascii	"__ARM_FEATURE_FP16_VECTOR_ARITHMETIC\000"
 13834      4D5F4645 
 13834      41545552 
 13834      455F4650 
 13834      31365F56 
ARM GAS  /tmp/cceRHmPh.s 			page 353


 13835              	.LASF1155:
 13836 d201 5F5F5052 		.ascii	"__PRI32FAST(x) __FAST32 __STRINGIFY(x)\000"
 13836      49333246 
 13836      41535428 
 13836      7829205F 
 13836      5F464153 
 13837              	.LASF760:
 13838 d228 5F52414E 		.ascii	"_RAND48_ADD (0x000b)\000"
 13838      4434385F 
 13838      41444420 
 13838      28307830 
 13838      30306229 
 13839              	.LASF657:
 13840 d23d 5F535444 		.ascii	"_STDDEF_H \000"
 13840      4445465F 
 13840      482000
 13841              	.LASF754:
 13842 d248 5F52414E 		.ascii	"_RAND48_SEED_0 (0x330e)\000"
 13842      4434385F 
 13842      53454544 
 13842      5F302028 
 13842      30783333 
 13843              	.LASF1095:
 13844 d260 50524969 		.ascii	"PRIi8 __PRI8(i)\000"
 13844      38205F5F 
 13844      50524938 
 13844      28692900 
 13845              	.LASF1261:
 13846 d270 4D5F4C4F 		.ascii	"M_LOG2E 1.4426950408889634074\000"
 13846      47324520 
 13846      312E3434 
 13846      32363935 
 13846      30343038 
 13847              	.LASF397:
 13848 d28e 5F5F4152 		.ascii	"__ARM_SIZEOF_WCHAR_T 4\000"
 13848      4D5F5349 
 13848      5A454F46 
 13848      5F574348 
 13848      41525F54 
 13849              	.LASF1565:
 13850 d2a5 6578705F 		.ascii	"exp_l\000"
 13850      6C00
 13851              	.LASF926:
 13852 d2ab 5F5F7265 		.ascii	"__requires_shared(...) __lock_annotate(shared_locks"
 13852      71756972 
 13852      65735F73 
 13852      68617265 
 13852      64282E2E 
 13853 d2de 5F726571 		.ascii	"_required(__VA_ARGS__))\000"
 13853      75697265 
 13853      64285F5F 
 13853      56415F41 
 13853      5247535F 
 13854              	.LASF1287:
 13855 d2f6 444F5F50 		.ascii	"DO_PRAGMA(x) _Pragma (#x)\000"
 13855      5241474D 
 13855      41287829 
ARM GAS  /tmp/cceRHmPh.s 			page 354


 13855      205F5072 
 13855      61676D61 
 13856              	.LASF985:
 13857 d310 494E5436 		.ascii	"INT64_MAX\000"
 13857      345F4D41 
 13857      5800
 13858              	.LASF585:
 13859 d31a 4C44424C 		.ascii	"LDBL_MIN\000"
 13859      5F4D494E 
 13859      00
 13860              	.LASF1002:
 13861 d323 55494E54 		.ascii	"UINT_LEAST16_MAX __UINT_LEAST16_MAX__\000"
 13861      5F4C4541 
 13861      53543136 
 13861      5F4D4158 
 13861      205F5F55 
 13862              	.LASF82:
 13863 d349 5F5F4C4F 		.ascii	"__LONG_WIDTH__ 32\000"
 13863      4E475F57 
 13863      49445448 
 13863      5F5F2033 
 13863      3200
 13864              	.LASF783:
 13865 d35b 5F524545 		.ascii	"_REENT_MP_FREELIST(ptr) ((ptr)->_freelist)\000"
 13865      4E545F4D 
 13865      505F4652 
 13865      45454C49 
 13865      53542870 
 13866              	.LASF1012:
 13867 d386 494E545F 		.ascii	"INT_LEAST64_MIN (-INT_LEAST64_MAX - 1)\000"
 13867      4C454153 
 13867      5436345F 
 13867      4D494E20 
 13867      282D494E 
 13868              	.LASF851:
 13869 d3ad 5F5F7369 		.ascii	"__signed signed\000"
 13869      676E6564 
 13869      20736967 
 13869      6E656400 
 13870              	.LASF640:
 13871 d3bd 5F5F5353 		.ascii	"__SSP_FORTIFY_LEVEL 0\000"
 13871      505F464F 
 13871      52544946 
 13871      595F4C45 
 13871      56454C20 
 13872              	.LASF1176:
 13873 d3d3 53434E6F 		.ascii	"SCNoLEAST32 __SCN32LEAST(o)\000"
 13873      4C454153 
 13873      54333220 
 13873      5F5F5343 
 13873      4E33324C 
 13874              	.LASF620:
 13875 d3ef 5F535953 		.ascii	"_SYS_FEATURES_H \000"
 13875      5F464541 
 13875      54555245 
 13875      535F4820 
 13875      00
ARM GAS  /tmp/cceRHmPh.s 			page 355


 13876              	.LASF400:
 13877 d400 5F5F6172 		.ascii	"__arm__ 1\000"
 13877      6D5F5F20 
 13877      3100
 13878              	.LASF1053:
 13879 d40a 50545244 		.ascii	"PTRDIFF_MIN\000"
 13879      4946465F 
 13879      4D494E00 
 13880              	.LASF881:
 13881 d416 5F5F7265 		.ascii	"__restrict restrict\000"
 13881      73747269 
 13881      63742072 
 13881      65737472 
 13881      69637400 
 13882              	.LASF984:
 13883 d42a 55494E54 		.ascii	"UINT32_MAX __UINT32_MAX__\000"
 13883      33325F4D 
 13883      4158205F 
 13883      5F55494E 
 13883      5433325F 
 13884              	.LASF1089:
 13885 d444 5F5F6E65 		.ascii	"__need_wchar_t \000"
 13885      65645F77 
 13885      63686172 
 13885      5F742000 
 13886              	.LASF728:
 13887 d454 5F5F7369 		.ascii	"__size_t\000"
 13887      7A655F74 
 13887      00
 13888              	.LASF1008:
 13889 d45d 55494E54 		.ascii	"UINT_LEAST32_MAX __UINT_LEAST32_MAX__\000"
 13889      5F4C4541 
 13889      53543332 
 13889      5F4D4158 
 13889      205F5F55 
 13890              	.LASF1204:
 13891 d483 53434E64 		.ascii	"SCNdMAX __SCNMAX(d)\000"
 13891      4D415820 
 13891      5F5F5343 
 13891      4E4D4158 
 13891      28642900 
 13892              	.LASF1158:
 13893 d497 50524969 		.ascii	"PRIi32 __PRI32(i)\000"
 13893      3332205F 
 13893      5F505249 
 13893      33322869 
 13893      2900
 13894              	.LASF653:
 13895 d4a9 5F454C49 		.ascii	"_ELIDABLE_INLINE static __inline__\000"
 13895      4441424C 
 13895      455F494E 
 13895      4C494E45 
 13895      20737461 
 13896              	.LASF13:
 13897 d4cc 5F5F4154 		.ascii	"__ATOMIC_ACQ_REL 4\000"
 13897      4F4D4943 
 13897      5F414351 
ARM GAS  /tmp/cceRHmPh.s 			page 356


 13897      5F52454C 
 13897      203400
 13898              	.LASF555:
 13899 d4df 4C44424C 		.ascii	"LDBL_MIN_10_EXP\000"
 13899      5F4D494E 
 13899      5F31305F 
 13899      45585000 
 13900              	.LASF863:
 13901 d4ef 5F5F616C 		.ascii	"__alloc_align(x) __attribute__((__alloc_align__(x))"
 13901      6C6F635F 
 13901      616C6967 
 13901      6E287829 
 13901      205F5F61 
 13902 d522 2900     		.ascii	")\000"
 13903              	.LASF1282:
 13904 d524 5F4C4942 		.ascii	"_LIB_VERSION_TYPE enum __fdlibm_version\000"
 13904      5F564552 
 13904      53494F4E 
 13904      5F545950 
 13904      4520656E 
 13905              	.LASF1030:
 13906 d54c 494E545F 		.ascii	"INT_FAST32_MIN (-INT_FAST32_MAX - 1)\000"
 13906      46415354 
 13906      33325F4D 
 13906      494E2028 
 13906      2D494E54 
 13907              	.LASF612:
 13908 d571 5F465657 		.ascii	"_FVWRITE_IN_STREAMIO 1\000"
 13908      52495445 
 13908      5F494E5F 
 13908      53545245 
 13908      414D494F 
 13909              	.LASF685:
 13910 d588 5F53495A 		.ascii	"_SIZET_ \000"
 13910      45545F20 
 13910      00
 13911              	.LASF41:
 13912 d591 5F5F494E 		.ascii	"__INT8_TYPE__ signed char\000"
 13912      54385F54 
 13912      5950455F 
 13912      5F207369 
 13912      676E6564 
 13913              	.LASF584:
 13914 d5ab 44424C5F 		.ascii	"DBL_MIN\000"
 13914      4D494E00 
 13915              	.LASF361:
 13916 d5b3 5F5F4743 		.ascii	"__GCC_HAVE_SYNC_COMPARE_AND_SWAP_4 1\000"
 13916      435F4841 
 13916      56455F53 
 13916      594E435F 
 13916      434F4D50 
 13917              	.LASF553:
 13918 d5d8 464C545F 		.ascii	"FLT_MIN_10_EXP\000"
 13918      4D494E5F 
 13918      31305F45 
 13918      585000
 13919              	.LASF1592:
ARM GAS  /tmp/cceRHmPh.s 			page 357


 13920 d5e7 64656C74 		.ascii	"delta\000"
 13920      6100
 13921              	.LASF886:
 13922 d5ed 5F5F6869 		.ascii	"__hidden __attribute__((__visibility__(\"hidden\"))"
 13922      6464656E 
 13922      205F5F61 
 13922      74747269 
 13922      62757465 
 13923 d61e 2900     		.ascii	")\000"
 13924              	.LASF1397:
 13925 d620 52415445 		.ascii	"RATES_ADD_SCALED_VECT(_ro,_v,_s) { (_ro).p += (_v)."
 13925      535F4144 
 13925      445F5343 
 13925      414C4544 
 13925      5F564543 
 13926 d653 78202A20 		.ascii	"x * (_s); (_ro).q += (_v).y * (_s); (_ro).r += (_v)"
 13926      285F7329 
 13926      3B20285F 
 13926      726F292E 
 13926      71202B3D 
 13927 d686 2E7A202A 		.ascii	".z * (_s); }\000"
 13927      20285F73 
 13927      293B207D 
 13927      00
 13928              	.LASF658:
 13929 d693 5F535444 		.ascii	"_STDDEF_H_ \000"
 13929      4445465F 
 13929      485F2000 
 13930              	.LASF1432:
 13931 d69f 52415445 		.ascii	"RATES_BFP_OF_REAL(_ri,_rf) { (_ri).p = RATE_BFP_OF_"
 13931      535F4246 
 13931      505F4F46 
 13931      5F524541 
 13931      4C285F72 
 13932 d6d2 5245414C 		.ascii	"REAL((_rf).p); (_ri).q = RATE_BFP_OF_REAL((_rf).q);"
 13932      28285F72 
 13932      66292E70 
 13932      293B2028 
 13932      5F726929 
 13933 d705 20285F72 		.ascii	" (_ri).r = RATE_BFP_OF_REAL((_rf).r); }\000"
 13933      69292E72 
 13933      203D2052 
 13933      4154455F 
 13933      4246505F 
 13934              	.LASF630:
 13935 d72d 5F415446 		.ascii	"_ATFILE_SOURCE 1\000"
 13935      494C455F 
 13935      534F5552 
 13935      43452031 
 13935      00
 13936              	.LASF642:
 13937 d73e 5F5F5241 		.ascii	"__RAND_MAX\000"
 13937      4E445F4D 
 13937      415800
 13938              	.LASF1188:
 13939 d749 53434E75 		.ascii	"SCNuFAST32 __SCN32FAST(u)\000"
 13939      46415354 
ARM GAS  /tmp/cceRHmPh.s 			page 358


 13939      3332205F 
 13939      5F53434E 
 13939      33324641 
 13940              	.LASF1285:
 13941 d763 5F504F53 		.ascii	"_POSIX_ __fdlibm_posix\000"
 13941      49585F20 
 13941      5F5F6664 
 13941      6C69626D 
 13941      5F706F73 
 13942              	.LASF622:
 13943 d77a 5F5F474E 		.ascii	"__GNUC_PREREQ__(ma,mi) __GNUC_PREREQ(ma, mi)\000"
 13943      55435F50 
 13943      52455245 
 13943      515F5F28 
 13943      6D612C6D 
 13944              	.LASF291:
 13945 d7a7 5F5F4143 		.ascii	"__ACCUM_MAX__ 0X7FFFFFFFP-15K\000"
 13945      43554D5F 
 13945      4D41585F 
 13945      5F203058 
 13945      37464646 
 13946              	.LASF1420:
 13947 d7c5 524D4154 		.ascii	"RMAT_TRACE(_rm) (RMAT_ELMT(_rm, 0, 0)+RMAT_ELMT(_rm"
 13947      5F545241 
 13947      4345285F 
 13947      726D2920 
 13947      28524D41 
 13948 d7f8 2C20312C 		.ascii	", 1, 1)+RMAT_ELMT(_rm, 2, 2))\000"
 13948      2031292B 
 13948      524D4154 
 13948      5F454C4D 
 13948      54285F72 
 13949              	.LASF425:
 13950 d816 5F5F4152 		.ascii	"__ARM_PCS 1\000"
 13950      4D5F5043 
 13950      53203100 
 13951              	.LASF210:
 13952 d822 5F5F464C 		.ascii	"__FLT64_MIN_EXP__ (-1021)\000"
 13952      5436345F 
 13952      4D494E5F 
 13952      4558505F 
 13952      5F20282D 
 13953              	.LASF59:
 13954 d83c 5F5F494E 		.ascii	"__INT_FAST32_TYPE__ int\000"
 13954      545F4641 
 13954      53543332 
 13954      5F545950 
 13954      455F5F20 
 13955              	.LASF740:
 13956 d854 5F5F6C6F 		.ascii	"__lock_init(lock) ((void) 0)\000"
 13956      636B5F69 
 13956      6E697428 
 13956      6C6F636B 
 13956      29202828 
 13957              	.LASF910:
 13958 d871 5F4E756C 		.ascii	"_Nullable \000"
 13958      6C61626C 
ARM GAS  /tmp/cceRHmPh.s 			page 359


 13958      652000
 13959              	.LASF222:
 13960 d87c 5F5F464C 		.ascii	"__FLT64_HAS_QUIET_NAN__ 1\000"
 13960      5436345F 
 13960      4841535F 
 13960      51554945 
 13960      545F4E41 
 13961              	.LASF421:
 13962 d896 5F5F4152 		.ascii	"__ARM_NEON__\000"
 13962      4D5F4E45 
 13962      4F4E5F5F 
 13962      00
 13963              	.LASF650:
 13964 d8a3 5F4E4F54 		.ascii	"_NOTHROW \000"
 13964      48524F57 
 13964      2000
 13965              	.LASF840:
 13966 d8ad 5F5F4343 		.ascii	"__CC_SUPPORTS___INLINE__ 1\000"
 13966      5F535550 
 13966      504F5254 
 13966      535F5F5F 
 13966      494E4C49 
 13967              	.LASF1539:
 13968 d8c8 4C6C6143 		.ascii	"LlaCoor_f\000"
 13968      6F6F725F 
 13968      6600
 13969              	.LASF967:
 13970 d8d2 494E5438 		.ascii	"INT8_MAX\000"
 13970      5F4D4158 
 13970      00
 13971              	.LASF1270:
 13972 d8db 4D5F325F 		.ascii	"M_2_SQRTPI 1.12837916709551257390\000"
 13972      53515254 
 13972      50492031 
 13972      2E313238 
 13972      33373931 
 13973              	.LASF280:
 13974 d8fd 5F5F5341 		.ascii	"__SACCUM_MIN__ (-0X1P7HK-0X1P7HK)\000"
 13974      4343554D 
 13974      5F4D494E 
 13974      5F5F2028 
 13974      2D305831 
 13975              	.LASF1132:
 13976 d91f 50524975 		.ascii	"PRIuLEAST16 __PRI16LEAST(u)\000"
 13976      4C454153 
 13976      54313620 
 13976      5F5F5052 
 13976      4931364C 
 13977              	.LASF1329:
 13978 d93b 426F756E 		.ascii	"BoundWrapped(_x,_min,_max) { if ((_max) > (_min)) B"
 13978      64577261 
 13978      70706564 
 13978      285F782C 
 13978      5F6D696E 
 13979 d96e 6F756E64 		.ascii	"ound(_x, _min, _max) else BoundInverted(_x, _min, _"
 13979      285F782C 
 13979      205F6D69 
ARM GAS  /tmp/cceRHmPh.s 			page 360


 13979      6E2C205F 
 13979      6D617829 
 13980 d9a1 6D617829 		.ascii	"max) }\000"
 13980      207D00
 13981              	.LASF763:
 13982 d9a8 5F524545 		.ascii	"_REENT_SIGNAL_SIZE 24\000"
 13982      4E545F53 
 13982      49474E41 
 13982      4C5F5349 
 13982      5A452032 
 13983              	.LASF656:
 13984 d9be 5F535953 		.ascii	"_SYS_REENT_H_ \000"
 13984      5F524545 
 13984      4E545F48 
 13984      5F2000
 13985              	.LASF225:
 13986 d9cd 5F5F464C 		.ascii	"__FLT32X_MIN_EXP__ (-1021)\000"
 13986      54333258 
 13986      5F4D494E 
 13986      5F455850 
 13986      5F5F2028 
 13987              	.LASF527:
 13988 d9e8 4E45445F 		.ascii	"NED_OF_UTM_DIFF(_pos,_utm1,_utm2) { (_pos).x = (_ut"
 13988      4F465F55 
 13988      544D5F44 
 13988      49464628 
 13988      5F706F73 
 13989 da1b 6D31292E 		.ascii	"m1).north - (_utm2).north; (_pos).y = (_utm1).east "
 13989      6E6F7274 
 13989      68202D20 
 13989      285F7574 
 13989      6D32292E 
 13990 da4e 2D20285F 		.ascii	"- (_utm2).east; (_pos).z = -(_utm1).alt + (_utm2).a"
 13990      75746D32 
 13990      292E6561 
 13990      73743B20 
 13990      285F706F 
 13991 da81 6C743B20 		.ascii	"lt; }\000"
 13991      7D00
 13992              	.LASF1362:
 13993 da87 56454354 		.ascii	"VECT3_SUM_SCALED(_c,_a,_b,_s) { (_c).x = (_a).x + ("
 13993      335F5355 
 13993      4D5F5343 
 13993      414C4544 
 13993      285F632C 
 13994 daba 5F73292A 		.ascii	"_s)*(_b).x; (_c).y = (_a).y + (_s)*(_b).y; (_c).z ="
 13994      285F6229 
 13994      2E783B20 
 13994      285F6329 
 13994      2E79203D 
 13995 daed 20285F61 		.ascii	" (_a).z + (_s)*(_b).z; }\000"
 13995      292E7A20 
 13995      2B20285F 
 13995      73292A28 
 13995      5F62292E 
 13996              	.LASF665:
 13997 db06 5F425344 		.ascii	"_BSD_PTRDIFF_T_ \000"
ARM GAS  /tmp/cceRHmPh.s 			page 361


 13997      5F505452 
 13997      44494646 
 13997      5F545F20 
 13997      00
 13998              	.LASF693:
 13999 db17 5F5F5743 		.ascii	"__WCHAR_T \000"
 13999      4841525F 
 13999      542000
 14000              	.LASF747:
 14001 db22 5F5F6C6F 		.ascii	"__lock_try_acquire_recursive(lock) ((void) 0)\000"
 14001      636B5F74 
 14001      72795F61 
 14001      63717569 
 14001      72655F72 
 14002              	.LASF841:
 14003 db50 5F5F4343 		.ascii	"__CC_SUPPORTS___FUNC__ 1\000"
 14003      5F535550 
 14003      504F5254 
 14003      535F5F5F 
 14003      46554E43 
 14004              	.LASF1193:
 14005 db69 5F5F5343 		.ascii	"__SCN64LEAST(x) __LEAST64 __STRINGIFY(x)\000"
 14005      4E36344C 
 14005      45415354 
 14005      28782920 
 14005      5F5F4C45 
 14006              	.LASF745:
 14007 db92 5F5F6C6F 		.ascii	"__lock_acquire_recursive(lock) ((void) 0)\000"
 14007      636B5F61 
 14007      63717569 
 14007      72655F72 
 14007      65637572 
 14008              	.LASF398:
 14009 dbbc 5F5F4152 		.ascii	"__ARM_ARCH_PROFILE\000"
 14009      4D5F4152 
 14009      43485F50 
 14009      524F4649 
 14009      4C4500
 14010              	.LASF1400:
 14011 dbcf 4D415433 		.ascii	"MAT33_MULT_SCALAR(_mat1,_scalar) { MAT33_ELMT((_mat"
 14011      335F4D55 
 14011      4C545F53 
 14011      43414C41 
 14011      52285F6D 
 14012 dc02 31292C30 		.ascii	"1),0,0) = MAT33_ELMT((_mat1),0,0)*_scalar; MAT33_EL"
 14012      2C302920 
 14012      3D204D41 
 14012      5433335F 
 14012      454C4D54 
 14013 dc35 4D542828 		.ascii	"MT((_mat1),0,1) = MAT33_ELMT((_mat1),0,1)*_scalar; "
 14013      5F6D6174 
 14013      31292C30 
 14013      2C312920 
 14013      3D204D41 
 14014 dc68 4D415433 		.ascii	"MAT33_ELMT((_mat1),0,2) = MAT33_ELMT((_mat1),0,2)*_"
 14014      335F454C 
 14014      4D542828 
ARM GAS  /tmp/cceRHmPh.s 			page 362


 14014      5F6D6174 
 14014      31292C30 
 14015 dc9b 7363616C 		.ascii	"scalar; MAT33_ELMT((_mat1),1,0) = MAT33_ELMT((_mat1"
 14015      61723B20 
 14015      4D415433 
 14015      335F454C 
 14015      4D542828 
 14016 dcce 292C312C 		.ascii	"),1,0)*_scalar; MAT33_ELMT((_mat1),1,1) = MAT33_ELM"
 14016      30292A5F 
 14016      7363616C 
 14016      61723B20 
 14016      4D415433 
 14017 dd01 5428285F 		.ascii	"T((_mat1),1,1)*_scalar; MAT33_ELMT((_mat1),1,2) = M"
 14017      6D617431 
 14017      292C312C 
 14017      31292A5F 
 14017      7363616C 
 14018 dd34 41543333 		.ascii	"AT33_ELMT((_mat1),1,2)*_scalar; MAT33_ELMT((_mat1),"
 14018      5F454C4D 
 14018      5428285F 
 14018      6D617431 
 14018      292C312C 
 14019 dd67 322C3029 		.ascii	"2,0) = MAT33_ELMT((_mat1),2,0)*_scalar; MAT33_ELMT("
 14019      203D204D 
 14019      41543333 
 14019      5F454C4D 
 14019      5428285F 
 14020 dd9a 285F6D61 		.ascii	"(_mat1),2,1) = MAT33_ELMT((_mat1),2,1)*_scalar; MAT"
 14020      7431292C 
 14020      322C3129 
 14020      203D204D 
 14020      41543333 
 14021 ddcd 33335F45 		.ascii	"33_ELMT((_mat1),2,2) = MAT33_ELMT((_mat1),2,2)*_sca"
 14021      4C4D5428 
 14021      285F6D61 
 14021      7431292C 
 14021      322C3229 
 14022 de00 6C61723B 		.ascii	"lar; }\000"
 14022      207D00
 14023              	.LASF1569:
 14024 de07 696E7665 		.ascii	"inverse_isometric_latitude_f\000"
 14024      7273655F 
 14024      69736F6D 
 14024      65747269 
 14024      635F6C61 
 14025              	.LASF299:
 14026 de24 5F5F4C41 		.ascii	"__LACCUM_IBIT__ 32\000"
 14026      4343554D 
 14026      5F494249 
 14026      545F5F20 
 14026      333200
 14027              	.LASF724:
 14028 de37 5F5F5F69 		.ascii	"___int_least16_t_defined 1\000"
 14028      6E745F6C 
 14028      65617374 
 14028      31365F74 
 14028      5F646566 
ARM GAS  /tmp/cceRHmPh.s 			page 363


 14029              	.LASF626:
 14030 de52 5F504F53 		.ascii	"_POSIX_SOURCE 1\000"
 14030      49585F53 
 14030      4F555243 
 14030      45203100 
 14031              	.LASF108:
 14032 de62 5F5F494E 		.ascii	"__INT16_C(c) c\000"
 14032      5431365F 
 14032      43286329 
 14032      206300
 14033              	.LASF1407:
 14034 de71 4D415433 		.ascii	"MAT33_MAT33_SUM(_mat1,_mat2,_mat3) { MAT33_ELMT((_m"
 14034      335F4D41 
 14034      5433335F 
 14034      53554D28 
 14034      5F6D6174 
 14035 dea4 61743129 		.ascii	"at1),0,0) = MAT33_ELMT((_mat2),0,0)+MAT33_ELMT((_ma"
 14035      2C302C30 
 14035      29203D20 
 14035      4D415433 
 14035      335F454C 
 14036 ded7 7433292C 		.ascii	"t3),0,0); MAT33_ELMT((_mat1),0,1) = MAT33_ELMT((_ma"
 14036      302C3029 
 14036      3B204D41 
 14036      5433335F 
 14036      454C4D54 
 14037 df0a 7432292C 		.ascii	"t2),0,1)+MAT33_ELMT((_mat3),0,1); MAT33_ELMT((_mat1"
 14037      302C3129 
 14037      2B4D4154 
 14037      33335F45 
 14037      4C4D5428 
 14038 df3d 292C302C 		.ascii	"),0,2) = MAT33_ELMT((_mat2),0,2)+MAT33_ELMT((_mat3)"
 14038      3229203D 
 14038      204D4154 
 14038      33335F45 
 14038      4C4D5428 
 14039 df70 2C302C32 		.ascii	",0,2); MAT33_ELMT((_mat1),1,0) = MAT33_ELMT((_mat2)"
 14039      293B204D 
 14039      41543333 
 14039      5F454C4D 
 14039      5428285F 
 14040 dfa3 2C312C30 		.ascii	",1,0)+MAT33_ELMT((_mat3),1,0); MAT33_ELMT((_mat1),1"
 14040      292B4D41 
 14040      5433335F 
 14040      454C4D54 
 14040      28285F6D 
 14041 dfd6 2C312920 		.ascii	",1) = MAT33_ELMT((_mat2),1,1)+MAT33_ELMT((_mat3),1,"
 14041      3D204D41 
 14041      5433335F 
 14041      454C4D54 
 14041      28285F6D 
 14042 e009 31293B20 		.ascii	"1); MAT33_ELMT((_mat1),1,2) = MAT33_ELMT((_mat2),1,"
 14042      4D415433 
 14042      335F454C 
 14042      4D542828 
 14042      5F6D6174 
 14043 e03c 32292B4D 		.ascii	"2)+MAT33_ELMT((_mat3),1,2); MAT33_ELMT((_mat1),2,0)"
ARM GAS  /tmp/cceRHmPh.s 			page 364


 14043      41543333 
 14043      5F454C4D 
 14043      5428285F 
 14043      6D617433 
 14044 e06f 203D204D 		.ascii	" = MAT33_ELMT((_mat2),2,0)+MAT33_ELMT((_mat3),2,0);"
 14044      41543333 
 14044      5F454C4D 
 14044      5428285F 
 14044      6D617432 
 14045 e0a2 204D4154 		.ascii	" MAT33_ELMT((_mat1),2,1) = MAT33_ELMT((_mat2),2,1)+"
 14045      33335F45 
 14045      4C4D5428 
 14045      285F6D61 
 14045      7431292C 
 14046 e0d5 4D415433 		.ascii	"MAT33_ELMT((_mat3),2,1); MAT33_ELMT((_mat1),2,2) = "
 14046      335F454C 
 14046      4D542828 
 14046      5F6D6174 
 14046      33292C32 
 14047 e108 4D415433 		.ascii	"MAT33_ELMT((_mat2),2,2)+MAT33_ELMT((_mat3),2,2); }\000"
 14047      335F454C 
 14047      4D542828 
 14047      5F6D6174 
 14047      32292C32 
 14048              	.LASF1141:
 14049 e13b 50524969 		.ascii	"PRIiFAST16 __PRI16FAST(i)\000"
 14049      46415354 
 14049      3136205F 
 14049      5F505249 
 14049      31364641 
 14050              	.LASF666:
 14051 e155 5F5F5F69 		.ascii	"___int_ptrdiff_t_h \000"
 14051      6E745F70 
 14051      74726469 
 14051      66665F74 
 14051      5F682000 
 14052              	.LASF975:
 14053 e169 494E5431 		.ascii	"INT16_MIN\000"
 14053      365F4D49 
 14053      4E00
 14054              	.LASF517:
 14055 e173 5448554D 		.ascii	"THUMB 1\000"
 14055      42203100 
 14056              	.LASF1237:
 14057 e17b 46505F53 		.ascii	"FP_SUBNORMAL 3\000"
 14057      55424E4F 
 14057      524D414C 
 14057      203300
 14058              	.LASF1064:
 14059 e18a 57434841 		.ascii	"WCHAR_MIN __WCHAR_MIN__\000"
 14059      525F4D49 
 14059      4E205F5F 
 14059      57434841 
 14059      525F4D49 
 14060              	.LASF1413:
 14061 e1a2 51554154 		.ascii	"QUAT_SMUL(_qo,_qi,_s) { (_qo).qi = (_qi).qi * (_s);"
 14061      5F534D55 
ARM GAS  /tmp/cceRHmPh.s 			page 365


 14061      4C285F71 
 14061      6F2C5F71 
 14061      692C5F73 
 14062 e1d5 20285F71 		.ascii	" (_qo).qx = (_qi).qx * (_s); (_qo).qy = (_qi).qy * "
 14062      6F292E71 
 14062      78203D20 
 14062      285F7169 
 14062      292E7178 
 14063 e208 285F7329 		.ascii	"(_s); (_qo).qz = (_qi).qz * (_s); }\000"
 14063      3B20285F 
 14063      716F292E 
 14063      717A203D 
 14063      20285F71 
 14064              	.LASF814:
 14065 e22c 5F5F6174 		.ascii	"__attribute_format_strfmon__(a,b) \000"
 14065      74726962 
 14065      7574655F 
 14065      666F726D 
 14065      61745F73 
 14066              	.LASF1593:
 14067 e24f 6C74705F 		.ascii	"ltp_def_from_lla_f\000"
 14067      6465665F 
 14067      66726F6D 
 14067      5F6C6C61 
 14067      5F6600
 14068              	.LASF1532:
 14069 e262 6C6F6E67 		.ascii	"long long unsigned int\000"
 14069      206C6F6E 
 14069      6720756E 
 14069      7369676E 
 14069      65642069 
 14070              	.LASF19:
 14071 e279 5F5F5349 		.ascii	"__SIZEOF_SHORT__ 2\000"
 14071      5A454F46 
 14071      5F53484F 
 14071      52545F5F 
 14071      203200
 14072              	.LASF512:
 14073 e28c 5553455F 		.ascii	"USE_UART1 1\000"
 14073      55415254 
 14073      31203100 
 14074              	.LASF1044:
 14075 e298 55494E54 		.ascii	"UINTPTR_MAX __UINTPTR_MAX__\000"
 14075      5054525F 
 14075      4D415820 
 14075      5F5F5549 
 14075      4E545054 
 14076              	.LASF968:
 14077 e2b4 494E5438 		.ascii	"INT8_MAX __INT8_MAX__\000"
 14077      5F4D4158 
 14077      205F5F49 
 14077      4E54385F 
 14077      4D41585F 
 14078              	.LASF718:
 14079 e2ca 5F5F6861 		.ascii	"__have_long32 1\000"
 14079      76655F6C 
 14079      6F6E6733 
ARM GAS  /tmp/cceRHmPh.s 			page 366


 14079      32203100 
 14080              	.LASF1550:
 14081 e2da 446F7562 		.ascii	"DoubleRMat\000"
 14081      6C65524D 
 14081      617400
 14082              	.LASF100:
 14083 e2e5 5F5F5549 		.ascii	"__UINT8_MAX__ 0xff\000"
 14083      4E54385F 
 14083      4D41585F 
 14083      5F203078 
 14083      666600
 14084              	.LASF934:
 14085 e2f8 5354445F 		.ascii	"STD_H \000"
 14085      482000
 14086              	.LASF1323:
 14087 e2ff 4C657373 		.ascii	"LessThan(_x,_y) ((_x) < (_y))\000"
 14087      5468616E 
 14087      285F782C 
 14087      5F792920 
 14087      28285F78 
 14088              	.LASF1513:
 14089 e31d 41203633 		.ascii	"A 6378137.0\000"
 14089      37383133 
 14089      372E3000 
 14090              	.LASF1570:
 14091 e329 69736F6D 		.ascii	"isometric_latitude_fast_f\000"
 14091      65747269 
 14091      635F6C61 
 14091      74697475 
 14091      64655F66 
 14092              	.LASF1221:
 14093 e343 53434E78 		.ascii	"SCNxPTR __SCNPTR(x)\000"
 14093      50545220 
 14093      5F5F5343 
 14093      4E505452 
 14093      28782900 
 14094              	.LASF1396:
 14095 e357 52415445 		.ascii	"RATES_BOUND_BOX_ABS(_v,_v_max) { if ((_v).p > (_v_m"
 14095      535F424F 
 14095      554E445F 
 14095      424F585F 
 14095      41425328 
 14096 e38a 6178292E 		.ascii	"ax).p) (_v).p = (_v_max).p; else if ((_v).p < -(_v_"
 14096      70292028 
 14096      5F76292E 
 14096      70203D20 
 14096      285F765F 
 14097 e3bd 6D617829 		.ascii	"max).p) (_v).p = -(_v_max).p; if ((_v).q > (_v_max)"
 14097      2E702920 
 14097      285F7629 
 14097      2E70203D 
 14097      202D285F 
 14098 e3f0 2E712920 		.ascii	".q) (_v).q = (_v_max).q; else if ((_v).q < -(_v_max"
 14098      285F7629 
 14098      2E71203D 
 14098      20285F76 
 14098      5F6D6178 
ARM GAS  /tmp/cceRHmPh.s 			page 367


 14099 e423 292E7129 		.ascii	").q) (_v).q = -(_v_max).q; if ((_v).r > (_v_max).r)"
 14099      20285F76 
 14099      292E7120 
 14099      3D202D28 
 14099      5F765F6D 
 14100 e456 20285F76 		.ascii	" (_v).r = (_v_max).r; else if ((_v).r < -(_v_max).r"
 14100      292E7220 
 14100      3D20285F 
 14100      765F6D61 
 14100      78292E72 
 14101 e489 2920285F 		.ascii	") (_v).r = -(_v_max).r; }\000"
 14101      76292E72 
 14101      203D202D 
 14101      285F765F 
 14101      6D617829 
 14102              	.LASF498:
 14103 e4a3 55415254 		.ascii	"UART1_BAUD B57600\000"
 14103      315F4241 
 14103      55442042 
 14103      35373630 
 14103      3000
 14104              	.LASF794:
 14105 e4b5 5F524545 		.ascii	"_REENT_WCRTOMB_STATE(ptr) ((ptr)->_new._reent._wcrt"
 14105      4E545F57 
 14105      4352544F 
 14105      4D425F53 
 14105      54415445 
 14106 e4e8 6F6D625F 		.ascii	"omb_state)\000"
 14106      73746174 
 14106      652900
 14107              	.LASF687:
 14108 e4f3 5F5F6E65 		.ascii	"__need_size_t\000"
 14108      65645F73 
 14108      697A655F 
 14108      7400
 14109              	.LASF821:
 14110 e501 5F5F4245 		.ascii	"__BEGIN_DECLS \000"
 14110      47494E5F 
 14110      4445434C 
 14110      532000
 14111              	.LASF1240:
 14112 e510 46505F49 		.ascii	"FP_ILOGBNAN __INT_MAX__\000"
 14112      4C4F4742 
 14112      4E414E20 
 14112      5F5F494E 
 14112      545F4D41 
 14113              	.LASF529:
 14114 e528 55544D5F 		.ascii	"UTM_OF_NED_ADD(_utm,_pos,_utm0) { (_utm).east = (_u"
 14114      4F465F4E 
 14114      45445F41 
 14114      4444285F 
 14114      75746D2C 
 14115 e55b 746D3029 		.ascii	"tm0).east + (_pos).y; (_utm).north = (_utm0).north "
 14115      2E656173 
 14115      74202B20 
 14115      285F706F 
 14115      73292E79 
ARM GAS  /tmp/cceRHmPh.s 			page 368


 14116 e58e 2B20285F 		.ascii	"+ (_pos).x; (_utm).alt = (_utm0).alt - (_pos).z; }\000"
 14116      706F7329 
 14116      2E783B20 
 14116      285F7574 
 14116      6D292E61 
 14117              	.LASF568:
 14118 e5c1 464C545F 		.ascii	"FLT_MAX_10_EXP __FLT_MAX_10_EXP__\000"
 14118      4D41585F 
 14118      31305F45 
 14118      5850205F 
 14118      5F464C54 
 14119              	.LASF753:
 14120 e5e3 5F524545 		.ascii	"_REENT_SMALL_CHECK_INIT(ptr) \000"
 14120      4E545F53 
 14120      4D414C4C 
 14120      5F434845 
 14120      434B5F49 
 14121              	.LASF1025:
 14122 e601 55494E54 		.ascii	"UINT_FAST16_MAX\000"
 14122      5F464153 
 14122      5431365F 
 14122      4D415800 
 14123              	.LASF214:
 14124 e611 5F5F464C 		.ascii	"__FLT64_DECIMAL_DIG__ 17\000"
 14124      5436345F 
 14124      44454349 
 14124      4D414C5F 
 14124      4449475F 
 14125              	.LASF138:
 14126 e62a 5F5F5549 		.ascii	"__UINTPTR_MAX__ 0xffffffffU\000"
 14126      4E545054 
 14126      525F4D41 
 14126      585F5F20 
 14126      30786666 
 14127              	.LASF387:
 14128 e646 5F5F4152 		.ascii	"__ARM_FEATURE_COMPLEX\000"
 14128      4D5F4645 
 14128      41545552 
 14128      455F434F 
 14128      4D504C45 
 14129              	.LASF496:
 14130 e65c 5359535F 		.ascii	"SYS_TIME_LED 1\000"
 14130      54494D45 
 14130      5F4C4544 
 14130      203100
 14131              	.LASF507:
 14132 e66b 5553455F 		.ascii	"USE_HARD_FAULT_RECOVERY TRUE\000"
 14132      48415244 
 14132      5F464155 
 14132      4C545F52 
 14132      45434F56 
 14133              	.LASF1508:
 14134 e688 5050525A 		.ascii	"PPRZ_GEODETIC_UTM_H \000"
 14134      5F47454F 
 14134      44455449 
 14134      435F5554 
 14134      4D5F4820 
ARM GAS  /tmp/cceRHmPh.s 			page 369


 14135              	.LASF1518:
 14136 e69d 43536361 		.ascii	"CScal(k,z) { z.re *= k; z.im *= k; }\000"
 14136      6C286B2C 
 14136      7A29207B 
 14136      207A2E72 
 14136      65202A3D 
 14137              	.LASF494:
 14138 e6c2 5348545F 		.ascii	"SHT_SCK_GPIO GPIOC,GPIO5\000"
 14138      53434B5F 
 14138      4750494F 
 14138      20475049 
 14138      4F432C47 
 14139              	.LASF242:
 14140 e6db 5F5F5346 		.ascii	"__SFRACT_EPSILON__ 0x1P-7HR\000"
 14140      52414354 
 14140      5F455053 
 14140      494C4F4E 
 14140      5F5F2030 
 14141              	.LASF14:
 14142 e6f7 5F5F4154 		.ascii	"__ATOMIC_CONSUME 1\000"
 14142      4F4D4943 
 14142      5F434F4E 
 14142      53554D45 
 14142      203100
 14143              	.LASF856:
 14144 e70a 5F5F756E 		.ascii	"__unused __attribute__((__unused__))\000"
 14144      75736564 
 14144      205F5F61 
 14144      74747269 
 14144      62757465 
 14145              	.LASF154:
 14146 e72f 5F5F464C 		.ascii	"__FLT_MIN__ 1.1754943508222875e-38F\000"
 14146      545F4D49 
 14146      4E5F5F20 
 14146      312E3137 
 14146      35343934 
 14147              	.LASF50:
 14148 e753 5F5F494E 		.ascii	"__INT_LEAST16_TYPE__ short int\000"
 14148      545F4C45 
 14148      41535431 
 14148      365F5459 
 14148      50455F5F 
 14149              	.LASF2:
 14150 e772 5F5F5354 		.ascii	"__STDC_UTF_16__ 1\000"
 14150      44435F55 
 14150      54465F31 
 14150      365F5F20 
 14150      3100
 14151              	.LASF56:
 14152 e784 5F5F5549 		.ascii	"__UINT_LEAST64_TYPE__ long long unsigned int\000"
 14152      4E545F4C 
 14152      45415354 
 14152      36345F54 
 14152      5950455F 
 14153              	.LASF1388:
 14154 e7b1 52415445 		.ascii	"RATES_SUM(_c,_a,_b) { (_c).p = (_a).p + (_b).p; (_c"
 14154      535F5355 
ARM GAS  /tmp/cceRHmPh.s 			page 370


 14154      4D285F63 
 14154      2C5F612C 
 14154      5F622920 
 14155 e7e4 292E7120 		.ascii	").q = (_a).q + (_b).q; (_c).r = (_a).r + (_b).r; }\000"
 14155      3D20285F 
 14155      61292E71 
 14155      202B2028 
 14155      5F62292E 
 14156              	.LASF980:
 14157 e817 494E5433 		.ascii	"INT32_MAX __INT32_MAX__\000"
 14157      325F4D41 
 14157      58205F5F 
 14157      494E5433 
 14157      325F4D41 
 14158              	.LASF243:
 14159 e82f 5F5F5553 		.ascii	"__USFRACT_FBIT__ 8\000"
 14159      46524143 
 14159      545F4642 
 14159      49545F5F 
 14159      203800
 14160              	.LASF468:
 14161 e842 4749545F 		.ascii	"GIT_DESC v6.4.0_stable\000"
 14161      44455343 
 14161      2076362E 
 14161      342E305F 
 14161      73746162 
 14162              	.LASF1357:
 14163 e859 56454354 		.ascii	"VECT3_COPY(_a,_b) { (_a).x = (_b).x; (_a).y = (_b)."
 14163      335F434F 
 14163      5059285F 
 14163      612C5F62 
 14163      29207B20 
 14164 e88c 793B2028 		.ascii	"y; (_a).z = (_b).z; }\000"
 14164      5F61292E 
 14164      7A203D20 
 14164      285F6229 
 14164      2E7A3B20 
 14165              	.LASF1573:
 14166 e8a2 73696E5F 		.ascii	"sin_lat\000"
 14166      6C617400 
 14167              	.LASF366:
 14168 e8aa 5F5F4743 		.ascii	"__GCC_ATOMIC_WCHAR_T_LOCK_FREE 2\000"
 14168      435F4154 
 14168      4F4D4943 
 14168      5F574348 
 14168      41525F54 
 14169              	.LASF1470:
 14170 e8cb 464C4F41 		.ascii	"FLOAT_RMAT_INTEGRATE_FI(_rm,_omega,_dt) WARNING(\"F"
 14170      545F524D 
 14170      41545F49 
 14170      4E544547 
 14170      52415445 
 14171 e8fd 4C4F4154 		.ascii	"LOAT_RMAT_INTEGRATE_FI macro is deprecated, use the"
 14171      5F524D41 
 14171      545F494E 
 14171      54454752 
 14171      4154455F 
ARM GAS  /tmp/cceRHmPh.s 			page 371


 14172 e930 206C6F77 		.ascii	" lower case function instead\") float_rmat_integrat"
 14172      65722063 
 14172      61736520 
 14172      66756E63 
 14172      74696F6E 
 14173 e962 655F6669 		.ascii	"e_fi(&(_rm), &(_omega), &(_dt))\000"
 14173      2826285F 
 14173      726D292C 
 14173      2026285F 
 14173      6F6D6567 
 14174              	.LASF1549:
 14175 e982 686D736C 		.ascii	"hmsl\000"
 14175      00
 14176              	.LASF378:
 14177 e987 5F5F5349 		.ascii	"__SIZEOF_PTRDIFF_T__ 4\000"
 14177      5A454F46 
 14177      5F505452 
 14177      44494646 
 14177      5F545F5F 
 14178              	.LASF563:
 14179 e99e 44424C5F 		.ascii	"DBL_MAX_EXP __DBL_MAX_EXP__\000"
 14179      4D41585F 
 14179      45585020 
 14179      5F5F4442 
 14179      4C5F4D41 
 14180              	.LASF1115:
 14181 e9ba 5F5F5343 		.ascii	"__SCN16(x) __INT16 __STRINGIFY(x)\000"
 14181      4E313628 
 14181      7829205F 
 14181      5F494E54 
 14181      3136205F 
 14182              	.LASF721:
 14183 e9dc 5F5F5F69 		.ascii	"___int32_t_defined 1\000"
 14183      6E743332 
 14183      5F745F64 
 14183      6566696E 
 14183      65642031 
 14184              	.LASF1194:
 14185 e9f1 5F5F5052 		.ascii	"__PRI64FAST(x) __FAST64 __STRINGIFY(x)\000"
 14185      49363446 
 14185      41535428 
 14185      7829205F 
 14185      5F464153 
 14186              	.LASF946:
 14187 ea18 63686172 		.ascii	"char +0\000"
 14187      202B3000 
 14188              	.LASF989:
 14189 ea20 55494E54 		.ascii	"UINT64_MAX\000"
 14189      36345F4D 
 14189      415800
 14190              	.LASF237:
 14191 ea2b 5F5F464C 		.ascii	"__FLT32X_HAS_QUIET_NAN__ 1\000"
 14191      54333258 
 14191      5F484153 
 14191      5F515549 
 14191      45545F4E 
 14192              	.LASF629:
ARM GAS  /tmp/cceRHmPh.s 			page 372


 14193 ea46 5F415446 		.ascii	"_ATFILE_SOURCE\000"
 14193      494C455F 
 14193      534F5552 
 14193      434500
 14194              	.LASF262:
 14195 ea55 5F5F4C46 		.ascii	"__LFRACT_EPSILON__ 0x1P-31LR\000"
 14195      52414354 
 14195      5F455053 
 14195      494C4F4E 
 14195      5F5F2030 
 14196              	.LASF1252:
 14197 ea72 69736C65 		.ascii	"isless(__x,__y) (__builtin_isless (__x, __y))\000"
 14197      7373285F 
 14197      5F782C5F 
 14197      5F792920 
 14197      285F5F62 
 14198              	.LASF55:
 14199 eaa0 5F5F5549 		.ascii	"__UINT_LEAST32_TYPE__ long unsigned int\000"
 14199      4E545F4C 
 14199      45415354 
 14199      33325F54 
 14199      5950455F 
 14200              	.LASF1139:
 14201 eac8 53434E78 		.ascii	"SCNxLEAST16 __SCN16LEAST(x)\000"
 14201      4C454153 
 14201      54313620 
 14201      5F5F5343 
 14201      4E31364C 
 14202              	.LASF163:
 14203 eae4 5F5F4442 		.ascii	"__DBL_MIN_EXP__ (-1021)\000"
 14203      4C5F4D49 
 14203      4E5F4558 
 14203      505F5F20 
 14203      282D3130 
 14204              	.LASF885:
 14205 eafc 5F5F6578 		.ascii	"__exported __attribute__((__visibility__(\"default\""
 14205      706F7274 
 14205      6564205F 
 14205      5F617474 
 14205      72696275 
 14206 eb2e 29292900 		.ascii	")))\000"
 14207              	.LASF912:
 14208 eb32 5F5F4E55 		.ascii	"__NULLABILITY_PRAGMA_PUSH \000"
 14208      4C4C4142 
 14208      494C4954 
 14208      595F5052 
 14208      41474D41 
 14209              	.LASF449:
 14210 eb4d 41502031 		.ascii	"AP 1\000"
 14210      00
 14211              	.LASF530:
 14212 eb52 5050525A 		.ascii	"PPRZ_ALGEBRA_FLOAT_H \000"
 14212      5F414C47 
 14212      45425241 
 14212      5F464C4F 
 14212      41545F48 
 14213              	.LASF977:
ARM GAS  /tmp/cceRHmPh.s 			page 373


 14214 eb68 55494E54 		.ascii	"UINT16_MAX\000"
 14214      31365F4D 
 14214      415800
 14215              	.LASF844:
 14216 eb73 5F5F4343 		.ascii	"__CC_SUPPORTS_DYNAMIC_ARRAY_INIT 1\000"
 14216      5F535550 
 14216      504F5254 
 14216      535F4459 
 14216      4E414D49 
 14217              	.LASF1322:
 14218 eb96 4D617828 		.ascii	"Max(x,y) (x > y ? x : y)\000"
 14218      782C7929 
 14218      20287820 
 14218      3E207920 
 14218      3F207820 
 14219              	.LASF181:
 14220 ebaf 5F5F4C44 		.ascii	"__LDBL_MAX_10_EXP__ 308\000"
 14220      424C5F4D 
 14220      41585F31 
 14220      305F4558 
 14220      505F5F20 
 14221              	.LASF1278:
 14222 ebc7 4D5F5351 		.ascii	"M_SQRT3 1.73205080756887719000\000"
 14222      52543320 
 14222      312E3733 
 14222      32303530 
 14222      38303735 
 14223              	.LASF645:
 14224 ebe6 5F5F494D 		.ascii	"__IMPORT \000"
 14224      504F5254 
 14224      2000
 14225              	.LASF491:
 14226 ebf0 52414449 		.ascii	"RADIO_CONTROL_LED 4\000"
 14226      4F5F434F 
 14226      4E54524F 
 14226      4C5F4C45 
 14226      44203400 
 14227              	.LASF1350:
 14228 ec04 56454354 		.ascii	"VECT2_SMUL(_vo,_vi,_s) { (_vo).x = (_vi).x * (_s); "
 14228      325F534D 
 14228      554C285F 
 14228      766F2C5F 
 14228      76692C5F 
 14229 ec37 285F766F 		.ascii	"(_vo).y = (_vi).y * (_s); }\000"
 14229      292E7920 
 14229      3D20285F 
 14229      7669292E 
 14229      79202A20 
 14230              	.LASF545:
 14231 ec53 44424C5F 		.ascii	"DBL_DIG __DBL_DIG__\000"
 14231      44494720 
 14231      5F5F4442 
 14231      4C5F4449 
 14231      475F5F00 
 14232              	.LASF44:
 14233 ec67 5F5F494E 		.ascii	"__INT64_TYPE__ long long int\000"
 14233      5436345F 
ARM GAS  /tmp/cceRHmPh.s 			page 374


 14233      54595045 
 14233      5F5F206C 
 14233      6F6E6720 
 14234              	.LASF994:
 14235 ec84 494E545F 		.ascii	"INT_LEAST8_MIN (-INT_LEAST8_MAX - 1)\000"
 14235      4C454153 
 14235      54385F4D 
 14235      494E2028 
 14235      2D494E54 
 14236              	.LASF385:
 14237 eca9 5F5F4152 		.ascii	"__ARM_FEATURE_CRC32\000"
 14237      4D5F4645 
 14237      41545552 
 14237      455F4352 
 14237      43333200 
 14238              	.LASF344:
 14239 ecbd 5F5F5441 		.ascii	"__TA_FBIT__ 63\000"
 14239      5F464249 
 14239      545F5F20 
 14239      363300
 14240              	.LASF185:
 14241 eccc 5F5F4C44 		.ascii	"__LDBL_NORM_MAX__ 1.7976931348623157e+308L\000"
 14241      424C5F4E 
 14241      4F524D5F 
 14241      4D41585F 
 14241      5F20312E 
 14242              	.LASF1583:
 14243 ecf7 65636566 		.ascii	"ecef_d\000"
 14243      5F6400
 14244              	.LASF1058:
 14245 ecfe 5349475F 		.ascii	"SIG_ATOMIC_MIN __SIG_ATOMIC_MIN__\000"
 14245      41544F4D 
 14245      49435F4D 
 14245      494E205F 
 14245      5F534947 
 14246              	.LASF219:
 14247 ed20 5F5F464C 		.ascii	"__FLT64_DENORM_MIN__ 4.9406564584124654e-324F64\000"
 14247      5436345F 
 14247      44454E4F 
 14247      524D5F4D 
 14247      494E5F5F 
 14248              	.LASF1379:
 14249 ed50 45554C45 		.ascii	"EULERS_SUB(_a,_b) { (_a).phi -= (_b).phi; (_a).thet"
 14249      52535F53 
 14249      5542285F 
 14249      612C5F62 
 14249      29207B20 
 14250 ed83 61202D3D 		.ascii	"a -= (_b).theta; (_a).psi -= (_b).psi; }\000"
 14250      20285F62 
 14250      292E7468 
 14250      6574613B 
 14250      20285F61 
 14251              	.LASF655:
 14252 edac 5F4E4F49 		.ascii	"_NOINLINE_STATIC _NOINLINE static\000"
 14252      4E4C494E 
 14252      455F5354 
 14252      41544943 
ARM GAS  /tmp/cceRHmPh.s 			page 375


 14252      205F4E4F 
 14253              	.LASF651:
 14254 edce 5F4C4F4E 		.ascii	"_LONG_DOUBLE long double\000"
 14254      475F444F 
 14254      55424C45 
 14254      206C6F6E 
 14254      6720646F 
 14255              	.LASF857:
 14256 ede7 5F5F7573 		.ascii	"__used __attribute__((__used__))\000"
 14256      6564205F 
 14256      5F617474 
 14256      72696275 
 14256      74655F5F 
 14257              	.LASF1433:
 14258 ee08 504F5349 		.ascii	"POSITIONS_FLOAT_OF_BFP(_ef,_ei) { (_ef).x = POS_FLO"
 14258      54494F4E 
 14258      535F464C 
 14258      4F41545F 
 14258      4F465F42 
 14259 ee3b 41545F4F 		.ascii	"AT_OF_BFP((_ei).x); (_ef).y = POS_FLOAT_OF_BFP((_ei"
 14259      465F4246 
 14259      5028285F 
 14259      6569292E 
 14259      78293B20 
 14260 ee6e 292E7929 		.ascii	").y); (_ef).z = POS_FLOAT_OF_BFP((_ei).z); }\000"
 14260      3B20285F 
 14260      6566292E 
 14260      7A203D20 
 14260      504F535F 
 14261              	.LASF1232:
 14262 ee9b 494E4649 		.ascii	"INFINITY (__builtin_inff())\000"
 14262      4E495459 
 14262      20285F5F 
 14262      6275696C 
 14262      74696E5F 
 14263              	.LASF619:
 14264 eeb7 5F5F4F42 		.ascii	"__OBSOLETE_MATH __OBSOLETE_MATH_DEFAULT\000"
 14264      534F4C45 
 14264      54455F4D 
 14264      41544820 
 14264      5F5F4F42 
 14265              	.LASF1072:
 14266 eedf 494E5431 		.ascii	"INT16_C(c) __INT16_C(c)\000"
 14266      365F4328 
 14266      6329205F 
 14266      5F494E54 
 14266      31365F43 
 14267              	.LASF345:
 14268 eef7 5F5F5441 		.ascii	"__TA_IBIT__ 64\000"
 14268      5F494249 
 14268      545F5F20 
 14268      363400
 14269              	.LASF751:
 14270 ef06 5F415445 		.ascii	"_ATEXIT_INIT {_NULL, 0, {_NULL}, {{_NULL}, {_NULL},"
 14270      5849545F 
 14270      494E4954 
 14270      207B5F4E 
ARM GAS  /tmp/cceRHmPh.s 			page 376


 14270      554C4C2C 
 14271 ef39 20302C20 		.ascii	" 0, 0}}\000"
 14271      307D7D00 
 14272              	.LASF933:
 14273 ef41 5F535452 		.ascii	"_STRINGS_H_ \000"
 14273      494E4753 
 14273      5F485F20 
 14273      00
 14274              	.LASF566:
 14275 ef4e 44424C5F 		.ascii	"DBL_MAX_10_EXP\000"
 14275      4D41585F 
 14275      31305F45 
 14275      585000
 14276              	.LASF970:
 14277 ef5d 494E5438 		.ascii	"INT8_MIN (-INT8_MAX - 1)\000"
 14277      5F4D494E 
 14277      20282D49 
 14277      4E54385F 
 14277      4D415820 
 14278              	.LASF235:
 14279 ef76 5F5F464C 		.ascii	"__FLT32X_HAS_DENORM__ 1\000"
 14279      54333258 
 14279      5F484153 
 14279      5F44454E 
 14279      4F524D5F 
 14280              	.LASF1071:
 14281 ef8e 494E5431 		.ascii	"INT16_C\000"
 14281      365F4300 
 14282              	.LASF206:
 14283 ef96 5F5F464C 		.ascii	"__FLT32_HAS_QUIET_NAN__ 1\000"
 14283      5433325F 
 14283      4841535F 
 14283      51554945 
 14283      545F4E41 
 14284              	.LASF1136:
 14285 efb0 53434E69 		.ascii	"SCNiLEAST16 __SCN16LEAST(i)\000"
 14285      4C454153 
 14285      54313620 
 14285      5F5F5343 
 14285      4E31364C 
 14286              	.LASF12:
 14287 efcc 5F5F4154 		.ascii	"__ATOMIC_RELEASE 3\000"
 14287      4F4D4943 
 14287      5F52454C 
 14287      45415345 
 14287      203300
 14288              	.LASF321:
 14289 efdf 5F5F4851 		.ascii	"__HQ_IBIT__ 0\000"
 14289      5F494249 
 14289      545F5F20 
 14289      3000
 14290              	.LASF1466:
 14291 efed 464C4F41 		.ascii	"FLOAT_RMAT_OF_EULERS(_rm,_e) WARNING(\"FLOAT_RMAT_O"
 14291      545F524D 
 14291      41545F4F 
 14291      465F4555 
 14291      4C455253 
ARM GAS  /tmp/cceRHmPh.s 			page 377


 14292 f01f 465F4555 		.ascii	"F_EULERS macro is deprecated, use the lower case fu"
 14292      4C455253 
 14292      206D6163 
 14292      726F2069 
 14292      73206465 
 14293 f052 6E637469 		.ascii	"nction instead\") float_rmat_of_eulers_321(&(_rm), "
 14293      6F6E2069 
 14293      6E737465 
 14293      61642229 
 14293      20666C6F 
 14294 f084 26285F65 		.ascii	"&(_e))\000"
 14294      292900
 14295              	.LASF1531:
 14296 f08b 6C6F6E67 		.ascii	"long long int\000"
 14296      206C6F6E 
 14296      6720696E 
 14296      7400
 14297              	.LASF141:
 14298 f099 5F5F464C 		.ascii	"__FLT_EVAL_METHOD__ 0\000"
 14298      545F4556 
 14298      414C5F4D 
 14298      4554484F 
 14298      445F5F20 
 14299              	.LASF1462:
 14300 f0af 464C4F41 		.ascii	"FLOAT_RMAT_TRANSP_VMULT(_vb,_m_b2a,_va) WARNING(\"F"
 14300      545F524D 
 14300      41545F54 
 14300      52414E53 
 14300      505F564D 
 14301 f0e1 4C4F4154 		.ascii	"LOAT_RMAT_TRANSP_VMULT macro is deprecated, use the"
 14301      5F524D41 
 14301      545F5452 
 14301      414E5350 
 14301      5F564D55 
 14302 f114 206C6F77 		.ascii	" lower case function instead\") float_rmat_transp_v"
 14302      65722063 
 14302      61736520 
 14302      66756E63 
 14302      74696F6E 
 14303 f146 6D756C74 		.ascii	"mult(&(_vb), &(_m_b2a), &(_va))\000"
 14303      2826285F 
 14303      7662292C 
 14303      2026285F 
 14303      6D5F6232 
 14304              	.LASF1496:
 14305 f166 464C4F41 		.ascii	"FLOAT_EULERS_OF_QUAT(_e,_q) WARNING(\"FLOAT_EULERS_"
 14305      545F4555 
 14305      4C455253 
 14305      5F4F465F 
 14305      51554154 
 14306 f198 4F465F51 		.ascii	"OF_QUAT macro is deprecated, use the lower case fun"
 14306      55415420 
 14306      6D616372 
 14306      6F206973 
 14306      20646570 
 14307 f1cb 6374696F 		.ascii	"ction instead\") float_eulers_of_quat(&(_e), &(_q))"
 14307      6E20696E 
ARM GAS  /tmp/cceRHmPh.s 			page 378


 14307      73746561 
 14307      64222920 
 14307      666C6F61 
 14308 f1fd 00       		.ascii	"\000"
 14309              	.LASF917:
 14310 f1fe 5F5F6C6F 		.ascii	"__lockable __lock_annotate(lockable)\000"
 14310      636B6162 
 14310      6C65205F 
 14310      5F6C6F63 
 14310      6B5F616E 
 14311              	.LASF614:
 14312 f223 5F574944 		.ascii	"_WIDE_ORIENT 1\000"
 14312      455F4F52 
 14312      49454E54 
 14312      203100
 14313              	.LASF945:
 14314 f232 756E7369 		.ascii	"unsigned +0\000"
 14314      676E6564 
 14314      202B3000 
 14315              	.LASF943:
 14316 f23e 6C6F6E67 		.ascii	"long\000"
 14316      00
 14317              	.LASF346:
 14318 f243 5F5F5548 		.ascii	"__UHA_FBIT__ 8\000"
 14318      415F4642 
 14318      49545F5F 
 14318      203800
 14319              	.LASF1119:
 14320 f252 50524969 		.ascii	"PRIi16 __PRI16(i)\000"
 14320      3136205F 
 14320      5F505249 
 14320      31362869 
 14320      2900
 14321              	.LASF1255:
 14322 f264 6973756E 		.ascii	"isunordered(__x,__y) (__builtin_isunordered (__x, _"
 14322      6F726465 
 14322      72656428 
 14322      5F5F782C 
 14322      5F5F7929 
 14323 f297 5F792929 		.ascii	"_y))\000"
 14323      00
 14324              	.LASF277:
 14325 f29c 5F5F554C 		.ascii	"__ULLFRACT_EPSILON__ 0x1P-64ULLR\000"
 14325      4C465241 
 14325      43545F45 
 14325      5053494C 
 14325      4F4E5F5F 
 14326              	.LASF1129:
 14327 f2bd 50524964 		.ascii	"PRIdLEAST16 __PRI16LEAST(d)\000"
 14327      4C454153 
 14327      54313620 
 14327      5F5F5052 
 14327      4931364C 
 14328              	.LASF905:
 14329 f2d9 5F5F434F 		.ascii	"__COPYRIGHT(s) struct __hack\000"
 14329      50595249 
 14329      47485428 
ARM GAS  /tmp/cceRHmPh.s 			page 379


 14329      73292073 
 14329      74727563 
 14330              	.LASF1359:
 14331 f2f6 56454354 		.ascii	"VECT3_SUB(_a,_b) { (_a).x -= (_b).x; (_a).y -= (_b)"
 14331      335F5355 
 14331      42285F61 
 14331      2C5F6229 
 14331      207B2028 
 14332 f329 2E793B20 		.ascii	".y; (_a).z -= (_b).z; }\000"
 14332      285F6129 
 14332      2E7A202D 
 14332      3D20285F 
 14332      62292E7A 
 14333              	.LASF393:
 14334 f341 5F5F4152 		.ascii	"__ARM_FEATURE_CLZ 1\000"
 14334      4D5F4645 
 14334      41545552 
 14334      455F434C 
 14334      5A203100 
 14335              	.LASF1003:
 14336 f355 494E545F 		.ascii	"INT_LEAST32_MAX\000"
 14336      4C454153 
 14336      5433325F 
 14336      4D415800 
 14337              	.LASF1389:
 14338 f365 52415445 		.ascii	"RATES_SUM_SCALED(_c,_a,_b,_s) { (_c).p = (_a).p + ("
 14338      535F5355 
 14338      4D5F5343 
 14338      414C4544 
 14338      285F632C 
 14339 f398 5F73292A 		.ascii	"_s)*(_b).p; (_c).q = (_a).q + (_s)*(_b).q; (_c).r ="
 14339      285F6229 
 14339      2E703B20 
 14339      285F6329 
 14339      2E71203D 
 14340 f3cb 20285F61 		.ascii	" (_a).r + (_s)*(_b).r; }\000"
 14340      292E7220 
 14340      2B20285F 
 14340      73292A28 
 14340      5F62292E 
 14341              	.LASF478:
 14342 f3e4 494E535F 		.ascii	"INS_TYPE_H \"modules/ins/ins_alt_float.h\"\000"
 14342      54595045 
 14342      5F482022 
 14342      6D6F6475 
 14342      6C65732F 
 14343              	.LASF420:
 14344 f40d 5F5F4152 		.ascii	"__ARM_FEATURE_FMA 1\000"
 14344      4D5F4645 
 14344      41545552 
 14344      455F464D 
 14344      41203100 
 14345              	.LASF1336:
 14346 f421 52756E4F 		.ascii	"RunOnceEvery(_prescaler,_code) { static uint16_t pr"
 14346      6E636545 
 14346      76657279 
 14346      285F7072 
ARM GAS  /tmp/cceRHmPh.s 			page 380


 14346      65736361 
 14347 f454 65736361 		.ascii	"escaler = 0; prescaler++; if (prescaler >= _prescal"
 14347      6C657220 
 14347      3D20303B 
 14347      20707265 
 14347      7363616C 
 14348 f487 65722920 		.ascii	"er) { prescaler = 0; _code; } }\000"
 14348      7B207072 
 14348      65736361 
 14348      6C657220 
 14348      3D20303B 
 14349              	.LASF965:
 14350 f4a7 5F5F4C45 		.ascii	"__LEAST64 \"ll\"\000"
 14350      41535436 
 14350      3420226C 
 14350      6C2200
 14351              	.LASF423:
 14352 f4b6 5F5F4152 		.ascii	"__ARM_NEON_FP\000"
 14352      4D5F4E45 
 14352      4F4E5F46 
 14352      5000
 14353              	.LASF1589:
 14354 f4c4 656E755F 		.ascii	"enu_of_ecef_vect_f\000"
 14354      6F665F65 
 14354      6365665F 
 14354      76656374 
 14354      5F6600
 14355              	.LASF427:
 14356 f4d7 5F5F4644 		.ascii	"__FDPIC__\000"
 14356      5049435F 
 14356      5F00
 14357              	.LASF543:
 14358 f4e1 4C44424C 		.ascii	"LDBL_DIG\000"
 14358      5F444947 
 14358      00
 14359              	.LASF987:
 14360 f4ea 494E5436 		.ascii	"INT64_MIN\000"
 14360      345F4D49 
 14360      4E00
 14361              	.LASF101:
 14362 f4f4 5F5F5549 		.ascii	"__UINT16_MAX__ 0xffff\000"
 14362      4E543136 
 14362      5F4D4158 
 14362      5F5F2030 
 14362      78666666 
 14363              	.LASF402:
 14364 f50a 5F5F4152 		.ascii	"__ARM_ARCH 7\000"
 14364      4D5F4152 
 14364      43482037 
 14364      00
 14365              	.LASF254:
 14366 f517 5F5F5546 		.ascii	"__UFRACT_IBIT__ 0\000"
 14366      52414354 
 14366      5F494249 
 14366      545F5F20 
 14366      3000
 14367              	.LASF847:
ARM GAS  /tmp/cceRHmPh.s 			page 381


 14368 f529 5F5F434F 		.ascii	"__CONCAT(x,y) __CONCAT1(x,y)\000"
 14368      4E434154 
 14368      28782C79 
 14368      29205F5F 
 14368      434F4E43 
 14369              	.LASF175:
 14370 f546 5F5F4442 		.ascii	"__DBL_HAS_QUIET_NAN__ 1\000"
 14370      4C5F4841 
 14370      535F5155 
 14370      4945545F 
 14370      4E414E5F 
 14371              	.LASF179:
 14372 f55e 5F5F4C44 		.ascii	"__LDBL_MIN_10_EXP__ (-307)\000"
 14372      424C5F4D 
 14372      494E5F31 
 14372      305F4558 
 14372      505F5F20 
 14373              	.LASF1284:
 14374 f579 5F494545 		.ascii	"_IEEE_ __fdlibm_ieee\000"
 14374      455F205F 
 14374      5F66646C 
 14374      69626D5F 
 14374      69656565 
 14375              	.LASF1207:
 14376 f58e 53434E75 		.ascii	"SCNuMAX __SCNMAX(u)\000"
 14376      4D415820 
 14376      5F5F5343 
 14376      4E4D4158 
 14376      28752900 
 14377              	.LASF1191:
 14378 f5a2 5F5F5343 		.ascii	"__SCN64(x) __INT64 __STRINGIFY(x)\000"
 14378      4E363428 
 14378      7829205F 
 14378      5F494E54 
 14378      3634205F 
 14379              	.LASF678:
 14380 f5c4 5F425344 		.ascii	"_BSD_SIZE_T_ \000"
 14380      5F53495A 
 14380      455F545F 
 14380      2000
 14381              	.LASF456:
 14382 f5d2 43485F44 		.ascii	"CH_DBG_ENABLE_TRACE TRUE\000"
 14382      42475F45 
 14382      4E41424C 
 14382      455F5452 
 14382      41434520 
 14383              	.LASF1272:
 14384 f5eb 4D5F5351 		.ascii	"M_SQRT1_2 0.70710678118654752440\000"
 14384      5254315F 
 14384      3220302E 
 14384      37303731 
 14384      30363738 
 14385              	.LASF1521:
 14386 f60c 4349287A 		.ascii	"CI(z) { float tmp = z.re; z.re = - z.im; z.im = tmp"
 14386      29207B20 
 14386      666C6F61 
 14386      7420746D 
ARM GAS  /tmp/cceRHmPh.s 			page 382


 14386      70203D20 
 14387 f63f 3B207D00 		.ascii	"; }\000"
 14388              	.LASF1364:
 14389 f643 56454354 		.ascii	"VECT3_SMUL(_vo,_vi,_s) { (_vo).x = (_vi).x * (_s); "
 14389      335F534D 
 14389      554C285F 
 14389      766F2C5F 
 14389      76692C5F 
 14390 f676 285F766F 		.ascii	"(_vo).y = (_vi).y * (_s); (_vo).z = (_vi).z * (_s);"
 14390      292E7920 
 14390      3D20285F 
 14390      7669292E 
 14390      79202A20 
 14391 f6a9 207D00   		.ascii	" }\000"
 14392              	.LASF1055:
 14393 f6ac 5349475F 		.ascii	"SIG_ATOMIC_MAX\000"
 14393      41544F4D 
 14393      49435F4D 
 14393      415800
 14394              	.LASF244:
 14395 f6bb 5F5F5553 		.ascii	"__USFRACT_IBIT__ 0\000"
 14395      46524143 
 14395      545F4942 
 14395      49545F5F 
 14395      203000
 14396              	.LASF1092:
 14397 f6ce 5F5F5052 		.ascii	"__PRI8LEAST(x) __LEAST8 __STRINGIFY(x)\000"
 14397      49384C45 
 14397      41535428 
 14397      7829205F 
 14397      5F4C4541 
 14398              	.LASF226:
 14399 f6f5 5F5F464C 		.ascii	"__FLT32X_MIN_10_EXP__ (-307)\000"
 14399      54333258 
 14399      5F4D494E 
 14399      5F31305F 
 14399      4558505F 
 14400              	.LASF1065:
 14401 f712 57494E54 		.ascii	"WINT_MAX\000"
 14401      5F4D4158 
 14401      00
 14402              	.LASF1091:
 14403 f71b 5F5F5052 		.ascii	"__PRI8(x) __INT8 __STRINGIFY(x)\000"
 14403      49382878 
 14403      29205F5F 
 14403      494E5438 
 14403      205F5F53 
 14404              	.LASF1062:
 14405 f73b 57434841 		.ascii	"WCHAR_MAX __WCHAR_MAX__\000"
 14405      525F4D41 
 14405      58205F5F 
 14405      57434841 
 14405      525F4D41 
 14406              	.LASF143:
 14407 f753 5F5F4445 		.ascii	"__DEC_EVAL_METHOD__ 2\000"
 14407      435F4556 
 14407      414C5F4D 
ARM GAS  /tmp/cceRHmPh.s 			page 383


 14407      4554484F 
 14407      445F5F20 
 14408              	.LASF1009:
 14409 f769 494E545F 		.ascii	"INT_LEAST64_MAX\000"
 14409      4C454153 
 14409      5436345F 
 14409      4D415800 
 14410              	.LASF1305:
 14411 f779 5F425628 		.ascii	"_BV(bit) (1 << (bit))\000"
 14411      62697429 
 14411      20283120 
 14411      3C3C2028 
 14411      62697429 
 14412              	.LASF613:
 14413 f78f 5F465345 		.ascii	"_FSEEK_OPTIMIZATION 1\000"
 14413      454B5F4F 
 14413      5054494D 
 14413      495A4154 
 14413      494F4E20 
 14414              	.LASF1530:
 14415 f7a5 6C6F6E67 		.ascii	"long unsigned int\000"
 14415      20756E73 
 14415      69676E65 
 14415      6420696E 
 14415      7400
 14416              	.LASF684:
 14417 f7b7 5F474343 		.ascii	"_GCC_SIZE_T \000"
 14417      5F53495A 
 14417      455F5420 
 14417      00
 14418              	.LASF8:
 14419 f7c4 5F5F5645 		.ascii	"__VERSION__ \"10.3.1 20210621 (release)\"\000"
 14419      5253494F 
 14419      4E5F5F20 
 14419      2231302E 
 14419      332E3120 
 14420              	.LASF1247:
 14421 f7ec 69736E61 		.ascii	"isnan(__x) (__builtin_isnan (__x))\000"
 14421      6E285F5F 
 14421      78292028 
 14421      5F5F6275 
 14421      696C7469 
 14422              	.LASF1124:
 14423 f80f 53434E64 		.ascii	"SCNd16 __SCN16(d)\000"
 14423      3136205F 
 14423      5F53434E 
 14423      31362864 
 14423      2900
 14424              	.LASF241:
 14425 f821 5F5F5346 		.ascii	"__SFRACT_MAX__ 0X7FP-7HR\000"
 14425      52414354 
 14425      5F4D4158 
 14425      5F5F2030 
 14425      58374650 
 14426              	.LASF1309:
 14427 f83a 4E6F726D 		.ascii	"NormCourse(x) { while (x < 0) x += 360; while (x >="
 14427      436F7572 
ARM GAS  /tmp/cceRHmPh.s 			page 384


 14427      73652878 
 14427      29207B20 
 14427      7768696C 
 14428 f86d 20333630 		.ascii	" 360) x -= 360; }\000"
 14428      29207820 
 14428      2D3D2033 
 14428      36303B20 
 14428      7D00
 14429              	.LASF22:
 14430 f87f 5F5F5349 		.ascii	"__SIZEOF_LONG_DOUBLE__ 8\000"
 14430      5A454F46 
 14430      5F4C4F4E 
 14430      475F444F 
 14430      55424C45 
 14431              	.LASF1299:
 14432 f898 5F535452 		.ascii	"_STRINGIFY(s) #s\000"
 14432      494E4749 
 14432      46592873 
 14432      29202373 
 14432      00
 14433              	.LASF876:
 14434 f8a9 5F5F6E6F 		.ascii	"__nonnull_all __attribute__((__nonnull__))\000"
 14434      6E6E756C 
 14434      6C5F616C 
 14434      6C205F5F 
 14434      61747472 
 14435              	.LASF220:
 14436 f8d4 5F5F464C 		.ascii	"__FLT64_HAS_DENORM__ 1\000"
 14436      5436345F 
 14436      4841535F 
 14436      44454E4F 
 14436      524D5F5F 
 14437              	.LASF172:
 14438 f8eb 5F5F4442 		.ascii	"__DBL_DENORM_MIN__ ((double)4.9406564584124654e-324"
 14438      4C5F4445 
 14438      4E4F524D 
 14438      5F4D494E 
 14438      5F5F2028 
 14439 f91e 4C2900   		.ascii	"L)\000"
 14440              	.LASF157:
 14441 f921 5F5F464C 		.ascii	"__FLT_HAS_DENORM__ 1\000"
 14441      545F4841 
 14441      535F4445 
 14441      4E4F524D 
 14441      5F5F2031 
 14442              	.LASF824:
 14443 f936 5F5F474E 		.ascii	"__GNUCLIKE_MATH_BUILTIN_CONSTANTS \000"
 14443      55434C49 
 14443      4B455F4D 
 14443      4154485F 
 14443      4255494C 
 14444              	.LASF995:
 14445 f959 55494E54 		.ascii	"UINT_LEAST8_MAX\000"
 14445      5F4C4541 
 14445      5354385F 
 14445      4D415800 
 14446              	.LASF407:
ARM GAS  /tmp/cceRHmPh.s 			page 385


 14447 f969 5F5F5448 		.ascii	"__THUMBEL__ 1\000"
 14447      554D4245 
 14447      4C5F5F20 
 14447      3100
 14448              	.LASF544:
 14449 f977 464C545F 		.ascii	"FLT_DIG __FLT_DIG__\000"
 14449      44494720 
 14449      5F5F464C 
 14449      545F4449 
 14449      475F5F00 
 14450              	.LASF1131:
 14451 f98b 5052496F 		.ascii	"PRIoLEAST16 __PRI16LEAST(o)\000"
 14451      4C454153 
 14451      54313620 
 14451      5F5F5052 
 14451      4931364C 
 14452              	.LASF866:
 14453 f9a7 5F41746F 		.ascii	"_Atomic(T) struct { T volatile __val; }\000"
 14453      6D696328 
 14453      54292073 
 14453      74727563 
 14453      74207B20 
 14454              	.LASF296:
 14455 f9cf 5F5F5541 		.ascii	"__UACCUM_MAX__ 0XFFFFFFFFP-16UK\000"
 14455      4343554D 
 14455      5F4D4158 
 14455      5F5F2030 
 14455      58464646 
 14456              	.LASF1018:
 14457 f9ef 494E545F 		.ascii	"INT_FAST8_MIN (-INT_FAST8_MAX - 1)\000"
 14457      46415354 
 14457      385F4D49 
 14457      4E20282D 
 14457      494E545F 
 14458              	.LASF327:
 14459 fa12 5F5F5451 		.ascii	"__TQ_IBIT__ 0\000"
 14459      5F494249 
 14459      545F5F20 
 14459      3000
 14460              	.LASF1308:
 14461 fa20 4E6F726D 		.ascii	"NormRadAngle(x) { while (x > M_PI) x -= 2 * M_PI; w"
 14461      52616441 
 14461      6E676C65 
 14461      28782920 
 14461      7B207768 
 14462 fa53 68696C65 		.ascii	"hile (x < -M_PI) x += 2 * M_PI; }\000"
 14462      20287820 
 14462      3C202D4D 
 14462      5F504929 
 14462      2078202B 
 14463              	.LASF232:
 14464 fa75 5F5F464C 		.ascii	"__FLT32X_MIN__ 2.2250738585072014e-308F32x\000"
 14464      54333258 
 14464      5F4D494E 
 14464      5F5F2032 
 14464      2E323235 
 14465              	.LASF1279:
ARM GAS  /tmp/cceRHmPh.s 			page 386


 14466 faa0 4D5F4956 		.ascii	"M_IVLN10 0.43429448190325182765\000"
 14466      4C4E3130 
 14466      20302E34 
 14466      33343239 
 14466      34343831 
 14467              	.LASF1331:
 14468 fac0 436C6970 		.ascii	"Clip(_x,_min,_max) ( (_x) < (_min) ? (_min) : (_x) "
 14468      285F782C 
 14468      5F6D696E 
 14468      2C5F6D61 
 14468      78292028 
 14469 faf3 3E20285F 		.ascii	"> (_max) ? (_max) : (_x) )\000"
 14469      6D617829 
 14469      203F2028 
 14469      5F6D6178 
 14469      29203A20 
 14470              	.LASF1537:
 14471 fb0e 466C6F61 		.ascii	"FloatRMat\000"
 14471      74524D61 
 14471      7400
 14472              	.LASF1295:
 14473 fb18 494E464F 		.ascii	"INFO_VAR(var) DO_PRAGMA(message (\"INFO: \" #var \""
 14473      5F564152 
 14473      28766172 
 14473      2920444F 
 14473      5F505241 
 14474 fb48 203D2022 		.ascii	" = \" VALUE(var)))\000"
 14474      2056414C 
 14474      55452876 
 14474      61722929 
 14474      2900
 14475              	.LASF671:
 14476 fb5a 5F5F5349 		.ascii	"__SIZE_T__ \000"
 14476      5A455F54 
 14476      5F5F2000 
 14477              	.LASF1341:
 14478 fb66 5745414B 		.ascii	"WEAK __attribute__((weak))\000"
 14478      205F5F61 
 14478      74747269 
 14478      62757465 
 14478      5F5F2828 
 14479              	.LASF32:
 14480 fb81 5F5F5349 		.ascii	"__SIZE_TYPE__ unsigned int\000"
 14480      5A455F54 
 14480      5950455F 
 14480      5F20756E 
 14480      7369676E 
 14481              	.LASF1253:
 14482 fb9c 69736C65 		.ascii	"islessequal(__x,__y) (__builtin_islessequal (__x, _"
 14482      73736571 
 14482      75616C28 
 14482      5F5F782C 
 14482      5F5F7929 
 14483 fbcf 5F792929 		.ascii	"_y))\000"
 14483      00
 14484              	.LASF1296:
 14485 fbd4 5052494E 		.ascii	"PRINT_CONFIG_MSG(x) \000"
ARM GAS  /tmp/cceRHmPh.s 			page 387


 14485      545F434F 
 14485      4E464947 
 14485      5F4D5347 
 14485      28782920 
 14486              	.LASF865:
 14487 fbe9 5F416C69 		.ascii	"_Alignof(x) __alignof(x)\000"
 14487      676E6F66 
 14487      28782920 
 14487      5F5F616C 
 14487      69676E6F 
 14488              	.LASF887:
 14489 fc02 5F5F6F66 		.ascii	"__offsetof(type,field) offsetof(type, field)\000"
 14489      66736574 
 14489      6F662874 
 14489      7970652C 
 14489      6669656C 
 14490              	.LASF472:
 14491 fc2f 4750535F 		.ascii	"GPS_UBX_NAV5_DYNAMICS NAV5_DYN_AIRBORNE_2G\000"
 14491      5542585F 
 14491      4E415635 
 14491      5F44594E 
 14491      414D4943 
 14492              	.LASF755:
 14493 fc5a 5F52414E 		.ascii	"_RAND48_SEED_1 (0xabcd)\000"
 14493      4434385F 
 14493      53454544 
 14493      5F312028 
 14493      30786162 
 14494              	.LASF635:
 14495 fc72 5F5F4C41 		.ascii	"__LARGEFILE_VISIBLE 0\000"
 14495      52474546 
 14495      494C455F 
 14495      56495349 
 14495      424C4520 
 14496              	.LASF880:
 14497 fc88 5F5F756E 		.ascii	"__unreachable() __builtin_unreachable()\000"
 14497      72656163 
 14497      6861626C 
 14497      65282920 
 14497      5F5F6275 
 14498              	.LASF1079:
 14499 fcb0 55494E54 		.ascii	"UINT16_C\000"
 14499      31365F43 
 14499      00
 14500              	.LASF848:
 14501 fcb9 5F5F5354 		.ascii	"__STRING(x) #x\000"
 14501      52494E47 
 14501      28782920 
 14501      237800
 14502              	.LASF1464:
 14503 fcc8 464C4F41 		.ascii	"FLOAT_RMAT_TRANSP_RATEMULT(_rb,_m_b2a,_ra) WARNING("
 14503      545F524D 
 14503      41545F54 
 14503      52414E53 
 14503      505F5241 
 14504 fcfb 22464C4F 		.ascii	"\"FLOAT_RMAT_TRANSP_RATEMULT macro is deprecated, u"
 14504      41545F52 
ARM GAS  /tmp/cceRHmPh.s 			page 388


 14504      4D41545F 
 14504      5452414E 
 14504      53505F52 
 14505 fd2d 73652074 		.ascii	"se the lower case function instead\") float_rmat_ra"
 14505      6865206C 
 14505      6F776572 
 14505      20636173 
 14505      65206675 
 14506 fd5f 74656D75 		.ascii	"temult(&(_rb), &(_m_b2a), &(_ra))\000"
 14506      6C742826 
 14506      285F7262 
 14506      292C2026 
 14506      285F6D5F 
 14507              	.LASF1374:
 14508 fd81 56454354 		.ascii	"VECT3_NORM2(_v) ((_v).x*(_v).x + (_v).y*(_v).y + (_"
 14508      335F4E4F 
 14508      524D3228 
 14508      5F762920 
 14508      28285F76 
 14509 fdb4 76292E7A 		.ascii	"v).z*(_v).z)\000"
 14509      2A285F76 
 14509      292E7A29 
 14509      00
 14510              	.LASF38:
 14511 fdc1 5F5F4348 		.ascii	"__CHAR16_TYPE__ short unsigned int\000"
 14511      41523136 
 14511      5F545950 
 14511      455F5F20 
 14511      73686F72 
 14512              	.LASF976:
 14513 fde4 494E5431 		.ascii	"INT16_MIN (-INT16_MAX - 1)\000"
 14513      365F4D49 
 14513      4E20282D 
 14513      494E5431 
 14513      365F4D41 
 14514              	.LASF486:
 14515 fdff 5050525A 		.ascii	"PPRZ_VER \000"
 14515      5F564552 
 14515      2000
 14516              	.LASF1127:
 14517 fe09 53434E75 		.ascii	"SCNu16 __SCN16(u)\000"
 14517      3136205F 
 14517      5F53434E 
 14517      31362875 
 14517      2900
 14518              	.LASF789:
 14519 fe1b 5F524545 		.ascii	"_REENT_MBTOWC_STATE(ptr) ((ptr)->_new._reent._mbtow"
 14519      4E545F4D 
 14519      42544F57 
 14519      435F5354 
 14519      41544528 
 14520 fe4e 635F7374 		.ascii	"c_state)\000"
 14520      61746529 
 14520      00
 14521              	.LASF442:
 14522 fe57 5553455F 		.ascii	"USE_CHIBIOS_RTOS 1\000"
 14522      43484942 
ARM GAS  /tmp/cceRHmPh.s 			page 389


 14522      494F535F 
 14522      52544F53 
 14522      203100
 14523              	.LASF1197:
 14524 fe6a 5F5F5343 		.ascii	"__SCNMAX(x) __STRINGIFY(ll ##x)\000"
 14524      4E4D4158 
 14524      28782920 
 14524      5F5F5354 
 14524      52494E47 
 14525              	.LASF1524:
 14526 fe8a 756E7369 		.ascii	"unsigned int\000"
 14526      676E6564 
 14526      20696E74 
 14526      00
 14527              	.LASF579:
 14528 fe97 4C44424C 		.ascii	"LDBL_EPSILON\000"
 14528      5F455053 
 14528      494C4F4E 
 14528      00
 14529              	.LASF871:
 14530 fea4 5F5F6D61 		.ascii	"__malloc_like __attribute__((__malloc__))\000"
 14530      6C6C6F63 
 14530      5F6C696B 
 14530      65205F5F 
 14530      61747472 
 14531              	.LASF502:
 14532 fece 5553455F 		.ascii	"USE_AHRS 1\000"
 14532      41485253 
 14532      203100
 14533              	.LASF1324:
 14534 fed9 4D6F7265 		.ascii	"MoreThan(_x,_y) ((_x) > (_y))\000"
 14534      5468616E 
 14534      285F782C 
 14534      5F792920 
 14534      28285F78 
 14535              	.LASF808:
 14536 fef7 5F5F5448 		.ascii	"__THROW \000"
 14536      524F5720 
 14536      00
 14537              	.LASF1338:
 14538 ff00 50657269 		.ascii	"PeriodicPrescaleBy5(_code_0,_code_1,_code_2,_code_3"
 14538      6F646963 
 14538      50726573 
 14538      63616C65 
 14538      42793528 
 14539 ff33 2C5F636F 		.ascii	",_code_4) { static uint8_t _50hz = 0; _50hz++; if ("
 14539      64655F34 
 14539      29207B20 
 14539      73746174 
 14539      69632075 
 14540 ff66 5F353068 		.ascii	"_50hz >= 5) _50hz = 0; switch (_50hz) { case 0: _co"
 14540      7A203E3D 
 14540      20352920 
 14540      5F353068 
 14540      7A203D20 
 14541 ff99 64655F30 		.ascii	"de_0; break; case 1: _code_1; break; case 2: _code_"
 14541      3B206272 
ARM GAS  /tmp/cceRHmPh.s 			page 390


 14541      65616B3B 
 14541      20636173 
 14541      6520313A 
 14542 ffcc 323B2062 		.ascii	"2; break; case 3: _code_3; break; case 4: _code_4; "
 14542      7265616B 
 14542      3B206361 
 14542      73652033 
 14542      3A205F63 
 14543 ffff 62726561 		.ascii	"break; } }\000"
 14543      6B3B207D 
 14543      207D00
 14544              	.LASF389:
 14545 1000a 5F5F4152 		.ascii	"__ARM_FEATURE_MVE\000"
 14545      4D5F4645 
 14545      41545552 
 14545      455F4D56 
 14545      4500
 14546              	.LASF1107:
 14547 1001c 50524969 		.ascii	"PRIiFAST8 __PRI8FAST(i)\000"
 14547      46415354 
 14547      38205F5F 
 14547      50524938 
 14547      46415354 
 14548              	.LASF560:
 14549 10034 44424C5F 		.ascii	"DBL_MAX_EXP\000"
 14549      4D41585F 
 14549      45585000 
 14550              	.LASF1196:
 14551 10040 5F5F5052 		.ascii	"__PRIMAX(x) __STRINGIFY(ll ##x)\000"
 14551      494D4158 
 14551      28782920 
 14551      5F5F5354 
 14551      52494E47 
 14552              	.LASF1022:
 14553 10060 494E545F 		.ascii	"INT_FAST16_MAX __INT_FAST16_MAX__\000"
 14553      46415354 
 14553      31365F4D 
 14553      4158205F 
 14553      5F494E54 
 14554              	.LASF1385:
 14555 10082 52415445 		.ascii	"RATES_COPY(_a,_b) { (_a).p = (_b).p; (_a).q = (_b)."
 14555      535F434F 
 14555      5059285F 
 14555      612C5F62 
 14555      29207B20 
 14556 100b5 713B2028 		.ascii	"q; (_a).r = (_b).r; }\000"
 14556      5F61292E 
 14556      72203D20 
 14556      285F6229 
 14556      2E723B20 
 14557              	.LASF956:
 14558 100cb 5F5F494E 		.ascii	"__INT32 \"l\"\000"
 14558      54333220 
 14558      226C2200 
 14559              	.LASF347:
 14560 100d7 5F5F5548 		.ascii	"__UHA_IBIT__ 8\000"
 14560      415F4942 
ARM GAS  /tmp/cceRHmPh.s 			page 391


 14560      49545F5F 
 14560      203800
 14561              	.LASF526:
 14562 100e6 454E555F 		.ascii	"ENU_OF_UTM_DIFF(_pos,_utm1,_utm2) { (_pos).x = (_ut"
 14562      4F465F55 
 14562      544D5F44 
 14562      49464628 
 14562      5F706F73 
 14563 10119 6D31292E 		.ascii	"m1).east - (_utm2).east; (_pos).y = (_utm1).north -"
 14563      65617374 
 14563      202D2028 
 14563      5F75746D 
 14563      32292E65 
 14564 1014c 20285F75 		.ascii	" (_utm2).north; (_pos).z = (_utm1).alt - (_utm2).al"
 14564      746D3229 
 14564      2E6E6F72 
 14564      74683B20 
 14564      285F706F 
 14565 1017f 743B207D 		.ascii	"t; }\000"
 14565      00
 14566              	.LASF434:
 14567 10184 5F5F4152 		.ascii	"__ARM_FEATURE_CDE_COPROC\000"
 14567      4D5F4645 
 14567      41545552 
 14567      455F4344 
 14567      455F434F 
 14568              	.LASF271:
 14569 1019d 5F5F4C4C 		.ascii	"__LLFRACT_MAX__ 0X7FFFFFFFFFFFFFFFP-63LLR\000"
 14569      46524143 
 14569      545F4D41 
 14569      585F5F20 
 14569      30583746 
 14570              	.LASF540:
 14571 101c7 4C44424C 		.ascii	"LDBL_MANT_DIG __LDBL_MANT_DIG__\000"
 14571      5F4D414E 
 14571      545F4449 
 14571      47205F5F 
 14571      4C44424C 
 14572              	.LASF920:
 14573 101e7 5F5F7472 		.ascii	"__trylocks_exclusive(...) __lock_annotate(exclusive"
 14573      796C6F63 
 14573      6B735F65 
 14573      78636C75 
 14573      73697665 
 14574 1021a 5F747279 		.ascii	"_trylock_function(__VA_ARGS__))\000"
 14574      6C6F636B 
 14574      5F66756E 
 14574      6374696F 
 14574      6E285F5F 
 14575              	.LASF1527:
 14576 1023a 73686F72 		.ascii	"short int\000"
 14576      7420696E 
 14576      7400
 14577              	.LASF328:
 14578 10244 5F5F5551 		.ascii	"__UQQ_FBIT__ 8\000"
 14578      515F4642 
 14578      49545F5F 
ARM GAS  /tmp/cceRHmPh.s 			page 392


 14578      203800
 14579              	.LASF714:
 14580 10253 5F4D4143 		.ascii	"_MACHINE__TYPES_H \000"
 14580      48494E45 
 14580      5F5F5459 
 14580      5045535F 
 14580      482000
 14581              	.LASF1502:
 14582 10266 444F5542 		.ascii	"DOUBLE_VECT3_RINT(_vout,_vin) { (_vout).x = rint((_"
 14582      4C455F56 
 14582      45435433 
 14582      5F52494E 
 14582      54285F76 
 14583 10299 76696E29 		.ascii	"vin).x); (_vout).y = rint((_vin).y); (_vout).z = ri"
 14583      2E78293B 
 14583      20285F76 
 14583      6F757429 
 14583      2E79203D 
 14584 102cc 6E742828 		.ascii	"nt((_vin).z); }\000"
 14584      5F76696E 
 14584      292E7A29 
 14584      3B207D00 
 14585              	.LASF6:
 14586 102dc 5F5F474E 		.ascii	"__GNUC_MINOR__ 3\000"
 14586      55435F4D 
 14586      494E4F52 
 14586      5F5F2033 
 14586      00
 14587              	.LASF1144:
 14588 102ed 50524978 		.ascii	"PRIxFAST16 __PRI16FAST(x)\000"
 14588      46415354 
 14588      3136205F 
 14588      5F505249 
 14588      31364641 
 14589              	.LASF1046:
 14590 10307 494E544D 		.ascii	"INTMAX_MAX __INTMAX_MAX__\000"
 14590      41585F4D 
 14590      4158205F 
 14590      5F494E54 
 14590      4D41585F 
 14591              	.LASF1541:
 14592 10321 456E7543 		.ascii	"EnuCoor_f\000"
 14592      6F6F725F 
 14592      6600
 14593              	.LASF1421:
 14594 1032b 524D4154 		.ascii	"RMAT_DIFF(_c,_a,_b) { (_c).m[0] = (_a).m[0] - (_b)."
 14594      5F444946 
 14594      46285F63 
 14594      2C5F612C 
 14594      5F622920 
 14595 1035e 6D5B305D 		.ascii	"m[0]; (_c).m[1] = (_a).m[1] - (_b).m[1]; (_c).m[2] "
 14595      3B20285F 
 14595      63292E6D 
 14595      5B315D20 
 14595      3D20285F 
 14596 10391 3D20285F 		.ascii	"= (_a).m[2] - (_b).m[2]; (_c).m[3] = (_a).m[3] - (_"
 14596      61292E6D 
ARM GAS  /tmp/cceRHmPh.s 			page 393


 14596      5B325D20 
 14596      2D20285F 
 14596      62292E6D 
 14597 103c4 62292E6D 		.ascii	"b).m[3]; (_c).m[4] = (_a).m[4] - (_b).m[4]; (_c).m["
 14597      5B335D3B 
 14597      20285F63 
 14597      292E6D5B 
 14597      345D203D 
 14598 103f7 355D203D 		.ascii	"5] = (_a).m[5] - (_b).m[5]; (_c).m[6] = (_a).m[6] -"
 14598      20285F61 
 14598      292E6D5B 
 14598      355D202D 
 14598      20285F62 
 14599 1042a 20285F62 		.ascii	" (_b).m[6]; (_c).m[7] = (_a).m[7] - (_b).m[7]; (_c)"
 14599      292E6D5B 
 14599      365D3B20 
 14599      285F6329 
 14599      2E6D5B37 
 14600 1045d 2E6D5B38 		.ascii	".m[8] = (_a).m[8] - (_b).m[8]; }\000"
 14600      5D203D20 
 14600      285F6129 
 14600      2E6D5B38 
 14600      5D202D20 
 14601              	.LASF1163:
 14602 1047e 53434E64 		.ascii	"SCNd32 __SCN32(d)\000"
 14602      3332205F 
 14602      5F53434E 
 14602      33322864 
 14602      2900
 14603              	.LASF54:
 14604 10490 5F5F5549 		.ascii	"__UINT_LEAST16_TYPE__ short unsigned int\000"
 14604      4E545F4C 
 14604      45415354 
 14604      31365F54 
 14604      5950455F 
 14605              	.LASF524:
 14606 104b9 4C54505F 		.ascii	"LTP_DEF_COPY(_def1,_def2) { LLA_COPY((_def1).lla, ("
 14606      4445465F 
 14606      434F5059 
 14606      285F6465 
 14606      66312C5F 
 14607 104ec 5F646566 		.ascii	"_def2).lla); VECT3_COPY((_def1).ecef, (_def2).ecef)"
 14607      32292E6C 
 14607      6C61293B 
 14607      20564543 
 14607      54335F43 
 14608 1051f 3B20524D 		.ascii	"; RMAT_COPY((_def1).ltp_of_ecef, (_def2).ltp_of_ece"
 14608      41545F43 
 14608      4F505928 
 14608      285F6465 
 14608      6631292E 
 14609 10552 66293B20 		.ascii	"f); (_def1).hmsl = (_def2).hmsl; }\000"
 14609      285F6465 
 14609      6631292E 
 14609      686D736C 
 14609      203D2028 
 14610              	.LASF611:
ARM GAS  /tmp/cceRHmPh.s 			page 394


 14611 10575 5F4C4442 		.ascii	"_LDBL_EQ_DBL 1\000"
 14611      4C5F4551 
 14611      5F44424C 
 14611      203100
 14612              	.LASF1289:
 14613 10584 56414C55 		.ascii	"VALUE(x) VALUE_TO_STRING(x)\000"
 14613      45287829 
 14613      2056414C 
 14613      55455F54 
 14613      4F5F5354 
 14614              	.LASF532:
 14615 105a0 5F464C4F 		.ascii	"_FLOAT_H___ \000"
 14615      41545F48 
 14615      5F5F5F20 
 14615      00
 14616              	.LASF156:
 14617 105ad 5F5F464C 		.ascii	"__FLT_DENORM_MIN__ 1.4012984643248171e-45F\000"
 14617      545F4445 
 14617      4E4F524D 
 14617      5F4D494E 
 14617      5F5F2031 
 14618              	.LASF1147:
 14619 105d8 53434E69 		.ascii	"SCNiFAST16 __SCN16FAST(i)\000"
 14619      46415354 
 14619      3136205F 
 14619      5F53434E 
 14619      31364641 
 14620              	.LASF1028:
 14621 105f2 494E545F 		.ascii	"INT_FAST32_MAX __INT_FAST32_MAX__\000"
 14621      46415354 
 14621      33325F4D 
 14621      4158205F 
 14621      5F494E54 
 14622              	.LASF1050:
 14623 10614 55494E54 		.ascii	"UINTMAX_MAX __UINTMAX_MAX__\000"
 14623      4D41585F 
 14623      4D415820 
 14623      5F5F5549 
 14623      4E544D41 
 14624              	.LASF1315:
 14625 10630 5261644F 		.ascii	"RadOfDeg(x) ((x) * (M_PI/180.))\000"
 14625      66446567 
 14625      28782920 
 14625      28287829 
 14625      202A2028 
 14626              	.LASF116:
 14627 10650 5F5F5549 		.ascii	"__UINT_LEAST8_MAX__ 0xff\000"
 14627      4E545F4C 
 14627      45415354 
 14627      385F4D41 
 14627      585F5F20 
 14628              	.LASF409:
 14629 10669 5F5F4152 		.ascii	"__ARM_ARCH_ISA_THUMB 2\000"
 14629      4D5F4152 
 14629      43485F49 
 14629      53415F54 
 14629      48554D42 
ARM GAS  /tmp/cceRHmPh.s 			page 395


 14630              	.LASF1260:
 14631 10680 4D5F4520 		.ascii	"M_E 2.7182818284590452354\000"
 14631      322E3731 
 14631      38323831 
 14631      38323834 
 14631      35393034 
 14632              	.LASF102:
 14633 1069a 5F5F5549 		.ascii	"__UINT32_MAX__ 0xffffffffUL\000"
 14633      4E543332 
 14633      5F4D4158 
 14633      5F5F2030 
 14633      78666666 
 14634              	.LASF1461:
 14635 106b6 464C4F41 		.ascii	"FLOAT_RMAT_VMULT(_vb,_m_a2b,_va) WARNING(\"FLOAT_RM"
 14635      545F524D 
 14635      41545F56 
 14635      4D554C54 
 14635      285F7662 
 14636 106e8 41545F56 		.ascii	"AT_VMULT macro is deprecated, use the lower case fu"
 14636      4D554C54 
 14636      206D6163 
 14636      726F2069 
 14636      73206465 
 14637 1071b 6E637469 		.ascii	"nction instead\") float_rmat_vmult(&(_vb), &(_m_a2b"
 14637      6F6E2069 
 14637      6E737465 
 14637      61642229 
 14637      20666C6F 
 14638 1074d 292C2026 		.ascii	"), &(_va))\000"
 14638      285F7661 
 14638      292900
 14639              	.LASF1210:
 14640 10758 5F5F5343 		.ascii	"__SCNPTR(x) __STRINGIFY(x)\000"
 14640      4E505452 
 14640      28782920 
 14640      5F5F5354 
 14640      52494E47 
 14641              	.LASF1406:
 14642 10773 4D415433 		.ascii	"MAT33_MAT33_DIFF(_mat1,_mat2,_mat3) { MAT33_ELMT((_"
 14642      335F4D41 
 14642      5433335F 
 14642      44494646 
 14642      285F6D61 
 14643 107a6 6D617431 		.ascii	"mat1),0,0) = MAT33_ELMT((_mat2),0,0)-MAT33_ELMT((_m"
 14643      292C302C 
 14643      3029203D 
 14643      204D4154 
 14643      33335F45 
 14644 107d9 61743329 		.ascii	"at3),0,0); MAT33_ELMT((_mat1),0,1) = MAT33_ELMT((_m"
 14644      2C302C30 
 14644      293B204D 
 14644      41543333 
 14644      5F454C4D 
 14645 1080c 61743229 		.ascii	"at2),0,1)-MAT33_ELMT((_mat3),0,1); MAT33_ELMT((_mat"
 14645      2C302C31 
 14645      292D4D41 
 14645      5433335F 
ARM GAS  /tmp/cceRHmPh.s 			page 396


 14645      454C4D54 
 14646 1083f 31292C30 		.ascii	"1),0,2) = MAT33_ELMT((_mat2),0,2)-MAT33_ELMT((_mat3"
 14646      2C322920 
 14646      3D204D41 
 14646      5433335F 
 14646      454C4D54 
 14647 10872 292C302C 		.ascii	"),0,2); MAT33_ELMT((_mat1),1,0) = MAT33_ELMT((_mat2"
 14647      32293B20 
 14647      4D415433 
 14647      335F454C 
 14647      4D542828 
 14648 108a5 292C312C 		.ascii	"),1,0)-MAT33_ELMT((_mat3),1,0); MAT33_ELMT((_mat1),"
 14648      30292D4D 
 14648      41543333 
 14648      5F454C4D 
 14648      5428285F 
 14649 108d8 312C3129 		.ascii	"1,1) = MAT33_ELMT((_mat2),1,1)-MAT33_ELMT((_mat3),1"
 14649      203D204D 
 14649      41543333 
 14649      5F454C4D 
 14649      5428285F 
 14650 1090b 2C31293B 		.ascii	",1); MAT33_ELMT((_mat1),1,2) = MAT33_ELMT((_mat2),1"
 14650      204D4154 
 14650      33335F45 
 14650      4C4D5428 
 14650      285F6D61 
 14651 1093e 2C32292D 		.ascii	",2)-MAT33_ELMT((_mat3),1,2); MAT33_ELMT((_mat1),2,0"
 14651      4D415433 
 14651      335F454C 
 14651      4D542828 
 14651      5F6D6174 
 14652 10971 29203D20 		.ascii	") = MAT33_ELMT((_mat2),2,0)-MAT33_ELMT((_mat3),2,0)"
 14652      4D415433 
 14652      335F454C 
 14652      4D542828 
 14652      5F6D6174 
 14653 109a4 3B204D41 		.ascii	"; MAT33_ELMT((_mat1),2,1) = MAT33_ELMT((_mat2),2,1)"
 14653      5433335F 
 14653      454C4D54 
 14653      28285F6D 
 14653      61743129 
 14654 109d7 2D4D4154 		.ascii	"-MAT33_ELMT((_mat3),2,1); MAT33_ELMT((_mat1),2,2) ="
 14654      33335F45 
 14654      4C4D5428 
 14654      285F6D61 
 14654      7433292C 
 14655 10a0a 204D4154 		.ascii	" MAT33_ELMT((_mat2),2,2)-MAT33_ELMT((_mat3),2,2); }"
 14655      33335F45 
 14655      4C4D5428 
 14655      285F6D61 
 14655      7432292C 
 14656 10a3d 00       		.ascii	"\000"
 14657              	.LASF739:
 14658 10a3e 5F5F4C4F 		.ascii	"__LOCK_INIT_RECURSIVE(class,lock) static int lock ="
 14658      434B5F49 
 14658      4E49545F 
 14658      52454355 
ARM GAS  /tmp/cceRHmPh.s 			page 397


 14658      52534956 
 14659 10a71 20303B00 		.ascii	" 0;\000"
 14660              	.LASF1567:
 14661 10a75 6D61785F 		.ascii	"max_iter\000"
 14661      69746572 
 14661      00
 14662              	.LASF7:
 14663 10a7e 5F5F474E 		.ascii	"__GNUC_PATCHLEVEL__ 1\000"
 14663      55435F50 
 14663      41544348 
 14663      4C455645 
 14663      4C5F5F20 
 14664              		.ident	"GCC: (15:10.3-2021.07-4) 10.3.1 20210621 (release)"
ARM GAS  /tmp/cceRHmPh.s 			page 398


DEFINED SYMBOLS
                            *ABS*:0000000000000000 pprz_geodetic_float.c
     /tmp/cceRHmPh.s:17     .text.ltp_def_from_ecef_f:0000000000000000 $t
     /tmp/cceRHmPh.s:26     .text.ltp_def_from_ecef_f:0000000000000000 ltp_def_from_ecef_f
     /tmp/cceRHmPh.s:1406   .text.lla_of_ecef_f:0000000000000000 lla_of_ecef_f
     /tmp/cceRHmPh.s:148    .text.ltp_def_from_lla_f:0000000000000000 $t
     /tmp/cceRHmPh.s:156    .text.ltp_def_from_lla_f:0000000000000000 ltp_def_from_lla_f
     /tmp/cceRHmPh.s:1937   .text.ecef_of_lla_f:0000000000000000 ecef_of_lla_f
     /tmp/cceRHmPh.s:277    .text.enu_of_ecef_point_f:0000000000000000 $t
     /tmp/cceRHmPh.s:285    .text.enu_of_ecef_point_f:0000000000000000 enu_of_ecef_point_f
     /tmp/cceRHmPh.s:375    .text.ned_of_ecef_point_f:0000000000000000 $t
     /tmp/cceRHmPh.s:383    .text.ned_of_ecef_point_f:0000000000000000 ned_of_ecef_point_f
     /tmp/cceRHmPh.s:424    .text.enu_of_ecef_vect_f:0000000000000000 $t
     /tmp/cceRHmPh.s:432    .text.enu_of_ecef_vect_f:0000000000000000 enu_of_ecef_vect_f
     /tmp/cceRHmPh.s:512    .text.ned_of_ecef_vect_f:0000000000000000 $t
     /tmp/cceRHmPh.s:520    .text.ned_of_ecef_vect_f:0000000000000000 ned_of_ecef_vect_f
     /tmp/cceRHmPh.s:561    .text.enu_of_lla_point_f:0000000000000000 $t
     /tmp/cceRHmPh.s:569    .text.enu_of_lla_point_f:0000000000000000 enu_of_lla_point_f
     /tmp/cceRHmPh.s:604    .text.ned_of_lla_point_f:0000000000000000 $t
     /tmp/cceRHmPh.s:612    .text.ned_of_lla_point_f:0000000000000000 ned_of_lla_point_f
     /tmp/cceRHmPh.s:651    .text.ecef_of_enu_point_f:0000000000000000 $t
     /tmp/cceRHmPh.s:659    .text.ecef_of_enu_point_f:0000000000000000 ecef_of_enu_point_f
     /tmp/cceRHmPh.s:982    .text.ecef_of_ned_point_f:0000000000000000 $t
     /tmp/cceRHmPh.s:990    .text.ecef_of_ned_point_f:0000000000000000 ecef_of_ned_point_f
     /tmp/cceRHmPh.s:1031   .text.ecef_of_enu_vect_f:0000000000000000 $t
     /tmp/cceRHmPh.s:1039   .text.ecef_of_enu_vect_f:0000000000000000 ecef_of_enu_vect_f
     /tmp/cceRHmPh.s:1347   .text.ecef_of_ned_vect_f:0000000000000000 $t
     /tmp/cceRHmPh.s:1355   .text.ecef_of_ned_vect_f:0000000000000000 ecef_of_ned_vect_f
     /tmp/cceRHmPh.s:1398   .text.lla_of_ecef_f:0000000000000000 $t
     /tmp/cceRHmPh.s:1801   .text.lla_of_ecef_f:00000000000003a0 $d
     /tmp/cceRHmPh.s:3318   .rodata.a.3:0000000000000000 a.3
     /tmp/cceRHmPh.s:3324   .rodata.f.2:0000000000000000 f.2
     /tmp/cceRHmPh.s:1807   .text.lla_of_ecef_f:00000000000003b4 $t
     /tmp/cceRHmPh.s:1924   .text.lla_of_ecef_f:00000000000004d0 $d
     /tmp/cceRHmPh.s:1929   .text.ecef_of_lla_f:0000000000000000 $t
     /tmp/cceRHmPh.s:2124   .text.ecef_of_lla_f:0000000000000180 $d
     /tmp/cceRHmPh.s:3330   .rodata.f.1:0000000000000000 f.1
     /tmp/cceRHmPh.s:3336   .rodata.a.0:0000000000000000 a.0
     /tmp/cceRHmPh.s:2131   .rodata.serie_coeff_proj_mercator:0000000000000000 $d
     /tmp/cceRHmPh.s:2134   .rodata.serie_coeff_proj_mercator:0000000000000000 serie_coeff_proj_mercator
     /tmp/cceRHmPh.s:2141   .rodata.serie_coeff_proj_mercator_inverse:0000000000000000 $d
     /tmp/cceRHmPh.s:2144   .rodata.serie_coeff_proj_mercator_inverse:0000000000000000 serie_coeff_proj_mercator_inverse
     /tmp/cceRHmPh.s:2151   .text.isometric_latitude_f:0000000000000000 $t
     /tmp/cceRHmPh.s:2158   .text.isometric_latitude_f:0000000000000000 isometric_latitude_f
     /tmp/cceRHmPh.s:2296   .text.isometric_latitude_f:0000000000000128 $d
     /tmp/cceRHmPh.s:2303   .text.isometric_latitude_fast_f:0000000000000000 $t
     /tmp/cceRHmPh.s:2310   .text.isometric_latitude_fast_f:0000000000000000 isometric_latitude_fast_f
     /tmp/cceRHmPh.s:2359   .text.isometric_latitude_fast_f:0000000000000058 $d
     /tmp/cceRHmPh.s:2365   .text.inverse_isometric_latitude_f:0000000000000000 $t
     /tmp/cceRHmPh.s:2372   .text.inverse_isometric_latitude_f:0000000000000000 inverse_isometric_latitude_f
     /tmp/cceRHmPh.s:2519   .text.inverse_isometric_latitude_f:0000000000000140 $d
     /tmp/cceRHmPh.s:2528   .text.utm_of_lla_f:0000000000000000 $t
     /tmp/cceRHmPh.s:2536   .text.utm_of_lla_f:0000000000000000 utm_of_lla_f
     /tmp/cceRHmPh.s:2690   .text.utm_of_lla_f:0000000000000150 $d
     /tmp/cceRHmPh.s:2702   .text.utm_of_lla_f:0000000000000174 $t
     /tmp/cceRHmPh.s:2936   .text.utm_of_lla_f:00000000000003d8 $d
     /tmp/cceRHmPh.s:2945   .text.lla_of_utm_f:0000000000000000 $t
ARM GAS  /tmp/cceRHmPh.s 			page 399


     /tmp/cceRHmPh.s:2953   .text.lla_of_utm_f:0000000000000000 lla_of_utm_f
     /tmp/cceRHmPh.s:3301   .text.lla_of_utm_f:0000000000000340 $d
     /tmp/cceRHmPh.s:3315   .rodata.a.3:0000000000000000 $d
     /tmp/cceRHmPh.s:3321   .rodata.f.2:0000000000000000 $d
     /tmp/cceRHmPh.s:3327   .rodata.f.1:0000000000000000 $d
     /tmp/cceRHmPh.s:3333   .rodata.a.0:0000000000000000 $d
                           .group:0000000000000000 wm4.0.2794bdaec8201ab6082bad9e2f5cd9ec
                           .group:0000000000000000 wm4.pprz_geodetic.h.35.f3fa96d246078502d67afc0af687adaf
                           .group:0000000000000000 wm4.float.h.29.cae0b78251c51e3ff449cb238a29ed5b
                           .group:0000000000000000 wm4._newlib_version.h.4.1ef4e12f167f8b69d7c30054be56050d
                           .group:0000000000000000 wm4.newlib.h.21.1ae2897bc09bbe4bc80ffb801fb02432
                           .group:0000000000000000 wm4.ieeefp.h.77.f33a4dce62116f6f5175ff8bae57a54c
                           .group:0000000000000000 wm4.features.h.22.026edb2397769f4ae13f35900dbdb560
                           .group:0000000000000000 wm4.config.h.224.c701144a7b0518c6ee9b9b5465b79f81
                           .group:0000000000000000 wm4._ansi.h.31.de524f58584151836e90d8620a16f8e8
                           .group:0000000000000000 wm4.stddef.h.39.27677723d43e5b5a7afdf8d798429f1d
                           .group:0000000000000000 wm4._types.h.20.dd0d04dca3800a0d2a6129b87f3adbb2
                           .group:0000000000000000 wm4.stddef.h.155.3588ebfdd1e8c7ede80509bb9c3b8009
                           .group:0000000000000000 wm4._default_types.h.6.959254cf5f09734ea7516c89e8bb21bd
                           .group:0000000000000000 wm4._types.h.127.34941de1b2539d59d5cac00e0dd27a45
                           .group:0000000000000000 wm4.reent.h.17.e292bf8b0bec6c96e131a54347145a30
                           .group:0000000000000000 wm4.lock.h.2.c0958401bd0ce484d507ee19aacab817
                           .group:0000000000000000 wm4.reent.h.77.dcd6129ff07fe81bd5636db29abe53b2
                           .group:0000000000000000 wm4.cdefs.h.49.3d0fe8ea14e93bda8c589d4f684b21b8
                           .group:0000000000000000 wm4.string.h.15.dab3980bf35408a4c507182805e2de3a
                           .group:0000000000000000 wm4.stddef.h.155.ba788add86a0e365f264484f110c3c29
                           .group:0000000000000000 wm4._intsup.h.10.48bafbb683905c4daa4565a85aeeb264
                           .group:0000000000000000 wm4.stdint.h.29.6d480f4ba0f60596e88234283d42444f
                           .group:0000000000000000 wm4.inttypes.h.28.c5f35ffa6c62f217ce23d4796ab1c6e6
                           .group:0000000000000000 wm4.stdbool.h.29.07dce69c3b78884144b7f7bd19483461
                           .group:0000000000000000 wm4.math.h.13.3407b0d71b4c439015d8928b0a2edca3
                           .group:0000000000000000 wm4.message_pragmas.h.2.19f9da639d3b857b5eedec0176791f43
                           .group:0000000000000000 wm4.std.h.41.98eaba0fe9afe518eab028a73a8ce0e2
                           .group:0000000000000000 wm4.pprz_algebra.h.48.e27d96e216b5b7bc59138cb613a0c51a
                           .group:0000000000000000 wm4.pprz_algebra_float.h.99.3ecbbede49507432559ec22e1139225e
                           .group:0000000000000000 wm4.pprz_algebra_double.h.32.7f91f703899e017f221f03c67eb8c9df
                           .group:0000000000000000 wm4.pprz_geodetic_utm.h.31.75931423081a7967d00585c8ad115843

UNDEFINED SYMBOLS
sinf
cosf
__aeabi_f2d
__aeabi_dmul
__aeabi_dadd
__aeabi_d2f
__aeabi_dsub
__aeabi_ddiv
sqrtf
powf
atanf
atan2f
tanf
logf
expf
__aeabi_d2uiz
__aeabi_i2d
floor
ARM GAS  /tmp/cceRHmPh.s 			page 400


coshf
asinf
sinhf
exp
