ARM GAS  /tmp/cceVa9lb.s 			page 1


   1              		.cpu cortex-m4
   2              		.eabi_attribute 27, 1
   3              		.eabi_attribute 20, 1
   4              		.eabi_attribute 21, 1
   5              		.eabi_attribute 23, 3
   6              		.eabi_attribute 24, 1
   7              		.eabi_attribute 25, 1
   8              		.eabi_attribute 26, 1
   9              		.eabi_attribute 30, 6
  10              		.eabi_attribute 34, 1
  11              		.eabi_attribute 18, 4
  12              		.file	"pprz_geodetic_double.c"
  13              		.text
  14              	.Ltext0:
  15              		.cfi_sections	.debug_frame
  16              		.global	__aeabi_dmul
  17              		.section	.text.ltp_def_from_ecef_d,"ax",%progbits
  18              		.align	1
  19              		.p2align 4,,15
  20              		.global	ltp_def_from_ecef_d
  21              		.arch armv7e-m
  22              		.syntax unified
  23              		.thumb
  24              		.thumb_func
  25              		.fpu fpv4-sp-d16
  26              		.type	ltp_def_from_ecef_d, %function
  27              	ltp_def_from_ecef_d:
  28              	.LFB52:
  29              		.file 1 "math/pprz_geodetic_double.c"
  30              		.loc 1 35 1
  31              		.cfi_startproc
  32              		@ args = 0, pretend = 0, frame = 48
  33              		@ frame_needed = 0, uses_anonymous_args = 0
  34 0000 F0B5     		push	{r4, r5, r6, r7, lr}
  35              		.cfi_def_cfa_offset 20
  36              		.cfi_offset 4, -20
  37              		.cfi_offset 5, -16
  38              		.cfi_offset 6, -12
  39              		.cfi_offset 7, -8
  40              		.cfi_offset 14, -4
  41 0002 8DB0     		sub	sp, sp, #52
  42              		.cfi_def_cfa_offset 72
  43 0004 0390     		str	r0, [sp, #12]
  44 0006 0291     		str	r1, [sp, #8]
  45              		.loc 1 37 3
  46 0008 029B     		ldr	r3, [sp, #8]
  47 000a D3E90023 		ldrd	r2, [r3]
  48 000e 0399     		ldr	r1, [sp, #12]
  49 0010 C1E90023 		strd	r2, [r1]
  50 0014 029B     		ldr	r3, [sp, #8]
  51 0016 D3E90223 		ldrd	r2, [r3, #8]
  52 001a 0399     		ldr	r1, [sp, #12]
  53 001c C1E90223 		strd	r2, [r1, #8]
  54 0020 029B     		ldr	r3, [sp, #8]
  55 0022 D3E90423 		ldrd	r2, [r3, #16]
  56 0026 0399     		ldr	r1, [sp, #12]
  57 0028 C1E90423 		strd	r2, [r1, #16]
ARM GAS  /tmp/cceVa9lb.s 			page 2


  58              		.loc 1 39 3
  59 002c 039B     		ldr	r3, [sp, #12]
  60 002e 1833     		adds	r3, r3, #24
  61 0030 039A     		ldr	r2, [sp, #12]
  62 0032 1146     		mov	r1, r2
  63 0034 1846     		mov	r0, r3
  64 0036 FFF7FEFF 		bl	lla_of_ecef_d
  65              		.loc 1 41 26
  66 003a 039B     		ldr	r3, [sp, #12]
  67 003c D3E90623 		ldrd	r2, [r3, #24]
  68 0040 1046     		mov	r0, r2
  69 0042 1946     		mov	r1, r3
  70 0044 FFF7FEFF 		bl	sin
  71 0048 CDE90A01 		strd	r0, [sp, #40]
  72              		.loc 1 42 26
  73 004c 039B     		ldr	r3, [sp, #12]
  74 004e D3E90623 		ldrd	r2, [r3, #24]
  75 0052 1046     		mov	r0, r2
  76 0054 1946     		mov	r1, r3
  77 0056 FFF7FEFF 		bl	cos
  78 005a CDE90801 		strd	r0, [sp, #32]
  79              		.loc 1 43 26
  80 005e 039B     		ldr	r3, [sp, #12]
  81 0060 D3E90823 		ldrd	r2, [r3, #32]
  82 0064 1046     		mov	r0, r2
  83 0066 1946     		mov	r1, r3
  84 0068 FFF7FEFF 		bl	sin
  85 006c CDE90601 		strd	r0, [sp, #24]
  86              		.loc 1 44 26
  87 0070 039B     		ldr	r3, [sp, #12]
  88 0072 D3E90823 		ldrd	r2, [r3, #32]
  89 0076 1046     		mov	r0, r2
  90 0078 1946     		mov	r1, r3
  91 007a FFF7FEFF 		bl	cos
  92 007e CDE90401 		strd	r0, [sp, #16]
  93              		.loc 1 45 27
  94 0082 069C     		ldr	r4, [sp, #24]
  95 0084 079B     		ldr	r3, [sp, #28]
  96 0086 83F00045 		eor	r5, r3, #-2147483648
  97              		.loc 1 45 25
  98 008a 039B     		ldr	r3, [sp, #12]
  99 008c C3E90C45 		strd	r4, [r3, #48]
 100              		.loc 1 46 25
 101 0090 0399     		ldr	r1, [sp, #12]
 102 0092 DDE90423 		ldrd	r2, [sp, #16]
 103 0096 C1E90E23 		strd	r2, [r1, #56]
 104              		.loc 1 47 25
 105 009a 0399     		ldr	r1, [sp, #12]
 106 009c 4FF00002 		mov	r2, #0
 107 00a0 4FF00003 		mov	r3, #0
 108 00a4 C1E91023 		strd	r2, [r1, #64]
 109              		.loc 1 48 27
 110 00a8 0A9B     		ldr	r3, [sp, #40]
 111 00aa 0093     		str	r3, [sp]
 112 00ac 0B9B     		ldr	r3, [sp, #44]
 113 00ae 83F00043 		eor	r3, r3, #-2147483648
 114 00b2 0193     		str	r3, [sp, #4]
ARM GAS  /tmp/cceVa9lb.s 			page 3


 115              		.loc 1 48 36
 116 00b4 DDE90423 		ldrd	r2, [sp, #16]
 117 00b8 DDE90001 		ldrd	r0, [sp]
 118 00bc FFF7FEFF 		bl	__aeabi_dmul
 119 00c0 0246     		mov	r2, r0
 120 00c2 0B46     		mov	r3, r1
 121              		.loc 1 48 25
 122 00c4 0399     		ldr	r1, [sp, #12]
 123 00c6 C1E91223 		strd	r2, [r1, #72]
 124              		.loc 1 49 27
 125 00ca 0A9E     		ldr	r6, [sp, #40]
 126 00cc 0B9B     		ldr	r3, [sp, #44]
 127 00ce 83F00047 		eor	r7, r3, #-2147483648
 128              		.loc 1 49 36
 129 00d2 DDE90623 		ldrd	r2, [sp, #24]
 130 00d6 3046     		mov	r0, r6
 131 00d8 3946     		mov	r1, r7
 132 00da FFF7FEFF 		bl	__aeabi_dmul
 133 00de 0246     		mov	r2, r0
 134 00e0 0B46     		mov	r3, r1
 135              		.loc 1 49 25
 136 00e2 0399     		ldr	r1, [sp, #12]
 137 00e4 C1E91423 		strd	r2, [r1, #80]
 138              		.loc 1 50 25
 139 00e8 0399     		ldr	r1, [sp, #12]
 140 00ea DDE90823 		ldrd	r2, [sp, #32]
 141 00ee C1E91623 		strd	r2, [r1, #88]
 142              		.loc 1 51 36
 143 00f2 DDE90423 		ldrd	r2, [sp, #16]
 144 00f6 DDE90801 		ldrd	r0, [sp, #32]
 145 00fa FFF7FEFF 		bl	__aeabi_dmul
 146 00fe 0246     		mov	r2, r0
 147 0100 0B46     		mov	r3, r1
 148              		.loc 1 51 25
 149 0102 0399     		ldr	r1, [sp, #12]
 150 0104 C1E91823 		strd	r2, [r1, #96]
 151              		.loc 1 52 36
 152 0108 DDE90623 		ldrd	r2, [sp, #24]
 153 010c DDE90801 		ldrd	r0, [sp, #32]
 154 0110 FFF7FEFF 		bl	__aeabi_dmul
 155 0114 0246     		mov	r2, r0
 156 0116 0B46     		mov	r3, r1
 157              		.loc 1 52 25
 158 0118 0399     		ldr	r1, [sp, #12]
 159 011a C1E91A23 		strd	r2, [r1, #104]
 160              		.loc 1 53 25
 161 011e 0399     		ldr	r1, [sp, #12]
 162 0120 DDE90A23 		ldrd	r2, [sp, #40]
 163 0124 C1E91C23 		strd	r2, [r1, #112]
 164              		.loc 1 55 1
 165 0128 00BF     		nop
 166 012a 0DB0     		add	sp, sp, #52
 167              		.cfi_def_cfa_offset 20
 168              		@ sp needed
 169 012c F0BD     		pop	{r4, r5, r6, r7, pc}
 170              		.cfi_endproc
 171              	.LFE52:
ARM GAS  /tmp/cceVa9lb.s 			page 4


 172              		.size	ltp_def_from_ecef_d, .-ltp_def_from_ecef_d
 173 012e 00BF     		.section	.text.ltp_def_from_lla_d,"ax",%progbits
 174              		.align	1
 175              		.p2align 4,,15
 176              		.global	ltp_def_from_lla_d
 177              		.syntax unified
 178              		.thumb
 179              		.thumb_func
 180              		.fpu fpv4-sp-d16
 181              		.type	ltp_def_from_lla_d, %function
 182              	ltp_def_from_lla_d:
 183              	.LFB53:
 184              		.loc 1 58 1
 185              		.cfi_startproc
 186              		@ args = 0, pretend = 0, frame = 48
 187              		@ frame_needed = 0, uses_anonymous_args = 0
 188 0000 F0B5     		push	{r4, r5, r6, r7, lr}
 189              		.cfi_def_cfa_offset 20
 190              		.cfi_offset 4, -20
 191              		.cfi_offset 5, -16
 192              		.cfi_offset 6, -12
 193              		.cfi_offset 7, -8
 194              		.cfi_offset 14, -4
 195 0002 8DB0     		sub	sp, sp, #52
 196              		.cfi_def_cfa_offset 72
 197 0004 0390     		str	r0, [sp, #12]
 198 0006 0291     		str	r1, [sp, #8]
 199              		.loc 1 60 3
 200 0008 029B     		ldr	r3, [sp, #8]
 201 000a D3E90023 		ldrd	r2, [r3]
 202 000e 0399     		ldr	r1, [sp, #12]
 203 0010 C1E90623 		strd	r2, [r1, #24]
 204 0014 029B     		ldr	r3, [sp, #8]
 205 0016 D3E90223 		ldrd	r2, [r3, #8]
 206 001a 0399     		ldr	r1, [sp, #12]
 207 001c C1E90823 		strd	r2, [r1, #32]
 208 0020 029B     		ldr	r3, [sp, #8]
 209 0022 D3E90423 		ldrd	r2, [r3, #16]
 210 0026 0399     		ldr	r1, [sp, #12]
 211 0028 C1E90A23 		strd	r2, [r1, #40]
 212              		.loc 1 62 3
 213 002c 039A     		ldr	r2, [sp, #12]
 214 002e 039B     		ldr	r3, [sp, #12]
 215 0030 1833     		adds	r3, r3, #24
 216 0032 1946     		mov	r1, r3
 217 0034 1046     		mov	r0, r2
 218 0036 FFF7FEFF 		bl	ecef_of_lla_d
 219              		.loc 1 65 26
 220 003a 039B     		ldr	r3, [sp, #12]
 221 003c D3E90623 		ldrd	r2, [r3, #24]
 222 0040 1046     		mov	r0, r2
 223 0042 1946     		mov	r1, r3
 224 0044 FFF7FEFF 		bl	sin
 225 0048 CDE90A01 		strd	r0, [sp, #40]
 226              		.loc 1 66 26
 227 004c 039B     		ldr	r3, [sp, #12]
 228 004e D3E90623 		ldrd	r2, [r3, #24]
ARM GAS  /tmp/cceVa9lb.s 			page 5


 229 0052 1046     		mov	r0, r2
 230 0054 1946     		mov	r1, r3
 231 0056 FFF7FEFF 		bl	cos
 232 005a CDE90801 		strd	r0, [sp, #32]
 233              		.loc 1 67 26
 234 005e 039B     		ldr	r3, [sp, #12]
 235 0060 D3E90823 		ldrd	r2, [r3, #32]
 236 0064 1046     		mov	r0, r2
 237 0066 1946     		mov	r1, r3
 238 0068 FFF7FEFF 		bl	sin
 239 006c CDE90601 		strd	r0, [sp, #24]
 240              		.loc 1 68 26
 241 0070 039B     		ldr	r3, [sp, #12]
 242 0072 D3E90823 		ldrd	r2, [r3, #32]
 243 0076 1046     		mov	r0, r2
 244 0078 1946     		mov	r1, r3
 245 007a FFF7FEFF 		bl	cos
 246 007e CDE90401 		strd	r0, [sp, #16]
 247              		.loc 1 70 27
 248 0082 069C     		ldr	r4, [sp, #24]
 249 0084 079B     		ldr	r3, [sp, #28]
 250 0086 83F00045 		eor	r5, r3, #-2147483648
 251              		.loc 1 70 25
 252 008a 039B     		ldr	r3, [sp, #12]
 253 008c C3E90C45 		strd	r4, [r3, #48]
 254              		.loc 1 71 25
 255 0090 0399     		ldr	r1, [sp, #12]
 256 0092 DDE90423 		ldrd	r2, [sp, #16]
 257 0096 C1E90E23 		strd	r2, [r1, #56]
 258              		.loc 1 73 25
 259 009a 0399     		ldr	r1, [sp, #12]
 260 009c 4FF00002 		mov	r2, #0
 261 00a0 4FF00003 		mov	r3, #0
 262 00a4 C1E91023 		strd	r2, [r1, #64]
 263              		.loc 1 74 27
 264 00a8 0A9B     		ldr	r3, [sp, #40]
 265 00aa 0093     		str	r3, [sp]
 266 00ac 0B9B     		ldr	r3, [sp, #44]
 267 00ae 83F00043 		eor	r3, r3, #-2147483648
 268 00b2 0193     		str	r3, [sp, #4]
 269              		.loc 1 74 36
 270 00b4 DDE90423 		ldrd	r2, [sp, #16]
 271 00b8 DDE90001 		ldrd	r0, [sp]
 272 00bc FFF7FEFF 		bl	__aeabi_dmul
 273 00c0 0246     		mov	r2, r0
 274 00c2 0B46     		mov	r3, r1
 275              		.loc 1 74 25
 276 00c4 0399     		ldr	r1, [sp, #12]
 277 00c6 C1E91223 		strd	r2, [r1, #72]
 278              		.loc 1 75 27
 279 00ca 0A9E     		ldr	r6, [sp, #40]
 280 00cc 0B9B     		ldr	r3, [sp, #44]
 281 00ce 83F00047 		eor	r7, r3, #-2147483648
 282              		.loc 1 75 36
 283 00d2 DDE90623 		ldrd	r2, [sp, #24]
 284 00d6 3046     		mov	r0, r6
 285 00d8 3946     		mov	r1, r7
ARM GAS  /tmp/cceVa9lb.s 			page 6


 286 00da FFF7FEFF 		bl	__aeabi_dmul
 287 00de 0246     		mov	r2, r0
 288 00e0 0B46     		mov	r3, r1
 289              		.loc 1 75 25
 290 00e2 0399     		ldr	r1, [sp, #12]
 291 00e4 C1E91423 		strd	r2, [r1, #80]
 292              		.loc 1 76 25
 293 00e8 0399     		ldr	r1, [sp, #12]
 294 00ea DDE90823 		ldrd	r2, [sp, #32]
 295 00ee C1E91623 		strd	r2, [r1, #88]
 296              		.loc 1 77 36
 297 00f2 DDE90423 		ldrd	r2, [sp, #16]
 298 00f6 DDE90801 		ldrd	r0, [sp, #32]
 299 00fa FFF7FEFF 		bl	__aeabi_dmul
 300 00fe 0246     		mov	r2, r0
 301 0100 0B46     		mov	r3, r1
 302              		.loc 1 77 25
 303 0102 0399     		ldr	r1, [sp, #12]
 304 0104 C1E91823 		strd	r2, [r1, #96]
 305              		.loc 1 78 36
 306 0108 DDE90623 		ldrd	r2, [sp, #24]
 307 010c DDE90801 		ldrd	r0, [sp, #32]
 308 0110 FFF7FEFF 		bl	__aeabi_dmul
 309 0114 0246     		mov	r2, r0
 310 0116 0B46     		mov	r3, r1
 311              		.loc 1 78 25
 312 0118 0399     		ldr	r1, [sp, #12]
 313 011a C1E91A23 		strd	r2, [r1, #104]
 314              		.loc 1 79 25
 315 011e 0399     		ldr	r1, [sp, #12]
 316 0120 DDE90A23 		ldrd	r2, [sp, #40]
 317 0124 C1E91C23 		strd	r2, [r1, #112]
 318              		.loc 1 80 1
 319 0128 00BF     		nop
 320 012a 0DB0     		add	sp, sp, #52
 321              		.cfi_def_cfa_offset 20
 322              		@ sp needed
 323 012c F0BD     		pop	{r4, r5, r6, r7, pc}
 324              		.cfi_endproc
 325              	.LFE53:
 326              		.size	ltp_def_from_lla_d, .-ltp_def_from_lla_d
 327              		.global	__aeabi_dsub
 328              		.global	__aeabi_dadd
 329              		.global	__aeabi_ddiv
 330 012e 00BF     		.section	.text.lla_of_ecef_d,"ax",%progbits
 331              		.align	1
 332              		.p2align 4,,15
 333              		.global	lla_of_ecef_d
 334              		.syntax unified
 335              		.thumb
 336              		.thumb_func
 337              		.fpu fpv4-sp-d16
 338              		.type	lla_of_ecef_d, %function
 339              	lla_of_ecef_d:
 340              	.LFB54:
 341              		.loc 1 84 1
 342              		.cfi_startproc
ARM GAS  /tmp/cceVa9lb.s 			page 7


 343              		@ args = 0, pretend = 0, frame = 168
 344              		@ frame_needed = 0, uses_anonymous_args = 0
 345 0000 2DE9F043 		push	{r4, r5, r6, r7, r8, r9, lr}
 346              		.cfi_def_cfa_offset 28
 347              		.cfi_offset 4, -28
 348              		.cfi_offset 5, -24
 349              		.cfi_offset 6, -20
 350              		.cfi_offset 7, -16
 351              		.cfi_offset 8, -12
 352              		.cfi_offset 9, -8
 353              		.cfi_offset 14, -4
 354 0004 ABB0     		sub	sp, sp, #172
 355              		.cfi_def_cfa_offset 200
 356 0006 0190     		str	r0, [sp, #4]
 357 0008 0091     		str	r1, [sp]
 358              		.loc 1 89 28
 359 000a BB4B     		ldr	r3, .L4+8
 360 000c D3E90023 		ldrd	r2, [r3]
 361 0010 4FF00000 		mov	r0, #0
 362 0014 B949     		ldr	r1, .L4+12
 363 0016 FFF7FEFF 		bl	__aeabi_dsub
 364 001a 0246     		mov	r2, r0
 365 001c 0B46     		mov	r3, r1
 366 001e 1046     		mov	r0, r2
 367 0020 1946     		mov	r1, r3
 368              		.loc 1 89 22
 369 0022 B74B     		ldr	r3, .L4+16
 370 0024 D3E90023 		ldrd	r2, [r3]
 371              		.loc 1 89 16
 372 0028 FFF7FEFF 		bl	__aeabi_dmul
 373 002c 0246     		mov	r2, r0
 374 002e 0B46     		mov	r3, r1
 375 0030 CDE92823 		strd	r2, [sp, #160]
 376              		.loc 1 90 16
 377 0034 DDE92823 		ldrd	r2, [sp, #160]
 378 0038 DDE92801 		ldrd	r0, [sp, #160]
 379 003c FFF7FEFF 		bl	__aeabi_dmul
 380 0040 0246     		mov	r2, r0
 381 0042 0B46     		mov	r3, r1
 382 0044 CDE92623 		strd	r2, [sp, #152]
 383              		.loc 1 92 23
 384 0048 AB4B     		ldr	r3, .L4+8
 385 004a D3E90001 		ldrd	r0, [r3]
 386 004e 0246     		mov	r2, r0
 387 0050 0B46     		mov	r3, r1
 388 0052 FFF7FEFF 		bl	__aeabi_dadd
 389 0056 0246     		mov	r2, r0
 390 0058 0B46     		mov	r3, r1
 391 005a 1646     		mov	r6, r2
 392 005c 1F46     		mov	r7, r3
 393              		.loc 1 92 31
 394 005e A64B     		ldr	r3, .L4+8
 395 0060 D3E90001 		ldrd	r0, [r3]
 396 0064 A44B     		ldr	r3, .L4+8
 397 0066 D3E90023 		ldrd	r2, [r3]
 398 006a FFF7FEFF 		bl	__aeabi_dmul
 399 006e 0246     		mov	r2, r0
ARM GAS  /tmp/cceVa9lb.s 			page 8


 400 0070 0B46     		mov	r3, r1
 401              		.loc 1 92 16
 402 0072 3046     		mov	r0, r6
 403 0074 3946     		mov	r1, r7
 404 0076 FFF7FEFF 		bl	__aeabi_dsub
 405 007a 0246     		mov	r2, r0
 406 007c 0B46     		mov	r3, r1
 407 007e CDE92423 		strd	r2, [sp, #144]
 408              		.loc 1 93 30
 409 0082 9D4B     		ldr	r3, .L4+8
 410 0084 D3E90023 		ldrd	r2, [r3]
 411 0088 4FF00000 		mov	r0, #0
 412 008c 4FF08041 		mov	r1, #1073741824
 413 0090 FFF7FEFF 		bl	__aeabi_dsub
 414 0094 0246     		mov	r2, r0
 415 0096 0B46     		mov	r3, r1
 416 0098 1046     		mov	r0, r2
 417 009a 1946     		mov	r1, r3
 418              		.loc 1 93 24
 419 009c 964B     		ldr	r3, .L4+8
 420 009e D3E90023 		ldrd	r2, [r3]
 421 00a2 FFF7FEFF 		bl	__aeabi_dmul
 422 00a6 0246     		mov	r2, r0
 423 00a8 0B46     		mov	r3, r1
 424 00aa 1646     		mov	r6, r2
 425 00ac 1F46     		mov	r7, r3
 426              		.loc 1 93 42
 427 00ae 924B     		ldr	r3, .L4+8
 428 00b0 D3E90023 		ldrd	r2, [r3]
 429 00b4 4FF00000 		mov	r0, #0
 430 00b8 9049     		ldr	r1, .L4+12
 431 00ba FFF7FEFF 		bl	__aeabi_dsub
 432 00be 0246     		mov	r2, r0
 433 00c0 0B46     		mov	r3, r1
 434 00c2 9046     		mov	r8, r2
 435 00c4 9946     		mov	r9, r3
 436              		.loc 1 93 53
 437 00c6 8C4B     		ldr	r3, .L4+8
 438 00c8 D3E90023 		ldrd	r2, [r3]
 439 00cc 4FF00000 		mov	r0, #0
 440 00d0 8A49     		ldr	r1, .L4+12
 441 00d2 FFF7FEFF 		bl	__aeabi_dsub
 442 00d6 0246     		mov	r2, r0
 443 00d8 0B46     		mov	r3, r1
 444              		.loc 1 93 47
 445 00da 4046     		mov	r0, r8
 446 00dc 4946     		mov	r1, r9
 447 00de FFF7FEFF 		bl	__aeabi_dmul
 448 00e2 0246     		mov	r2, r0
 449 00e4 0B46     		mov	r3, r1
 450              		.loc 1 93 16
 451 00e6 3046     		mov	r0, r6
 452 00e8 3946     		mov	r1, r7
 453 00ea FFF7FEFF 		bl	__aeabi_ddiv
 454 00ee 0246     		mov	r2, r0
 455 00f0 0B46     		mov	r3, r1
 456 00f2 CDE92223 		strd	r2, [sp, #136]
ARM GAS  /tmp/cceVa9lb.s 			page 9


 457              		.loc 1 94 23
 458 00f6 824B     		ldr	r3, .L4+16
 459 00f8 D3E90001 		ldrd	r0, [r3]
 460 00fc 804B     		ldr	r3, .L4+16
 461 00fe D3E90023 		ldrd	r2, [r3]
 462 0102 FFF7FEFF 		bl	__aeabi_dmul
 463 0106 0246     		mov	r2, r0
 464 0108 0B46     		mov	r3, r1
 465 010a 1046     		mov	r0, r2
 466 010c 1946     		mov	r1, r3
 467              		.loc 1 94 16
 468 010e DDE92623 		ldrd	r2, [sp, #152]
 469 0112 FFF7FEFF 		bl	__aeabi_dsub
 470 0116 0246     		mov	r2, r0
 471 0118 0B46     		mov	r3, r1
 472 011a CDE92023 		strd	r2, [sp, #128]
 473              		.loc 1 97 25
 474 011e 009B     		ldr	r3, [sp]
 475 0120 D3E90401 		ldrd	r0, [r3, #16]
 476              		.loc 1 97 35
 477 0124 009B     		ldr	r3, [sp]
 478 0126 D3E90423 		ldrd	r2, [r3, #16]
 479              		.loc 1 97 16
 480 012a FFF7FEFF 		bl	__aeabi_dmul
 481 012e 0246     		mov	r2, r0
 482 0130 0B46     		mov	r3, r1
 483 0132 CDE91E23 		strd	r2, [sp, #120]
 484              		.loc 1 98 25
 485 0136 009B     		ldr	r3, [sp]
 486 0138 D3E90001 		ldrd	r0, [r3]
 487              		.loc 1 98 35
 488 013c 009B     		ldr	r3, [sp]
 489 013e D3E90023 		ldrd	r2, [r3]
 490              		.loc 1 98 29
 491 0142 FFF7FEFF 		bl	__aeabi_dmul
 492 0146 0246     		mov	r2, r0
 493 0148 0B46     		mov	r3, r1
 494 014a 1646     		mov	r6, r2
 495 014c 1F46     		mov	r7, r3
 496              		.loc 1 98 45
 497 014e 009B     		ldr	r3, [sp]
 498 0150 D3E90201 		ldrd	r0, [r3, #8]
 499              		.loc 1 98 55
 500 0154 009B     		ldr	r3, [sp]
 501 0156 D3E90223 		ldrd	r2, [r3, #8]
 502              		.loc 1 98 49
 503 015a FFF7FEFF 		bl	__aeabi_dmul
 504 015e 0246     		mov	r2, r0
 505 0160 0B46     		mov	r3, r1
 506              		.loc 1 98 16
 507 0162 3046     		mov	r0, r6
 508 0164 3946     		mov	r1, r7
 509 0166 FFF7FEFF 		bl	__aeabi_dadd
 510 016a 0246     		mov	r2, r0
 511 016c 0B46     		mov	r3, r1
 512 016e CDE91C23 		strd	r2, [sp, #112]
 513              		.loc 1 99 20
ARM GAS  /tmp/cceVa9lb.s 			page 10


 514 0172 DDE91C01 		ldrd	r0, [sp, #112]
 515 0176 FFF7FEFF 		bl	sqrt
 516 017a CDE91A01 		strd	r0, [sp, #104]
 517              		.loc 1 100 23
 518 017e 4FF00002 		mov	r2, #0
 519 0182 604B     		ldr	r3, .L4+20
 520 0184 DDE92601 		ldrd	r0, [sp, #152]
 521 0188 FFF7FEFF 		bl	__aeabi_dmul
 522 018c 0246     		mov	r2, r0
 523 018e 0B46     		mov	r3, r1
 524              		.loc 1 100 16
 525 0190 DDE91E01 		ldrd	r0, [sp, #120]
 526 0194 FFF7FEFF 		bl	__aeabi_dmul
 527 0198 0246     		mov	r2, r0
 528 019a 0B46     		mov	r3, r1
 529 019c CDE91823 		strd	r2, [sp, #96]
 530              		.loc 1 101 28
 531 01a0 DDE92423 		ldrd	r2, [sp, #144]
 532 01a4 4FF00000 		mov	r0, #0
 533 01a8 5449     		ldr	r1, .L4+12
 534 01aa FFF7FEFF 		bl	__aeabi_dsub
 535 01ae 0246     		mov	r2, r0
 536 01b0 0B46     		mov	r3, r1
 537 01b2 1046     		mov	r0, r2
 538 01b4 1946     		mov	r1, r3
 539              		.loc 1 101 34
 540 01b6 DDE91E23 		ldrd	r2, [sp, #120]
 541 01ba FFF7FEFF 		bl	__aeabi_dmul
 542 01be 0246     		mov	r2, r0
 543 01c0 0B46     		mov	r3, r1
 544 01c2 1046     		mov	r0, r2
 545 01c4 1946     		mov	r1, r3
 546              		.loc 1 101 23
 547 01c6 DDE91C23 		ldrd	r2, [sp, #112]
 548 01ca FFF7FEFF 		bl	__aeabi_dadd
 549 01ce 0246     		mov	r2, r0
 550 01d0 0B46     		mov	r3, r1
 551 01d2 1646     		mov	r6, r2
 552 01d4 1F46     		mov	r7, r3
 553              		.loc 1 101 44
 554 01d6 DDE92023 		ldrd	r2, [sp, #128]
 555 01da DDE92401 		ldrd	r0, [sp, #144]
 556 01de FFF7FEFF 		bl	__aeabi_dmul
 557 01e2 0246     		mov	r2, r0
 558 01e4 0B46     		mov	r3, r1
 559              		.loc 1 101 16
 560 01e6 3046     		mov	r0, r6
 561 01e8 3946     		mov	r1, r7
 562 01ea FFF7FEFF 		bl	__aeabi_dsub
 563 01ee 0246     		mov	r2, r0
 564 01f0 0B46     		mov	r3, r1
 565 01f2 CDE91623 		strd	r2, [sp, #88]
 566              		.loc 1 102 24
 567 01f6 DDE92423 		ldrd	r2, [sp, #144]
 568 01fa DDE92401 		ldrd	r0, [sp, #144]
 569 01fe FFF7FEFF 		bl	__aeabi_dmul
 570 0202 0246     		mov	r2, r0
ARM GAS  /tmp/cceVa9lb.s 			page 11


 571 0204 0B46     		mov	r3, r1
 572 0206 1046     		mov	r0, r2
 573 0208 1946     		mov	r1, r3
 574              		.loc 1 102 29
 575 020a DDE91823 		ldrd	r2, [sp, #96]
 576 020e FFF7FEFF 		bl	__aeabi_dmul
 577 0212 0246     		mov	r2, r0
 578 0214 0B46     		mov	r3, r1
 579 0216 1046     		mov	r0, r2
 580 0218 1946     		mov	r1, r3
 581              		.loc 1 102 33
 582 021a DDE91C23 		ldrd	r2, [sp, #112]
 583 021e FFF7FEFF 		bl	__aeabi_dmul
 584 0222 0246     		mov	r2, r0
 585 0224 0B46     		mov	r3, r1
 586 0226 1646     		mov	r6, r2
 587 0228 1F46     		mov	r7, r3
 588              		.loc 1 102 44
 589 022a DDE91623 		ldrd	r2, [sp, #88]
 590 022e DDE91601 		ldrd	r0, [sp, #88]
 591 0232 FFF7FEFF 		bl	__aeabi_dmul
 592 0236 0246     		mov	r2, r0
 593 0238 0B46     		mov	r3, r1
 594 023a 1046     		mov	r0, r2
 595 023c 1946     		mov	r1, r3
 596              		.loc 1 102 48
 597 023e DDE91623 		ldrd	r2, [sp, #88]
 598 0242 FFF7FEFF 		bl	__aeabi_dmul
 599 0246 0246     		mov	r2, r0
 600 0248 0B46     		mov	r3, r1
 601              		.loc 1 102 16
 602 024a 3046     		mov	r0, r6
 603 024c 3946     		mov	r1, r7
 604 024e FFF7FEFF 		bl	__aeabi_ddiv
 605 0252 0246     		mov	r2, r0
 606 0254 0B46     		mov	r3, r1
 607 0256 CDE91423 		strd	r2, [sp, #80]
 608              		.loc 1 103 27
 609 025a 4FF00002 		mov	r2, #0
 610 025e 274B     		ldr	r3, .L4+12
 611 0260 DDE91401 		ldrd	r0, [sp, #80]
 612 0264 FFF7FEFF 		bl	__aeabi_dadd
 613 0268 0246     		mov	r2, r0
 614 026a 0B46     		mov	r3, r1
 615 026c 1646     		mov	r6, r2
 616 026e 1F46     		mov	r7, r3
 617              		.loc 1 103 40
 618 0270 DDE91423 		ldrd	r2, [sp, #80]
 619 0274 DDE91401 		ldrd	r0, [sp, #80]
 620 0278 FFF7FEFF 		bl	__aeabi_dmul
 621 027c 0246     		mov	r2, r0
 622 027e 0B46     		mov	r3, r1
 623 0280 9046     		mov	r8, r2
 624 0282 9946     		mov	r9, r3
 625              		.loc 1 103 48
 626 0284 DDE91401 		ldrd	r0, [sp, #80]
 627 0288 0246     		mov	r2, r0
ARM GAS  /tmp/cceVa9lb.s 			page 12


 628 028a 0B46     		mov	r3, r1
 629 028c FFF7FEFF 		bl	__aeabi_dadd
 630 0290 0246     		mov	r2, r0
 631 0292 0B46     		mov	r3, r1
 632              		.loc 1 103 33
 633 0294 4046     		mov	r0, r8
 634 0296 4946     		mov	r1, r9
 635 0298 FFF7FEFF 		bl	__aeabi_dadd
 636 029c 0246     		mov	r2, r0
 637 029e 0B46     		mov	r3, r1
 638 02a0 1046     		mov	r0, r2
 639 02a2 1946     		mov	r1, r3
 640 02a4 FFF7FEFF 		bl	sqrt
 641 02a8 0246     		mov	r2, r0
 642 02aa 0B46     		mov	r3, r1
 643              		.loc 1 103 20
 644 02ac 3046     		mov	r0, r6
 645 02ae 3946     		mov	r1, r7
 646 02b0 FFF7FEFF 		bl	__aeabi_dadd
 647 02b4 0246     		mov	r2, r0
 648 02b6 0B46     		mov	r3, r1
 649 02b8 1046     		mov	r0, r2
 650 02ba 1946     		mov	r1, r3
 651 02bc 0CA3     		adr	r3, .L4
 652 02be D3E90023 		ldrd	r2, [r3]
 653 02c2 FFF7FEFF 		bl	pow
 654 02c6 CDE91201 		strd	r0, [sp, #72]
 655              		.loc 1 104 23
 656 02ca 4FF00002 		mov	r2, #0
 657 02ce 0B4B     		ldr	r3, .L4+12
 658 02d0 DDE91201 		ldrd	r0, [sp, #72]
 659 02d4 FFF7FEFF 		bl	__aeabi_dadd
 660 02d8 0246     		mov	r2, r0
 661 02da 0B46     		mov	r3, r1
 662 02dc 1646     		mov	r6, r2
 663 02de 1F46     		mov	r7, r3
 664              		.loc 1 104 31
 665 02e0 DDE91223 		ldrd	r2, [sp, #72]
 666 02e4 4FF00000 		mov	r0, #0
 667 02e8 0449     		ldr	r1, .L4+12
 668 02ea FFF7FEFF 		bl	__aeabi_ddiv
 669 02ee 0BE0     		b	.L5
 670              	.L6:
 671              		.align	3
 672              	.L4:
 673 02f0 55555555 		.word	1431655765
 674 02f4 5555D53F 		.word	1070945621
 675 02f8 00000000 		.word	f.3
 676 02fc 0000F03F 		.word	1072693248
 677 0300 00000000 		.word	a.2
 678 0304 00004B40 		.word	1078657024
 679              	.L5:
 680 0308 0246     		mov	r2, r0
 681 030a 0B46     		mov	r3, r1
 682              		.loc 1 104 16
 683 030c 3046     		mov	r0, r6
 684 030e 3946     		mov	r1, r7
ARM GAS  /tmp/cceVa9lb.s 			page 13


 685 0310 FFF7FEFF 		bl	__aeabi_dadd
 686 0314 0246     		mov	r2, r0
 687 0316 0B46     		mov	r3, r1
 688 0318 CDE91023 		strd	r2, [sp, #64]
 689              		.loc 1 105 27
 690 031c 4FF00002 		mov	r2, #0
 691 0320 C54B     		ldr	r3, .L7
 692 0322 DDE91001 		ldrd	r0, [sp, #64]
 693 0326 FFF7FEFF 		bl	__aeabi_dmul
 694 032a 0246     		mov	r2, r0
 695 032c 0B46     		mov	r3, r1
 696 032e 1046     		mov	r0, r2
 697 0330 1946     		mov	r1, r3
 698              		.loc 1 105 32
 699 0332 DDE91023 		ldrd	r2, [sp, #64]
 700 0336 FFF7FEFF 		bl	__aeabi_dmul
 701 033a 0246     		mov	r2, r0
 702 033c 0B46     		mov	r3, r1
 703 033e 1046     		mov	r0, r2
 704 0340 1946     		mov	r1, r3
 705              		.loc 1 105 37
 706 0342 DDE91623 		ldrd	r2, [sp, #88]
 707 0346 FFF7FEFF 		bl	__aeabi_dmul
 708 034a 0246     		mov	r2, r0
 709 034c 0B46     		mov	r3, r1
 710 034e 1046     		mov	r0, r2
 711 0350 1946     		mov	r1, r3
 712              		.loc 1 105 41
 713 0352 DDE91623 		ldrd	r2, [sp, #88]
 714 0356 FFF7FEFF 		bl	__aeabi_dmul
 715 035a 0246     		mov	r2, r0
 716 035c 0B46     		mov	r3, r1
 717              		.loc 1 105 16
 718 035e DDE91801 		ldrd	r0, [sp, #96]
 719 0362 FFF7FEFF 		bl	__aeabi_ddiv
 720 0366 0246     		mov	r2, r0
 721 0368 0B46     		mov	r3, r1
 722 036a CDE90E23 		strd	r2, [sp, #56]
 723              		.loc 1 106 31
 724 036e DDE92401 		ldrd	r0, [sp, #144]
 725 0372 0246     		mov	r2, r0
 726 0374 0B46     		mov	r3, r1
 727 0376 FFF7FEFF 		bl	__aeabi_dadd
 728 037a 0246     		mov	r2, r0
 729 037c 0B46     		mov	r3, r1
 730 037e 1046     		mov	r0, r2
 731 0380 1946     		mov	r1, r3
 732              		.loc 1 106 36
 733 0382 DDE92423 		ldrd	r2, [sp, #144]
 734 0386 FFF7FEFF 		bl	__aeabi_dmul
 735 038a 0246     		mov	r2, r0
 736 038c 0B46     		mov	r3, r1
 737 038e 1046     		mov	r0, r2
 738 0390 1946     		mov	r1, r3
 739              		.loc 1 106 41
 740 0392 DDE90E23 		ldrd	r2, [sp, #56]
 741 0396 FFF7FEFF 		bl	__aeabi_dmul
ARM GAS  /tmp/cceVa9lb.s 			page 14


 742 039a 0246     		mov	r2, r0
 743 039c 0B46     		mov	r3, r1
 744 039e 1046     		mov	r0, r2
 745 03a0 1946     		mov	r1, r3
 746              		.loc 1 106 20
 747 03a2 4FF00002 		mov	r2, #0
 748 03a6 A54B     		ldr	r3, .L7+4
 749 03a8 FFF7FEFF 		bl	__aeabi_dadd
 750 03ac 0246     		mov	r2, r0
 751 03ae 0B46     		mov	r3, r1
 752 03b0 1046     		mov	r0, r2
 753 03b2 1946     		mov	r1, r3
 754 03b4 FFF7FEFF 		bl	sqrt
 755 03b8 CDE90C01 		strd	r0, [sp, #48]
 756              		.loc 1 107 26
 757 03bc DDE90E23 		ldrd	r2, [sp, #56]
 758 03c0 DDE92401 		ldrd	r0, [sp, #144]
 759 03c4 FFF7FEFF 		bl	__aeabi_dmul
 760 03c8 0246     		mov	r2, r0
 761 03ca 0B46     		mov	r3, r1
 762 03cc 1046     		mov	r0, r2
 763 03ce 1946     		mov	r1, r3
 764              		.loc 1 107 30
 765 03d0 DDE91A23 		ldrd	r2, [sp, #104]
 766 03d4 FFF7FEFF 		bl	__aeabi_dmul
 767 03d8 0246     		mov	r2, r0
 768 03da 0B46     		mov	r3, r1
 769              		.loc 1 107 21
 770 03dc 1446     		mov	r4, r2
 771 03de 83F00045 		eor	r5, r3, #-2147483648
 772              		.loc 1 107 40
 773 03e2 4FF00002 		mov	r2, #0
 774 03e6 954B     		ldr	r3, .L7+4
 775 03e8 DDE90C01 		ldrd	r0, [sp, #48]
 776 03ec FFF7FEFF 		bl	__aeabi_dadd
 777 03f0 0246     		mov	r2, r0
 778 03f2 0B46     		mov	r3, r1
 779              		.loc 1 107 35
 780 03f4 2046     		mov	r0, r4
 781 03f6 2946     		mov	r1, r5
 782 03f8 FFF7FEFF 		bl	__aeabi_ddiv
 783 03fc 0246     		mov	r2, r0
 784 03fe 0B46     		mov	r3, r1
 785 0400 1446     		mov	r4, r2
 786 0402 1D46     		mov	r5, r3
 787              		.loc 1 107 55
 788 0404 8E4B     		ldr	r3, .L7+8
 789 0406 D3E90001 		ldrd	r0, [r3]
 790 040a 8D4B     		ldr	r3, .L7+8
 791 040c D3E90023 		ldrd	r2, [r3]
 792 0410 FFF7FEFF 		bl	__aeabi_dmul
 793 0414 0246     		mov	r2, r0
 794 0416 0B46     		mov	r3, r1
 795 0418 1046     		mov	r0, r2
 796 041a 1946     		mov	r1, r3
 797              		.loc 1 107 59
 798 041c 4FF00002 		mov	r2, #0
ARM GAS  /tmp/cceVa9lb.s 			page 15


 799 0420 4FF08043 		mov	r3, #1073741824
 800 0424 FFF7FEFF 		bl	__aeabi_ddiv
 801 0428 0246     		mov	r2, r0
 802 042a 0B46     		mov	r3, r1
 803 042c 1646     		mov	r6, r2
 804 042e 1F46     		mov	r7, r3
 805              		.loc 1 107 73
 806 0430 DDE90C23 		ldrd	r2, [sp, #48]
 807 0434 4FF00000 		mov	r0, #0
 808 0438 8049     		ldr	r1, .L7+4
 809 043a FFF7FEFF 		bl	__aeabi_ddiv
 810 043e 0246     		mov	r2, r0
 811 0440 0B46     		mov	r3, r1
 812 0442 1046     		mov	r0, r2
 813 0444 1946     		mov	r1, r3
 814              		.loc 1 107 69
 815 0446 4FF00002 		mov	r2, #0
 816 044a 7C4B     		ldr	r3, .L7+4
 817 044c FFF7FEFF 		bl	__aeabi_dadd
 818 0450 0246     		mov	r2, r0
 819 0452 0B46     		mov	r3, r1
 820              		.loc 1 107 64
 821 0454 3046     		mov	r0, r6
 822 0456 3946     		mov	r1, r7
 823 0458 FFF7FEFF 		bl	__aeabi_dmul
 824 045c 0246     		mov	r2, r0
 825 045e 0B46     		mov	r3, r1
 826 0460 1646     		mov	r6, r2
 827 0462 1F46     		mov	r7, r3
 828              		.loc 1 107 84
 829 0464 DDE92423 		ldrd	r2, [sp, #144]
 830 0468 4FF00000 		mov	r0, #0
 831 046c 7349     		ldr	r1, .L7+4
 832 046e FFF7FEFF 		bl	__aeabi_dsub
 833 0472 0246     		mov	r2, r0
 834 0474 0B46     		mov	r3, r1
 835 0476 1046     		mov	r0, r2
 836 0478 1946     		mov	r1, r3
 837              		.loc 1 107 90
 838 047a DDE90E23 		ldrd	r2, [sp, #56]
 839 047e FFF7FEFF 		bl	__aeabi_dmul
 840 0482 0246     		mov	r2, r0
 841 0484 0B46     		mov	r3, r1
 842 0486 1046     		mov	r0, r2
 843 0488 1946     		mov	r1, r3
 844              		.loc 1 107 94
 845 048a DDE91E23 		ldrd	r2, [sp, #120]
 846 048e FFF7FEFF 		bl	__aeabi_dmul
 847 0492 0246     		mov	r2, r0
 848 0494 0B46     		mov	r3, r1
 849 0496 9046     		mov	r8, r2
 850 0498 9946     		mov	r9, r3
 851              		.loc 1 108 24
 852 049a 4FF00002 		mov	r2, #0
 853 049e 674B     		ldr	r3, .L7+4
 854 04a0 DDE90C01 		ldrd	r0, [sp, #48]
 855 04a4 FFF7FEFF 		bl	__aeabi_dadd
ARM GAS  /tmp/cceVa9lb.s 			page 16


 856 04a8 0246     		mov	r2, r0
 857 04aa 0B46     		mov	r3, r1
 858 04ac 1046     		mov	r0, r2
 859 04ae 1946     		mov	r1, r3
 860              		.loc 1 107 105
 861 04b0 DDE90C23 		ldrd	r2, [sp, #48]
 862 04b4 FFF7FEFF 		bl	__aeabi_dmul
 863 04b8 0246     		mov	r2, r0
 864 04ba 0B46     		mov	r3, r1
 865              		.loc 1 107 100
 866 04bc 4046     		mov	r0, r8
 867 04be 4946     		mov	r1, r9
 868 04c0 FFF7FEFF 		bl	__aeabi_ddiv
 869 04c4 0246     		mov	r2, r0
 870 04c6 0B46     		mov	r3, r1
 871              		.loc 1 107 78
 872 04c8 3046     		mov	r0, r6
 873 04ca 3946     		mov	r1, r7
 874 04cc FFF7FEFF 		bl	__aeabi_dsub
 875 04d0 0246     		mov	r2, r0
 876 04d2 0B46     		mov	r3, r1
 877 04d4 1646     		mov	r6, r2
 878 04d6 1F46     		mov	r7, r3
 879              		.loc 1 108 34
 880 04d8 DDE91C23 		ldrd	r2, [sp, #112]
 881 04dc DDE90E01 		ldrd	r0, [sp, #56]
 882 04e0 FFF7FEFF 		bl	__aeabi_dmul
 883 04e4 0246     		mov	r2, r0
 884 04e6 0B46     		mov	r3, r1
 885 04e8 1046     		mov	r0, r2
 886 04ea 1946     		mov	r1, r3
 887              		.loc 1 108 39
 888 04ec 4FF00002 		mov	r2, #0
 889 04f0 4FF08043 		mov	r3, #1073741824
 890 04f4 FFF7FEFF 		bl	__aeabi_ddiv
 891 04f8 0246     		mov	r2, r0
 892 04fa 0B46     		mov	r3, r1
 893              		.loc 1 107 47
 894 04fc 3046     		mov	r0, r6
 895 04fe 3946     		mov	r1, r7
 896 0500 FFF7FEFF 		bl	__aeabi_dsub
 897 0504 0246     		mov	r2, r0
 898 0506 0B46     		mov	r3, r1
 899 0508 1046     		mov	r0, r2
 900 050a 1946     		mov	r1, r3
 901 050c FFF7FEFF 		bl	sqrt
 902 0510 0246     		mov	r2, r0
 903 0512 0B46     		mov	r3, r1
 904              		.loc 1 107 16
 905 0514 2046     		mov	r0, r4
 906 0516 2946     		mov	r1, r5
 907 0518 FFF7FEFF 		bl	__aeabi_dadd
 908 051c 0246     		mov	r2, r0
 909 051e 0B46     		mov	r3, r1
 910 0520 CDE90A23 		strd	r2, [sp, #40]
 911              		.loc 1 109 30
 912 0524 DDE90A23 		ldrd	r2, [sp, #40]
ARM GAS  /tmp/cceVa9lb.s 			page 17


 913 0528 DDE92401 		ldrd	r0, [sp, #144]
 914 052c FFF7FEFF 		bl	__aeabi_dmul
 915 0530 0246     		mov	r2, r0
 916 0532 0B46     		mov	r3, r1
 917              		.loc 1 109 25
 918 0534 DDE91A01 		ldrd	r0, [sp, #104]
 919 0538 FFF7FEFF 		bl	__aeabi_dsub
 920 053c 0246     		mov	r2, r0
 921 053e 0B46     		mov	r3, r1
 922 0540 1446     		mov	r4, r2
 923 0542 1D46     		mov	r5, r3
 924              		.loc 1 109 46
 925 0544 DDE90A23 		ldrd	r2, [sp, #40]
 926 0548 DDE92401 		ldrd	r0, [sp, #144]
 927 054c FFF7FEFF 		bl	__aeabi_dmul
 928 0550 0246     		mov	r2, r0
 929 0552 0B46     		mov	r3, r1
 930              		.loc 1 109 41
 931 0554 DDE91A01 		ldrd	r0, [sp, #104]
 932 0558 FFF7FEFF 		bl	__aeabi_dsub
 933 055c 0246     		mov	r2, r0
 934 055e 0B46     		mov	r3, r1
 935              		.loc 1 109 16
 936 0560 2046     		mov	r0, r4
 937 0562 2946     		mov	r1, r5
 938 0564 FFF7FEFF 		bl	__aeabi_dmul
 939 0568 0246     		mov	r2, r0
 940 056a 0B46     		mov	r3, r1
 941 056c CDE90823 		strd	r2, [sp, #32]
 942              		.loc 1 110 20
 943 0570 DDE91E23 		ldrd	r2, [sp, #120]
 944 0574 DDE90801 		ldrd	r0, [sp, #32]
 945 0578 FFF7FEFF 		bl	__aeabi_dadd
 946 057c 0246     		mov	r2, r0
 947 057e 0B46     		mov	r3, r1
 948 0580 1046     		mov	r0, r2
 949 0582 1946     		mov	r1, r3
 950 0584 FFF7FEFF 		bl	sqrt
 951 0588 CDE90601 		strd	r0, [sp, #24]
 952              		.loc 1 111 34
 953 058c DDE92423 		ldrd	r2, [sp, #144]
 954 0590 4FF00000 		mov	r0, #0
 955 0594 2949     		ldr	r1, .L7+4
 956 0596 FFF7FEFF 		bl	__aeabi_dsub
 957 059a 0246     		mov	r2, r0
 958 059c 0B46     		mov	r3, r1
 959 059e 1046     		mov	r0, r2
 960 05a0 1946     		mov	r1, r3
 961              		.loc 1 111 40
 962 05a2 DDE91E23 		ldrd	r2, [sp, #120]
 963 05a6 FFF7FEFF 		bl	__aeabi_dmul
 964 05aa 0246     		mov	r2, r0
 965 05ac 0B46     		mov	r3, r1
 966 05ae 1046     		mov	r0, r2
 967 05b0 1946     		mov	r1, r3
 968              		.loc 1 111 20
 969 05b2 DDE90823 		ldrd	r2, [sp, #32]
ARM GAS  /tmp/cceVa9lb.s 			page 18


 970 05b6 FFF7FEFF 		bl	__aeabi_dadd
 971 05ba 0246     		mov	r2, r0
 972 05bc 0B46     		mov	r3, r1
 973 05be 1046     		mov	r0, r2
 974 05c0 1946     		mov	r1, r3
 975 05c2 FFF7FEFF 		bl	sqrt
 976 05c6 CDE90401 		strd	r0, [sp, #16]
 977              		.loc 1 112 31
 978 05ca 009B     		ldr	r3, [sp]
 979 05cc D3E90401 		ldrd	r0, [r3, #16]
 980              		.loc 1 112 25
 981 05d0 DDE92623 		ldrd	r2, [sp, #152]
 982 05d4 FFF7FEFF 		bl	__aeabi_dmul
 983 05d8 0246     		mov	r2, r0
 984 05da 0B46     		mov	r3, r1
 985 05dc 1446     		mov	r4, r2
 986 05de 1D46     		mov	r5, r3
 987              		.loc 1 112 41
 988 05e0 174B     		ldr	r3, .L7+8
 989 05e2 D3E90001 		ldrd	r0, [r3]
 990 05e6 DDE90423 		ldrd	r2, [sp, #16]
 991 05ea FFF7FEFF 		bl	__aeabi_dmul
 992 05ee 0246     		mov	r2, r0
 993 05f0 0B46     		mov	r3, r1
 994              		.loc 1 112 16
 995 05f2 2046     		mov	r0, r4
 996 05f4 2946     		mov	r1, r5
 997 05f6 FFF7FEFF 		bl	__aeabi_ddiv
 998 05fa 0246     		mov	r2, r0
 999 05fc 0B46     		mov	r3, r1
 1000 05fe CDE90223 		strd	r2, [sp, #8]
 1001              		.loc 1 114 31
 1002 0602 0F4B     		ldr	r3, .L7+8
 1003 0604 D3E90001 		ldrd	r0, [r3]
 1004 0608 DDE90423 		ldrd	r2, [sp, #16]
 1005 060c FFF7FEFF 		bl	__aeabi_dmul
 1006 0610 0246     		mov	r2, r0
 1007 0612 0B46     		mov	r3, r1
 1008              		.loc 1 114 26
 1009 0614 DDE92601 		ldrd	r0, [sp, #152]
 1010 0618 FFF7FEFF 		bl	__aeabi_ddiv
 1011 061c 0246     		mov	r2, r0
 1012 061e 0B46     		mov	r3, r1
 1013              		.loc 1 114 21
 1014 0620 4FF00000 		mov	r0, #0
 1015 0624 0549     		ldr	r1, .L7+4
 1016 0626 FFF7FEFF 		bl	__aeabi_dsub
 1017 062a 0246     		mov	r2, r0
 1018 062c 0B46     		mov	r3, r1
 1019 062e 1046     		mov	r0, r2
 1020 0630 1946     		mov	r1, r3
 1021              		.loc 1 114 16
 1022 0632 DDE90623 		ldrd	r2, [sp, #24]
 1023 0636 05E0     		b	.L8
 1024              	.L9:
 1025              		.align	2
 1026              	.L7:
ARM GAS  /tmp/cceVa9lb.s 			page 19


 1027 0638 00000840 		.word	1074266112
 1028 063c 0000F03F 		.word	1072693248
 1029 0640 00000000 		.word	a.2
 1030              	.L8:
 1031 0644 FFF7FEFF 		bl	__aeabi_dmul
 1032 0648 0246     		mov	r2, r0
 1033 064a 0B46     		mov	r3, r1
 1034              		.loc 1 114 12
 1035 064c 0199     		ldr	r1, [sp, #4]
 1036 064e C1E90423 		strd	r2, [r1, #16]
 1037              		.loc 1 115 24
 1038 0652 009B     		ldr	r3, [sp]
 1039 0654 D3E90445 		ldrd	r4, [r3, #16]
 1040              		.loc 1 115 34
 1041 0658 DDE90223 		ldrd	r2, [sp, #8]
 1042 065c DDE92201 		ldrd	r0, [sp, #136]
 1043 0660 FFF7FEFF 		bl	__aeabi_dmul
 1044 0664 0246     		mov	r2, r0
 1045 0666 0B46     		mov	r3, r1
 1046              		.loc 1 115 28
 1047 0668 2046     		mov	r0, r4
 1048 066a 2946     		mov	r1, r5
 1049 066c FFF7FEFF 		bl	__aeabi_dadd
 1050 0670 0246     		mov	r2, r0
 1051 0672 0B46     		mov	r3, r1
 1052 0674 1046     		mov	r0, r2
 1053 0676 1946     		mov	r1, r3
 1054              		.loc 1 115 14
 1055 0678 DDE91A23 		ldrd	r2, [sp, #104]
 1056 067c FFF7FEFF 		bl	__aeabi_ddiv
 1057 0680 0246     		mov	r2, r0
 1058 0682 0B46     		mov	r3, r1
 1059 0684 1046     		mov	r0, r2
 1060 0686 1946     		mov	r1, r3
 1061 0688 FFF7FEFF 		bl	atan
 1062 068c 0246     		mov	r2, r0
 1063 068e 0B46     		mov	r3, r1
 1064              		.loc 1 115 12
 1065 0690 0199     		ldr	r1, [sp, #4]
 1066 0692 C1E90023 		strd	r2, [r1]
 1067              		.loc 1 116 14
 1068 0696 009B     		ldr	r3, [sp]
 1069 0698 D3E90201 		ldrd	r0, [r3, #8]
 1070 069c 009B     		ldr	r3, [sp]
 1071 069e D3E90023 		ldrd	r2, [r3]
 1072 06a2 FFF7FEFF 		bl	atan2
 1073 06a6 0246     		mov	r2, r0
 1074 06a8 0B46     		mov	r3, r1
 1075              		.loc 1 116 12
 1076 06aa 0199     		ldr	r1, [sp, #4]
 1077 06ac C1E90223 		strd	r2, [r1, #8]
 1078              		.loc 1 118 1
 1079 06b0 00BF     		nop
 1080 06b2 2BB0     		add	sp, sp, #172
 1081              		.cfi_def_cfa_offset 28
 1082              		@ sp needed
 1083 06b4 BDE8F083 		pop	{r4, r5, r6, r7, r8, r9, pc}
ARM GAS  /tmp/cceVa9lb.s 			page 20


 1084              		.cfi_endproc
 1085              	.LFE54:
 1086              		.size	lla_of_ecef_d, .-lla_of_ecef_d
 1087              		.section	.text.ecef_of_lla_d,"ax",%progbits
 1088              		.align	1
 1089              		.p2align 4,,15
 1090              		.global	ecef_of_lla_d
 1091              		.syntax unified
 1092              		.thumb
 1093              		.thumb_func
 1094              		.fpu fpv4-sp-d16
 1095              		.type	ecef_of_lla_d, %function
 1096              	ecef_of_lla_d:
 1097              	.LFB55:
 1098              		.loc 1 121 1
 1099              		.cfi_startproc
 1100              		@ args = 0, pretend = 0, frame = 64
 1101              		@ frame_needed = 0, uses_anonymous_args = 0
 1102 0000 30B5     		push	{r4, r5, lr}
 1103              		.cfi_def_cfa_offset 12
 1104              		.cfi_offset 4, -12
 1105              		.cfi_offset 5, -8
 1106              		.cfi_offset 14, -4
 1107 0002 91B0     		sub	sp, sp, #68
 1108              		.cfi_def_cfa_offset 80
 1109 0004 0190     		str	r0, [sp, #4]
 1110 0006 0091     		str	r1, [sp]
 1111              		.loc 1 126 23
 1112 0008 644B     		ldr	r3, .L11
 1113 000a D3E90001 		ldrd	r0, [r3]
 1114 000e 0246     		mov	r2, r0
 1115 0010 0B46     		mov	r3, r1
 1116 0012 FFF7FEFF 		bl	__aeabi_dadd
 1117 0016 0246     		mov	r2, r0
 1118 0018 0B46     		mov	r3, r1
 1119 001a 1446     		mov	r4, r2
 1120 001c 1D46     		mov	r5, r3
 1121              		.loc 1 126 31
 1122 001e 5F4B     		ldr	r3, .L11
 1123 0020 D3E90001 		ldrd	r0, [r3]
 1124 0024 5D4B     		ldr	r3, .L11
 1125 0026 D3E90023 		ldrd	r2, [r3]
 1126 002a FFF7FEFF 		bl	__aeabi_dmul
 1127 002e 0246     		mov	r2, r0
 1128 0030 0B46     		mov	r3, r1
 1129              		.loc 1 126 16
 1130 0032 2046     		mov	r0, r4
 1131 0034 2946     		mov	r1, r5
 1132 0036 FFF7FEFF 		bl	__aeabi_dsub
 1133 003a 0246     		mov	r2, r0
 1134 003c 0B46     		mov	r3, r1
 1135 003e CDE90E23 		strd	r2, [sp, #56]
 1136              		.loc 1 128 26
 1137 0042 009B     		ldr	r3, [sp]
 1138 0044 D3E90023 		ldrd	r2, [r3]
 1139 0048 1046     		mov	r0, r2
 1140 004a 1946     		mov	r1, r3
ARM GAS  /tmp/cceVa9lb.s 			page 21


 1141 004c FFF7FEFF 		bl	sin
 1142 0050 CDE90C01 		strd	r0, [sp, #48]
 1143              		.loc 1 129 26
 1144 0054 009B     		ldr	r3, [sp]
 1145 0056 D3E90023 		ldrd	r2, [r3]
 1146 005a 1046     		mov	r0, r2
 1147 005c 1946     		mov	r1, r3
 1148 005e FFF7FEFF 		bl	cos
 1149 0062 CDE90A01 		strd	r0, [sp, #40]
 1150              		.loc 1 130 26
 1151 0066 009B     		ldr	r3, [sp]
 1152 0068 D3E90223 		ldrd	r2, [r3, #8]
 1153 006c 1046     		mov	r0, r2
 1154 006e 1946     		mov	r1, r3
 1155 0070 FFF7FEFF 		bl	sin
 1156 0074 CDE90801 		strd	r0, [sp, #32]
 1157              		.loc 1 131 26
 1158 0078 009B     		ldr	r3, [sp]
 1159 007a D3E90223 		ldrd	r2, [r3, #8]
 1160 007e 1046     		mov	r0, r2
 1161 0080 1946     		mov	r1, r3
 1162 0082 FFF7FEFF 		bl	cos
 1163 0086 CDE90601 		strd	r0, [sp, #24]
 1164              		.loc 1 132 35
 1165 008a DDE90C23 		ldrd	r2, [sp, #48]
 1166 008e DDE90E01 		ldrd	r0, [sp, #56]
 1167 0092 FFF7FEFF 		bl	__aeabi_dmul
 1168 0096 0246     		mov	r2, r0
 1169 0098 0B46     		mov	r3, r1
 1170 009a 1046     		mov	r0, r2
 1171 009c 1946     		mov	r1, r3
 1172              		.loc 1 132 45
 1173 009e DDE90C23 		ldrd	r2, [sp, #48]
 1174 00a2 FFF7FEFF 		bl	__aeabi_dmul
 1175 00a6 0246     		mov	r2, r0
 1176 00a8 0B46     		mov	r3, r1
 1177              		.loc 1 132 22
 1178 00aa 4FF00000 		mov	r0, #0
 1179 00ae 3C49     		ldr	r1, .L11+4
 1180 00b0 FFF7FEFF 		bl	__aeabi_dsub
 1181 00b4 0246     		mov	r2, r0
 1182 00b6 0B46     		mov	r3, r1
 1183 00b8 1046     		mov	r0, r2
 1184 00ba 1946     		mov	r1, r3
 1185 00bc FFF7FEFF 		bl	sqrt
 1186 00c0 CDE90401 		strd	r0, [sp, #16]
 1187              		.loc 1 133 26
 1188 00c4 374B     		ldr	r3, .L11+8
 1189 00c6 D3E90001 		ldrd	r0, [r3]
 1190              		.loc 1 133 16
 1191 00ca DDE90423 		ldrd	r2, [sp, #16]
 1192 00ce FFF7FEFF 		bl	__aeabi_ddiv
 1193 00d2 0246     		mov	r2, r0
 1194 00d4 0B46     		mov	r3, r1
 1195 00d6 CDE90223 		strd	r2, [sp, #8]
 1196              		.loc 1 135 25
 1197 00da 009B     		ldr	r3, [sp]
ARM GAS  /tmp/cceVa9lb.s 			page 22


 1198 00dc D3E90401 		ldrd	r0, [r3, #16]
 1199              		.loc 1 135 20
 1200 00e0 DDE90223 		ldrd	r2, [sp, #8]
 1201 00e4 FFF7FEFF 		bl	__aeabi_dadd
 1202 00e8 0246     		mov	r2, r0
 1203 00ea 0B46     		mov	r3, r1
 1204 00ec 1046     		mov	r0, r2
 1205 00ee 1946     		mov	r1, r3
 1206              		.loc 1 135 32
 1207 00f0 DDE90A23 		ldrd	r2, [sp, #40]
 1208 00f4 FFF7FEFF 		bl	__aeabi_dmul
 1209 00f8 0246     		mov	r2, r0
 1210 00fa 0B46     		mov	r3, r1
 1211 00fc 1046     		mov	r0, r2
 1212 00fe 1946     		mov	r1, r3
 1213              		.loc 1 135 42
 1214 0100 DDE90623 		ldrd	r2, [sp, #24]
 1215 0104 FFF7FEFF 		bl	__aeabi_dmul
 1216 0108 0246     		mov	r2, r0
 1217 010a 0B46     		mov	r3, r1
 1218              		.loc 1 135 11
 1219 010c 0199     		ldr	r1, [sp, #4]
 1220 010e C1E90023 		strd	r2, [r1]
 1221              		.loc 1 136 25
 1222 0112 009B     		ldr	r3, [sp]
 1223 0114 D3E90401 		ldrd	r0, [r3, #16]
 1224              		.loc 1 136 20
 1225 0118 DDE90223 		ldrd	r2, [sp, #8]
 1226 011c FFF7FEFF 		bl	__aeabi_dadd
 1227 0120 0246     		mov	r2, r0
 1228 0122 0B46     		mov	r3, r1
 1229 0124 1046     		mov	r0, r2
 1230 0126 1946     		mov	r1, r3
 1231              		.loc 1 136 32
 1232 0128 DDE90A23 		ldrd	r2, [sp, #40]
 1233 012c FFF7FEFF 		bl	__aeabi_dmul
 1234 0130 0246     		mov	r2, r0
 1235 0132 0B46     		mov	r3, r1
 1236 0134 1046     		mov	r0, r2
 1237 0136 1946     		mov	r1, r3
 1238              		.loc 1 136 42
 1239 0138 DDE90823 		ldrd	r2, [sp, #32]
 1240 013c FFF7FEFF 		bl	__aeabi_dmul
 1241 0140 0246     		mov	r2, r0
 1242 0142 0B46     		mov	r3, r1
 1243              		.loc 1 136 11
 1244 0144 0199     		ldr	r1, [sp, #4]
 1245 0146 C1E90223 		strd	r2, [r1, #8]
 1246              		.loc 1 137 26
 1247 014a DDE90E23 		ldrd	r2, [sp, #56]
 1248 014e 4FF00000 		mov	r0, #0
 1249 0152 1349     		ldr	r1, .L11+4
 1250 0154 FFF7FEFF 		bl	__aeabi_dsub
 1251 0158 0246     		mov	r2, r0
 1252 015a 0B46     		mov	r3, r1
 1253 015c 1046     		mov	r0, r2
 1254 015e 1946     		mov	r1, r3
ARM GAS  /tmp/cceVa9lb.s 			page 23


 1255              		.loc 1 137 20
 1256 0160 DDE90223 		ldrd	r2, [sp, #8]
 1257 0164 FFF7FEFF 		bl	__aeabi_dmul
 1258 0168 0246     		mov	r2, r0
 1259 016a 0B46     		mov	r3, r1
 1260 016c 1046     		mov	r0, r2
 1261 016e 1946     		mov	r1, r3
 1262              		.loc 1 137 37
 1263 0170 009B     		ldr	r3, [sp]
 1264 0172 D3E90423 		ldrd	r2, [r3, #16]
 1265              		.loc 1 137 32
 1266 0176 FFF7FEFF 		bl	__aeabi_dadd
 1267 017a 0246     		mov	r2, r0
 1268 017c 0B46     		mov	r3, r1
 1269 017e 1046     		mov	r0, r2
 1270 0180 1946     		mov	r1, r3
 1271              		.loc 1 137 44
 1272 0182 DDE90C23 		ldrd	r2, [sp, #48]
 1273 0186 FFF7FEFF 		bl	__aeabi_dmul
 1274 018a 0246     		mov	r2, r0
 1275 018c 0B46     		mov	r3, r1
 1276              		.loc 1 137 11
 1277 018e 0199     		ldr	r1, [sp, #4]
 1278 0190 C1E90423 		strd	r2, [r1, #16]
 1279              		.loc 1 138 1
 1280 0194 00BF     		nop
 1281 0196 11B0     		add	sp, sp, #68
 1282              		.cfi_def_cfa_offset 12
 1283              		@ sp needed
 1284 0198 30BD     		pop	{r4, r5, pc}
 1285              	.L12:
 1286 019a 00BF     		.align	2
 1287              	.L11:
 1288 019c 00000000 		.word	f.1
 1289 01a0 0000F03F 		.word	1072693248
 1290 01a4 00000000 		.word	a.0
 1291              		.cfi_endproc
 1292              	.LFE55:
 1293              		.size	ecef_of_lla_d, .-ecef_of_lla_d
 1294              		.section	.text.enu_of_ecef_point_d,"ax",%progbits
 1295              		.align	1
 1296              		.p2align 4,,15
 1297              		.global	enu_of_ecef_point_d
 1298              		.syntax unified
 1299              		.thumb
 1300              		.thumb_func
 1301              		.fpu fpv4-sp-d16
 1302              		.type	enu_of_ecef_point_d, %function
 1303              	enu_of_ecef_point_d:
 1304              	.LFB56:
 1305              		.loc 1 141 1
 1306              		.cfi_startproc
 1307              		@ args = 0, pretend = 0, frame = 40
 1308              		@ frame_needed = 0, uses_anonymous_args = 0
 1309 0000 30B5     		push	{r4, r5, lr}
 1310              		.cfi_def_cfa_offset 12
 1311              		.cfi_offset 4, -12
ARM GAS  /tmp/cceVa9lb.s 			page 24


 1312              		.cfi_offset 5, -8
 1313              		.cfi_offset 14, -4
 1314 0002 8BB0     		sub	sp, sp, #44
 1315              		.cfi_def_cfa_offset 56
 1316 0004 0390     		str	r0, [sp, #12]
 1317 0006 0291     		str	r1, [sp, #8]
 1318 0008 0192     		str	r2, [sp, #4]
 1319              		.loc 1 143 3
 1320 000a 019B     		ldr	r3, [sp, #4]
 1321 000c D3E90001 		ldrd	r0, [r3]
 1322 0010 029B     		ldr	r3, [sp, #8]
 1323 0012 D3E90023 		ldrd	r2, [r3]
 1324 0016 FFF7FEFF 		bl	__aeabi_dsub
 1325 001a 0246     		mov	r2, r0
 1326 001c 0B46     		mov	r3, r1
 1327 001e CDE90423 		strd	r2, [sp, #16]
 1328 0022 019B     		ldr	r3, [sp, #4]
 1329 0024 D3E90201 		ldrd	r0, [r3, #8]
 1330 0028 029B     		ldr	r3, [sp, #8]
 1331 002a D3E90223 		ldrd	r2, [r3, #8]
 1332 002e FFF7FEFF 		bl	__aeabi_dsub
 1333 0032 0246     		mov	r2, r0
 1334 0034 0B46     		mov	r3, r1
 1335 0036 CDE90623 		strd	r2, [sp, #24]
 1336 003a 019B     		ldr	r3, [sp, #4]
 1337 003c D3E90401 		ldrd	r0, [r3, #16]
 1338 0040 029B     		ldr	r3, [sp, #8]
 1339 0042 D3E90423 		ldrd	r2, [r3, #16]
 1340 0046 FFF7FEFF 		bl	__aeabi_dsub
 1341 004a 0246     		mov	r2, r0
 1342 004c 0B46     		mov	r3, r1
 1343 004e CDE90823 		strd	r2, [sp, #32]
 1344              		.loc 1 144 3
 1345 0052 029B     		ldr	r3, [sp, #8]
 1346 0054 D3E90C01 		ldrd	r0, [r3, #48]
 1347 0058 DDE90423 		ldrd	r2, [sp, #16]
 1348 005c FFF7FEFF 		bl	__aeabi_dmul
 1349 0060 0246     		mov	r2, r0
 1350 0062 0B46     		mov	r3, r1
 1351 0064 1446     		mov	r4, r2
 1352 0066 1D46     		mov	r5, r3
 1353 0068 029B     		ldr	r3, [sp, #8]
 1354 006a D3E90E01 		ldrd	r0, [r3, #56]
 1355 006e DDE90623 		ldrd	r2, [sp, #24]
 1356 0072 FFF7FEFF 		bl	__aeabi_dmul
 1357 0076 0246     		mov	r2, r0
 1358 0078 0B46     		mov	r3, r1
 1359 007a 2046     		mov	r0, r4
 1360 007c 2946     		mov	r1, r5
 1361 007e FFF7FEFF 		bl	__aeabi_dadd
 1362 0082 0246     		mov	r2, r0
 1363 0084 0B46     		mov	r3, r1
 1364 0086 1446     		mov	r4, r2
 1365 0088 1D46     		mov	r5, r3
 1366 008a 029B     		ldr	r3, [sp, #8]
 1367 008c D3E91001 		ldrd	r0, [r3, #64]
 1368 0090 DDE90823 		ldrd	r2, [sp, #32]
ARM GAS  /tmp/cceVa9lb.s 			page 25


 1369 0094 FFF7FEFF 		bl	__aeabi_dmul
 1370 0098 0246     		mov	r2, r0
 1371 009a 0B46     		mov	r3, r1
 1372 009c 2046     		mov	r0, r4
 1373 009e 2946     		mov	r1, r5
 1374 00a0 FFF7FEFF 		bl	__aeabi_dadd
 1375 00a4 0246     		mov	r2, r0
 1376 00a6 0B46     		mov	r3, r1
 1377 00a8 0399     		ldr	r1, [sp, #12]
 1378 00aa C1E90023 		strd	r2, [r1]
 1379 00ae 029B     		ldr	r3, [sp, #8]
 1380 00b0 D3E91201 		ldrd	r0, [r3, #72]
 1381 00b4 DDE90423 		ldrd	r2, [sp, #16]
 1382 00b8 FFF7FEFF 		bl	__aeabi_dmul
 1383 00bc 0246     		mov	r2, r0
 1384 00be 0B46     		mov	r3, r1
 1385 00c0 1446     		mov	r4, r2
 1386 00c2 1D46     		mov	r5, r3
 1387 00c4 029B     		ldr	r3, [sp, #8]
 1388 00c6 D3E91401 		ldrd	r0, [r3, #80]
 1389 00ca DDE90623 		ldrd	r2, [sp, #24]
 1390 00ce FFF7FEFF 		bl	__aeabi_dmul
 1391 00d2 0246     		mov	r2, r0
 1392 00d4 0B46     		mov	r3, r1
 1393 00d6 2046     		mov	r0, r4
 1394 00d8 2946     		mov	r1, r5
 1395 00da FFF7FEFF 		bl	__aeabi_dadd
 1396 00de 0246     		mov	r2, r0
 1397 00e0 0B46     		mov	r3, r1
 1398 00e2 1446     		mov	r4, r2
 1399 00e4 1D46     		mov	r5, r3
 1400 00e6 029B     		ldr	r3, [sp, #8]
 1401 00e8 D3E91601 		ldrd	r0, [r3, #88]
 1402 00ec DDE90823 		ldrd	r2, [sp, #32]
 1403 00f0 FFF7FEFF 		bl	__aeabi_dmul
 1404 00f4 0246     		mov	r2, r0
 1405 00f6 0B46     		mov	r3, r1
 1406 00f8 2046     		mov	r0, r4
 1407 00fa 2946     		mov	r1, r5
 1408 00fc FFF7FEFF 		bl	__aeabi_dadd
 1409 0100 0246     		mov	r2, r0
 1410 0102 0B46     		mov	r3, r1
 1411 0104 0399     		ldr	r1, [sp, #12]
 1412 0106 C1E90223 		strd	r2, [r1, #8]
 1413 010a 029B     		ldr	r3, [sp, #8]
 1414 010c D3E91801 		ldrd	r0, [r3, #96]
 1415 0110 DDE90423 		ldrd	r2, [sp, #16]
 1416 0114 FFF7FEFF 		bl	__aeabi_dmul
 1417 0118 0246     		mov	r2, r0
 1418 011a 0B46     		mov	r3, r1
 1419 011c 1446     		mov	r4, r2
 1420 011e 1D46     		mov	r5, r3
 1421 0120 029B     		ldr	r3, [sp, #8]
 1422 0122 D3E91A01 		ldrd	r0, [r3, #104]
 1423 0126 DDE90623 		ldrd	r2, [sp, #24]
 1424 012a FFF7FEFF 		bl	__aeabi_dmul
 1425 012e 0246     		mov	r2, r0
ARM GAS  /tmp/cceVa9lb.s 			page 26


 1426 0130 0B46     		mov	r3, r1
 1427 0132 2046     		mov	r0, r4
 1428 0134 2946     		mov	r1, r5
 1429 0136 FFF7FEFF 		bl	__aeabi_dadd
 1430 013a 0246     		mov	r2, r0
 1431 013c 0B46     		mov	r3, r1
 1432 013e 1446     		mov	r4, r2
 1433 0140 1D46     		mov	r5, r3
 1434 0142 029B     		ldr	r3, [sp, #8]
 1435 0144 D3E91C01 		ldrd	r0, [r3, #112]
 1436 0148 DDE90823 		ldrd	r2, [sp, #32]
 1437 014c FFF7FEFF 		bl	__aeabi_dmul
 1438 0150 0246     		mov	r2, r0
 1439 0152 0B46     		mov	r3, r1
 1440 0154 2046     		mov	r0, r4
 1441 0156 2946     		mov	r1, r5
 1442 0158 FFF7FEFF 		bl	__aeabi_dadd
 1443 015c 0246     		mov	r2, r0
 1444 015e 0B46     		mov	r3, r1
 1445 0160 0399     		ldr	r1, [sp, #12]
 1446 0162 C1E90423 		strd	r2, [r1, #16]
 1447              		.loc 1 145 1
 1448 0166 00BF     		nop
 1449 0168 0BB0     		add	sp, sp, #44
 1450              		.cfi_def_cfa_offset 12
 1451              		@ sp needed
 1452 016a 30BD     		pop	{r4, r5, pc}
 1453              		.cfi_endproc
 1454              	.LFE56:
 1455              		.size	enu_of_ecef_point_d, .-enu_of_ecef_point_d
 1456              		.section	.text.ned_of_ecef_point_d,"ax",%progbits
 1457              		.align	1
 1458              		.p2align 4,,15
 1459              		.global	ned_of_ecef_point_d
 1460              		.syntax unified
 1461              		.thumb
 1462              		.thumb_func
 1463              		.fpu fpv4-sp-d16
 1464              		.type	ned_of_ecef_point_d, %function
 1465              	ned_of_ecef_point_d:
 1466              	.LFB57:
 1467              		.loc 1 148 1
 1468              		.cfi_startproc
 1469              		@ args = 0, pretend = 0, frame = 40
 1470              		@ frame_needed = 0, uses_anonymous_args = 0
 1471 0000 30B5     		push	{r4, r5, lr}
 1472              		.cfi_def_cfa_offset 12
 1473              		.cfi_offset 4, -12
 1474              		.cfi_offset 5, -8
 1475              		.cfi_offset 14, -4
 1476 0002 8BB0     		sub	sp, sp, #44
 1477              		.cfi_def_cfa_offset 56
 1478 0004 0390     		str	r0, [sp, #12]
 1479 0006 0291     		str	r1, [sp, #8]
 1480 0008 0192     		str	r2, [sp, #4]
 1481              		.loc 1 150 3
 1482 000a 04AB     		add	r3, sp, #16
ARM GAS  /tmp/cceVa9lb.s 			page 27


 1483 000c 019A     		ldr	r2, [sp, #4]
 1484 000e 0299     		ldr	r1, [sp, #8]
 1485 0010 1846     		mov	r0, r3
 1486 0012 FFF7FEFF 		bl	enu_of_ecef_point_d
 1487              		.loc 1 151 3
 1488 0016 DDE90623 		ldrd	r2, [sp, #24]
 1489 001a 0399     		ldr	r1, [sp, #12]
 1490 001c C1E90023 		strd	r2, [r1]
 1491 0020 DDE90423 		ldrd	r2, [sp, #16]
 1492 0024 0399     		ldr	r1, [sp, #12]
 1493 0026 C1E90223 		strd	r2, [r1, #8]
 1494 002a DDE90823 		ldrd	r2, [sp, #32]
 1495 002e 1446     		mov	r4, r2
 1496 0030 83F00045 		eor	r5, r3, #-2147483648
 1497 0034 039B     		ldr	r3, [sp, #12]
 1498 0036 C3E90445 		strd	r4, [r3, #16]
 1499              		.loc 1 152 1
 1500 003a 00BF     		nop
 1501 003c 0BB0     		add	sp, sp, #44
 1502              		.cfi_def_cfa_offset 12
 1503              		@ sp needed
 1504 003e 30BD     		pop	{r4, r5, pc}
 1505              		.cfi_endproc
 1506              	.LFE57:
 1507              		.size	ned_of_ecef_point_d, .-ned_of_ecef_point_d
 1508              		.section	.text.enu_of_ecef_vect_d,"ax",%progbits
 1509              		.align	1
 1510              		.p2align 4,,15
 1511              		.global	enu_of_ecef_vect_d
 1512              		.syntax unified
 1513              		.thumb
 1514              		.thumb_func
 1515              		.fpu fpv4-sp-d16
 1516              		.type	enu_of_ecef_vect_d, %function
 1517              	enu_of_ecef_vect_d:
 1518              	.LFB58:
 1519              		.loc 1 155 1
 1520              		.cfi_startproc
 1521              		@ args = 0, pretend = 0, frame = 16
 1522              		@ frame_needed = 0, uses_anonymous_args = 0
 1523 0000 30B5     		push	{r4, r5, lr}
 1524              		.cfi_def_cfa_offset 12
 1525              		.cfi_offset 4, -12
 1526              		.cfi_offset 5, -8
 1527              		.cfi_offset 14, -4
 1528 0002 85B0     		sub	sp, sp, #20
 1529              		.cfi_def_cfa_offset 32
 1530 0004 0390     		str	r0, [sp, #12]
 1531 0006 0291     		str	r1, [sp, #8]
 1532 0008 0192     		str	r2, [sp, #4]
 1533              		.loc 1 156 3
 1534 000a 029B     		ldr	r3, [sp, #8]
 1535 000c D3E90C01 		ldrd	r0, [r3, #48]
 1536 0010 019B     		ldr	r3, [sp, #4]
 1537 0012 D3E90023 		ldrd	r2, [r3]
 1538 0016 FFF7FEFF 		bl	__aeabi_dmul
 1539 001a 0246     		mov	r2, r0
ARM GAS  /tmp/cceVa9lb.s 			page 28


 1540 001c 0B46     		mov	r3, r1
 1541 001e 1446     		mov	r4, r2
 1542 0020 1D46     		mov	r5, r3
 1543 0022 029B     		ldr	r3, [sp, #8]
 1544 0024 D3E90E01 		ldrd	r0, [r3, #56]
 1545 0028 019B     		ldr	r3, [sp, #4]
 1546 002a D3E90223 		ldrd	r2, [r3, #8]
 1547 002e FFF7FEFF 		bl	__aeabi_dmul
 1548 0032 0246     		mov	r2, r0
 1549 0034 0B46     		mov	r3, r1
 1550 0036 2046     		mov	r0, r4
 1551 0038 2946     		mov	r1, r5
 1552 003a FFF7FEFF 		bl	__aeabi_dadd
 1553 003e 0246     		mov	r2, r0
 1554 0040 0B46     		mov	r3, r1
 1555 0042 1446     		mov	r4, r2
 1556 0044 1D46     		mov	r5, r3
 1557 0046 029B     		ldr	r3, [sp, #8]
 1558 0048 D3E91001 		ldrd	r0, [r3, #64]
 1559 004c 019B     		ldr	r3, [sp, #4]
 1560 004e D3E90423 		ldrd	r2, [r3, #16]
 1561 0052 FFF7FEFF 		bl	__aeabi_dmul
 1562 0056 0246     		mov	r2, r0
 1563 0058 0B46     		mov	r3, r1
 1564 005a 2046     		mov	r0, r4
 1565 005c 2946     		mov	r1, r5
 1566 005e FFF7FEFF 		bl	__aeabi_dadd
 1567 0062 0246     		mov	r2, r0
 1568 0064 0B46     		mov	r3, r1
 1569 0066 0399     		ldr	r1, [sp, #12]
 1570 0068 C1E90023 		strd	r2, [r1]
 1571 006c 029B     		ldr	r3, [sp, #8]
 1572 006e D3E91201 		ldrd	r0, [r3, #72]
 1573 0072 019B     		ldr	r3, [sp, #4]
 1574 0074 D3E90023 		ldrd	r2, [r3]
 1575 0078 FFF7FEFF 		bl	__aeabi_dmul
 1576 007c 0246     		mov	r2, r0
 1577 007e 0B46     		mov	r3, r1
 1578 0080 1446     		mov	r4, r2
 1579 0082 1D46     		mov	r5, r3
 1580 0084 029B     		ldr	r3, [sp, #8]
 1581 0086 D3E91401 		ldrd	r0, [r3, #80]
 1582 008a 019B     		ldr	r3, [sp, #4]
 1583 008c D3E90223 		ldrd	r2, [r3, #8]
 1584 0090 FFF7FEFF 		bl	__aeabi_dmul
 1585 0094 0246     		mov	r2, r0
 1586 0096 0B46     		mov	r3, r1
 1587 0098 2046     		mov	r0, r4
 1588 009a 2946     		mov	r1, r5
 1589 009c FFF7FEFF 		bl	__aeabi_dadd
 1590 00a0 0246     		mov	r2, r0
 1591 00a2 0B46     		mov	r3, r1
 1592 00a4 1446     		mov	r4, r2
 1593 00a6 1D46     		mov	r5, r3
 1594 00a8 029B     		ldr	r3, [sp, #8]
 1595 00aa D3E91601 		ldrd	r0, [r3, #88]
 1596 00ae 019B     		ldr	r3, [sp, #4]
ARM GAS  /tmp/cceVa9lb.s 			page 29


 1597 00b0 D3E90423 		ldrd	r2, [r3, #16]
 1598 00b4 FFF7FEFF 		bl	__aeabi_dmul
 1599 00b8 0246     		mov	r2, r0
 1600 00ba 0B46     		mov	r3, r1
 1601 00bc 2046     		mov	r0, r4
 1602 00be 2946     		mov	r1, r5
 1603 00c0 FFF7FEFF 		bl	__aeabi_dadd
 1604 00c4 0246     		mov	r2, r0
 1605 00c6 0B46     		mov	r3, r1
 1606 00c8 0399     		ldr	r1, [sp, #12]
 1607 00ca C1E90223 		strd	r2, [r1, #8]
 1608 00ce 029B     		ldr	r3, [sp, #8]
 1609 00d0 D3E91801 		ldrd	r0, [r3, #96]
 1610 00d4 019B     		ldr	r3, [sp, #4]
 1611 00d6 D3E90023 		ldrd	r2, [r3]
 1612 00da FFF7FEFF 		bl	__aeabi_dmul
 1613 00de 0246     		mov	r2, r0
 1614 00e0 0B46     		mov	r3, r1
 1615 00e2 1446     		mov	r4, r2
 1616 00e4 1D46     		mov	r5, r3
 1617 00e6 029B     		ldr	r3, [sp, #8]
 1618 00e8 D3E91A01 		ldrd	r0, [r3, #104]
 1619 00ec 019B     		ldr	r3, [sp, #4]
 1620 00ee D3E90223 		ldrd	r2, [r3, #8]
 1621 00f2 FFF7FEFF 		bl	__aeabi_dmul
 1622 00f6 0246     		mov	r2, r0
 1623 00f8 0B46     		mov	r3, r1
 1624 00fa 2046     		mov	r0, r4
 1625 00fc 2946     		mov	r1, r5
 1626 00fe FFF7FEFF 		bl	__aeabi_dadd
 1627 0102 0246     		mov	r2, r0
 1628 0104 0B46     		mov	r3, r1
 1629 0106 1446     		mov	r4, r2
 1630 0108 1D46     		mov	r5, r3
 1631 010a 029B     		ldr	r3, [sp, #8]
 1632 010c D3E91C01 		ldrd	r0, [r3, #112]
 1633 0110 019B     		ldr	r3, [sp, #4]
 1634 0112 D3E90423 		ldrd	r2, [r3, #16]
 1635 0116 FFF7FEFF 		bl	__aeabi_dmul
 1636 011a 0246     		mov	r2, r0
 1637 011c 0B46     		mov	r3, r1
 1638 011e 2046     		mov	r0, r4
 1639 0120 2946     		mov	r1, r5
 1640 0122 FFF7FEFF 		bl	__aeabi_dadd
 1641 0126 0246     		mov	r2, r0
 1642 0128 0B46     		mov	r3, r1
 1643 012a 0399     		ldr	r1, [sp, #12]
 1644 012c C1E90423 		strd	r2, [r1, #16]
 1645              		.loc 1 157 1
 1646 0130 00BF     		nop
 1647 0132 05B0     		add	sp, sp, #20
 1648              		.cfi_def_cfa_offset 12
 1649              		@ sp needed
 1650 0134 30BD     		pop	{r4, r5, pc}
 1651              		.cfi_endproc
 1652              	.LFE58:
 1653              		.size	enu_of_ecef_vect_d, .-enu_of_ecef_vect_d
ARM GAS  /tmp/cceVa9lb.s 			page 30


 1654 0136 00BF     		.section	.text.ned_of_ecef_vect_d,"ax",%progbits
 1655              		.align	1
 1656              		.p2align 4,,15
 1657              		.global	ned_of_ecef_vect_d
 1658              		.syntax unified
 1659              		.thumb
 1660              		.thumb_func
 1661              		.fpu fpv4-sp-d16
 1662              		.type	ned_of_ecef_vect_d, %function
 1663              	ned_of_ecef_vect_d:
 1664              	.LFB59:
 1665              		.loc 1 160 1
 1666              		.cfi_startproc
 1667              		@ args = 0, pretend = 0, frame = 40
 1668              		@ frame_needed = 0, uses_anonymous_args = 0
 1669 0000 30B5     		push	{r4, r5, lr}
 1670              		.cfi_def_cfa_offset 12
 1671              		.cfi_offset 4, -12
 1672              		.cfi_offset 5, -8
 1673              		.cfi_offset 14, -4
 1674 0002 8BB0     		sub	sp, sp, #44
 1675              		.cfi_def_cfa_offset 56
 1676 0004 0390     		str	r0, [sp, #12]
 1677 0006 0291     		str	r1, [sp, #8]
 1678 0008 0192     		str	r2, [sp, #4]
 1679              		.loc 1 162 3
 1680 000a 04AB     		add	r3, sp, #16
 1681 000c 019A     		ldr	r2, [sp, #4]
 1682 000e 0299     		ldr	r1, [sp, #8]
 1683 0010 1846     		mov	r0, r3
 1684 0012 FFF7FEFF 		bl	enu_of_ecef_vect_d
 1685              		.loc 1 163 3
 1686 0016 DDE90623 		ldrd	r2, [sp, #24]
 1687 001a 0399     		ldr	r1, [sp, #12]
 1688 001c C1E90023 		strd	r2, [r1]
 1689 0020 DDE90423 		ldrd	r2, [sp, #16]
 1690 0024 0399     		ldr	r1, [sp, #12]
 1691 0026 C1E90223 		strd	r2, [r1, #8]
 1692 002a DDE90823 		ldrd	r2, [sp, #32]
 1693 002e 1446     		mov	r4, r2
 1694 0030 83F00045 		eor	r5, r3, #-2147483648
 1695 0034 039B     		ldr	r3, [sp, #12]
 1696 0036 C3E90445 		strd	r4, [r3, #16]
 1697              		.loc 1 164 1
 1698 003a 00BF     		nop
 1699 003c 0BB0     		add	sp, sp, #44
 1700              		.cfi_def_cfa_offset 12
 1701              		@ sp needed
 1702 003e 30BD     		pop	{r4, r5, pc}
 1703              		.cfi_endproc
 1704              	.LFE59:
 1705              		.size	ned_of_ecef_vect_d, .-ned_of_ecef_vect_d
 1706              		.section	.text.ecef_of_enu_point_d,"ax",%progbits
 1707              		.align	1
 1708              		.p2align 4,,15
 1709              		.global	ecef_of_enu_point_d
 1710              		.syntax unified
ARM GAS  /tmp/cceVa9lb.s 			page 31


 1711              		.thumb
 1712              		.thumb_func
 1713              		.fpu fpv4-sp-d16
 1714              		.type	ecef_of_enu_point_d, %function
 1715              	ecef_of_enu_point_d:
 1716              	.LFB60:
 1717              		.loc 1 169 1
 1718              		.cfi_startproc
 1719              		@ args = 0, pretend = 0, frame = 16
 1720              		@ frame_needed = 0, uses_anonymous_args = 0
 1721 0000 30B5     		push	{r4, r5, lr}
 1722              		.cfi_def_cfa_offset 12
 1723              		.cfi_offset 4, -12
 1724              		.cfi_offset 5, -8
 1725              		.cfi_offset 14, -4
 1726 0002 85B0     		sub	sp, sp, #20
 1727              		.cfi_def_cfa_offset 32
 1728 0004 0390     		str	r0, [sp, #12]
 1729 0006 0291     		str	r1, [sp, #8]
 1730 0008 0192     		str	r2, [sp, #4]
 1731              		.loc 1 170 3
 1732 000a 029B     		ldr	r3, [sp, #8]
 1733 000c D3E90C01 		ldrd	r0, [r3, #48]
 1734 0010 019B     		ldr	r3, [sp, #4]
 1735 0012 D3E90023 		ldrd	r2, [r3]
 1736 0016 FFF7FEFF 		bl	__aeabi_dmul
 1737 001a 0246     		mov	r2, r0
 1738 001c 0B46     		mov	r3, r1
 1739 001e 1446     		mov	r4, r2
 1740 0020 1D46     		mov	r5, r3
 1741 0022 029B     		ldr	r3, [sp, #8]
 1742 0024 D3E91201 		ldrd	r0, [r3, #72]
 1743 0028 019B     		ldr	r3, [sp, #4]
 1744 002a D3E90223 		ldrd	r2, [r3, #8]
 1745 002e FFF7FEFF 		bl	__aeabi_dmul
 1746 0032 0246     		mov	r2, r0
 1747 0034 0B46     		mov	r3, r1
 1748 0036 2046     		mov	r0, r4
 1749 0038 2946     		mov	r1, r5
 1750 003a FFF7FEFF 		bl	__aeabi_dadd
 1751 003e 0246     		mov	r2, r0
 1752 0040 0B46     		mov	r3, r1
 1753 0042 1446     		mov	r4, r2
 1754 0044 1D46     		mov	r5, r3
 1755 0046 029B     		ldr	r3, [sp, #8]
 1756 0048 D3E91801 		ldrd	r0, [r3, #96]
 1757 004c 019B     		ldr	r3, [sp, #4]
 1758 004e D3E90423 		ldrd	r2, [r3, #16]
 1759 0052 FFF7FEFF 		bl	__aeabi_dmul
 1760 0056 0246     		mov	r2, r0
 1761 0058 0B46     		mov	r3, r1
 1762 005a 2046     		mov	r0, r4
 1763 005c 2946     		mov	r1, r5
 1764 005e FFF7FEFF 		bl	__aeabi_dadd
 1765 0062 0246     		mov	r2, r0
 1766 0064 0B46     		mov	r3, r1
 1767 0066 0399     		ldr	r1, [sp, #12]
ARM GAS  /tmp/cceVa9lb.s 			page 32


 1768 0068 C1E90023 		strd	r2, [r1]
 1769 006c 029B     		ldr	r3, [sp, #8]
 1770 006e D3E90E01 		ldrd	r0, [r3, #56]
 1771 0072 019B     		ldr	r3, [sp, #4]
 1772 0074 D3E90023 		ldrd	r2, [r3]
 1773 0078 FFF7FEFF 		bl	__aeabi_dmul
 1774 007c 0246     		mov	r2, r0
 1775 007e 0B46     		mov	r3, r1
 1776 0080 1446     		mov	r4, r2
 1777 0082 1D46     		mov	r5, r3
 1778 0084 029B     		ldr	r3, [sp, #8]
 1779 0086 D3E91401 		ldrd	r0, [r3, #80]
 1780 008a 019B     		ldr	r3, [sp, #4]
 1781 008c D3E90223 		ldrd	r2, [r3, #8]
 1782 0090 FFF7FEFF 		bl	__aeabi_dmul
 1783 0094 0246     		mov	r2, r0
 1784 0096 0B46     		mov	r3, r1
 1785 0098 2046     		mov	r0, r4
 1786 009a 2946     		mov	r1, r5
 1787 009c FFF7FEFF 		bl	__aeabi_dadd
 1788 00a0 0246     		mov	r2, r0
 1789 00a2 0B46     		mov	r3, r1
 1790 00a4 1446     		mov	r4, r2
 1791 00a6 1D46     		mov	r5, r3
 1792 00a8 029B     		ldr	r3, [sp, #8]
 1793 00aa D3E91A01 		ldrd	r0, [r3, #104]
 1794 00ae 019B     		ldr	r3, [sp, #4]
 1795 00b0 D3E90423 		ldrd	r2, [r3, #16]
 1796 00b4 FFF7FEFF 		bl	__aeabi_dmul
 1797 00b8 0246     		mov	r2, r0
 1798 00ba 0B46     		mov	r3, r1
 1799 00bc 2046     		mov	r0, r4
 1800 00be 2946     		mov	r1, r5
 1801 00c0 FFF7FEFF 		bl	__aeabi_dadd
 1802 00c4 0246     		mov	r2, r0
 1803 00c6 0B46     		mov	r3, r1
 1804 00c8 0399     		ldr	r1, [sp, #12]
 1805 00ca C1E90223 		strd	r2, [r1, #8]
 1806 00ce 029B     		ldr	r3, [sp, #8]
 1807 00d0 D3E91001 		ldrd	r0, [r3, #64]
 1808 00d4 019B     		ldr	r3, [sp, #4]
 1809 00d6 D3E90023 		ldrd	r2, [r3]
 1810 00da FFF7FEFF 		bl	__aeabi_dmul
 1811 00de 0246     		mov	r2, r0
 1812 00e0 0B46     		mov	r3, r1
 1813 00e2 1446     		mov	r4, r2
 1814 00e4 1D46     		mov	r5, r3
 1815 00e6 029B     		ldr	r3, [sp, #8]
 1816 00e8 D3E91601 		ldrd	r0, [r3, #88]
 1817 00ec 019B     		ldr	r3, [sp, #4]
 1818 00ee D3E90223 		ldrd	r2, [r3, #8]
 1819 00f2 FFF7FEFF 		bl	__aeabi_dmul
 1820 00f6 0246     		mov	r2, r0
 1821 00f8 0B46     		mov	r3, r1
 1822 00fa 2046     		mov	r0, r4
 1823 00fc 2946     		mov	r1, r5
 1824 00fe FFF7FEFF 		bl	__aeabi_dadd
ARM GAS  /tmp/cceVa9lb.s 			page 33


 1825 0102 0246     		mov	r2, r0
 1826 0104 0B46     		mov	r3, r1
 1827 0106 1446     		mov	r4, r2
 1828 0108 1D46     		mov	r5, r3
 1829 010a 029B     		ldr	r3, [sp, #8]
 1830 010c D3E91C01 		ldrd	r0, [r3, #112]
 1831 0110 019B     		ldr	r3, [sp, #4]
 1832 0112 D3E90423 		ldrd	r2, [r3, #16]
 1833 0116 FFF7FEFF 		bl	__aeabi_dmul
 1834 011a 0246     		mov	r2, r0
 1835 011c 0B46     		mov	r3, r1
 1836 011e 2046     		mov	r0, r4
 1837 0120 2946     		mov	r1, r5
 1838 0122 FFF7FEFF 		bl	__aeabi_dadd
 1839 0126 0246     		mov	r2, r0
 1840 0128 0B46     		mov	r3, r1
 1841 012a 0399     		ldr	r1, [sp, #12]
 1842 012c C1E90423 		strd	r2, [r1, #16]
 1843              		.loc 1 171 3
 1844 0130 039B     		ldr	r3, [sp, #12]
 1845 0132 D3E90001 		ldrd	r0, [r3]
 1846 0136 029B     		ldr	r3, [sp, #8]
 1847 0138 D3E90023 		ldrd	r2, [r3]
 1848 013c FFF7FEFF 		bl	__aeabi_dadd
 1849 0140 0246     		mov	r2, r0
 1850 0142 0B46     		mov	r3, r1
 1851 0144 0399     		ldr	r1, [sp, #12]
 1852 0146 C1E90023 		strd	r2, [r1]
 1853 014a 039B     		ldr	r3, [sp, #12]
 1854 014c D3E90201 		ldrd	r0, [r3, #8]
 1855 0150 029B     		ldr	r3, [sp, #8]
 1856 0152 D3E90223 		ldrd	r2, [r3, #8]
 1857 0156 FFF7FEFF 		bl	__aeabi_dadd
 1858 015a 0246     		mov	r2, r0
 1859 015c 0B46     		mov	r3, r1
 1860 015e 0399     		ldr	r1, [sp, #12]
 1861 0160 C1E90223 		strd	r2, [r1, #8]
 1862 0164 039B     		ldr	r3, [sp, #12]
 1863 0166 D3E90401 		ldrd	r0, [r3, #16]
 1864 016a 029B     		ldr	r3, [sp, #8]
 1865 016c D3E90423 		ldrd	r2, [r3, #16]
 1866 0170 FFF7FEFF 		bl	__aeabi_dadd
 1867 0174 0246     		mov	r2, r0
 1868 0176 0B46     		mov	r3, r1
 1869 0178 0399     		ldr	r1, [sp, #12]
 1870 017a C1E90423 		strd	r2, [r1, #16]
 1871              		.loc 1 172 1
 1872 017e 00BF     		nop
 1873 0180 05B0     		add	sp, sp, #20
 1874              		.cfi_def_cfa_offset 12
 1875              		@ sp needed
 1876 0182 30BD     		pop	{r4, r5, pc}
 1877              		.cfi_endproc
 1878              	.LFE60:
 1879              		.size	ecef_of_enu_point_d, .-ecef_of_enu_point_d
 1880              		.section	.text.ecef_of_ned_point_d,"ax",%progbits
 1881              		.align	1
ARM GAS  /tmp/cceVa9lb.s 			page 34


 1882              		.p2align 4,,15
 1883              		.global	ecef_of_ned_point_d
 1884              		.syntax unified
 1885              		.thumb
 1886              		.thumb_func
 1887              		.fpu fpv4-sp-d16
 1888              		.type	ecef_of_ned_point_d, %function
 1889              	ecef_of_ned_point_d:
 1890              	.LFB61:
 1891              		.loc 1 175 1
 1892              		.cfi_startproc
 1893              		@ args = 0, pretend = 0, frame = 40
 1894              		@ frame_needed = 0, uses_anonymous_args = 0
 1895 0000 30B5     		push	{r4, r5, lr}
 1896              		.cfi_def_cfa_offset 12
 1897              		.cfi_offset 4, -12
 1898              		.cfi_offset 5, -8
 1899              		.cfi_offset 14, -4
 1900 0002 8BB0     		sub	sp, sp, #44
 1901              		.cfi_def_cfa_offset 56
 1902 0004 0390     		str	r0, [sp, #12]
 1903 0006 0291     		str	r1, [sp, #8]
 1904 0008 0192     		str	r2, [sp, #4]
 1905              		.loc 1 177 3
 1906 000a 019B     		ldr	r3, [sp, #4]
 1907 000c D3E90223 		ldrd	r2, [r3, #8]
 1908 0010 CDE90423 		strd	r2, [sp, #16]
 1909 0014 019B     		ldr	r3, [sp, #4]
 1910 0016 D3E90023 		ldrd	r2, [r3]
 1911 001a CDE90623 		strd	r2, [sp, #24]
 1912 001e 019B     		ldr	r3, [sp, #4]
 1913 0020 D3E90423 		ldrd	r2, [r3, #16]
 1914 0024 1446     		mov	r4, r2
 1915 0026 83F00045 		eor	r5, r3, #-2147483648
 1916 002a CDE90845 		strd	r4, [sp, #32]
 1917              		.loc 1 178 3
 1918 002e 04AB     		add	r3, sp, #16
 1919 0030 1A46     		mov	r2, r3
 1920 0032 0299     		ldr	r1, [sp, #8]
 1921 0034 0398     		ldr	r0, [sp, #12]
 1922 0036 FFF7FEFF 		bl	ecef_of_enu_point_d
 1923              		.loc 1 179 1
 1924 003a 00BF     		nop
 1925 003c 0BB0     		add	sp, sp, #44
 1926              		.cfi_def_cfa_offset 12
 1927              		@ sp needed
 1928 003e 30BD     		pop	{r4, r5, pc}
 1929              		.cfi_endproc
 1930              	.LFE61:
 1931              		.size	ecef_of_ned_point_d, .-ecef_of_ned_point_d
 1932              		.section	.text.ecef_of_enu_vect_d,"ax",%progbits
 1933              		.align	1
 1934              		.p2align 4,,15
 1935              		.global	ecef_of_enu_vect_d
 1936              		.syntax unified
 1937              		.thumb
 1938              		.thumb_func
ARM GAS  /tmp/cceVa9lb.s 			page 35


 1939              		.fpu fpv4-sp-d16
 1940              		.type	ecef_of_enu_vect_d, %function
 1941              	ecef_of_enu_vect_d:
 1942              	.LFB62:
 1943              		.loc 1 182 1
 1944              		.cfi_startproc
 1945              		@ args = 0, pretend = 0, frame = 16
 1946              		@ frame_needed = 0, uses_anonymous_args = 0
 1947 0000 30B5     		push	{r4, r5, lr}
 1948              		.cfi_def_cfa_offset 12
 1949              		.cfi_offset 4, -12
 1950              		.cfi_offset 5, -8
 1951              		.cfi_offset 14, -4
 1952 0002 85B0     		sub	sp, sp, #20
 1953              		.cfi_def_cfa_offset 32
 1954 0004 0390     		str	r0, [sp, #12]
 1955 0006 0291     		str	r1, [sp, #8]
 1956 0008 0192     		str	r2, [sp, #4]
 1957              		.loc 1 183 3
 1958 000a 029B     		ldr	r3, [sp, #8]
 1959 000c D3E90C01 		ldrd	r0, [r3, #48]
 1960 0010 019B     		ldr	r3, [sp, #4]
 1961 0012 D3E90023 		ldrd	r2, [r3]
 1962 0016 FFF7FEFF 		bl	__aeabi_dmul
 1963 001a 0246     		mov	r2, r0
 1964 001c 0B46     		mov	r3, r1
 1965 001e 1446     		mov	r4, r2
 1966 0020 1D46     		mov	r5, r3
 1967 0022 029B     		ldr	r3, [sp, #8]
 1968 0024 D3E91201 		ldrd	r0, [r3, #72]
 1969 0028 019B     		ldr	r3, [sp, #4]
 1970 002a D3E90223 		ldrd	r2, [r3, #8]
 1971 002e FFF7FEFF 		bl	__aeabi_dmul
 1972 0032 0246     		mov	r2, r0
 1973 0034 0B46     		mov	r3, r1
 1974 0036 2046     		mov	r0, r4
 1975 0038 2946     		mov	r1, r5
 1976 003a FFF7FEFF 		bl	__aeabi_dadd
 1977 003e 0246     		mov	r2, r0
 1978 0040 0B46     		mov	r3, r1
 1979 0042 1446     		mov	r4, r2
 1980 0044 1D46     		mov	r5, r3
 1981 0046 029B     		ldr	r3, [sp, #8]
 1982 0048 D3E91801 		ldrd	r0, [r3, #96]
 1983 004c 019B     		ldr	r3, [sp, #4]
 1984 004e D3E90423 		ldrd	r2, [r3, #16]
 1985 0052 FFF7FEFF 		bl	__aeabi_dmul
 1986 0056 0246     		mov	r2, r0
 1987 0058 0B46     		mov	r3, r1
 1988 005a 2046     		mov	r0, r4
 1989 005c 2946     		mov	r1, r5
 1990 005e FFF7FEFF 		bl	__aeabi_dadd
 1991 0062 0246     		mov	r2, r0
 1992 0064 0B46     		mov	r3, r1
 1993 0066 0399     		ldr	r1, [sp, #12]
 1994 0068 C1E90023 		strd	r2, [r1]
 1995 006c 029B     		ldr	r3, [sp, #8]
ARM GAS  /tmp/cceVa9lb.s 			page 36


 1996 006e D3E90E01 		ldrd	r0, [r3, #56]
 1997 0072 019B     		ldr	r3, [sp, #4]
 1998 0074 D3E90023 		ldrd	r2, [r3]
 1999 0078 FFF7FEFF 		bl	__aeabi_dmul
 2000 007c 0246     		mov	r2, r0
 2001 007e 0B46     		mov	r3, r1
 2002 0080 1446     		mov	r4, r2
 2003 0082 1D46     		mov	r5, r3
 2004 0084 029B     		ldr	r3, [sp, #8]
 2005 0086 D3E91401 		ldrd	r0, [r3, #80]
 2006 008a 019B     		ldr	r3, [sp, #4]
 2007 008c D3E90223 		ldrd	r2, [r3, #8]
 2008 0090 FFF7FEFF 		bl	__aeabi_dmul
 2009 0094 0246     		mov	r2, r0
 2010 0096 0B46     		mov	r3, r1
 2011 0098 2046     		mov	r0, r4
 2012 009a 2946     		mov	r1, r5
 2013 009c FFF7FEFF 		bl	__aeabi_dadd
 2014 00a0 0246     		mov	r2, r0
 2015 00a2 0B46     		mov	r3, r1
 2016 00a4 1446     		mov	r4, r2
 2017 00a6 1D46     		mov	r5, r3
 2018 00a8 029B     		ldr	r3, [sp, #8]
 2019 00aa D3E91A01 		ldrd	r0, [r3, #104]
 2020 00ae 019B     		ldr	r3, [sp, #4]
 2021 00b0 D3E90423 		ldrd	r2, [r3, #16]
 2022 00b4 FFF7FEFF 		bl	__aeabi_dmul
 2023 00b8 0246     		mov	r2, r0
 2024 00ba 0B46     		mov	r3, r1
 2025 00bc 2046     		mov	r0, r4
 2026 00be 2946     		mov	r1, r5
 2027 00c0 FFF7FEFF 		bl	__aeabi_dadd
 2028 00c4 0246     		mov	r2, r0
 2029 00c6 0B46     		mov	r3, r1
 2030 00c8 0399     		ldr	r1, [sp, #12]
 2031 00ca C1E90223 		strd	r2, [r1, #8]
 2032 00ce 029B     		ldr	r3, [sp, #8]
 2033 00d0 D3E91001 		ldrd	r0, [r3, #64]
 2034 00d4 019B     		ldr	r3, [sp, #4]
 2035 00d6 D3E90023 		ldrd	r2, [r3]
 2036 00da FFF7FEFF 		bl	__aeabi_dmul
 2037 00de 0246     		mov	r2, r0
 2038 00e0 0B46     		mov	r3, r1
 2039 00e2 1446     		mov	r4, r2
 2040 00e4 1D46     		mov	r5, r3
 2041 00e6 029B     		ldr	r3, [sp, #8]
 2042 00e8 D3E91601 		ldrd	r0, [r3, #88]
 2043 00ec 019B     		ldr	r3, [sp, #4]
 2044 00ee D3E90223 		ldrd	r2, [r3, #8]
 2045 00f2 FFF7FEFF 		bl	__aeabi_dmul
 2046 00f6 0246     		mov	r2, r0
 2047 00f8 0B46     		mov	r3, r1
 2048 00fa 2046     		mov	r0, r4
 2049 00fc 2946     		mov	r1, r5
 2050 00fe FFF7FEFF 		bl	__aeabi_dadd
 2051 0102 0246     		mov	r2, r0
 2052 0104 0B46     		mov	r3, r1
ARM GAS  /tmp/cceVa9lb.s 			page 37


 2053 0106 1446     		mov	r4, r2
 2054 0108 1D46     		mov	r5, r3
 2055 010a 029B     		ldr	r3, [sp, #8]
 2056 010c D3E91C01 		ldrd	r0, [r3, #112]
 2057 0110 019B     		ldr	r3, [sp, #4]
 2058 0112 D3E90423 		ldrd	r2, [r3, #16]
 2059 0116 FFF7FEFF 		bl	__aeabi_dmul
 2060 011a 0246     		mov	r2, r0
 2061 011c 0B46     		mov	r3, r1
 2062 011e 2046     		mov	r0, r4
 2063 0120 2946     		mov	r1, r5
 2064 0122 FFF7FEFF 		bl	__aeabi_dadd
 2065 0126 0246     		mov	r2, r0
 2066 0128 0B46     		mov	r3, r1
 2067 012a 0399     		ldr	r1, [sp, #12]
 2068 012c C1E90423 		strd	r2, [r1, #16]
 2069              		.loc 1 184 1
 2070 0130 00BF     		nop
 2071 0132 05B0     		add	sp, sp, #20
 2072              		.cfi_def_cfa_offset 12
 2073              		@ sp needed
 2074 0134 30BD     		pop	{r4, r5, pc}
 2075              		.cfi_endproc
 2076              	.LFE62:
 2077              		.size	ecef_of_enu_vect_d, .-ecef_of_enu_vect_d
 2078 0136 00BF     		.section	.text.ecef_of_ned_vect_d,"ax",%progbits
 2079              		.align	1
 2080              		.p2align 4,,15
 2081              		.global	ecef_of_ned_vect_d
 2082              		.syntax unified
 2083              		.thumb
 2084              		.thumb_func
 2085              		.fpu fpv4-sp-d16
 2086              		.type	ecef_of_ned_vect_d, %function
 2087              	ecef_of_ned_vect_d:
 2088              	.LFB63:
 2089              		.loc 1 187 1
 2090              		.cfi_startproc
 2091              		@ args = 0, pretend = 0, frame = 40
 2092              		@ frame_needed = 0, uses_anonymous_args = 0
 2093 0000 30B5     		push	{r4, r5, lr}
 2094              		.cfi_def_cfa_offset 12
 2095              		.cfi_offset 4, -12
 2096              		.cfi_offset 5, -8
 2097              		.cfi_offset 14, -4
 2098 0002 8BB0     		sub	sp, sp, #44
 2099              		.cfi_def_cfa_offset 56
 2100 0004 0390     		str	r0, [sp, #12]
 2101 0006 0291     		str	r1, [sp, #8]
 2102 0008 0192     		str	r2, [sp, #4]
 2103              		.loc 1 189 3
 2104 000a 019B     		ldr	r3, [sp, #4]
 2105 000c D3E90223 		ldrd	r2, [r3, #8]
 2106 0010 CDE90423 		strd	r2, [sp, #16]
 2107 0014 019B     		ldr	r3, [sp, #4]
 2108 0016 D3E90023 		ldrd	r2, [r3]
 2109 001a CDE90623 		strd	r2, [sp, #24]
ARM GAS  /tmp/cceVa9lb.s 			page 38


 2110 001e 019B     		ldr	r3, [sp, #4]
 2111 0020 D3E90423 		ldrd	r2, [r3, #16]
 2112 0024 1446     		mov	r4, r2
 2113 0026 83F00045 		eor	r5, r3, #-2147483648
 2114 002a CDE90845 		strd	r4, [sp, #32]
 2115              		.loc 1 190 3
 2116 002e 04AB     		add	r3, sp, #16
 2117 0030 1A46     		mov	r2, r3
 2118 0032 0299     		ldr	r1, [sp, #8]
 2119 0034 0398     		ldr	r0, [sp, #12]
 2120 0036 FFF7FEFF 		bl	ecef_of_enu_vect_d
 2121              		.loc 1 191 1
 2122 003a 00BF     		nop
 2123 003c 0BB0     		add	sp, sp, #44
 2124              		.cfi_def_cfa_offset 12
 2125              		@ sp needed
 2126 003e 30BD     		pop	{r4, r5, pc}
 2127              		.cfi_endproc
 2128              	.LFE63:
 2129              		.size	ecef_of_ned_vect_d, .-ecef_of_ned_vect_d
 2130              		.section	.text.enu_of_lla_point_d,"ax",%progbits
 2131              		.align	1
 2132              		.p2align 4,,15
 2133              		.global	enu_of_lla_point_d
 2134              		.syntax unified
 2135              		.thumb
 2136              		.thumb_func
 2137              		.fpu fpv4-sp-d16
 2138              		.type	enu_of_lla_point_d, %function
 2139              	enu_of_lla_point_d:
 2140              	.LFB64:
 2141              		.loc 1 195 1
 2142              		.cfi_startproc
 2143              		@ args = 0, pretend = 0, frame = 40
 2144              		@ frame_needed = 0, uses_anonymous_args = 0
 2145 0000 00B5     		push	{lr}
 2146              		.cfi_def_cfa_offset 4
 2147              		.cfi_offset 14, -4
 2148 0002 8BB0     		sub	sp, sp, #44
 2149              		.cfi_def_cfa_offset 48
 2150 0004 0390     		str	r0, [sp, #12]
 2151 0006 0291     		str	r1, [sp, #8]
 2152 0008 0192     		str	r2, [sp, #4]
 2153              		.loc 1 197 3
 2154 000a 04AB     		add	r3, sp, #16
 2155 000c 0199     		ldr	r1, [sp, #4]
 2156 000e 1846     		mov	r0, r3
 2157 0010 FFF7FEFF 		bl	ecef_of_lla_d
 2158              		.loc 1 198 3
 2159 0014 04AB     		add	r3, sp, #16
 2160 0016 1A46     		mov	r2, r3
 2161 0018 0299     		ldr	r1, [sp, #8]
 2162 001a 0398     		ldr	r0, [sp, #12]
 2163 001c FFF7FEFF 		bl	enu_of_ecef_point_d
 2164              		.loc 1 199 1
 2165 0020 00BF     		nop
 2166 0022 0BB0     		add	sp, sp, #44
ARM GAS  /tmp/cceVa9lb.s 			page 39


 2167              		.cfi_def_cfa_offset 4
 2168              		@ sp needed
 2169 0024 5DF804FB 		ldr	pc, [sp], #4
 2170              		.cfi_endproc
 2171              	.LFE64:
 2172              		.size	enu_of_lla_point_d, .-enu_of_lla_point_d
 2173              		.section	.text.ned_of_lla_point_d,"ax",%progbits
 2174              		.align	1
 2175              		.p2align 4,,15
 2176              		.global	ned_of_lla_point_d
 2177              		.syntax unified
 2178              		.thumb
 2179              		.thumb_func
 2180              		.fpu fpv4-sp-d16
 2181              		.type	ned_of_lla_point_d, %function
 2182              	ned_of_lla_point_d:
 2183              	.LFB65:
 2184              		.loc 1 202 1
 2185              		.cfi_startproc
 2186              		@ args = 0, pretend = 0, frame = 40
 2187              		@ frame_needed = 0, uses_anonymous_args = 0
 2188 0000 00B5     		push	{lr}
 2189              		.cfi_def_cfa_offset 4
 2190              		.cfi_offset 14, -4
 2191 0002 8BB0     		sub	sp, sp, #44
 2192              		.cfi_def_cfa_offset 48
 2193 0004 0390     		str	r0, [sp, #12]
 2194 0006 0291     		str	r1, [sp, #8]
 2195 0008 0192     		str	r2, [sp, #4]
 2196              		.loc 1 204 3
 2197 000a 04AB     		add	r3, sp, #16
 2198 000c 0199     		ldr	r1, [sp, #4]
 2199 000e 1846     		mov	r0, r3
 2200 0010 FFF7FEFF 		bl	ecef_of_lla_d
 2201              		.loc 1 205 3
 2202 0014 04AB     		add	r3, sp, #16
 2203 0016 1A46     		mov	r2, r3
 2204 0018 0299     		ldr	r1, [sp, #8]
 2205 001a 0398     		ldr	r0, [sp, #12]
 2206 001c FFF7FEFF 		bl	ned_of_ecef_point_d
 2207              		.loc 1 206 1
 2208 0020 00BF     		nop
 2209 0022 0BB0     		add	sp, sp, #44
 2210              		.cfi_def_cfa_offset 4
 2211              		@ sp needed
 2212 0024 5DF804FB 		ldr	pc, [sp], #4
 2213              		.cfi_endproc
 2214              	.LFE65:
 2215              		.size	ned_of_lla_point_d, .-ned_of_lla_point_d
 2216              		.section	.text.gc_of_gd_lat_d,"ax",%progbits
 2217              		.align	1
 2218              		.p2align 4,,15
 2219              		.global	gc_of_gd_lat_d
 2220              		.syntax unified
 2221              		.thumb
 2222              		.thumb_func
 2223              		.fpu fpv4-sp-d16
ARM GAS  /tmp/cceVa9lb.s 			page 40


 2224              		.type	gc_of_gd_lat_d, %function
 2225              	gc_of_gd_lat_d:
 2226              	.LFB66:
 2227              		.loc 1 211 1
 2228              		.cfi_startproc
 2229              		@ args = 0, pretend = 0, frame = 48
 2230              		@ frame_needed = 0, uses_anonymous_args = 0
 2231 0000 F0B5     		push	{r4, r5, r6, r7, lr}
 2232              		.cfi_def_cfa_offset 20
 2233              		.cfi_offset 4, -20
 2234              		.cfi_offset 5, -16
 2235              		.cfi_offset 6, -12
 2236              		.cfi_offset 7, -8
 2237              		.cfi_offset 14, -4
 2238 0002 8DB0     		sub	sp, sp, #52
 2239              		.cfi_def_cfa_offset 72
 2240 0004 CDE90201 		strd	r0, [sp, #8]
 2241 0008 CDE90023 		strd	r2, [sp]
 2242              		.loc 1 212 16
 2243 000c 3DA3     		adr	r3, .L25+4
 2244 000e D3E90023 		ldrd	r2, [r3]
 2245 0012 CDE90A23 		strd	r2, [sp, #40]
 2246              		.loc 1 213 16
 2247 0016 3DA3     		adr	r3, .L25+12
 2248 0018 D3E90023 		ldrd	r2, [r3]
 2249 001c CDE90823 		strd	r2, [sp, #32]
 2250              		.loc 1 214 25
 2251 0020 DDE90823 		ldrd	r2, [sp, #32]
 2252 0024 4FF00000 		mov	r0, #0
 2253 0028 3549     		ldr	r1, .L25
 2254 002a FFF7FEFF 		bl	__aeabi_dsub
 2255 002e 0246     		mov	r2, r0
 2256 0030 0B46     		mov	r3, r1
 2257 0032 1446     		mov	r4, r2
 2258 0034 1D46     		mov	r5, r3
 2259              		.loc 1 214 36
 2260 0036 DDE90823 		ldrd	r2, [sp, #32]
 2261 003a 4FF00000 		mov	r0, #0
 2262 003e 3049     		ldr	r1, .L25
 2263 0040 FFF7FEFF 		bl	__aeabi_dsub
 2264 0044 0246     		mov	r2, r0
 2265 0046 0B46     		mov	r3, r1
 2266              		.loc 1 214 16
 2267 0048 2046     		mov	r0, r4
 2268 004a 2946     		mov	r1, r5
 2269 004c FFF7FEFF 		bl	__aeabi_dmul
 2270 0050 0246     		mov	r2, r0
 2271 0052 0B46     		mov	r3, r1
 2272 0054 CDE90623 		strd	r2, [sp, #24]
 2273              		.loc 1 216 25
 2274 0058 DDE90201 		ldrd	r0, [sp, #8]
 2275 005c FFF7FEFF 		bl	tan
 2276              		.loc 1 216 15
 2277 0060 DDE90623 		ldrd	r2, [sp, #24]
 2278 0064 FFF7FEFF 		bl	__aeabi_dmul
 2279 0068 0246     		mov	r2, r0
 2280 006a 0B46     		mov	r3, r1
ARM GAS  /tmp/cceVa9lb.s 			page 41


 2281 006c 1046     		mov	r0, r2
 2282 006e 1946     		mov	r1, r3
 2283 0070 FFF7FEFF 		bl	atan
 2284 0074 CDE90401 		strd	r0, [sp, #16]
 2285              		.loc 1 217 23
 2286 0078 DDE90201 		ldrd	r0, [sp, #8]
 2287 007c FFF7FEFF 		bl	sin
 2288              		.loc 1 217 21
 2289 0080 DDE90023 		ldrd	r2, [sp]
 2290 0084 FFF7FEFF 		bl	__aeabi_dmul
 2291 0088 0246     		mov	r2, r0
 2292 008a 0B46     		mov	r3, r1
 2293 008c 1446     		mov	r4, r2
 2294 008e 1D46     		mov	r5, r3
 2295              		.loc 1 217 41
 2296 0090 DDE90401 		ldrd	r0, [sp, #16]
 2297 0094 FFF7FEFF 		bl	sin
 2298              		.loc 1 217 39
 2299 0098 DDE90A23 		ldrd	r2, [sp, #40]
 2300 009c FFF7FEFF 		bl	__aeabi_dmul
 2301 00a0 0246     		mov	r2, r0
 2302 00a2 0B46     		mov	r3, r1
 2303              		.loc 1 217 10
 2304 00a4 2046     		mov	r0, r4
 2305 00a6 2946     		mov	r1, r5
 2306 00a8 FFF7FEFF 		bl	__aeabi_dadd
 2307 00ac 0246     		mov	r2, r0
 2308 00ae 0B46     		mov	r3, r1
 2309 00b0 1446     		mov	r4, r2
 2310 00b2 1D46     		mov	r5, r3
 2311              		.loc 1 217 57
 2312 00b4 DDE90201 		ldrd	r0, [sp, #8]
 2313 00b8 FFF7FEFF 		bl	cos
 2314              		.loc 1 217 55
 2315 00bc DDE90023 		ldrd	r2, [sp]
 2316 00c0 FFF7FEFF 		bl	__aeabi_dmul
 2317 00c4 0246     		mov	r2, r0
 2318 00c6 0B46     		mov	r3, r1
 2319 00c8 1646     		mov	r6, r2
 2320 00ca 1F46     		mov	r7, r3
 2321              		.loc 1 217 75
 2322 00cc DDE90401 		ldrd	r0, [sp, #16]
 2323 00d0 FFF7FEFF 		bl	cos
 2324              		.loc 1 217 73
 2325 00d4 DDE90A23 		ldrd	r2, [sp, #40]
 2326 00d8 FFF7FEFF 		bl	__aeabi_dmul
 2327 00dc 0246     		mov	r2, r0
 2328 00de 0B46     		mov	r3, r1
 2329              		.loc 1 217 10
 2330 00e0 3046     		mov	r0, r6
 2331 00e2 3946     		mov	r1, r7
 2332 00e4 FFF7FEFF 		bl	__aeabi_dadd
 2333 00e8 0246     		mov	r2, r0
 2334 00ea 0B46     		mov	r3, r1
 2335 00ec 2046     		mov	r0, r4
 2336 00ee 2946     		mov	r1, r5
 2337 00f0 FFF7FEFF 		bl	atan2
ARM GAS  /tmp/cceVa9lb.s 			page 42


 2338 00f4 0246     		mov	r2, r0
 2339 00f6 0B46     		mov	r3, r1
 2340              		.loc 1 218 1
 2341 00f8 1046     		mov	r0, r2
 2342 00fa 1946     		mov	r1, r3
 2343 00fc 0DB0     		add	sp, sp, #52
 2344              		.cfi_def_cfa_offset 20
 2345              		@ sp needed
 2346 00fe F0BD     		pop	{r4, r5, r6, r7, pc}
 2347              	.L26:
 2348              		.align	3
 2349              	.L25:
 2350 0100 0000F03F 		.word	1072693248
 2351 0104 00000040 		.word	1073741824
 2352 0108 A6545841 		.word	1096307878
 2353 010c 28E1F384 		.word	-2064391896
 2354 0110 5A776B3F 		.word	1064007514
 2355              		.cfi_endproc
 2356              	.LFE66:
 2357              		.size	gc_of_gd_lat_d, .-gc_of_gd_lat_d
 2358              		.section	.rodata.serie_coeff_proj_mercator,"a"
 2359              		.align	2
 2360              		.type	serie_coeff_proj_mercator, %object
 2361              		.size	serie_coeff_proj_mercator, 20
 2362              	serie_coeff_proj_mercator:
 2363 0000 2E927F3F 		.word	1065325102
 2364 0004 063D5B3A 		.word	979057926
 2365 0008 CBE54B35 		.word	894166475
 2366 000c 8A53A430 		.word	816075658
 2367 0010 19A5292C 		.word	740926745
 2368              		.section	.rodata.serie_coeff_proj_mercator_inverse,"a"
 2369              		.align	2
 2370              		.type	serie_coeff_proj_mercator_inverse, %object
 2371              		.size	serie_coeff_proj_mercator_inverse, 20
 2372              	serie_coeff_proj_mercator_inverse:
 2373 0000 2E927F3F 		.word	1065325102
 2374 0004 419B5B3A 		.word	979082049
 2375 0008 B8A77D33 		.word	863872952
 2376 000c 48FE372F 		.word	792198728
 2377 0010 BECF702A 		.word	712036286
 2378              		.section	.text.isometric_latitude_d,"ax",%progbits
 2379              		.align	1
 2380              		.p2align 4,,15
 2381              		.syntax unified
 2382              		.thumb
 2383              		.thumb_func
 2384              		.fpu fpv4-sp-d16
 2385              		.type	isometric_latitude_d, %function
 2386              	isometric_latitude_d:
 2387              	.LFB67:
 2388              		.loc 1 224 1
 2389              		.cfi_startproc
 2390              		@ args = 0, pretend = 0, frame = 16
 2391              		@ frame_needed = 0, uses_anonymous_args = 0
 2392 0000 2DE9F043 		push	{r4, r5, r6, r7, r8, r9, lr}
 2393              		.cfi_def_cfa_offset 28
 2394              		.cfi_offset 4, -28
ARM GAS  /tmp/cceVa9lb.s 			page 43


 2395              		.cfi_offset 5, -24
 2396              		.cfi_offset 6, -20
 2397              		.cfi_offset 7, -16
 2398              		.cfi_offset 8, -12
 2399              		.cfi_offset 9, -8
 2400              		.cfi_offset 14, -4
 2401 0004 85B0     		sub	sp, sp, #20
 2402              		.cfi_def_cfa_offset 48
 2403 0006 CDE90201 		strd	r0, [sp, #8]
 2404 000a CDE90023 		strd	r2, [sp]
 2405              		.loc 1 225 31
 2406 000e 4FF00002 		mov	r2, #0
 2407 0012 4FF08043 		mov	r3, #1073741824
 2408 0016 DDE90201 		ldrd	r0, [sp, #8]
 2409 001a FFF7FEFF 		bl	__aeabi_ddiv
 2410 001e 0246     		mov	r2, r0
 2411 0020 0B46     		mov	r3, r1
 2412 0022 1046     		mov	r0, r2
 2413 0024 1946     		mov	r1, r3
 2414              		.loc 1 225 10
 2415 0026 33A3     		adr	r3, .L29+4
 2416 0028 D3E90023 		ldrd	r2, [r3]
 2417 002c FFF7FEFF 		bl	__aeabi_dadd
 2418 0030 0246     		mov	r2, r0
 2419 0032 0B46     		mov	r3, r1
 2420 0034 1046     		mov	r0, r2
 2421 0036 1946     		mov	r1, r3
 2422 0038 FFF7FEFF 		bl	tan
 2423 003c 0246     		mov	r2, r0
 2424 003e 0B46     		mov	r3, r1
 2425 0040 1046     		mov	r0, r2
 2426 0042 1946     		mov	r1, r3
 2427 0044 FFF7FEFF 		bl	log
 2428 0048 0446     		mov	r4, r0
 2429 004a 0D46     		mov	r5, r1
 2430              		.loc 1 225 43
 2431 004c 4FF00002 		mov	r2, #0
 2432 0050 4FF08043 		mov	r3, #1073741824
 2433 0054 DDE90001 		ldrd	r0, [sp]
 2434 0058 FFF7FEFF 		bl	__aeabi_ddiv
 2435 005c 0246     		mov	r2, r0
 2436 005e 0B46     		mov	r3, r1
 2437 0060 1646     		mov	r6, r2
 2438 0062 1F46     		mov	r7, r3
 2439              		.loc 1 225 66
 2440 0064 DDE90201 		ldrd	r0, [sp, #8]
 2441 0068 FFF7FEFF 		bl	sin
 2442              		.loc 1 225 64
 2443 006c DDE90023 		ldrd	r2, [sp]
 2444 0070 FFF7FEFF 		bl	__aeabi_dmul
 2445 0074 0246     		mov	r2, r0
 2446 0076 0B46     		mov	r3, r1
 2447 0078 1046     		mov	r0, r2
 2448 007a 1946     		mov	r1, r3
 2449              		.loc 1 225 60
 2450 007c 4FF00002 		mov	r2, #0
 2451 0080 1B4B     		ldr	r3, .L29
ARM GAS  /tmp/cceVa9lb.s 			page 44


 2452 0082 FFF7FEFF 		bl	__aeabi_dadd
 2453 0086 0246     		mov	r2, r0
 2454 0088 0B46     		mov	r3, r1
 2455 008a 9046     		mov	r8, r2
 2456 008c 9946     		mov	r9, r3
 2457              		.loc 1 225 89
 2458 008e DDE90201 		ldrd	r0, [sp, #8]
 2459 0092 FFF7FEFF 		bl	sin
 2460              		.loc 1 225 87
 2461 0096 DDE90023 		ldrd	r2, [sp]
 2462 009a FFF7FEFF 		bl	__aeabi_dmul
 2463 009e 0246     		mov	r2, r0
 2464 00a0 0B46     		mov	r3, r1
 2465              		.loc 1 225 83
 2466 00a2 4FF00000 		mov	r0, #0
 2467 00a6 1249     		ldr	r1, .L29
 2468 00a8 FFF7FEFF 		bl	__aeabi_dsub
 2469 00ac 0246     		mov	r2, r0
 2470 00ae 0B46     		mov	r3, r1
 2471              		.loc 1 225 51
 2472 00b0 4046     		mov	r0, r8
 2473 00b2 4946     		mov	r1, r9
 2474 00b4 FFF7FEFF 		bl	__aeabi_ddiv
 2475 00b8 0246     		mov	r2, r0
 2476 00ba 0B46     		mov	r3, r1
 2477 00bc 1046     		mov	r0, r2
 2478 00be 1946     		mov	r1, r3
 2479 00c0 FFF7FEFF 		bl	log
 2480 00c4 0246     		mov	r2, r0
 2481 00c6 0B46     		mov	r3, r1
 2482              		.loc 1 225 49
 2483 00c8 3046     		mov	r0, r6
 2484 00ca 3946     		mov	r1, r7
 2485 00cc FFF7FEFF 		bl	__aeabi_dmul
 2486 00d0 0246     		mov	r2, r0
 2487 00d2 0B46     		mov	r3, r1
 2488              		.loc 1 225 39
 2489 00d4 2046     		mov	r0, r4
 2490 00d6 2946     		mov	r1, r5
 2491 00d8 FFF7FEFF 		bl	__aeabi_dsub
 2492 00dc 0246     		mov	r2, r0
 2493 00de 0B46     		mov	r3, r1
 2494              		.loc 1 226 1
 2495 00e0 1046     		mov	r0, r2
 2496 00e2 1946     		mov	r1, r3
 2497 00e4 05B0     		add	sp, sp, #20
 2498              		.cfi_def_cfa_offset 28
 2499              		@ sp needed
 2500 00e6 BDE8F083 		pop	{r4, r5, r6, r7, r8, r9, pc}
 2501              	.L30:
 2502 00ea 00BFAFF3 		.align	3
 2502      0080
 2503              	.L29:
 2504 00f0 0000F03F 		.word	1072693248
 2505 00f4 182D4454 		.word	1413754136
 2506 00f8 FB21E93F 		.word	1072243195
 2507              		.cfi_endproc
ARM GAS  /tmp/cceVa9lb.s 			page 45


 2508              	.LFE67:
 2509              		.size	isometric_latitude_d, .-isometric_latitude_d
 2510              		.section	.text.isometric_latitude_fast_d,"ax",%progbits
 2511              		.align	1
 2512              		.p2align 4,,15
 2513              		.syntax unified
 2514              		.thumb
 2515              		.thumb_func
 2516              		.fpu fpv4-sp-d16
 2517              		.type	isometric_latitude_fast_d, %function
 2518              	isometric_latitude_fast_d:
 2519              	.LFB68:
 2520              		.loc 1 229 1
 2521              		.cfi_startproc
 2522              		@ args = 0, pretend = 0, frame = 8
 2523              		@ frame_needed = 0, uses_anonymous_args = 0
 2524 0000 00B5     		push	{lr}
 2525              		.cfi_def_cfa_offset 4
 2526              		.cfi_offset 14, -4
 2527 0002 83B0     		sub	sp, sp, #12
 2528              		.cfi_def_cfa_offset 16
 2529 0004 CDE90001 		strd	r0, [sp]
 2530              		.loc 1 230 31
 2531 0008 4FF00002 		mov	r2, #0
 2532 000c 4FF08043 		mov	r3, #1073741824
 2533 0010 DDE90001 		ldrd	r0, [sp]
 2534 0014 FFF7FEFF 		bl	__aeabi_ddiv
 2535 0018 0246     		mov	r2, r0
 2536 001a 0B46     		mov	r3, r1
 2537 001c 1046     		mov	r0, r2
 2538 001e 1946     		mov	r1, r3
 2539              		.loc 1 230 10
 2540 0020 0BA3     		adr	r3, .L33
 2541 0022 D3E90023 		ldrd	r2, [r3]
 2542 0026 FFF7FEFF 		bl	__aeabi_dadd
 2543 002a 0246     		mov	r2, r0
 2544 002c 0B46     		mov	r3, r1
 2545 002e 1046     		mov	r0, r2
 2546 0030 1946     		mov	r1, r3
 2547 0032 FFF7FEFF 		bl	tan
 2548 0036 0246     		mov	r2, r0
 2549 0038 0B46     		mov	r3, r1
 2550 003a 1046     		mov	r0, r2
 2551 003c 1946     		mov	r1, r3
 2552 003e FFF7FEFF 		bl	log
 2553 0042 0246     		mov	r2, r0
 2554 0044 0B46     		mov	r3, r1
 2555              		.loc 1 231 1
 2556 0046 1046     		mov	r0, r2
 2557 0048 1946     		mov	r1, r3
 2558 004a 03B0     		add	sp, sp, #12
 2559              		.cfi_def_cfa_offset 4
 2560              		@ sp needed
 2561 004c 5DF804FB 		ldr	pc, [sp], #4
 2562              	.L34:
 2563              		.align	3
 2564              	.L33:
ARM GAS  /tmp/cceVa9lb.s 			page 46


 2565 0050 182D4454 		.word	1413754136
 2566 0054 FB21E93F 		.word	1072243195
 2567              		.cfi_endproc
 2568              	.LFE68:
 2569              		.size	isometric_latitude_fast_d, .-isometric_latitude_fast_d
 2570              		.global	__aeabi_dcmplt
 2571              		.section	.text.inverse_isometric_latitude_d,"ax",%progbits
 2572              		.align	1
 2573              		.p2align 4,,15
 2574              		.syntax unified
 2575              		.thumb
 2576              		.thumb_func
 2577              		.fpu fpv4-sp-d16
 2578              		.type	inverse_isometric_latitude_d, %function
 2579              	inverse_isometric_latitude_d:
 2580              	.LFB69:
 2581              		.loc 1 234 1
 2582              		.cfi_startproc
 2583              		@ args = 8, pretend = 0, frame = 56
 2584              		@ frame_needed = 0, uses_anonymous_args = 0
 2585 0000 F0B5     		push	{r4, r5, r6, r7, lr}
 2586              		.cfi_def_cfa_offset 20
 2587              		.cfi_offset 4, -20
 2588              		.cfi_offset 5, -16
 2589              		.cfi_offset 6, -12
 2590              		.cfi_offset 7, -8
 2591              		.cfi_offset 14, -4
 2592 0002 8FB0     		sub	sp, sp, #60
 2593              		.cfi_def_cfa_offset 80
 2594 0004 CDE90201 		strd	r0, [sp, #8]
 2595 0008 CDE90023 		strd	r2, [sp]
 2596              		.loc 1 235 18
 2597 000c DDE90201 		ldrd	r0, [sp, #8]
 2598 0010 FFF7FEFF 		bl	exp
 2599 0014 CDE90801 		strd	r0, [sp, #32]
 2600              		.loc 1 236 21
 2601 0018 DDE90801 		ldrd	r0, [sp, #32]
 2602 001c FFF7FEFF 		bl	atan
 2603              		.loc 1 236 19
 2604 0020 0246     		mov	r2, r0
 2605 0022 0B46     		mov	r3, r1
 2606 0024 FFF7FEFF 		bl	__aeabi_dadd
 2607 0028 0246     		mov	r2, r0
 2608 002a 0B46     		mov	r3, r1
 2609 002c 1046     		mov	r0, r2
 2610 002e 1946     		mov	r1, r3
 2611              		.loc 1 236 10
 2612 0030 43A3     		adr	r3, .L39
 2613 0032 D3E90023 		ldrd	r2, [r3]
 2614 0036 FFF7FEFF 		bl	__aeabi_dsub
 2615 003a 0246     		mov	r2, r0
 2616 003c 0B46     		mov	r3, r1
 2617 003e CDE90C23 		strd	r2, [sp, #48]
 2618              		.loc 1 238 11
 2619 0042 0323     		movs	r3, #3
 2620 0044 8DF82F30 		strb	r3, [sp, #47]
 2621              	.L37:
ARM GAS  /tmp/cceVa9lb.s 			page 47


 2622              	.LBB2:
 2623              		.loc 1 241 10 discriminator 2
 2624 0048 DDE90C23 		ldrd	r2, [sp, #48]
 2625 004c CDE90623 		strd	r2, [sp, #24]
 2626              		.loc 1 242 26 discriminator 2
 2627 0050 DDE90601 		ldrd	r0, [sp, #24]
 2628 0054 FFF7FEFF 		bl	sin
 2629 0058 0246     		mov	r2, r0
 2630 005a 0B46     		mov	r3, r1
 2631              		.loc 1 242 12 discriminator 2
 2632 005c DDE90001 		ldrd	r0, [sp]
 2633 0060 FFF7FEFF 		bl	__aeabi_dmul
 2634 0064 0246     		mov	r2, r0
 2635 0066 0B46     		mov	r3, r1
 2636 0068 CDE90423 		strd	r2, [sp, #16]
 2637              		.loc 1 243 28 discriminator 2
 2638 006c 4FF00002 		mov	r2, #0
 2639 0070 354B     		ldr	r3, .L39+8
 2640 0072 DDE90401 		ldrd	r0, [sp, #16]
 2641 0076 FFF7FEFF 		bl	__aeabi_dadd
 2642 007a 0246     		mov	r2, r0
 2643 007c 0B46     		mov	r3, r1
 2644 007e 1646     		mov	r6, r2
 2645 0080 1F46     		mov	r7, r3
 2646              		.loc 1 243 45 discriminator 2
 2647 0082 DDE90423 		ldrd	r2, [sp, #16]
 2648 0086 4FF00000 		mov	r0, #0
 2649 008a 2F49     		ldr	r1, .L39+8
 2650 008c FFF7FEFF 		bl	__aeabi_dsub
 2651 0090 0246     		mov	r2, r0
 2652 0092 0B46     		mov	r3, r1
 2653              		.loc 1 243 21 discriminator 2
 2654 0094 3046     		mov	r0, r6
 2655 0096 3946     		mov	r1, r7
 2656 0098 FFF7FEFF 		bl	__aeabi_ddiv
 2657 009c 0246     		mov	r2, r0
 2658 009e 0B46     		mov	r3, r1
 2659 00a0 1646     		mov	r6, r2
 2660 00a2 1F46     		mov	r7, r3
 2661 00a4 4FF00002 		mov	r2, #0
 2662 00a8 4FF08043 		mov	r3, #1073741824
 2663 00ac DDE90001 		ldrd	r0, [sp]
 2664 00b0 FFF7FEFF 		bl	__aeabi_ddiv
 2665 00b4 0246     		mov	r2, r0
 2666 00b6 0B46     		mov	r3, r1
 2667 00b8 3046     		mov	r0, r6
 2668 00ba 3946     		mov	r1, r7
 2669 00bc FFF7FEFF 		bl	pow
 2670              		.loc 1 243 16 discriminator 2
 2671 00c0 DDE90823 		ldrd	r2, [sp, #32]
 2672 00c4 FFF7FEFF 		bl	__aeabi_dmul
 2673 00c8 0246     		mov	r2, r0
 2674 00ca 0B46     		mov	r3, r1
 2675 00cc 1046     		mov	r0, r2
 2676 00ce 1946     		mov	r1, r3
 2677 00d0 FFF7FEFF 		bl	atan
 2678              		.loc 1 243 14 discriminator 2
ARM GAS  /tmp/cceVa9lb.s 			page 48


 2679 00d4 0246     		mov	r2, r0
 2680 00d6 0B46     		mov	r3, r1
 2681 00d8 FFF7FEFF 		bl	__aeabi_dadd
 2682 00dc 0246     		mov	r2, r0
 2683 00de 0B46     		mov	r3, r1
 2684 00e0 1046     		mov	r0, r2
 2685 00e2 1946     		mov	r1, r3
 2686              		.loc 1 243 10 discriminator 2
 2687 00e4 16A3     		adr	r3, .L39
 2688 00e6 D3E90023 		ldrd	r2, [r3]
 2689 00ea FFF7FEFF 		bl	__aeabi_dsub
 2690 00ee 0246     		mov	r2, r0
 2691 00f0 0B46     		mov	r3, r1
 2692 00f2 CDE90C23 		strd	r2, [sp, #48]
 2693              		.loc 1 244 13 discriminator 2
 2694 00f6 9DF82F30 		ldrb	r3, [sp, #47]	@ zero_extendqisi2
 2695 00fa 013B     		subs	r3, r3, #1
 2696 00fc 8DF82F30 		strb	r3, [sp, #47]
 2697              	.LBE2:
 2698              		.loc 1 245 3 discriminator 2
 2699 0100 9DF82F30 		ldrb	r3, [sp, #47]	@ zero_extendqisi2
 2700 0104 002B     		cmp	r3, #0
 2701 0106 13D0     		beq	.L36
 2702              		.loc 1 245 34 discriminator 1
 2703 0108 DDE90C23 		ldrd	r2, [sp, #48]
 2704 010c DDE90601 		ldrd	r0, [sp, #24]
 2705 0110 FFF7FEFF 		bl	__aeabi_dsub
 2706 0114 0246     		mov	r2, r0
 2707 0116 0B46     		mov	r3, r1
 2708              		.loc 1 245 24 discriminator 1
 2709 0118 1446     		mov	r4, r2
 2710 011a 23F00045 		bic	r5, r3, #-2147483648
 2711              		.loc 1 245 21 discriminator 1
 2712 011e 2246     		mov	r2, r4
 2713 0120 2B46     		mov	r3, r5
 2714 0122 DDE91401 		ldrd	r0, [sp, #80]
 2715 0126 FFF7FEFF 		bl	__aeabi_dcmplt
 2716 012a 0346     		mov	r3, r0
 2717 012c 002B     		cmp	r3, #0
 2718 012e 8BD1     		bne	.L37
 2719              	.L36:
 2720              		.loc 1 247 10
 2721 0130 DDE90C23 		ldrd	r2, [sp, #48]
 2722              		.loc 1 248 1
 2723 0134 1046     		mov	r0, r2
 2724 0136 1946     		mov	r1, r3
 2725 0138 0FB0     		add	sp, sp, #60
 2726              		.cfi_def_cfa_offset 20
 2727              		@ sp needed
 2728 013a F0BD     		pop	{r4, r5, r6, r7, pc}
 2729              	.L40:
 2730 013c AFF30080 		.align	3
 2731              	.L39:
 2732 0140 182D4454 		.word	1413754136
 2733 0144 FB21F93F 		.word	1073291771
 2734 0148 0000F03F 		.word	1072693248
 2735              		.cfi_endproc
ARM GAS  /tmp/cceVa9lb.s 			page 49


 2736              	.LFE69:
 2737              		.size	inverse_isometric_latitude_d, .-inverse_isometric_latitude_d
 2738              		.global	__aeabi_d2uiz
 2739              		.global	__aeabi_i2d
 2740              		.global	__aeabi_f2d
 2741              		.section	.text.utm_of_lla_d,"ax",%progbits
 2742              		.align	1
 2743              		.p2align 4,,15
 2744              		.global	utm_of_lla_d
 2745              		.syntax unified
 2746              		.thumb
 2747              		.thumb_func
 2748              		.fpu fpv4-sp-d16
 2749              		.type	utm_of_lla_d, %function
 2750              	utm_of_lla_d:
 2751              	.LFB70:
 2752              		.loc 1 277 1
 2753              		.cfi_startproc
 2754              		@ args = 0, pretend = 0, frame = 152
 2755              		@ frame_needed = 0, uses_anonymous_args = 0
 2756 0000 2DE9F04F 		push	{r4, r5, r6, r7, r8, r9, r10, fp, lr}
 2757              		.cfi_def_cfa_offset 36
 2758              		.cfi_offset 4, -36
 2759              		.cfi_offset 5, -32
 2760              		.cfi_offset 6, -28
 2761              		.cfi_offset 7, -24
 2762              		.cfi_offset 8, -20
 2763              		.cfi_offset 9, -16
 2764              		.cfi_offset 10, -12
 2765              		.cfi_offset 11, -8
 2766              		.cfi_offset 14, -4
 2767 0004 A7B0     		sub	sp, sp, #156
 2768              		.cfi_def_cfa_offset 192
 2769 0006 0390     		str	r0, [sp, #12]
 2770 0008 0291     		str	r1, [sp, #8]
 2771              		.loc 1 279 10
 2772 000a 039B     		ldr	r3, [sp, #12]
 2773 000c 1B7E     		ldrb	r3, [r3, #24]	@ zero_extendqisi2
 2774              		.loc 1 279 6
 2775 000e 002B     		cmp	r3, #0
 2776 0010 2ED1     		bne	.L42
 2777              		.loc 1 280 17
 2778 0012 029B     		ldr	r3, [sp, #8]
 2779 0014 D3E90201 		ldrd	r0, [r3, #8]
 2780 0018 63A3     		adr	r3, .L45+32
 2781 001a D3E90023 		ldrd	r2, [r3]
 2782 001e FFF7FEFF 		bl	__aeabi_dmul
 2783 0022 0246     		mov	r2, r0
 2784 0024 0B46     		mov	r3, r1
 2785 0026 1046     		mov	r0, r2
 2786 0028 1946     		mov	r1, r3
 2787 002a 4FF00002 		mov	r2, #0
 2788 002e 5A4B     		ldr	r3, .L45+16
 2789 0030 FFF7FEFF 		bl	__aeabi_dadd
 2790 0034 0246     		mov	r2, r0
 2791 0036 0B46     		mov	r3, r1
 2792 0038 1046     		mov	r0, r2
ARM GAS  /tmp/cceVa9lb.s 			page 50


 2793 003a 1946     		mov	r1, r3
 2794 003c FFF7FEFF 		bl	floor
 2795 0040 4FF00002 		mov	r2, #0
 2796 0044 554B     		ldr	r3, .L45+20
 2797 0046 FFF7FEFF 		bl	__aeabi_ddiv
 2798 004a 0246     		mov	r2, r0
 2799 004c 0B46     		mov	r3, r1
 2800 004e 1046     		mov	r0, r2
 2801 0050 1946     		mov	r1, r3
 2802 0052 4FF00002 		mov	r2, #0
 2803 0056 524B     		ldr	r3, .L45+24
 2804 0058 FFF7FEFF 		bl	__aeabi_dadd
 2805 005c 0246     		mov	r2, r0
 2806 005e 0B46     		mov	r3, r1
 2807              		.loc 1 280 15
 2808 0060 1046     		mov	r0, r2
 2809 0062 1946     		mov	r1, r3
 2810 0064 FFF7FEFF 		bl	__aeabi_d2uiz
 2811 0068 0346     		mov	r3, r0
 2812 006a DAB2     		uxtb	r2, r3
 2813 006c 039B     		ldr	r3, [sp, #12]
 2814 006e 1A76     		strb	r2, [r3, #24]
 2815              	.L42:
 2816              		.loc 1 283 21
 2817 0070 039B     		ldr	r3, [sp, #12]
 2818 0072 1B7E     		ldrb	r3, [r3, #24]	@ zero_extendqisi2
 2819 0074 5A1E     		subs	r2, r3, #1
 2820 0076 1346     		mov	r3, r2
 2821 0078 5B00     		lsls	r3, r3, #1
 2822 007a 1344     		add	r3, r3, r2
 2823 007c 5B00     		lsls	r3, r3, #1
 2824 007e B13B     		subs	r3, r3, #177
 2825 0080 1846     		mov	r0, r3
 2826 0082 FFF7FEFF 		bl	__aeabi_i2d
 2827              		.loc 1 283 10
 2828 0086 40A3     		adr	r3, .L45
 2829 0088 D3E90023 		ldrd	r2, [r3]
 2830 008c FFF7FEFF 		bl	__aeabi_dmul
 2831 0090 0246     		mov	r2, r0
 2832 0092 0B46     		mov	r3, r1
 2833 0094 CDE92223 		strd	r2, [sp, #136]
 2834              		.loc 1 284 15
 2835 0098 029B     		ldr	r3, [sp, #8]
 2836 009a D3E90001 		ldrd	r0, [r3]
 2837 009e 3CA3     		adr	r3, .L45+8
 2838 00a0 D3E90023 		ldrd	r2, [r3]
 2839 00a4 FFF7FEFF 		bl	isometric_latitude_d
 2840 00a8 CDE92001 		strd	r0, [sp, #128]
 2841              		.loc 1 285 18
 2842 00ac 029B     		ldr	r3, [sp, #8]
 2843 00ae D3E90201 		ldrd	r0, [r3, #8]
 2844              		.loc 1 285 10
 2845 00b2 DDE92223 		ldrd	r2, [sp, #136]
 2846 00b6 FFF7FEFF 		bl	__aeabi_dsub
 2847 00ba 0246     		mov	r2, r0
 2848 00bc 0B46     		mov	r3, r1
 2849 00be CDE91E23 		strd	r2, [sp, #120]
ARM GAS  /tmp/cceVa9lb.s 			page 51


 2850              		.loc 1 286 22
 2851 00c2 DDE91E01 		ldrd	r0, [sp, #120]
 2852 00c6 FFF7FEFF 		bl	sin
 2853 00ca 0446     		mov	r4, r0
 2854 00cc 0D46     		mov	r5, r1
 2855              		.loc 1 286 32
 2856 00ce DDE92001 		ldrd	r0, [sp, #128]
 2857 00d2 FFF7FEFF 		bl	cosh
 2858 00d6 0246     		mov	r2, r0
 2859 00d8 0B46     		mov	r3, r1
 2860              		.loc 1 286 17
 2861 00da 2046     		mov	r0, r4
 2862 00dc 2946     		mov	r1, r5
 2863 00de FFF7FEFF 		bl	__aeabi_ddiv
 2864 00e2 0246     		mov	r2, r0
 2865 00e4 0B46     		mov	r3, r1
 2866 00e6 1046     		mov	r0, r2
 2867 00e8 1946     		mov	r1, r3
 2868 00ea FFF7FEFF 		bl	asin
 2869 00ee CDE91C01 		strd	r0, [sp, #112]
 2870              		.loc 1 287 16
 2871 00f2 DDE91C01 		ldrd	r0, [sp, #112]
 2872 00f6 FFF7FEFF 		bl	isometric_latitude_fast_d
 2873 00fa CDE91A01 		strd	r0, [sp, #104]
 2874              		.loc 1 288 25
 2875 00fe DDE92001 		ldrd	r0, [sp, #128]
 2876 0102 FFF7FEFF 		bl	sinh
 2877 0106 0446     		mov	r4, r0
 2878 0108 0D46     		mov	r5, r1
 2879              		.loc 1 288 36
 2880 010a DDE91E01 		ldrd	r0, [sp, #120]
 2881 010e FFF7FEFF 		bl	cos
 2882 0112 0246     		mov	r2, r0
 2883 0114 0B46     		mov	r3, r1
 2884              		.loc 1 288 20
 2885 0116 2046     		mov	r0, r4
 2886 0118 2946     		mov	r1, r5
 2887 011a FFF7FEFF 		bl	__aeabi_ddiv
 2888 011e 0246     		mov	r2, r0
 2889 0120 0B46     		mov	r3, r1
 2890 0122 1046     		mov	r0, r2
 2891 0124 1946     		mov	r1, r3
 2892 0126 FFF7FEFF 		bl	atan
 2893 012a CDE91801 		strd	r0, [sp, #96]
 2894              		.loc 1 289 22
 2895 012e DDE91823 		ldrd	r2, [sp, #96]
 2896 0132 CDE90C23 		strd	r2, [sp, #48]
 2897 0136 DDE91A23 		ldrd	r2, [sp, #104]
 2898 013a CDE90E23 		strd	r2, [sp, #56]
 2899              		.loc 1 290 3
 2900 013e DDE90C45 		ldrd	r4, [sp, #48]
 2901 0142 184B     		ldr	r3, .L45+28
 2902 0144 1846     		mov	r0, r3	@ float
 2903 0146 FFF7FEFF 		bl	__aeabi_f2d
 2904 014a 0246     		mov	r2, r0
 2905 014c 0B46     		mov	r3, r1
 2906 014e 2046     		mov	r0, r4
ARM GAS  /tmp/cceVa9lb.s 			page 52


 2907 0150 2946     		mov	r1, r5
 2908 0152 FFF7FEFF 		bl	__aeabi_dmul
 2909 0156 0246     		mov	r2, r0
 2910 0158 0B46     		mov	r3, r1
 2911 015a CDE90C23 		strd	r2, [sp, #48]
 2912 015e DDE90E45 		ldrd	r4, [sp, #56]
 2913 0162 104B     		ldr	r3, .L45+28
 2914 0164 1846     		mov	r0, r3	@ float
 2915 0166 FFF7FEFF 		bl	__aeabi_f2d
 2916 016a 0246     		mov	r2, r0
 2917 016c 0B46     		mov	r3, r1
 2918 016e 2046     		mov	r0, r4
 2919 0170 2946     		mov	r1, r5
 2920 0172 FFF7FEFF 		bl	__aeabi_dmul
 2921 0176 0246     		mov	r2, r0
 2922 0178 0B46     		mov	r3, r1
 2923 017a CDE90E23 		strd	r2, [sp, #56]
 2924              		.loc 1 292 10
 2925 017e 0123     		movs	r3, #1
 2926 0180 8DF89730 		strb	r3, [sp, #151]
 2927              		.loc 1 292 3
 2928 0184 2CE1     		b	.L43
 2929              	.L46:
 2930 0186 00BF     		.align	3
 2931              	.L45:
 2932 0188 399D52A2 		.word	-1571644103
 2933 018c 46DF913F 		.word	1066524486
 2934 0190 37B2C93D 		.word	1036628535
 2935 0194 1AF2B43F 		.word	1068823066
 2936 0198 00806640 		.word	1080459264
 2937 019c 00001840 		.word	1075314688
 2938 01a0 0000F03F 		.word	1072693248
 2939 01a4 2E927F3F 		.word	1065325102
 2940 01a8 F8C1631A 		.word	442745336
 2941 01ac DCA54C40 		.word	1078765020
 2942              	.L44:
 2943              	.LBB3:
 2944              		.loc 1 293 24 discriminator 3
 2945 01b0 DDE91823 		ldrd	r2, [sp, #96]
 2946 01b4 CDE90823 		strd	r2, [sp, #32]
 2947 01b8 DDE91A23 		ldrd	r2, [sp, #104]
 2948 01bc CDE90A23 		strd	r2, [sp, #40]
 2949              		.loc 1 294 5 discriminator 3
 2950 01c0 DDE90845 		ldrd	r4, [sp, #32]
 2951 01c4 9DF99730 		ldrsb	r3, [sp, #151]
 2952 01c8 1846     		mov	r0, r3
 2953 01ca FFF7FEFF 		bl	__aeabi_i2d
 2954 01ce 0246     		mov	r2, r0
 2955 01d0 0B46     		mov	r3, r1
 2956 01d2 FFF7FEFF 		bl	__aeabi_dadd
 2957 01d6 0246     		mov	r2, r0
 2958 01d8 0B46     		mov	r3, r1
 2959 01da 2046     		mov	r0, r4
 2960 01dc 2946     		mov	r1, r5
 2961 01de FFF7FEFF 		bl	__aeabi_dmul
 2962 01e2 0246     		mov	r2, r0
 2963 01e4 0B46     		mov	r3, r1
ARM GAS  /tmp/cceVa9lb.s 			page 53


 2964 01e6 CDE90823 		strd	r2, [sp, #32]
 2965 01ea DDE90A45 		ldrd	r4, [sp, #40]
 2966 01ee 9DF99730 		ldrsb	r3, [sp, #151]
 2967 01f2 1846     		mov	r0, r3
 2968 01f4 FFF7FEFF 		bl	__aeabi_i2d
 2969 01f8 0246     		mov	r2, r0
 2970 01fa 0B46     		mov	r3, r1
 2971 01fc FFF7FEFF 		bl	__aeabi_dadd
 2972 0200 0246     		mov	r2, r0
 2973 0202 0B46     		mov	r3, r1
 2974 0204 2046     		mov	r0, r4
 2975 0206 2946     		mov	r1, r5
 2976 0208 FFF7FEFF 		bl	__aeabi_dmul
 2977 020c 0246     		mov	r2, r0
 2978 020e 0B46     		mov	r3, r1
 2979 0210 CDE90A23 		strd	r2, [sp, #40]
 2980              	.LBB4:
 2981              	.LBB5:
 2982              		.loc 1 295 5 discriminator 3
 2983 0214 DDE90823 		ldrd	r2, [sp, #32]
 2984 0218 CDE91623 		strd	r2, [sp, #88]
 2985 021c DDE90A23 		ldrd	r2, [sp, #40]
 2986 0220 1646     		mov	r6, r2
 2987 0222 83F00047 		eor	r7, r3, #-2147483648
 2988 0226 CDE90867 		strd	r6, [sp, #32]
 2989 022a DDE91623 		ldrd	r2, [sp, #88]
 2990 022e CDE90A23 		strd	r2, [sp, #40]
 2991              	.LBE5:
 2992 0232 DDE90823 		ldrd	r2, [sp, #32]
 2993 0236 9046     		mov	r8, r2
 2994 0238 83F00049 		eor	r9, r3, #-2147483648
 2995 023c CDE90489 		strd	r8, [sp, #16]
 2996 0240 DDE90A23 		ldrd	r2, [sp, #40]
 2997 0244 9246     		mov	r10, r2
 2998 0246 83F0004B 		eor	fp, r3, #-2147483648
 2999 024a CDE906AB 		strd	r10, [sp, #24]
 3000              	.LBB6:
 3001 024e DDE90823 		ldrd	r2, [sp, #32]
 3002 0252 1046     		mov	r0, r2
 3003 0254 1946     		mov	r1, r3
 3004 0256 FFF7FEFF 		bl	exp
 3005 025a CDE91401 		strd	r0, [sp, #80]
 3006 025e DDE90A23 		ldrd	r2, [sp, #40]
 3007 0262 1046     		mov	r0, r2
 3008 0264 1946     		mov	r1, r3
 3009 0266 FFF7FEFF 		bl	cos
 3010 026a DDE91423 		ldrd	r2, [sp, #80]
 3011 026e FFF7FEFF 		bl	__aeabi_dmul
 3012 0272 0246     		mov	r2, r0
 3013 0274 0B46     		mov	r3, r1
 3014 0276 CDE90823 		strd	r2, [sp, #32]
 3015 027a DDE90A23 		ldrd	r2, [sp, #40]
 3016 027e 1046     		mov	r0, r2
 3017 0280 1946     		mov	r1, r3
 3018 0282 FFF7FEFF 		bl	sin
 3019 0286 DDE91423 		ldrd	r2, [sp, #80]
 3020 028a FFF7FEFF 		bl	__aeabi_dmul
ARM GAS  /tmp/cceVa9lb.s 			page 54


 3021 028e 0246     		mov	r2, r0
 3022 0290 0B46     		mov	r3, r1
 3023 0292 CDE90A23 		strd	r2, [sp, #40]
 3024              	.LBE6:
 3025              	.LBB7:
 3026 0296 DDE90423 		ldrd	r2, [sp, #16]
 3027 029a 1046     		mov	r0, r2
 3028 029c 1946     		mov	r1, r3
 3029 029e FFF7FEFF 		bl	exp
 3030 02a2 CDE91201 		strd	r0, [sp, #72]
 3031 02a6 DDE90623 		ldrd	r2, [sp, #24]
 3032 02aa 1046     		mov	r0, r2
 3033 02ac 1946     		mov	r1, r3
 3034 02ae FFF7FEFF 		bl	cos
 3035 02b2 DDE91223 		ldrd	r2, [sp, #72]
 3036 02b6 FFF7FEFF 		bl	__aeabi_dmul
 3037 02ba 0246     		mov	r2, r0
 3038 02bc 0B46     		mov	r3, r1
 3039 02be CDE90423 		strd	r2, [sp, #16]
 3040 02c2 DDE90623 		ldrd	r2, [sp, #24]
 3041 02c6 1046     		mov	r0, r2
 3042 02c8 1946     		mov	r1, r3
 3043 02ca FFF7FEFF 		bl	sin
 3044 02ce DDE91223 		ldrd	r2, [sp, #72]
 3045 02d2 FFF7FEFF 		bl	__aeabi_dmul
 3046 02d6 0246     		mov	r2, r0
 3047 02d8 0B46     		mov	r3, r1
 3048 02da CDE90623 		strd	r2, [sp, #24]
 3049              	.LBE7:
 3050 02de DDE90801 		ldrd	r0, [sp, #32]
 3051 02e2 DDE90423 		ldrd	r2, [sp, #16]
 3052 02e6 FFF7FEFF 		bl	__aeabi_dsub
 3053 02ea 0246     		mov	r2, r0
 3054 02ec 0B46     		mov	r3, r1
 3055 02ee CDE90823 		strd	r2, [sp, #32]
 3056 02f2 DDE90A01 		ldrd	r0, [sp, #40]
 3057 02f6 DDE90623 		ldrd	r2, [sp, #24]
 3058 02fa FFF7FEFF 		bl	__aeabi_dsub
 3059 02fe 0246     		mov	r2, r0
 3060 0300 0B46     		mov	r3, r1
 3061 0302 CDE90A23 		strd	r2, [sp, #40]
 3062 0306 DDE90801 		ldrd	r0, [sp, #32]
 3063 030a 4FF00002 		mov	r2, #0
 3064 030e 584B     		ldr	r3, .L47+16
 3065 0310 FFF7FEFF 		bl	__aeabi_dmul
 3066 0314 0246     		mov	r2, r0
 3067 0316 0B46     		mov	r3, r1
 3068 0318 CDE90823 		strd	r2, [sp, #32]
 3069 031c DDE90A01 		ldrd	r0, [sp, #40]
 3070 0320 4FF00002 		mov	r2, #0
 3071 0324 524B     		ldr	r3, .L47+16
 3072 0326 FFF7FEFF 		bl	__aeabi_dmul
 3073 032a 0246     		mov	r2, r0
 3074 032c 0B46     		mov	r3, r1
 3075 032e CDE90A23 		strd	r2, [sp, #40]
 3076              	.LBB8:
 3077 0332 DDE90823 		ldrd	r2, [sp, #32]
ARM GAS  /tmp/cceVa9lb.s 			page 55


 3078 0336 CDE91023 		strd	r2, [sp, #64]
 3079 033a DDE90A23 		ldrd	r2, [sp, #40]
 3080 033e 0092     		str	r2, [sp]
 3081 0340 83F00043 		eor	r3, r3, #-2147483648
 3082 0344 0193     		str	r3, [sp, #4]
 3083 0346 9DED007B 		vldr.64	d7, [sp]
 3084 034a 8DED087B 		vstr.64	d7, [sp, #32]
 3085 034e DDE91023 		ldrd	r2, [sp, #64]
 3086 0352 CDE90A23 		strd	r2, [sp, #40]
 3087              	.LBE8:
 3088              	.LBE4:
 3089              		.loc 1 296 5 discriminator 3
 3090 0356 DDE90845 		ldrd	r4, [sp, #32]
 3091 035a 9DF99730 		ldrsb	r3, [sp, #151]
 3092 035e 454A     		ldr	r2, .L47+20
 3093 0360 9B00     		lsls	r3, r3, #2
 3094 0362 1344     		add	r3, r3, r2
 3095 0364 1B68     		ldr	r3, [r3]	@ float
 3096 0366 1846     		mov	r0, r3	@ float
 3097 0368 FFF7FEFF 		bl	__aeabi_f2d
 3098 036c 0246     		mov	r2, r0
 3099 036e 0B46     		mov	r3, r1
 3100 0370 2046     		mov	r0, r4
 3101 0372 2946     		mov	r1, r5
 3102 0374 FFF7FEFF 		bl	__aeabi_dmul
 3103 0378 0246     		mov	r2, r0
 3104 037a 0B46     		mov	r3, r1
 3105 037c CDE90823 		strd	r2, [sp, #32]
 3106 0380 DDE90A45 		ldrd	r4, [sp, #40]
 3107 0384 9DF99730 		ldrsb	r3, [sp, #151]
 3108 0388 3A4A     		ldr	r2, .L47+20
 3109 038a 9B00     		lsls	r3, r3, #2
 3110 038c 1344     		add	r3, r3, r2
 3111 038e 1B68     		ldr	r3, [r3]	@ float
 3112 0390 1846     		mov	r0, r3	@ float
 3113 0392 FFF7FEFF 		bl	__aeabi_f2d
 3114 0396 0246     		mov	r2, r0
 3115 0398 0B46     		mov	r3, r1
 3116 039a 2046     		mov	r0, r4
 3117 039c 2946     		mov	r1, r5
 3118 039e FFF7FEFF 		bl	__aeabi_dmul
 3119 03a2 0246     		mov	r2, r0
 3120 03a4 0B46     		mov	r3, r1
 3121 03a6 CDE90A23 		strd	r2, [sp, #40]
 3122              		.loc 1 297 5 discriminator 3
 3123 03aa DDE90C01 		ldrd	r0, [sp, #48]
 3124 03ae DDE90823 		ldrd	r2, [sp, #32]
 3125 03b2 FFF7FEFF 		bl	__aeabi_dadd
 3126 03b6 0246     		mov	r2, r0
 3127 03b8 0B46     		mov	r3, r1
 3128 03ba CDE90C23 		strd	r2, [sp, #48]
 3129 03be DDE90E01 		ldrd	r0, [sp, #56]
 3130 03c2 DDE90A23 		ldrd	r2, [sp, #40]
 3131 03c6 FFF7FEFF 		bl	__aeabi_dadd
 3132 03ca 0246     		mov	r2, r0
 3133 03cc 0B46     		mov	r3, r1
 3134 03ce CDE90E23 		strd	r2, [sp, #56]
ARM GAS  /tmp/cceVa9lb.s 			page 56


 3135              	.LBE3:
 3136              		.loc 1 292 23 discriminator 3
 3137 03d2 9DF99730 		ldrsb	r3, [sp, #151]
 3138 03d6 DBB2     		uxtb	r3, r3
 3139 03d8 0133     		adds	r3, r3, #1
 3140 03da DBB2     		uxtb	r3, r3
 3141 03dc 8DF89730 		strb	r3, [sp, #151]
 3142              	.L43:
 3143              		.loc 1 292 3 discriminator 1
 3144 03e0 9DF99730 		ldrsb	r3, [sp, #151]
 3145 03e4 022B     		cmp	r3, #2
 3146 03e6 7FF7E3AE 		ble	.L44
 3147              		.loc 1 299 3
 3148 03ea DDE90C01 		ldrd	r0, [sp, #48]
 3149 03ee 1CA3     		adr	r3, .L47
 3150 03f0 D3E90023 		ldrd	r2, [r3]
 3151 03f4 FFF7FEFF 		bl	__aeabi_dmul
 3152 03f8 0246     		mov	r2, r0
 3153 03fa 0B46     		mov	r3, r1
 3154 03fc CDE90C23 		strd	r2, [sp, #48]
 3155 0400 DDE90E01 		ldrd	r0, [sp, #56]
 3156 0404 16A3     		adr	r3, .L47
 3157 0406 D3E90023 		ldrd	r2, [r3]
 3158 040a FFF7FEFF 		bl	__aeabi_dmul
 3159 040e 0246     		mov	r2, r0
 3160 0410 0B46     		mov	r3, r1
 3161 0412 CDE90E23 		strd	r2, [sp, #56]
 3162              		.loc 1 300 30
 3163 0416 DDE90E01 		ldrd	r0, [sp, #56]
 3164              		.loc 1 300 26
 3165 041a 13A3     		adr	r3, .L47+8
 3166 041c D3E90023 		ldrd	r2, [r3]
 3167 0420 FFF7FEFF 		bl	__aeabi_dadd
 3168 0424 0246     		mov	r2, r0
 3169 0426 0B46     		mov	r3, r1
 3170              		.loc 1 300 13
 3171 0428 0399     		ldr	r1, [sp, #12]
 3172 042a C1E90223 		strd	r2, [r1, #8]
 3173              		.loc 1 301 32
 3174 042e DDE90C01 		ldrd	r0, [sp, #48]
 3175              		.loc 1 301 28
 3176 0432 4FF00002 		mov	r2, #0
 3177 0436 4FF00003 		mov	r3, #0
 3178 043a FFF7FEFF 		bl	__aeabi_dadd
 3179 043e 0246     		mov	r2, r0
 3180 0440 0B46     		mov	r3, r1
 3181              		.loc 1 301 14
 3182 0442 0399     		ldr	r1, [sp, #12]
 3183 0444 C1E90023 		strd	r2, [r1]
 3184              		.loc 1 304 17
 3185 0448 029B     		ldr	r3, [sp, #8]
 3186 044a D3E90423 		ldrd	r2, [r3, #16]
 3187              		.loc 1 304 12
 3188 044e 0399     		ldr	r1, [sp, #12]
 3189 0450 C1E90423 		strd	r2, [r1, #16]
 3190              		.loc 1 305 1
 3191 0454 00BF     		nop
ARM GAS  /tmp/cceVa9lb.s 			page 57


 3192 0456 27B0     		add	sp, sp, #156
 3193              		.cfi_def_cfa_offset 36
 3194              		@ sp needed
 3195 0458 BDE8F08F 		pop	{r4, r5, r6, r7, r8, r9, r10, fp, pc}
 3196              	.L48:
 3197 045c AFF30080 		.align	3
 3198              	.L47:
 3199 0460 585BB16F 		.word	1873894232
 3200 0464 28525841 		.word	1096307240
 3201 0468 00000000 		.word	0
 3202 046c 80841E41 		.word	1092519040
 3203 0470 0000E0BF 		.word	-1075838976
 3204 0474 00000000 		.word	serie_coeff_proj_mercator
 3205              		.cfi_endproc
 3206              	.LFE70:
 3207              		.size	utm_of_lla_d, .-utm_of_lla_d
 3208              		.section	.text.lla_of_utm_d,"ax",%progbits
 3209              		.align	1
 3210              		.p2align 4,,15
 3211              		.global	lla_of_utm_d
 3212              		.syntax unified
 3213              		.thumb
 3214              		.thumb_func
 3215              		.fpu fpv4-sp-d16
 3216              		.type	lla_of_utm_d, %function
 3217              	lla_of_utm_d:
 3218              	.LFB71:
 3219              		.loc 1 312 1
 3220              		.cfi_startproc
 3221              		@ args = 0, pretend = 0, frame = 136
 3222              		@ frame_needed = 0, uses_anonymous_args = 0
 3223 0000 2DE9F04F 		push	{r4, r5, r6, r7, r8, r9, r10, fp, lr}
 3224              		.cfi_def_cfa_offset 36
 3225              		.cfi_offset 4, -36
 3226              		.cfi_offset 5, -32
 3227              		.cfi_offset 6, -28
 3228              		.cfi_offset 7, -24
 3229              		.cfi_offset 8, -20
 3230              		.cfi_offset 9, -16
 3231              		.cfi_offset 10, -12
 3232              		.cfi_offset 11, -8
 3233              		.cfi_offset 14, -4
 3234 0004 A5B0     		sub	sp, sp, #148
 3235              		.cfi_def_cfa_offset 184
 3236 0006 0590     		str	r0, [sp, #20]
 3237 0008 0491     		str	r1, [sp, #16]
 3238              		.loc 1 313 38
 3239 000a 049B     		ldr	r3, [sp, #16]
 3240 000c D3E90023 		ldrd	r2, [r3]
 3241              		.loc 1 313 22
 3242 0010 CDE90E23 		strd	r2, [sp, #56]
 3243              		.loc 1 313 56
 3244 0014 049B     		ldr	r3, [sp, #16]
 3245 0016 D3E90201 		ldrd	r0, [r3, #8]
 3246              		.loc 1 313 63
 3247 001a 1CA3     		adr	r3, .L52+12
 3248 001c D3E90023 		ldrd	r2, [r3]
ARM GAS  /tmp/cceVa9lb.s 			page 58


 3249 0020 FFF7FEFF 		bl	__aeabi_dsub
 3250 0024 0246     		mov	r2, r0
 3251 0026 0B46     		mov	r3, r1
 3252              		.loc 1 313 22
 3253 0028 CDE91023 		strd	r2, [sp, #64]
 3254              		.loc 1 314 51
 3255 002c 164B     		ldr	r3, .L52+8
 3256 002e 1846     		mov	r0, r3	@ float
 3257 0030 FFF7FEFF 		bl	__aeabi_f2d
 3258 0034 0246     		mov	r2, r0
 3259 0036 0B46     		mov	r3, r1
 3260              		.loc 1 314 10
 3261 0038 11A1     		adr	r1, .L52
 3262 003a D1E90001 		ldrd	r0, [r1]
 3263 003e FFF7FEFF 		bl	__aeabi_ddiv
 3264 0042 0246     		mov	r2, r0
 3265 0044 0B46     		mov	r3, r1
 3266 0046 CDE92023 		strd	r2, [sp, #128]
 3267              		.loc 1 315 3
 3268 004a DDE90E01 		ldrd	r0, [sp, #56]
 3269 004e DDE92023 		ldrd	r2, [sp, #128]
 3270 0052 FFF7FEFF 		bl	__aeabi_dmul
 3271 0056 0246     		mov	r2, r0
 3272 0058 0B46     		mov	r3, r1
 3273 005a CDE90E23 		strd	r2, [sp, #56]
 3274 005e DDE91001 		ldrd	r0, [sp, #64]
 3275 0062 DDE92023 		ldrd	r2, [sp, #128]
 3276 0066 FFF7FEFF 		bl	__aeabi_dmul
 3277 006a 0246     		mov	r2, r0
 3278 006c 0B46     		mov	r3, r1
 3279 006e CDE91023 		strd	r2, [sp, #64]
 3280              		.loc 1 318 9
 3281 0072 0123     		movs	r3, #1
 3282 0074 8DF88F30 		strb	r3, [sp, #143]
 3283              		.loc 1 318 3
 3284 0078 1CE1     		b	.L50
 3285              	.L53:
 3286 007a 00BFAFF3 		.align	3
 3286      0080
 3287              	.L52:
 3288 0080 9E626D88 		.word	-2006097250
 3289 0084 440D853E 		.word	1048907076
 3290 0088 2E927F3F 		.word	1065325102
 3291 008c 00000000 		.word	0
 3292 0090 80841E41 		.word	1092519040
 3293              	.L51:
 3294              	.LBB9:
 3295              		.loc 1 321 5 discriminator 3
 3296 0094 DDE90E45 		ldrd	r4, [sp, #56]
 3297 0098 9DF98F30 		ldrsb	r3, [sp, #143]
 3298 009c 1846     		mov	r0, r3
 3299 009e FFF7FEFF 		bl	__aeabi_i2d
 3300 00a2 0246     		mov	r2, r0
 3301 00a4 0B46     		mov	r3, r1
 3302 00a6 FFF7FEFF 		bl	__aeabi_dadd
 3303 00aa 0246     		mov	r2, r0
 3304 00ac 0B46     		mov	r3, r1
ARM GAS  /tmp/cceVa9lb.s 			page 59


 3305 00ae 2046     		mov	r0, r4
 3306 00b0 2946     		mov	r1, r5
 3307 00b2 FFF7FEFF 		bl	__aeabi_dmul
 3308 00b6 0246     		mov	r2, r0
 3309 00b8 0B46     		mov	r3, r1
 3310 00ba CDE90A23 		strd	r2, [sp, #40]
 3311 00be DDE91045 		ldrd	r4, [sp, #64]
 3312 00c2 9DF98F30 		ldrsb	r3, [sp, #143]
 3313 00c6 1846     		mov	r0, r3
 3314 00c8 FFF7FEFF 		bl	__aeabi_i2d
 3315 00cc 0246     		mov	r2, r0
 3316 00ce 0B46     		mov	r3, r1
 3317 00d0 FFF7FEFF 		bl	__aeabi_dadd
 3318 00d4 0246     		mov	r2, r0
 3319 00d6 0B46     		mov	r3, r1
 3320 00d8 2046     		mov	r0, r4
 3321 00da 2946     		mov	r1, r5
 3322 00dc FFF7FEFF 		bl	__aeabi_dmul
 3323 00e0 0246     		mov	r2, r0
 3324 00e2 0B46     		mov	r3, r1
 3325 00e4 CDE90C23 		strd	r2, [sp, #48]
 3326              	.LBB10:
 3327              	.LBB11:
 3328              		.loc 1 322 5 discriminator 3
 3329 00e8 DDE90A23 		ldrd	r2, [sp, #40]
 3330 00ec CDE91823 		strd	r2, [sp, #96]
 3331 00f0 DDE90C23 		ldrd	r2, [sp, #48]
 3332 00f4 1646     		mov	r6, r2
 3333 00f6 83F00047 		eor	r7, r3, #-2147483648
 3334 00fa CDE90A67 		strd	r6, [sp, #40]
 3335 00fe DDE91823 		ldrd	r2, [sp, #96]
 3336 0102 CDE90C23 		strd	r2, [sp, #48]
 3337              	.LBE11:
 3338 0106 DDE90A23 		ldrd	r2, [sp, #40]
 3339 010a 9046     		mov	r8, r2
 3340 010c 83F00049 		eor	r9, r3, #-2147483648
 3341 0110 CDE90689 		strd	r8, [sp, #24]
 3342 0114 DDE90C23 		ldrd	r2, [sp, #48]
 3343 0118 9246     		mov	r10, r2
 3344 011a 83F0004B 		eor	fp, r3, #-2147483648
 3345 011e CDE908AB 		strd	r10, [sp, #32]
 3346              	.LBB12:
 3347 0122 DDE90A23 		ldrd	r2, [sp, #40]
 3348 0126 1046     		mov	r0, r2
 3349 0128 1946     		mov	r1, r3
 3350 012a FFF7FEFF 		bl	exp
 3351 012e CDE91601 		strd	r0, [sp, #88]
 3352 0132 DDE90C23 		ldrd	r2, [sp, #48]
 3353 0136 1046     		mov	r0, r2
 3354 0138 1946     		mov	r1, r3
 3355 013a FFF7FEFF 		bl	cos
 3356 013e DDE91623 		ldrd	r2, [sp, #88]
 3357 0142 FFF7FEFF 		bl	__aeabi_dmul
 3358 0146 0246     		mov	r2, r0
 3359 0148 0B46     		mov	r3, r1
 3360 014a CDE90A23 		strd	r2, [sp, #40]
 3361 014e DDE90C23 		ldrd	r2, [sp, #48]
ARM GAS  /tmp/cceVa9lb.s 			page 60


 3362 0152 1046     		mov	r0, r2
 3363 0154 1946     		mov	r1, r3
 3364 0156 FFF7FEFF 		bl	sin
 3365 015a DDE91623 		ldrd	r2, [sp, #88]
 3366 015e FFF7FEFF 		bl	__aeabi_dmul
 3367 0162 0246     		mov	r2, r0
 3368 0164 0B46     		mov	r3, r1
 3369 0166 CDE90C23 		strd	r2, [sp, #48]
 3370              	.LBE12:
 3371              	.LBB13:
 3372 016a DDE90623 		ldrd	r2, [sp, #24]
 3373 016e 1046     		mov	r0, r2
 3374 0170 1946     		mov	r1, r3
 3375 0172 FFF7FEFF 		bl	exp
 3376 0176 CDE91401 		strd	r0, [sp, #80]
 3377 017a DDE90823 		ldrd	r2, [sp, #32]
 3378 017e 1046     		mov	r0, r2
 3379 0180 1946     		mov	r1, r3
 3380 0182 FFF7FEFF 		bl	cos
 3381 0186 DDE91423 		ldrd	r2, [sp, #80]
 3382 018a FFF7FEFF 		bl	__aeabi_dmul
 3383 018e 0246     		mov	r2, r0
 3384 0190 0B46     		mov	r3, r1
 3385 0192 CDE90623 		strd	r2, [sp, #24]
 3386 0196 DDE90823 		ldrd	r2, [sp, #32]
 3387 019a 1046     		mov	r0, r2
 3388 019c 1946     		mov	r1, r3
 3389 019e FFF7FEFF 		bl	sin
 3390 01a2 DDE91423 		ldrd	r2, [sp, #80]
 3391 01a6 FFF7FEFF 		bl	__aeabi_dmul
 3392 01aa 0246     		mov	r2, r0
 3393 01ac 0B46     		mov	r3, r1
 3394 01ae CDE90823 		strd	r2, [sp, #32]
 3395              	.LBE13:
 3396 01b2 DDE90A01 		ldrd	r0, [sp, #40]
 3397 01b6 DDE90623 		ldrd	r2, [sp, #24]
 3398 01ba FFF7FEFF 		bl	__aeabi_dsub
 3399 01be 0246     		mov	r2, r0
 3400 01c0 0B46     		mov	r3, r1
 3401 01c2 CDE90A23 		strd	r2, [sp, #40]
 3402 01c6 DDE90C01 		ldrd	r0, [sp, #48]
 3403 01ca DDE90823 		ldrd	r2, [sp, #32]
 3404 01ce FFF7FEFF 		bl	__aeabi_dsub
 3405 01d2 0246     		mov	r2, r0
 3406 01d4 0B46     		mov	r3, r1
 3407 01d6 CDE90C23 		strd	r2, [sp, #48]
 3408 01da DDE90A01 		ldrd	r0, [sp, #40]
 3409 01de 4FF00002 		mov	r2, #0
 3410 01e2 774B     		ldr	r3, .L54+24
 3411 01e4 FFF7FEFF 		bl	__aeabi_dmul
 3412 01e8 0246     		mov	r2, r0
 3413 01ea 0B46     		mov	r3, r1
 3414 01ec CDE90A23 		strd	r2, [sp, #40]
 3415 01f0 DDE90C01 		ldrd	r0, [sp, #48]
 3416 01f4 4FF00002 		mov	r2, #0
 3417 01f8 714B     		ldr	r3, .L54+24
 3418 01fa FFF7FEFF 		bl	__aeabi_dmul
ARM GAS  /tmp/cceVa9lb.s 			page 61


 3419 01fe 0246     		mov	r2, r0
 3420 0200 0B46     		mov	r3, r1
 3421 0202 CDE90C23 		strd	r2, [sp, #48]
 3422              	.LBB14:
 3423 0206 DDE90A23 		ldrd	r2, [sp, #40]
 3424 020a CDE91223 		strd	r2, [sp, #72]
 3425 020e DDE90C23 		ldrd	r2, [sp, #48]
 3426 0212 0292     		str	r2, [sp, #8]
 3427 0214 83F00043 		eor	r3, r3, #-2147483648
 3428 0218 0393     		str	r3, [sp, #12]
 3429 021a 9DED027B 		vldr.64	d7, [sp, #8]
 3430 021e 8DED0A7B 		vstr.64	d7, [sp, #40]
 3431 0222 DDE91223 		ldrd	r2, [sp, #72]
 3432 0226 CDE90C23 		strd	r2, [sp, #48]
 3433              	.LBE14:
 3434              	.LBE10:
 3435              		.loc 1 323 5 discriminator 3
 3436 022a DDE90A45 		ldrd	r4, [sp, #40]
 3437 022e 9DF98F30 		ldrsb	r3, [sp, #143]
 3438 0232 644A     		ldr	r2, .L54+28
 3439 0234 9B00     		lsls	r3, r3, #2
 3440 0236 1344     		add	r3, r3, r2
 3441 0238 1B68     		ldr	r3, [r3]	@ float
 3442 023a 1846     		mov	r0, r3	@ float
 3443 023c FFF7FEFF 		bl	__aeabi_f2d
 3444 0240 0246     		mov	r2, r0
 3445 0242 0B46     		mov	r3, r1
 3446 0244 2046     		mov	r0, r4
 3447 0246 2946     		mov	r1, r5
 3448 0248 FFF7FEFF 		bl	__aeabi_dmul
 3449 024c 0246     		mov	r2, r0
 3450 024e 0B46     		mov	r3, r1
 3451 0250 CDE90A23 		strd	r2, [sp, #40]
 3452 0254 DDE90C45 		ldrd	r4, [sp, #48]
 3453 0258 9DF98F30 		ldrsb	r3, [sp, #143]
 3454 025c 594A     		ldr	r2, .L54+28
 3455 025e 9B00     		lsls	r3, r3, #2
 3456 0260 1344     		add	r3, r3, r2
 3457 0262 1B68     		ldr	r3, [r3]	@ float
 3458 0264 1846     		mov	r0, r3	@ float
 3459 0266 FFF7FEFF 		bl	__aeabi_f2d
 3460 026a 0246     		mov	r2, r0
 3461 026c 0B46     		mov	r3, r1
 3462 026e 2046     		mov	r0, r4
 3463 0270 2946     		mov	r1, r5
 3464 0272 FFF7FEFF 		bl	__aeabi_dmul
 3465 0276 0246     		mov	r2, r0
 3466 0278 0B46     		mov	r3, r1
 3467 027a CDE90C23 		strd	r2, [sp, #48]
 3468              		.loc 1 324 5 discriminator 3
 3469 027e DDE90E01 		ldrd	r0, [sp, #56]
 3470 0282 DDE90A23 		ldrd	r2, [sp, #40]
 3471 0286 FFF7FEFF 		bl	__aeabi_dsub
 3472 028a 0246     		mov	r2, r0
 3473 028c 0B46     		mov	r3, r1
 3474 028e CDE90E23 		strd	r2, [sp, #56]
 3475 0292 DDE91001 		ldrd	r0, [sp, #64]
ARM GAS  /tmp/cceVa9lb.s 			page 62


 3476 0296 DDE90C23 		ldrd	r2, [sp, #48]
 3477 029a FFF7FEFF 		bl	__aeabi_dsub
 3478 029e 0246     		mov	r2, r0
 3479 02a0 0B46     		mov	r3, r1
 3480 02a2 CDE91023 		strd	r2, [sp, #64]
 3481              	.LBE9:
 3482              		.loc 1 318 20 discriminator 3
 3483 02a6 9DF98F30 		ldrsb	r3, [sp, #143]
 3484 02aa DBB2     		uxtb	r3, r3
 3485 02ac 0133     		adds	r3, r3, #1
 3486 02ae DBB2     		uxtb	r3, r3
 3487 02b0 8DF88F30 		strb	r3, [sp, #143]
 3488              	.L50:
 3489              		.loc 1 318 3 discriminator 1
 3490 02b4 9DF98F30 		ldrsb	r3, [sp, #143]
 3491 02b8 012B     		cmp	r3, #1
 3492 02ba 7FF7EBAE 		ble	.L51
 3493              		.loc 1 327 21
 3494 02be 049B     		ldr	r3, [sp, #16]
 3495 02c0 1B7E     		ldrb	r3, [r3, #24]	@ zero_extendqisi2
 3496 02c2 5A1E     		subs	r2, r3, #1
 3497 02c4 1346     		mov	r3, r2
 3498 02c6 5B00     		lsls	r3, r3, #1
 3499 02c8 1344     		add	r3, r3, r2
 3500 02ca 5B00     		lsls	r3, r3, #1
 3501 02cc B13B     		subs	r3, r3, #177
 3502 02ce 1846     		mov	r0, r3
 3503 02d0 FFF7FEFF 		bl	__aeabi_i2d
 3504              		.loc 1 327 10
 3505 02d4 34A3     		adr	r3, .L54
 3506 02d6 D3E90023 		ldrd	r2, [r3]
 3507 02da FFF7FEFF 		bl	__aeabi_dmul
 3508 02de 0246     		mov	r2, r0
 3509 02e0 0B46     		mov	r3, r1
 3510 02e2 CDE91E23 		strd	r2, [sp, #120]
 3511              		.loc 1 328 30
 3512 02e6 DDE91023 		ldrd	r2, [sp, #64]
 3513 02ea 1046     		mov	r0, r2
 3514 02ec 1946     		mov	r1, r3
 3515 02ee FFF7FEFF 		bl	sinh
 3516 02f2 0446     		mov	r4, r0
 3517 02f4 0D46     		mov	r5, r1
 3518              		.loc 1 328 42
 3519 02f6 DDE90E23 		ldrd	r2, [sp, #56]
 3520 02fa 1046     		mov	r0, r2
 3521 02fc 1946     		mov	r1, r3
 3522 02fe FFF7FEFF 		bl	cos
 3523 0302 0246     		mov	r2, r0
 3524 0304 0B46     		mov	r3, r1
 3525              		.loc 1 328 25
 3526 0306 2046     		mov	r0, r4
 3527 0308 2946     		mov	r1, r5
 3528 030a FFF7FEFF 		bl	__aeabi_ddiv
 3529 030e 0246     		mov	r2, r0
 3530 0310 0B46     		mov	r3, r1
 3531 0312 1046     		mov	r0, r2
 3532 0314 1946     		mov	r1, r3
ARM GAS  /tmp/cceVa9lb.s 			page 63


 3533 0316 FFF7FEFF 		bl	atan
 3534              		.loc 1 328 23
 3535 031a DDE91E23 		ldrd	r2, [sp, #120]
 3536 031e FFF7FEFF 		bl	__aeabi_dadd
 3537 0322 0246     		mov	r2, r0
 3538 0324 0B46     		mov	r3, r1
 3539              		.loc 1 328 12
 3540 0326 0599     		ldr	r1, [sp, #20]
 3541 0328 C1E90223 		strd	r2, [r1, #8]
 3542              		.loc 1 329 21
 3543 032c DDE90E23 		ldrd	r2, [sp, #56]
 3544 0330 1046     		mov	r0, r2
 3545 0332 1946     		mov	r1, r3
 3546 0334 FFF7FEFF 		bl	sin
 3547 0338 0446     		mov	r4, r0
 3548 033a 0D46     		mov	r5, r1
 3549              		.loc 1 329 32
 3550 033c DDE91023 		ldrd	r2, [sp, #64]
 3551 0340 1046     		mov	r0, r2
 3552 0342 1946     		mov	r1, r3
 3553 0344 FFF7FEFF 		bl	cosh
 3554 0348 0246     		mov	r2, r0
 3555 034a 0B46     		mov	r3, r1
 3556              		.loc 1 329 16
 3557 034c 2046     		mov	r0, r4
 3558 034e 2946     		mov	r1, r5
 3559 0350 FFF7FEFF 		bl	__aeabi_ddiv
 3560 0354 0246     		mov	r2, r0
 3561 0356 0B46     		mov	r3, r1
 3562 0358 1046     		mov	r0, r2
 3563 035a 1946     		mov	r1, r3
 3564 035c FFF7FEFF 		bl	asin
 3565 0360 CDE91C01 		strd	r0, [sp, #112]
 3566              		.loc 1 330 15
 3567 0364 DDE91C01 		ldrd	r0, [sp, #112]
 3568 0368 FFF7FEFF 		bl	isometric_latitude_fast_d
 3569 036c CDE91A01 		strd	r0, [sp, #104]
 3570              		.loc 1 331 14
 3571 0370 0FA3     		adr	r3, .L54+8
 3572 0372 D3E90023 		ldrd	r2, [r3]
 3573 0376 CDE90023 		strd	r2, [sp]
 3574 037a 0FA3     		adr	r3, .L54+16
 3575 037c D3E90023 		ldrd	r2, [r3]
 3576 0380 DDE91A01 		ldrd	r0, [sp, #104]
 3577 0384 FFF7FEFF 		bl	inverse_isometric_latitude_d
 3578 0388 0246     		mov	r2, r0
 3579 038a 0B46     		mov	r3, r1
 3580              		.loc 1 331 12
 3581 038c 0599     		ldr	r1, [sp, #20]
 3582 038e C1E90023 		strd	r2, [r1]
 3583              		.loc 1 334 17
 3584 0392 049B     		ldr	r3, [sp, #16]
 3585 0394 D3E90423 		ldrd	r2, [r3, #16]
 3586              		.loc 1 334 12
 3587 0398 0599     		ldr	r1, [sp, #20]
 3588 039a C1E90423 		strd	r2, [r1, #16]
 3589              		.loc 1 335 1
ARM GAS  /tmp/cceVa9lb.s 			page 64


 3590 039e 00BF     		nop
 3591 03a0 25B0     		add	sp, sp, #148
 3592              		.cfi_def_cfa_offset 36
 3593              		@ sp needed
 3594 03a2 BDE8F08F 		pop	{r4, r5, r6, r7, r8, r9, r10, fp, pc}
 3595              	.L55:
 3596 03a6 00BF     		.align	3
 3597              	.L54:
 3598 03a8 399D52A2 		.word	-1571644103
 3599 03ac 46DF913F 		.word	1066524486
 3600 03b0 3A8C30E2 		.word	-500134854
 3601 03b4 8E79453E 		.word	1044740494
 3602 03b8 37B2C93D 		.word	1036628535
 3603 03bc 1AF2B43F 		.word	1068823066
 3604 03c0 0000E0BF 		.word	-1075838976
 3605 03c4 00000000 		.word	serie_coeff_proj_mercator_inverse
 3606              		.cfi_endproc
 3607              	.LFE71:
 3608              		.size	lla_of_utm_d, .-lla_of_utm_d
 3609              		.section	.rodata.f.3,"a"
 3610              		.align	3
 3611              		.type	f.3, %object
 3612              		.size	f.3, 8
 3613              	f.3:
 3614 0000 28E1F384 		.word	-2064391896
 3615 0004 5A776B3F 		.word	1064007514
 3616              		.section	.rodata.a.2,"a"
 3617              		.align	3
 3618              		.type	a.2, %object
 3619              		.size	a.2, 8
 3620              	a.2:
 3621 0000 00000040 		.word	1073741824
 3622 0004 A6545841 		.word	1096307878
 3623              		.section	.rodata.f.1,"a"
 3624              		.align	3
 3625              		.type	f.1, %object
 3626              		.size	f.1, 8
 3627              	f.1:
 3628 0000 28E1F384 		.word	-2064391896
 3629 0004 5A776B3F 		.word	1064007514
 3630              		.section	.rodata.a.0,"a"
 3631              		.align	3
 3632              		.type	a.0, %object
 3633              		.size	a.0, 8
 3634              	a.0:
 3635 0000 00000040 		.word	1073741824
 3636 0004 A6545841 		.word	1096307878
 3637              		.text
 3638              	.Letext0:
 3639              		.file 2 "/usr/lib/gcc/arm-none-eabi/10.3.1/include/stdint.h"
 3640              		.file 3 "math/pprz_algebra_double.h"
 3641              		.file 4 "math/pprz_geodetic_double.h"
 3642              		.file 5 "./math/pprz_geodetic_utm.h"
 3643              		.section	.debug_info,"",%progbits
 3644              	.Ldebug_info0:
 3645 0000 CA0C0000 		.4byte	0xcca
 3646 0004 0400     		.2byte	0x4
ARM GAS  /tmp/cceVa9lb.s 			page 65


 3647 0006 00000000 		.4byte	.Ldebug_abbrev0
 3648 000a 04       		.byte	0x4
 3649 000b 01       		.uleb128 0x1
 3650 000c ECB80000 		.4byte	.LASF1584
 3651 0010 0C       		.byte	0xc
 3652 0011 1C090100 		.4byte	.LASF1585
 3653 0015 A5730000 		.4byte	.LASF1586
 3654 0019 00000000 		.4byte	.Ldebug_ranges0+0
 3655 001d 00000000 		.4byte	0
 3656 0021 00000000 		.4byte	.Ldebug_line0
 3657 0025 00000000 		.4byte	.Ldebug_macro0
 3658 0029 02       		.uleb128 0x2
 3659 002a 04       		.byte	0x4
 3660 002b 05       		.byte	0x5
 3661 002c 696E7400 		.ascii	"int\000"
 3662 0030 03       		.uleb128 0x3
 3663 0031 04       		.byte	0x4
 3664 0032 07       		.byte	0x7
 3665 0033 39FD0000 		.4byte	.LASF1520
 3666 0037 03       		.uleb128 0x3
 3667 0038 01       		.byte	0x1
 3668 0039 06       		.byte	0x6
 3669 003a 258A0000 		.4byte	.LASF1521
 3670 003e 03       		.uleb128 0x3
 3671 003f 01       		.byte	0x1
 3672 0040 08       		.byte	0x8
 3673 0041 A11F0000 		.4byte	.LASF1522
 3674 0045 03       		.uleb128 0x3
 3675 0046 02       		.byte	0x2
 3676 0047 05       		.byte	0x5
 3677 0048 DD000100 		.4byte	.LASF1523
 3678 004c 03       		.uleb128 0x3
 3679 004d 02       		.byte	0x2
 3680 004e 07       		.byte	0x7
 3681 004f EE880000 		.4byte	.LASF1524
 3682 0053 03       		.uleb128 0x3
 3683 0054 04       		.byte	0x4
 3684 0055 05       		.byte	0x5
 3685 0056 C8A30000 		.4byte	.LASF1525
 3686 005a 03       		.uleb128 0x3
 3687 005b 04       		.byte	0x4
 3688 005c 07       		.byte	0x7
 3689 005d AFF50000 		.4byte	.LASF1526
 3690 0061 03       		.uleb128 0x3
 3691 0062 08       		.byte	0x8
 3692 0063 05       		.byte	0x5
 3693 0064 90EE0000 		.4byte	.LASF1527
 3694 0068 03       		.uleb128 0x3
 3695 0069 08       		.byte	0x8
 3696 006a 07       		.byte	0x7
 3697 006b 1BE10000 		.4byte	.LASF1528
 3698 006f 03       		.uleb128 0x3
 3699 0070 01       		.byte	0x1
 3700 0071 08       		.byte	0x8
 3701 0072 25BB0000 		.4byte	.LASF939
 3702 0076 04       		.uleb128 0x4
 3703 0077 0D810000 		.4byte	.LASF1529
ARM GAS  /tmp/cceVa9lb.s 			page 66


 3704 007b 02       		.byte	0x2
 3705 007c 22       		.byte	0x22
 3706 007d 17       		.byte	0x17
 3707 007e 37000000 		.4byte	0x37
 3708 0082 04       		.uleb128 0x4
 3709 0083 B4580000 		.4byte	.LASF1530
 3710 0087 02       		.byte	0x2
 3711 0088 2E       		.byte	0x2e
 3712 0089 18       		.byte	0x18
 3713 008a 3E000000 		.4byte	0x3e
 3714 008e 03       		.uleb128 0x3
 3715 008f 04       		.byte	0x4
 3716 0090 04       		.byte	0x4
 3717 0091 C13E0000 		.4byte	.LASF1531
 3718 0095 05       		.uleb128 0x5
 3719 0096 8E000000 		.4byte	0x8e
 3720 009a 03       		.uleb128 0x3
 3721 009b 08       		.byte	0x8
 3722 009c 04       		.byte	0x4
 3723 009d 36CD0000 		.4byte	.LASF1532
 3724 00a1 05       		.uleb128 0x5
 3725 00a2 9A000000 		.4byte	0x9a
 3726 00a6 06       		.uleb128 0x6
 3727 00a7 0BB00000 		.4byte	.LASF1533
 3728 00ab 10       		.byte	0x10
 3729 00ac 03       		.byte	0x3
 3730 00ad 29       		.byte	0x29
 3731 00ae 08       		.byte	0x8
 3732 00af CA000000 		.4byte	0xca
 3733 00b3 07       		.uleb128 0x7
 3734 00b4 7800     		.ascii	"x\000"
 3735 00b6 03       		.byte	0x3
 3736 00b7 2A       		.byte	0x2a
 3737 00b8 0A       		.byte	0xa
 3738 00b9 9A000000 		.4byte	0x9a
 3739 00bd 00       		.byte	0
 3740 00be 07       		.uleb128 0x7
 3741 00bf 7900     		.ascii	"y\000"
 3742 00c1 03       		.byte	0x3
 3743 00c2 2B       		.byte	0x2b
 3744 00c3 0A       		.byte	0xa
 3745 00c4 9A000000 		.4byte	0x9a
 3746 00c8 08       		.byte	0x8
 3747 00c9 00       		.byte	0
 3748 00ca 08       		.uleb128 0x8
 3749 00cb 9A000000 		.4byte	0x9a
 3750 00cf DA000000 		.4byte	0xda
 3751 00d3 09       		.uleb128 0x9
 3752 00d4 30000000 		.4byte	0x30
 3753 00d8 08       		.byte	0x8
 3754 00d9 00       		.byte	0
 3755 00da 06       		.uleb128 0x6
 3756 00db 93E10000 		.4byte	.LASF1534
 3757 00df 48       		.byte	0x48
 3758 00e0 03       		.byte	0x3
 3759 00e1 45       		.byte	0x45
 3760 00e2 08       		.byte	0x8
ARM GAS  /tmp/cceVa9lb.s 			page 67


 3761 00e3 F3000000 		.4byte	0xf3
 3762 00e7 07       		.uleb128 0x7
 3763 00e8 6D00     		.ascii	"m\000"
 3764 00ea 03       		.byte	0x3
 3765 00eb 46       		.byte	0x46
 3766 00ec 0A       		.byte	0xa
 3767 00ed CA000000 		.4byte	0xca
 3768 00f1 00       		.byte	0
 3769 00f2 00       		.byte	0
 3770 00f3 06       		.uleb128 0x6
 3771 00f4 1DA60000 		.4byte	.LASF1535
 3772 00f8 18       		.byte	0x18
 3773 00f9 04       		.byte	0x4
 3774 00fa 31       		.byte	0x31
 3775 00fb 08       		.byte	0x8
 3776 00fc 22010000 		.4byte	0x122
 3777 0100 07       		.uleb128 0x7
 3778 0101 7800     		.ascii	"x\000"
 3779 0103 04       		.byte	0x4
 3780 0104 32       		.byte	0x32
 3781 0105 0A       		.byte	0xa
 3782 0106 9A000000 		.4byte	0x9a
 3783 010a 00       		.byte	0
 3784 010b 07       		.uleb128 0x7
 3785 010c 7900     		.ascii	"y\000"
 3786 010e 04       		.byte	0x4
 3787 010f 33       		.byte	0x33
 3788 0110 0A       		.byte	0xa
 3789 0111 9A000000 		.4byte	0x9a
 3790 0115 08       		.byte	0x8
 3791 0116 07       		.uleb128 0x7
 3792 0117 7A00     		.ascii	"z\000"
 3793 0119 04       		.byte	0x4
 3794 011a 34       		.byte	0x34
 3795 011b 0A       		.byte	0xa
 3796 011c 9A000000 		.4byte	0x9a
 3797 0120 10       		.byte	0x10
 3798 0121 00       		.byte	0
 3799 0122 06       		.uleb128 0x6
 3800 0123 B1D70000 		.4byte	.LASF1536
 3801 0127 18       		.byte	0x18
 3802 0128 04       		.byte	0x4
 3803 0129 3A       		.byte	0x3a
 3804 012a 08       		.byte	0x8
 3805 012b 57010000 		.4byte	0x157
 3806 012f 07       		.uleb128 0x7
 3807 0130 6C617400 		.ascii	"lat\000"
 3808 0134 04       		.byte	0x4
 3809 0135 3B       		.byte	0x3b
 3810 0136 0A       		.byte	0xa
 3811 0137 9A000000 		.4byte	0x9a
 3812 013b 00       		.byte	0
 3813 013c 07       		.uleb128 0x7
 3814 013d 6C6F6E00 		.ascii	"lon\000"
 3815 0141 04       		.byte	0x4
 3816 0142 3C       		.byte	0x3c
 3817 0143 0A       		.byte	0xa
ARM GAS  /tmp/cceVa9lb.s 			page 68


 3818 0144 9A000000 		.4byte	0x9a
 3819 0148 08       		.byte	0x8
 3820 0149 07       		.uleb128 0x7
 3821 014a 616C7400 		.ascii	"alt\000"
 3822 014e 04       		.byte	0x4
 3823 014f 3D       		.byte	0x3d
 3824 0150 0A       		.byte	0xa
 3825 0151 9A000000 		.4byte	0x9a
 3826 0155 10       		.byte	0x10
 3827 0156 00       		.byte	0
 3828 0157 06       		.uleb128 0x6
 3829 0158 954C0000 		.4byte	.LASF1537
 3830 015c 18       		.byte	0x18
 3831 015d 04       		.byte	0x4
 3832 015e 43       		.byte	0x43
 3833 015f 08       		.byte	0x8
 3834 0160 86010000 		.4byte	0x186
 3835 0164 07       		.uleb128 0x7
 3836 0165 7800     		.ascii	"x\000"
 3837 0167 04       		.byte	0x4
 3838 0168 44       		.byte	0x44
 3839 0169 0A       		.byte	0xa
 3840 016a 9A000000 		.4byte	0x9a
 3841 016e 00       		.byte	0
 3842 016f 07       		.uleb128 0x7
 3843 0170 7900     		.ascii	"y\000"
 3844 0172 04       		.byte	0x4
 3845 0173 45       		.byte	0x45
 3846 0174 0A       		.byte	0xa
 3847 0175 9A000000 		.4byte	0x9a
 3848 0179 08       		.byte	0x8
 3849 017a 07       		.uleb128 0x7
 3850 017b 7A00     		.ascii	"z\000"
 3851 017d 04       		.byte	0x4
 3852 017e 46       		.byte	0x46
 3853 017f 0A       		.byte	0xa
 3854 0180 9A000000 		.4byte	0x9a
 3855 0184 10       		.byte	0x10
 3856 0185 00       		.byte	0
 3857 0186 06       		.uleb128 0x6
 3858 0187 9B010100 		.4byte	.LASF1538
 3859 018b 18       		.byte	0x18
 3860 018c 04       		.byte	0x4
 3861 018d 4C       		.byte	0x4c
 3862 018e 08       		.byte	0x8
 3863 018f B5010000 		.4byte	0x1b5
 3864 0193 07       		.uleb128 0x7
 3865 0194 7800     		.ascii	"x\000"
 3866 0196 04       		.byte	0x4
 3867 0197 4D       		.byte	0x4d
 3868 0198 0A       		.byte	0xa
 3869 0199 9A000000 		.4byte	0x9a
 3870 019d 00       		.byte	0
 3871 019e 07       		.uleb128 0x7
 3872 019f 7900     		.ascii	"y\000"
 3873 01a1 04       		.byte	0x4
 3874 01a2 4E       		.byte	0x4e
ARM GAS  /tmp/cceVa9lb.s 			page 69


 3875 01a3 0A       		.byte	0xa
 3876 01a4 9A000000 		.4byte	0x9a
 3877 01a8 08       		.byte	0x8
 3878 01a9 07       		.uleb128 0x7
 3879 01aa 7A00     		.ascii	"z\000"
 3880 01ac 04       		.byte	0x4
 3881 01ad 4F       		.byte	0x4f
 3882 01ae 0A       		.byte	0xa
 3883 01af 9A000000 		.4byte	0x9a
 3884 01b3 10       		.byte	0x10
 3885 01b4 00       		.byte	0
 3886 01b5 06       		.uleb128 0x6
 3887 01b6 7D750000 		.4byte	.LASF1539
 3888 01ba 20       		.byte	0x20
 3889 01bb 04       		.byte	0x4
 3890 01bc 55       		.byte	0x55
 3891 01bd 08       		.byte	0x8
 3892 01be F7010000 		.4byte	0x1f7
 3893 01c2 0A       		.uleb128 0xa
 3894 01c3 1B4E0000 		.4byte	.LASF1540
 3895 01c7 04       		.byte	0x4
 3896 01c8 56       		.byte	0x56
 3897 01c9 0A       		.byte	0xa
 3898 01ca 9A000000 		.4byte	0x9a
 3899 01ce 00       		.byte	0
 3900 01cf 0A       		.uleb128 0xa
 3901 01d0 47420000 		.4byte	.LASF1541
 3902 01d4 04       		.byte	0x4
 3903 01d5 57       		.byte	0x57
 3904 01d6 0A       		.byte	0xa
 3905 01d7 9A000000 		.4byte	0x9a
 3906 01db 08       		.byte	0x8
 3907 01dc 07       		.uleb128 0x7
 3908 01dd 616C7400 		.ascii	"alt\000"
 3909 01e1 04       		.byte	0x4
 3910 01e2 58       		.byte	0x58
 3911 01e3 0A       		.byte	0xa
 3912 01e4 9A000000 		.4byte	0x9a
 3913 01e8 10       		.byte	0x10
 3914 01e9 0A       		.uleb128 0xa
 3915 01ea 2D180000 		.4byte	.LASF1542
 3916 01ee 04       		.byte	0x4
 3917 01ef 59       		.byte	0x59
 3918 01f0 0B       		.byte	0xb
 3919 01f1 82000000 		.4byte	0x82
 3920 01f5 18       		.byte	0x18
 3921 01f6 00       		.byte	0
 3922 01f7 06       		.uleb128 0x6
 3923 01f8 925C0000 		.4byte	.LASF1543
 3924 01fc 80       		.byte	0x80
 3925 01fd 04       		.byte	0x4
 3926 01fe 61       		.byte	0x61
 3927 01ff 08       		.byte	0x8
 3928 0200 39020000 		.4byte	0x239
 3929 0204 0A       		.uleb128 0xa
 3930 0205 A1360000 		.4byte	.LASF1544
 3931 0209 04       		.byte	0x4
ARM GAS  /tmp/cceVa9lb.s 			page 70


 3932 020a 62       		.byte	0x62
 3933 020b 16       		.byte	0x16
 3934 020c F3000000 		.4byte	0xf3
 3935 0210 00       		.byte	0
 3936 0211 07       		.uleb128 0x7
 3937 0212 6C6C6100 		.ascii	"lla\000"
 3938 0216 04       		.byte	0x4
 3939 0217 63       		.byte	0x63
 3940 0218 16       		.byte	0x16
 3941 0219 22010000 		.4byte	0x122
 3942 021d 18       		.byte	0x18
 3943 021e 0A       		.uleb128 0xa
 3944 021f F42E0000 		.4byte	.LASF1545
 3945 0223 04       		.byte	0x4
 3946 0224 64       		.byte	0x64
 3947 0225 15       		.byte	0x15
 3948 0226 DA000000 		.4byte	0xda
 3949 022a 30       		.byte	0x30
 3950 022b 0A       		.uleb128 0xa
 3951 022c DCE70000 		.4byte	.LASF1546
 3952 0230 04       		.byte	0x4
 3953 0231 65       		.byte	0x65
 3954 0232 0A       		.byte	0xa
 3955 0233 9A000000 		.4byte	0x9a
 3956 0237 78       		.byte	0x78
 3957 0238 00       		.byte	0
 3958 0239 08       		.uleb128 0x8
 3959 023a 95000000 		.4byte	0x95
 3960 023e 49020000 		.4byte	0x249
 3961 0242 09       		.uleb128 0x9
 3962 0243 30000000 		.4byte	0x30
 3963 0247 04       		.byte	0x4
 3964 0248 00       		.byte	0
 3965 0249 05       		.uleb128 0x5
 3966 024a 39020000 		.4byte	0x239
 3967 024e 0B       		.uleb128 0xb
 3968 024f 65140000 		.4byte	.LASF1547
 3969 0253 05       		.byte	0x5
 3970 0254 33       		.byte	0x33
 3971 0255 14       		.byte	0x14
 3972 0256 49020000 		.4byte	0x249
 3973 025a 05       		.uleb128 0x5
 3974 025b 03       		.byte	0x3
 3975 025c 00000000 		.4byte	serie_coeff_proj_mercator
 3976 0260 0B       		.uleb128 0xb
 3977 0261 198C0000 		.4byte	.LASF1548
 3978 0265 05       		.byte	0x5
 3979 0266 3B       		.byte	0x3b
 3980 0267 14       		.byte	0x14
 3981 0268 49020000 		.4byte	0x249
 3982 026c 05       		.uleb128 0x5
 3983 026d 03       		.byte	0x3
 3984 026e 00000000 		.4byte	serie_coeff_proj_mercator_inverse
 3985 0272 0C       		.uleb128 0xc
 3986 0273 C73E0000 		.4byte	.LASF1552
 3987 0277 01       		.byte	0x1
 3988 0278 3701     		.2byte	0x137
ARM GAS  /tmp/cceVa9lb.s 			page 71


 3989 027a 06       		.byte	0x6
 3990 027b 00000000 		.4byte	.LFB71
 3991 027f C8030000 		.4byte	.LFE71-.LFB71
 3992 0283 01       		.uleb128 0x1
 3993 0284 9C       		.byte	0x9c
 3994 0285 B3030000 		.4byte	0x3b3
 3995 0289 0D       		.uleb128 0xd
 3996 028a 6C6C6100 		.ascii	"lla\000"
 3997 028e 01       		.byte	0x1
 3998 028f 3701     		.2byte	0x137
 3999 0291 25       		.byte	0x25
 4000 0292 B3030000 		.4byte	0x3b3
 4001 0296 03       		.uleb128 0x3
 4002 0297 91       		.byte	0x91
 4003 0298 DC7E     		.sleb128 -164
 4004 029a 0D       		.uleb128 0xd
 4005 029b 75746D00 		.ascii	"utm\000"
 4006 029f 01       		.byte	0x1
 4007 02a0 3701     		.2byte	0x137
 4008 02a2 3C       		.byte	0x3c
 4009 02a3 B9030000 		.4byte	0x3b9
 4010 02a7 03       		.uleb128 0x3
 4011 02a8 91       		.byte	0x91
 4012 02a9 D87E     		.sleb128 -168
 4013 02ab 0E       		.uleb128 0xe
 4014 02ac 7A00     		.ascii	"z\000"
 4015 02ae 01       		.byte	0x1
 4016 02af 3901     		.2byte	0x139
 4017 02b1 16       		.byte	0x16
 4018 02b2 A6000000 		.4byte	0xa6
 4019 02b6 03       		.uleb128 0x3
 4020 02b7 91       		.byte	0x91
 4021 02b8 807F     		.sleb128 -128
 4022 02ba 0F       		.uleb128 0xf
 4023 02bb A73C0000 		.4byte	.LASF1549
 4024 02bf 01       		.byte	0x1
 4025 02c0 3A01     		.2byte	0x13a
 4026 02c2 0A       		.byte	0xa
 4027 02c3 9A000000 		.4byte	0x9a
 4028 02c7 02       		.uleb128 0x2
 4029 02c8 91       		.byte	0x91
 4030 02c9 48       		.sleb128 -56
 4031 02ca 0E       		.uleb128 0xe
 4032 02cb 6B00     		.ascii	"k\000"
 4033 02cd 01       		.byte	0x1
 4034 02ce 3D01     		.2byte	0x13d
 4035 02d0 0A       		.byte	0xa
 4036 02d1 76000000 		.4byte	0x76
 4037 02d5 02       		.uleb128 0x2
 4038 02d6 91       		.byte	0x91
 4039 02d7 57       		.sleb128 -41
 4040 02d8 0F       		.uleb128 0xf
 4041 02d9 156B0000 		.4byte	.LASF1550
 4042 02dd 01       		.byte	0x1
 4043 02de 4701     		.2byte	0x147
 4044 02e0 0A       		.byte	0xa
 4045 02e1 9A000000 		.4byte	0x9a
ARM GAS  /tmp/cceVa9lb.s 			page 72


 4046 02e5 02       		.uleb128 0x2
 4047 02e6 91       		.byte	0x91
 4048 02e7 40       		.sleb128 -64
 4049 02e8 0E       		.uleb128 0xe
 4050 02e9 70686900 		.ascii	"phi\000"
 4051 02ed 01       		.byte	0x1
 4052 02ee 4901     		.2byte	0x149
 4053 02f0 0A       		.byte	0xa
 4054 02f1 9A000000 		.4byte	0x9a
 4055 02f5 03       		.uleb128 0x3
 4056 02f6 91       		.byte	0x91
 4057 02f7 B87F     		.sleb128 -72
 4058 02f9 0E       		.uleb128 0xe
 4059 02fa 696C00   		.ascii	"il\000"
 4060 02fd 01       		.byte	0x1
 4061 02fe 4A01     		.2byte	0x14a
 4062 0300 0A       		.byte	0xa
 4063 0301 9A000000 		.4byte	0x9a
 4064 0305 03       		.uleb128 0x3
 4065 0306 91       		.byte	0x91
 4066 0307 B07F     		.sleb128 -80
 4067 0309 10       		.uleb128 0x10
 4068 030a 94000000 		.4byte	.LBB9
 4069 030e 12020000 		.4byte	.LBE9-.LBB9
 4070 0312 0E       		.uleb128 0xe
 4071 0313 7A5F00   		.ascii	"z_\000"
 4072 0316 01       		.byte	0x1
 4073 0317 4001     		.2byte	0x140
 4074 0319 18       		.byte	0x18
 4075 031a A6000000 		.4byte	0xa6
 4076 031e 03       		.uleb128 0x3
 4077 031f 91       		.byte	0x91
 4078 0320 F07E     		.sleb128 -144
 4079 0322 10       		.uleb128 0x10
 4080 0323 E8000000 		.4byte	.LBB10
 4081 0327 42010000 		.4byte	.LBE10-.LBB10
 4082 032b 0F       		.uleb128 0xf
 4083 032c 2F380000 		.4byte	.LASF1551
 4084 0330 01       		.byte	0x1
 4085 0331 4201     		.2byte	0x142
 4086 0333 05       		.byte	0x5
 4087 0334 A6000000 		.4byte	0xa6
 4088 0338 03       		.uleb128 0x3
 4089 0339 91       		.byte	0x91
 4090 033a E07E     		.sleb128 -160
 4091 033c 11       		.uleb128 0x11
 4092 033d E8000000 		.4byte	.LBB11
 4093 0341 1E000000 		.4byte	.LBE11-.LBB11
 4094 0345 5B030000 		.4byte	0x35b
 4095 0349 0E       		.uleb128 0xe
 4096 034a 746D7000 		.ascii	"tmp\000"
 4097 034e 01       		.byte	0x1
 4098 034f 4201     		.2byte	0x142
 4099 0351 05       		.byte	0x5
 4100 0352 9A000000 		.4byte	0x9a
 4101 0356 03       		.uleb128 0x3
 4102 0357 91       		.byte	0x91
ARM GAS  /tmp/cceVa9lb.s 			page 73


 4103 0358 A87F     		.sleb128 -88
 4104 035a 00       		.byte	0
 4105 035b 11       		.uleb128 0x11
 4106 035c 22010000 		.4byte	.LBB12
 4107 0360 48000000 		.4byte	.LBE12-.LBB12
 4108 0364 78030000 		.4byte	0x378
 4109 0368 0E       		.uleb128 0xe
 4110 0369 6500     		.ascii	"e\000"
 4111 036b 01       		.byte	0x1
 4112 036c 4201     		.2byte	0x142
 4113 036e 05       		.byte	0x5
 4114 036f 9A000000 		.4byte	0x9a
 4115 0373 03       		.uleb128 0x3
 4116 0374 91       		.byte	0x91
 4117 0375 A07F     		.sleb128 -96
 4118 0377 00       		.byte	0
 4119 0378 11       		.uleb128 0x11
 4120 0379 6A010000 		.4byte	.LBB13
 4121 037d 48000000 		.4byte	.LBE13-.LBB13
 4122 0381 95030000 		.4byte	0x395
 4123 0385 0E       		.uleb128 0xe
 4124 0386 6500     		.ascii	"e\000"
 4125 0388 01       		.byte	0x1
 4126 0389 4201     		.2byte	0x142
 4127 038b 05       		.byte	0x5
 4128 038c 9A000000 		.4byte	0x9a
 4129 0390 03       		.uleb128 0x3
 4130 0391 91       		.byte	0x91
 4131 0392 987F     		.sleb128 -104
 4132 0394 00       		.byte	0
 4133 0395 10       		.uleb128 0x10
 4134 0396 06020000 		.4byte	.LBB14
 4135 039a 24000000 		.4byte	.LBE14-.LBB14
 4136 039e 0E       		.uleb128 0xe
 4137 039f 746D7000 		.ascii	"tmp\000"
 4138 03a3 01       		.byte	0x1
 4139 03a4 4201     		.2byte	0x142
 4140 03a6 05       		.byte	0x5
 4141 03a7 9A000000 		.4byte	0x9a
 4142 03ab 03       		.uleb128 0x3
 4143 03ac 91       		.byte	0x91
 4144 03ad 907F     		.sleb128 -112
 4145 03af 00       		.byte	0
 4146 03b0 00       		.byte	0
 4147 03b1 00       		.byte	0
 4148 03b2 00       		.byte	0
 4149 03b3 12       		.uleb128 0x12
 4150 03b4 04       		.byte	0x4
 4151 03b5 22010000 		.4byte	0x122
 4152 03b9 12       		.uleb128 0x12
 4153 03ba 04       		.byte	0x4
 4154 03bb B5010000 		.4byte	0x1b5
 4155 03bf 0C       		.uleb128 0xc
 4156 03c0 67B00000 		.4byte	.LASF1553
 4157 03c4 01       		.byte	0x1
 4158 03c5 1401     		.2byte	0x114
 4159 03c7 06       		.byte	0x6
ARM GAS  /tmp/cceVa9lb.s 			page 74


 4160 03c8 00000000 		.4byte	.LFB70
 4161 03cc 78040000 		.4byte	.LFE70-.LFB70
 4162 03d0 01       		.uleb128 0x1
 4163 03d1 9C       		.byte	0x9c
 4164 03d2 21050000 		.4byte	0x521
 4165 03d6 0D       		.uleb128 0xd
 4166 03d7 75746D00 		.ascii	"utm\000"
 4167 03db 01       		.byte	0x1
 4168 03dc 1401     		.2byte	0x114
 4169 03de 25       		.byte	0x25
 4170 03df B9030000 		.4byte	0x3b9
 4171 03e3 03       		.uleb128 0x3
 4172 03e4 91       		.byte	0x91
 4173 03e5 CC7E     		.sleb128 -180
 4174 03e7 0D       		.uleb128 0xd
 4175 03e8 6C6C6100 		.ascii	"lla\000"
 4176 03ec 01       		.byte	0x1
 4177 03ed 1401     		.2byte	0x114
 4178 03ef 3C       		.byte	0x3c
 4179 03f0 B3030000 		.4byte	0x3b3
 4180 03f4 03       		.uleb128 0x3
 4181 03f5 91       		.byte	0x91
 4182 03f6 C87E     		.sleb128 -184
 4183 03f8 0F       		.uleb128 0xf
 4184 03f9 156B0000 		.4byte	.LASF1550
 4185 03fd 01       		.byte	0x1
 4186 03fe 1B01     		.2byte	0x11b
 4187 0400 0A       		.byte	0xa
 4188 0401 9A000000 		.4byte	0x9a
 4189 0405 02       		.uleb128 0x2
 4190 0406 91       		.byte	0x91
 4191 0407 48       		.sleb128 -56
 4192 0408 0E       		.uleb128 0xe
 4193 0409 6C6C00   		.ascii	"ll\000"
 4194 040c 01       		.byte	0x1
 4195 040d 1C01     		.2byte	0x11c
 4196 040f 0A       		.byte	0xa
 4197 0410 9A000000 		.4byte	0x9a
 4198 0414 02       		.uleb128 0x2
 4199 0415 91       		.byte	0x91
 4200 0416 40       		.sleb128 -64
 4201 0417 0E       		.uleb128 0xe
 4202 0418 646C00   		.ascii	"dl\000"
 4203 041b 01       		.byte	0x1
 4204 041c 1D01     		.2byte	0x11d
 4205 041e 0A       		.byte	0xa
 4206 041f 9A000000 		.4byte	0x9a
 4207 0423 03       		.uleb128 0x3
 4208 0424 91       		.byte	0x91
 4209 0425 B87F     		.sleb128 -72
 4210 0427 0F       		.uleb128 0xf
 4211 0428 BF140000 		.4byte	.LASF1554
 4212 042c 01       		.byte	0x1
 4213 042d 1E01     		.2byte	0x11e
 4214 042f 0A       		.byte	0xa
 4215 0430 9A000000 		.4byte	0x9a
 4216 0434 03       		.uleb128 0x3
ARM GAS  /tmp/cceVa9lb.s 			page 75


 4217 0435 91       		.byte	0x91
 4218 0436 B07F     		.sleb128 -80
 4219 0438 0E       		.uleb128 0xe
 4220 0439 6C6C5F00 		.ascii	"ll_\000"
 4221 043d 01       		.byte	0x1
 4222 043e 1F01     		.2byte	0x11f
 4223 0440 0A       		.byte	0xa
 4224 0441 9A000000 		.4byte	0x9a
 4225 0445 03       		.uleb128 0x3
 4226 0446 91       		.byte	0x91
 4227 0447 A87F     		.sleb128 -88
 4228 0449 0F       		.uleb128 0xf
 4229 044a 32880000 		.4byte	.LASF1555
 4230 044e 01       		.byte	0x1
 4231 044f 2001     		.2byte	0x120
 4232 0451 0A       		.byte	0xa
 4233 0452 9A000000 		.4byte	0x9a
 4234 0456 03       		.uleb128 0x3
 4235 0457 91       		.byte	0x91
 4236 0458 A07F     		.sleb128 -96
 4237 045a 0E       		.uleb128 0xe
 4238 045b 7A5F00   		.ascii	"z_\000"
 4239 045e 01       		.byte	0x1
 4240 045f 2101     		.2byte	0x121
 4241 0461 16       		.byte	0x16
 4242 0462 A6000000 		.4byte	0xa6
 4243 0466 03       		.uleb128 0x3
 4244 0467 91       		.byte	0x91
 4245 0468 F07E     		.sleb128 -144
 4246 046a 0E       		.uleb128 0xe
 4247 046b 6B00     		.ascii	"k\000"
 4248 046d 01       		.byte	0x1
 4249 046e 2301     		.2byte	0x123
 4250 0470 0A       		.byte	0xa
 4251 0471 76000000 		.4byte	0x76
 4252 0475 02       		.uleb128 0x2
 4253 0476 91       		.byte	0x91
 4254 0477 57       		.sleb128 -41
 4255 0478 10       		.uleb128 0x10
 4256 0479 B0010000 		.4byte	.LBB3
 4257 047d 22020000 		.4byte	.LBE3-.LBB3
 4258 0481 0E       		.uleb128 0xe
 4259 0482 7A00     		.ascii	"z\000"
 4260 0484 01       		.byte	0x1
 4261 0485 2501     		.2byte	0x125
 4262 0487 18       		.byte	0x18
 4263 0488 A6000000 		.4byte	0xa6
 4264 048c 03       		.uleb128 0x3
 4265 048d 91       		.byte	0x91
 4266 048e E07E     		.sleb128 -160
 4267 0490 10       		.uleb128 0x10
 4268 0491 14020000 		.4byte	.LBB4
 4269 0495 42010000 		.4byte	.LBE4-.LBB4
 4270 0499 0F       		.uleb128 0xf
 4271 049a 2F380000 		.4byte	.LASF1551
 4272 049e 01       		.byte	0x1
 4273 049f 2701     		.2byte	0x127
ARM GAS  /tmp/cceVa9lb.s 			page 76


 4274 04a1 05       		.byte	0x5
 4275 04a2 A6000000 		.4byte	0xa6
 4276 04a6 03       		.uleb128 0x3
 4277 04a7 91       		.byte	0x91
 4278 04a8 D07E     		.sleb128 -176
 4279 04aa 11       		.uleb128 0x11
 4280 04ab 14020000 		.4byte	.LBB5
 4281 04af 1E000000 		.4byte	.LBE5-.LBB5
 4282 04b3 C9040000 		.4byte	0x4c9
 4283 04b7 0E       		.uleb128 0xe
 4284 04b8 746D7000 		.ascii	"tmp\000"
 4285 04bc 01       		.byte	0x1
 4286 04bd 2701     		.2byte	0x127
 4287 04bf 05       		.byte	0x5
 4288 04c0 9A000000 		.4byte	0x9a
 4289 04c4 03       		.uleb128 0x3
 4290 04c5 91       		.byte	0x91
 4291 04c6 987F     		.sleb128 -104
 4292 04c8 00       		.byte	0
 4293 04c9 11       		.uleb128 0x11
 4294 04ca 4E020000 		.4byte	.LBB6
 4295 04ce 48000000 		.4byte	.LBE6-.LBB6
 4296 04d2 E6040000 		.4byte	0x4e6
 4297 04d6 0E       		.uleb128 0xe
 4298 04d7 6500     		.ascii	"e\000"
 4299 04d9 01       		.byte	0x1
 4300 04da 2701     		.2byte	0x127
 4301 04dc 05       		.byte	0x5
 4302 04dd 9A000000 		.4byte	0x9a
 4303 04e1 03       		.uleb128 0x3
 4304 04e2 91       		.byte	0x91
 4305 04e3 907F     		.sleb128 -112
 4306 04e5 00       		.byte	0
 4307 04e6 11       		.uleb128 0x11
 4308 04e7 96020000 		.4byte	.LBB7
 4309 04eb 48000000 		.4byte	.LBE7-.LBB7
 4310 04ef 03050000 		.4byte	0x503
 4311 04f3 0E       		.uleb128 0xe
 4312 04f4 6500     		.ascii	"e\000"
 4313 04f6 01       		.byte	0x1
 4314 04f7 2701     		.2byte	0x127
 4315 04f9 05       		.byte	0x5
 4316 04fa 9A000000 		.4byte	0x9a
 4317 04fe 03       		.uleb128 0x3
 4318 04ff 91       		.byte	0x91
 4319 0500 887F     		.sleb128 -120
 4320 0502 00       		.byte	0
 4321 0503 10       		.uleb128 0x10
 4322 0504 32030000 		.4byte	.LBB8
 4323 0508 24000000 		.4byte	.LBE8-.LBB8
 4324 050c 0E       		.uleb128 0xe
 4325 050d 746D7000 		.ascii	"tmp\000"
 4326 0511 01       		.byte	0x1
 4327 0512 2701     		.2byte	0x127
 4328 0514 05       		.byte	0x5
 4329 0515 9A000000 		.4byte	0x9a
 4330 0519 03       		.uleb128 0x3
ARM GAS  /tmp/cceVa9lb.s 			page 77


 4331 051a 91       		.byte	0x91
 4332 051b 807F     		.sleb128 -128
 4333 051d 00       		.byte	0
 4334 051e 00       		.byte	0
 4335 051f 00       		.byte	0
 4336 0520 00       		.byte	0
 4337 0521 13       		.uleb128 0x13
 4338 0522 3DCD0000 		.4byte	.LASF1561
 4339 0526 01       		.byte	0x1
 4340 0527 E9       		.byte	0xe9
 4341 0528 16       		.byte	0x16
 4342 0529 9A000000 		.4byte	0x9a
 4343 052d 00000000 		.4byte	.LFB69
 4344 0531 4C010000 		.4byte	.LFE69-.LFB69
 4345 0535 01       		.uleb128 0x1
 4346 0536 9C       		.byte	0x9c
 4347 0537 BE050000 		.4byte	0x5be
 4348 053b 14       		.uleb128 0x14
 4349 053c 6C617400 		.ascii	"lat\000"
 4350 0540 01       		.byte	0x1
 4351 0541 E9       		.byte	0xe9
 4352 0542 3A       		.byte	0x3a
 4353 0543 9A000000 		.4byte	0x9a
 4354 0547 03       		.uleb128 0x3
 4355 0548 91       		.byte	0x91
 4356 0549 B87F     		.sleb128 -72
 4357 054b 14       		.uleb128 0x14
 4358 054c 6500     		.ascii	"e\000"
 4359 054e 01       		.byte	0x1
 4360 054f E9       		.byte	0xe9
 4361 0550 46       		.byte	0x46
 4362 0551 9A000000 		.4byte	0x9a
 4363 0555 03       		.uleb128 0x3
 4364 0556 91       		.byte	0x91
 4365 0557 B07F     		.sleb128 -80
 4366 0559 15       		.uleb128 0x15
 4367 055a A5720000 		.4byte	.LASF1556
 4368 055e 01       		.byte	0x1
 4369 055f E9       		.byte	0xe9
 4370 0560 50       		.byte	0x50
 4371 0561 9A000000 		.4byte	0x9a
 4372 0565 02       		.uleb128 0x2
 4373 0566 91       		.byte	0x91
 4374 0567 00       		.sleb128 0
 4375 0568 0B       		.uleb128 0xb
 4376 0569 72D10000 		.4byte	.LASF1557
 4377 056d 01       		.byte	0x1
 4378 056e EB       		.byte	0xeb
 4379 056f 0A       		.byte	0xa
 4380 0570 9A000000 		.4byte	0x9a
 4381 0574 02       		.uleb128 0x2
 4382 0575 91       		.byte	0x91
 4383 0576 50       		.sleb128 -48
 4384 0577 0B       		.uleb128 0xb
 4385 0578 3B130000 		.4byte	.LASF1558
 4386 057c 01       		.byte	0x1
 4387 057d EC       		.byte	0xec
ARM GAS  /tmp/cceVa9lb.s 			page 78


 4388 057e 0A       		.byte	0xa
 4389 057f 9A000000 		.4byte	0x9a
 4390 0583 02       		.uleb128 0x2
 4391 0584 91       		.byte	0x91
 4392 0585 60       		.sleb128 -32
 4393 0586 0B       		.uleb128 0xb
 4394 0587 BF140000 		.4byte	.LASF1554
 4395 058b 01       		.byte	0x1
 4396 058c ED       		.byte	0xed
 4397 058d 0A       		.byte	0xa
 4398 058e 9A000000 		.4byte	0x9a
 4399 0592 02       		.uleb128 0x2
 4400 0593 91       		.byte	0x91
 4401 0594 48       		.sleb128 -56
 4402 0595 0B       		.uleb128 0xb
 4403 0596 38090100 		.4byte	.LASF1559
 4404 059a 01       		.byte	0x1
 4405 059b EE       		.byte	0xee
 4406 059c 0B       		.byte	0xb
 4407 059d 82000000 		.4byte	0x82
 4408 05a1 02       		.uleb128 0x2
 4409 05a2 91       		.byte	0x91
 4410 05a3 5F       		.sleb128 -33
 4411 05a4 10       		.uleb128 0x10
 4412 05a5 48000000 		.4byte	.LBB2
 4413 05a9 B8000000 		.4byte	.LBE2-.LBB2
 4414 05ad 0B       		.uleb128 0xb
 4415 05ae 2A5B0000 		.4byte	.LASF1560
 4416 05b2 01       		.byte	0x1
 4417 05b3 F2       		.byte	0xf2
 4418 05b4 0C       		.byte	0xc
 4419 05b5 9A000000 		.4byte	0x9a
 4420 05b9 02       		.uleb128 0x2
 4421 05ba 91       		.byte	0x91
 4422 05bb 40       		.sleb128 -64
 4423 05bc 00       		.byte	0
 4424 05bd 00       		.byte	0
 4425 05be 13       		.uleb128 0x13
 4426 05bf E2E10000 		.4byte	.LASF1562
 4427 05c3 01       		.byte	0x1
 4428 05c4 E4       		.byte	0xe4
 4429 05c5 16       		.byte	0x16
 4430 05c6 9A000000 		.4byte	0x9a
 4431 05ca 00000000 		.4byte	.LFB68
 4432 05ce 58000000 		.4byte	.LFE68-.LFB68
 4433 05d2 01       		.uleb128 0x1
 4434 05d3 9C       		.byte	0x9c
 4435 05d4 E8050000 		.4byte	0x5e8
 4436 05d8 14       		.uleb128 0x14
 4437 05d9 70686900 		.ascii	"phi\000"
 4438 05dd 01       		.byte	0x1
 4439 05de E4       		.byte	0xe4
 4440 05df 37       		.byte	0x37
 4441 05e0 9A000000 		.4byte	0x9a
 4442 05e4 02       		.uleb128 0x2
 4443 05e5 91       		.byte	0x91
 4444 05e6 70       		.sleb128 -16
ARM GAS  /tmp/cceVa9lb.s 			page 79


 4445 05e7 00       		.byte	0
 4446 05e8 13       		.uleb128 0x13
 4447 05e9 A46B0000 		.4byte	.LASF1563
 4448 05ed 01       		.byte	0x1
 4449 05ee DF       		.byte	0xdf
 4450 05ef 16       		.byte	0x16
 4451 05f0 9A000000 		.4byte	0x9a
 4452 05f4 00000000 		.4byte	.LFB67
 4453 05f8 FC000000 		.4byte	.LFE67-.LFB67
 4454 05fc 01       		.uleb128 0x1
 4455 05fd 9C       		.byte	0x9c
 4456 05fe 1F060000 		.4byte	0x61f
 4457 0602 14       		.uleb128 0x14
 4458 0603 70686900 		.ascii	"phi\000"
 4459 0607 01       		.byte	0x1
 4460 0608 DF       		.byte	0xdf
 4461 0609 32       		.byte	0x32
 4462 060a 9A000000 		.4byte	0x9a
 4463 060e 02       		.uleb128 0x2
 4464 060f 91       		.byte	0x91
 4465 0610 58       		.sleb128 -40
 4466 0611 14       		.uleb128 0x14
 4467 0612 6500     		.ascii	"e\000"
 4468 0614 01       		.byte	0x1
 4469 0615 DF       		.byte	0xdf
 4470 0616 3E       		.byte	0x3e
 4471 0617 9A000000 		.4byte	0x9a
 4472 061b 02       		.uleb128 0x2
 4473 061c 91       		.byte	0x91
 4474 061d 50       		.sleb128 -48
 4475 061e 00       		.byte	0
 4476 061f 16       		.uleb128 0x16
 4477 0620 770F0000 		.4byte	.LASF1587
 4478 0624 01       		.byte	0x1
 4479 0625 D2       		.byte	0xd2
 4480 0626 08       		.byte	0x8
 4481 0627 9A000000 		.4byte	0x9a
 4482 062b 00000000 		.4byte	.LFB66
 4483 062f 14010000 		.4byte	.LFE66-.LFB66
 4484 0633 01       		.uleb128 0x1
 4485 0634 9C       		.byte	0x9c
 4486 0635 8F060000 		.4byte	0x68f
 4487 0639 15       		.uleb128 0x15
 4488 063a 3FED0000 		.4byte	.LASF1564
 4489 063e 01       		.byte	0x1
 4490 063f D2       		.byte	0xd2
 4491 0640 1E       		.byte	0x1e
 4492 0641 9A000000 		.4byte	0x9a
 4493 0645 02       		.uleb128 0x2
 4494 0646 91       		.byte	0x91
 4495 0647 40       		.sleb128 -64
 4496 0648 15       		.uleb128 0x15
 4497 0649 DCE70000 		.4byte	.LASF1546
 4498 064d 01       		.byte	0x1
 4499 064e D2       		.byte	0xd2
 4500 064f 2D       		.byte	0x2d
 4501 0650 9A000000 		.4byte	0x9a
ARM GAS  /tmp/cceVa9lb.s 			page 80


 4502 0654 03       		.uleb128 0x3
 4503 0655 91       		.byte	0x91
 4504 0656 B87F     		.sleb128 -72
 4505 0658 17       		.uleb128 0x17
 4506 0659 6100     		.ascii	"a\000"
 4507 065b 01       		.byte	0x1
 4508 065c D4       		.byte	0xd4
 4509 065d 10       		.byte	0x10
 4510 065e A1000000 		.4byte	0xa1
 4511 0662 02       		.uleb128 0x2
 4512 0663 91       		.byte	0x91
 4513 0664 60       		.sleb128 -32
 4514 0665 17       		.uleb128 0x17
 4515 0666 6600     		.ascii	"f\000"
 4516 0668 01       		.byte	0x1
 4517 0669 D5       		.byte	0xd5
 4518 066a 10       		.byte	0x10
 4519 066b A1000000 		.4byte	0xa1
 4520 066f 02       		.uleb128 0x2
 4521 0670 91       		.byte	0x91
 4522 0671 58       		.sleb128 -40
 4523 0672 17       		.uleb128 0x17
 4524 0673 633200   		.ascii	"c2\000"
 4525 0676 01       		.byte	0x1
 4526 0677 D6       		.byte	0xd6
 4527 0678 10       		.byte	0x10
 4528 0679 A1000000 		.4byte	0xa1
 4529 067d 02       		.uleb128 0x2
 4530 067e 91       		.byte	0x91
 4531 067f 50       		.sleb128 -48
 4532 0680 17       		.uleb128 0x17
 4533 0681 6C7300   		.ascii	"ls\000"
 4534 0684 01       		.byte	0x1
 4535 0685 D8       		.byte	0xd8
 4536 0686 0A       		.byte	0xa
 4537 0687 9A000000 		.4byte	0x9a
 4538 068b 02       		.uleb128 0x2
 4539 068c 91       		.byte	0x91
 4540 068d 48       		.sleb128 -56
 4541 068e 00       		.byte	0
 4542 068f 18       		.uleb128 0x18
 4543 0690 DDC20000 		.4byte	.LASF1565
 4544 0694 01       		.byte	0x1
 4545 0695 C9       		.byte	0xc9
 4546 0696 06       		.byte	0x6
 4547 0697 00000000 		.4byte	.LFB65
 4548 069b 28000000 		.4byte	.LFE65-.LFB65
 4549 069f 01       		.uleb128 0x1
 4550 06a0 9C       		.byte	0x9c
 4551 06a1 E2060000 		.4byte	0x6e2
 4552 06a5 14       		.uleb128 0x14
 4553 06a6 6E656400 		.ascii	"ned\000"
 4554 06aa 01       		.byte	0x1
 4555 06ab C9       		.byte	0xc9
 4556 06ac 2B       		.byte	0x2b
 4557 06ad E2060000 		.4byte	0x6e2
 4558 06b1 02       		.uleb128 0x2
ARM GAS  /tmp/cceVa9lb.s 			page 81


 4559 06b2 91       		.byte	0x91
 4560 06b3 5C       		.sleb128 -36
 4561 06b4 14       		.uleb128 0x14
 4562 06b5 64656600 		.ascii	"def\000"
 4563 06b9 01       		.byte	0x1
 4564 06ba C9       		.byte	0xc9
 4565 06bb 41       		.byte	0x41
 4566 06bc E8060000 		.4byte	0x6e8
 4567 06c0 02       		.uleb128 0x2
 4568 06c1 91       		.byte	0x91
 4569 06c2 58       		.sleb128 -40
 4570 06c3 14       		.uleb128 0x14
 4571 06c4 6C6C6100 		.ascii	"lla\000"
 4572 06c8 01       		.byte	0x1
 4573 06c9 C9       		.byte	0xc9
 4574 06ca 58       		.byte	0x58
 4575 06cb B3030000 		.4byte	0x3b3
 4576 06cf 02       		.uleb128 0x2
 4577 06d0 91       		.byte	0x91
 4578 06d1 54       		.sleb128 -44
 4579 06d2 0B       		.uleb128 0xb
 4580 06d3 A1360000 		.4byte	.LASF1544
 4581 06d7 01       		.byte	0x1
 4582 06d8 CB       		.byte	0xcb
 4583 06d9 15       		.byte	0x15
 4584 06da F3000000 		.4byte	0xf3
 4585 06de 02       		.uleb128 0x2
 4586 06df 91       		.byte	0x91
 4587 06e0 60       		.sleb128 -32
 4588 06e1 00       		.byte	0
 4589 06e2 12       		.uleb128 0x12
 4590 06e3 04       		.byte	0x4
 4591 06e4 57010000 		.4byte	0x157
 4592 06e8 12       		.uleb128 0x12
 4593 06e9 04       		.byte	0x4
 4594 06ea F7010000 		.4byte	0x1f7
 4595 06ee 18       		.uleb128 0x18
 4596 06ef B5840000 		.4byte	.LASF1566
 4597 06f3 01       		.byte	0x1
 4598 06f4 C2       		.byte	0xc2
 4599 06f5 06       		.byte	0x6
 4600 06f6 00000000 		.4byte	.LFB64
 4601 06fa 28000000 		.4byte	.LFE64-.LFB64
 4602 06fe 01       		.uleb128 0x1
 4603 06ff 9C       		.byte	0x9c
 4604 0700 41070000 		.4byte	0x741
 4605 0704 14       		.uleb128 0x14
 4606 0705 656E7500 		.ascii	"enu\000"
 4607 0709 01       		.byte	0x1
 4608 070a C2       		.byte	0xc2
 4609 070b 2B       		.byte	0x2b
 4610 070c 41070000 		.4byte	0x741
 4611 0710 02       		.uleb128 0x2
 4612 0711 91       		.byte	0x91
 4613 0712 5C       		.sleb128 -36
 4614 0713 14       		.uleb128 0x14
 4615 0714 64656600 		.ascii	"def\000"
ARM GAS  /tmp/cceVa9lb.s 			page 82


 4616 0718 01       		.byte	0x1
 4617 0719 C2       		.byte	0xc2
 4618 071a 41       		.byte	0x41
 4619 071b E8060000 		.4byte	0x6e8
 4620 071f 02       		.uleb128 0x2
 4621 0720 91       		.byte	0x91
 4622 0721 58       		.sleb128 -40
 4623 0722 14       		.uleb128 0x14
 4624 0723 6C6C6100 		.ascii	"lla\000"
 4625 0727 01       		.byte	0x1
 4626 0728 C2       		.byte	0xc2
 4627 0729 58       		.byte	0x58
 4628 072a B3030000 		.4byte	0x3b3
 4629 072e 02       		.uleb128 0x2
 4630 072f 91       		.byte	0x91
 4631 0730 54       		.sleb128 -44
 4632 0731 0B       		.uleb128 0xb
 4633 0732 A1360000 		.4byte	.LASF1544
 4634 0736 01       		.byte	0x1
 4635 0737 C4       		.byte	0xc4
 4636 0738 15       		.byte	0x15
 4637 0739 F3000000 		.4byte	0xf3
 4638 073d 02       		.uleb128 0x2
 4639 073e 91       		.byte	0x91
 4640 073f 60       		.sleb128 -32
 4641 0740 00       		.byte	0
 4642 0741 12       		.uleb128 0x12
 4643 0742 04       		.byte	0x4
 4644 0743 86010000 		.4byte	0x186
 4645 0747 18       		.uleb128 0x18
 4646 0748 5C260000 		.4byte	.LASF1567
 4647 074c 01       		.byte	0x1
 4648 074d BA       		.byte	0xba
 4649 074e 06       		.byte	0x6
 4650 074f 00000000 		.4byte	.LFB63
 4651 0753 40000000 		.4byte	.LFE63-.LFB63
 4652 0757 01       		.uleb128 0x1
 4653 0758 9C       		.byte	0x9c
 4654 0759 9A070000 		.4byte	0x79a
 4655 075d 15       		.uleb128 0x15
 4656 075e A1360000 		.4byte	.LASF1544
 4657 0762 01       		.byte	0x1
 4658 0763 BA       		.byte	0xba
 4659 0764 2C       		.byte	0x2c
 4660 0765 9A070000 		.4byte	0x79a
 4661 0769 02       		.uleb128 0x2
 4662 076a 91       		.byte	0x91
 4663 076b 54       		.sleb128 -44
 4664 076c 14       		.uleb128 0x14
 4665 076d 64656600 		.ascii	"def\000"
 4666 0771 01       		.byte	0x1
 4667 0772 BA       		.byte	0xba
 4668 0773 43       		.byte	0x43
 4669 0774 E8060000 		.4byte	0x6e8
 4670 0778 02       		.uleb128 0x2
 4671 0779 91       		.byte	0x91
 4672 077a 50       		.sleb128 -48
ARM GAS  /tmp/cceVa9lb.s 			page 83


 4673 077b 14       		.uleb128 0x14
 4674 077c 6E656400 		.ascii	"ned\000"
 4675 0780 01       		.byte	0x1
 4676 0781 BA       		.byte	0xba
 4677 0782 5A       		.byte	0x5a
 4678 0783 E2060000 		.4byte	0x6e2
 4679 0787 02       		.uleb128 0x2
 4680 0788 91       		.byte	0x91
 4681 0789 4C       		.sleb128 -52
 4682 078a 17       		.uleb128 0x17
 4683 078b 656E7500 		.ascii	"enu\000"
 4684 078f 01       		.byte	0x1
 4685 0790 BC       		.byte	0xbc
 4686 0791 14       		.byte	0x14
 4687 0792 86010000 		.4byte	0x186
 4688 0796 02       		.uleb128 0x2
 4689 0797 91       		.byte	0x91
 4690 0798 58       		.sleb128 -40
 4691 0799 00       		.byte	0
 4692 079a 12       		.uleb128 0x12
 4693 079b 04       		.byte	0x4
 4694 079c F3000000 		.4byte	0xf3
 4695 07a0 18       		.uleb128 0x18
 4696 07a1 6C3B0000 		.4byte	.LASF1568
 4697 07a5 01       		.byte	0x1
 4698 07a6 B5       		.byte	0xb5
 4699 07a7 06       		.byte	0x6
 4700 07a8 00000000 		.4byte	.LFB62
 4701 07ac 36010000 		.4byte	.LFE62-.LFB62
 4702 07b0 01       		.uleb128 0x1
 4703 07b1 9C       		.byte	0x9c
 4704 07b2 E4070000 		.4byte	0x7e4
 4705 07b6 15       		.uleb128 0x15
 4706 07b7 A1360000 		.4byte	.LASF1544
 4707 07bb 01       		.byte	0x1
 4708 07bc B5       		.byte	0xb5
 4709 07bd 2C       		.byte	0x2c
 4710 07be 9A070000 		.4byte	0x79a
 4711 07c2 02       		.uleb128 0x2
 4712 07c3 91       		.byte	0x91
 4713 07c4 6C       		.sleb128 -20
 4714 07c5 14       		.uleb128 0x14
 4715 07c6 64656600 		.ascii	"def\000"
 4716 07ca 01       		.byte	0x1
 4717 07cb B5       		.byte	0xb5
 4718 07cc 43       		.byte	0x43
 4719 07cd E8060000 		.4byte	0x6e8
 4720 07d1 02       		.uleb128 0x2
 4721 07d2 91       		.byte	0x91
 4722 07d3 68       		.sleb128 -24
 4723 07d4 14       		.uleb128 0x14
 4724 07d5 656E7500 		.ascii	"enu\000"
 4725 07d9 01       		.byte	0x1
 4726 07da B5       		.byte	0xb5
 4727 07db 5A       		.byte	0x5a
 4728 07dc 41070000 		.4byte	0x741
 4729 07e0 02       		.uleb128 0x2
ARM GAS  /tmp/cceVa9lb.s 			page 84


 4730 07e1 91       		.byte	0x91
 4731 07e2 64       		.sleb128 -28
 4732 07e3 00       		.byte	0
 4733 07e4 18       		.uleb128 0x18
 4734 07e5 B6570000 		.4byte	.LASF1569
 4735 07e9 01       		.byte	0x1
 4736 07ea AE       		.byte	0xae
 4737 07eb 06       		.byte	0x6
 4738 07ec 00000000 		.4byte	.LFB61
 4739 07f0 40000000 		.4byte	.LFE61-.LFB61
 4740 07f4 01       		.uleb128 0x1
 4741 07f5 9C       		.byte	0x9c
 4742 07f6 37080000 		.4byte	0x837
 4743 07fa 15       		.uleb128 0x15
 4744 07fb A1360000 		.4byte	.LASF1544
 4745 07ff 01       		.byte	0x1
 4746 0800 AE       		.byte	0xae
 4747 0801 2D       		.byte	0x2d
 4748 0802 9A070000 		.4byte	0x79a
 4749 0806 02       		.uleb128 0x2
 4750 0807 91       		.byte	0x91
 4751 0808 54       		.sleb128 -44
 4752 0809 14       		.uleb128 0x14
 4753 080a 64656600 		.ascii	"def\000"
 4754 080e 01       		.byte	0x1
 4755 080f AE       		.byte	0xae
 4756 0810 44       		.byte	0x44
 4757 0811 E8060000 		.4byte	0x6e8
 4758 0815 02       		.uleb128 0x2
 4759 0816 91       		.byte	0x91
 4760 0817 50       		.sleb128 -48
 4761 0818 14       		.uleb128 0x14
 4762 0819 6E656400 		.ascii	"ned\000"
 4763 081d 01       		.byte	0x1
 4764 081e AE       		.byte	0xae
 4765 081f 5B       		.byte	0x5b
 4766 0820 E2060000 		.4byte	0x6e2
 4767 0824 02       		.uleb128 0x2
 4768 0825 91       		.byte	0x91
 4769 0826 4C       		.sleb128 -52
 4770 0827 17       		.uleb128 0x17
 4771 0828 656E7500 		.ascii	"enu\000"
 4772 082c 01       		.byte	0x1
 4773 082d B0       		.byte	0xb0
 4774 082e 14       		.byte	0x14
 4775 082f 86010000 		.4byte	0x186
 4776 0833 02       		.uleb128 0x2
 4777 0834 91       		.byte	0x91
 4778 0835 58       		.sleb128 -40
 4779 0836 00       		.byte	0
 4780 0837 18       		.uleb128 0x18
 4781 0838 70490000 		.4byte	.LASF1570
 4782 083c 01       		.byte	0x1
 4783 083d A8       		.byte	0xa8
 4784 083e 06       		.byte	0x6
 4785 083f 00000000 		.4byte	.LFB60
 4786 0843 84010000 		.4byte	.LFE60-.LFB60
ARM GAS  /tmp/cceVa9lb.s 			page 85


 4787 0847 01       		.uleb128 0x1
 4788 0848 9C       		.byte	0x9c
 4789 0849 7B080000 		.4byte	0x87b
 4790 084d 15       		.uleb128 0x15
 4791 084e A1360000 		.4byte	.LASF1544
 4792 0852 01       		.byte	0x1
 4793 0853 A8       		.byte	0xa8
 4794 0854 2D       		.byte	0x2d
 4795 0855 9A070000 		.4byte	0x79a
 4796 0859 02       		.uleb128 0x2
 4797 085a 91       		.byte	0x91
 4798 085b 6C       		.sleb128 -20
 4799 085c 14       		.uleb128 0x14
 4800 085d 64656600 		.ascii	"def\000"
 4801 0861 01       		.byte	0x1
 4802 0862 A8       		.byte	0xa8
 4803 0863 44       		.byte	0x44
 4804 0864 E8060000 		.4byte	0x6e8
 4805 0868 02       		.uleb128 0x2
 4806 0869 91       		.byte	0x91
 4807 086a 68       		.sleb128 -24
 4808 086b 14       		.uleb128 0x14
 4809 086c 656E7500 		.ascii	"enu\000"
 4810 0870 01       		.byte	0x1
 4811 0871 A8       		.byte	0xa8
 4812 0872 5B       		.byte	0x5b
 4813 0873 41070000 		.4byte	0x741
 4814 0877 02       		.uleb128 0x2
 4815 0878 91       		.byte	0x91
 4816 0879 64       		.sleb128 -28
 4817 087a 00       		.byte	0
 4818 087b 18       		.uleb128 0x18
 4819 087c DF4F0000 		.4byte	.LASF1571
 4820 0880 01       		.byte	0x1
 4821 0881 9F       		.byte	0x9f
 4822 0882 06       		.byte	0x6
 4823 0883 00000000 		.4byte	.LFB59
 4824 0887 40000000 		.4byte	.LFE59-.LFB59
 4825 088b 01       		.uleb128 0x1
 4826 088c 9C       		.byte	0x9c
 4827 088d CE080000 		.4byte	0x8ce
 4828 0891 14       		.uleb128 0x14
 4829 0892 6E656400 		.ascii	"ned\000"
 4830 0896 01       		.byte	0x1
 4831 0897 9F       		.byte	0x9f
 4832 0898 2B       		.byte	0x2b
 4833 0899 E2060000 		.4byte	0x6e2
 4834 089d 02       		.uleb128 0x2
 4835 089e 91       		.byte	0x91
 4836 089f 54       		.sleb128 -44
 4837 08a0 14       		.uleb128 0x14
 4838 08a1 64656600 		.ascii	"def\000"
 4839 08a5 01       		.byte	0x1
 4840 08a6 9F       		.byte	0x9f
 4841 08a7 41       		.byte	0x41
 4842 08a8 E8060000 		.4byte	0x6e8
 4843 08ac 02       		.uleb128 0x2
ARM GAS  /tmp/cceVa9lb.s 			page 86


 4844 08ad 91       		.byte	0x91
 4845 08ae 50       		.sleb128 -48
 4846 08af 15       		.uleb128 0x15
 4847 08b0 A1360000 		.4byte	.LASF1544
 4848 08b4 01       		.byte	0x1
 4849 08b5 9F       		.byte	0x9f
 4850 08b6 59       		.byte	0x59
 4851 08b7 9A070000 		.4byte	0x79a
 4852 08bb 02       		.uleb128 0x2
 4853 08bc 91       		.byte	0x91
 4854 08bd 4C       		.sleb128 -52
 4855 08be 17       		.uleb128 0x17
 4856 08bf 656E7500 		.ascii	"enu\000"
 4857 08c3 01       		.byte	0x1
 4858 08c4 A1       		.byte	0xa1
 4859 08c5 14       		.byte	0x14
 4860 08c6 86010000 		.4byte	0x186
 4861 08ca 02       		.uleb128 0x2
 4862 08cb 91       		.byte	0x91
 4863 08cc 58       		.sleb128 -40
 4864 08cd 00       		.byte	0
 4865 08ce 18       		.uleb128 0x18
 4866 08cf 79250000 		.4byte	.LASF1572
 4867 08d3 01       		.byte	0x1
 4868 08d4 9A       		.byte	0x9a
 4869 08d5 06       		.byte	0x6
 4870 08d6 00000000 		.4byte	.LFB58
 4871 08da 36010000 		.4byte	.LFE58-.LFB58
 4872 08de 01       		.uleb128 0x1
 4873 08df 9C       		.byte	0x9c
 4874 08e0 12090000 		.4byte	0x912
 4875 08e4 14       		.uleb128 0x14
 4876 08e5 656E7500 		.ascii	"enu\000"
 4877 08e9 01       		.byte	0x1
 4878 08ea 9A       		.byte	0x9a
 4879 08eb 2B       		.byte	0x2b
 4880 08ec 41070000 		.4byte	0x741
 4881 08f0 02       		.uleb128 0x2
 4882 08f1 91       		.byte	0x91
 4883 08f2 6C       		.sleb128 -20
 4884 08f3 14       		.uleb128 0x14
 4885 08f4 64656600 		.ascii	"def\000"
 4886 08f8 01       		.byte	0x1
 4887 08f9 9A       		.byte	0x9a
 4888 08fa 41       		.byte	0x41
 4889 08fb E8060000 		.4byte	0x6e8
 4890 08ff 02       		.uleb128 0x2
 4891 0900 91       		.byte	0x91
 4892 0901 68       		.sleb128 -24
 4893 0902 15       		.uleb128 0x15
 4894 0903 A1360000 		.4byte	.LASF1544
 4895 0907 01       		.byte	0x1
 4896 0908 9A       		.byte	0x9a
 4897 0909 59       		.byte	0x59
 4898 090a 9A070000 		.4byte	0x79a
 4899 090e 02       		.uleb128 0x2
 4900 090f 91       		.byte	0x91
ARM GAS  /tmp/cceVa9lb.s 			page 87


 4901 0910 64       		.sleb128 -28
 4902 0911 00       		.byte	0
 4903 0912 18       		.uleb128 0x18
 4904 0913 2D4A0000 		.4byte	.LASF1573
 4905 0917 01       		.byte	0x1
 4906 0918 93       		.byte	0x93
 4907 0919 06       		.byte	0x6
 4908 091a 00000000 		.4byte	.LFB57
 4909 091e 40000000 		.4byte	.LFE57-.LFB57
 4910 0922 01       		.uleb128 0x1
 4911 0923 9C       		.byte	0x9c
 4912 0924 65090000 		.4byte	0x965
 4913 0928 14       		.uleb128 0x14
 4914 0929 6E656400 		.ascii	"ned\000"
 4915 092d 01       		.byte	0x1
 4916 092e 93       		.byte	0x93
 4917 092f 2C       		.byte	0x2c
 4918 0930 E2060000 		.4byte	0x6e2
 4919 0934 02       		.uleb128 0x2
 4920 0935 91       		.byte	0x91
 4921 0936 54       		.sleb128 -44
 4922 0937 14       		.uleb128 0x14
 4923 0938 64656600 		.ascii	"def\000"
 4924 093c 01       		.byte	0x1
 4925 093d 93       		.byte	0x93
 4926 093e 42       		.byte	0x42
 4927 093f E8060000 		.4byte	0x6e8
 4928 0943 02       		.uleb128 0x2
 4929 0944 91       		.byte	0x91
 4930 0945 50       		.sleb128 -48
 4931 0946 15       		.uleb128 0x15
 4932 0947 A1360000 		.4byte	.LASF1544
 4933 094b 01       		.byte	0x1
 4934 094c 93       		.byte	0x93
 4935 094d 5A       		.byte	0x5a
 4936 094e 9A070000 		.4byte	0x79a
 4937 0952 02       		.uleb128 0x2
 4938 0953 91       		.byte	0x91
 4939 0954 4C       		.sleb128 -52
 4940 0955 17       		.uleb128 0x17
 4941 0956 656E7500 		.ascii	"enu\000"
 4942 095a 01       		.byte	0x1
 4943 095b 95       		.byte	0x95
 4944 095c 14       		.byte	0x14
 4945 095d 86010000 		.4byte	0x186
 4946 0961 02       		.uleb128 0x2
 4947 0962 91       		.byte	0x91
 4948 0963 58       		.sleb128 -40
 4949 0964 00       		.byte	0
 4950 0965 18       		.uleb128 0x18
 4951 0966 5F070000 		.4byte	.LASF1574
 4952 096a 01       		.byte	0x1
 4953 096b 8C       		.byte	0x8c
 4954 096c 06       		.byte	0x6
 4955 096d 00000000 		.4byte	.LFB56
 4956 0971 6C010000 		.4byte	.LFE56-.LFB56
 4957 0975 01       		.uleb128 0x1
ARM GAS  /tmp/cceVa9lb.s 			page 88


 4958 0976 9C       		.byte	0x9c
 4959 0977 B8090000 		.4byte	0x9b8
 4960 097b 14       		.uleb128 0x14
 4961 097c 656E7500 		.ascii	"enu\000"
 4962 0980 01       		.byte	0x1
 4963 0981 8C       		.byte	0x8c
 4964 0982 2C       		.byte	0x2c
 4965 0983 41070000 		.4byte	0x741
 4966 0987 02       		.uleb128 0x2
 4967 0988 91       		.byte	0x91
 4968 0989 54       		.sleb128 -44
 4969 098a 14       		.uleb128 0x14
 4970 098b 64656600 		.ascii	"def\000"
 4971 098f 01       		.byte	0x1
 4972 0990 8C       		.byte	0x8c
 4973 0991 42       		.byte	0x42
 4974 0992 E8060000 		.4byte	0x6e8
 4975 0996 02       		.uleb128 0x2
 4976 0997 91       		.byte	0x91
 4977 0998 50       		.sleb128 -48
 4978 0999 15       		.uleb128 0x15
 4979 099a A1360000 		.4byte	.LASF1544
 4980 099e 01       		.byte	0x1
 4981 099f 8C       		.byte	0x8c
 4982 09a0 5A       		.byte	0x5a
 4983 09a1 9A070000 		.4byte	0x79a
 4984 09a5 02       		.uleb128 0x2
 4985 09a6 91       		.byte	0x91
 4986 09a7 4C       		.sleb128 -52
 4987 09a8 0B       		.uleb128 0xb
 4988 09a9 A8D40000 		.4byte	.LASF1575
 4989 09ad 01       		.byte	0x1
 4990 09ae 8E       		.byte	0x8e
 4991 09af 15       		.byte	0x15
 4992 09b0 F3000000 		.4byte	0xf3
 4993 09b4 02       		.uleb128 0x2
 4994 09b5 91       		.byte	0x91
 4995 09b6 58       		.sleb128 -40
 4996 09b7 00       		.byte	0
 4997 09b8 18       		.uleb128 0x18
 4998 09b9 1DA20000 		.4byte	.LASF1576
 4999 09bd 01       		.byte	0x1
 5000 09be 78       		.byte	0x78
 5001 09bf 06       		.byte	0x6
 5002 09c0 00000000 		.4byte	.LFB55
 5003 09c4 A8010000 		.4byte	.LFE55-.LFB55
 5004 09c8 01       		.uleb128 0x1
 5005 09c9 9C       		.byte	0x9c
 5006 09ca 780A0000 		.4byte	0xa78
 5007 09ce 15       		.uleb128 0x15
 5008 09cf A1360000 		.4byte	.LASF1544
 5009 09d3 01       		.byte	0x1
 5010 09d4 78       		.byte	0x78
 5011 09d5 27       		.byte	0x27
 5012 09d6 9A070000 		.4byte	0x79a
 5013 09da 03       		.uleb128 0x3
 5014 09db 91       		.byte	0x91
ARM GAS  /tmp/cceVa9lb.s 			page 89


 5015 09dc B47F     		.sleb128 -76
 5016 09de 14       		.uleb128 0x14
 5017 09df 6C6C6100 		.ascii	"lla\000"
 5018 09e3 01       		.byte	0x1
 5019 09e4 78       		.byte	0x78
 5020 09e5 3F       		.byte	0x3f
 5021 09e6 B3030000 		.4byte	0x3b3
 5022 09ea 03       		.uleb128 0x3
 5023 09eb 91       		.byte	0x91
 5024 09ec B07F     		.sleb128 -80
 5025 09ee 17       		.uleb128 0x17
 5026 09ef 6100     		.ascii	"a\000"
 5027 09f1 01       		.byte	0x1
 5028 09f2 7C       		.byte	0x7c
 5029 09f3 17       		.byte	0x17
 5030 09f4 A1000000 		.4byte	0xa1
 5031 09f8 05       		.uleb128 0x5
 5032 09f9 03       		.byte	0x3
 5033 09fa 00000000 		.4byte	a.0
 5034 09fe 17       		.uleb128 0x17
 5035 09ff 6600     		.ascii	"f\000"
 5036 0a01 01       		.byte	0x1
 5037 0a02 7D       		.byte	0x7d
 5038 0a03 17       		.byte	0x17
 5039 0a04 A1000000 		.4byte	0xa1
 5040 0a08 05       		.uleb128 0x5
 5041 0a09 03       		.byte	0x3
 5042 0a0a 00000000 		.4byte	f.1
 5043 0a0e 17       		.uleb128 0x17
 5044 0a0f 653200   		.ascii	"e2\000"
 5045 0a12 01       		.byte	0x1
 5046 0a13 7E       		.byte	0x7e
 5047 0a14 10       		.byte	0x10
 5048 0a15 A1000000 		.4byte	0xa1
 5049 0a19 02       		.uleb128 0x2
 5050 0a1a 91       		.byte	0x91
 5051 0a1b 68       		.sleb128 -24
 5052 0a1c 0B       		.uleb128 0xb
 5053 0a1d FCE60000 		.4byte	.LASF1577
 5054 0a21 01       		.byte	0x1
 5055 0a22 80       		.byte	0x80
 5056 0a23 10       		.byte	0x10
 5057 0a24 A1000000 		.4byte	0xa1
 5058 0a28 02       		.uleb128 0x2
 5059 0a29 91       		.byte	0x91
 5060 0a2a 60       		.sleb128 -32
 5061 0a2b 0B       		.uleb128 0xb
 5062 0a2c F05C0000 		.4byte	.LASF1578
 5063 0a30 01       		.byte	0x1
 5064 0a31 81       		.byte	0x81
 5065 0a32 10       		.byte	0x10
 5066 0a33 A1000000 		.4byte	0xa1
 5067 0a37 02       		.uleb128 0x2
 5068 0a38 91       		.byte	0x91
 5069 0a39 58       		.sleb128 -40
 5070 0a3a 0B       		.uleb128 0xb
 5071 0a3b A5170000 		.4byte	.LASF1579
ARM GAS  /tmp/cceVa9lb.s 			page 90


 5072 0a3f 01       		.byte	0x1
 5073 0a40 82       		.byte	0x82
 5074 0a41 10       		.byte	0x10
 5075 0a42 A1000000 		.4byte	0xa1
 5076 0a46 02       		.uleb128 0x2
 5077 0a47 91       		.byte	0x91
 5078 0a48 50       		.sleb128 -48
 5079 0a49 0B       		.uleb128 0xb
 5080 0a4a 53A10000 		.4byte	.LASF1580
 5081 0a4e 01       		.byte	0x1
 5082 0a4f 83       		.byte	0x83
 5083 0a50 10       		.byte	0x10
 5084 0a51 A1000000 		.4byte	0xa1
 5085 0a55 02       		.uleb128 0x2
 5086 0a56 91       		.byte	0x91
 5087 0a57 48       		.sleb128 -56
 5088 0a58 17       		.uleb128 0x17
 5089 0a59 63686900 		.ascii	"chi\000"
 5090 0a5d 01       		.byte	0x1
 5091 0a5e 84       		.byte	0x84
 5092 0a5f 10       		.byte	0x10
 5093 0a60 A1000000 		.4byte	0xa1
 5094 0a64 02       		.uleb128 0x2
 5095 0a65 91       		.byte	0x91
 5096 0a66 40       		.sleb128 -64
 5097 0a67 0B       		.uleb128 0xb
 5098 0a68 725B0000 		.4byte	.LASF1581
 5099 0a6c 01       		.byte	0x1
 5100 0a6d 85       		.byte	0x85
 5101 0a6e 10       		.byte	0x10
 5102 0a6f A1000000 		.4byte	0xa1
 5103 0a73 03       		.uleb128 0x3
 5104 0a74 91       		.byte	0x91
 5105 0a75 B87F     		.sleb128 -72
 5106 0a77 00       		.byte	0
 5107 0a78 18       		.uleb128 0x18
 5108 0a79 47A70000 		.4byte	.LASF1582
 5109 0a7d 01       		.byte	0x1
 5110 0a7e 53       		.byte	0x53
 5111 0a7f 06       		.byte	0x6
 5112 0a80 00000000 		.4byte	.LFB54
 5113 0a84 B8060000 		.4byte	.LFE54-.LFB54
 5114 0a88 01       		.uleb128 0x1
 5115 0a89 9C       		.byte	0x9c
 5116 0a8a EF0B0000 		.4byte	0xbef
 5117 0a8e 14       		.uleb128 0x14
 5118 0a8f 6C6C6100 		.ascii	"lla\000"
 5119 0a93 01       		.byte	0x1
 5120 0a94 53       		.byte	0x53
 5121 0a95 26       		.byte	0x26
 5122 0a96 B3030000 		.4byte	0x3b3
 5123 0a9a 03       		.uleb128 0x3
 5124 0a9b 91       		.byte	0x91
 5125 0a9c BC7E     		.sleb128 -196
 5126 0a9e 15       		.uleb128 0x15
 5127 0a9f A1360000 		.4byte	.LASF1544
 5128 0aa3 01       		.byte	0x1
ARM GAS  /tmp/cceVa9lb.s 			page 91


 5129 0aa4 53       		.byte	0x53
 5130 0aa5 3E       		.byte	0x3e
 5131 0aa6 9A070000 		.4byte	0x79a
 5132 0aaa 03       		.uleb128 0x3
 5133 0aab 91       		.byte	0x91
 5134 0aac B87E     		.sleb128 -200
 5135 0aae 17       		.uleb128 0x17
 5136 0aaf 6100     		.ascii	"a\000"
 5137 0ab1 01       		.byte	0x1
 5138 0ab2 57       		.byte	0x57
 5139 0ab3 17       		.byte	0x17
 5140 0ab4 A1000000 		.4byte	0xa1
 5141 0ab8 05       		.uleb128 0x5
 5142 0ab9 03       		.byte	0x3
 5143 0aba 00000000 		.4byte	a.2
 5144 0abe 17       		.uleb128 0x17
 5145 0abf 6600     		.ascii	"f\000"
 5146 0ac1 01       		.byte	0x1
 5147 0ac2 58       		.byte	0x58
 5148 0ac3 17       		.byte	0x17
 5149 0ac4 A1000000 		.4byte	0xa1
 5150 0ac8 05       		.uleb128 0x5
 5151 0ac9 03       		.byte	0x3
 5152 0aca 00000000 		.4byte	f.3
 5153 0ace 17       		.uleb128 0x17
 5154 0acf 6200     		.ascii	"b\000"
 5155 0ad1 01       		.byte	0x1
 5156 0ad2 59       		.byte	0x59
 5157 0ad3 10       		.byte	0x10
 5158 0ad4 A1000000 		.4byte	0xa1
 5159 0ad8 02       		.uleb128 0x2
 5160 0ad9 91       		.byte	0x91
 5161 0ada 58       		.sleb128 -40
 5162 0adb 17       		.uleb128 0x17
 5163 0adc 623200   		.ascii	"b2\000"
 5164 0adf 01       		.byte	0x1
 5165 0ae0 5A       		.byte	0x5a
 5166 0ae1 10       		.byte	0x10
 5167 0ae2 A1000000 		.4byte	0xa1
 5168 0ae6 02       		.uleb128 0x2
 5169 0ae7 91       		.byte	0x91
 5170 0ae8 50       		.sleb128 -48
 5171 0ae9 17       		.uleb128 0x17
 5172 0aea 653200   		.ascii	"e2\000"
 5173 0aed 01       		.byte	0x1
 5174 0aee 5C       		.byte	0x5c
 5175 0aef 10       		.byte	0x10
 5176 0af0 A1000000 		.4byte	0xa1
 5177 0af4 02       		.uleb128 0x2
 5178 0af5 91       		.byte	0x91
 5179 0af6 48       		.sleb128 -56
 5180 0af7 17       		.uleb128 0x17
 5181 0af8 65703200 		.ascii	"ep2\000"
 5182 0afc 01       		.byte	0x1
 5183 0afd 5D       		.byte	0x5d
 5184 0afe 10       		.byte	0x10
 5185 0aff A1000000 		.4byte	0xa1
ARM GAS  /tmp/cceVa9lb.s 			page 92


 5186 0b03 02       		.uleb128 0x2
 5187 0b04 91       		.byte	0x91
 5188 0b05 40       		.sleb128 -64
 5189 0b06 17       		.uleb128 0x17
 5190 0b07 453200   		.ascii	"E2\000"
 5191 0b0a 01       		.byte	0x1
 5192 0b0b 5E       		.byte	0x5e
 5193 0b0c 10       		.byte	0x10
 5194 0b0d A1000000 		.4byte	0xa1
 5195 0b11 03       		.uleb128 0x3
 5196 0b12 91       		.byte	0x91
 5197 0b13 B87F     		.sleb128 -72
 5198 0b15 17       		.uleb128 0x17
 5199 0b16 7A3200   		.ascii	"z2\000"
 5200 0b19 01       		.byte	0x1
 5201 0b1a 61       		.byte	0x61
 5202 0b1b 10       		.byte	0x10
 5203 0b1c A1000000 		.4byte	0xa1
 5204 0b20 03       		.uleb128 0x3
 5205 0b21 91       		.byte	0x91
 5206 0b22 B07F     		.sleb128 -80
 5207 0b24 17       		.uleb128 0x17
 5208 0b25 723200   		.ascii	"r2\000"
 5209 0b28 01       		.byte	0x1
 5210 0b29 62       		.byte	0x62
 5211 0b2a 10       		.byte	0x10
 5212 0b2b A1000000 		.4byte	0xa1
 5213 0b2f 03       		.uleb128 0x3
 5214 0b30 91       		.byte	0x91
 5215 0b31 A87F     		.sleb128 -88
 5216 0b33 17       		.uleb128 0x17
 5217 0b34 7200     		.ascii	"r\000"
 5218 0b36 01       		.byte	0x1
 5219 0b37 63       		.byte	0x63
 5220 0b38 10       		.byte	0x10
 5221 0b39 A1000000 		.4byte	0xa1
 5222 0b3d 03       		.uleb128 0x3
 5223 0b3e 91       		.byte	0x91
 5224 0b3f A07F     		.sleb128 -96
 5225 0b41 17       		.uleb128 0x17
 5226 0b42 4600     		.ascii	"F\000"
 5227 0b44 01       		.byte	0x1
 5228 0b45 64       		.byte	0x64
 5229 0b46 10       		.byte	0x10
 5230 0b47 A1000000 		.4byte	0xa1
 5231 0b4b 03       		.uleb128 0x3
 5232 0b4c 91       		.byte	0x91
 5233 0b4d 987F     		.sleb128 -104
 5234 0b4f 17       		.uleb128 0x17
 5235 0b50 4700     		.ascii	"G\000"
 5236 0b52 01       		.byte	0x1
 5237 0b53 65       		.byte	0x65
 5238 0b54 10       		.byte	0x10
 5239 0b55 A1000000 		.4byte	0xa1
 5240 0b59 03       		.uleb128 0x3
 5241 0b5a 91       		.byte	0x91
 5242 0b5b 907F     		.sleb128 -112
ARM GAS  /tmp/cceVa9lb.s 			page 93


 5243 0b5d 17       		.uleb128 0x17
 5244 0b5e 6300     		.ascii	"c\000"
 5245 0b60 01       		.byte	0x1
 5246 0b61 66       		.byte	0x66
 5247 0b62 10       		.byte	0x10
 5248 0b63 A1000000 		.4byte	0xa1
 5249 0b67 03       		.uleb128 0x3
 5250 0b68 91       		.byte	0x91
 5251 0b69 887F     		.sleb128 -120
 5252 0b6b 17       		.uleb128 0x17
 5253 0b6c 7300     		.ascii	"s\000"
 5254 0b6e 01       		.byte	0x1
 5255 0b6f 67       		.byte	0x67
 5256 0b70 10       		.byte	0x10
 5257 0b71 A1000000 		.4byte	0xa1
 5258 0b75 03       		.uleb128 0x3
 5259 0b76 91       		.byte	0x91
 5260 0b77 807F     		.sleb128 -128
 5261 0b79 17       		.uleb128 0x17
 5262 0b7a 733100   		.ascii	"s1\000"
 5263 0b7d 01       		.byte	0x1
 5264 0b7e 68       		.byte	0x68
 5265 0b7f 10       		.byte	0x10
 5266 0b80 A1000000 		.4byte	0xa1
 5267 0b84 03       		.uleb128 0x3
 5268 0b85 91       		.byte	0x91
 5269 0b86 F87E     		.sleb128 -136
 5270 0b88 17       		.uleb128 0x17
 5271 0b89 5000     		.ascii	"P\000"
 5272 0b8b 01       		.byte	0x1
 5273 0b8c 69       		.byte	0x69
 5274 0b8d 10       		.byte	0x10
 5275 0b8e A1000000 		.4byte	0xa1
 5276 0b92 03       		.uleb128 0x3
 5277 0b93 91       		.byte	0x91
 5278 0b94 F07E     		.sleb128 -144
 5279 0b96 17       		.uleb128 0x17
 5280 0b97 5100     		.ascii	"Q\000"
 5281 0b99 01       		.byte	0x1
 5282 0b9a 6A       		.byte	0x6a
 5283 0b9b 10       		.byte	0x10
 5284 0b9c A1000000 		.4byte	0xa1
 5285 0ba0 03       		.uleb128 0x3
 5286 0ba1 91       		.byte	0x91
 5287 0ba2 E87E     		.sleb128 -152
 5288 0ba4 17       		.uleb128 0x17
 5289 0ba5 726F00   		.ascii	"ro\000"
 5290 0ba8 01       		.byte	0x1
 5291 0ba9 6B       		.byte	0x6b
 5292 0baa 10       		.byte	0x10
 5293 0bab A1000000 		.4byte	0xa1
 5294 0baf 03       		.uleb128 0x3
 5295 0bb0 91       		.byte	0x91
 5296 0bb1 E07E     		.sleb128 -160
 5297 0bb3 17       		.uleb128 0x17
 5298 0bb4 746D7000 		.ascii	"tmp\000"
 5299 0bb8 01       		.byte	0x1
ARM GAS  /tmp/cceVa9lb.s 			page 94


 5300 0bb9 6D       		.byte	0x6d
 5301 0bba 10       		.byte	0x10
 5302 0bbb A1000000 		.4byte	0xa1
 5303 0bbf 03       		.uleb128 0x3
 5304 0bc0 91       		.byte	0x91
 5305 0bc1 D87E     		.sleb128 -168
 5306 0bc3 17       		.uleb128 0x17
 5307 0bc4 5500     		.ascii	"U\000"
 5308 0bc6 01       		.byte	0x1
 5309 0bc7 6E       		.byte	0x6e
 5310 0bc8 10       		.byte	0x10
 5311 0bc9 A1000000 		.4byte	0xa1
 5312 0bcd 03       		.uleb128 0x3
 5313 0bce 91       		.byte	0x91
 5314 0bcf D07E     		.sleb128 -176
 5315 0bd1 17       		.uleb128 0x17
 5316 0bd2 5600     		.ascii	"V\000"
 5317 0bd4 01       		.byte	0x1
 5318 0bd5 6F       		.byte	0x6f
 5319 0bd6 10       		.byte	0x10
 5320 0bd7 A1000000 		.4byte	0xa1
 5321 0bdb 03       		.uleb128 0x3
 5322 0bdc 91       		.byte	0x91
 5323 0bdd C87E     		.sleb128 -184
 5324 0bdf 17       		.uleb128 0x17
 5325 0be0 7A6F00   		.ascii	"zo\000"
 5326 0be3 01       		.byte	0x1
 5327 0be4 70       		.byte	0x70
 5328 0be5 10       		.byte	0x10
 5329 0be6 A1000000 		.4byte	0xa1
 5330 0bea 03       		.uleb128 0x3
 5331 0beb 91       		.byte	0x91
 5332 0bec C07E     		.sleb128 -192
 5333 0bee 00       		.byte	0
 5334 0bef 18       		.uleb128 0x18
 5335 0bf0 BF010100 		.4byte	.LASF1583
 5336 0bf4 01       		.byte	0x1
 5337 0bf5 39       		.byte	0x39
 5338 0bf6 06       		.byte	0x6
 5339 0bf7 00000000 		.4byte	.LFB53
 5340 0bfb 2E010000 		.4byte	.LFE53-.LFB53
 5341 0bff 01       		.uleb128 0x1
 5342 0c00 9C       		.byte	0x9c
 5343 0c01 600C0000 		.4byte	0xc60
 5344 0c05 14       		.uleb128 0x14
 5345 0c06 64656600 		.ascii	"def\000"
 5346 0c0a 01       		.byte	0x1
 5347 0c0b 39       		.byte	0x39
 5348 0c0c 2A       		.byte	0x2a
 5349 0c0d E8060000 		.4byte	0x6e8
 5350 0c11 02       		.uleb128 0x2
 5351 0c12 91       		.byte	0x91
 5352 0c13 44       		.sleb128 -60
 5353 0c14 14       		.uleb128 0x14
 5354 0c15 6C6C6100 		.ascii	"lla\000"
 5355 0c19 01       		.byte	0x1
 5356 0c1a 39       		.byte	0x39
ARM GAS  /tmp/cceVa9lb.s 			page 95


 5357 0c1b 41       		.byte	0x41
 5358 0c1c B3030000 		.4byte	0x3b3
 5359 0c20 02       		.uleb128 0x2
 5360 0c21 91       		.byte	0x91
 5361 0c22 40       		.sleb128 -64
 5362 0c23 0B       		.uleb128 0xb
 5363 0c24 FCE60000 		.4byte	.LASF1577
 5364 0c28 01       		.byte	0x1
 5365 0c29 41       		.byte	0x41
 5366 0c2a 10       		.byte	0x10
 5367 0c2b A1000000 		.4byte	0xa1
 5368 0c2f 02       		.uleb128 0x2
 5369 0c30 91       		.byte	0x91
 5370 0c31 60       		.sleb128 -32
 5371 0c32 0B       		.uleb128 0xb
 5372 0c33 F05C0000 		.4byte	.LASF1578
 5373 0c37 01       		.byte	0x1
 5374 0c38 42       		.byte	0x42
 5375 0c39 10       		.byte	0x10
 5376 0c3a A1000000 		.4byte	0xa1
 5377 0c3e 02       		.uleb128 0x2
 5378 0c3f 91       		.byte	0x91
 5379 0c40 58       		.sleb128 -40
 5380 0c41 0B       		.uleb128 0xb
 5381 0c42 A5170000 		.4byte	.LASF1579
 5382 0c46 01       		.byte	0x1
 5383 0c47 43       		.byte	0x43
 5384 0c48 10       		.byte	0x10
 5385 0c49 A1000000 		.4byte	0xa1
 5386 0c4d 02       		.uleb128 0x2
 5387 0c4e 91       		.byte	0x91
 5388 0c4f 50       		.sleb128 -48
 5389 0c50 0B       		.uleb128 0xb
 5390 0c51 53A10000 		.4byte	.LASF1580
 5391 0c55 01       		.byte	0x1
 5392 0c56 44       		.byte	0x44
 5393 0c57 10       		.byte	0x10
 5394 0c58 A1000000 		.4byte	0xa1
 5395 0c5c 02       		.uleb128 0x2
 5396 0c5d 91       		.byte	0x91
 5397 0c5e 48       		.sleb128 -56
 5398 0c5f 00       		.byte	0
 5399 0c60 19       		.uleb128 0x19
 5400 0c61 BA260000 		.4byte	.LASF1588
 5401 0c65 01       		.byte	0x1
 5402 0c66 22       		.byte	0x22
 5403 0c67 06       		.byte	0x6
 5404 0c68 00000000 		.4byte	.LFB52
 5405 0c6c 2E010000 		.4byte	.LFE52-.LFB52
 5406 0c70 01       		.uleb128 0x1
 5407 0c71 9C       		.byte	0x9c
 5408 0c72 14       		.uleb128 0x14
 5409 0c73 64656600 		.ascii	"def\000"
 5410 0c77 01       		.byte	0x1
 5411 0c78 22       		.byte	0x22
 5412 0c79 2B       		.byte	0x2b
 5413 0c7a E8060000 		.4byte	0x6e8
ARM GAS  /tmp/cceVa9lb.s 			page 96


 5414 0c7e 02       		.uleb128 0x2
 5415 0c7f 91       		.byte	0x91
 5416 0c80 44       		.sleb128 -60
 5417 0c81 15       		.uleb128 0x15
 5418 0c82 A1360000 		.4byte	.LASF1544
 5419 0c86 01       		.byte	0x1
 5420 0c87 22       		.byte	0x22
 5421 0c88 43       		.byte	0x43
 5422 0c89 9A070000 		.4byte	0x79a
 5423 0c8d 02       		.uleb128 0x2
 5424 0c8e 91       		.byte	0x91
 5425 0c8f 40       		.sleb128 -64
 5426 0c90 0B       		.uleb128 0xb
 5427 0c91 FCE60000 		.4byte	.LASF1577
 5428 0c95 01       		.byte	0x1
 5429 0c96 29       		.byte	0x29
 5430 0c97 10       		.byte	0x10
 5431 0c98 A1000000 		.4byte	0xa1
 5432 0c9c 02       		.uleb128 0x2
 5433 0c9d 91       		.byte	0x91
 5434 0c9e 60       		.sleb128 -32
 5435 0c9f 0B       		.uleb128 0xb
 5436 0ca0 F05C0000 		.4byte	.LASF1578
 5437 0ca4 01       		.byte	0x1
 5438 0ca5 2A       		.byte	0x2a
 5439 0ca6 10       		.byte	0x10
 5440 0ca7 A1000000 		.4byte	0xa1
 5441 0cab 02       		.uleb128 0x2
 5442 0cac 91       		.byte	0x91
 5443 0cad 58       		.sleb128 -40
 5444 0cae 0B       		.uleb128 0xb
 5445 0caf A5170000 		.4byte	.LASF1579
 5446 0cb3 01       		.byte	0x1
 5447 0cb4 2B       		.byte	0x2b
 5448 0cb5 10       		.byte	0x10
 5449 0cb6 A1000000 		.4byte	0xa1
 5450 0cba 02       		.uleb128 0x2
 5451 0cbb 91       		.byte	0x91
 5452 0cbc 50       		.sleb128 -48
 5453 0cbd 0B       		.uleb128 0xb
 5454 0cbe 53A10000 		.4byte	.LASF1580
 5455 0cc2 01       		.byte	0x1
 5456 0cc3 2C       		.byte	0x2c
 5457 0cc4 10       		.byte	0x10
 5458 0cc5 A1000000 		.4byte	0xa1
 5459 0cc9 02       		.uleb128 0x2
 5460 0cca 91       		.byte	0x91
 5461 0ccb 48       		.sleb128 -56
 5462 0ccc 00       		.byte	0
 5463 0ccd 00       		.byte	0
 5464              		.section	.debug_abbrev,"",%progbits
 5465              	.Ldebug_abbrev0:
 5466 0000 01       		.uleb128 0x1
 5467 0001 11       		.uleb128 0x11
 5468 0002 01       		.byte	0x1
 5469 0003 25       		.uleb128 0x25
 5470 0004 0E       		.uleb128 0xe
ARM GAS  /tmp/cceVa9lb.s 			page 97


 5471 0005 13       		.uleb128 0x13
 5472 0006 0B       		.uleb128 0xb
 5473 0007 03       		.uleb128 0x3
 5474 0008 0E       		.uleb128 0xe
 5475 0009 1B       		.uleb128 0x1b
 5476 000a 0E       		.uleb128 0xe
 5477 000b 55       		.uleb128 0x55
 5478 000c 17       		.uleb128 0x17
 5479 000d 11       		.uleb128 0x11
 5480 000e 01       		.uleb128 0x1
 5481 000f 10       		.uleb128 0x10
 5482 0010 17       		.uleb128 0x17
 5483 0011 9942     		.uleb128 0x2119
 5484 0013 17       		.uleb128 0x17
 5485 0014 00       		.byte	0
 5486 0015 00       		.byte	0
 5487 0016 02       		.uleb128 0x2
 5488 0017 24       		.uleb128 0x24
 5489 0018 00       		.byte	0
 5490 0019 0B       		.uleb128 0xb
 5491 001a 0B       		.uleb128 0xb
 5492 001b 3E       		.uleb128 0x3e
 5493 001c 0B       		.uleb128 0xb
 5494 001d 03       		.uleb128 0x3
 5495 001e 08       		.uleb128 0x8
 5496 001f 00       		.byte	0
 5497 0020 00       		.byte	0
 5498 0021 03       		.uleb128 0x3
 5499 0022 24       		.uleb128 0x24
 5500 0023 00       		.byte	0
 5501 0024 0B       		.uleb128 0xb
 5502 0025 0B       		.uleb128 0xb
 5503 0026 3E       		.uleb128 0x3e
 5504 0027 0B       		.uleb128 0xb
 5505 0028 03       		.uleb128 0x3
 5506 0029 0E       		.uleb128 0xe
 5507 002a 00       		.byte	0
 5508 002b 00       		.byte	0
 5509 002c 04       		.uleb128 0x4
 5510 002d 16       		.uleb128 0x16
 5511 002e 00       		.byte	0
 5512 002f 03       		.uleb128 0x3
 5513 0030 0E       		.uleb128 0xe
 5514 0031 3A       		.uleb128 0x3a
 5515 0032 0B       		.uleb128 0xb
 5516 0033 3B       		.uleb128 0x3b
 5517 0034 0B       		.uleb128 0xb
 5518 0035 39       		.uleb128 0x39
 5519 0036 0B       		.uleb128 0xb
 5520 0037 49       		.uleb128 0x49
 5521 0038 13       		.uleb128 0x13
 5522 0039 00       		.byte	0
 5523 003a 00       		.byte	0
 5524 003b 05       		.uleb128 0x5
 5525 003c 26       		.uleb128 0x26
 5526 003d 00       		.byte	0
 5527 003e 49       		.uleb128 0x49
ARM GAS  /tmp/cceVa9lb.s 			page 98


 5528 003f 13       		.uleb128 0x13
 5529 0040 00       		.byte	0
 5530 0041 00       		.byte	0
 5531 0042 06       		.uleb128 0x6
 5532 0043 13       		.uleb128 0x13
 5533 0044 01       		.byte	0x1
 5534 0045 03       		.uleb128 0x3
 5535 0046 0E       		.uleb128 0xe
 5536 0047 0B       		.uleb128 0xb
 5537 0048 0B       		.uleb128 0xb
 5538 0049 3A       		.uleb128 0x3a
 5539 004a 0B       		.uleb128 0xb
 5540 004b 3B       		.uleb128 0x3b
 5541 004c 0B       		.uleb128 0xb
 5542 004d 39       		.uleb128 0x39
 5543 004e 0B       		.uleb128 0xb
 5544 004f 01       		.uleb128 0x1
 5545 0050 13       		.uleb128 0x13
 5546 0051 00       		.byte	0
 5547 0052 00       		.byte	0
 5548 0053 07       		.uleb128 0x7
 5549 0054 0D       		.uleb128 0xd
 5550 0055 00       		.byte	0
 5551 0056 03       		.uleb128 0x3
 5552 0057 08       		.uleb128 0x8
 5553 0058 3A       		.uleb128 0x3a
 5554 0059 0B       		.uleb128 0xb
 5555 005a 3B       		.uleb128 0x3b
 5556 005b 0B       		.uleb128 0xb
 5557 005c 39       		.uleb128 0x39
 5558 005d 0B       		.uleb128 0xb
 5559 005e 49       		.uleb128 0x49
 5560 005f 13       		.uleb128 0x13
 5561 0060 38       		.uleb128 0x38
 5562 0061 0B       		.uleb128 0xb
 5563 0062 00       		.byte	0
 5564 0063 00       		.byte	0
 5565 0064 08       		.uleb128 0x8
 5566 0065 01       		.uleb128 0x1
 5567 0066 01       		.byte	0x1
 5568 0067 49       		.uleb128 0x49
 5569 0068 13       		.uleb128 0x13
 5570 0069 01       		.uleb128 0x1
 5571 006a 13       		.uleb128 0x13
 5572 006b 00       		.byte	0
 5573 006c 00       		.byte	0
 5574 006d 09       		.uleb128 0x9
 5575 006e 21       		.uleb128 0x21
 5576 006f 00       		.byte	0
 5577 0070 49       		.uleb128 0x49
 5578 0071 13       		.uleb128 0x13
 5579 0072 2F       		.uleb128 0x2f
 5580 0073 0B       		.uleb128 0xb
 5581 0074 00       		.byte	0
 5582 0075 00       		.byte	0
 5583 0076 0A       		.uleb128 0xa
 5584 0077 0D       		.uleb128 0xd
ARM GAS  /tmp/cceVa9lb.s 			page 99


 5585 0078 00       		.byte	0
 5586 0079 03       		.uleb128 0x3
 5587 007a 0E       		.uleb128 0xe
 5588 007b 3A       		.uleb128 0x3a
 5589 007c 0B       		.uleb128 0xb
 5590 007d 3B       		.uleb128 0x3b
 5591 007e 0B       		.uleb128 0xb
 5592 007f 39       		.uleb128 0x39
 5593 0080 0B       		.uleb128 0xb
 5594 0081 49       		.uleb128 0x49
 5595 0082 13       		.uleb128 0x13
 5596 0083 38       		.uleb128 0x38
 5597 0084 0B       		.uleb128 0xb
 5598 0085 00       		.byte	0
 5599 0086 00       		.byte	0
 5600 0087 0B       		.uleb128 0xb
 5601 0088 34       		.uleb128 0x34
 5602 0089 00       		.byte	0
 5603 008a 03       		.uleb128 0x3
 5604 008b 0E       		.uleb128 0xe
 5605 008c 3A       		.uleb128 0x3a
 5606 008d 0B       		.uleb128 0xb
 5607 008e 3B       		.uleb128 0x3b
 5608 008f 0B       		.uleb128 0xb
 5609 0090 39       		.uleb128 0x39
 5610 0091 0B       		.uleb128 0xb
 5611 0092 49       		.uleb128 0x49
 5612 0093 13       		.uleb128 0x13
 5613 0094 02       		.uleb128 0x2
 5614 0095 18       		.uleb128 0x18
 5615 0096 00       		.byte	0
 5616 0097 00       		.byte	0
 5617 0098 0C       		.uleb128 0xc
 5618 0099 2E       		.uleb128 0x2e
 5619 009a 01       		.byte	0x1
 5620 009b 3F       		.uleb128 0x3f
 5621 009c 19       		.uleb128 0x19
 5622 009d 03       		.uleb128 0x3
 5623 009e 0E       		.uleb128 0xe
 5624 009f 3A       		.uleb128 0x3a
 5625 00a0 0B       		.uleb128 0xb
 5626 00a1 3B       		.uleb128 0x3b
 5627 00a2 05       		.uleb128 0x5
 5628 00a3 39       		.uleb128 0x39
 5629 00a4 0B       		.uleb128 0xb
 5630 00a5 27       		.uleb128 0x27
 5631 00a6 19       		.uleb128 0x19
 5632 00a7 11       		.uleb128 0x11
 5633 00a8 01       		.uleb128 0x1
 5634 00a9 12       		.uleb128 0x12
 5635 00aa 06       		.uleb128 0x6
 5636 00ab 40       		.uleb128 0x40
 5637 00ac 18       		.uleb128 0x18
 5638 00ad 9642     		.uleb128 0x2116
 5639 00af 19       		.uleb128 0x19
 5640 00b0 01       		.uleb128 0x1
 5641 00b1 13       		.uleb128 0x13
ARM GAS  /tmp/cceVa9lb.s 			page 100


 5642 00b2 00       		.byte	0
 5643 00b3 00       		.byte	0
 5644 00b4 0D       		.uleb128 0xd
 5645 00b5 05       		.uleb128 0x5
 5646 00b6 00       		.byte	0
 5647 00b7 03       		.uleb128 0x3
 5648 00b8 08       		.uleb128 0x8
 5649 00b9 3A       		.uleb128 0x3a
 5650 00ba 0B       		.uleb128 0xb
 5651 00bb 3B       		.uleb128 0x3b
 5652 00bc 05       		.uleb128 0x5
 5653 00bd 39       		.uleb128 0x39
 5654 00be 0B       		.uleb128 0xb
 5655 00bf 49       		.uleb128 0x49
 5656 00c0 13       		.uleb128 0x13
 5657 00c1 02       		.uleb128 0x2
 5658 00c2 18       		.uleb128 0x18
 5659 00c3 00       		.byte	0
 5660 00c4 00       		.byte	0
 5661 00c5 0E       		.uleb128 0xe
 5662 00c6 34       		.uleb128 0x34
 5663 00c7 00       		.byte	0
 5664 00c8 03       		.uleb128 0x3
 5665 00c9 08       		.uleb128 0x8
 5666 00ca 3A       		.uleb128 0x3a
 5667 00cb 0B       		.uleb128 0xb
 5668 00cc 3B       		.uleb128 0x3b
 5669 00cd 05       		.uleb128 0x5
 5670 00ce 39       		.uleb128 0x39
 5671 00cf 0B       		.uleb128 0xb
 5672 00d0 49       		.uleb128 0x49
 5673 00d1 13       		.uleb128 0x13
 5674 00d2 02       		.uleb128 0x2
 5675 00d3 18       		.uleb128 0x18
 5676 00d4 00       		.byte	0
 5677 00d5 00       		.byte	0
 5678 00d6 0F       		.uleb128 0xf
 5679 00d7 34       		.uleb128 0x34
 5680 00d8 00       		.byte	0
 5681 00d9 03       		.uleb128 0x3
 5682 00da 0E       		.uleb128 0xe
 5683 00db 3A       		.uleb128 0x3a
 5684 00dc 0B       		.uleb128 0xb
 5685 00dd 3B       		.uleb128 0x3b
 5686 00de 05       		.uleb128 0x5
 5687 00df 39       		.uleb128 0x39
 5688 00e0 0B       		.uleb128 0xb
 5689 00e1 49       		.uleb128 0x49
 5690 00e2 13       		.uleb128 0x13
 5691 00e3 02       		.uleb128 0x2
 5692 00e4 18       		.uleb128 0x18
 5693 00e5 00       		.byte	0
 5694 00e6 00       		.byte	0
 5695 00e7 10       		.uleb128 0x10
 5696 00e8 0B       		.uleb128 0xb
 5697 00e9 01       		.byte	0x1
 5698 00ea 11       		.uleb128 0x11
ARM GAS  /tmp/cceVa9lb.s 			page 101


 5699 00eb 01       		.uleb128 0x1
 5700 00ec 12       		.uleb128 0x12
 5701 00ed 06       		.uleb128 0x6
 5702 00ee 00       		.byte	0
 5703 00ef 00       		.byte	0
 5704 00f0 11       		.uleb128 0x11
 5705 00f1 0B       		.uleb128 0xb
 5706 00f2 01       		.byte	0x1
 5707 00f3 11       		.uleb128 0x11
 5708 00f4 01       		.uleb128 0x1
 5709 00f5 12       		.uleb128 0x12
 5710 00f6 06       		.uleb128 0x6
 5711 00f7 01       		.uleb128 0x1
 5712 00f8 13       		.uleb128 0x13
 5713 00f9 00       		.byte	0
 5714 00fa 00       		.byte	0
 5715 00fb 12       		.uleb128 0x12
 5716 00fc 0F       		.uleb128 0xf
 5717 00fd 00       		.byte	0
 5718 00fe 0B       		.uleb128 0xb
 5719 00ff 0B       		.uleb128 0xb
 5720 0100 49       		.uleb128 0x49
 5721 0101 13       		.uleb128 0x13
 5722 0102 00       		.byte	0
 5723 0103 00       		.byte	0
 5724 0104 13       		.uleb128 0x13
 5725 0105 2E       		.uleb128 0x2e
 5726 0106 01       		.byte	0x1
 5727 0107 03       		.uleb128 0x3
 5728 0108 0E       		.uleb128 0xe
 5729 0109 3A       		.uleb128 0x3a
 5730 010a 0B       		.uleb128 0xb
 5731 010b 3B       		.uleb128 0x3b
 5732 010c 0B       		.uleb128 0xb
 5733 010d 39       		.uleb128 0x39
 5734 010e 0B       		.uleb128 0xb
 5735 010f 27       		.uleb128 0x27
 5736 0110 19       		.uleb128 0x19
 5737 0111 49       		.uleb128 0x49
 5738 0112 13       		.uleb128 0x13
 5739 0113 11       		.uleb128 0x11
 5740 0114 01       		.uleb128 0x1
 5741 0115 12       		.uleb128 0x12
 5742 0116 06       		.uleb128 0x6
 5743 0117 40       		.uleb128 0x40
 5744 0118 18       		.uleb128 0x18
 5745 0119 9642     		.uleb128 0x2116
 5746 011b 19       		.uleb128 0x19
 5747 011c 01       		.uleb128 0x1
 5748 011d 13       		.uleb128 0x13
 5749 011e 00       		.byte	0
 5750 011f 00       		.byte	0
 5751 0120 14       		.uleb128 0x14
 5752 0121 05       		.uleb128 0x5
 5753 0122 00       		.byte	0
 5754 0123 03       		.uleb128 0x3
 5755 0124 08       		.uleb128 0x8
ARM GAS  /tmp/cceVa9lb.s 			page 102


 5756 0125 3A       		.uleb128 0x3a
 5757 0126 0B       		.uleb128 0xb
 5758 0127 3B       		.uleb128 0x3b
 5759 0128 0B       		.uleb128 0xb
 5760 0129 39       		.uleb128 0x39
 5761 012a 0B       		.uleb128 0xb
 5762 012b 49       		.uleb128 0x49
 5763 012c 13       		.uleb128 0x13
 5764 012d 02       		.uleb128 0x2
 5765 012e 18       		.uleb128 0x18
 5766 012f 00       		.byte	0
 5767 0130 00       		.byte	0
 5768 0131 15       		.uleb128 0x15
 5769 0132 05       		.uleb128 0x5
 5770 0133 00       		.byte	0
 5771 0134 03       		.uleb128 0x3
 5772 0135 0E       		.uleb128 0xe
 5773 0136 3A       		.uleb128 0x3a
 5774 0137 0B       		.uleb128 0xb
 5775 0138 3B       		.uleb128 0x3b
 5776 0139 0B       		.uleb128 0xb
 5777 013a 39       		.uleb128 0x39
 5778 013b 0B       		.uleb128 0xb
 5779 013c 49       		.uleb128 0x49
 5780 013d 13       		.uleb128 0x13
 5781 013e 02       		.uleb128 0x2
 5782 013f 18       		.uleb128 0x18
 5783 0140 00       		.byte	0
 5784 0141 00       		.byte	0
 5785 0142 16       		.uleb128 0x16
 5786 0143 2E       		.uleb128 0x2e
 5787 0144 01       		.byte	0x1
 5788 0145 3F       		.uleb128 0x3f
 5789 0146 19       		.uleb128 0x19
 5790 0147 03       		.uleb128 0x3
 5791 0148 0E       		.uleb128 0xe
 5792 0149 3A       		.uleb128 0x3a
 5793 014a 0B       		.uleb128 0xb
 5794 014b 3B       		.uleb128 0x3b
 5795 014c 0B       		.uleb128 0xb
 5796 014d 39       		.uleb128 0x39
 5797 014e 0B       		.uleb128 0xb
 5798 014f 27       		.uleb128 0x27
 5799 0150 19       		.uleb128 0x19
 5800 0151 49       		.uleb128 0x49
 5801 0152 13       		.uleb128 0x13
 5802 0153 11       		.uleb128 0x11
 5803 0154 01       		.uleb128 0x1
 5804 0155 12       		.uleb128 0x12
 5805 0156 06       		.uleb128 0x6
 5806 0157 40       		.uleb128 0x40
 5807 0158 18       		.uleb128 0x18
 5808 0159 9642     		.uleb128 0x2116
 5809 015b 19       		.uleb128 0x19
 5810 015c 01       		.uleb128 0x1
 5811 015d 13       		.uleb128 0x13
 5812 015e 00       		.byte	0
ARM GAS  /tmp/cceVa9lb.s 			page 103


 5813 015f 00       		.byte	0
 5814 0160 17       		.uleb128 0x17
 5815 0161 34       		.uleb128 0x34
 5816 0162 00       		.byte	0
 5817 0163 03       		.uleb128 0x3
 5818 0164 08       		.uleb128 0x8
 5819 0165 3A       		.uleb128 0x3a
 5820 0166 0B       		.uleb128 0xb
 5821 0167 3B       		.uleb128 0x3b
 5822 0168 0B       		.uleb128 0xb
 5823 0169 39       		.uleb128 0x39
 5824 016a 0B       		.uleb128 0xb
 5825 016b 49       		.uleb128 0x49
 5826 016c 13       		.uleb128 0x13
 5827 016d 02       		.uleb128 0x2
 5828 016e 18       		.uleb128 0x18
 5829 016f 00       		.byte	0
 5830 0170 00       		.byte	0
 5831 0171 18       		.uleb128 0x18
 5832 0172 2E       		.uleb128 0x2e
 5833 0173 01       		.byte	0x1
 5834 0174 3F       		.uleb128 0x3f
 5835 0175 19       		.uleb128 0x19
 5836 0176 03       		.uleb128 0x3
 5837 0177 0E       		.uleb128 0xe
 5838 0178 3A       		.uleb128 0x3a
 5839 0179 0B       		.uleb128 0xb
 5840 017a 3B       		.uleb128 0x3b
 5841 017b 0B       		.uleb128 0xb
 5842 017c 39       		.uleb128 0x39
 5843 017d 0B       		.uleb128 0xb
 5844 017e 27       		.uleb128 0x27
 5845 017f 19       		.uleb128 0x19
 5846 0180 11       		.uleb128 0x11
 5847 0181 01       		.uleb128 0x1
 5848 0182 12       		.uleb128 0x12
 5849 0183 06       		.uleb128 0x6
 5850 0184 40       		.uleb128 0x40
 5851 0185 18       		.uleb128 0x18
 5852 0186 9642     		.uleb128 0x2116
 5853 0188 19       		.uleb128 0x19
 5854 0189 01       		.uleb128 0x1
 5855 018a 13       		.uleb128 0x13
 5856 018b 00       		.byte	0
 5857 018c 00       		.byte	0
 5858 018d 19       		.uleb128 0x19
 5859 018e 2E       		.uleb128 0x2e
 5860 018f 01       		.byte	0x1
 5861 0190 3F       		.uleb128 0x3f
 5862 0191 19       		.uleb128 0x19
 5863 0192 03       		.uleb128 0x3
 5864 0193 0E       		.uleb128 0xe
 5865 0194 3A       		.uleb128 0x3a
 5866 0195 0B       		.uleb128 0xb
 5867 0196 3B       		.uleb128 0x3b
 5868 0197 0B       		.uleb128 0xb
 5869 0198 39       		.uleb128 0x39
ARM GAS  /tmp/cceVa9lb.s 			page 104


 5870 0199 0B       		.uleb128 0xb
 5871 019a 27       		.uleb128 0x27
 5872 019b 19       		.uleb128 0x19
 5873 019c 11       		.uleb128 0x11
 5874 019d 01       		.uleb128 0x1
 5875 019e 12       		.uleb128 0x12
 5876 019f 06       		.uleb128 0x6
 5877 01a0 40       		.uleb128 0x40
 5878 01a1 18       		.uleb128 0x18
 5879 01a2 9642     		.uleb128 0x2116
 5880 01a4 19       		.uleb128 0x19
 5881 01a5 00       		.byte	0
 5882 01a6 00       		.byte	0
 5883 01a7 00       		.byte	0
 5884              		.section	.debug_aranges,"",%progbits
 5885 0000 B4000000 		.4byte	0xb4
 5886 0004 0200     		.2byte	0x2
 5887 0006 00000000 		.4byte	.Ldebug_info0
 5888 000a 04       		.byte	0x4
 5889 000b 00       		.byte	0
 5890 000c 0000     		.2byte	0
 5891 000e 0000     		.2byte	0
 5892 0010 00000000 		.4byte	.LFB52
 5893 0014 2E010000 		.4byte	.LFE52-.LFB52
 5894 0018 00000000 		.4byte	.LFB53
 5895 001c 2E010000 		.4byte	.LFE53-.LFB53
 5896 0020 00000000 		.4byte	.LFB54
 5897 0024 B8060000 		.4byte	.LFE54-.LFB54
 5898 0028 00000000 		.4byte	.LFB55
 5899 002c A8010000 		.4byte	.LFE55-.LFB55
 5900 0030 00000000 		.4byte	.LFB56
 5901 0034 6C010000 		.4byte	.LFE56-.LFB56
 5902 0038 00000000 		.4byte	.LFB57
 5903 003c 40000000 		.4byte	.LFE57-.LFB57
 5904 0040 00000000 		.4byte	.LFB58
 5905 0044 36010000 		.4byte	.LFE58-.LFB58
 5906 0048 00000000 		.4byte	.LFB59
 5907 004c 40000000 		.4byte	.LFE59-.LFB59
 5908 0050 00000000 		.4byte	.LFB60
 5909 0054 84010000 		.4byte	.LFE60-.LFB60
 5910 0058 00000000 		.4byte	.LFB61
 5911 005c 40000000 		.4byte	.LFE61-.LFB61
 5912 0060 00000000 		.4byte	.LFB62
 5913 0064 36010000 		.4byte	.LFE62-.LFB62
 5914 0068 00000000 		.4byte	.LFB63
 5915 006c 40000000 		.4byte	.LFE63-.LFB63
 5916 0070 00000000 		.4byte	.LFB64
 5917 0074 28000000 		.4byte	.LFE64-.LFB64
 5918 0078 00000000 		.4byte	.LFB65
 5919 007c 28000000 		.4byte	.LFE65-.LFB65
 5920 0080 00000000 		.4byte	.LFB66
 5921 0084 14010000 		.4byte	.LFE66-.LFB66
 5922 0088 00000000 		.4byte	.LFB67
 5923 008c FC000000 		.4byte	.LFE67-.LFB67
 5924 0090 00000000 		.4byte	.LFB68
 5925 0094 58000000 		.4byte	.LFE68-.LFB68
 5926 0098 00000000 		.4byte	.LFB69
ARM GAS  /tmp/cceVa9lb.s 			page 105


 5927 009c 4C010000 		.4byte	.LFE69-.LFB69
 5928 00a0 00000000 		.4byte	.LFB70
 5929 00a4 78040000 		.4byte	.LFE70-.LFB70
 5930 00a8 00000000 		.4byte	.LFB71
 5931 00ac C8030000 		.4byte	.LFE71-.LFB71
 5932 00b0 00000000 		.4byte	0
 5933 00b4 00000000 		.4byte	0
 5934              		.section	.debug_ranges,"",%progbits
 5935              	.Ldebug_ranges0:
 5936 0000 00000000 		.4byte	.LFB52
 5937 0004 2E010000 		.4byte	.LFE52
 5938 0008 00000000 		.4byte	.LFB53
 5939 000c 2E010000 		.4byte	.LFE53
 5940 0010 00000000 		.4byte	.LFB54
 5941 0014 B8060000 		.4byte	.LFE54
 5942 0018 00000000 		.4byte	.LFB55
 5943 001c A8010000 		.4byte	.LFE55
 5944 0020 00000000 		.4byte	.LFB56
 5945 0024 6C010000 		.4byte	.LFE56
 5946 0028 00000000 		.4byte	.LFB57
 5947 002c 40000000 		.4byte	.LFE57
 5948 0030 00000000 		.4byte	.LFB58
 5949 0034 36010000 		.4byte	.LFE58
 5950 0038 00000000 		.4byte	.LFB59
 5951 003c 40000000 		.4byte	.LFE59
 5952 0040 00000000 		.4byte	.LFB60
 5953 0044 84010000 		.4byte	.LFE60
 5954 0048 00000000 		.4byte	.LFB61
 5955 004c 40000000 		.4byte	.LFE61
 5956 0050 00000000 		.4byte	.LFB62
 5957 0054 36010000 		.4byte	.LFE62
 5958 0058 00000000 		.4byte	.LFB63
 5959 005c 40000000 		.4byte	.LFE63
 5960 0060 00000000 		.4byte	.LFB64
 5961 0064 28000000 		.4byte	.LFE64
 5962 0068 00000000 		.4byte	.LFB65
 5963 006c 28000000 		.4byte	.LFE65
 5964 0070 00000000 		.4byte	.LFB66
 5965 0074 14010000 		.4byte	.LFE66
 5966 0078 00000000 		.4byte	.LFB67
 5967 007c FC000000 		.4byte	.LFE67
 5968 0080 00000000 		.4byte	.LFB68
 5969 0084 58000000 		.4byte	.LFE68
 5970 0088 00000000 		.4byte	.LFB69
 5971 008c 4C010000 		.4byte	.LFE69
 5972 0090 00000000 		.4byte	.LFB70
 5973 0094 78040000 		.4byte	.LFE70
 5974 0098 00000000 		.4byte	.LFB71
 5975 009c C8030000 		.4byte	.LFE71
 5976 00a0 00000000 		.4byte	0
 5977 00a4 00000000 		.4byte	0
 5978              		.section	.debug_macro,"",%progbits
 5979              	.Ldebug_macro0:
 5980 0000 0400     		.2byte	0x4
 5981 0002 02       		.byte	0x2
 5982 0003 00000000 		.4byte	.Ldebug_line0
 5983 0007 07       		.byte	0x7
ARM GAS  /tmp/cceVa9lb.s 			page 106


 5984 0008 00000000 		.4byte	.Ldebug_macro2
 5985 000c 03       		.byte	0x3
 5986 000d 00       		.uleb128 0
 5987 000e 01       		.uleb128 0x1
 5988 000f 03       		.byte	0x3
 5989 0010 1C       		.uleb128 0x1c
 5990 0011 04       		.uleb128 0x4
 5991 0012 05       		.byte	0x5
 5992 0013 21       		.uleb128 0x21
 5993 0014 12C30000 		.4byte	.LASF518
 5994              		.file 6 "math/pprz_geodetic.h"
 5995 0018 03       		.byte	0x3
 5996 0019 27       		.uleb128 0x27
 5997 001a 06       		.uleb128 0x6
 5998 001b 07       		.byte	0x7
 5999 001c 00000000 		.4byte	.Ldebug_macro3
 6000 0020 04       		.byte	0x4
 6001 0021 03       		.byte	0x3
 6002 0022 28       		.uleb128 0x28
 6003 0023 03       		.uleb128 0x3
 6004 0024 05       		.byte	0x5
 6005 0025 20       		.uleb128 0x20
 6006 0026 235D0000 		.4byte	.LASF530
 6007              		.file 7 "math/pprz_algebra.h"
 6008 002a 03       		.byte	0x3
 6009 002b 26       		.uleb128 0x26
 6010 002c 07       		.uleb128 0x7
 6011 002d 05       		.byte	0x5
 6012 002e 25       		.uleb128 0x25
 6013 002f A9220000 		.4byte	.LASF531
 6014              		.file 8 "/usr/lib/gcc/arm-none-eabi/10.3.1/include/float.h"
 6015 0033 03       		.byte	0x3
 6016 0034 2B       		.uleb128 0x2b
 6017 0035 08       		.uleb128 0x8
 6018 0036 07       		.byte	0x7
 6019 0037 00000000 		.4byte	.Ldebug_macro4
 6020 003b 04       		.byte	0x4
 6021              		.file 9 "/usr/include/newlib/string.h"
 6022 003c 03       		.byte	0x3
 6023 003d 2C       		.uleb128 0x2c
 6024 003e 09       		.uleb128 0x9
 6025 003f 05       		.byte	0x5
 6026 0040 08       		.uleb128 0x8
 6027 0041 118F0000 		.4byte	.LASF595
 6028              		.file 10 "/usr/include/newlib/_ansi.h"
 6029 0045 03       		.byte	0x3
 6030 0046 0A       		.uleb128 0xa
 6031 0047 0A       		.uleb128 0xa
 6032 0048 05       		.byte	0x5
 6033 0049 08       		.uleb128 0x8
 6034 004a 83260000 		.4byte	.LASF596
 6035              		.file 11 "/usr/include/newlib/newlib.h"
 6036 004e 03       		.byte	0x3
 6037 004f 0A       		.uleb128 0xa
 6038 0050 0B       		.uleb128 0xb
 6039 0051 05       		.byte	0x5
 6040 0052 08       		.uleb128 0x8
ARM GAS  /tmp/cceVa9lb.s 			page 107


 6041 0053 92BB0000 		.4byte	.LASF597
 6042              		.file 12 "/usr/include/newlib/_newlib_version.h"
 6043 0057 03       		.byte	0x3
 6044 0058 0E       		.uleb128 0xe
 6045 0059 0C       		.uleb128 0xc
 6046 005a 07       		.byte	0x7
 6047 005b 00000000 		.4byte	.Ldebug_macro5
 6048 005f 04       		.byte	0x4
 6049 0060 07       		.byte	0x7
 6050 0061 00000000 		.4byte	.Ldebug_macro6
 6051 0065 04       		.byte	0x4
 6052              		.file 13 "/usr/include/newlib/sys/config.h"
 6053 0066 03       		.byte	0x3
 6054 0067 0B       		.uleb128 0xb
 6055 0068 0D       		.uleb128 0xd
 6056 0069 05       		.byte	0x5
 6057 006a 02       		.uleb128 0x2
 6058 006b 58A40000 		.4byte	.LASF616
 6059              		.file 14 "/usr/include/newlib/machine/ieeefp.h"
 6060 006f 03       		.byte	0x3
 6061 0070 04       		.uleb128 0x4
 6062 0071 0E       		.uleb128 0xe
 6063 0072 07       		.byte	0x7
 6064 0073 00000000 		.4byte	.Ldebug_macro7
 6065 0077 04       		.byte	0x4
 6066              		.file 15 "/usr/include/newlib/sys/features.h"
 6067 0078 03       		.byte	0x3
 6068 0079 05       		.uleb128 0x5
 6069 007a 0F       		.uleb128 0xf
 6070 007b 07       		.byte	0x7
 6071 007c 00000000 		.4byte	.Ldebug_macro8
 6072 0080 04       		.byte	0x4
 6073 0081 07       		.byte	0x7
 6074 0082 00000000 		.4byte	.Ldebug_macro9
 6075 0086 04       		.byte	0x4
 6076 0087 07       		.byte	0x7
 6077 0088 00000000 		.4byte	.Ldebug_macro10
 6078 008c 04       		.byte	0x4
 6079              		.file 16 "/usr/include/newlib/sys/reent.h"
 6080 008d 03       		.byte	0x3
 6081 008e 0B       		.uleb128 0xb
 6082 008f 10       		.uleb128 0x10
 6083 0090 05       		.byte	0x5
 6084 0091 0B       		.uleb128 0xb
 6085 0092 A7D80000 		.4byte	.LASF656
 6086 0096 03       		.byte	0x3
 6087 0097 0D       		.uleb128 0xd
 6088 0098 0A       		.uleb128 0xa
 6089 0099 04       		.byte	0x4
 6090              		.file 17 "/usr/lib/gcc/arm-none-eabi/10.3.1/include/stddef.h"
 6091 009a 03       		.byte	0x3
 6092 009b 0E       		.uleb128 0xe
 6093 009c 11       		.uleb128 0x11
 6094 009d 07       		.byte	0x7
 6095 009e 00000000 		.4byte	.Ldebug_macro11
 6096 00a2 04       		.byte	0x4
 6097              		.file 18 "/usr/include/newlib/sys/_types.h"
ARM GAS  /tmp/cceVa9lb.s 			page 108


 6098 00a3 03       		.byte	0x3
 6099 00a4 0F       		.uleb128 0xf
 6100 00a5 12       		.uleb128 0x12
 6101 00a6 07       		.byte	0x7
 6102 00a7 00000000 		.4byte	.Ldebug_macro12
 6103 00ab 03       		.byte	0x3
 6104 00ac 18       		.uleb128 0x18
 6105 00ad 11       		.uleb128 0x11
 6106 00ae 07       		.byte	0x7
 6107 00af 00000000 		.4byte	.Ldebug_macro13
 6108 00b3 04       		.byte	0x4
 6109              		.file 19 "/usr/include/newlib/machine/_types.h"
 6110 00b4 03       		.byte	0x3
 6111 00b5 1B       		.uleb128 0x1b
 6112 00b6 13       		.uleb128 0x13
 6113 00b7 05       		.byte	0x5
 6114 00b8 06       		.uleb128 0x6
 6115 00b9 E7000100 		.4byte	.LASF714
 6116              		.file 20 "/usr/include/newlib/machine/_default_types.h"
 6117 00bd 03       		.byte	0x3
 6118 00be 07       		.uleb128 0x7
 6119 00bf 14       		.uleb128 0x14
 6120 00c0 07       		.byte	0x7
 6121 00c1 00000000 		.4byte	.Ldebug_macro14
 6122 00c5 04       		.byte	0x4
 6123 00c6 04       		.byte	0x4
 6124 00c7 07       		.byte	0x7
 6125 00c8 00000000 		.4byte	.Ldebug_macro15
 6126 00cc 04       		.byte	0x4
 6127 00cd 07       		.byte	0x7
 6128 00ce 00000000 		.4byte	.Ldebug_macro16
 6129              		.file 21 "/usr/include/newlib/sys/lock.h"
 6130 00d2 03       		.byte	0x3
 6131 00d3 22       		.uleb128 0x22
 6132 00d4 15       		.uleb128 0x15
 6133 00d5 07       		.byte	0x7
 6134 00d6 00000000 		.4byte	.Ldebug_macro17
 6135 00da 04       		.byte	0x4
 6136 00db 07       		.byte	0x7
 6137 00dc 00000000 		.4byte	.Ldebug_macro18
 6138 00e0 04       		.byte	0x4
 6139              		.file 22 "/usr/include/newlib/sys/cdefs.h"
 6140 00e1 03       		.byte	0x3
 6141 00e2 0C       		.uleb128 0xc
 6142 00e3 16       		.uleb128 0x16
 6143 00e4 05       		.byte	0x5
 6144 00e5 2B       		.uleb128 0x2b
 6145 00e6 82B80000 		.4byte	.LASF805
 6146 00ea 03       		.byte	0x3
 6147 00eb 2F       		.uleb128 0x2f
 6148 00ec 11       		.uleb128 0x11
 6149 00ed 04       		.byte	0x4
 6150 00ee 07       		.byte	0x7
 6151 00ef 00000000 		.4byte	.Ldebug_macro19
 6152 00f3 04       		.byte	0x4
 6153 00f4 07       		.byte	0x7
 6154 00f5 00000000 		.4byte	.Ldebug_macro20
ARM GAS  /tmp/cceVa9lb.s 			page 109


 6155 00f9 03       		.byte	0x3
 6156 00fa 11       		.uleb128 0x11
 6157 00fb 11       		.uleb128 0x11
 6158 00fc 07       		.byte	0x7
 6159 00fd 00000000 		.4byte	.Ldebug_macro21
 6160 0101 04       		.byte	0x4
 6161              		.file 23 "/usr/include/newlib/sys/_locale.h"
 6162 0102 03       		.byte	0x3
 6163 0103 14       		.uleb128 0x14
 6164 0104 17       		.uleb128 0x17
 6165 0105 05       		.byte	0x5
 6166 0106 04       		.uleb128 0x4
 6167 0107 2A590000 		.4byte	.LASF932
 6168 010b 04       		.byte	0x4
 6169              		.file 24 "/usr/include/newlib/strings.h"
 6170 010c 03       		.byte	0x3
 6171 010d 18       		.uleb128 0x18
 6172 010e 18       		.uleb128 0x18
 6173 010f 05       		.byte	0x5
 6174 0110 1E       		.uleb128 0x1e
 6175 0111 46ED0000 		.4byte	.LASF933
 6176 0115 04       		.byte	0x4
 6177              		.file 25 "/usr/include/newlib/sys/string.h"
 6178 0116 03       		.byte	0x3
 6179 0117 AF01     		.uleb128 0xaf
 6180 0119 19       		.uleb128 0x19
 6181 011a 04       		.byte	0x4
 6182 011b 04       		.byte	0x4
 6183              		.file 26 "/home/argroos/paparazzi/sw/include/std.h"
 6184 011c 03       		.byte	0x3
 6185 011d 2D       		.uleb128 0x2d
 6186 011e 1A       		.uleb128 0x1a
 6187 011f 05       		.byte	0x5
 6188 0120 1B       		.uleb128 0x1b
 6189 0121 B1E10000 		.4byte	.LASF934
 6190              		.file 27 "/usr/include/newlib/inttypes.h"
 6191 0125 03       		.byte	0x3
 6192 0126 1D       		.uleb128 0x1d
 6193 0127 1B       		.uleb128 0x1b
 6194 0128 05       		.byte	0x5
 6195 0129 0E       		.uleb128 0xe
 6196 012a C96C0000 		.4byte	.LASF935
 6197              		.file 28 "/usr/include/newlib/sys/_intsup.h"
 6198 012e 03       		.byte	0x3
 6199 012f 12       		.uleb128 0x12
 6200 0130 1C       		.uleb128 0x1c
 6201 0131 07       		.byte	0x7
 6202 0132 00000000 		.4byte	.Ldebug_macro22
 6203 0136 04       		.byte	0x4
 6204 0137 03       		.byte	0x3
 6205 0138 14       		.uleb128 0x14
 6206 0139 02       		.uleb128 0x2
 6207 013a 07       		.byte	0x7
 6208 013b 00000000 		.4byte	.Ldebug_macro23
 6209 013f 04       		.byte	0x4
 6210 0140 05       		.byte	0x5
 6211 0141 15       		.uleb128 0x15
ARM GAS  /tmp/cceVa9lb.s 			page 110


 6212 0142 11D30000 		.4byte	.LASF1089
 6213 0146 03       		.byte	0x3
 6214 0147 16       		.uleb128 0x16
 6215 0148 11       		.uleb128 0x11
 6216 0149 07       		.byte	0x7
 6217 014a 00000000 		.4byte	.Ldebug_macro21
 6218 014e 04       		.byte	0x4
 6219 014f 07       		.byte	0x7
 6220 0150 00000000 		.4byte	.Ldebug_macro24
 6221 0154 04       		.byte	0x4
 6222              		.file 29 "/usr/lib/gcc/arm-none-eabi/10.3.1/include/stdbool.h"
 6223 0155 03       		.byte	0x3
 6224 0156 1E       		.uleb128 0x1e
 6225 0157 1D       		.uleb128 0x1d
 6226 0158 07       		.byte	0x7
 6227 0159 00000000 		.4byte	.Ldebug_macro25
 6228 015d 04       		.byte	0x4
 6229              		.file 30 "/usr/include/newlib/math.h"
 6230 015e 03       		.byte	0x3
 6231 015f 1F       		.uleb128 0x1f
 6232 0160 1E       		.uleb128 0x1e
 6233 0161 05       		.byte	0x5
 6234 0162 03       		.uleb128 0x3
 6235 0163 F6180000 		.4byte	.LASF1227
 6236 0167 03       		.byte	0x3
 6237 0168 07       		.uleb128 0x7
 6238 0169 0E       		.uleb128 0xe
 6239 016a 04       		.byte	0x4
 6240 016b 07       		.byte	0x7
 6241 016c 00000000 		.4byte	.Ldebug_macro26
 6242 0170 04       		.byte	0x4
 6243              		.file 31 "/home/argroos/paparazzi/sw/include/message_pragmas.h"
 6244 0171 03       		.byte	0x3
 6245 0172 26       		.uleb128 0x26
 6246 0173 1F       		.uleb128 0x1f
 6247 0174 07       		.byte	0x7
 6248 0175 00000000 		.4byte	.Ldebug_macro27
 6249 0179 04       		.byte	0x4
 6250 017a 07       		.byte	0x7
 6251 017b 00000000 		.4byte	.Ldebug_macro28
 6252 017f 04       		.byte	0x4
 6253 0180 07       		.byte	0x7
 6254 0181 00000000 		.4byte	.Ldebug_macro29
 6255 0185 04       		.byte	0x4
 6256              		.file 32 "math/pprz_algebra_float.h"
 6257 0186 03       		.byte	0x3
 6258 0187 27       		.uleb128 0x27
 6259 0188 20       		.uleb128 0x20
 6260 0189 05       		.byte	0x5
 6261 018a 20       		.uleb128 0x20
 6262 018b ACE90000 		.4byte	.LASF1441
 6263 018f 03       		.byte	0x3
 6264 0190 27       		.uleb128 0x27
 6265 0191 1F       		.uleb128 0x1f
 6266 0192 04       		.byte	0x4
 6267 0193 07       		.byte	0x7
 6268 0194 00000000 		.4byte	.Ldebug_macro30
ARM GAS  /tmp/cceVa9lb.s 			page 111


 6269 0198 04       		.byte	0x4
 6270 0199 07       		.byte	0x7
 6271 019a 00000000 		.4byte	.Ldebug_macro31
 6272 019e 04       		.byte	0x4
 6273 019f 04       		.byte	0x4
 6274 01a0 03       		.byte	0x3
 6275 01a1 DD01     		.uleb128 0xdd
 6276 01a3 05       		.uleb128 0x5
 6277 01a4 07       		.byte	0x7
 6278 01a5 00000000 		.4byte	.Ldebug_macro32
 6279 01a9 04       		.byte	0x4
 6280 01aa 05       		.byte	0x5
 6281 01ab FA01     		.uleb128 0xfa
 6282 01ad 043B0000 		.4byte	.LASF1517
 6283 01b1 05       		.byte	0x5
 6284 01b2 8002     		.uleb128 0x100
 6285 01b4 AF1F0000 		.4byte	.LASF1518
 6286 01b8 05       		.byte	0x5
 6287 01b9 8602     		.uleb128 0x106
 6288 01bb D7BB0000 		.4byte	.LASF1519
 6289 01bf 04       		.byte	0x4
 6290 01c0 00       		.byte	0
 6291              		.section	.debug_macro,"G",%progbits,wm4.0.2794bdaec8201ab6082bad9e2f5cd9ec,comdat
 6292              	.Ldebug_macro2:
 6293 0000 0400     		.2byte	0x4
 6294 0002 00       		.byte	0
 6295 0003 05       		.byte	0x5
 6296 0004 00       		.uleb128 0
 6297 0005 910A0000 		.4byte	.LASF0
 6298 0009 05       		.byte	0x5
 6299 000a 00       		.uleb128 0
 6300 000b E7B60000 		.4byte	.LASF1
 6301 000f 05       		.byte	0x5
 6302 0010 00       		.uleb128 0
 6303 0011 5C6D0000 		.4byte	.LASF2
 6304 0015 05       		.byte	0x5
 6305 0016 00       		.uleb128 0
 6306 0017 8C250000 		.4byte	.LASF3
 6307 001b 05       		.byte	0x5
 6308 001c 00       		.uleb128 0
 6309 001d 0BA20000 		.4byte	.LASF4
 6310 0021 05       		.byte	0x5
 6311 0022 00       		.uleb128 0
 6312 0023 9A760000 		.4byte	.LASF5
 6313 0027 05       		.byte	0x5
 6314 0028 00       		.uleb128 0
 6315 0029 70010100 		.4byte	.LASF6
 6316 002d 05       		.byte	0x5
 6317 002e 00       		.uleb128 0
 6318 002f 41090100 		.4byte	.LASF7
 6319 0033 05       		.byte	0x5
 6320 0034 00       		.uleb128 0
 6321 0035 CEF50000 		.4byte	.LASF8
 6322 0039 05       		.byte	0x5
 6323 003a 00       		.uleb128 0
 6324 003b 74700000 		.4byte	.LASF9
 6325 003f 05       		.byte	0x5
ARM GAS  /tmp/cceVa9lb.s 			page 112


 6326 0040 00       		.uleb128 0
 6327 0041 522A0000 		.4byte	.LASF10
 6328 0045 05       		.byte	0x5
 6329 0046 00       		.uleb128 0
 6330 0047 026B0000 		.4byte	.LASF11
 6331 004b 05       		.byte	0x5
 6332 004c 00       		.uleb128 0
 6333 004d D1ED0000 		.4byte	.LASF12
 6334 0051 05       		.byte	0x5
 6335 0052 00       		.uleb128 0
 6336 0053 CF5D0000 		.4byte	.LASF13
 6337 0057 05       		.byte	0x5
 6338 0058 00       		.uleb128 0
 6339 0059 7CE50000 		.4byte	.LASF14
 6340 005d 05       		.byte	0x5
 6341 005e 00       		.uleb128 0
 6342 005f DFC70000 		.4byte	.LASF15
 6343 0063 05       		.byte	0x5
 6344 0064 00       		.uleb128 0
 6345 0065 39190000 		.4byte	.LASF16
 6346 0069 05       		.byte	0x5
 6347 006a 00       		.uleb128 0
 6348 006b 490F0000 		.4byte	.LASF17
 6349 006f 05       		.byte	0x5
 6350 0070 00       		.uleb128 0
 6351 0071 E6450000 		.4byte	.LASF18
 6352 0075 05       		.byte	0x5
 6353 0076 00       		.uleb128 0
 6354 0077 32E10000 		.4byte	.LASF19
 6355 007b 05       		.byte	0x5
 6356 007c 00       		.uleb128 0
 6357 007d C9360000 		.4byte	.LASF20
 6358 0081 05       		.byte	0x5
 6359 0082 00       		.uleb128 0
 6360 0083 F2CF0000 		.4byte	.LASF21
 6361 0087 05       		.byte	0x5
 6362 0088 00       		.uleb128 0
 6363 0089 7FF60000 		.4byte	.LASF22
 6364 008d 05       		.byte	0x5
 6365 008e 00       		.uleb128 0
 6366 008f FB410000 		.4byte	.LASF23
 6367 0093 05       		.byte	0x5
 6368 0094 00       		.uleb128 0
 6369 0095 E18B0000 		.4byte	.LASF24
 6370 0099 05       		.byte	0x5
 6371 009a 00       		.uleb128 0
 6372 009b FD220000 		.4byte	.LASF25
 6373 009f 05       		.byte	0x5
 6374 00a0 00       		.uleb128 0
 6375 00a1 7A3D0000 		.4byte	.LASF26
 6376 00a5 05       		.byte	0x5
 6377 00a6 00       		.uleb128 0
 6378 00a7 7DC30000 		.4byte	.LASF27
 6379 00ab 05       		.byte	0x5
 6380 00ac 00       		.uleb128 0
 6381 00ad C66A0000 		.4byte	.LASF28
 6382 00b1 05       		.byte	0x5
ARM GAS  /tmp/cceVa9lb.s 			page 113


 6383 00b2 00       		.uleb128 0
 6384 00b3 F00B0000 		.4byte	.LASF29
 6385 00b7 05       		.byte	0x5
 6386 00b8 00       		.uleb128 0
 6387 00b9 A3000000 		.4byte	.LASF30
 6388 00bd 05       		.byte	0x5
 6389 00be 00       		.uleb128 0
 6390 00bf 43B10000 		.4byte	.LASF31
 6391 00c3 05       		.byte	0x5
 6392 00c4 00       		.uleb128 0
 6393 00c5 FDF90000 		.4byte	.LASF32
 6394 00c9 05       		.byte	0x5
 6395 00ca 00       		.uleb128 0
 6396 00cb 66A60000 		.4byte	.LASF33
 6397 00cf 05       		.byte	0x5
 6398 00d0 00       		.uleb128 0
 6399 00d1 090E0000 		.4byte	.LASF34
 6400 00d5 05       		.byte	0x5
 6401 00d6 00       		.uleb128 0
 6402 00d7 6A470000 		.4byte	.LASF35
 6403 00db 05       		.byte	0x5
 6404 00dc 00       		.uleb128 0
 6405 00dd FB8B0000 		.4byte	.LASF36
 6406 00e1 05       		.byte	0x5
 6407 00e2 00       		.uleb128 0
 6408 00e3 19B20000 		.4byte	.LASF37
 6409 00e7 05       		.byte	0x5
 6410 00e8 00       		.uleb128 0
 6411 00e9 1D8F0000 		.4byte	.LASF38
 6412 00ed 05       		.byte	0x5
 6413 00ee 00       		.uleb128 0
 6414 00ef 45B00000 		.4byte	.LASF39
 6415 00f3 05       		.byte	0x5
 6416 00f4 00       		.uleb128 0
 6417 00f5 4C1A0000 		.4byte	.LASF40
 6418 00f9 05       		.byte	0x5
 6419 00fa 00       		.uleb128 0
 6420 00fb 52D40000 		.4byte	.LASF41
 6421 00ff 05       		.byte	0x5
 6422 0100 00       		.uleb128 0
 6423 0101 76540000 		.4byte	.LASF42
 6424 0105 05       		.byte	0x5
 6425 0106 00       		.uleb128 0
 6426 0107 3FC50000 		.4byte	.LASF43
 6427 010b 05       		.byte	0x5
 6428 010c 00       		.uleb128 0
 6429 010d C1EA0000 		.4byte	.LASF44
 6430 0111 05       		.byte	0x5
 6431 0112 00       		.uleb128 0
 6432 0113 20230000 		.4byte	.LASF45
 6433 0117 05       		.byte	0x5
 6434 0118 00       		.uleb128 0
 6435 0119 91260000 		.4byte	.LASF46
 6436 011d 05       		.byte	0x5
 6437 011e 00       		.uleb128 0
 6438 011f 89380000 		.4byte	.LASF47
 6439 0123 05       		.byte	0x5
ARM GAS  /tmp/cceVa9lb.s 			page 114


 6440 0124 00       		.uleb128 0
 6441 0125 2D0D0000 		.4byte	.LASF48
 6442 0129 05       		.byte	0x5
 6443 012a 00       		.uleb128 0
 6444 012b 597B0000 		.4byte	.LASF49
 6445 012f 05       		.byte	0x5
 6446 0130 00       		.uleb128 0
 6447 0131 D8E50000 		.4byte	.LASF50
 6448 0135 05       		.byte	0x5
 6449 0136 00       		.uleb128 0
 6450 0137 5B150000 		.4byte	.LASF51
 6451 013b 05       		.byte	0x5
 6452 013c 00       		.uleb128 0
 6453 013d 1D1C0000 		.4byte	.LASF52
 6454 0141 05       		.byte	0x5
 6455 0142 00       		.uleb128 0
 6456 0143 C3950000 		.4byte	.LASF53
 6457 0147 05       		.byte	0x5
 6458 0148 00       		.uleb128 0
 6459 0149 37030100 		.4byte	.LASF54
 6460 014d 05       		.byte	0x5
 6461 014e 00       		.uleb128 0
 6462 014f FAE80000 		.4byte	.LASF55
 6463 0153 05       		.byte	0x5
 6464 0154 00       		.uleb128 0
 6465 0155 F7E50000 		.4byte	.LASF56
 6466 0159 05       		.byte	0x5
 6467 015a 00       		.uleb128 0
 6468 015b 27A10000 		.4byte	.LASF57
 6469 015f 05       		.byte	0x5
 6470 0160 00       		.uleb128 0
 6471 0161 BB760000 		.4byte	.LASF58
 6472 0165 05       		.byte	0x5
 6473 0166 00       		.uleb128 0
 6474 0167 FDD60000 		.4byte	.LASF59
 6475 016b 05       		.byte	0x5
 6476 016c 00       		.uleb128 0
 6477 016d 1E6B0000 		.4byte	.LASF60
 6478 0171 05       		.byte	0x5
 6479 0172 00       		.uleb128 0
 6480 0173 102C0000 		.4byte	.LASF61
 6481 0177 05       		.byte	0x5
 6482 0178 00       		.uleb128 0
 6483 0179 D4180000 		.4byte	.LASF62
 6484 017d 05       		.byte	0x5
 6485 017e 00       		.uleb128 0
 6486 017f 14C40000 		.4byte	.LASF63
 6487 0183 05       		.byte	0x5
 6488 0184 00       		.uleb128 0
 6489 0185 C9730000 		.4byte	.LASF64
 6490 0189 05       		.byte	0x5
 6491 018a 00       		.uleb128 0
 6492 018b BD110000 		.4byte	.LASF65
 6493 018f 05       		.byte	0x5
 6494 0190 00       		.uleb128 0
 6495 0191 A5C70000 		.4byte	.LASF66
 6496 0195 05       		.byte	0x5
ARM GAS  /tmp/cceVa9lb.s 			page 115


 6497 0196 00       		.uleb128 0
 6498 0197 427B0000 		.4byte	.LASF67
 6499 019b 05       		.byte	0x5
 6500 019c 00       		.uleb128 0
 6501 019d C95F0000 		.4byte	.LASF68
 6502 01a1 05       		.byte	0x5
 6503 01a2 00       		.uleb128 0
 6504 01a3 80160000 		.4byte	.LASF69
 6505 01a7 05       		.byte	0x5
 6506 01a8 00       		.uleb128 0
 6507 01a9 EB7A0000 		.4byte	.LASF70
 6508 01ad 05       		.byte	0x5
 6509 01ae 00       		.uleb128 0
 6510 01af E0840000 		.4byte	.LASF71
 6511 01b3 05       		.byte	0x5
 6512 01b4 00       		.uleb128 0
 6513 01b5 DBB50000 		.4byte	.LASF72
 6514 01b9 05       		.byte	0x5
 6515 01ba 00       		.uleb128 0
 6516 01bb 0CBD0000 		.4byte	.LASF73
 6517 01bf 05       		.byte	0x5
 6518 01c0 00       		.uleb128 0
 6519 01c1 615B0000 		.4byte	.LASF74
 6520 01c5 05       		.byte	0x5
 6521 01c6 00       		.uleb128 0
 6522 01c7 B0360000 		.4byte	.LASF75
 6523 01cb 05       		.byte	0x5
 6524 01cc 00       		.uleb128 0
 6525 01cd 0AA40000 		.4byte	.LASF76
 6526 01d1 05       		.byte	0x5
 6527 01d2 00       		.uleb128 0
 6528 01d3 FA070000 		.4byte	.LASF77
 6529 01d7 05       		.byte	0x5
 6530 01d8 00       		.uleb128 0
 6531 01d9 AE800000 		.4byte	.LASF78
 6532 01dd 05       		.byte	0x5
 6533 01de 00       		.uleb128 0
 6534 01df EF690000 		.4byte	.LASF79
 6535 01e3 05       		.byte	0x5
 6536 01e4 00       		.uleb128 0
 6537 01e5 98110000 		.4byte	.LASF80
 6538 01e9 05       		.byte	0x5
 6539 01ea 00       		.uleb128 0
 6540 01eb C7510000 		.4byte	.LASF81
 6541 01ef 05       		.byte	0x5
 6542 01f0 00       		.uleb128 0
 6543 01f1 16D20000 		.4byte	.LASF82
 6544 01f5 05       		.byte	0x5
 6545 01f6 00       		.uleb128 0
 6546 01f7 C6A60000 		.4byte	.LASF83
 6547 01fb 05       		.byte	0x5
 6548 01fc 00       		.uleb128 0
 6549 01fd 56AB0000 		.4byte	.LASF84
 6550 0201 05       		.byte	0x5
 6551 0202 00       		.uleb128 0
 6552 0203 35420000 		.4byte	.LASF85
 6553 0207 05       		.byte	0x5
ARM GAS  /tmp/cceVa9lb.s 			page 116


 6554 0208 00       		.uleb128 0
 6555 0209 A4350000 		.4byte	.LASF86
 6556 020d 05       		.byte	0x5
 6557 020e 00       		.uleb128 0
 6558 020f 44410000 		.4byte	.LASF87
 6559 0213 05       		.byte	0x5
 6560 0214 00       		.uleb128 0
 6561 0215 053C0000 		.4byte	.LASF88
 6562 0219 05       		.byte	0x5
 6563 021a 00       		.uleb128 0
 6564 021b B97E0000 		.4byte	.LASF89
 6565 021f 05       		.byte	0x5
 6566 0220 00       		.uleb128 0
 6567 0221 FA4E0000 		.4byte	.LASF90
 6568 0225 05       		.byte	0x5
 6569 0226 00       		.uleb128 0
 6570 0227 4F720000 		.4byte	.LASF91
 6571 022b 05       		.byte	0x5
 6572 022c 00       		.uleb128 0
 6573 022d 736E0000 		.4byte	.LASF92
 6574 0231 05       		.byte	0x5
 6575 0232 00       		.uleb128 0
 6576 0233 0ACE0000 		.4byte	.LASF93
 6577 0237 05       		.byte	0x5
 6578 0238 00       		.uleb128 0
 6579 0239 36C40000 		.4byte	.LASF94
 6580 023d 05       		.byte	0x5
 6581 023e 00       		.uleb128 0
 6582 023f 40490000 		.4byte	.LASF95
 6583 0243 05       		.byte	0x5
 6584 0244 00       		.uleb128 0
 6585 0245 BC7C0000 		.4byte	.LASF96
 6586 0249 05       		.byte	0x5
 6587 024a 00       		.uleb128 0
 6588 024b 84490000 		.4byte	.LASF97
 6589 024f 05       		.byte	0x5
 6590 0250 00       		.uleb128 0
 6591 0251 225E0000 		.4byte	.LASF98
 6592 0255 05       		.byte	0x5
 6593 0256 00       		.uleb128 0
 6594 0257 162A0000 		.4byte	.LASF99
 6595 025b 05       		.byte	0x5
 6596 025c 00       		.uleb128 0
 6597 025d 9EE10000 		.4byte	.LASF100
 6598 0261 05       		.byte	0x5
 6599 0262 00       		.uleb128 0
 6600 0263 E6F20000 		.4byte	.LASF101
 6601 0267 05       		.byte	0x5
 6602 0268 00       		.uleb128 0
 6603 0269 41050100 		.4byte	.LASF102
 6604 026d 05       		.byte	0x5
 6605 026e 00       		.uleb128 0
 6606 026f 14190000 		.4byte	.LASF103
 6607 0273 05       		.byte	0x5
 6608 0274 00       		.uleb128 0
 6609 0275 9F4C0000 		.4byte	.LASF104
 6610 0279 05       		.byte	0x5
ARM GAS  /tmp/cceVa9lb.s 			page 117


 6611 027a 00       		.uleb128 0
 6612 027b 36280000 		.4byte	.LASF105
 6613 027f 05       		.byte	0x5
 6614 0280 00       		.uleb128 0
 6615 0281 83760000 		.4byte	.LASF106
 6616 0285 05       		.byte	0x5
 6617 0286 00       		.uleb128 0
 6618 0287 E9160000 		.4byte	.LASF107
 6619 028b 05       		.byte	0x5
 6620 028c 00       		.uleb128 0
 6621 028d 2EDD0000 		.4byte	.LASF108
 6622 0291 05       		.byte	0x5
 6623 0292 00       		.uleb128 0
 6624 0293 15150000 		.4byte	.LASF109
 6625 0297 05       		.byte	0x5
 6626 0298 00       		.uleb128 0
 6627 0299 D97C0000 		.4byte	.LASF110
 6628 029d 05       		.byte	0x5
 6629 029e 00       		.uleb128 0
 6630 029f 9C870000 		.4byte	.LASF111
 6631 02a3 05       		.byte	0x5
 6632 02a4 00       		.uleb128 0
 6633 02a5 86770000 		.4byte	.LASF112
 6634 02a9 05       		.byte	0x5
 6635 02aa 00       		.uleb128 0
 6636 02ab B96B0000 		.4byte	.LASF113
 6637 02af 05       		.byte	0x5
 6638 02b0 00       		.uleb128 0
 6639 02b1 1CCA0000 		.4byte	.LASF114
 6640 02b5 05       		.byte	0x5
 6641 02b6 00       		.uleb128 0
 6642 02b7 0C6F0000 		.4byte	.LASF115
 6643 02bb 05       		.byte	0x5
 6644 02bc 00       		.uleb128 0
 6645 02bd F7040100 		.4byte	.LASF116
 6646 02c1 05       		.byte	0x5
 6647 02c2 00       		.uleb128 0
 6648 02c3 64390000 		.4byte	.LASF117
 6649 02c7 05       		.byte	0x5
 6650 02c8 00       		.uleb128 0
 6651 02c9 07400000 		.4byte	.LASF118
 6652 02cd 05       		.byte	0x5
 6653 02ce 00       		.uleb128 0
 6654 02cf F11B0000 		.4byte	.LASF119
 6655 02d3 05       		.byte	0x5
 6656 02d4 00       		.uleb128 0
 6657 02d5 F0C20000 		.4byte	.LASF120
 6658 02d9 05       		.byte	0x5
 6659 02da 00       		.uleb128 0
 6660 02db 856C0000 		.4byte	.LASF121
 6661 02df 05       		.byte	0x5
 6662 02e0 00       		.uleb128 0
 6663 02e1 0B280000 		.4byte	.LASF122
 6664 02e5 05       		.byte	0x5
 6665 02e6 00       		.uleb128 0
 6666 02e7 394D0000 		.4byte	.LASF123
 6667 02eb 05       		.byte	0x5
ARM GAS  /tmp/cceVa9lb.s 			page 118


 6668 02ec 00       		.uleb128 0
 6669 02ed 6E310000 		.4byte	.LASF124
 6670 02f1 05       		.byte	0x5
 6671 02f2 00       		.uleb128 0
 6672 02f3 B5310000 		.4byte	.LASF125
 6673 02f7 05       		.byte	0x5
 6674 02f8 00       		.uleb128 0
 6675 02f9 45050000 		.4byte	.LASF126
 6676 02fd 05       		.byte	0x5
 6677 02fe 00       		.uleb128 0
 6678 02ff FD110000 		.4byte	.LASF127
 6679 0303 05       		.byte	0x5
 6680 0304 00       		.uleb128 0
 6681 0305 86CB0000 		.4byte	.LASF128
 6682 0309 05       		.byte	0x5
 6683 030a 00       		.uleb128 0
 6684 030b 24930000 		.4byte	.LASF129
 6685 030f 05       		.byte	0x5
 6686 0310 00       		.uleb128 0
 6687 0311 67180000 		.4byte	.LASF130
 6688 0315 05       		.byte	0x5
 6689 0316 00       		.uleb128 0
 6690 0317 3A5D0000 		.4byte	.LASF131
 6691 031b 05       		.byte	0x5
 6692 031c 00       		.uleb128 0
 6693 031d 5A810000 		.4byte	.LASF132
 6694 0321 05       		.byte	0x5
 6695 0322 00       		.uleb128 0
 6696 0323 F37E0000 		.4byte	.LASF133
 6697 0327 05       		.byte	0x5
 6698 0328 00       		.uleb128 0
 6699 0329 06D00000 		.4byte	.LASF134
 6700 032d 05       		.byte	0x5
 6701 032e 00       		.uleb128 0
 6702 032f CA0D0000 		.4byte	.LASF135
 6703 0333 05       		.byte	0x5
 6704 0334 00       		.uleb128 0
 6705 0335 7D8F0000 		.4byte	.LASF136
 6706 0339 05       		.byte	0x5
 6707 033a 00       		.uleb128 0
 6708 033b 46B30000 		.4byte	.LASF137
 6709 033f 05       		.byte	0x5
 6710 0340 00       		.uleb128 0
 6711 0341 E3E40000 		.4byte	.LASF138
 6712 0345 05       		.byte	0x5
 6713 0346 00       		.uleb128 0
 6714 0347 15730000 		.4byte	.LASF139
 6715 034b 05       		.byte	0x5
 6716 034c 00       		.uleb128 0
 6717 034d 422E0000 		.4byte	.LASF140
 6718 0351 05       		.byte	0x5
 6719 0352 00       		.uleb128 0
 6720 0353 9EEE0000 		.4byte	.LASF141
 6721 0357 05       		.byte	0x5
 6722 0358 00       		.uleb128 0
 6723 0359 704E0000 		.4byte	.LASF142
 6724 035d 05       		.byte	0x5
ARM GAS  /tmp/cceVa9lb.s 			page 119


 6725 035e 00       		.uleb128 0
 6726 035f 5DF50000 		.4byte	.LASF143
 6727 0363 05       		.byte	0x5
 6728 0364 00       		.uleb128 0
 6729 0365 B94D0000 		.4byte	.LASF144
 6730 0369 05       		.byte	0x5
 6731 036a 00       		.uleb128 0
 6732 036b B8490000 		.4byte	.LASF145
 6733 036f 05       		.byte	0x5
 6734 0370 00       		.uleb128 0
 6735 0371 E43D0000 		.4byte	.LASF146
 6736 0375 05       		.byte	0x5
 6737 0376 00       		.uleb128 0
 6738 0377 C64C0000 		.4byte	.LASF147
 6739 037b 05       		.byte	0x5
 6740 037c 00       		.uleb128 0
 6741 037d 8B340000 		.4byte	.LASF148
 6742 0381 05       		.byte	0x5
 6743 0382 00       		.uleb128 0
 6744 0383 F0290000 		.4byte	.LASF149
 6745 0387 05       		.byte	0x5
 6746 0388 00       		.uleb128 0
 6747 0389 A4CB0000 		.4byte	.LASF150
 6748 038d 05       		.byte	0x5
 6749 038e 00       		.uleb128 0
 6750 038f 29C50000 		.4byte	.LASF151
 6751 0393 05       		.byte	0x5
 6752 0394 00       		.uleb128 0
 6753 0395 1E7B0000 		.4byte	.LASF152
 6754 0399 05       		.byte	0x5
 6755 039a 00       		.uleb128 0
 6756 039b F5000000 		.4byte	.LASF153
 6757 039f 05       		.byte	0x5
 6758 03a0 00       		.uleb128 0
 6759 03a1 B4E50000 		.4byte	.LASF154
 6760 03a5 05       		.byte	0x5
 6761 03a6 00       		.uleb128 0
 6762 03a7 AB380000 		.4byte	.LASF155
 6763 03ab 05       		.byte	0x5
 6764 03ac 00       		.uleb128 0
 6765 03ad 54040100 		.4byte	.LASF156
 6766 03b1 05       		.byte	0x5
 6767 03b2 00       		.uleb128 0
 6768 03b3 21F70000 		.4byte	.LASF157
 6769 03b7 05       		.byte	0x5
 6770 03b8 00       		.uleb128 0
 6771 03b9 15120000 		.4byte	.LASF158
 6772 03bd 05       		.byte	0x5
 6773 03be 00       		.uleb128 0
 6774 03bf B4660000 		.4byte	.LASF159
 6775 03c3 05       		.byte	0x5
 6776 03c4 00       		.uleb128 0
 6777 03c5 325B0000 		.4byte	.LASF160
 6778 03c9 05       		.byte	0x5
 6779 03ca 00       		.uleb128 0
 6780 03cb 76350000 		.4byte	.LASF161
 6781 03cf 05       		.byte	0x5
ARM GAS  /tmp/cceVa9lb.s 			page 120


 6782 03d0 00       		.uleb128 0
 6783 03d1 412C0000 		.4byte	.LASF162
 6784 03d5 05       		.byte	0x5
 6785 03d6 00       		.uleb128 0
 6786 03d7 3EE90000 		.4byte	.LASF163
 6787 03db 05       		.byte	0x5
 6788 03dc 00       		.uleb128 0
 6789 03dd 63330000 		.4byte	.LASF164
 6790 03e1 05       		.byte	0x5
 6791 03e2 00       		.uleb128 0
 6792 03e3 8B7B0000 		.4byte	.LASF165
 6793 03e7 05       		.byte	0x5
 6794 03e8 00       		.uleb128 0
 6795 03e9 A30D0000 		.4byte	.LASF166
 6796 03ed 05       		.byte	0x5
 6797 03ee 00       		.uleb128 0
 6798 03ef CF450000 		.4byte	.LASF167
 6799 03f3 05       		.byte	0x5
 6800 03f4 00       		.uleb128 0
 6801 03f5 978F0000 		.4byte	.LASF168
 6802 03f9 05       		.byte	0x5
 6803 03fa 00       		.uleb128 0
 6804 03fb 6AA40000 		.4byte	.LASF169
 6805 03ff 05       		.byte	0x5
 6806 0400 00       		.uleb128 0
 6807 0401 2B310000 		.4byte	.LASF170
 6808 0405 05       		.byte	0x5
 6809 0406 00       		.uleb128 0
 6810 0407 BF020000 		.4byte	.LASF171
 6811 040b 05       		.byte	0x5
 6812 040c 00       		.uleb128 0
 6813 040d EBF60000 		.4byte	.LASF172
 6814 0411 05       		.byte	0x5
 6815 0412 00       		.uleb128 0
 6816 0413 7DA50000 		.4byte	.LASF173
 6817 0417 05       		.byte	0x5
 6818 0418 00       		.uleb128 0
 6819 0419 79150000 		.4byte	.LASF174
 6820 041d 05       		.byte	0x5
 6821 041e 00       		.uleb128 0
 6822 041f 87F30000 		.4byte	.LASF175
 6823 0423 05       		.byte	0x5
 6824 0424 00       		.uleb128 0
 6825 0425 F6BE0000 		.4byte	.LASF176
 6826 0429 05       		.byte	0x5
 6827 042a 00       		.uleb128 0
 6828 042b 35B00000 		.4byte	.LASF177
 6829 042f 05       		.byte	0x5
 6830 0430 00       		.uleb128 0
 6831 0431 4A330000 		.4byte	.LASF178
 6832 0435 05       		.byte	0x5
 6833 0436 00       		.uleb128 0
 6834 0437 9FF30000 		.4byte	.LASF179
 6835 043b 05       		.byte	0x5
 6836 043c 00       		.uleb128 0
 6837 043d 26D00000 		.4byte	.LASF180
 6838 0441 05       		.byte	0x5
ARM GAS  /tmp/cceVa9lb.s 			page 121


 6839 0442 00       		.uleb128 0
 6840 0443 09EA0000 		.4byte	.LASF181
 6841 0447 05       		.byte	0x5
 6842 0448 00       		.uleb128 0
 6843 0449 7F2C0000 		.4byte	.LASF182
 6844 044d 05       		.byte	0x5
 6845 044e 00       		.uleb128 0
 6846 044f C0210000 		.4byte	.LASF183
 6847 0453 05       		.byte	0x5
 6848 0454 00       		.uleb128 0
 6849 0455 01320000 		.4byte	.LASF184
 6850 0459 05       		.byte	0x5
 6851 045a 00       		.uleb128 0
 6852 045b 26EB0000 		.4byte	.LASF185
 6853 045f 05       		.byte	0x5
 6854 0460 00       		.uleb128 0
 6855 0461 41710000 		.4byte	.LASF186
 6856 0465 05       		.byte	0x5
 6857 0466 00       		.uleb128 0
 6858 0467 374E0000 		.4byte	.LASF187
 6859 046b 05       		.byte	0x5
 6860 046c 00       		.uleb128 0
 6861 046d 8C7E0000 		.4byte	.LASF188
 6862 0471 05       		.byte	0x5
 6863 0472 00       		.uleb128 0
 6864 0473 3C930000 		.4byte	.LASF189
 6865 0477 05       		.byte	0x5
 6866 0478 00       		.uleb128 0
 6867 0479 F6830000 		.4byte	.LASF190
 6868 047d 05       		.byte	0x5
 6869 047e 00       		.uleb128 0
 6870 047f 95BC0000 		.4byte	.LASF191
 6871 0483 05       		.byte	0x5
 6872 0484 00       		.uleb128 0
 6873 0485 FA2B0000 		.4byte	.LASF192
 6874 0489 05       		.byte	0x5
 6875 048a 00       		.uleb128 0
 6876 048b AF020000 		.4byte	.LASF193
 6877 048f 05       		.byte	0x5
 6878 0490 00       		.uleb128 0
 6879 0491 EB320000 		.4byte	.LASF194
 6880 0495 05       		.byte	0x5
 6881 0496 00       		.uleb128 0
 6882 0497 D4230000 		.4byte	.LASF195
 6883 049b 05       		.byte	0x5
 6884 049c 00       		.uleb128 0
 6885 049d 1F0C0000 		.4byte	.LASF196
 6886 04a1 05       		.byte	0x5
 6887 04a2 00       		.uleb128 0
 6888 04a3 DE910000 		.4byte	.LASF197
 6889 04a7 05       		.byte	0x5
 6890 04a8 00       		.uleb128 0
 6891 04a9 4F460000 		.4byte	.LASF198
 6892 04ad 05       		.byte	0x5
 6893 04ae 00       		.uleb128 0
 6894 04af 10990000 		.4byte	.LASF199
 6895 04b3 05       		.byte	0x5
ARM GAS  /tmp/cceVa9lb.s 			page 122


 6896 04b4 00       		.uleb128 0
 6897 04b5 D8260000 		.4byte	.LASF200
 6898 04b9 05       		.byte	0x5
 6899 04ba 00       		.uleb128 0
 6900 04bb ABCA0000 		.4byte	.LASF201
 6901 04bf 05       		.byte	0x5
 6902 04c0 00       		.uleb128 0
 6903 04c1 9B290000 		.4byte	.LASF202
 6904 04c5 05       		.byte	0x5
 6905 04c6 00       		.uleb128 0
 6906 04c7 3F5A0000 		.4byte	.LASF203
 6907 04cb 05       		.byte	0x5
 6908 04cc 00       		.uleb128 0
 6909 04cd 25AE0000 		.4byte	.LASF204
 6910 04d1 05       		.byte	0x5
 6911 04d2 00       		.uleb128 0
 6912 04d3 04170000 		.4byte	.LASF205
 6913 04d7 05       		.byte	0x5
 6914 04d8 00       		.uleb128 0
 6915 04d9 9BED0000 		.4byte	.LASF206
 6916 04dd 05       		.byte	0x5
 6917 04de 00       		.uleb128 0
 6918 04df AC140000 		.4byte	.LASF207
 6919 04e3 05       		.byte	0x5
 6920 04e4 00       		.uleb128 0
 6921 04e5 D1050000 		.4byte	.LASF208
 6922 04e9 05       		.byte	0x5
 6923 04ea 00       		.uleb128 0
 6924 04eb 22520000 		.4byte	.LASF209
 6925 04ef 05       		.byte	0x5
 6926 04f0 00       		.uleb128 0
 6927 04f1 E3D60000 		.4byte	.LASF210
 6928 04f5 05       		.byte	0x5
 6929 04f6 00       		.uleb128 0
 6930 04f7 5C080000 		.4byte	.LASF211
 6931 04fb 05       		.byte	0x5
 6932 04fc 00       		.uleb128 0
 6933 04fd A7960000 		.4byte	.LASF212
 6934 0501 05       		.byte	0x5
 6935 0502 00       		.uleb128 0
 6936 0503 04A60000 		.4byte	.LASF213
 6937 0507 05       		.byte	0x5
 6938 0508 00       		.uleb128 0
 6939 0509 CAE40000 		.4byte	.LASF214
 6940 050d 05       		.byte	0x5
 6941 050e 00       		.uleb128 0
 6942 050f E3BF0000 		.4byte	.LASF215
 6943 0513 05       		.byte	0x5
 6944 0514 00       		.uleb128 0
 6945 0515 D4870000 		.4byte	.LASF216
 6946 0519 05       		.byte	0x5
 6947 051a 00       		.uleb128 0
 6948 051b 548F0000 		.4byte	.LASF217
 6949 051f 05       		.byte	0x5
 6950 0520 00       		.uleb128 0
 6951 0521 44BB0000 		.4byte	.LASF218
 6952 0525 05       		.byte	0x5
ARM GAS  /tmp/cceVa9lb.s 			page 123


 6953 0526 00       		.uleb128 0
 6954 0527 73EB0000 		.4byte	.LASF219
 6955 052b 05       		.byte	0x5
 6956 052c 00       		.uleb128 0
 6957 052d D4F60000 		.4byte	.LASF220
 6958 0531 05       		.byte	0x5
 6959 0532 00       		.uleb128 0
 6960 0533 84B50000 		.4byte	.LASF221
 6961 0537 05       		.byte	0x5
 6962 0538 00       		.uleb128 0
 6963 0539 65D70000 		.4byte	.LASF222
 6964 053d 05       		.byte	0x5
 6965 053e 00       		.uleb128 0
 6966 053f 448B0000 		.4byte	.LASF223
 6967 0543 05       		.byte	0x5
 6968 0544 00       		.uleb128 0
 6969 0545 094E0000 		.4byte	.LASF224
 6970 0549 05       		.byte	0x5
 6971 054a 00       		.uleb128 0
 6972 054b B6D80000 		.4byte	.LASF225
 6973 054f 05       		.byte	0x5
 6974 0550 00       		.uleb128 0
 6975 0551 FFF40000 		.4byte	.LASF226
 6976 0555 05       		.byte	0x5
 6977 0556 00       		.uleb128 0
 6978 0557 CA2B0000 		.4byte	.LASF227
 6979 055b 05       		.byte	0x5
 6980 055c 00       		.uleb128 0
 6981 055d 9A190000 		.4byte	.LASF228
 6982 0561 05       		.byte	0x5
 6983 0562 00       		.uleb128 0
 6984 0563 EC530000 		.4byte	.LASF229
 6985 0567 05       		.byte	0x5
 6986 0568 00       		.uleb128 0
 6987 0569 F1020000 		.4byte	.LASF230
 6988 056d 05       		.byte	0x5
 6989 056e 00       		.uleb128 0
 6990 056f 2A670000 		.4byte	.LASF231
 6991 0573 05       		.byte	0x5
 6992 0574 00       		.uleb128 0
 6993 0575 FBF80000 		.4byte	.LASF232
 6994 0579 05       		.byte	0x5
 6995 057a 00       		.uleb128 0
 6996 057b 45730000 		.4byte	.LASF233
 6997 057f 05       		.byte	0x5
 6998 0580 00       		.uleb128 0
 6999 0581 41220000 		.4byte	.LASF234
 7000 0585 05       		.byte	0x5
 7001 0586 00       		.uleb128 0
 7002 0587 7BED0000 		.4byte	.LASF235
 7003 058b 05       		.byte	0x5
 7004 058c 00       		.uleb128 0
 7005 058d C3270000 		.4byte	.LASF236
 7006 0591 05       		.byte	0x5
 7007 0592 00       		.uleb128 0
 7008 0593 85E80000 		.4byte	.LASF237
 7009 0597 05       		.byte	0x5
ARM GAS  /tmp/cceVa9lb.s 			page 124


 7010 0598 00       		.uleb128 0
 7011 0599 3C450000 		.4byte	.LASF238
 7012 059d 05       		.byte	0x5
 7013 059e 00       		.uleb128 0
 7014 059f 133D0000 		.4byte	.LASF239
 7015 05a3 05       		.byte	0x5
 7016 05a4 00       		.uleb128 0
 7017 05a5 56830000 		.4byte	.LASF240
 7018 05a9 05       		.byte	0x5
 7019 05aa 00       		.uleb128 0
 7020 05ab 21F60000 		.4byte	.LASF241
 7021 05af 05       		.byte	0x5
 7022 05b0 00       		.uleb128 0
 7023 05b1 60E50000 		.4byte	.LASF242
 7024 05b5 05       		.byte	0x5
 7025 05b6 00       		.uleb128 0
 7026 05b7 89E60000 		.4byte	.LASF243
 7027 05bb 05       		.byte	0x5
 7028 05bc 00       		.uleb128 0
 7029 05bd C5F40000 		.4byte	.LASF244
 7030 05c1 05       		.byte	0x5
 7031 05c2 00       		.uleb128 0
 7032 05c3 2E150000 		.4byte	.LASF245
 7033 05c7 05       		.byte	0x5
 7034 05c8 00       		.uleb128 0
 7035 05c9 A2980000 		.4byte	.LASF246
 7036 05cd 05       		.byte	0x5
 7037 05ce 00       		.uleb128 0
 7038 05cf 4BC30000 		.4byte	.LASF247
 7039 05d3 05       		.byte	0x5
 7040 05d4 00       		.uleb128 0
 7041 05d5 525D0000 		.4byte	.LASF248
 7042 05d9 05       		.byte	0x5
 7043 05da 00       		.uleb128 0
 7044 05db F1A10000 		.4byte	.LASF249
 7045 05df 05       		.byte	0x5
 7046 05e0 00       		.uleb128 0
 7047 05e1 66560000 		.4byte	.LASF250
 7048 05e5 05       		.byte	0x5
 7049 05e6 00       		.uleb128 0
 7050 05e7 8B720000 		.4byte	.LASF251
 7051 05eb 05       		.byte	0x5
 7052 05ec 00       		.uleb128 0
 7053 05ed C8500000 		.4byte	.LASF252
 7054 05f1 05       		.byte	0x5
 7055 05f2 00       		.uleb128 0
 7056 05f3 76C50000 		.4byte	.LASF253
 7057 05f7 05       		.byte	0x5
 7058 05f8 00       		.uleb128 0
 7059 05f9 20F30000 		.4byte	.LASF254
 7060 05fd 05       		.byte	0x5
 7061 05fe 00       		.uleb128 0
 7062 05ff 16340000 		.4byte	.LASF255
 7063 0603 05       		.byte	0x5
 7064 0604 00       		.uleb128 0
 7065 0605 DDC30000 		.4byte	.LASF256
 7066 0609 05       		.byte	0x5
ARM GAS  /tmp/cceVa9lb.s 			page 125


 7067 060a 00       		.uleb128 0
 7068 060b 53800000 		.4byte	.LASF257
 7069 060f 05       		.byte	0x5
 7070 0610 00       		.uleb128 0
 7071 0611 C37B0000 		.4byte	.LASF258
 7072 0615 05       		.byte	0x5
 7073 0616 00       		.uleb128 0
 7074 0617 372F0000 		.4byte	.LASF259
 7075 061b 05       		.byte	0x5
 7076 061c 00       		.uleb128 0
 7077 061d 00B70000 		.4byte	.LASF260
 7078 0621 05       		.byte	0x5
 7079 0622 00       		.uleb128 0
 7080 0623 21710000 		.4byte	.LASF261
 7081 0627 05       		.byte	0x5
 7082 0628 00       		.uleb128 0
 7083 0629 AFE80000 		.4byte	.LASF262
 7084 062d 05       		.byte	0x5
 7085 062e 00       		.uleb128 0
 7086 062f 81560000 		.4byte	.LASF263
 7087 0633 05       		.byte	0x5
 7088 0634 00       		.uleb128 0
 7089 0635 5ACD0000 		.4byte	.LASF264
 7090 0639 05       		.byte	0x5
 7091 063a 00       		.uleb128 0
 7092 063b A5C50000 		.4byte	.LASF265
 7093 063f 05       		.byte	0x5
 7094 0640 00       		.uleb128 0
 7095 0641 11B10000 		.4byte	.LASF266
 7096 0645 05       		.byte	0x5
 7097 0646 00       		.uleb128 0
 7098 0647 C1B80000 		.4byte	.LASF267
 7099 064b 05       		.byte	0x5
 7100 064c 00       		.uleb128 0
 7101 064d 21B00000 		.4byte	.LASF268
 7102 0651 05       		.byte	0x5
 7103 0652 00       		.uleb128 0
 7104 0653 12AE0000 		.4byte	.LASF269
 7105 0657 05       		.byte	0x5
 7106 0658 00       		.uleb128 0
 7107 0659 17330000 		.4byte	.LASF270
 7108 065d 05       		.byte	0x5
 7109 065e 00       		.uleb128 0
 7110 065f 40000100 		.4byte	.LASF271
 7111 0663 05       		.byte	0x5
 7112 0664 00       		.uleb128 0
 7113 0665 045D0000 		.4byte	.LASF272
 7114 0669 05       		.byte	0x5
 7115 066a 00       		.uleb128 0
 7116 066b B6BF0000 		.4byte	.LASF273
 7117 066f 05       		.byte	0x5
 7118 0670 00       		.uleb128 0
 7119 0671 BF0B0000 		.4byte	.LASF274
 7120 0675 05       		.byte	0x5
 7121 0676 00       		.uleb128 0
 7122 0677 293C0000 		.4byte	.LASF275
 7123 067b 05       		.byte	0x5
ARM GAS  /tmp/cceVa9lb.s 			page 126


 7124 067c 00       		.uleb128 0
 7125 067d 33610000 		.4byte	.LASF276
 7126 0681 05       		.byte	0x5
 7127 0682 00       		.uleb128 0
 7128 0683 A1F00000 		.4byte	.LASF277
 7129 0687 05       		.byte	0x5
 7130 0688 00       		.uleb128 0
 7131 0689 8BAF0000 		.4byte	.LASF278
 7132 068d 05       		.byte	0x5
 7133 068e 00       		.uleb128 0
 7134 068f E22E0000 		.4byte	.LASF279
 7135 0693 05       		.byte	0x5
 7136 0694 00       		.uleb128 0
 7137 0695 E6D70000 		.4byte	.LASF280
 7138 0699 05       		.byte	0x5
 7139 069a 00       		.uleb128 0
 7140 069b 67710000 		.4byte	.LASF281
 7141 069f 05       		.byte	0x5
 7142 06a0 00       		.uleb128 0
 7143 06a1 A1BB0000 		.4byte	.LASF282
 7144 06a5 05       		.byte	0x5
 7145 06a6 00       		.uleb128 0
 7146 06a7 52380000 		.4byte	.LASF283
 7147 06ab 05       		.byte	0x5
 7148 06ac 00       		.uleb128 0
 7149 06ad 63C50000 		.4byte	.LASF284
 7150 06b1 05       		.byte	0x5
 7151 06b2 00       		.uleb128 0
 7152 06b3 ED270000 		.4byte	.LASF285
 7153 06b7 05       		.byte	0x5
 7154 06b8 00       		.uleb128 0
 7155 06b9 097C0000 		.4byte	.LASF286
 7156 06bd 05       		.byte	0x5
 7157 06be 00       		.uleb128 0
 7158 06bf E77D0000 		.4byte	.LASF287
 7159 06c3 05       		.byte	0x5
 7160 06c4 00       		.uleb128 0
 7161 06c5 6A6B0000 		.4byte	.LASF288
 7162 06c9 05       		.byte	0x5
 7163 06ca 00       		.uleb128 0
 7164 06cb 7A6D0000 		.4byte	.LASF289
 7165 06cf 05       		.byte	0x5
 7166 06d0 00       		.uleb128 0
 7167 06d1 E90C0000 		.4byte	.LASF290
 7168 06d5 05       		.byte	0x5
 7169 06d6 00       		.uleb128 0
 7170 06d7 68D60000 		.4byte	.LASF291
 7171 06db 05       		.byte	0x5
 7172 06dc 00       		.uleb128 0
 7173 06dd 304F0000 		.4byte	.LASF292
 7174 06e1 05       		.byte	0x5
 7175 06e2 00       		.uleb128 0
 7176 06e3 3A000000 		.4byte	.LASF293
 7177 06e7 05       		.byte	0x5
 7178 06e8 00       		.uleb128 0
 7179 06e9 1C030000 		.4byte	.LASF294
 7180 06ed 05       		.byte	0x5
ARM GAS  /tmp/cceVa9lb.s 			page 127


 7181 06ee 00       		.uleb128 0
 7182 06ef D9620000 		.4byte	.LASF295
 7183 06f3 05       		.byte	0x5
 7184 06f4 00       		.uleb128 0
 7185 06f5 CFF70000 		.4byte	.LASF296
 7186 06f9 05       		.byte	0x5
 7187 06fa 00       		.uleb128 0
 7188 06fb E0110000 		.4byte	.LASF297
 7189 06ff 05       		.byte	0x5
 7190 0700 00       		.uleb128 0
 7191 0701 A6830000 		.4byte	.LASF298
 7192 0705 05       		.byte	0x5
 7193 0706 00       		.uleb128 0
 7194 0707 F0DC0000 		.4byte	.LASF299
 7195 070b 05       		.byte	0x5
 7196 070c 00       		.uleb128 0
 7197 070d CF7E0000 		.4byte	.LASF300
 7198 0711 05       		.byte	0x5
 7199 0712 00       		.uleb128 0
 7200 0713 904F0000 		.4byte	.LASF301
 7201 0717 05       		.byte	0x5
 7202 0718 00       		.uleb128 0
 7203 0719 1DA90000 		.4byte	.LASF302
 7204 071d 05       		.byte	0x5
 7205 071e 00       		.uleb128 0
 7206 071f 414A0000 		.4byte	.LASF303
 7207 0723 05       		.byte	0x5
 7208 0724 00       		.uleb128 0
 7209 0725 084C0000 		.4byte	.LASF304
 7210 0729 05       		.byte	0x5
 7211 072a 00       		.uleb128 0
 7212 072b DF830000 		.4byte	.LASF305
 7213 072f 05       		.byte	0x5
 7214 0730 00       		.uleb128 0
 7215 0731 F85D0000 		.4byte	.LASF306
 7216 0735 05       		.byte	0x5
 7217 0736 00       		.uleb128 0
 7218 0737 99490000 		.4byte	.LASF307
 7219 073b 05       		.byte	0x5
 7220 073c 00       		.uleb128 0
 7221 073d 00190000 		.4byte	.LASF308
 7222 0741 05       		.byte	0x5
 7223 0742 00       		.uleb128 0
 7224 0743 B4AF0000 		.4byte	.LASF309
 7225 0747 05       		.byte	0x5
 7226 0748 00       		.uleb128 0
 7227 0749 8F180000 		.4byte	.LASF310
 7228 074d 05       		.byte	0x5
 7229 074e 00       		.uleb128 0
 7230 074f 900C0000 		.4byte	.LASF311
 7231 0753 05       		.byte	0x5
 7232 0754 00       		.uleb128 0
 7233 0755 4E450000 		.4byte	.LASF312
 7234 0759 05       		.byte	0x5
 7235 075a 00       		.uleb128 0
 7236 075b 5DBC0000 		.4byte	.LASF313
 7237 075f 05       		.byte	0x5
ARM GAS  /tmp/cceVa9lb.s 			page 128


 7238 0760 00       		.uleb128 0
 7239 0761 64250000 		.4byte	.LASF314
 7240 0765 05       		.byte	0x5
 7241 0766 00       		.uleb128 0
 7242 0767 FE350000 		.4byte	.LASF315
 7243 076b 05       		.byte	0x5
 7244 076c 00       		.uleb128 0
 7245 076d 38250000 		.4byte	.LASF316
 7246 0771 05       		.byte	0x5
 7247 0772 00       		.uleb128 0
 7248 0773 C08B0000 		.4byte	.LASF317
 7249 0777 05       		.byte	0x5
 7250 0778 00       		.uleb128 0
 7251 0779 63840000 		.4byte	.LASF318
 7252 077d 05       		.byte	0x5
 7253 077e 00       		.uleb128 0
 7254 077f 20300000 		.4byte	.LASF319
 7255 0783 05       		.byte	0x5
 7256 0784 00       		.uleb128 0
 7257 0785 9DAF0000 		.4byte	.LASF320
 7258 0789 05       		.byte	0x5
 7259 078a 00       		.uleb128 0
 7260 078b E4ED0000 		.4byte	.LASF321
 7261 078f 05       		.byte	0x5
 7262 0790 00       		.uleb128 0
 7263 0791 EB4E0000 		.4byte	.LASF322
 7264 0795 05       		.byte	0x5
 7265 0796 00       		.uleb128 0
 7266 0797 15820000 		.4byte	.LASF323
 7267 079b 05       		.byte	0x5
 7268 079c 00       		.uleb128 0
 7269 079d D1110000 		.4byte	.LASF324
 7270 07a1 05       		.byte	0x5
 7271 07a2 00       		.uleb128 0
 7272 07a3 D5BF0000 		.4byte	.LASF325
 7273 07a7 05       		.byte	0x5
 7274 07a8 00       		.uleb128 0
 7275 07a9 F4C50000 		.4byte	.LASF326
 7276 07ad 05       		.byte	0x5
 7277 07ae 00       		.uleb128 0
 7278 07af 12F80000 		.4byte	.LASF327
 7279 07b3 05       		.byte	0x5
 7280 07b4 00       		.uleb128 0
 7281 07b5 B74C0000 		.4byte	.LASF328
 7282 07b9 05       		.byte	0x5
 7283 07ba 00       		.uleb128 0
 7284 07bb 6FC00000 		.4byte	.LASF329
 7285 07bf 05       		.byte	0x5
 7286 07c0 00       		.uleb128 0
 7287 07c1 A4580000 		.4byte	.LASF330
 7288 07c5 05       		.byte	0x5
 7289 07c6 00       		.uleb128 0
 7290 07c7 F8820000 		.4byte	.LASF331
 7291 07cb 05       		.byte	0x5
 7292 07cc 00       		.uleb128 0
 7293 07cd DDA00000 		.4byte	.LASF332
 7294 07d1 05       		.byte	0x5
ARM GAS  /tmp/cceVa9lb.s 			page 129


 7295 07d2 00       		.uleb128 0
 7296 07d3 88450000 		.4byte	.LASF333
 7297 07d7 05       		.byte	0x5
 7298 07d8 00       		.uleb128 0
 7299 07d9 0EC80000 		.4byte	.LASF334
 7300 07dd 05       		.byte	0x5
 7301 07de 00       		.uleb128 0
 7302 07df D4340000 		.4byte	.LASF335
 7303 07e3 05       		.byte	0x5
 7304 07e4 00       		.uleb128 0
 7305 07e5 EEAB0000 		.4byte	.LASF336
 7306 07e9 05       		.byte	0x5
 7307 07ea 00       		.uleb128 0
 7308 07eb 23780000 		.4byte	.LASF337
 7309 07ef 05       		.byte	0x5
 7310 07f0 00       		.uleb128 0
 7311 07f1 7E620000 		.4byte	.LASF338
 7312 07f5 05       		.byte	0x5
 7313 07f6 00       		.uleb128 0
 7314 07f7 0AED0000 		.4byte	.LASF339
 7315 07fb 05       		.byte	0x5
 7316 07fc 00       		.uleb128 0
 7317 07fd 350C0000 		.4byte	.LASF340
 7318 0801 05       		.byte	0x5
 7319 0802 00       		.uleb128 0
 7320 0803 3B0E0000 		.4byte	.LASF341
 7321 0807 05       		.byte	0x5
 7322 0808 00       		.uleb128 0
 7323 0809 9CCA0000 		.4byte	.LASF342
 7324 080d 05       		.byte	0x5
 7325 080e 00       		.uleb128 0
 7326 080f 64CC0000 		.4byte	.LASF343
 7327 0813 05       		.byte	0x5
 7328 0814 00       		.uleb128 0
 7329 0815 17EB0000 		.4byte	.LASF344
 7330 0819 05       		.byte	0x5
 7331 081a 00       		.uleb128 0
 7332 081b 30ED0000 		.4byte	.LASF345
 7333 081f 05       		.byte	0x5
 7334 0820 00       		.uleb128 0
 7335 0821 48F00000 		.4byte	.LASF346
 7336 0825 05       		.byte	0x5
 7337 0826 00       		.uleb128 0
 7338 0827 7AFF0000 		.4byte	.LASF347
 7339 082b 05       		.byte	0x5
 7340 082c 00       		.uleb128 0
 7341 082d DB4D0000 		.4byte	.LASF348
 7342 0831 05       		.byte	0x5
 7343 0832 00       		.uleb128 0
 7344 0833 204F0000 		.4byte	.LASF349
 7345 0837 05       		.byte	0x5
 7346 0838 00       		.uleb128 0
 7347 0839 BA0C0000 		.4byte	.LASF350
 7348 083d 05       		.byte	0x5
 7349 083e 00       		.uleb128 0
 7350 083f F30E0000 		.4byte	.LASF351
 7351 0843 05       		.byte	0x5
ARM GAS  /tmp/cceVa9lb.s 			page 130


 7352 0844 00       		.uleb128 0
 7353 0845 312C0000 		.4byte	.LASF352
 7354 0849 05       		.byte	0x5
 7355 084a 00       		.uleb128 0
 7356 084b 322E0000 		.4byte	.LASF353
 7357 084f 05       		.byte	0x5
 7358 0850 00       		.uleb128 0
 7359 0851 3EA10000 		.4byte	.LASF354
 7360 0855 05       		.byte	0x5
 7361 0856 00       		.uleb128 0
 7362 0857 6B2F0000 		.4byte	.LASF355
 7363 085b 05       		.byte	0x5
 7364 085c 00       		.uleb128 0
 7365 085d FCF20000 		.4byte	.LASF356
 7366 0861 05       		.byte	0x5
 7367 0862 00       		.uleb128 0
 7368 0863 26BD0000 		.4byte	.LASF357
 7369 0867 05       		.byte	0x5
 7370 0868 00       		.uleb128 0
 7371 0869 195F0000 		.4byte	.LASF358
 7372 086d 05       		.byte	0x5
 7373 086e 00       		.uleb128 0
 7374 086f 81830000 		.4byte	.LASF359
 7375 0873 05       		.byte	0x5
 7376 0874 00       		.uleb128 0
 7377 0875 DFA50000 		.4byte	.LASF360
 7378 0879 05       		.byte	0x5
 7379 087a 00       		.uleb128 0
 7380 087b 74D40000 		.4byte	.LASF361
 7381 087f 05       		.byte	0x5
 7382 0880 00       		.uleb128 0
 7383 0881 59CB0000 		.4byte	.LASF362
 7384 0885 05       		.byte	0x5
 7385 0886 00       		.uleb128 0
 7386 0887 B6180000 		.4byte	.LASF363
 7387 088b 05       		.byte	0x5
 7388 088c 00       		.uleb128 0
 7389 088d 70BB0000 		.4byte	.LASF364
 7390 0891 05       		.byte	0x5
 7391 0892 00       		.uleb128 0
 7392 0893 3B540000 		.4byte	.LASF365
 7393 0897 05       		.byte	0x5
 7394 0898 00       		.uleb128 0
 7395 0899 04E70000 		.4byte	.LASF366
 7396 089d 05       		.byte	0x5
 7397 089e 00       		.uleb128 0
 7398 089f 9EB00000 		.4byte	.LASF367
 7399 08a3 05       		.byte	0x5
 7400 08a4 00       		.uleb128 0
 7401 08a5 58510000 		.4byte	.LASF368
 7402 08a9 05       		.byte	0x5
 7403 08aa 00       		.uleb128 0
 7404 08ab F3570000 		.4byte	.LASF369
 7405 08af 05       		.byte	0x5
 7406 08b0 00       		.uleb128 0
 7407 08b1 63B80000 		.4byte	.LASF370
 7408 08b5 05       		.byte	0x5
ARM GAS  /tmp/cceVa9lb.s 			page 131


 7409 08b6 00       		.uleb128 0
 7410 08b7 65380000 		.4byte	.LASF371
 7411 08bb 05       		.byte	0x5
 7412 08bc 00       		.uleb128 0
 7413 08bd AD900000 		.4byte	.LASF372
 7414 08c1 05       		.byte	0x5
 7415 08c2 00       		.uleb128 0
 7416 08c3 565C0000 		.4byte	.LASF373
 7417 08c7 05       		.byte	0x5
 7418 08c8 00       		.uleb128 0
 7419 08c9 DC5F0000 		.4byte	.LASF374
 7420 08cd 05       		.byte	0x5
 7421 08ce 00       		.uleb128 0
 7422 08cf 011C0000 		.4byte	.LASF375
 7423 08d3 05       		.byte	0x5
 7424 08d4 00       		.uleb128 0
 7425 08d5 EB7B0000 		.4byte	.LASF376
 7426 08d9 05       		.byte	0x5
 7427 08da 00       		.uleb128 0
 7428 08db 3C780000 		.4byte	.LASF377
 7429 08df 05       		.byte	0x5
 7430 08e0 00       		.uleb128 0
 7431 08e1 E1E70000 		.4byte	.LASF378
 7432 08e5 05       		.byte	0x5
 7433 08e6 00       		.uleb128 0
 7434 08e7 99AD0000 		.4byte	.LASF379
 7435 08eb 05       		.byte	0x5
 7436 08ec 00       		.uleb128 0
 7437 08ed 706C0000 		.4byte	.LASF380
 7438 08f1 05       		.byte	0x5
 7439 08f2 00       		.uleb128 0
 7440 08f3 34790000 		.4byte	.LASF381
 7441 08f7 06       		.byte	0x6
 7442 08f8 00       		.uleb128 0
 7443 08f9 E2AD0000 		.4byte	.LASF382
 7444 08fd 05       		.byte	0x5
 7445 08fe 00       		.uleb128 0
 7446 08ff D66C0000 		.4byte	.LASF383
 7447 0903 06       		.byte	0x6
 7448 0904 00       		.uleb128 0
 7449 0905 FF3C0000 		.4byte	.LASF384
 7450 0909 06       		.byte	0x6
 7451 090a 00       		.uleb128 0
 7452 090b 03EB0000 		.4byte	.LASF385
 7453 090f 06       		.byte	0x6
 7454 0910 00       		.uleb128 0
 7455 0911 798E0000 		.4byte	.LASF386
 7456 0915 06       		.byte	0x6
 7457 0916 00       		.uleb128 0
 7458 0917 FFE40000 		.4byte	.LASF387
 7459 091b 05       		.byte	0x5
 7460 091c 00       		.uleb128 0
 7461 091d 60700000 		.4byte	.LASF388
 7462 0921 06       		.byte	0x6
 7463 0922 00       		.uleb128 0
 7464 0923 B9FE0000 		.4byte	.LASF389
 7465 0927 06       		.byte	0x6
ARM GAS  /tmp/cceVa9lb.s 			page 132


 7466 0928 00       		.uleb128 0
 7467 0929 97C30000 		.4byte	.LASF390
 7468 092d 06       		.byte	0x6
 7469 092e 00       		.uleb128 0
 7470 092f C9C20000 		.4byte	.LASF391
 7471 0933 05       		.byte	0x5
 7472 0934 00       		.uleb128 0
 7473 0935 DC6E0000 		.4byte	.LASF392
 7474 0939 05       		.byte	0x5
 7475 093a 00       		.uleb128 0
 7476 093b 46F10000 		.4byte	.LASF393
 7477 093f 06       		.byte	0x6
 7478 0940 00       		.uleb128 0
 7479 0941 273A0000 		.4byte	.LASF394
 7480 0945 05       		.byte	0x5
 7481 0946 00       		.uleb128 0
 7482 0947 48820000 		.4byte	.LASF395
 7483 094b 05       		.byte	0x5
 7484 094c 00       		.uleb128 0
 7485 094d 9DC90000 		.4byte	.LASF396
 7486 0951 05       		.byte	0x5
 7487 0952 00       		.uleb128 0
 7488 0953 5BD10000 		.4byte	.LASF397
 7489 0957 06       		.byte	0x6
 7490 0958 00       		.uleb128 0
 7491 0959 A5DA0000 		.4byte	.LASF398
 7492 095d 05       		.byte	0x5
 7493 095e 00       		.uleb128 0
 7494 095f AD4B0000 		.4byte	.LASF399
 7495 0963 05       		.byte	0x5
 7496 0964 00       		.uleb128 0
 7497 0965 CDD20000 		.4byte	.LASF400
 7498 0969 06       		.byte	0x6
 7499 096a 00       		.uleb128 0
 7500 096b 15230000 		.4byte	.LASF401
 7501 096f 05       		.byte	0x5
 7502 0970 00       		.uleb128 0
 7503 0971 13F30000 		.4byte	.LASF402
 7504 0975 05       		.byte	0x5
 7505 0976 00       		.uleb128 0
 7506 0977 4D000000 		.4byte	.LASF403
 7507 097b 05       		.byte	0x5
 7508 097c 00       		.uleb128 0
 7509 097d 65B10000 		.4byte	.LASF404
 7510 0981 05       		.byte	0x5
 7511 0982 00       		.uleb128 0
 7512 0983 14000000 		.4byte	.LASF405
 7513 0987 05       		.byte	0x5
 7514 0988 00       		.uleb128 0
 7515 0989 74830000 		.4byte	.LASF406
 7516 098d 05       		.byte	0x5
 7517 098e 00       		.uleb128 0
 7518 098f 69F70000 		.4byte	.LASF407
 7519 0993 06       		.byte	0x6
 7520 0994 00       		.uleb128 0
 7521 0995 D67B0000 		.4byte	.LASF408
 7522 0999 05       		.byte	0x5
ARM GAS  /tmp/cceVa9lb.s 			page 133


 7523 099a 00       		.uleb128 0
 7524 099b 10050100 		.4byte	.LASF409
 7525 099f 05       		.byte	0x5
 7526 09a0 00       		.uleb128 0
 7527 09a1 8B310000 		.4byte	.LASF410
 7528 09a5 05       		.byte	0x5
 7529 09a6 00       		.uleb128 0
 7530 09a7 DECC0000 		.4byte	.LASF411
 7531 09ab 06       		.byte	0x6
 7532 09ac 00       		.uleb128 0
 7533 09ad 3AA90000 		.4byte	.LASF412
 7534 09b1 05       		.byte	0x5
 7535 09b2 00       		.uleb128 0
 7536 09b3 CC3C0000 		.4byte	.LASF413
 7537 09b7 06       		.byte	0x6
 7538 09b8 00       		.uleb128 0
 7539 09b9 D8930000 		.4byte	.LASF414
 7540 09bd 06       		.byte	0x6
 7541 09be 00       		.uleb128 0
 7542 09bf 9D370000 		.4byte	.LASF415
 7543 09c3 06       		.byte	0x6
 7544 09c4 00       		.uleb128 0
 7545 09c5 DB320000 		.4byte	.LASF416
 7546 09c9 06       		.byte	0x6
 7547 09ca 00       		.uleb128 0
 7548 09cb 23910000 		.4byte	.LASF417
 7549 09cf 06       		.byte	0x6
 7550 09d0 00       		.uleb128 0
 7551 09d1 A9D00000 		.4byte	.LASF418
 7552 09d5 06       		.byte	0x6
 7553 09d6 00       		.uleb128 0
 7554 09d7 84410000 		.4byte	.LASF419
 7555 09db 05       		.byte	0x5
 7556 09dc 00       		.uleb128 0
 7557 09dd 12F20000 		.4byte	.LASF420
 7558 09e1 06       		.byte	0x6
 7559 09e2 00       		.uleb128 0
 7560 09e3 7FD70000 		.4byte	.LASF421
 7561 09e7 06       		.byte	0x6
 7562 09e8 00       		.uleb128 0
 7563 09e9 33520000 		.4byte	.LASF422
 7564 09ed 06       		.byte	0x6
 7565 09ee 00       		.uleb128 0
 7566 09ef BBF20000 		.4byte	.LASF423
 7567 09f3 05       		.byte	0x5
 7568 09f4 00       		.uleb128 0
 7569 09f5 4E520000 		.4byte	.LASF424
 7570 09f9 05       		.byte	0x5
 7571 09fa 00       		.uleb128 0
 7572 09fb D7D60000 		.4byte	.LASF425
 7573 09ff 05       		.byte	0x5
 7574 0a00 00       		.uleb128 0
 7575 0a01 94280000 		.4byte	.LASF426
 7576 0a05 06       		.byte	0x6
 7577 0a06 00       		.uleb128 0
 7578 0a07 C9F20000 		.4byte	.LASF427
 7579 0a0b 05       		.byte	0x5
ARM GAS  /tmp/cceVa9lb.s 			page 134


 7580 0a0c 00       		.uleb128 0
 7581 0a0d 137F0000 		.4byte	.LASF428
 7582 0a11 05       		.byte	0x5
 7583 0a12 00       		.uleb128 0
 7584 0a13 F40D0000 		.4byte	.LASF429
 7585 0a17 05       		.byte	0x5
 7586 0a18 00       		.uleb128 0
 7587 0a19 AF630000 		.4byte	.LASF430
 7588 0a1d 06       		.byte	0x6
 7589 0a1e 00       		.uleb128 0
 7590 0a1f A6760000 		.4byte	.LASF431
 7591 0a23 05       		.byte	0x5
 7592 0a24 00       		.uleb128 0
 7593 0a25 1C4C0000 		.4byte	.LASF432
 7594 0a29 06       		.byte	0x6
 7595 0a2a 00       		.uleb128 0
 7596 0a2b 8DC20000 		.4byte	.LASF433
 7597 0a2f 06       		.byte	0x6
 7598 0a30 00       		.uleb128 0
 7599 0a31 27000100 		.4byte	.LASF434
 7600 0a35 06       		.byte	0x6
 7601 0a36 00       		.uleb128 0
 7602 0a37 9F010000 		.4byte	.LASF435
 7603 0a3b 06       		.byte	0x6
 7604 0a3c 00       		.uleb128 0
 7605 0a3d 8BA10000 		.4byte	.LASF436
 7606 0a41 06       		.byte	0x6
 7607 0a42 00       		.uleb128 0
 7608 0a43 C1C80000 		.4byte	.LASF437
 7609 0a47 06       		.byte	0x6
 7610 0a48 00       		.uleb128 0
 7611 0a49 4D760000 		.4byte	.LASF438
 7612 0a4d 05       		.byte	0x5
 7613 0a4e 00       		.uleb128 0
 7614 0a4f 50580000 		.4byte	.LASF439
 7615 0a53 05       		.byte	0x5
 7616 0a54 00       		.uleb128 0
 7617 0a55 3F0F0000 		.4byte	.LASF440
 7618 0a59 05       		.byte	0x5
 7619 0a5a 00       		.uleb128 0
 7620 0a5b 34960000 		.4byte	.LASF441
 7621 0a5f 05       		.byte	0x5
 7622 0a60 00       		.uleb128 0
 7623 0a61 26FD0000 		.4byte	.LASF442
 7624 0a65 05       		.byte	0x5
 7625 0a66 00       		.uleb128 0
 7626 0a67 04330000 		.4byte	.LASF443
 7627 0a6b 05       		.byte	0x5
 7628 0a6c 00       		.uleb128 0
 7629 0a6d 70800000 		.4byte	.LASF444
 7630 0a71 05       		.byte	0x5
 7631 0a72 00       		.uleb128 0
 7632 0a73 56100000 		.4byte	.LASF445
 7633 0a77 05       		.byte	0x5
 7634 0a78 00       		.uleb128 0
 7635 0a79 E0B80000 		.4byte	.LASF446
 7636 0a7d 05       		.byte	0x5
ARM GAS  /tmp/cceVa9lb.s 			page 135


 7637 0a7e 00       		.uleb128 0
 7638 0a7f D4980000 		.4byte	.LASF447
 7639 0a83 05       		.byte	0x5
 7640 0a84 00       		.uleb128 0
 7641 0a85 25CB0000 		.4byte	.LASF448
 7642 0a89 05       		.byte	0x5
 7643 0a8a 00       		.uleb128 0
 7644 0a8b A7E90000 		.4byte	.LASF449
 7645 0a8f 05       		.byte	0x5
 7646 0a90 00       		.uleb128 0
 7647 0a91 70780000 		.4byte	.LASF450
 7648 0a95 05       		.byte	0x5
 7649 0a96 00       		.uleb128 0
 7650 0a97 E6310000 		.4byte	.LASF451
 7651 0a9b 05       		.byte	0x5
 7652 0a9c 00       		.uleb128 0
 7653 0a9d F8580000 		.4byte	.LASF452
 7654 0aa1 05       		.byte	0x5
 7655 0aa2 00       		.uleb128 0
 7656 0aa3 6D450000 		.4byte	.LASF453
 7657 0aa7 05       		.byte	0x5
 7658 0aa8 00       		.uleb128 0
 7659 0aa9 CC310000 		.4byte	.LASF454
 7660 0aad 05       		.byte	0x5
 7661 0aae 00       		.uleb128 0
 7662 0aaf CA0C0000 		.4byte	.LASF455
 7663 0ab3 05       		.byte	0x5
 7664 0ab4 00       		.uleb128 0
 7665 0ab5 13F40000 		.4byte	.LASF456
 7666 0ab9 05       		.byte	0x5
 7667 0aba 00       		.uleb128 0
 7668 0abb 69CA0000 		.4byte	.LASF457
 7669 0abf 05       		.byte	0x5
 7670 0ac0 00       		.uleb128 0
 7671 0ac1 EB4D0000 		.4byte	.LASF458
 7672 0ac5 05       		.byte	0x5
 7673 0ac6 00       		.uleb128 0
 7674 0ac7 AD3C0000 		.4byte	.LASF459
 7675 0acb 05       		.byte	0x5
 7676 0acc 00       		.uleb128 0
 7677 0acd B1160000 		.4byte	.LASF460
 7678 0ad1 05       		.byte	0x5
 7679 0ad2 00       		.uleb128 0
 7680 0ad3 E0720000 		.4byte	.LASF461
 7681 0ad7 05       		.byte	0x5
 7682 0ad8 00       		.uleb128 0
 7683 0ad9 057E0000 		.4byte	.LASF462
 7684 0add 05       		.byte	0x5
 7685 0ade 00       		.uleb128 0
 7686 0adf 11CA0000 		.4byte	.LASF463
 7687 0ae3 05       		.byte	0x5
 7688 0ae4 00       		.uleb128 0
 7689 0ae5 CA8A0000 		.4byte	.LASF464
 7690 0ae9 05       		.byte	0x5
 7691 0aea 00       		.uleb128 0
 7692 0aeb 8F540000 		.4byte	.LASF465
 7693 0aef 05       		.byte	0x5
ARM GAS  /tmp/cceVa9lb.s 			page 136


 7694 0af0 00       		.uleb128 0
 7695 0af1 39CE0000 		.4byte	.LASF466
 7696 0af5 05       		.byte	0x5
 7697 0af6 00       		.uleb128 0
 7698 0af7 76C20000 		.4byte	.LASF467
 7699 0afb 05       		.byte	0x5
 7700 0afc 00       		.uleb128 0
 7701 0afd 9CE60000 		.4byte	.LASF468
 7702 0b01 05       		.byte	0x5
 7703 0b02 00       		.uleb128 0
 7704 0b03 58D00000 		.4byte	.LASF469
 7705 0b07 05       		.byte	0x5
 7706 0b08 00       		.uleb128 0
 7707 0b09 B6420000 		.4byte	.LASF470
 7708 0b0d 05       		.byte	0x5
 7709 0b0e 00       		.uleb128 0
 7710 0b0f 164D0000 		.4byte	.LASF471
 7711 0b13 05       		.byte	0x5
 7712 0b14 00       		.uleb128 0
 7713 0b15 73220000 		.4byte	.LASF472
 7714 0b19 05       		.byte	0x5
 7715 0b1a 00       		.uleb128 0
 7716 0b1b 0F420000 		.4byte	.LASF473
 7717 0b1f 05       		.byte	0x5
 7718 0b20 00       		.uleb128 0
 7719 0b21 0DAF0000 		.4byte	.LASF474
 7720 0b25 05       		.byte	0x5
 7721 0b26 00       		.uleb128 0
 7722 0b27 8CC90000 		.4byte	.LASF475
 7723 0b2b 05       		.byte	0x5
 7724 0b2c 00       		.uleb128 0
 7725 0b2d F74B0000 		.4byte	.LASF476
 7726 0b31 05       		.byte	0x5
 7727 0b32 00       		.uleb128 0
 7728 0b33 0C930000 		.4byte	.LASF477
 7729 0b37 05       		.byte	0x5
 7730 0b38 00       		.uleb128 0
 7731 0b39 E9F10000 		.4byte	.LASF478
 7732 0b3d 05       		.byte	0x5
 7733 0b3e 00       		.uleb128 0
 7734 0b3f 876E0000 		.4byte	.LASF479
 7735 0b43 05       		.byte	0x5
 7736 0b44 00       		.uleb128 0
 7737 0b45 CD7F0000 		.4byte	.LASF480
 7738 0b49 05       		.byte	0x5
 7739 0b4a 00       		.uleb128 0
 7740 0b4b BD980000 		.4byte	.LASF481
 7741 0b4f 05       		.byte	0x5
 7742 0b50 00       		.uleb128 0
 7743 0b51 79810000 		.4byte	.LASF482
 7744 0b55 05       		.byte	0x5
 7745 0b56 00       		.uleb128 0
 7746 0b57 BFA10000 		.4byte	.LASF483
 7747 0b5b 05       		.byte	0x5
 7748 0b5c 00       		.uleb128 0
 7749 0b5d 0CC00000 		.4byte	.LASF484
 7750 0b61 05       		.byte	0x5
ARM GAS  /tmp/cceVa9lb.s 			page 137


 7751 0b62 00       		.uleb128 0
 7752 0b63 28360000 		.4byte	.LASF485
 7753 0b67 05       		.byte	0x5
 7754 0b68 00       		.uleb128 0
 7755 0b69 CEFC0000 		.4byte	.LASF486
 7756 0b6d 05       		.byte	0x5
 7757 0b6e 00       		.uleb128 0
 7758 0b6f CE4F0000 		.4byte	.LASF487
 7759 0b73 05       		.byte	0x5
 7760 0b74 00       		.uleb128 0
 7761 0b75 8ACD0000 		.4byte	.LASF488
 7762 0b79 05       		.byte	0x5
 7763 0b7a 00       		.uleb128 0
 7764 0b7b 28CE0000 		.4byte	.LASF489
 7765 0b7f 05       		.byte	0x5
 7766 0b80 00       		.uleb128 0
 7767 0b81 227D0000 		.4byte	.LASF490
 7768 0b85 05       		.byte	0x5
 7769 0b86 00       		.uleb128 0
 7770 0b87 4AEA0000 		.4byte	.LASF491
 7771 0b8b 05       		.byte	0x5
 7772 0b8c 00       		.uleb128 0
 7773 0b8d 5D540000 		.4byte	.LASF492
 7774 0b91 05       		.byte	0x5
 7775 0b92 00       		.uleb128 0
 7776 0b93 39260000 		.4byte	.LASF493
 7777 0b97 05       		.byte	0x5
 7778 0b98 00       		.uleb128 0
 7779 0b99 47E50000 		.4byte	.LASF494
 7780 0b9d 05       		.byte	0x5
 7781 0b9e 00       		.uleb128 0
 7782 0b9f B4270000 		.4byte	.LASF495
 7783 0ba3 05       		.byte	0x5
 7784 0ba4 00       		.uleb128 0
 7785 0ba5 982F0000 		.4byte	.LASF496
 7786 0ba9 05       		.byte	0x5
 7787 0baa 00       		.uleb128 0
 7788 0bab 73730000 		.4byte	.LASF497
 7789 0baf 05       		.byte	0x5
 7790 0bb0 00       		.uleb128 0
 7791 0bb1 5CE30000 		.4byte	.LASF498
 7792 0bb5 05       		.byte	0x5
 7793 0bb6 00       		.uleb128 0
 7794 0bb7 C94D0000 		.4byte	.LASF499
 7795 0bbb 05       		.byte	0x5
 7796 0bbc 00       		.uleb128 0
 7797 0bbd C3C70000 		.4byte	.LASF500
 7798 0bc1 05       		.byte	0x5
 7799 0bc2 00       		.uleb128 0
 7800 0bc3 AD0F0000 		.4byte	.LASF501
 7801 0bc7 05       		.byte	0x5
 7802 0bc8 00       		.uleb128 0
 7803 0bc9 7DFD0000 		.4byte	.LASF502
 7804 0bcd 05       		.byte	0x5
 7805 0bce 00       		.uleb128 0
 7806 0bcf 4C8A0000 		.4byte	.LASF503
 7807 0bd3 05       		.byte	0x5
ARM GAS  /tmp/cceVa9lb.s 			page 138


 7808 0bd4 00       		.uleb128 0
 7809 0bd5 B8130000 		.4byte	.LASF504
 7810 0bd9 05       		.byte	0x5
 7811 0bda 00       		.uleb128 0
 7812 0bdb F42A0000 		.4byte	.LASF505
 7813 0bdf 05       		.byte	0x5
 7814 0be0 00       		.uleb128 0
 7815 0be1 52260000 		.4byte	.LASF506
 7816 0be5 05       		.byte	0x5
 7817 0be6 00       		.uleb128 0
 7818 0be7 15E50000 		.4byte	.LASF507
 7819 0beb 05       		.byte	0x5
 7820 0bec 00       		.uleb128 0
 7821 0bed 81C90000 		.4byte	.LASF508
 7822 0bf1 05       		.byte	0x5
 7823 0bf2 00       		.uleb128 0
 7824 0bf3 A3820000 		.4byte	.LASF509
 7825 0bf7 05       		.byte	0x5
 7826 0bf8 00       		.uleb128 0
 7827 0bf9 A6A30000 		.4byte	.LASF510
 7828 0bfd 05       		.byte	0x5
 7829 0bfe 00       		.uleb128 0
 7830 0bff 2C260000 		.4byte	.LASF511
 7831 0c03 05       		.byte	0x5
 7832 0c04 00       		.uleb128 0
 7833 0c05 45E10000 		.4byte	.LASF512
 7834 0c09 05       		.byte	0x5
 7835 0c0a 00       		.uleb128 0
 7836 0c0b 3D230000 		.4byte	.LASF513
 7837 0c0f 05       		.byte	0x5
 7838 0c10 00       		.uleb128 0
 7839 0c11 B9220000 		.4byte	.LASF514
 7840 0c15 05       		.byte	0x5
 7841 0c16 00       		.uleb128 0
 7842 0c17 3E520000 		.4byte	.LASF515
 7843 0c1b 05       		.byte	0x5
 7844 0c1c 00       		.uleb128 0
 7845 0c1d 13310000 		.4byte	.LASF516
 7846 0c21 05       		.byte	0x5
 7847 0c22 00       		.uleb128 0
 7848 0c23 3FE00000 		.4byte	.LASF517
 7849 0c27 00       		.byte	0
 7850              		.section	.debug_macro,"G",%progbits,wm4.pprz_geodetic.h.35.f3fa96d246078502d67afc0af687adaf,comdat
 7851              	.Ldebug_macro3:
 7852 0000 0400     		.2byte	0x4
 7853 0002 00       		.byte	0
 7854 0003 05       		.byte	0x5
 7855 0004 23       		.uleb128 0x23
 7856 0005 1C0D0000 		.4byte	.LASF519
 7857 0009 05       		.byte	0x5
 7858 000a 29       		.uleb128 0x29
 7859 000b 0E840000 		.4byte	.LASF520
 7860 000f 05       		.byte	0x5
 7861 0010 2F       		.uleb128 0x2f
 7862 0011 DBAA0000 		.4byte	.LASF521
 7863 0015 05       		.byte	0x5
 7864 0016 34       		.uleb128 0x34
ARM GAS  /tmp/cceVa9lb.s 			page 139


 7865 0017 8BAB0000 		.4byte	.LASF522
 7866 001b 05       		.byte	0x5
 7867 001c 3A       		.uleb128 0x3a
 7868 001d 6A100000 		.4byte	.LASF523
 7869 0021 05       		.byte	0x5
 7870 0022 40       		.uleb128 0x40
 7871 0023 60030100 		.4byte	.LASF524
 7872 0027 05       		.byte	0x5
 7873 0028 47       		.uleb128 0x47
 7874 0029 8D3F0000 		.4byte	.LASF525
 7875 002d 05       		.byte	0x5
 7876 002e 4E       		.uleb128 0x4e
 7877 002f 89FF0000 		.4byte	.LASF526
 7878 0033 05       		.byte	0x5
 7879 0034 54       		.uleb128 0x54
 7880 0035 D1D80000 		.4byte	.LASF527
 7881 0039 05       		.byte	0x5
 7882 003a 5A       		.uleb128 0x5a
 7883 003b 87780000 		.4byte	.LASF528
 7884 003f 05       		.byte	0x5
 7885 0040 60       		.uleb128 0x60
 7886 0041 E1E30000 		.4byte	.LASF529
 7887 0045 00       		.byte	0
 7888              		.section	.debug_macro,"G",%progbits,wm4.float.h.29.cae0b78251c51e3ff449cb238a29ed5b,comdat
 7889              	.Ldebug_macro4:
 7890 0000 0400     		.2byte	0x4
 7891 0002 00       		.byte	0
 7892 0003 05       		.byte	0x5
 7893 0004 1D       		.uleb128 0x1d
 7894 0005 47040100 		.4byte	.LASF532
 7895 0009 06       		.byte	0x6
 7896 000a 20       		.uleb128 0x20
 7897 000b AD050000 		.4byte	.LASF533
 7898 000f 05       		.byte	0x5
 7899 0010 21       		.uleb128 0x21
 7900 0011 6E770000 		.4byte	.LASF534
 7901 0015 06       		.byte	0x6
 7902 0016 24       		.uleb128 0x24
 7903 0017 70750000 		.4byte	.LASF535
 7904 001b 06       		.byte	0x6
 7905 001c 25       		.uleb128 0x25
 7906 001d 7EA10000 		.4byte	.LASF536
 7907 0021 06       		.byte	0x6
 7908 0022 26       		.uleb128 0x26
 7909 0023 38990000 		.4byte	.LASF537
 7910 0027 05       		.byte	0x5
 7911 0028 27       		.uleb128 0x27
 7912 0029 FB2D0000 		.4byte	.LASF538
 7913 002d 05       		.byte	0x5
 7914 002e 28       		.uleb128 0x28
 7915 002f E8590000 		.4byte	.LASF539
 7916 0033 05       		.byte	0x5
 7917 0034 29       		.uleb128 0x29
 7918 0035 6A000100 		.4byte	.LASF540
 7919 0039 06       		.byte	0x6
 7920 003a 32       		.uleb128 0x32
 7921 003b 170C0000 		.4byte	.LASF541
ARM GAS  /tmp/cceVa9lb.s 			page 140


 7922 003f 06       		.byte	0x6
 7923 0040 33       		.uleb128 0x33
 7924 0041 2B7F0000 		.4byte	.LASF542
 7925 0045 06       		.byte	0x6
 7926 0046 34       		.uleb128 0x34
 7927 0047 D3F20000 		.4byte	.LASF543
 7928 004b 05       		.byte	0x5
 7929 004c 35       		.uleb128 0x35
 7930 004d 77F70000 		.4byte	.LASF544
 7931 0051 05       		.byte	0x5
 7932 0052 36       		.uleb128 0x36
 7933 0053 ADEA0000 		.4byte	.LASF545
 7934 0057 05       		.byte	0x5
 7935 0058 37       		.uleb128 0x37
 7936 0059 E4130000 		.4byte	.LASF546
 7937 005d 06       		.byte	0x6
 7938 005e 3A       		.uleb128 0x3a
 7939 005f C8340000 		.4byte	.LASF547
 7940 0063 06       		.byte	0x6
 7941 0064 3B       		.uleb128 0x3b
 7942 0065 4E810000 		.4byte	.LASF548
 7943 0069 06       		.byte	0x6
 7944 006a 3C       		.uleb128 0x3c
 7945 006b F4510000 		.4byte	.LASF549
 7946 006f 05       		.byte	0x5
 7947 0070 3D       		.uleb128 0x3d
 7948 0071 47170000 		.4byte	.LASF550
 7949 0075 05       		.byte	0x5
 7950 0076 3E       		.uleb128 0x3e
 7951 0077 40130000 		.4byte	.LASF551
 7952 007b 05       		.byte	0x5
 7953 007c 3F       		.uleb128 0x3f
 7954 007d AB5F0000 		.4byte	.LASF552
 7955 0081 06       		.byte	0x6
 7956 0082 46       		.uleb128 0x46
 7957 0083 99D40000 		.4byte	.LASF553
 7958 0087 06       		.byte	0x6
 7959 0088 47       		.uleb128 0x47
 7960 0089 EC410000 		.4byte	.LASF554
 7961 008d 06       		.byte	0x6
 7962 008e 48       		.uleb128 0x48
 7963 008f A0D30000 		.4byte	.LASF555
 7964 0093 05       		.byte	0x5
 7965 0094 49       		.uleb128 0x49
 7966 0095 0E070000 		.4byte	.LASF556
 7967 0099 05       		.byte	0x5
 7968 009a 4A       		.uleb128 0x4a
 7969 009b 85470000 		.4byte	.LASF557
 7970 009f 05       		.byte	0x5
 7971 00a0 4B       		.uleb128 0x4b
 7972 00a1 1A600000 		.4byte	.LASF558
 7973 00a5 06       		.byte	0x6
 7974 00a6 4E       		.uleb128 0x4e
 7975 00a7 08970000 		.4byte	.LASF559
 7976 00ab 06       		.byte	0x6
 7977 00ac 4F       		.uleb128 0x4f
 7978 00ad 2BA20000 		.4byte	.LASF560
ARM GAS  /tmp/cceVa9lb.s 			page 141


 7979 00b1 06       		.byte	0x6
 7980 00b2 50       		.uleb128 0x50
 7981 00b3 BCC20000 		.4byte	.LASF561
 7982 00b7 05       		.byte	0x5
 7983 00b8 51       		.uleb128 0x51
 7984 00b9 D8510000 		.4byte	.LASF562
 7985 00bd 05       		.byte	0x5
 7986 00be 52       		.uleb128 0x52
 7987 00bf F8E70000 		.4byte	.LASF563
 7988 00c3 05       		.byte	0x5
 7989 00c4 53       		.uleb128 0x53
 7990 00c5 435B0000 		.4byte	.LASF564
 7991 00c9 06       		.byte	0x6
 7992 00ca 5A       		.uleb128 0x5a
 7993 00cb 6F740000 		.4byte	.LASF565
 7994 00cf 06       		.byte	0x6
 7995 00d0 5B       		.uleb128 0x5b
 7996 00d1 53ED0000 		.4byte	.LASF566
 7997 00d5 06       		.byte	0x6
 7998 00d6 5C       		.uleb128 0x5c
 7999 00d7 35730000 		.4byte	.LASF567
 8000 00db 05       		.byte	0x5
 8001 00dc 5D       		.uleb128 0x5d
 8002 00dd 7AE40000 		.4byte	.LASF568
 8003 00e1 05       		.byte	0x5
 8004 00e2 5E       		.uleb128 0x5e
 8005 00e3 C31E0000 		.4byte	.LASF569
 8006 00e7 05       		.byte	0x5
 8007 00e8 5F       		.uleb128 0x5f
 8008 00e9 ADAD0000 		.4byte	.LASF570
 8009 00ed 06       		.byte	0x6
 8010 00ee 65       		.uleb128 0x65
 8011 00ef EACF0000 		.4byte	.LASF571
 8012 00f3 06       		.byte	0x6
 8013 00f4 66       		.uleb128 0x66
 8014 00f5 FEBA0000 		.4byte	.LASF572
 8015 00f9 06       		.byte	0x6
 8016 00fa 67       		.uleb128 0x67
 8017 00fb 9DB50000 		.4byte	.LASF573
 8018 00ff 05       		.byte	0x5
 8019 0100 68       		.uleb128 0x68
 8020 0101 A1310000 		.4byte	.LASF574
 8021 0105 05       		.byte	0x5
 8022 0106 69       		.uleb128 0x69
 8023 0107 FA420000 		.4byte	.LASF575
 8024 010b 05       		.byte	0x5
 8025 010c 6A       		.uleb128 0x6a
 8026 010d 14670000 		.4byte	.LASF576
 8027 0111 06       		.byte	0x6
 8028 0112 6E       		.uleb128 0x6e
 8029 0113 EBCC0000 		.4byte	.LASF577
 8030 0117 06       		.byte	0x6
 8031 0118 6F       		.uleb128 0x6f
 8032 0119 E6C80000 		.4byte	.LASF578
 8033 011d 06       		.byte	0x6
 8034 011e 70       		.uleb128 0x70
 8035 011f 46FD0000 		.4byte	.LASF579
ARM GAS  /tmp/cceVa9lb.s 			page 142


 8036 0123 05       		.byte	0x5
 8037 0124 71       		.uleb128 0x71
 8038 0125 027B0000 		.4byte	.LASF580
 8039 0129 05       		.byte	0x5
 8040 012a 72       		.uleb128 0x72
 8041 012b 97450000 		.4byte	.LASF581
 8042 012f 05       		.byte	0x5
 8043 0130 73       		.uleb128 0x73
 8044 0131 91B80000 		.4byte	.LASF582
 8045 0135 06       		.byte	0x6
 8046 0136 76       		.uleb128 0x76
 8047 0137 09650000 		.4byte	.LASF583
 8048 013b 06       		.byte	0x6
 8049 013c 77       		.uleb128 0x77
 8050 013d 6CD40000 		.4byte	.LASF584
 8051 0141 06       		.byte	0x6
 8052 0142 78       		.uleb128 0x78
 8053 0143 E7D10000 		.4byte	.LASF585
 8054 0147 05       		.byte	0x5
 8055 0148 79       		.uleb128 0x79
 8056 0149 4B4F0000 		.4byte	.LASF586
 8057 014d 05       		.byte	0x5
 8058 014e 7A       		.uleb128 0x7a
 8059 014f 20790000 		.4byte	.LASF587
 8060 0153 05       		.byte	0x5
 8061 0154 7B       		.uleb128 0x7b
 8062 0155 50A60000 		.4byte	.LASF588
 8063 0159 06       		.byte	0x6
 8064 015a 7F       		.uleb128 0x7f
 8065 015b 78080000 		.4byte	.LASF589
 8066 015f 05       		.byte	0x5
 8067 0160 8001     		.uleb128 0x80
 8068 0162 F7AD0000 		.4byte	.LASF590
 8069 0166 06       		.byte	0x6
 8070 0167 C101     		.uleb128 0xc1
 8071 0169 5A470000 		.4byte	.LASF591
 8072 016d 05       		.byte	0x5
 8073 016e C501     		.uleb128 0xc5
 8074 0170 D43E0000 		.4byte	.LASF592
 8075 0174 06       		.byte	0x6
 8076 0175 D001     		.uleb128 0xd0
 8077 0177 F97C0000 		.4byte	.LASF593
 8078 017b 05       		.byte	0x5
 8079 017c D101     		.uleb128 0xd1
 8080 017e C06E0000 		.4byte	.LASF594
 8081 0182 00       		.byte	0
 8082              		.section	.debug_macro,"G",%progbits,wm4._newlib_version.h.4.1ef4e12f167f8b69d7c30054be56050d,comda
 8083              	.Ldebug_macro5:
 8084 0000 0400     		.2byte	0x4
 8085 0002 00       		.byte	0
 8086 0003 05       		.byte	0x5
 8087 0004 04       		.uleb128 0x4
 8088 0005 0C700000 		.4byte	.LASF598
 8089 0009 05       		.byte	0x5
 8090 000a 06       		.uleb128 0x6
 8091 000b 6B760000 		.4byte	.LASF599
 8092 000f 05       		.byte	0x5
ARM GAS  /tmp/cceVa9lb.s 			page 143


 8093 0010 07       		.uleb128 0x7
 8094 0011 7E720000 		.4byte	.LASF600
 8095 0015 05       		.byte	0x5
 8096 0016 08       		.uleb128 0x8
 8097 0017 8F460000 		.4byte	.LASF601
 8098 001b 05       		.byte	0x5
 8099 001c 09       		.uleb128 0x9
 8100 001d FF500000 		.4byte	.LASF602
 8101 0021 00       		.byte	0
 8102              		.section	.debug_macro,"G",%progbits,wm4.newlib.h.21.1ae2897bc09bbe4bc80ffb801fb02432,comdat
 8103              	.Ldebug_macro6:
 8104 0000 0400     		.2byte	0x4
 8105 0002 00       		.byte	0
 8106 0003 05       		.byte	0x5
 8107 0004 15       		.uleb128 0x15
 8108 0005 17CD0000 		.4byte	.LASF603
 8109 0009 05       		.byte	0x5
 8110 000a 18       		.uleb128 0x18
 8111 000b 45150000 		.4byte	.LASF604
 8112 000f 05       		.byte	0x5
 8113 0010 25       		.uleb128 0x25
 8114 0011 86520000 		.4byte	.LASF605
 8115 0015 05       		.byte	0x5
 8116 0016 2B       		.uleb128 0x2b
 8117 0017 90150000 		.4byte	.LASF606
 8118 001b 05       		.byte	0x5
 8119 001c 35       		.uleb128 0x35
 8120 001d E4420000 		.4byte	.LASF607
 8121 0021 05       		.byte	0x5
 8122 0022 39       		.uleb128 0x39
 8123 0023 58490000 		.4byte	.LASF608
 8124 0027 05       		.byte	0x5
 8125 0028 3C       		.uleb128 0x3c
 8126 0029 906B0000 		.4byte	.LASF609
 8127 002d 05       		.byte	0x5
 8128 002e 3F       		.uleb128 0x3f
 8129 002f B9B70000 		.4byte	.LASF610
 8130 0033 05       		.byte	0x5
 8131 0034 42       		.uleb128 0x42
 8132 0035 1C040100 		.4byte	.LASF611
 8133 0039 05       		.byte	0x5
 8134 003a 45       		.uleb128 0x45
 8135 003b 32D40000 		.4byte	.LASF612
 8136 003f 05       		.byte	0x5
 8137 0040 48       		.uleb128 0x48
 8138 0041 99F50000 		.4byte	.LASF613
 8139 0045 05       		.byte	0x5
 8140 0046 4B       		.uleb128 0x4b
 8141 0047 28F00000 		.4byte	.LASF614
 8142 004b 05       		.byte	0x5
 8143 004c 4E       		.uleb128 0x4e
 8144 004d 39760000 		.4byte	.LASF615
 8145 0051 00       		.byte	0
 8146              		.section	.debug_macro,"G",%progbits,wm4.ieeefp.h.77.f33a4dce62116f6f5175ff8bae57a54c,comdat
 8147              	.Ldebug_macro7:
 8148 0000 0400     		.2byte	0x4
 8149 0002 00       		.byte	0
ARM GAS  /tmp/cceVa9lb.s 			page 144


 8150 0003 05       		.byte	0x5
 8151 0004 4D       		.uleb128 0x4d
 8152 0005 77880000 		.4byte	.LASF617
 8153 0009 05       		.byte	0x5
 8154 000a D903     		.uleb128 0x1d9
 8155 000c 35470000 		.4byte	.LASF618
 8156 0010 05       		.byte	0x5
 8157 0011 DC03     		.uleb128 0x1dc
 8158 0013 15D70000 		.4byte	.LASF619
 8159 0017 00       		.byte	0
 8160              		.section	.debug_macro,"G",%progbits,wm4.features.h.22.026edb2397769f4ae13f35900dbdb560,comdat
 8161              	.Ldebug_macro8:
 8162 0000 0400     		.2byte	0x4
 8163 0002 00       		.byte	0
 8164 0003 05       		.byte	0x5
 8165 0004 16       		.uleb128 0x16
 8166 0005 BCD20000 		.4byte	.LASF620
 8167 0009 05       		.byte	0x5
 8168 000a 21       		.uleb128 0x21
 8169 000b BDB00000 		.4byte	.LASF621
 8170 000f 05       		.byte	0x5
 8171 0010 28       		.uleb128 0x28
 8172 0011 3BD60000 		.4byte	.LASF622
 8173 0015 06       		.byte	0x6
 8174 0016 8301     		.uleb128 0x83
 8175 0018 0A450000 		.4byte	.LASF623
 8176 001c 05       		.byte	0x5
 8177 001d 8401     		.uleb128 0x84
 8178 001f 10470000 		.4byte	.LASF624
 8179 0023 06       		.byte	0x6
 8180 0024 8801     		.uleb128 0x88
 8181 0026 93360000 		.4byte	.LASF625
 8182 002a 05       		.byte	0x5
 8183 002b 8901     		.uleb128 0x89
 8184 002d 1EDD0000 		.4byte	.LASF626
 8185 0031 06       		.byte	0x6
 8186 0032 8A01     		.uleb128 0x8a
 8187 0034 25730000 		.4byte	.LASF627
 8188 0038 05       		.byte	0x5
 8189 0039 8B01     		.uleb128 0x8b
 8190 003b 3FBD0000 		.4byte	.LASF628
 8191 003f 06       		.byte	0x6
 8192 0040 9E01     		.uleb128 0x9e
 8193 0042 A0E80000 		.4byte	.LASF629
 8194 0046 05       		.byte	0x5
 8195 0047 9F01     		.uleb128 0x9f
 8196 0049 EED50000 		.4byte	.LASF630
 8197 004d 05       		.byte	0x5
 8198 004e F701     		.uleb128 0xf7
 8199 0050 CCA50000 		.4byte	.LASF631
 8200 0054 05       		.byte	0x5
 8201 0055 FD01     		.uleb128 0xfd
 8202 0057 9FC20000 		.4byte	.LASF632
 8203 005b 05       		.byte	0x5
 8204 005c 8502     		.uleb128 0x105
 8205 005e 99D00000 		.4byte	.LASF633
 8206 0062 05       		.byte	0x5
ARM GAS  /tmp/cceVa9lb.s 			page 145


 8207 0063 8D02     		.uleb128 0x10d
 8208 0065 1AB80000 		.4byte	.LASF634
 8209 0069 05       		.byte	0x5
 8210 006a 9502     		.uleb128 0x115
 8211 006c D5FA0000 		.4byte	.LASF635
 8212 0070 05       		.byte	0x5
 8213 0071 9902     		.uleb128 0x119
 8214 0073 4C030000 		.4byte	.LASF636
 8215 0077 05       		.byte	0x5
 8216 0078 9F02     		.uleb128 0x11f
 8217 007a 67720000 		.4byte	.LASF637
 8218 007e 05       		.byte	0x5
 8219 007f AF02     		.uleb128 0x12f
 8220 0081 195B0000 		.4byte	.LASF638
 8221 0085 05       		.byte	0x5
 8222 0086 BF02     		.uleb128 0x13f
 8223 0088 AFB50000 		.4byte	.LASF639
 8224 008c 05       		.byte	0x5
 8225 008d CA02     		.uleb128 0x14a
 8226 008f 8AD20000 		.4byte	.LASF640
 8227 0093 00       		.byte	0
 8228              		.section	.debug_macro,"G",%progbits,wm4.config.h.224.c701144a7b0518c6ee9b9b5465b79f81,comdat
 8229              	.Ldebug_macro9:
 8230 0000 0400     		.2byte	0x4
 8231 0002 00       		.byte	0
 8232 0003 05       		.byte	0x5
 8233 0004 E001     		.uleb128 0xe0
 8234 0006 3B8C0000 		.4byte	.LASF641
 8235 000a 06       		.byte	0x6
 8236 000b E601     		.uleb128 0xe6
 8237 000d FFD50000 		.4byte	.LASF642
 8238 0011 05       		.byte	0x5
 8239 0012 EA01     		.uleb128 0xea
 8240 0014 214E0000 		.4byte	.LASF643
 8241 0018 05       		.byte	0x5
 8242 0019 FA01     		.uleb128 0xfa
 8243 001b C0AA0000 		.4byte	.LASF644
 8244 001f 05       		.byte	0x5
 8245 0020 FE01     		.uleb128 0xfe
 8246 0022 40EA0000 		.4byte	.LASF645
 8247 0026 05       		.byte	0x5
 8248 0027 8502     		.uleb128 0x105
 8249 0029 89C50000 		.4byte	.LASF646
 8250 002d 05       		.byte	0x5
 8251 002e 8B02     		.uleb128 0x10b
 8252 0030 D30B0000 		.4byte	.LASF647
 8253 0034 00       		.byte	0
 8254              		.section	.debug_macro,"G",%progbits,wm4._ansi.h.31.de524f58584151836e90d8620a16f8e8,comdat
 8255              	.Ldebug_macro10:
 8256 0000 0400     		.2byte	0x4
 8257 0002 00       		.byte	0
 8258 0003 05       		.byte	0x5
 8259 0004 1F       		.uleb128 0x1f
 8260 0005 12300000 		.4byte	.LASF648
 8261 0009 05       		.byte	0x5
 8262 000a 20       		.uleb128 0x20
 8263 000b BD740000 		.4byte	.LASF649
ARM GAS  /tmp/cceVa9lb.s 			page 146


 8264 000f 05       		.byte	0x5
 8265 0010 21       		.uleb128 0x21
 8266 0011 8CD70000 		.4byte	.LASF650
 8267 0015 05       		.byte	0x5
 8268 0016 25       		.uleb128 0x25
 8269 0017 21EC0000 		.4byte	.LASF651
 8270 001b 05       		.byte	0x5
 8271 001c 2B       		.uleb128 0x2b
 8272 001d D73C0000 		.4byte	.LASF652
 8273 0021 05       		.byte	0x5
 8274 0022 45       		.uleb128 0x45
 8275 0023 76D30000 		.4byte	.LASF653
 8276 0027 05       		.byte	0x5
 8277 0028 49       		.uleb128 0x49
 8278 0029 32180000 		.4byte	.LASF654
 8279 002d 05       		.byte	0x5
 8280 002e 4A       		.uleb128 0x4a
 8281 002f FFEB0000 		.4byte	.LASF655
 8282 0033 00       		.byte	0
 8283              		.section	.debug_macro,"G",%progbits,wm4.stddef.h.39.27677723d43e5b5a7afdf8d798429f1d,comdat
 8284              	.Ldebug_macro11:
 8285 0000 0400     		.2byte	0x4
 8286 0002 00       		.byte	0
 8287 0003 05       		.byte	0x5
 8288 0004 27       		.uleb128 0x27
 8289 0005 0AD10000 		.4byte	.LASF657
 8290 0009 05       		.byte	0x5
 8291 000a 28       		.uleb128 0x28
 8292 000b 54D50000 		.4byte	.LASF658
 8293 000f 05       		.byte	0x5
 8294 0010 2A       		.uleb128 0x2a
 8295 0011 C8930000 		.4byte	.LASF659
 8296 0015 05       		.byte	0x5
 8297 0016 8301     		.uleb128 0x83
 8298 0018 97420000 		.4byte	.LASF660
 8299 001c 05       		.byte	0x5
 8300 001d 8401     		.uleb128 0x84
 8301 001f C4140000 		.4byte	.LASF661
 8302 0023 05       		.byte	0x5
 8303 0024 8501     		.uleb128 0x85
 8304 0026 57C50000 		.4byte	.LASF662
 8305 002a 05       		.byte	0x5
 8306 002b 8601     		.uleb128 0x86
 8307 002d 89AC0000 		.4byte	.LASF663
 8308 0031 05       		.byte	0x5
 8309 0032 8701     		.uleb128 0x87
 8310 0034 22AB0000 		.4byte	.LASF664
 8311 0038 05       		.byte	0x5
 8312 0039 8801     		.uleb128 0x88
 8313 003b EFD90000 		.4byte	.LASF665
 8314 003f 05       		.byte	0x5
 8315 0040 8901     		.uleb128 0x89
 8316 0042 21E00000 		.4byte	.LASF666
 8317 0046 05       		.byte	0x5
 8318 0047 8A01     		.uleb128 0x8a
 8319 0049 BCC50000 		.4byte	.LASF667
 8320 004d 05       		.byte	0x5
ARM GAS  /tmp/cceVa9lb.s 			page 147


 8321 004e 8B01     		.uleb128 0x8b
 8322 0050 973D0000 		.4byte	.LASF668
 8323 0054 06       		.byte	0x6
 8324 0055 9B01     		.uleb128 0x9b
 8325 0057 E3610000 		.4byte	.LASF669
 8326 005b 05       		.byte	0x5
 8327 005c B501     		.uleb128 0xb5
 8328 005e BE8A0000 		.4byte	.LASF670
 8329 0062 05       		.byte	0x5
 8330 0063 B601     		.uleb128 0xb6
 8331 0065 D6F90000 		.4byte	.LASF671
 8332 0069 05       		.byte	0x5
 8333 006a B701     		.uleb128 0xb7
 8334 006c 36BD0000 		.4byte	.LASF672
 8335 0070 05       		.byte	0x5
 8336 0071 B801     		.uleb128 0xb8
 8337 0073 7D7E0000 		.4byte	.LASF673
 8338 0077 05       		.byte	0x5
 8339 0078 B901     		.uleb128 0xb9
 8340 007a CE260000 		.4byte	.LASF674
 8341 007e 05       		.byte	0x5
 8342 007f BA01     		.uleb128 0xba
 8343 0081 41B20000 		.4byte	.LASF675
 8344 0085 05       		.byte	0x5
 8345 0086 BB01     		.uleb128 0xbb
 8346 0088 17B00000 		.4byte	.LASF676
 8347 008c 05       		.byte	0x5
 8348 008d BC01     		.uleb128 0xbc
 8349 008f 10600000 		.4byte	.LASF677
 8350 0093 05       		.byte	0x5
 8351 0094 BD01     		.uleb128 0xbd
 8352 0096 05F40000 		.4byte	.LASF678
 8353 009a 05       		.byte	0x5
 8354 009b BE01     		.uleb128 0xbe
 8355 009d 87AD0000 		.4byte	.LASF679
 8356 00a1 05       		.byte	0x5
 8357 00a2 BF01     		.uleb128 0xbf
 8358 00a4 21C00000 		.4byte	.LASF680
 8359 00a8 05       		.byte	0x5
 8360 00a9 C001     		.uleb128 0xc0
 8361 00ab 641A0000 		.4byte	.LASF681
 8362 00af 05       		.byte	0x5
 8363 00b0 C101     		.uleb128 0xc1
 8364 00b2 ABFA0000 		.4byte	.LASF682
 8365 00b6 05       		.byte	0x5
 8366 00b7 C201     		.uleb128 0xc2
 8367 00b9 B1560000 		.4byte	.LASF683
 8368 00bd 05       		.byte	0x5
 8369 00be C301     		.uleb128 0xc3
 8370 00c0 C1F50000 		.4byte	.LASF684
 8371 00c4 05       		.byte	0x5
 8372 00c5 C401     		.uleb128 0xc4
 8373 00c7 49D40000 		.4byte	.LASF685
 8374 00cb 05       		.byte	0x5
 8375 00cc CB01     		.uleb128 0xcb
 8376 00ce A6360000 		.4byte	.LASF686
 8377 00d2 06       		.byte	0x6
ARM GAS  /tmp/cceVa9lb.s 			page 148


 8378 00d3 E701     		.uleb128 0xe7
 8379 00d5 ACE30000 		.4byte	.LASF687
 8380 00d9 05       		.byte	0x5
 8381 00da 8402     		.uleb128 0x104
 8382 00dc 63750000 		.4byte	.LASF688
 8383 00e0 05       		.byte	0x5
 8384 00e1 8502     		.uleb128 0x105
 8385 00e3 49100000 		.4byte	.LASF689
 8386 00e7 05       		.byte	0x5
 8387 00e8 8602     		.uleb128 0x106
 8388 00ea 97310000 		.4byte	.LASF690
 8389 00ee 05       		.byte	0x5
 8390 00ef 8702     		.uleb128 0x107
 8391 00f1 DCB60000 		.4byte	.LASF691
 8392 00f5 05       		.byte	0x5
 8393 00f6 8802     		.uleb128 0x108
 8394 00f8 797B0000 		.4byte	.LASF692
 8395 00fc 05       		.byte	0x5
 8396 00fd 8902     		.uleb128 0x109
 8397 00ff 00DA0000 		.4byte	.LASF693
 8398 0103 05       		.byte	0x5
 8399 0104 8A02     		.uleb128 0x10a
 8400 0106 CE7C0000 		.4byte	.LASF694
 8401 010a 05       		.byte	0x5
 8402 010b 8B02     		.uleb128 0x10b
 8403 010d 8AD00000 		.4byte	.LASF695
 8404 0111 05       		.byte	0x5
 8405 0112 8C02     		.uleb128 0x10c
 8406 0114 22470000 		.4byte	.LASF696
 8407 0118 05       		.byte	0x5
 8408 0119 8D02     		.uleb128 0x10d
 8409 011b 0A0D0000 		.4byte	.LASF697
 8410 011f 05       		.byte	0x5
 8411 0120 8E02     		.uleb128 0x10e
 8412 0122 15080000 		.4byte	.LASF698
 8413 0126 05       		.byte	0x5
 8414 0127 8F02     		.uleb128 0x10f
 8415 0129 AEBC0000 		.4byte	.LASF699
 8416 012d 05       		.byte	0x5
 8417 012e 9002     		.uleb128 0x110
 8418 0130 17360000 		.4byte	.LASF700
 8419 0134 05       		.byte	0x5
 8420 0135 9102     		.uleb128 0x111
 8421 0137 9B5C0000 		.4byte	.LASF701
 8422 013b 05       		.byte	0x5
 8423 013c 9202     		.uleb128 0x112
 8424 013e BC750000 		.4byte	.LASF702
 8425 0142 06       		.byte	0x6
 8426 0143 9F02     		.uleb128 0x11f
 8427 0145 9D5F0000 		.4byte	.LASF703
 8428 0149 06       		.byte	0x6
 8429 014a D402     		.uleb128 0x154
 8430 014c 1AC50000 		.4byte	.LASF704
 8431 0150 06       		.byte	0x6
 8432 0151 8603     		.uleb128 0x186
 8433 0153 E3590000 		.4byte	.LASF705
 8434 0157 05       		.byte	0x5
ARM GAS  /tmp/cceVa9lb.s 			page 149


 8435 0158 8B03     		.uleb128 0x18b
 8436 015a 3AC30000 		.4byte	.LASF706
 8437 015e 06       		.byte	0x6
 8438 015f 9103     		.uleb128 0x191
 8439 0161 5F820000 		.4byte	.LASF707
 8440 0165 05       		.byte	0x5
 8441 0166 9603     		.uleb128 0x196
 8442 0168 6B820000 		.4byte	.LASF708
 8443 016c 00       		.byte	0
 8444              		.section	.debug_macro,"G",%progbits,wm4._types.h.20.dd0d04dca3800a0d2a6129b87f3adbb2,comdat
 8445              	.Ldebug_macro12:
 8446 0000 0400     		.2byte	0x4
 8447 0002 00       		.byte	0
 8448 0003 05       		.byte	0x5
 8449 0004 14       		.uleb128 0x14
 8450 0005 A6840000 		.4byte	.LASF709
 8451 0009 05       		.byte	0x5
 8452 000a 16       		.uleb128 0x16
 8453 000b C05D0000 		.4byte	.LASF710
 8454 000f 05       		.byte	0x5
 8455 0010 17       		.uleb128 0x17
 8456 0011 680F0000 		.4byte	.LASF711
 8457 0015 00       		.byte	0
 8458              		.section	.debug_macro,"G",%progbits,wm4.stddef.h.155.3588ebfdd1e8c7ede80509bb9c3b8009,comdat
 8459              	.Ldebug_macro13:
 8460 0000 0400     		.2byte	0x4
 8461 0002 00       		.byte	0
 8462 0003 06       		.byte	0x6
 8463 0004 9B01     		.uleb128 0x9b
 8464 0006 E3610000 		.4byte	.LASF669
 8465 000a 06       		.byte	0x6
 8466 000b E701     		.uleb128 0xe7
 8467 000d ACE30000 		.4byte	.LASF687
 8468 0011 06       		.byte	0x6
 8469 0012 D402     		.uleb128 0x154
 8470 0014 1AC50000 		.4byte	.LASF704
 8471 0018 05       		.byte	0x5
 8472 0019 D902     		.uleb128 0x159
 8473 001b 40060000 		.4byte	.LASF712
 8474 001f 06       		.byte	0x6
 8475 0020 E002     		.uleb128 0x160
 8476 0022 52700000 		.4byte	.LASF713
 8477 0026 06       		.byte	0x6
 8478 0027 8603     		.uleb128 0x186
 8479 0029 E3590000 		.4byte	.LASF705
 8480 002d 05       		.byte	0x5
 8481 002e 8B03     		.uleb128 0x18b
 8482 0030 3AC30000 		.4byte	.LASF706
 8483 0034 06       		.byte	0x6
 8484 0035 9103     		.uleb128 0x191
 8485 0037 5F820000 		.4byte	.LASF707
 8486 003b 05       		.byte	0x5
 8487 003c 9603     		.uleb128 0x196
 8488 003e 6B820000 		.4byte	.LASF708
 8489 0042 00       		.byte	0
 8490              		.section	.debug_macro,"G",%progbits,wm4._default_types.h.6.959254cf5f09734ea7516c89e8bb21bd,comdat
 8491              	.Ldebug_macro14:
ARM GAS  /tmp/cceVa9lb.s 			page 150


 8492 0000 0400     		.2byte	0x4
 8493 0002 00       		.byte	0
 8494 0003 05       		.byte	0x5
 8495 0004 06       		.uleb128 0x6
 8496 0005 F9C30000 		.4byte	.LASF715
 8497 0009 05       		.byte	0x5
 8498 000a 0F       		.uleb128 0xf
 8499 000b 6A2C0000 		.4byte	.LASF716
 8500 000f 05       		.byte	0x5
 8501 0010 1A       		.uleb128 0x1a
 8502 0011 E6070000 		.4byte	.LASF717
 8503 0015 05       		.byte	0x5
 8504 0016 21       		.uleb128 0x21
 8505 0017 83E10000 		.4byte	.LASF718
 8506 001b 05       		.byte	0x5
 8507 001c 2F       		.uleb128 0x2f
 8508 001d 7EC00000 		.4byte	.LASF719
 8509 0021 05       		.byte	0x5
 8510 0022 3D       		.uleb128 0x3d
 8511 0023 A72F0000 		.4byte	.LASF720
 8512 0027 05       		.byte	0x5
 8513 0028 53       		.uleb128 0x53
 8514 0029 36E80000 		.4byte	.LASF721
 8515 002d 05       		.byte	0x5
 8516 002e 6D       		.uleb128 0x6d
 8517 002f 61520000 		.4byte	.LASF722
 8518 0033 05       		.byte	0x5
 8519 0034 8C01     		.uleb128 0x8c
 8520 0036 46480000 		.4byte	.LASF723
 8521 003a 05       		.byte	0x5
 8522 003b A601     		.uleb128 0xa6
 8523 003d 03DD0000 		.4byte	.LASF724
 8524 0041 05       		.byte	0x5
 8525 0042 BC01     		.uleb128 0xbc
 8526 0044 80B10000 		.4byte	.LASF725
 8527 0048 05       		.byte	0x5
 8528 0049 CE01     		.uleb128 0xce
 8529 004b 318A0000 		.4byte	.LASF726
 8530 004f 06       		.byte	0x6
 8531 0050 F401     		.uleb128 0xf4
 8532 0052 B4260000 		.4byte	.LASF727
 8533 0056 00       		.byte	0
 8534              		.section	.debug_macro,"G",%progbits,wm4._types.h.127.34941de1b2539d59d5cac00e0dd27a45,comdat
 8535              	.Ldebug_macro15:
 8536 0000 0400     		.2byte	0x4
 8537 0002 00       		.byte	0
 8538 0003 06       		.byte	0x6
 8539 0004 7F       		.uleb128 0x7f
 8540 0005 21D30000 		.4byte	.LASF728
 8541 0009 05       		.byte	0x5
 8542 000a 9201     		.uleb128 0x92
 8543 000c 7D3F0000 		.4byte	.LASF729
 8544 0010 06       		.byte	0x6
 8545 0011 9401     		.uleb128 0x94
 8546 0013 02A20000 		.4byte	.LASF730
 8547 0017 05       		.byte	0x5
 8548 0018 B301     		.uleb128 0xb3
ARM GAS  /tmp/cceVa9lb.s 			page 151


 8549 001a 95070000 		.4byte	.LASF731
 8550 001e 05       		.byte	0x5
 8551 001f BB01     		.uleb128 0xbb
 8552 0021 F6F50000 		.4byte	.LASF732
 8553 0025 05       		.byte	0x5
 8554 0026 C001     		.uleb128 0xc0
 8555 0028 FE950000 		.4byte	.LASF733
 8556 002c 05       		.byte	0x5
 8557 002d C501     		.uleb128 0xc5
 8558 002f 07830000 		.4byte	.LASF734
 8559 0033 00       		.byte	0
 8560              		.section	.debug_macro,"G",%progbits,wm4.reent.h.17.e292bf8b0bec6c96e131a54347145a30,comdat
 8561              	.Ldebug_macro16:
 8562 0000 0400     		.2byte	0x4
 8563 0002 00       		.byte	0
 8564 0003 05       		.byte	0x5
 8565 0004 11       		.uleb128 0x11
 8566 0005 C9740000 		.4byte	.LASF735
 8567 0009 05       		.byte	0x5
 8568 000a 15       		.uleb128 0x15
 8569 000b 74B00000 		.4byte	.LASF736
 8570 000f 00       		.byte	0
 8571              		.section	.debug_macro,"G",%progbits,wm4.lock.h.2.c0958401bd0ce484d507ee19aacab817,comdat
 8572              	.Ldebug_macro17:
 8573 0000 0400     		.2byte	0x4
 8574 0002 00       		.byte	0
 8575 0003 05       		.byte	0x5
 8576 0004 02       		.uleb128 0x2
 8577 0005 D8900000 		.4byte	.LASF737
 8578 0009 05       		.byte	0x5
 8579 000a 0E       		.uleb128 0xe
 8580 000b C35C0000 		.4byte	.LASF738
 8581 000f 05       		.byte	0x5
 8582 0010 0F       		.uleb128 0xf
 8583 0011 E5080100 		.4byte	.LASF739
 8584 0015 05       		.byte	0x5
 8585 0016 10       		.uleb128 0x10
 8586 0017 3DD70000 		.4byte	.LASF740
 8587 001b 05       		.byte	0x5
 8588 001c 11       		.uleb128 0x11
 8589 001d 17510000 		.4byte	.LASF741
 8590 0021 05       		.byte	0x5
 8591 0022 12       		.uleb128 0x12
 8592 0023 46990000 		.4byte	.LASF742
 8593 0027 05       		.byte	0x5
 8594 0028 13       		.uleb128 0x13
 8595 0029 CC2A0000 		.4byte	.LASF743
 8596 002d 05       		.byte	0x5
 8597 002e 14       		.uleb128 0x14
 8598 002f 321D0000 		.4byte	.LASF744
 8599 0033 05       		.byte	0x5
 8600 0034 15       		.uleb128 0x15
 8601 0035 7BDA0000 		.4byte	.LASF745
 8602 0039 05       		.byte	0x5
 8603 003a 16       		.uleb128 0x16
 8604 003b 78870000 		.4byte	.LASF746
 8605 003f 05       		.byte	0x5
ARM GAS  /tmp/cceVa9lb.s 			page 152


 8606 0040 17       		.uleb128 0x17
 8607 0041 0BDA0000 		.4byte	.LASF747
 8608 0045 05       		.byte	0x5
 8609 0046 18       		.uleb128 0x18
 8610 0047 5A3D0000 		.4byte	.LASF748
 8611 004b 05       		.byte	0x5
 8612 004c 19       		.uleb128 0x19
 8613 004d BB880000 		.4byte	.LASF749
 8614 0051 00       		.byte	0
 8615              		.section	.debug_macro,"G",%progbits,wm4.reent.h.77.dcd6129ff07fe81bd5636db29abe53b2,comdat
 8616              	.Ldebug_macro18:
 8617 0000 0400     		.2byte	0x4
 8618 0002 00       		.byte	0
 8619 0003 05       		.byte	0x5
 8620 0004 4D       		.uleb128 0x4d
 8621 0005 DD270000 		.4byte	.LASF750
 8622 0009 05       		.byte	0x5
 8623 000a 69       		.uleb128 0x69
 8624 000b 4E110000 		.4byte	.LASF751
 8625 000f 05       		.byte	0x5
 8626 0010 6F       		.uleb128 0x6f
 8627 0011 CCC50000 		.4byte	.LASF752
 8628 0015 05       		.byte	0x5
 8629 0016 B701     		.uleb128 0xb7
 8630 0018 9CE40000 		.4byte	.LASF753
 8631 001c 05       		.byte	0x5
 8632 001d BD02     		.uleb128 0x13d
 8633 001f 15D10000 		.4byte	.LASF754
 8634 0023 05       		.byte	0x5
 8635 0024 BE02     		.uleb128 0x13e
 8636 0026 BDFA0000 		.4byte	.LASF755
 8637 002a 05       		.byte	0x5
 8638 002b BF02     		.uleb128 0x13f
 8639 002d C8840000 		.4byte	.LASF756
 8640 0031 05       		.byte	0x5
 8641 0032 C002     		.uleb128 0x140
 8642 0034 C7800000 		.4byte	.LASF757
 8643 0038 05       		.byte	0x5
 8644 0039 C102     		.uleb128 0x141
 8645 003b 0B910000 		.4byte	.LASF758
 8646 003f 05       		.byte	0x5
 8647 0040 C202     		.uleb128 0x142
 8648 0042 E6950000 		.4byte	.LASF759
 8649 0046 05       		.byte	0x5
 8650 0047 C302     		.uleb128 0x143
 8651 0049 F5D00000 		.4byte	.LASF760
 8652 004d 05       		.byte	0x5
 8653 004e CF02     		.uleb128 0x14f
 8654 0050 192E0000 		.4byte	.LASF761
 8655 0054 05       		.byte	0x5
 8656 0055 D002     		.uleb128 0x150
 8657 0057 BD870000 		.4byte	.LASF762
 8658 005b 05       		.byte	0x5
 8659 005c D102     		.uleb128 0x151
 8660 005e 91D80000 		.4byte	.LASF763
 8661 0062 05       		.byte	0x5
 8662 0063 A005     		.uleb128 0x2a0
ARM GAS  /tmp/cceVa9lb.s 			page 153


 8663 0065 44A60000 		.4byte	.LASF764
 8664 0069 05       		.byte	0x5
 8665 006a BC05     		.uleb128 0x2bc
 8666 006c 71580000 		.4byte	.LASF765
 8667 0070 05       		.byte	0x5
 8668 0071 BF05     		.uleb128 0x2bf
 8669 0073 6F8C0000 		.4byte	.LASF766
 8670 0077 05       		.byte	0x5
 8671 0078 EF05     		.uleb128 0x2ef
 8672 007a 90670000 		.4byte	.LASF767
 8673 007e 05       		.byte	0x5
 8674 007f FD05     		.uleb128 0x2fd
 8675 0081 B7050000 		.4byte	.LASF768
 8676 0085 05       		.byte	0x5
 8677 0086 FE05     		.uleb128 0x2fe
 8678 0088 885B0000 		.4byte	.LASF769
 8679 008c 05       		.byte	0x5
 8680 008d FF05     		.uleb128 0x2ff
 8681 008f B84F0000 		.4byte	.LASF770
 8682 0093 05       		.byte	0x5
 8683 0094 8006     		.uleb128 0x300
 8684 0096 30070000 		.4byte	.LASF771
 8685 009a 05       		.byte	0x5
 8686 009b 8106     		.uleb128 0x301
 8687 009d 1C760000 		.4byte	.LASF772
 8688 00a1 05       		.byte	0x5
 8689 00a2 8206     		.uleb128 0x302
 8690 00a4 FFCC0000 		.4byte	.LASF773
 8691 00a8 05       		.byte	0x5
 8692 00a9 8306     		.uleb128 0x303
 8693 00ab 032B0000 		.4byte	.LASF774
 8694 00af 05       		.byte	0x5
 8695 00b0 8506     		.uleb128 0x305
 8696 00b2 AC3D0000 		.4byte	.LASF775
 8697 00b6 05       		.byte	0x5
 8698 00b7 8606     		.uleb128 0x306
 8699 00b9 977F0000 		.4byte	.LASF776
 8700 00bd 05       		.byte	0x5
 8701 00be 8706     		.uleb128 0x307
 8702 00c0 62B20000 		.4byte	.LASF777
 8703 00c4 05       		.byte	0x5
 8704 00c5 8806     		.uleb128 0x308
 8705 00c7 14920000 		.4byte	.LASF778
 8706 00cb 05       		.byte	0x5
 8707 00cc 8906     		.uleb128 0x309
 8708 00ce CF3B0000 		.4byte	.LASF779
 8709 00d2 05       		.byte	0x5
 8710 00d3 8A06     		.uleb128 0x30a
 8711 00d5 EE720000 		.4byte	.LASF780
 8712 00d9 05       		.byte	0x5
 8713 00da 8B06     		.uleb128 0x30b
 8714 00dc C4690000 		.4byte	.LASF781
 8715 00e0 05       		.byte	0x5
 8716 00e1 8C06     		.uleb128 0x30c
 8717 00e3 37A40000 		.4byte	.LASF782
 8718 00e7 05       		.byte	0x5
 8719 00e8 8D06     		.uleb128 0x30d
ARM GAS  /tmp/cceVa9lb.s 			page 154


 8720 00ea 28D20000 		.4byte	.LASF783
 8721 00ee 05       		.byte	0x5
 8722 00ef 8E06     		.uleb128 0x30e
 8723 00f1 39A00000 		.4byte	.LASF784
 8724 00f5 05       		.byte	0x5
 8725 00f6 8F06     		.uleb128 0x30f
 8726 00f8 C62F0000 		.4byte	.LASF785
 8727 00fc 05       		.byte	0x5
 8728 00fd 9006     		.uleb128 0x310
 8729 00ff 1D170000 		.4byte	.LASF786
 8730 0103 05       		.byte	0x5
 8731 0104 9106     		.uleb128 0x311
 8732 0106 9B410000 		.4byte	.LASF787
 8733 010a 05       		.byte	0x5
 8734 010b 9206     		.uleb128 0x312
 8735 010d 9A230000 		.4byte	.LASF788
 8736 0111 05       		.byte	0x5
 8737 0112 9306     		.uleb128 0x313
 8738 0114 EAFC0000 		.4byte	.LASF789
 8739 0118 05       		.byte	0x5
 8740 0119 9406     		.uleb128 0x314
 8741 011b BE810000 		.4byte	.LASF790
 8742 011f 05       		.byte	0x5
 8743 0120 9506     		.uleb128 0x315
 8744 0122 030F0000 		.4byte	.LASF791
 8745 0126 05       		.byte	0x5
 8746 0127 9606     		.uleb128 0x316
 8747 0129 44280000 		.4byte	.LASF792
 8748 012d 05       		.byte	0x5
 8749 012e 9706     		.uleb128 0x317
 8750 0130 A2460000 		.4byte	.LASF793
 8751 0134 05       		.byte	0x5
 8752 0135 9806     		.uleb128 0x318
 8753 0137 6EE30000 		.4byte	.LASF794
 8754 013b 05       		.byte	0x5
 8755 013c 9906     		.uleb128 0x319
 8756 013e 63170000 		.4byte	.LASF795
 8757 0142 05       		.byte	0x5
 8758 0143 9A06     		.uleb128 0x31a
 8759 0145 B9010000 		.4byte	.LASF796
 8760 0149 05       		.byte	0x5
 8761 014a 9B06     		.uleb128 0x31b
 8762 014c 32F30000 		.4byte	.LASF797
 8763 0150 05       		.byte	0x5
 8764 0151 9C06     		.uleb128 0x31c
 8765 0153 7E740000 		.4byte	.LASF798
 8766 0157 05       		.byte	0x5
 8767 0158 A006     		.uleb128 0x320
 8768 015a 2CB50000 		.4byte	.LASF799
 8769 015e 05       		.byte	0x5
 8770 015f A806     		.uleb128 0x328
 8771 0161 8E810000 		.4byte	.LASF800
 8772 0165 05       		.byte	0x5
 8773 0166 B006     		.uleb128 0x330
 8774 0168 4ACC0000 		.4byte	.LASF801
 8775 016c 05       		.byte	0x5
 8776 016d C006     		.uleb128 0x340
ARM GAS  /tmp/cceVa9lb.s 			page 155


 8777 016f AB810000 		.4byte	.LASF802
 8778 0173 05       		.byte	0x5
 8779 0174 C306     		.uleb128 0x343
 8780 0176 01520000 		.4byte	.LASF803
 8781 017a 05       		.byte	0x5
 8782 017b C906     		.uleb128 0x349
 8783 017d 8F8E0000 		.4byte	.LASF804
 8784 0181 00       		.byte	0
 8785              		.section	.debug_macro,"G",%progbits,wm4.cdefs.h.49.3d0fe8ea14e93bda8c589d4f684b21b8,comdat
 8786              	.Ldebug_macro19:
 8787 0000 0400     		.2byte	0x4
 8788 0002 00       		.byte	0
 8789 0003 05       		.byte	0x5
 8790 0004 31       		.uleb128 0x31
 8791 0005 CAAA0000 		.4byte	.LASF806
 8792 0009 05       		.byte	0x5
 8793 000a 32       		.uleb128 0x32
 8794 000b 58B10000 		.4byte	.LASF807
 8795 000f 05       		.byte	0x5
 8796 0010 33       		.uleb128 0x33
 8797 0011 A6FD0000 		.4byte	.LASF808
 8798 0015 05       		.byte	0x5
 8799 0016 36       		.uleb128 0x36
 8800 0017 327D0000 		.4byte	.LASF809
 8801 001b 05       		.byte	0x5
 8802 001c 39       		.uleb128 0x39
 8803 001d B0A10000 		.4byte	.LASF810
 8804 0021 05       		.byte	0x5
 8805 0022 3A       		.uleb128 0x3a
 8806 0023 C12C0000 		.4byte	.LASF811
 8807 0027 05       		.byte	0x5
 8808 0028 3C       		.uleb128 0x3c
 8809 0029 822F0000 		.4byte	.LASF812
 8810 002d 05       		.byte	0x5
 8811 002e 3D       		.uleb128 0x3d
 8812 002f 7C6B0000 		.4byte	.LASF813
 8813 0033 05       		.byte	0x5
 8814 0034 3E       		.uleb128 0x3e
 8815 0035 F8E00000 		.4byte	.LASF814
 8816 0039 05       		.byte	0x5
 8817 003a 3F       		.uleb128 0x3f
 8818 003b C13B0000 		.4byte	.LASF815
 8819 003f 05       		.byte	0x5
 8820 0040 42       		.uleb128 0x42
 8821 0041 4F470000 		.4byte	.LASF816
 8822 0045 05       		.byte	0x5
 8823 0046 43       		.uleb128 0x43
 8824 0047 08150000 		.4byte	.LASF817
 8825 004b 05       		.byte	0x5
 8826 004c 44       		.uleb128 0x44
 8827 004d 6E6D0000 		.4byte	.LASF818
 8828 0051 05       		.byte	0x5
 8829 0052 4E       		.uleb128 0x4e
 8830 0053 EA960000 		.4byte	.LASF819
 8831 0057 05       		.byte	0x5
 8832 0058 51       		.uleb128 0x51
 8833 0059 E82D0000 		.4byte	.LASF820
ARM GAS  /tmp/cceVa9lb.s 			page 156


 8834 005d 05       		.byte	0x5
 8835 005e 5E       		.uleb128 0x5e
 8836 005f BAE30000 		.4byte	.LASF821
 8837 0063 05       		.byte	0x5
 8838 0064 5F       		.uleb128 0x5f
 8839 0065 B0870000 		.4byte	.LASF822
 8840 0069 05       		.byte	0x5
 8841 006a 6B       		.uleb128 0x6b
 8842 006b 9E630000 		.4byte	.LASF823
 8843 006f 05       		.byte	0x5
 8844 0070 6C       		.uleb128 0x6c
 8845 0071 36F70000 		.4byte	.LASF824
 8846 0075 05       		.byte	0x5
 8847 0076 70       		.uleb128 0x70
 8848 0077 250E0000 		.4byte	.LASF825
 8849 007b 05       		.byte	0x5
 8850 007c 71       		.uleb128 0x71
 8851 007d D2380000 		.4byte	.LASF826
 8852 0081 05       		.byte	0x5
 8853 0082 72       		.uleb128 0x72
 8854 0083 D5410000 		.4byte	.LASF827
 8855 0087 05       		.byte	0x5
 8856 0088 75       		.uleb128 0x75
 8857 0089 7A1A0000 		.4byte	.LASF828
 8858 008d 05       		.byte	0x5
 8859 008e 78       		.uleb128 0x78
 8860 008f 3C080000 		.4byte	.LASF829
 8861 0093 05       		.byte	0x5
 8862 0094 7F       		.uleb128 0x7f
 8863 0095 057D0000 		.4byte	.LASF830
 8864 0099 05       		.byte	0x5
 8865 009a 8001     		.uleb128 0x80
 8866 009c 16880000 		.4byte	.LASF831
 8867 00a0 05       		.byte	0x5
 8868 00a1 8101     		.uleb128 0x81
 8869 00a3 36800000 		.4byte	.LASF832
 8870 00a7 05       		.byte	0x5
 8871 00a8 8501     		.uleb128 0x85
 8872 00aa 134B0000 		.4byte	.LASF833
 8873 00ae 05       		.byte	0x5
 8874 00af 8C01     		.uleb128 0x8c
 8875 00b1 065A0000 		.4byte	.LASF834
 8876 00b5 05       		.byte	0x5
 8877 00b6 9001     		.uleb128 0x90
 8878 00b8 9C520000 		.4byte	.LASF835
 8879 00bc 05       		.byte	0x5
 8880 00bd 9101     		.uleb128 0x91
 8881 00bf D74B0000 		.4byte	.LASF836
 8882 00c3 05       		.byte	0x5
 8883 00c4 9401     		.uleb128 0x94
 8884 00c6 95560000 		.4byte	.LASF837
 8885 00ca 05       		.byte	0x5
 8886 00cb 9701     		.uleb128 0x97
 8887 00cd 73390000 		.4byte	.LASF838
 8888 00d1 05       		.byte	0x5
 8889 00d2 9801     		.uleb128 0x98
 8890 00d4 392A0000 		.4byte	.LASF839
ARM GAS  /tmp/cceVa9lb.s 			page 157


 8891 00d8 05       		.byte	0x5
 8892 00d9 9901     		.uleb128 0x99
 8893 00db 96D70000 		.4byte	.LASF840
 8894 00df 05       		.byte	0x5
 8895 00e0 9B01     		.uleb128 0x9b
 8896 00e2 39DA0000 		.4byte	.LASF841
 8897 00e6 05       		.byte	0x5
 8898 00e7 9C01     		.uleb128 0x9c
 8899 00e9 E22B0000 		.4byte	.LASF842
 8900 00ed 05       		.byte	0x5
 8901 00ee 9E01     		.uleb128 0x9e
 8902 00f0 18960000 		.4byte	.LASF843
 8903 00f4 05       		.byte	0x5
 8904 00f5 A001     		.uleb128 0xa0
 8905 00f7 CDE90000 		.4byte	.LASF844
 8906 00fb 05       		.byte	0x5
 8907 00fc B101     		.uleb128 0xb1
 8908 00fe AA110000 		.4byte	.LASF845
 8909 0102 05       		.byte	0x5
 8910 0103 B201     		.uleb128 0xb2
 8911 0105 98B30000 		.4byte	.LASF846
 8912 0109 05       		.byte	0x5
 8913 010a B301     		.uleb128 0xb3
 8914 010c 6AF30000 		.4byte	.LASF847
 8915 0110 05       		.byte	0x5
 8916 0111 B401     		.uleb128 0xb4
 8917 0113 FFFA0000 		.4byte	.LASF848
 8918 0117 05       		.byte	0x5
 8919 0118 B501     		.uleb128 0xb5
 8920 011a F2CA0000 		.4byte	.LASF849
 8921 011e 05       		.byte	0x5
 8922 011f B701     		.uleb128 0xb7
 8923 0121 04260000 		.4byte	.LASF850
 8924 0125 05       		.byte	0x5
 8925 0126 B801     		.uleb128 0xb8
 8926 0128 7AD20000 		.4byte	.LASF851
 8927 012c 05       		.byte	0x5
 8928 012d B901     		.uleb128 0xb9
 8929 012f 3C5E0000 		.4byte	.LASF852
 8930 0133 05       		.byte	0x5
 8931 0134 E601     		.uleb128 0xe6
 8932 0136 993B0000 		.4byte	.LASF853
 8933 013a 05       		.byte	0x5
 8934 013b F301     		.uleb128 0xf3
 8935 013d 9A5D0000 		.4byte	.LASF854
 8936 0141 05       		.byte	0x5
 8937 0142 F401     		.uleb128 0xf4
 8938 0144 72BC0000 		.4byte	.LASF855
 8939 0148 05       		.byte	0x5
 8940 0149 F501     		.uleb128 0xf5
 8941 014b 8FE50000 		.4byte	.LASF856
 8942 014f 05       		.byte	0x5
 8943 0150 F601     		.uleb128 0xf6
 8944 0152 3AEC0000 		.4byte	.LASF857
 8945 0156 05       		.byte	0x5
 8946 0157 F701     		.uleb128 0xf7
 8947 0159 1F830000 		.4byte	.LASF858
ARM GAS  /tmp/cceVa9lb.s 			page 158


 8948 015d 05       		.byte	0x5
 8949 015e F801     		.uleb128 0xf8
 8950 0160 7F140000 		.4byte	.LASF859
 8951 0164 05       		.byte	0x5
 8952 0165 F901     		.uleb128 0xf9
 8953 0167 2F6D0000 		.4byte	.LASF860
 8954 016b 05       		.byte	0x5
 8955 016c FC01     		.uleb128 0xfc
 8956 016e CF750000 		.4byte	.LASF861
 8957 0172 05       		.byte	0x5
 8958 0173 FD01     		.uleb128 0xfd
 8959 0175 7F3E0000 		.4byte	.LASF862
 8960 0179 05       		.byte	0x5
 8961 017a 8302     		.uleb128 0x103
 8962 017c B0D30000 		.4byte	.LASF863
 8963 0180 05       		.byte	0x5
 8964 0181 9802     		.uleb128 0x118
 8965 0183 401C0000 		.4byte	.LASF864
 8966 0187 05       		.byte	0x5
 8967 0188 9F02     		.uleb128 0x11f
 8968 018a 65FA0000 		.4byte	.LASF865
 8969 018e 05       		.byte	0x5
 8970 018f A802     		.uleb128 0x128
 8971 0191 A7F70000 		.4byte	.LASF866
 8972 0195 05       		.byte	0x5
 8973 0196 AE02     		.uleb128 0x12e
 8974 0198 BEC00000 		.4byte	.LASF867
 8975 019c 05       		.byte	0x5
 8976 019d CB02     		.uleb128 0x14b
 8977 019f 6B7D0000 		.4byte	.LASF868
 8978 01a3 05       		.byte	0x5
 8979 01a4 DF02     		.uleb128 0x15f
 8980 01a6 73A00000 		.4byte	.LASF869
 8981 01aa 05       		.byte	0x5
 8982 01ab EE02     		.uleb128 0x16e
 8983 01ad 71840000 		.4byte	.LASF870
 8984 01b1 05       		.byte	0x5
 8985 01b2 F402     		.uleb128 0x174
 8986 01b4 53FD0000 		.4byte	.LASF871
 8987 01b8 05       		.byte	0x5
 8988 01b9 F502     		.uleb128 0x175
 8989 01bb 9BB10000 		.4byte	.LASF872
 8990 01bf 05       		.byte	0x5
 8991 01c0 FC02     		.uleb128 0x17c
 8992 01c2 4DAF0000 		.4byte	.LASF873
 8993 01c6 05       		.byte	0x5
 8994 01c7 8203     		.uleb128 0x182
 8995 01c9 406B0000 		.4byte	.LASF874
 8996 01cd 05       		.byte	0x5
 8997 01ce 8803     		.uleb128 0x188
 8998 01d0 23460000 		.4byte	.LASF875
 8999 01d4 05       		.byte	0x5
 9000 01d5 8903     		.uleb128 0x189
 9001 01d7 A9F60000 		.4byte	.LASF876
 9002 01db 05       		.byte	0x5
 9003 01dc 9003     		.uleb128 0x190
 9004 01de CC170000 		.4byte	.LASF877
ARM GAS  /tmp/cceVa9lb.s 			page 159


 9005 01e2 05       		.byte	0x5
 9006 01e3 9103     		.uleb128 0x191
 9007 01e5 DBB40000 		.4byte	.LASF878
 9008 01e9 05       		.byte	0x5
 9009 01ea 9803     		.uleb128 0x198
 9010 01ec AD720000 		.4byte	.LASF879
 9011 01f0 05       		.byte	0x5
 9012 01f1 9E03     		.uleb128 0x19e
 9013 01f3 59C90000 		.4byte	.LASF880
 9014 01f7 05       		.byte	0x5
 9015 01f8 B203     		.uleb128 0x1b2
 9016 01fa E3D20000 		.4byte	.LASF881
 9017 01fe 05       		.byte	0x5
 9018 01ff D303     		.uleb128 0x1d3
 9019 0201 1A140000 		.4byte	.LASF882
 9020 0205 05       		.byte	0x5
 9021 0206 D403     		.uleb128 0x1d4
 9022 0208 148B0000 		.4byte	.LASF883
 9023 020c 05       		.byte	0x5
 9024 020d DB03     		.uleb128 0x1db
 9025 020f 56410000 		.4byte	.LASF884
 9026 0213 05       		.byte	0x5
 9027 0214 DC03     		.uleb128 0x1dc
 9028 0216 56E90000 		.4byte	.LASF885
 9029 021a 05       		.byte	0x5
 9030 021b DF03     		.uleb128 0x1df
 9031 021d AED40000 		.4byte	.LASF886
 9032 0221 05       		.byte	0x5
 9033 0222 E903     		.uleb128 0x1e9
 9034 0224 7EFA0000 		.4byte	.LASF887
 9035 0228 05       		.byte	0x5
 9036 0229 EA03     		.uleb128 0x1ea
 9037 022b C0BC0000 		.4byte	.LASF888
 9038 022f 05       		.byte	0x5
 9039 0230 F403     		.uleb128 0x1f4
 9040 0232 EE620000 		.4byte	.LASF889
 9041 0236 05       		.byte	0x5
 9042 0237 8A04     		.uleb128 0x20a
 9043 0239 320A0000 		.4byte	.LASF890
 9044 023d 05       		.byte	0x5
 9045 023e 8C04     		.uleb128 0x20c
 9046 0240 ADCD0000 		.4byte	.LASF891
 9047 0244 05       		.byte	0x5
 9048 0245 8E04     		.uleb128 0x20e
 9049 0247 1E430000 		.4byte	.LASF892
 9050 024b 05       		.byte	0x5
 9051 024c 8F04     		.uleb128 0x20f
 9052 024e 3CAE0000 		.4byte	.LASF893
 9053 0252 05       		.byte	0x5
 9054 0253 9104     		.uleb128 0x211
 9055 0255 26AC0000 		.4byte	.LASF894
 9056 0259 05       		.byte	0x5
 9057 025a 9B04     		.uleb128 0x21b
 9058 025c B7280000 		.4byte	.LASF895
 9059 0260 05       		.byte	0x5
 9060 0261 A004     		.uleb128 0x220
 9061 0263 427C0000 		.4byte	.LASF896
ARM GAS  /tmp/cceVa9lb.s 			page 160


 9062 0267 05       		.byte	0x5
 9063 0268 A504     		.uleb128 0x225
 9064 026a B9C90000 		.4byte	.LASF897
 9065 026e 05       		.byte	0x5
 9066 026f A804     		.uleb128 0x228
 9067 0271 C29F0000 		.4byte	.LASF898
 9068 0275 05       		.byte	0x5
 9069 0276 AC04     		.uleb128 0x22c
 9070 0278 521D0000 		.4byte	.LASF899
 9071 027c 05       		.byte	0x5
 9072 027d AE04     		.uleb128 0x22e
 9073 027f C2560000 		.4byte	.LASF900
 9074 0283 05       		.byte	0x5
 9075 0284 D104     		.uleb128 0x251
 9076 0286 B9350000 		.4byte	.LASF901
 9077 028a 05       		.byte	0x5
 9078 028b D504     		.uleb128 0x255
 9079 028d 5F870000 		.4byte	.LASF902
 9080 0291 05       		.byte	0x5
 9081 0292 D904     		.uleb128 0x259
 9082 0294 E8B70000 		.4byte	.LASF903
 9083 0298 05       		.byte	0x5
 9084 0299 DD04     		.uleb128 0x25d
 9085 029b 0BCB0000 		.4byte	.LASF904
 9086 029f 05       		.byte	0x5
 9087 02a0 E104     		.uleb128 0x261
 9088 02a2 DEF00000 		.4byte	.LASF905
 9089 02a6 05       		.byte	0x5
 9090 02a7 E504     		.uleb128 0x265
 9091 02a9 D6300000 		.4byte	.LASF906
 9092 02ad 05       		.byte	0x5
 9093 02ae E904     		.uleb128 0x269
 9094 02b0 48960000 		.4byte	.LASF907
 9095 02b4 05       		.byte	0x5
 9096 02b5 ED04     		.uleb128 0x26d
 9097 02b7 A02D0000 		.4byte	.LASF908
 9098 02bb 05       		.byte	0x5
 9099 02bc F404     		.uleb128 0x274
 9100 02be CE900000 		.4byte	.LASF909
 9101 02c2 05       		.byte	0x5
 9102 02c3 F504     		.uleb128 0x275
 9103 02c5 5AD70000 		.4byte	.LASF910
 9104 02c9 05       		.byte	0x5
 9105 02ca F604     		.uleb128 0x276
 9106 02cc AC0B0000 		.4byte	.LASF911
 9107 02d0 05       		.byte	0x5
 9108 02d1 F704     		.uleb128 0x277
 9109 02d3 8CE90000 		.4byte	.LASF912
 9110 02d7 05       		.byte	0x5
 9111 02d8 F804     		.uleb128 0x278
 9112 02da 5C6F0000 		.4byte	.LASF913
 9113 02de 05       		.byte	0x5
 9114 02df 8D05     		.uleb128 0x28d
 9115 02e1 11490000 		.4byte	.LASF914
 9116 02e5 05       		.byte	0x5
 9117 02e6 8E05     		.uleb128 0x28e
 9118 02e8 E4460000 		.4byte	.LASF915
ARM GAS  /tmp/cceVa9lb.s 			page 161


 9119 02ec 05       		.byte	0x5
 9120 02ed A005     		.uleb128 0x2a0
 9121 02ef 5A310000 		.4byte	.LASF916
 9122 02f3 05       		.byte	0x5
 9123 02f4 A605     		.uleb128 0x2a6
 9124 02f6 03F00000 		.4byte	.LASF917
 9125 02fa 05       		.byte	0x5
 9126 02fb A905     		.uleb128 0x2a9
 9127 02fd 24E60000 		.4byte	.LASF918
 9128 0301 05       		.byte	0x5
 9129 0302 AB05     		.uleb128 0x2ab
 9130 0304 EF7F0000 		.4byte	.LASF919
 9131 0308 05       		.byte	0x5
 9132 0309 AF05     		.uleb128 0x2af
 9133 030b 8A000100 		.4byte	.LASF920
 9134 030f 05       		.byte	0x5
 9135 0310 B105     		.uleb128 0x2b1
 9136 0312 C48E0000 		.4byte	.LASF921
 9137 0316 05       		.byte	0x5
 9138 0317 B505     		.uleb128 0x2b5
 9139 0319 65980000 		.4byte	.LASF922
 9140 031d 05       		.byte	0x5
 9141 031e B805     		.uleb128 0x2b8
 9142 0320 E0490000 		.4byte	.LASF923
 9143 0324 05       		.byte	0x5
 9144 0325 BA05     		.uleb128 0x2ba
 9145 0327 4C4B0000 		.4byte	.LASF924
 9146 032b 05       		.byte	0x5
 9147 032c BE05     		.uleb128 0x2be
 9148 032e 55A30000 		.4byte	.LASF925
 9149 0332 05       		.byte	0x5
 9150 0333 C005     		.uleb128 0x2c0
 9151 0335 78D10000 		.4byte	.LASF926
 9152 0339 05       		.byte	0x5
 9153 033a C205     		.uleb128 0x2c2
 9154 033c A61D0000 		.4byte	.LASF927
 9155 0340 05       		.byte	0x5
 9156 0341 C605     		.uleb128 0x2c6
 9157 0343 42160000 		.4byte	.LASF928
 9158 0347 05       		.byte	0x5
 9159 0348 C905     		.uleb128 0x2c9
 9160 034a 65C80000 		.4byte	.LASF929
 9161 034e 05       		.byte	0x5
 9162 034f CA05     		.uleb128 0x2ca
 9163 0351 87750000 		.4byte	.LASF930
 9164 0355 00       		.byte	0
 9165              		.section	.debug_macro,"G",%progbits,wm4.string.h.15.dab3980bf35408a4c507182805e2de3a,comdat
 9166              	.Ldebug_macro20:
 9167 0000 0400     		.2byte	0x4
 9168 0002 00       		.byte	0
 9169 0003 05       		.byte	0x5
 9170 0004 0F       		.uleb128 0xf
 9171 0005 C05D0000 		.4byte	.LASF710
 9172 0009 05       		.byte	0x5
 9173 000a 10       		.uleb128 0x10
 9174 000b AFC20000 		.4byte	.LASF931
 9175 000f 00       		.byte	0
ARM GAS  /tmp/cceVa9lb.s 			page 162


 9176              		.section	.debug_macro,"G",%progbits,wm4.stddef.h.155.ba788add86a0e365f264484f110c3c29,comdat
 9177              	.Ldebug_macro21:
 9178 0000 0400     		.2byte	0x4
 9179 0002 00       		.byte	0
 9180 0003 06       		.byte	0x6
 9181 0004 9B01     		.uleb128 0x9b
 9182 0006 E3610000 		.4byte	.LASF669
 9183 000a 06       		.byte	0x6
 9184 000b E701     		.uleb128 0xe7
 9185 000d ACE30000 		.4byte	.LASF687
 9186 0011 06       		.byte	0x6
 9187 0012 D402     		.uleb128 0x154
 9188 0014 1AC50000 		.4byte	.LASF704
 9189 0018 06       		.byte	0x6
 9190 0019 8603     		.uleb128 0x186
 9191 001b E3590000 		.4byte	.LASF705
 9192 001f 05       		.byte	0x5
 9193 0020 8B03     		.uleb128 0x18b
 9194 0022 3AC30000 		.4byte	.LASF706
 9195 0026 06       		.byte	0x6
 9196 0027 9103     		.uleb128 0x191
 9197 0029 5F820000 		.4byte	.LASF707
 9198 002d 05       		.byte	0x5
 9199 002e 9603     		.uleb128 0x196
 9200 0030 6B820000 		.4byte	.LASF708
 9201 0034 00       		.byte	0
 9202              		.section	.debug_macro,"G",%progbits,wm4._intsup.h.10.48bafbb683905c4daa4565a85aeeb264,comdat
 9203              	.Ldebug_macro22:
 9204 0000 0400     		.2byte	0x4
 9205 0002 00       		.byte	0
 9206 0003 05       		.byte	0x5
 9207 0004 0A       		.uleb128 0xa
 9208 0005 07720000 		.4byte	.LASF936
 9209 0009 05       		.byte	0x5
 9210 000a 10       		.uleb128 0x10
 9211 000b 3DCA0000 		.4byte	.LASF937
 9212 000f 06       		.byte	0x6
 9213 0010 2B       		.uleb128 0x2b
 9214 0011 04280000 		.4byte	.LASF938
 9215 0015 06       		.byte	0x6
 9216 0016 2C       		.uleb128 0x2c
 9217 0017 02A20000 		.4byte	.LASF730
 9218 001b 06       		.byte	0x6
 9219 001c 2D       		.uleb128 0x2d
 9220 001d 25BB0000 		.4byte	.LASF939
 9221 0021 06       		.byte	0x6
 9222 0022 2E       		.uleb128 0x2e
 9223 0023 9D1A0000 		.4byte	.LASF940
 9224 0027 02       		.byte	0x2
 9225 0028 2F       		.uleb128 0x2f
 9226 0029 696E7400 		.ascii	"int\000"
 9227 002d 06       		.byte	0x6
 9228 002e 30       		.uleb128 0x30
 9229 002f 5AB30000 		.4byte	.LASF941
 9230 0033 06       		.byte	0x6
 9231 0034 31       		.uleb128 0x31
 9232 0035 B4190000 		.4byte	.LASF942
ARM GAS  /tmp/cceVa9lb.s 			page 163


 9233 0039 06       		.byte	0x6
 9234 003a 32       		.uleb128 0x32
 9235 003b 43F00000 		.4byte	.LASF943
 9236 003f 05       		.byte	0x5
 9237 0040 33       		.uleb128 0x33
 9238 0041 0A670000 		.4byte	.LASF944
 9239 0045 05       		.byte	0x5
 9240 0046 34       		.uleb128 0x34
 9241 0047 37F00000 		.4byte	.LASF945
 9242 004b 05       		.byte	0x5
 9243 004c 35       		.uleb128 0x35
 9244 004d 72E80000 		.4byte	.LASF946
 9245 0051 05       		.byte	0x5
 9246 0052 36       		.uleb128 0x36
 9247 0053 0D880000 		.4byte	.LASF947
 9248 0057 05       		.byte	0x5
 9249 0058 37       		.uleb128 0x37
 9250 0059 2B340000 		.4byte	.LASF948
 9251 005d 05       		.byte	0x5
 9252 005e 38       		.uleb128 0x38
 9253 005f B78E0000 		.4byte	.LASF949
 9254 0063 05       		.byte	0x5
 9255 0064 39       		.uleb128 0x39
 9256 0065 024E0000 		.4byte	.LASF950
 9257 0069 05       		.byte	0x5
 9258 006a 3A       		.uleb128 0x3a
 9259 006b F7CC0000 		.4byte	.LASF951
 9260 006f 05       		.byte	0x5
 9261 0070 43       		.uleb128 0x43
 9262 0071 604E0000 		.4byte	.LASF952
 9263 0075 05       		.byte	0x5
 9264 0076 4A       		.uleb128 0x4a
 9265 0077 2AC30000 		.4byte	.LASF953
 9266 007b 05       		.byte	0x5
 9267 007c 52       		.uleb128 0x52
 9268 007d F85C0000 		.4byte	.LASF954
 9269 0081 05       		.byte	0x5
 9270 0082 5D       		.uleb128 0x5d
 9271 0083 31CA0000 		.4byte	.LASF955
 9272 0087 05       		.byte	0x5
 9273 0088 68       		.uleb128 0x68
 9274 0089 6EFF0000 		.4byte	.LASF956
 9275 008d 05       		.byte	0x5
 9276 008e 71       		.uleb128 0x71
 9277 008f 5B0F0000 		.4byte	.LASF957
 9278 0093 05       		.byte	0x5
 9279 0094 78       		.uleb128 0x78
 9280 0095 B83E0000 		.4byte	.LASF958
 9281 0099 05       		.byte	0x5
 9282 009a 8101     		.uleb128 0x81
 9283 009c 256D0000 		.4byte	.LASF959
 9284 00a0 05       		.byte	0x5
 9285 00a1 8801     		.uleb128 0x88
 9286 00a3 32780000 		.4byte	.LASF960
 9287 00a7 05       		.byte	0x5
 9288 00a8 9301     		.uleb128 0x93
 9289 00aa B0C00000 		.4byte	.LASF961
ARM GAS  /tmp/cceVa9lb.s 			page 164


 9290 00ae 05       		.byte	0x5
 9291 00af 9701     		.uleb128 0x97
 9292 00b1 04AE0000 		.4byte	.LASF962
 9293 00b5 05       		.byte	0x5
 9294 00b6 A201     		.uleb128 0xa2
 9295 00b8 0C140000 		.4byte	.LASF963
 9296 00bc 05       		.byte	0x5
 9297 00bd AD01     		.uleb128 0xad
 9298 00bf 443A0000 		.4byte	.LASF964
 9299 00c3 05       		.byte	0x5
 9300 00c4 B601     		.uleb128 0xb6
 9301 00c6 ACF20000 		.4byte	.LASF965
 9302 00ca 06       		.byte	0x6
 9303 00cb B801     		.uleb128 0xb8
 9304 00cd 04280000 		.4byte	.LASF938
 9305 00d1 06       		.byte	0x6
 9306 00d2 B901     		.uleb128 0xb9
 9307 00d4 02A20000 		.4byte	.LASF730
 9308 00d8 06       		.byte	0x6
 9309 00d9 BA01     		.uleb128 0xba
 9310 00db 25BB0000 		.4byte	.LASF939
 9311 00df 06       		.byte	0x6
 9312 00e0 BB01     		.uleb128 0xbb
 9313 00e2 9D1A0000 		.4byte	.LASF940
 9314 00e6 02       		.byte	0x2
 9315 00e7 BC01     		.uleb128 0xbc
 9316 00e9 696E7400 		.ascii	"int\000"
 9317 00ed 06       		.byte	0x6
 9318 00ee BD01     		.uleb128 0xbd
 9319 00f0 43F00000 		.4byte	.LASF943
 9320 00f4 06       		.byte	0x6
 9321 00f5 C201     		.uleb128 0xc2
 9322 00f7 5AB30000 		.4byte	.LASF941
 9323 00fb 06       		.byte	0x6
 9324 00fc C301     		.uleb128 0xc3
 9325 00fe B4190000 		.4byte	.LASF942
 9326 0102 00       		.byte	0
 9327              		.section	.debug_macro,"G",%progbits,wm4.stdint.h.29.6d480f4ba0f60596e88234283d42444f,comdat
 9328              	.Ldebug_macro23:
 9329 0000 0400     		.2byte	0x4
 9330 0002 00       		.byte	0
 9331 0003 05       		.byte	0x5
 9332 0004 1D       		.uleb128 0x1d
 9333 0005 11580000 		.4byte	.LASF966
 9334 0009 06       		.byte	0x6
 9335 000a 64       		.uleb128 0x64
 9336 000b BBD70000 		.4byte	.LASF967
 9337 000f 05       		.byte	0x5
 9338 0010 65       		.uleb128 0x65
 9339 0011 6DE10000 		.4byte	.LASF968
 9340 0015 06       		.byte	0x6
 9341 0016 66       		.uleb128 0x66
 9342 0017 E9CA0000 		.4byte	.LASF969
 9343 001b 05       		.byte	0x5
 9344 001c 67       		.uleb128 0x67
 9345 001d 62ED0000 		.4byte	.LASF970
 9346 0021 06       		.byte	0x6
ARM GAS  /tmp/cceVa9lb.s 			page 165


 9347 0022 6A       		.uleb128 0x6a
 9348 0023 3DC90000 		.4byte	.LASF971
 9349 0027 05       		.byte	0x5
 9350 0028 6B       		.uleb128 0x6b
 9351 0029 F6C70000 		.4byte	.LASF972
 9352 002d 06       		.byte	0x6
 9353 002e 6E       		.uleb128 0x6e
 9354 002f 73A50000 		.4byte	.LASF973
 9355 0033 05       		.byte	0x5
 9356 0034 6F       		.uleb128 0x6f
 9357 0035 F85F0000 		.4byte	.LASF974
 9358 0039 06       		.byte	0x6
 9359 003a 70       		.uleb128 0x70
 9360 003b 35E00000 		.4byte	.LASF975
 9361 003f 05       		.byte	0x5
 9362 0040 71       		.uleb128 0x71
 9363 0041 B3FC0000 		.4byte	.LASF976
 9364 0045 06       		.byte	0x6
 9365 0046 74       		.uleb128 0x74
 9366 0047 C2E90000 		.4byte	.LASF977
 9367 004b 05       		.byte	0x5
 9368 004c 75       		.uleb128 0x75
 9369 004d 7F3B0000 		.4byte	.LASF978
 9370 0051 06       		.byte	0x6
 9371 0052 78       		.uleb128 0x78
 9372 0053 2CCD0000 		.4byte	.LASF979
 9373 0057 05       		.byte	0x5
 9374 0058 79       		.uleb128 0x79
 9375 0059 71E60000 		.4byte	.LASF980
 9376 005d 06       		.byte	0x6
 9377 005e 7A       		.uleb128 0x7a
 9378 005f BC2F0000 		.4byte	.LASF981
 9379 0063 05       		.byte	0x5
 9380 0064 7B       		.uleb128 0x7b
 9381 0065 1EAF0000 		.4byte	.LASF982
 9382 0069 06       		.byte	0x6
 9383 006a 7E       		.uleb128 0x7e
 9384 006b 73A10000 		.4byte	.LASF983
 9385 006f 05       		.byte	0x5
 9386 0070 7F       		.uleb128 0x7f
 9387 0071 F7D20000 		.4byte	.LASF984
 9388 0075 06       		.byte	0x6
 9389 0076 8201     		.uleb128 0x82
 9390 0078 DDD10000 		.4byte	.LASF985
 9391 007c 05       		.byte	0x5
 9392 007d 8301     		.uleb128 0x83
 9393 007f FA2F0000 		.4byte	.LASF986
 9394 0083 06       		.byte	0x6
 9395 0084 8401     		.uleb128 0x84
 9396 0086 DCF20000 		.4byte	.LASF987
 9397 008a 05       		.byte	0x5
 9398 008b 8501     		.uleb128 0x85
 9399 008d 21080000 		.4byte	.LASF988
 9400 0091 06       		.byte	0x6
 9401 0092 8801     		.uleb128 0x88
 9402 0094 7AE80000 		.4byte	.LASF989
 9403 0098 05       		.byte	0x5
ARM GAS  /tmp/cceVa9lb.s 			page 166


 9404 0099 8901     		.uleb128 0x89
 9405 009b 8C6D0000 		.4byte	.LASF990
 9406 009f 06       		.byte	0x6
 9407 00a0 8C01     		.uleb128 0x8c
 9408 00a2 FD920000 		.4byte	.LASF991
 9409 00a6 05       		.byte	0x5
 9410 00a7 8D01     		.uleb128 0x8d
 9411 00a9 C6290000 		.4byte	.LASF992
 9412 00ad 06       		.byte	0x6
 9413 00ae 8E01     		.uleb128 0x8e
 9414 00b0 46C00000 		.4byte	.LASF993
 9415 00b4 05       		.byte	0x5
 9416 00b5 8F01     		.uleb128 0x8f
 9417 00b7 DEEA0000 		.4byte	.LASF994
 9418 00bb 06       		.byte	0x6
 9419 00bc 9001     		.uleb128 0x90
 9420 00be 59F70000 		.4byte	.LASF995
 9421 00c2 05       		.byte	0x5
 9422 00c3 9101     		.uleb128 0x91
 9423 00c5 F8050000 		.4byte	.LASF996
 9424 00c9 06       		.byte	0x6
 9425 00ca 9201     		.uleb128 0x92
 9426 00cc 59CA0000 		.4byte	.LASF997
 9427 00d0 05       		.byte	0x5
 9428 00d1 9301     		.uleb128 0x93
 9429 00d3 C0420000 		.4byte	.LASF998
 9430 00d7 06       		.byte	0x6
 9431 00d8 9401     		.uleb128 0x94
 9432 00da 4F070000 		.4byte	.LASF999
 9433 00de 05       		.byte	0x5
 9434 00df 9501     		.uleb128 0x95
 9435 00e1 49060000 		.4byte	.LASF1000
 9436 00e5 06       		.byte	0x6
 9437 00e6 9601     		.uleb128 0x96
 9438 00e8 E7050000 		.4byte	.LASF1001
 9439 00ec 05       		.byte	0x5
 9440 00ed 9701     		.uleb128 0x97
 9441 00ef F0D10000 		.4byte	.LASF1002
 9442 00f3 06       		.byte	0x6
 9443 00f4 9801     		.uleb128 0x98
 9444 00f6 5AF10000 		.4byte	.LASF1003
 9445 00fa 05       		.byte	0x5
 9446 00fb 9901     		.uleb128 0x99
 9447 00fd 7A630000 		.4byte	.LASF1004
 9448 0101 06       		.byte	0x6
 9449 0102 9A01     		.uleb128 0x9a
 9450 0104 BA0D0000 		.4byte	.LASF1005
 9451 0108 05       		.byte	0x5
 9452 0109 9B01     		.uleb128 0x9b
 9453 010b 4C920000 		.4byte	.LASF1006
 9454 010f 06       		.byte	0x6
 9455 0110 9C01     		.uleb128 0x9c
 9456 0112 D1AD0000 		.4byte	.LASF1007
 9457 0116 05       		.byte	0x5
 9458 0117 9D01     		.uleb128 0x9d
 9459 0119 2AD30000 		.4byte	.LASF1008
 9460 011d 06       		.byte	0x6
ARM GAS  /tmp/cceVa9lb.s 			page 167


 9461 011e 9E01     		.uleb128 0x9e
 9462 0120 73F50000 		.4byte	.LASF1009
 9463 0124 05       		.byte	0x5
 9464 0125 9F01     		.uleb128 0x9f
 9465 0127 A4340000 		.4byte	.LASF1010
 9466 012b 06       		.byte	0x6
 9467 012c A001     		.uleb128 0xa0
 9468 012e F2B90000 		.4byte	.LASF1011
 9469 0132 05       		.byte	0x5
 9470 0133 A101     		.uleb128 0xa1
 9471 0135 53D20000 		.4byte	.LASF1012
 9472 0139 06       		.byte	0x6
 9473 013a A201     		.uleb128 0xa2
 9474 013c C5300000 		.4byte	.LASF1013
 9475 0140 05       		.byte	0x5
 9476 0141 A301     		.uleb128 0xa3
 9477 0143 F3B10000 		.4byte	.LASF1014
 9478 0147 06       		.byte	0x6
 9479 0148 A501     		.uleb128 0xa5
 9480 014a D2520000 		.4byte	.LASF1015
 9481 014e 05       		.byte	0x5
 9482 014f A601     		.uleb128 0xa6
 9483 0151 A12C0000 		.4byte	.LASF1016
 9484 0155 06       		.byte	0x6
 9485 0156 A701     		.uleb128 0xa7
 9486 0158 62780000 		.4byte	.LASF1017
 9487 015c 05       		.byte	0x5
 9488 015d A801     		.uleb128 0xa8
 9489 015f EFF70000 		.4byte	.LASF1018
 9490 0163 06       		.byte	0x6
 9491 0164 A901     		.uleb128 0xa9
 9492 0166 2FAB0000 		.4byte	.LASF1019
 9493 016a 05       		.byte	0x5
 9494 016b AA01     		.uleb128 0xaa
 9495 016d 1A450000 		.4byte	.LASF1020
 9496 0171 06       		.byte	0x6
 9497 0172 AB01     		.uleb128 0xab
 9498 0174 5C430000 		.4byte	.LASF1021
 9499 0178 05       		.byte	0x5
 9500 0179 AC01     		.uleb128 0xac
 9501 017b 03FF0000 		.4byte	.LASF1022
 9502 017f 06       		.byte	0x6
 9503 0180 AD01     		.uleb128 0xad
 9504 0182 922C0000 		.4byte	.LASF1023
 9505 0186 05       		.byte	0x5
 9506 0187 AE01     		.uleb128 0xae
 9507 0189 23820000 		.4byte	.LASF1024
 9508 018d 06       		.byte	0x6
 9509 018e AF01     		.uleb128 0xaf
 9510 0190 BAE40000 		.4byte	.LASF1025
 9511 0194 05       		.byte	0x5
 9512 0195 B001     		.uleb128 0xb0
 9513 0197 1C060000 		.4byte	.LASF1026
 9514 019b 06       		.byte	0x6
 9515 019c B101     		.uleb128 0xb1
 9516 019e 27320000 		.4byte	.LASF1027
 9517 01a2 05       		.byte	0x5
ARM GAS  /tmp/cceVa9lb.s 			page 168


 9518 01a3 B201     		.uleb128 0xb2
 9519 01a5 99040100 		.4byte	.LASF1028
 9520 01a9 06       		.byte	0x6
 9521 01aa B301     		.uleb128 0xb3
 9522 01ac B9500000 		.4byte	.LASF1029
 9523 01b0 05       		.byte	0x5
 9524 01b1 B401     		.uleb128 0xb4
 9525 01b3 0DD40000 		.4byte	.LASF1030
 9526 01b7 06       		.byte	0x6
 9527 01b8 B501     		.uleb128 0xb5
 9528 01ba 8F010000 		.4byte	.LASF1031
 9529 01be 05       		.byte	0x5
 9530 01bf B601     		.uleb128 0xb6
 9531 01c1 97880000 		.4byte	.LASF1032
 9532 01c5 06       		.byte	0x6
 9533 01c6 B701     		.uleb128 0xb7
 9534 01c8 38360000 		.4byte	.LASF1033
 9535 01cc 05       		.byte	0x5
 9536 01cd B801     		.uleb128 0xb8
 9537 01cf 96130000 		.4byte	.LASF1034
 9538 01d3 06       		.byte	0x6
 9539 01d4 B901     		.uleb128 0xb9
 9540 01d6 77CB0000 		.4byte	.LASF1035
 9541 01da 05       		.byte	0x5
 9542 01db BA01     		.uleb128 0xba
 9543 01dd 49230000 		.4byte	.LASF1036
 9544 01e1 06       		.byte	0x6
 9545 01e2 BB01     		.uleb128 0xbb
 9546 01e4 09090000 		.4byte	.LASF1037
 9547 01e8 05       		.byte	0x5
 9548 01e9 BC01     		.uleb128 0xbc
 9549 01eb E6660000 		.4byte	.LASF1038
 9550 01ef 06       		.byte	0x6
 9551 01f0 BF01     		.uleb128 0xbf
 9552 01f2 02880000 		.4byte	.LASF1039
 9553 01f6 05       		.byte	0x5
 9554 01f7 C001     		.uleb128 0xc0
 9555 01f9 502C0000 		.4byte	.LASF1040
 9556 01fd 06       		.byte	0x6
 9557 01fe C101     		.uleb128 0xc1
 9558 0200 AEB30000 		.4byte	.LASF1041
 9559 0204 05       		.byte	0x5
 9560 0205 C201     		.uleb128 0xc2
 9561 0207 2F030000 		.4byte	.LASF1042
 9562 020b 06       		.byte	0x6
 9563 020c C501     		.uleb128 0xc5
 9564 020e 23380000 		.4byte	.LASF1043
 9565 0212 05       		.byte	0x5
 9566 0213 C601     		.uleb128 0xc6
 9567 0215 51E10000 		.4byte	.LASF1044
 9568 0219 06       		.byte	0x6
 9569 021a C901     		.uleb128 0xc9
 9570 021c EBFA0000 		.4byte	.LASF1045
 9571 0220 05       		.byte	0x5
 9572 0221 CA01     		.uleb128 0xca
 9573 0223 A5010100 		.4byte	.LASF1046
 9574 0227 06       		.byte	0x6
ARM GAS  /tmp/cceVa9lb.s 			page 169


 9575 0228 CB01     		.uleb128 0xcb
 9576 022a F08B0000 		.4byte	.LASF1047
 9577 022e 05       		.byte	0x5
 9578 022f CC01     		.uleb128 0xcc
 9579 0231 94160000 		.4byte	.LASF1048
 9580 0235 06       		.byte	0x6
 9581 0236 CD01     		.uleb128 0xcd
 9582 0238 5B180000 		.4byte	.LASF1049
 9583 023c 05       		.byte	0x5
 9584 023d CE01     		.uleb128 0xce
 9585 023f BB040100 		.4byte	.LASF1050
 9586 0243 06       		.byte	0x6
 9587 0244 D201     		.uleb128 0xd2
 9588 0246 DCB70000 		.4byte	.LASF1051
 9589 024a 05       		.byte	0x5
 9590 024b D301     		.uleb128 0xd3
 9591 024d 34580000 		.4byte	.LASF1052
 9592 0251 06       		.byte	0x6
 9593 0252 D401     		.uleb128 0xd4
 9594 0254 D7D20000 		.4byte	.LASF1053
 9595 0258 05       		.byte	0x5
 9596 0259 D501     		.uleb128 0xd5
 9597 025b 06BB0000 		.4byte	.LASF1054
 9598 025f 06       		.byte	0x6
 9599 0260 D701     		.uleb128 0xd7
 9600 0262 B6F40000 		.4byte	.LASF1055
 9601 0266 05       		.byte	0x5
 9602 0267 D801     		.uleb128 0xd8
 9603 0269 6E670000 		.4byte	.LASF1056
 9604 026d 06       		.byte	0x6
 9605 026e D901     		.uleb128 0xd9
 9606 0270 89110000 		.4byte	.LASF1057
 9607 0274 05       		.byte	0x5
 9608 0275 DA01     		.uleb128 0xda
 9609 0277 51EB0000 		.4byte	.LASF1058
 9610 027b 06       		.byte	0x6
 9611 027c DC01     		.uleb128 0xdc
 9612 027e 0D460000 		.4byte	.LASF1059
 9613 0282 05       		.byte	0x5
 9614 0283 DD01     		.uleb128 0xdd
 9615 0285 D3CA0000 		.4byte	.LASF1060
 9616 0289 06       		.byte	0x6
 9617 028a DF01     		.uleb128 0xdf
 9618 028c CBBF0000 		.4byte	.LASF1061
 9619 0290 05       		.byte	0x5
 9620 0291 E001     		.uleb128 0xe0
 9621 0293 45F50000 		.4byte	.LASF1062
 9622 0297 06       		.byte	0x6
 9623 0298 E101     		.uleb128 0xe1
 9624 029a 6B430000 		.4byte	.LASF1063
 9625 029e 05       		.byte	0x5
 9626 029f E201     		.uleb128 0xe2
 9627 02a1 56E00000 		.4byte	.LASF1064
 9628 02a5 06       		.byte	0x6
 9629 02a6 E401     		.uleb128 0xe4
 9630 02a8 1CF50000 		.4byte	.LASF1065
 9631 02ac 05       		.byte	0x5
ARM GAS  /tmp/cceVa9lb.s 			page 170


 9632 02ad E501     		.uleb128 0xe5
 9633 02af 758B0000 		.4byte	.LASF1066
 9634 02b3 06       		.byte	0x6
 9635 02b4 E601     		.uleb128 0xe6
 9636 02b6 DF800000 		.4byte	.LASF1067
 9637 02ba 05       		.byte	0x5
 9638 02bb E701     		.uleb128 0xe7
 9639 02bd 1DCC0000 		.4byte	.LASF1068
 9640 02c1 06       		.byte	0x6
 9641 02c2 EF01     		.uleb128 0xef
 9642 02c4 99D30000 		.4byte	.LASF1069
 9643 02c8 05       		.byte	0x5
 9644 02c9 F001     		.uleb128 0xf0
 9645 02cb 373B0000 		.4byte	.LASF1070
 9646 02cf 06       		.byte	0x6
 9647 02d0 F101     		.uleb128 0xf1
 9648 02d2 93ED0000 		.4byte	.LASF1071
 9649 02d6 05       		.byte	0x5
 9650 02d7 F201     		.uleb128 0xf2
 9651 02d9 18ED0000 		.4byte	.LASF1072
 9652 02dd 06       		.byte	0x6
 9653 02de F301     		.uleb128 0xf3
 9654 02e0 837B0000 		.4byte	.LASF1073
 9655 02e4 05       		.byte	0x5
 9656 02e5 F401     		.uleb128 0xf4
 9657 02e7 6AC40000 		.4byte	.LASF1074
 9658 02eb 06       		.byte	0x6
 9659 02ec F501     		.uleb128 0xf5
 9660 02ee 9E1D0000 		.4byte	.LASF1075
 9661 02f2 05       		.byte	0x5
 9662 02f3 F601     		.uleb128 0xf6
 9663 02f5 4BB80000 		.4byte	.LASF1076
 9664 02f9 06       		.byte	0x6
 9665 02fa F701     		.uleb128 0xf7
 9666 02fc ACAF0000 		.4byte	.LASF1077
 9667 0300 05       		.byte	0x5
 9668 0301 F801     		.uleb128 0xf8
 9669 0303 5BA10000 		.4byte	.LASF1078
 9670 0307 06       		.byte	0x6
 9671 0308 F901     		.uleb128 0xf9
 9672 030a F6FA0000 		.4byte	.LASF1079
 9673 030e 05       		.byte	0x5
 9674 030f FA01     		.uleb128 0xfa
 9675 0311 20000000 		.4byte	.LASF1080
 9676 0315 06       		.byte	0x6
 9677 0316 FB01     		.uleb128 0xfb
 9678 0318 E5880000 		.4byte	.LASF1081
 9679 031c 05       		.byte	0x5
 9680 031d FC01     		.uleb128 0xfc
 9681 031f AF6C0000 		.4byte	.LASF1082
 9682 0323 06       		.byte	0x6
 9683 0324 FD01     		.uleb128 0xfd
 9684 0326 5A2E0000 		.4byte	.LASF1083
 9685 032a 05       		.byte	0x5
 9686 032b FE01     		.uleb128 0xfe
 9687 032d DA280000 		.4byte	.LASF1084
 9688 0331 06       		.byte	0x6
ARM GAS  /tmp/cceVa9lb.s 			page 171


 9689 0332 FF01     		.uleb128 0xff
 9690 0334 007C0000 		.4byte	.LASF1085
 9691 0338 05       		.byte	0x5
 9692 0339 8002     		.uleb128 0x100
 9693 033b 5B8B0000 		.4byte	.LASF1086
 9694 033f 06       		.byte	0x6
 9695 0340 8102     		.uleb128 0x101
 9696 0342 BA690000 		.4byte	.LASF1087
 9697 0346 05       		.byte	0x5
 9698 0347 8202     		.uleb128 0x102
 9699 0349 F41F0000 		.4byte	.LASF1088
 9700 034d 00       		.byte	0
 9701              		.section	.debug_macro,"G",%progbits,wm4.inttypes.h.28.c5f35ffa6c62f217ce23d4796ab1c6e6,comdat
 9702              	.Ldebug_macro24:
 9703 0000 0400     		.2byte	0x4
 9704 0002 00       		.byte	0
 9705 0003 05       		.byte	0x5
 9706 0004 1C       		.uleb128 0x1c
 9707 0005 65880000 		.4byte	.LASF1090
 9708 0009 05       		.byte	0x5
 9709 000a 1F       		.uleb128 0x1f
 9710 000b 25F50000 		.4byte	.LASF1091
 9711 000f 05       		.byte	0x5
 9712 0010 20       		.uleb128 0x20
 9713 0011 D8F40000 		.4byte	.LASF1092
 9714 0015 05       		.byte	0x5
 9715 0016 21       		.uleb128 0x21
 9716 0017 D0000000 		.4byte	.LASF1093
 9717 001b 05       		.byte	0x5
 9718 001c 34       		.uleb128 0x34
 9719 001d 0E430000 		.4byte	.LASF1094
 9720 0021 05       		.byte	0x5
 9721 0022 35       		.uleb128 0x35
 9722 0023 2DD10000 		.4byte	.LASF1095
 9723 0027 05       		.byte	0x5
 9724 0028 36       		.uleb128 0x36
 9725 0029 1D180000 		.4byte	.LASF1096
 9726 002d 05       		.byte	0x5
 9727 002e 37       		.uleb128 0x37
 9728 002f 7F460000 		.4byte	.LASF1097
 9729 0033 05       		.byte	0x5
 9730 0034 38       		.uleb128 0x38
 9731 0035 76520000 		.4byte	.LASF1098
 9732 0039 05       		.byte	0x5
 9733 003a 39       		.uleb128 0x39
 9734 003b 33B10000 		.4byte	.LASF1099
 9735 003f 05       		.byte	0x5
 9736 0040 47       		.uleb128 0x47
 9737 0041 BDBB0000 		.4byte	.LASF1100
 9738 0045 05       		.byte	0x5
 9739 0046 48       		.uleb128 0x48
 9740 0047 3A590000 		.4byte	.LASF1101
 9741 004b 05       		.byte	0x5
 9742 004c 49       		.uleb128 0x49
 9743 004d 3E510000 		.4byte	.LASF1102
 9744 0051 05       		.byte	0x5
 9745 0052 4A       		.uleb128 0x4a
ARM GAS  /tmp/cceVa9lb.s 			page 172


 9746 0053 324B0000 		.4byte	.LASF1103
 9747 0057 05       		.byte	0x5
 9748 0058 4B       		.uleb128 0x4b
 9749 0059 92A50000 		.4byte	.LASF1104
 9750 005d 05       		.byte	0x5
 9751 005e 4C       		.uleb128 0x4c
 9752 005f 1EC80000 		.4byte	.LASF1105
 9753 0063 05       		.byte	0x5
 9754 0064 59       		.uleb128 0x59
 9755 0065 4AB20000 		.4byte	.LASF1106
 9756 0069 05       		.byte	0x5
 9757 006a 5A       		.uleb128 0x5a
 9758 006b CBFE0000 		.4byte	.LASF1107
 9759 006f 05       		.byte	0x5
 9760 0070 5B       		.uleb128 0x5b
 9761 0071 3EAB0000 		.4byte	.LASF1108
 9762 0075 05       		.byte	0x5
 9763 0076 5C       		.uleb128 0x5c
 9764 0077 67460000 		.4byte	.LASF1109
 9765 007b 05       		.byte	0x5
 9766 007c 5D       		.uleb128 0x5d
 9767 007d B0A30000 		.4byte	.LASF1110
 9768 0081 05       		.byte	0x5
 9769 0082 5E       		.uleb128 0x5e
 9770 0083 BA520000 		.4byte	.LASF1111
 9771 0087 05       		.byte	0x5
 9772 0088 6C       		.uleb128 0x6c
 9773 0089 8C800000 		.4byte	.LASF1112
 9774 008d 05       		.byte	0x5
 9775 008e 6D       		.uleb128 0x6d
 9776 008f 02B60000 		.4byte	.LASF1113
 9777 0093 05       		.byte	0x5
 9778 0094 6E       		.uleb128 0x6e
 9779 0095 FFAB0000 		.4byte	.LASF1114
 9780 0099 05       		.byte	0x5
 9781 009a 6F       		.uleb128 0x6f
 9782 009b 14E80000 		.4byte	.LASF1115
 9783 009f 05       		.byte	0x5
 9784 00a0 70       		.uleb128 0x70
 9785 00a1 9A950000 		.4byte	.LASF1116
 9786 00a5 05       		.byte	0x5
 9787 00a6 71       		.uleb128 0x71
 9788 00a7 CA1B0000 		.4byte	.LASF1117
 9789 00ab 05       		.byte	0x5
 9790 00ac 74       		.uleb128 0x74
 9791 00ad 55A70000 		.4byte	.LASF1118
 9792 00b1 05       		.byte	0x5
 9793 00b2 75       		.uleb128 0x75
 9794 00b3 57F00000 		.4byte	.LASF1119
 9795 00b7 05       		.byte	0x5
 9796 00b8 76       		.uleb128 0x76
 9797 00b9 38330000 		.4byte	.LASF1120
 9798 00bd 05       		.byte	0x5
 9799 00be 77       		.uleb128 0x77
 9800 00bf BCB10000 		.4byte	.LASF1121
 9801 00c3 05       		.byte	0x5
 9802 00c4 78       		.uleb128 0x78
ARM GAS  /tmp/cceVa9lb.s 			page 173


 9803 00c5 82280000 		.4byte	.LASF1122
 9804 00c9 05       		.byte	0x5
 9805 00ca 79       		.uleb128 0x79
 9806 00cb 042A0000 		.4byte	.LASF1123
 9807 00cf 05       		.byte	0x5
 9808 00d0 7B       		.uleb128 0x7b
 9809 00d1 0FF60000 		.4byte	.LASF1124
 9810 00d5 05       		.byte	0x5
 9811 00d6 7C       		.uleb128 0x7c
 9812 00d7 FA130000 		.4byte	.LASF1125
 9813 00db 05       		.byte	0x5
 9814 00dc 7D       		.uleb128 0x7d
 9815 00dd 44830000 		.4byte	.LASF1126
 9816 00e1 05       		.byte	0x5
 9817 00e2 7E       		.uleb128 0x7e
 9818 00e3 D8FC0000 		.4byte	.LASF1127
 9819 00e7 05       		.byte	0x5
 9820 00e8 7F       		.uleb128 0x7f
 9821 00e9 50780000 		.4byte	.LASF1128
 9822 00ed 05       		.byte	0x5
 9823 00ee 8201     		.uleb128 0x82
 9824 00f0 C2F00000 		.4byte	.LASF1129
 9825 00f4 05       		.byte	0x5
 9826 00f5 8301     		.uleb128 0x83
 9827 00f7 49140000 		.4byte	.LASF1130
 9828 00fb 05       		.byte	0x5
 9829 00fc 8401     		.uleb128 0x84
 9830 00fe 8BF70000 		.4byte	.LASF1131
 9831 0102 05       		.byte	0x5
 9832 0103 8501     		.uleb128 0x85
 9833 0105 08D80000 		.4byte	.LASF1132
 9834 0109 05       		.byte	0x5
 9835 010a 8601     		.uleb128 0x86
 9836 010c 267C0000 		.4byte	.LASF1133
 9837 0110 05       		.byte	0x5
 9838 0111 8701     		.uleb128 0x87
 9839 0113 28A60000 		.4byte	.LASF1134
 9840 0117 05       		.byte	0x5
 9841 0118 8901     		.uleb128 0x89
 9842 011a 765C0000 		.4byte	.LASF1135
 9843 011e 05       		.byte	0x5
 9844 011f 8A01     		.uleb128 0x8a
 9845 0121 B5ED0000 		.4byte	.LASF1136
 9846 0125 05       		.byte	0x5
 9847 0126 8B01     		.uleb128 0x8b
 9848 0128 3CD00000 		.4byte	.LASF1137
 9849 012c 05       		.byte	0x5
 9850 012d 8C01     		.uleb128 0x8c
 9851 012f 62B30000 		.4byte	.LASF1138
 9852 0133 05       		.byte	0x5
 9853 0134 8D01     		.uleb128 0x8d
 9854 0136 22E90000 		.4byte	.LASF1139
 9855 013a 05       		.byte	0x5
 9856 013b 9001     		.uleb128 0x90
 9857 013d EDA00000 		.4byte	.LASF1140
 9858 0141 05       		.byte	0x5
 9859 0142 9101     		.uleb128 0x91
ARM GAS  /tmp/cceVa9lb.s 			page 174


 9860 0144 07E00000 		.4byte	.LASF1141
 9861 0148 05       		.byte	0x5
 9862 0149 9201     		.uleb128 0x92
 9863 014b DCBE0000 		.4byte	.LASF1142
 9864 014f 05       		.byte	0x5
 9865 0150 9301     		.uleb128 0x93
 9866 0152 8A350000 		.4byte	.LASF1143
 9867 0156 05       		.byte	0x5
 9868 0157 9401     		.uleb128 0x94
 9869 0159 81010100 		.4byte	.LASF1144
 9870 015d 05       		.byte	0x5
 9871 015e 9501     		.uleb128 0x95
 9872 0160 7EB30000 		.4byte	.LASF1145
 9873 0164 05       		.byte	0x5
 9874 0165 9701     		.uleb128 0x97
 9875 0167 82CA0000 		.4byte	.LASF1146
 9876 016b 05       		.byte	0x5
 9877 016c 9801     		.uleb128 0x98
 9878 016e 7F040100 		.4byte	.LASF1147
 9879 0172 05       		.byte	0x5
 9880 0173 9901     		.uleb128 0x99
 9881 0175 CC660000 		.4byte	.LASF1148
 9882 0179 05       		.byte	0x5
 9883 017a 9A01     		.uleb128 0x9a
 9884 017c A95C0000 		.4byte	.LASF1149
 9885 0180 05       		.byte	0x5
 9886 0181 9B01     		.uleb128 0x9b
 9887 0183 12260000 		.4byte	.LASF1150
 9888 0187 05       		.byte	0x5
 9889 0188 9E01     		.uleb128 0x9e
 9890 018a 492F0000 		.4byte	.LASF1151
 9891 018e 05       		.byte	0x5
 9892 018f 9F01     		.uleb128 0x9f
 9893 0191 4D8C0000 		.4byte	.LASF1152
 9894 0195 05       		.byte	0x5
 9895 0196 A001     		.uleb128 0xa0
 9896 0198 E0640000 		.4byte	.LASF1153
 9897 019c 05       		.byte	0x5
 9898 019d A101     		.uleb128 0xa1
 9899 019f EA380000 		.4byte	.LASF1154
 9900 01a3 05       		.byte	0x5
 9901 01a4 A201     		.uleb128 0xa2
 9902 01a6 CED00000 		.4byte	.LASF1155
 9903 01aa 05       		.byte	0x5
 9904 01ab A301     		.uleb128 0xa3
 9905 01ad 860F0000 		.4byte	.LASF1156
 9906 01b1 05       		.byte	0x5
 9907 01b2 A501     		.uleb128 0xa5
 9908 01b4 08B80000 		.4byte	.LASF1157
 9909 01b8 05       		.byte	0x5
 9910 01b9 A601     		.uleb128 0xa6
 9911 01bb 64D30000 		.4byte	.LASF1158
 9912 01bf 05       		.byte	0x5
 9913 01c0 A701     		.uleb128 0xa7
 9914 01c2 AFB80000 		.4byte	.LASF1159
 9915 01c6 05       		.byte	0x5
 9916 01c7 A801     		.uleb128 0xa8
ARM GAS  /tmp/cceVa9lb.s 			page 175


 9917 01c9 85420000 		.4byte	.LASF1160
 9918 01cd 05       		.byte	0x5
 9919 01ce A901     		.uleb128 0xa9
 9920 01d0 7D330000 		.4byte	.LASF1161
 9921 01d4 05       		.byte	0x5
 9922 01d5 AA01     		.uleb128 0xaa
 9923 01d7 9BCD0000 		.4byte	.LASF1162
 9924 01db 05       		.byte	0x5
 9925 01dc AC01     		.uleb128 0xac
 9926 01de 25030100 		.4byte	.LASF1163
 9927 01e2 05       		.byte	0x5
 9928 01e3 AD01     		.uleb128 0xad
 9929 01e5 47C90000 		.4byte	.LASF1164
 9930 01e9 05       		.byte	0x5
 9931 01ea AE01     		.uleb128 0xae
 9932 01ec EB220000 		.4byte	.LASF1165
 9933 01f0 05       		.byte	0x5
 9934 01f1 AF01     		.uleb128 0xaf
 9935 01f3 B6930000 		.4byte	.LASF1166
 9936 01f7 05       		.byte	0x5
 9937 01f8 B001     		.uleb128 0xb0
 9938 01fa B9830000 		.4byte	.LASF1167
 9939 01fe 05       		.byte	0x5
 9940 01ff B301     		.uleb128 0xb3
 9941 0201 8B960000 		.4byte	.LASF1168
 9942 0205 05       		.byte	0x5
 9943 0206 B401     		.uleb128 0xb4
 9944 0208 8A840000 		.4byte	.LASF1169
 9945 020c 05       		.byte	0x5
 9946 020d B501     		.uleb128 0xb5
 9947 020f 07380000 		.4byte	.LASF1170
 9948 0213 05       		.byte	0x5
 9949 0214 B601     		.uleb128 0xb6
 9950 0216 B3450000 		.4byte	.LASF1171
 9951 021a 05       		.byte	0x5
 9952 021b B701     		.uleb128 0xb7
 9953 021d D37F0000 		.4byte	.LASF1172
 9954 0221 05       		.byte	0x5
 9955 0222 B801     		.uleb128 0xb8
 9956 0224 6BAD0000 		.4byte	.LASF1173
 9957 0228 05       		.byte	0x5
 9958 0229 BA01     		.uleb128 0xba
 9959 022b E2350000 		.4byte	.LASF1174
 9960 022f 05       		.byte	0x5
 9961 0230 BB01     		.uleb128 0xbb
 9962 0232 406F0000 		.4byte	.LASF1175
 9963 0236 05       		.byte	0x5
 9964 0237 BC01     		.uleb128 0xbc
 9965 0239 A0D20000 		.4byte	.LASF1176
 9966 023d 05       		.byte	0x5
 9967 023e BD01     		.uleb128 0xbd
 9968 0240 2FB80000 		.4byte	.LASF1177
 9969 0244 05       		.byte	0x5
 9970 0245 BE01     		.uleb128 0xbe
 9971 0247 E3500000 		.4byte	.LASF1178
 9972 024b 05       		.byte	0x5
 9973 024c C101     		.uleb128 0xc1
ARM GAS  /tmp/cceVa9lb.s 			page 176


 9974 024e 5C130000 		.4byte	.LASF1179
 9975 0252 05       		.byte	0x5
 9976 0253 C201     		.uleb128 0xc2
 9977 0255 934B0000 		.4byte	.LASF1180
 9978 0259 05       		.byte	0x5
 9979 025a C301     		.uleb128 0xc3
 9980 025c F8430000 		.4byte	.LASF1181
 9981 0260 05       		.byte	0x5
 9982 0261 C401     		.uleb128 0xc4
 9983 0263 2ABB0000 		.4byte	.LASF1182
 9984 0267 05       		.byte	0x5
 9985 0268 C501     		.uleb128 0xc5
 9986 026a 8B730000 		.4byte	.LASF1183
 9987 026e 05       		.byte	0x5
 9988 026f C601     		.uleb128 0xc6
 9989 0271 871F0000 		.4byte	.LASF1184
 9990 0275 05       		.byte	0x5
 9991 0276 C801     		.uleb128 0xc8
 9992 0278 79360000 		.4byte	.LASF1185
 9993 027c 05       		.byte	0x5
 9994 027d C901     		.uleb128 0xc9
 9995 027f 02760000 		.4byte	.LASF1186
 9996 0283 05       		.byte	0x5
 9997 0284 CA01     		.uleb128 0xca
 9998 0286 F26E0000 		.4byte	.LASF1187
 9999 028a 05       		.byte	0x5
 10000 028b CB01     		.uleb128 0xcb
 10001 028d 0AD60000 		.4byte	.LASF1188
 10002 0291 05       		.byte	0x5
 10003 0292 CC01     		.uleb128 0xcc
 10004 0294 D7A10000 		.4byte	.LASF1189
 10005 0298 05       		.byte	0x5
 10006 0299 D001     		.uleb128 0xd0
 10007 029b EC1D0000 		.4byte	.LASF1190
 10008 029f 05       		.byte	0x5
 10009 02a0 D101     		.uleb128 0xd1
 10010 02a2 E3F30000 		.4byte	.LASF1191
 10011 02a6 05       		.byte	0x5
 10012 02a7 D301     		.uleb128 0xd3
 10013 02a9 CA570000 		.4byte	.LASF1192
 10014 02ad 05       		.byte	0x5
 10015 02ae D401     		.uleb128 0xd4
 10016 02b0 52DA0000 		.4byte	.LASF1193
 10017 02b4 05       		.byte	0x5
 10018 02b5 D501     		.uleb128 0xd5
 10019 02b7 4BE80000 		.4byte	.LASF1194
 10020 02bb 05       		.byte	0x5
 10021 02bc D601     		.uleb128 0xd6
 10022 02be BC580000 		.4byte	.LASF1195
 10023 02c2 05       		.byte	0x5
 10024 02c3 8A02     		.uleb128 0x10a
 10025 02c5 E3FE0000 		.4byte	.LASF1196
 10026 02c9 05       		.byte	0x5
 10027 02ca 8B02     		.uleb128 0x10b
 10028 02cc 07A10000 		.4byte	.LASF1197
 10029 02d0 05       		.byte	0x5
 10030 02d1 9102     		.uleb128 0x111
ARM GAS  /tmp/cceVa9lb.s 			page 177


 10031 02d3 00000000 		.4byte	.LASF1198
 10032 02d7 05       		.byte	0x5
 10033 02d8 9202     		.uleb128 0x112
 10034 02da 69C30000 		.4byte	.LASF1199
 10035 02de 05       		.byte	0x5
 10036 02df 9302     		.uleb128 0x113
 10037 02e1 39AF0000 		.4byte	.LASF1200
 10038 02e5 05       		.byte	0x5
 10039 02e6 9402     		.uleb128 0x114
 10040 02e8 408F0000 		.4byte	.LASF1201
 10041 02ec 05       		.byte	0x5
 10042 02ed 9502     		.uleb128 0x115
 10043 02ef C34B0000 		.4byte	.LASF1202
 10044 02f3 05       		.byte	0x5
 10045 02f4 9602     		.uleb128 0x116
 10046 02f6 A3280000 		.4byte	.LASF1203
 10047 02fa 05       		.byte	0x5
 10048 02fb 9802     		.uleb128 0x118
 10049 02fd 50D30000 		.4byte	.LASF1204
 10050 0301 05       		.byte	0x5
 10051 0302 9902     		.uleb128 0x119
 10052 0304 CB830000 		.4byte	.LASF1205
 10053 0308 05       		.byte	0x5
 10054 0309 9A02     		.uleb128 0x11a
 10055 030b 5A670000 		.4byte	.LASF1206
 10056 030f 05       		.byte	0x5
 10057 0310 9B02     		.uleb128 0x11b
 10058 0312 CFF30000 		.4byte	.LASF1207
 10059 0316 05       		.byte	0x5
 10060 0317 9C02     		.uleb128 0x11c
 10061 0319 86190000 		.4byte	.LASF1208
 10062 031d 05       		.byte	0x5
 10063 031e A602     		.uleb128 0x126
 10064 0320 C68F0000 		.4byte	.LASF1209
 10065 0324 05       		.byte	0x5
 10066 0325 A702     		.uleb128 0x127
 10067 0327 FF050100 		.4byte	.LASF1210
 10068 032b 05       		.byte	0x5
 10069 032c AA02     		.uleb128 0x12a
 10070 032e 32C00000 		.4byte	.LASF1211
 10071 0332 05       		.byte	0x5
 10072 0333 AB02     		.uleb128 0x12b
 10073 0335 9B6C0000 		.4byte	.LASF1212
 10074 0339 05       		.byte	0x5
 10075 033a AC02     		.uleb128 0x12c
 10076 033c 20580000 		.4byte	.LASF1213
 10077 0340 05       		.byte	0x5
 10078 0341 AD02     		.uleb128 0x12d
 10079 0343 21420000 		.4byte	.LASF1214
 10080 0347 05       		.byte	0x5
 10081 0348 AE02     		.uleb128 0x12e
 10082 034a 57BD0000 		.4byte	.LASF1215
 10083 034e 05       		.byte	0x5
 10084 034f AF02     		.uleb128 0x12f
 10085 0351 CC490000 		.4byte	.LASF1216
 10086 0355 05       		.byte	0x5
 10087 0356 B102     		.uleb128 0x131
ARM GAS  /tmp/cceVa9lb.s 			page 178


 10088 0358 14810000 		.4byte	.LASF1217
 10089 035c 05       		.byte	0x5
 10090 035d B202     		.uleb128 0x132
 10091 035f 47360000 		.4byte	.LASF1218
 10092 0363 05       		.byte	0x5
 10093 0364 B302     		.uleb128 0x133
 10094 0366 6F260000 		.4byte	.LASF1219
 10095 036a 05       		.byte	0x5
 10096 036b B402     		.uleb128 0x134
 10097 036d 93120000 		.4byte	.LASF1220
 10098 0371 05       		.byte	0x5
 10099 0372 B502     		.uleb128 0x135
 10100 0374 FCE10000 		.4byte	.LASF1221
 10101 0378 00       		.byte	0
 10102              		.section	.debug_macro,"G",%progbits,wm4.stdbool.h.29.07dce69c3b78884144b7f7bd19483461,comdat
 10103              	.Ldebug_macro25:
 10104 0000 0400     		.2byte	0x4
 10105 0002 00       		.byte	0
 10106 0003 05       		.byte	0x5
 10107 0004 1D       		.uleb128 0x1d
 10108 0005 42110000 		.4byte	.LASF1222
 10109 0009 05       		.byte	0x5
 10110 000a 21       		.uleb128 0x21
 10111 000b 9E220000 		.4byte	.LASF1223
 10112 000f 05       		.byte	0x5
 10113 0010 22       		.uleb128 0x22
 10114 0011 63C40000 		.4byte	.LASF1224
 10115 0015 05       		.byte	0x5
 10116 0016 23       		.uleb128 0x23
 10117 0017 E8290000 		.4byte	.LASF1225
 10118 001b 05       		.byte	0x5
 10119 001c 34       		.uleb128 0x34
 10120 001d AA540000 		.4byte	.LASF1226
 10121 0021 00       		.byte	0
 10122              		.section	.debug_macro,"G",%progbits,wm4.math.h.13.3407b0d71b4c439015d8928b0a2edca3,comdat
 10123              	.Ldebug_macro26:
 10124 0000 0400     		.2byte	0x4
 10125 0002 00       		.byte	0
 10126 0003 05       		.byte	0x5
 10127 0004 0D       		.uleb128 0xd
 10128 0005 DC360000 		.4byte	.LASF1228
 10129 0009 05       		.byte	0x5
 10130 000a 13       		.uleb128 0x13
 10131 000b 76130000 		.4byte	.LASF1229
 10132 000f 05       		.byte	0x5
 10133 0010 17       		.uleb128 0x17
 10134 0011 A66D0000 		.4byte	.LASF1230
 10135 0015 05       		.byte	0x5
 10136 0016 1B       		.uleb128 0x1b
 10137 0017 73070000 		.4byte	.LASF1231
 10138 001b 05       		.byte	0x5
 10139 001c 1F       		.uleb128 0x1f
 10140 001d EEEC0000 		.4byte	.LASF1232
 10141 0021 05       		.byte	0x5
 10142 0022 23       		.uleb128 0x23
 10143 0023 76010000 		.4byte	.LASF1233
 10144 0027 05       		.byte	0x5
ARM GAS  /tmp/cceVa9lb.s 			page 179


 10145 0028 AB01     		.uleb128 0xab
 10146 002a D6C70000 		.4byte	.LASF1234
 10147 002e 05       		.byte	0x5
 10148 002f AC01     		.uleb128 0xac
 10149 0031 9E150000 		.4byte	.LASF1235
 10150 0035 05       		.byte	0x5
 10151 0036 AD01     		.uleb128 0xad
 10152 0038 229F0000 		.4byte	.LASF1236
 10153 003c 05       		.byte	0x5
 10154 003d AE01     		.uleb128 0xae
 10155 003f 47E00000 		.4byte	.LASF1237
 10156 0043 05       		.byte	0x5
 10157 0044 AF01     		.uleb128 0xaf
 10158 0046 04470000 		.4byte	.LASF1238
 10159 004a 05       		.byte	0x5
 10160 004b B201     		.uleb128 0xb2
 10161 004d D1140000 		.4byte	.LASF1239
 10162 0051 05       		.byte	0x5
 10163 0052 B501     		.uleb128 0xb5
 10164 0054 C9E30000 		.4byte	.LASF1240
 10165 0058 05       		.byte	0x5
 10166 0059 B901     		.uleb128 0xb9
 10167 005b 16460000 		.4byte	.LASF1241
 10168 005f 05       		.byte	0x5
 10169 0060 BC01     		.uleb128 0xbc
 10170 0062 92000000 		.4byte	.LASF1242
 10171 0066 05       		.byte	0x5
 10172 0067 BF01     		.uleb128 0xbf
 10173 0069 73CC0000 		.4byte	.LASF1243
 10174 006d 05       		.byte	0x5
 10175 006e D301     		.uleb128 0xd3
 10176 0070 52930000 		.4byte	.LASF1244
 10177 0074 05       		.byte	0x5
 10178 0075 D701     		.uleb128 0xd7
 10179 0077 2E300000 		.4byte	.LASF1245
 10180 007b 05       		.byte	0x5
 10181 007c DA01     		.uleb128 0xda
 10182 007e 13390000 		.4byte	.LASF1246
 10183 0082 05       		.byte	0x5
 10184 0083 DD01     		.uleb128 0xdd
 10185 0085 A07B0000 		.4byte	.LASF1247
 10186 0089 05       		.byte	0x5
 10187 008a DF01     		.uleb128 0xdf
 10188 008c E7980000 		.4byte	.LASF1248
 10189 0090 05       		.byte	0x5
 10190 0091 F401     		.uleb128 0xf4
 10191 0093 37A20000 		.4byte	.LASF1249
 10192 0097 05       		.byte	0x5
 10193 0098 8402     		.uleb128 0x104
 10194 009a E08A0000 		.4byte	.LASF1250
 10195 009e 05       		.byte	0x5
 10196 009f 8502     		.uleb128 0x105
 10197 00a1 6F050000 		.4byte	.LASF1251
 10198 00a5 05       		.byte	0x5
 10199 00a6 8602     		.uleb128 0x106
 10200 00a8 CCE80000 		.4byte	.LASF1252
 10201 00ac 05       		.byte	0x5
ARM GAS  /tmp/cceVa9lb.s 			page 180


 10202 00ad 8702     		.uleb128 0x107
 10203 00af 18FA0000 		.4byte	.LASF1253
 10204 00b3 05       		.byte	0x5
 10205 00b4 8802     		.uleb128 0x108
 10206 00b6 4A190000 		.4byte	.LASF1254
 10207 00ba 05       		.byte	0x5
 10208 00bb 8902     		.uleb128 0x109
 10209 00bd 69F00000 		.4byte	.LASF1255
 10210 00c1 05       		.byte	0x5
 10211 00c2 CD02     		.uleb128 0x14d
 10212 00c4 FA810000 		.4byte	.LASF1256
 10213 00c8 05       		.byte	0x5
 10214 00c9 B404     		.uleb128 0x234
 10215 00cb 474C0000 		.4byte	.LASF1257
 10216 00cf 05       		.byte	0x5
 10217 00d0 B804     		.uleb128 0x238
 10218 00d2 A51B0000 		.4byte	.LASF1258
 10219 00d6 05       		.byte	0x5
 10220 00d7 BF04     		.uleb128 0x23f
 10221 00d9 DA0E0000 		.4byte	.LASF1259
 10222 00dd 05       		.byte	0x5
 10223 00de C104     		.uleb128 0x241
 10224 00e0 27050100 		.4byte	.LASF1260
 10225 00e4 05       		.byte	0x5
 10226 00e5 C204     		.uleb128 0x242
 10227 00e7 3DD10000 		.4byte	.LASF1261
 10228 00eb 05       		.byte	0x5
 10229 00ec C304     		.uleb128 0x243
 10230 00ee 94C80000 		.4byte	.LASF1262
 10231 00f2 05       		.byte	0x5
 10232 00f3 C404     		.uleb128 0x244
 10233 00f5 B4C80000 		.4byte	.LASF1263
 10234 00f9 05       		.byte	0x5
 10235 00fa C504     		.uleb128 0x245
 10236 00fc 5B360000 		.4byte	.LASF1264
 10237 0100 05       		.byte	0x5
 10238 0101 C604     		.uleb128 0x246
 10239 0103 BFB50000 		.4byte	.LASF1265
 10240 0107 05       		.byte	0x5
 10241 0108 C704     		.uleb128 0x247
 10242 010a F6910000 		.4byte	.LASF1266
 10243 010e 05       		.byte	0x5
 10244 010f C804     		.uleb128 0x248
 10245 0111 92C00000 		.4byte	.LASF1267
 10246 0115 05       		.byte	0x5
 10247 0116 C904     		.uleb128 0x249
 10248 0118 EA140000 		.4byte	.LASF1268
 10249 011c 05       		.byte	0x5
 10250 011d CA04     		.uleb128 0x24a
 10251 011f 80B00000 		.4byte	.LASF1269
 10252 0123 05       		.byte	0x5
 10253 0124 CB04     		.uleb128 0x24b
 10254 0126 C4D70000 		.4byte	.LASF1270
 10255 012a 05       		.byte	0x5
 10256 012b CC04     		.uleb128 0x24c
 10257 012d 4D3B0000 		.4byte	.LASF1271
 10258 0131 05       		.byte	0x5
ARM GAS  /tmp/cceVa9lb.s 			page 181


 10259 0132 CD04     		.uleb128 0x24d
 10260 0134 2CF40000 		.4byte	.LASF1272
 10261 0138 05       		.byte	0x5
 10262 0139 D304     		.uleb128 0x253
 10263 013b 8F330000 		.4byte	.LASF1273
 10264 013f 05       		.byte	0x5
 10265 0140 D404     		.uleb128 0x254
 10266 0142 ACA50000 		.4byte	.LASF1274
 10267 0146 05       		.byte	0x5
 10268 0147 D504     		.uleb128 0x255
 10269 0149 E8900000 		.4byte	.LASF1275
 10270 014d 05       		.byte	0x5
 10271 014e D604     		.uleb128 0x256
 10272 0150 69AB0000 		.4byte	.LASF1276
 10273 0154 05       		.byte	0x5
 10274 0155 D704     		.uleb128 0x257
 10275 0157 019F0000 		.4byte	.LASF1277
 10276 015b 05       		.byte	0x5
 10277 015c D804     		.uleb128 0x258
 10278 015e 21EA0000 		.4byte	.LASF1278
 10279 0162 05       		.byte	0x5
 10280 0163 D904     		.uleb128 0x259
 10281 0165 26F90000 		.4byte	.LASF1279
 10282 0169 05       		.byte	0x5
 10283 016a DA04     		.uleb128 0x25a
 10284 016c 785B0000 		.4byte	.LASF1280
 10285 0170 05       		.byte	0x5
 10286 0171 DB04     		.uleb128 0x25b
 10287 0173 F24F0000 		.4byte	.LASF1281
 10288 0177 05       		.byte	0x5
 10289 0178 E504     		.uleb128 0x265
 10290 017a E5D30000 		.4byte	.LASF1282
 10291 017e 05       		.byte	0x5
 10292 017f E604     		.uleb128 0x266
 10293 0181 1AA40000 		.4byte	.LASF1283
 10294 0185 05       		.byte	0x5
 10295 0186 EA04     		.uleb128 0x26a
 10296 0188 BAF30000 		.4byte	.LASF1284
 10297 018c 05       		.byte	0x5
 10298 018d EB04     		.uleb128 0x26b
 10299 018f 24D60000 		.4byte	.LASF1285
 10300 0193 00       		.byte	0
 10301              		.section	.debug_macro,"G",%progbits,wm4.message_pragmas.h.2.19f9da639d3b857b5eedec0176791f43,comda
 10302              	.Ldebug_macro27:
 10303 0000 0400     		.2byte	0x4
 10304 0002 00       		.byte	0
 10305 0003 05       		.byte	0x5
 10306 0004 02       		.uleb128 0x2
 10307 0005 A3420000 		.4byte	.LASF1286
 10308 0009 05       		.byte	0x5
 10309 000a 05       		.uleb128 0x5
 10310 000b C3D10000 		.4byte	.LASF1287
 10311 000f 05       		.byte	0x5
 10312 0010 06       		.uleb128 0x6
 10313 0011 E25D0000 		.4byte	.LASF1288
 10314 0015 05       		.byte	0x5
 10315 0016 07       		.uleb128 0x7
ARM GAS  /tmp/cceVa9lb.s 			page 182


 10316 0017 2B040100 		.4byte	.LASF1289
 10317 001b 05       		.byte	0x5
 10318 001c 12       		.uleb128 0x12
 10319 001d CEB10000 		.4byte	.LASF1290
 10320 0021 05       		.byte	0x5
 10321 0022 13       		.uleb128 0x13
 10322 0023 E06A0000 		.4byte	.LASF1291
 10323 0027 05       		.byte	0x5
 10324 0028 14       		.uleb128 0x14
 10325 0029 3B390000 		.4byte	.LASF1292
 10326 002d 05       		.byte	0x5
 10327 002e 15       		.uleb128 0x15
 10328 002f F5170000 		.4byte	.LASF1293
 10329 0033 05       		.byte	0x5
 10330 0034 16       		.uleb128 0x16
 10331 0035 D1A30000 		.4byte	.LASF1294
 10332 0039 05       		.byte	0x5
 10333 003a 17       		.uleb128 0x17
 10334 003b 94F90000 		.4byte	.LASF1295
 10335 003f 05       		.byte	0x5
 10336 0040 20       		.uleb128 0x20
 10337 0041 50FA0000 		.4byte	.LASF1296
 10338 0045 05       		.byte	0x5
 10339 0046 21       		.uleb128 0x21
 10340 0047 6DCD0000 		.4byte	.LASF1297
 10341 004b 05       		.byte	0x5
 10342 004c 22       		.uleb128 0x22
 10343 004d 33CC0000 		.4byte	.LASF1298
 10344 0051 00       		.byte	0
 10345              		.section	.debug_macro,"G",%progbits,wm4.std.h.41.98eaba0fe9afe518eab028a73a8ce0e2,comdat
 10346              	.Ldebug_macro28:
 10347 0000 0400     		.2byte	0x4
 10348 0002 00       		.byte	0
 10349 0003 05       		.byte	0x5
 10350 0004 29       		.uleb128 0x29
 10351 0005 98F60000 		.4byte	.LASF1299
 10352 0009 05       		.byte	0x5
 10353 000a 2A       		.uleb128 0x2a
 10354 000b 256F0000 		.4byte	.LASF1300
 10355 000f 05       		.byte	0x5
 10356 0010 2C       		.uleb128 0x2c
 10357 0011 63050000 		.4byte	.LASF1301
 10358 0015 05       		.byte	0x5
 10359 0016 2F       		.uleb128 0x2f
 10360 0017 BA6A0000 		.4byte	.LASF1302
 10361 001b 05       		.byte	0x5
 10362 001c 32       		.uleb128 0x32
 10363 001d 29610000 		.4byte	.LASF1303
 10364 0021 05       		.byte	0x5
 10365 0022 4E       		.uleb128 0x4e
 10366 0023 9F770000 		.4byte	.LASF1304
 10367 0027 05       		.byte	0x5
 10368 0028 52       		.uleb128 0x52
 10369 0029 83F50000 		.4byte	.LASF1305
 10370 002d 05       		.byte	0x5
 10371 002e 55       		.uleb128 0x55
 10372 002f 55C00000 		.4byte	.LASF1306
ARM GAS  /tmp/cceVa9lb.s 			page 183


 10373 0033 05       		.byte	0x5
 10374 0034 56       		.uleb128 0x56
 10375 0035 35380000 		.4byte	.LASF1307
 10376 0039 05       		.byte	0x5
 10377 003a 59       		.uleb128 0x59
 10378 003b 36340000 		.4byte	.LASF1308
 10379 003f 05       		.byte	0x5
 10380 0040 5E       		.uleb128 0x5e
 10381 0041 3AF60000 		.4byte	.LASF1309
 10382 0045 05       		.byte	0x5
 10383 0046 63       		.uleb128 0x63
 10384 0047 361F0000 		.4byte	.LASF1310
 10385 004b 05       		.byte	0x5
 10386 004c 72       		.uleb128 0x72
 10387 004d 423C0000 		.4byte	.LASF1311
 10388 0051 05       		.byte	0x5
 10389 0052 73       		.uleb128 0x73
 10390 0053 C0770000 		.4byte	.LASF1312
 10391 0057 05       		.byte	0x5
 10392 0058 75       		.uleb128 0x75
 10393 0059 F23D0000 		.4byte	.LASF1313
 10394 005d 05       		.byte	0x5
 10395 005e 76       		.uleb128 0x76
 10396 005f 28810000 		.4byte	.LASF1314
 10397 0063 05       		.byte	0x5
 10398 0064 77       		.uleb128 0x77
 10399 0065 D7040100 		.4byte	.LASF1315
 10400 0069 05       		.byte	0x5
 10401 006a 78       		.uleb128 0x78
 10402 006b E8800000 		.4byte	.LASF1316
 10403 006f 05       		.byte	0x5
 10404 0070 7A       		.uleb128 0x7a
 10405 0071 AD170000 		.4byte	.LASF1317
 10406 0075 05       		.byte	0x5
 10407 0076 7B       		.uleb128 0x7b
 10408 0077 598E0000 		.4byte	.LASF1318
 10409 007b 05       		.byte	0x5
 10410 007c 7D       		.uleb128 0x7d
 10411 007d 16B50000 		.4byte	.LASF1319
 10412 0081 05       		.byte	0x5
 10413 0082 7E       		.uleb128 0x7e
 10414 0083 E3580000 		.4byte	.LASF1320
 10415 0087 05       		.byte	0x5
 10416 0088 7F       		.uleb128 0x7f
 10417 0089 CB130000 		.4byte	.LASF1321
 10418 008d 05       		.byte	0x5
 10419 008e 8001     		.uleb128 0x80
 10420 0090 F0E90000 		.4byte	.LASF1322
 10421 0094 05       		.byte	0x5
 10422 0095 8101     		.uleb128 0x81
 10423 0097 B8E10000 		.4byte	.LASF1323
 10424 009b 05       		.byte	0x5
 10425 009c 8201     		.uleb128 0x82
 10426 009e 88FD0000 		.4byte	.LASF1324
 10427 00a2 05       		.byte	0x5
 10428 00a3 8501     		.uleb128 0x85
 10429 00a5 C5220000 		.4byte	.LASF1325
ARM GAS  /tmp/cceVa9lb.s 			page 184


 10430 00a9 05       		.byte	0x5
 10431 00aa 8801     		.uleb128 0x88
 10432 00ac 6BBD0000 		.4byte	.LASF1326
 10433 00b0 05       		.byte	0x5
 10434 00b1 8B01     		.uleb128 0x8b
 10435 00b3 5F8A0000 		.4byte	.LASF1327
 10436 00b7 05       		.byte	0x5
 10437 00b8 8D01     		.uleb128 0x8d
 10438 00ba 4A0E0000 		.4byte	.LASF1328
 10439 00be 05       		.byte	0x5
 10440 00bf 9501     		.uleb128 0x95
 10441 00c1 24D80000 		.4byte	.LASF1329
 10442 00c5 05       		.byte	0x5
 10443 00c6 9B01     		.uleb128 0x9b
 10444 00c8 38C80000 		.4byte	.LASF1330
 10445 00cc 05       		.byte	0x5
 10446 00cd 9C01     		.uleb128 0x9c
 10447 00cf 46F90000 		.4byte	.LASF1331
 10448 00d3 05       		.byte	0x5
 10449 00d4 9D01     		.uleb128 0x9d
 10450 00d6 B6BE0000 		.4byte	.LASF1332
 10451 00da 05       		.byte	0x5
 10452 00db 9F01     		.uleb128 0x9f
 10453 00dd 06540000 		.4byte	.LASF1333
 10454 00e1 05       		.byte	0x5
 10455 00e2 A101     		.uleb128 0xa1
 10456 00e4 A6080000 		.4byte	.LASF1334
 10457 00e8 05       		.byte	0x5
 10458 00e9 AA01     		.uleb128 0xaa
 10459 00eb 3A880000 		.4byte	.LASF1335
 10460 00ef 05       		.byte	0x5
 10461 00f0 AC01     		.uleb128 0xac
 10462 00f2 26F20000 		.4byte	.LASF1336
 10463 00f6 05       		.byte	0x5
 10464 00f7 B501     		.uleb128 0xb5
 10465 00f9 B9B30000 		.4byte	.LASF1337
 10466 00fd 05       		.byte	0x5
 10467 00fe C401     		.uleb128 0xc4
 10468 0100 AFFD0000 		.4byte	.LASF1338
 10469 0104 05       		.byte	0x5
 10470 0105 DB01     		.uleb128 0xdb
 10471 0107 10200000 		.4byte	.LASF1339
 10472 010b 05       		.byte	0x5
 10473 010c 8D02     		.uleb128 0x10d
 10474 010e 83080000 		.4byte	.LASF1340
 10475 0112 05       		.byte	0x5
 10476 0113 8E02     		.uleb128 0x10e
 10477 0115 E2F90000 		.4byte	.LASF1341
 10478 0119 05       		.byte	0x5
 10479 011a 9502     		.uleb128 0x115
 10480 011c 43A90000 		.4byte	.LASF1342
 10481 0120 00       		.byte	0
 10482              		.section	.debug_macro,"G",%progbits,wm4.pprz_algebra.h.48.e27d96e216b5b7bc59138cb613a0c51a,comdat
 10483              	.Ldebug_macro29:
 10484 0000 0400     		.2byte	0x4
 10485 0002 00       		.byte	0
 10486 0003 05       		.byte	0x5
ARM GAS  /tmp/cceVa9lb.s 			page 185


 10487 0004 30       		.uleb128 0x30
 10488 0005 A57C0000 		.4byte	.LASF1343
 10489 0009 05       		.byte	0x5
 10490 000a 3E       		.uleb128 0x3e
 10491 000b AD070000 		.4byte	.LASF1344
 10492 000f 05       		.byte	0x5
 10493 0010 44       		.uleb128 0x44
 10494 0011 17720000 		.4byte	.LASF1345
 10495 0015 05       		.byte	0x5
 10496 0016 4A       		.uleb128 0x4a
 10497 0017 DD4C0000 		.4byte	.LASF1346
 10498 001b 05       		.byte	0x5
 10499 001c 50       		.uleb128 0x50
 10500 001d 0D480000 		.4byte	.LASF1347
 10501 0021 05       		.byte	0x5
 10502 0022 56       		.uleb128 0x56
 10503 0023 440C0000 		.4byte	.LASF1348
 10504 0027 05       		.byte	0x5
 10505 0028 5C       		.uleb128 0x5c
 10506 0029 8C620000 		.4byte	.LASF1349
 10507 002d 05       		.byte	0x5
 10508 002e 62       		.uleb128 0x62
 10509 002f 5EEA0000 		.4byte	.LASF1350
 10510 0033 05       		.byte	0x5
 10511 0034 68       		.uleb128 0x68
 10512 0035 8FCC0000 		.4byte	.LASF1351
 10513 0039 05       		.byte	0x5
 10514 003a 6E       		.uleb128 0x6e
 10515 003b 62BA0000 		.4byte	.LASF1352
 10516 003f 05       		.byte	0x5
 10517 0040 74       		.uleb128 0x74
 10518 0041 D5100000 		.4byte	.LASF1353
 10519 0045 05       		.byte	0x5
 10520 0046 76       		.uleb128 0x76
 10521 0047 22700000 		.4byte	.LASF1354
 10522 004b 05       		.byte	0x5
 10523 004c 7D       		.uleb128 0x7d
 10524 004d 7BA60000 		.4byte	.LASF1355
 10525 0051 05       		.byte	0x5
 10526 0052 8501     		.uleb128 0x85
 10527 0054 1E010000 		.4byte	.LASF1356
 10528 0058 05       		.byte	0x5
 10529 0059 8C01     		.uleb128 0x8c
 10530 005b B3E60000 		.4byte	.LASF1357
 10531 005f 05       		.byte	0x5
 10532 0060 9301     		.uleb128 0x93
 10533 0062 F2C80000 		.4byte	.LASF1358
 10534 0066 05       		.byte	0x5
 10535 0067 9A01     		.uleb128 0x9a
 10536 0069 FBF00000 		.4byte	.LASF1359
 10537 006d 05       		.byte	0x5
 10538 006e A101     		.uleb128 0xa1
 10539 0070 9E250000 		.4byte	.LASF1360
 10540 0074 05       		.byte	0x5
 10541 0075 A801     		.uleb128 0xa8
 10542 0077 2D5F0000 		.4byte	.LASF1361
 10543 007b 05       		.byte	0x5
ARM GAS  /tmp/cceVa9lb.s 			page 186


 10544 007c AF01     		.uleb128 0xaf
 10545 007e 70D90000 		.4byte	.LASF1362
 10546 0082 05       		.byte	0x5
 10547 0083 B601     		.uleb128 0xb6
 10548 0085 652A0000 		.4byte	.LASF1363
 10549 0089 05       		.byte	0x5
 10550 008a BD01     		.uleb128 0xbd
 10551 008c 4DF40000 		.4byte	.LASF1364
 10552 0090 05       		.byte	0x5
 10553 0091 C401     		.uleb128 0xc4
 10554 0093 504D0000 		.4byte	.LASF1365
 10555 0097 05       		.byte	0x5
 10556 0098 CB01     		.uleb128 0xcb
 10557 009a 20F80000 		.4byte	.LASF1366
 10558 009e 05       		.byte	0x5
 10559 009f D201     		.uleb128 0xd2
 10560 00a1 6B640000 		.4byte	.LASF1367
 10561 00a5 05       		.byte	0x5
 10562 00a6 D901     		.uleb128 0xd9
 10563 00a8 370B0000 		.4byte	.LASF1368
 10564 00ac 05       		.byte	0x5
 10565 00ad E001     		.uleb128 0xe0
 10566 00af A0BD0000 		.4byte	.LASF1369
 10567 00b3 05       		.byte	0x5
 10568 00b4 E701     		.uleb128 0xe7
 10569 00b6 EF230000 		.4byte	.LASF1370
 10570 00ba 05       		.byte	0x5
 10571 00bb EE01     		.uleb128 0xee
 10572 00bd 591C0000 		.4byte	.LASF1371
 10573 00c1 05       		.byte	0x5
 10574 00c2 F401     		.uleb128 0xf4
 10575 00c4 07FC0000 		.4byte	.LASF1372
 10576 00c8 05       		.byte	0x5
 10577 00c9 FA01     		.uleb128 0xfa
 10578 00cb E51E0000 		.4byte	.LASF1373
 10579 00cf 05       		.byte	0x5
 10580 00d0 FC01     		.uleb128 0xfc
 10581 00d2 C7FB0000 		.4byte	.LASF1374
 10582 00d6 05       		.byte	0x5
 10583 00d7 FE01     		.uleb128 0xfe
 10584 00d9 14970000 		.4byte	.LASF1375
 10585 00dd 05       		.byte	0x5
 10586 00de 8C02     		.uleb128 0x10c
 10587 00e0 914E0000 		.4byte	.LASF1376
 10588 00e4 05       		.byte	0x5
 10589 00e5 9202     		.uleb128 0x112
 10590 00e7 337F0000 		.4byte	.LASF1377
 10591 00eb 05       		.byte	0x5
 10592 00ec 9902     		.uleb128 0x119
 10593 00ee 6FC10000 		.4byte	.LASF1378
 10594 00f2 05       		.byte	0x5
 10595 00f3 A002     		.uleb128 0x120
 10596 00f5 A3EB0000 		.4byte	.LASF1379
 10597 00f9 05       		.byte	0x5
 10598 00fa A702     		.uleb128 0x127
 10599 00fc D5A20000 		.4byte	.LASF1380
 10600 0100 05       		.byte	0x5
ARM GAS  /tmp/cceVa9lb.s 			page 187


 10601 0101 AF02     		.uleb128 0x12f
 10602 0103 F5730000 		.4byte	.LASF1381
 10603 0107 05       		.byte	0x5
 10604 0108 B602     		.uleb128 0x136
 10605 010a B81C0000 		.4byte	.LASF1382
 10606 010e 05       		.byte	0x5
 10607 010f BD02     		.uleb128 0x13d
 10608 0111 19090000 		.4byte	.LASF1383
 10609 0115 05       		.byte	0x5
 10610 0116 CA02     		.uleb128 0x14a
 10611 0118 540D0000 		.4byte	.LASF1384
 10612 011c 05       		.byte	0x5
 10613 011d D102     		.uleb128 0x151
 10614 011f 25FF0000 		.4byte	.LASF1385
 10615 0123 05       		.byte	0x5
 10616 0124 D802     		.uleb128 0x158
 10617 0126 AD820000 		.4byte	.LASF1386
 10618 012a 05       		.byte	0x5
 10619 012b DF02     		.uleb128 0x15f
 10620 012d 5A1B0000 		.4byte	.LASF1387
 10621 0131 05       		.byte	0x5
 10622 0132 E602     		.uleb128 0x166
 10623 0134 A7470000 		.4byte	.LASF1388
 10624 0138 05       		.byte	0x5
 10625 0139 ED02     		.uleb128 0x16d
 10626 013b 6AF10000 		.4byte	.LASF1389
 10627 013f 05       		.byte	0x5
 10628 0140 F402     		.uleb128 0x174
 10629 0142 2C120000 		.4byte	.LASF1390
 10630 0146 05       		.byte	0x5
 10631 0147 FB02     		.uleb128 0x17b
 10632 0149 D8210000 		.4byte	.LASF1391
 10633 014d 05       		.byte	0x5
 10634 014e 8203     		.uleb128 0x182
 10635 0150 DDA60000 		.4byte	.LASF1392
 10636 0154 05       		.byte	0x5
 10637 0155 8903     		.uleb128 0x189
 10638 0157 F83E0000 		.4byte	.LASF1393
 10639 015b 05       		.byte	0x5
 10640 015c 9103     		.uleb128 0x191
 10641 015e 12440000 		.4byte	.LASF1394
 10642 0162 05       		.byte	0x5
 10643 0163 9703     		.uleb128 0x197
 10644 0165 77A90000 		.4byte	.LASF1395
 10645 0169 05       		.byte	0x5
 10646 016a 9D03     		.uleb128 0x19d
 10647 016c 10E20000 		.4byte	.LASF1396
 10648 0170 05       		.byte	0x5
 10649 0171 A303     		.uleb128 0x1a3
 10650 0173 E1D40000 		.4byte	.LASF1397
 10651 0177 05       		.byte	0x5
 10652 0178 B403     		.uleb128 0x1b4
 10653 017a AAC30000 		.4byte	.LASF1398
 10654 017e 05       		.byte	0x5
 10655 017f B603     		.uleb128 0x1b6
 10656 0181 78850000 		.4byte	.LASF1399
 10657 0185 05       		.byte	0x5
ARM GAS  /tmp/cceVa9lb.s 			page 188


 10658 0186 C203     		.uleb128 0x1c2
 10659 0188 B8DA0000 		.4byte	.LASF1400
 10660 018c 05       		.byte	0x5
 10661 018d CF03     		.uleb128 0x1cf
 10662 018f 4ECE0000 		.4byte	.LASF1401
 10663 0193 05       		.byte	0x5
 10664 0194 DC03     		.uleb128 0x1dc
 10665 0196 11650000 		.4byte	.LASF1402
 10666 019a 05       		.byte	0x5
 10667 019b E903     		.uleb128 0x1e9
 10668 019d 64990000 		.4byte	.LASF1403
 10669 01a1 05       		.byte	0x5
 10670 01a2 8204     		.uleb128 0x202
 10671 01a4 016A0000 		.4byte	.LASF1404
 10672 01a8 05       		.byte	0x5
 10673 01a9 8904     		.uleb128 0x209
 10674 01ab 67A70000 		.4byte	.LASF1405
 10675 01af 05       		.byte	0x5
 10676 01b0 9604     		.uleb128 0x216
 10677 01b2 1A060100 		.4byte	.LASF1406
 10678 01b6 05       		.byte	0x5
 10679 01b7 A304     		.uleb128 0x223
 10680 01b9 3DDD0000 		.4byte	.LASF1407
 10681 01bd 05       		.byte	0x5
 10682 01be B004     		.uleb128 0x230
 10683 01c0 5D030000 		.4byte	.LASF1408
 10684 01c4 05       		.byte	0x5
 10685 01c5 C404     		.uleb128 0x244
 10686 01c7 02BA0000 		.4byte	.LASF1409
 10687 01cb 05       		.byte	0x5
 10688 01cc CC04     		.uleb128 0x24c
 10689 01ce 9C0A0000 		.4byte	.LASF1410
 10690 01d2 05       		.byte	0x5
 10691 01d3 D404     		.uleb128 0x254
 10692 01d5 143E0000 		.4byte	.LASF1411
 10693 01d9 05       		.byte	0x5
 10694 01da DB04     		.uleb128 0x25b
 10695 01dc BACB0000 		.4byte	.LASF1412
 10696 01e0 05       		.byte	0x5
 10697 01e1 E304     		.uleb128 0x263
 10698 01e3 6EE00000 		.4byte	.LASF1413
 10699 01e7 05       		.byte	0x5
 10700 01e8 EB04     		.uleb128 0x26b
 10701 01ea 57300000 		.4byte	.LASF1414
 10702 01ee 05       		.byte	0x5
 10703 01ef F304     		.uleb128 0x273
 10704 01f1 9DAE0000 		.4byte	.LASF1415
 10705 01f5 05       		.byte	0x5
 10706 01f6 FB04     		.uleb128 0x27b
 10707 01f8 75510000 		.4byte	.LASF1416
 10708 01fc 05       		.byte	0x5
 10709 01fd 8205     		.uleb128 0x282
 10710 01ff 73920000 		.4byte	.LASF1417
 10711 0203 05       		.byte	0x5
 10712 0204 8A05     		.uleb128 0x28a
 10713 0206 A4330000 		.4byte	.LASF1418
 10714 020a 05       		.byte	0x5
ARM GAS  /tmp/cceVa9lb.s 			page 189


 10715 020b 9405     		.uleb128 0x294
 10716 020d 8B8B0000 		.4byte	.LASF1419
 10717 0211 05       		.byte	0x5
 10718 0212 9705     		.uleb128 0x297
 10719 0214 86D60000 		.4byte	.LASF1420
 10720 0218 05       		.byte	0x5
 10721 0219 9A05     		.uleb128 0x29a
 10722 021b D2010100 		.4byte	.LASF1421
 10723 021f 05       		.byte	0x5
 10724 0220 A705     		.uleb128 0x2a7
 10725 0222 CA540000 		.4byte	.LASF1422
 10726 0226 05       		.byte	0x5
 10727 0227 B305     		.uleb128 0x2b3
 10728 0229 48790000 		.4byte	.LASF1423
 10729 022d 05       		.byte	0x5
 10730 022e C005     		.uleb128 0x2c0
 10731 0230 645D0000 		.4byte	.LASF1424
 10732 0234 05       		.byte	0x5
 10733 0235 C505     		.uleb128 0x2c5
 10734 0237 10570000 		.4byte	.LASF1425
 10735 023b 05       		.byte	0x5
 10736 023c CB05     		.uleb128 0x2cb
 10737 023e FB360000 		.4byte	.LASF1426
 10738 0242 05       		.byte	0x5
 10739 0243 D105     		.uleb128 0x2d1
 10740 0245 04C60000 		.4byte	.LASF1427
 10741 0249 05       		.byte	0x5
 10742 024a DD05     		.uleb128 0x2dd
 10743 024c EF930000 		.4byte	.LASF1428
 10744 0250 05       		.byte	0x5
 10745 0251 E905     		.uleb128 0x2e9
 10746 0253 DD2C0000 		.4byte	.LASF1429
 10747 0257 05       		.byte	0x5
 10748 0258 F005     		.uleb128 0x2f0
 10749 025a 554A0000 		.4byte	.LASF1430
 10750 025e 05       		.byte	0x5
 10751 025f F705     		.uleb128 0x2f7
 10752 0261 D1740000 		.4byte	.LASF1431
 10753 0265 05       		.byte	0x5
 10754 0266 FD05     		.uleb128 0x2fd
 10755 0268 60D50000 		.4byte	.LASF1432
 10756 026c 05       		.byte	0x5
 10757 026d 8306     		.uleb128 0x303
 10758 026f 5BEC0000 		.4byte	.LASF1433
 10759 0273 05       		.byte	0x5
 10760 0274 8906     		.uleb128 0x309
 10761 0276 54590000 		.4byte	.LASF1434
 10762 027a 05       		.byte	0x5
 10763 027b 8F06     		.uleb128 0x30f
 10764 027d 48910000 		.4byte	.LASF1435
 10765 0281 05       		.byte	0x5
 10766 0282 9506     		.uleb128 0x315
 10767 0284 01890000 		.4byte	.LASF1436
 10768 0288 05       		.byte	0x5
 10769 0289 9B06     		.uleb128 0x31b
 10770 028b AC150000 		.4byte	.LASF1437
 10771 028f 05       		.byte	0x5
ARM GAS  /tmp/cceVa9lb.s 			page 190


 10772 0290 A106     		.uleb128 0x321
 10773 0292 B70F0000 		.4byte	.LASF1438
 10774 0296 05       		.byte	0x5
 10775 0297 A706     		.uleb128 0x327
 10776 0299 E26B0000 		.4byte	.LASF1439
 10777 029d 05       		.byte	0x5
 10778 029e AD06     		.uleb128 0x32d
 10779 02a0 F4610000 		.4byte	.LASF1440
 10780 02a4 00       		.byte	0
 10781              		.section	.debug_macro,"G",%progbits,wm4.pprz_algebra_float.h.99.3ecbbede49507432559ec22e1139225e,c
 10782              	.Ldebug_macro30:
 10783 0000 0400     		.2byte	0x4
 10784 0002 00       		.byte	0
 10785 0003 05       		.byte	0x5
 10786 0004 63       		.uleb128 0x63
 10787 0005 827D0000 		.4byte	.LASF1442
 10788 0009 05       		.byte	0x5
 10789 000a 8101     		.uleb128 0x81
 10790 000c 14110000 		.4byte	.LASF1443
 10791 0010 05       		.byte	0x5
 10792 0011 8401     		.uleb128 0x84
 10793 0013 6E230000 		.4byte	.LASF1444
 10794 0017 05       		.byte	0x5
 10795 0018 9A01     		.uleb128 0x9a
 10796 001a 5B000000 		.4byte	.LASF1445
 10797 001e 05       		.byte	0x5
 10798 001f A101     		.uleb128 0xa1
 10799 0021 E18F0000 		.4byte	.LASF1446
 10800 0025 05       		.byte	0x5
 10801 0026 A401     		.uleb128 0xa4
 10802 0028 BE960000 		.4byte	.LASF1447
 10803 002c 05       		.byte	0x5
 10804 002d BB01     		.uleb128 0xbb
 10805 002f 5E4C0000 		.4byte	.LASF1448
 10806 0033 05       		.byte	0x5
 10807 0034 BF01     		.uleb128 0xbf
 10808 0036 002F0000 		.4byte	.LASF1449
 10809 003a 05       		.byte	0x5
 10810 003b C301     		.uleb128 0xc3
 10811 003d BB370000 		.4byte	.LASF1450
 10812 0041 05       		.byte	0x5
 10813 0042 C501     		.uleb128 0xc5
 10814 0044 766F0000 		.4byte	.LASF1451
 10815 0048 05       		.byte	0x5
 10816 0049 D601     		.uleb128 0xd6
 10817 004b 60480000 		.4byte	.LASF1452
 10818 004f 05       		.byte	0x5
 10819 0050 D701     		.uleb128 0xd7
 10820 0052 0E1E0000 		.4byte	.LASF1453
 10821 0056 05       		.byte	0x5
 10822 0057 D801     		.uleb128 0xd8
 10823 0059 523A0000 		.4byte	.LASF1454
 10824 005d 05       		.byte	0x5
 10825 005e DE01     		.uleb128 0xde
 10826 0060 E0520000 		.4byte	.LASF1455
 10827 0064 05       		.byte	0x5
 10828 0065 EA01     		.uleb128 0xea
ARM GAS  /tmp/cceVa9lb.s 			page 191


 10829 0067 23400000 		.4byte	.LASF1456
 10830 006b 05       		.byte	0x5
 10831 006c CD02     		.uleb128 0x14d
 10832 006e 926E0000 		.4byte	.LASF1457
 10833 0072 05       		.byte	0x5
 10834 0073 D502     		.uleb128 0x155
 10835 0075 2C9F0000 		.4byte	.LASF1458
 10836 0079 05       		.byte	0x5
 10837 007a D602     		.uleb128 0x156
 10838 007c 632E0000 		.4byte	.LASF1459
 10839 0080 05       		.byte	0x5
 10840 0081 D702     		.uleb128 0x157
 10841 0083 CBC10000 		.4byte	.LASF1460
 10842 0087 05       		.byte	0x5
 10843 0088 D802     		.uleb128 0x158
 10844 008a A31A0000 		.4byte	.LASF1461
 10845 008e 05       		.byte	0x5
 10846 008f D902     		.uleb128 0x159
 10847 0091 5D050100 		.4byte	.LASF1462
 10848 0095 05       		.byte	0x5
 10849 0096 DA02     		.uleb128 0x15a
 10850 0098 B4EE0000 		.4byte	.LASF1463
 10851 009c 05       		.byte	0x5
 10852 009d DB02     		.uleb128 0x15b
 10853 009f 0BBF0000 		.4byte	.LASF1464
 10854 00a3 05       		.byte	0x5
 10855 00a4 DC02     		.uleb128 0x15c
 10856 00a6 0EFB0000 		.4byte	.LASF1465
 10857 00aa 05       		.byte	0x5
 10858 00ab DD02     		.uleb128 0x15d
 10859 00ad 2BB60000 		.4byte	.LASF1466
 10860 00b1 05       		.byte	0x5
 10861 00b2 DE02     		.uleb128 0x15e
 10862 00b4 F2ED0000 		.4byte	.LASF1467
 10863 00b8 05       		.byte	0x5
 10864 00b9 DF02     		.uleb128 0x15f
 10865 00bb 13500000 		.4byte	.LASF1468
 10866 00bf 05       		.byte	0x5
 10867 00c0 E002     		.uleb128 0x160
 10868 00c2 3E600000 		.4byte	.LASF1469
 10869 00c6 05       		.byte	0x5
 10870 00c7 E102     		.uleb128 0x161
 10871 00c9 A7120000 		.4byte	.LASF1470
 10872 00cd 05       		.byte	0x5
 10873 00ce E202     		.uleb128 0x162
 10874 00d0 25E70000 		.4byte	.LASF1471
 10875 00d4 05       		.byte	0x5
 10876 00d5 F502     		.uleb128 0x175
 10877 00d7 207E0000 		.4byte	.LASF1472
 10878 00db 05       		.byte	0x5
 10879 00dc 9303     		.uleb128 0x193
 10880 00de 253D0000 		.4byte	.LASF1473
 10881 00e2 05       		.byte	0x5
 10882 00e3 E903     		.uleb128 0x1e9
 10883 00e5 75430000 		.4byte	.LASF1474
 10884 00e9 05       		.byte	0x5
 10885 00ea EA03     		.uleb128 0x1ea
ARM GAS  /tmp/cceVa9lb.s 			page 192


 10886 00ec E3340000 		.4byte	.LASF1475
 10887 00f0 05       		.byte	0x5
 10888 00f1 EB03     		.uleb128 0x1eb
 10889 00f3 13900000 		.4byte	.LASF1476
 10890 00f7 05       		.byte	0x5
 10891 00f8 EC03     		.uleb128 0x1ec
 10892 00fa F9840000 		.4byte	.LASF1477
 10893 00fe 05       		.byte	0x5
 10894 00ff ED03     		.uleb128 0x1ed
 10895 0101 BE190000 		.4byte	.LASF1478
 10896 0105 05       		.byte	0x5
 10897 0106 EE03     		.uleb128 0x1ee
 10898 0108 CC630000 		.4byte	.LASF1479
 10899 010c 05       		.byte	0x5
 10900 010d EF03     		.uleb128 0x1ef
 10901 010f D0C00000 		.4byte	.LASF1480
 10902 0113 05       		.byte	0x5
 10903 0114 F003     		.uleb128 0x1f0
 10904 0116 6E5A0000 		.4byte	.LASF1481
 10905 011a 05       		.byte	0x5
 10906 011b F103     		.uleb128 0x1f1
 10907 011d C86D0000 		.4byte	.LASF1482
 10908 0121 05       		.byte	0x5
 10909 0122 F203     		.uleb128 0x1f2
 10910 0124 505E0000 		.4byte	.LASF1483
 10911 0128 05       		.byte	0x5
 10912 0129 F303     		.uleb128 0x1f3
 10913 012b 9EA40000 		.4byte	.LASF1484
 10914 012f 05       		.byte	0x5
 10915 0130 F403     		.uleb128 0x1f4
 10916 0132 96AC0000 		.4byte	.LASF1485
 10917 0136 05       		.byte	0x5
 10918 0137 F503     		.uleb128 0x1f5
 10919 0139 9AB20000 		.4byte	.LASF1486
 10920 013d 05       		.byte	0x5
 10921 013e F603     		.uleb128 0x1f6
 10922 0140 212B0000 		.4byte	.LASF1487
 10923 0144 05       		.byte	0x5
 10924 0145 F703     		.uleb128 0x1f7
 10925 0147 70060000 		.4byte	.LASF1488
 10926 014b 05       		.byte	0x5
 10927 014c F803     		.uleb128 0x1f8
 10928 014e F4280000 		.4byte	.LASF1489
 10929 0152 05       		.byte	0x5
 10930 0153 F903     		.uleb128 0x1f9
 10931 0155 ED010000 		.4byte	.LASF1490
 10932 0159 05       		.byte	0x5
 10933 015a FA03     		.uleb128 0x1fa
 10934 015c 82C40000 		.4byte	.LASF1491
 10935 0160 05       		.byte	0x5
 10936 0161 FB03     		.uleb128 0x1fb
 10937 0163 05270000 		.4byte	.LASF1492
 10938 0167 05       		.byte	0x5
 10939 0168 FC03     		.uleb128 0x1fc
 10940 016a 9E5B0000 		.4byte	.LASF1493
 10941 016e 05       		.byte	0x5
 10942 016f FD03     		.uleb128 0x1fd
ARM GAS  /tmp/cceVa9lb.s 			page 193


 10943 0171 93890000 		.4byte	.LASF1494
 10944 0175 05       		.byte	0x5
 10945 0176 8704     		.uleb128 0x207
 10946 0178 F06C0000 		.4byte	.LASF1495
 10947 017c 05       		.byte	0x5
 10948 017d 9304     		.uleb128 0x213
 10949 017f 87700000 		.4byte	.LASF1496
 10950 0183 05       		.byte	0x5
 10951 0184 9404     		.uleb128 0x214
 10952 0186 6BEF0000 		.4byte	.LASF1497
 10953 018a 05       		.byte	0x5
 10954 018b 9504     		.uleb128 0x215
 10955 018d 82710000 		.4byte	.LASF1498
 10956 0191 05       		.byte	0x5
 10957 0192 FE04     		.uleb128 0x27e
 10958 0194 5F610000 		.4byte	.LASF1499
 10959 0198 00       		.byte	0
 10960              		.section	.debug_macro,"G",%progbits,wm4.pprz_algebra_double.h.91.f156fcde81a326cb905c59ecc1b4b11d,
 10961              	.Ldebug_macro31:
 10962 0000 0400     		.2byte	0x4
 10963 0002 00       		.byte	0
 10964 0003 05       		.byte	0x5
 10965 0004 5B       		.uleb128 0x5b
 10966 0005 5F4F0000 		.4byte	.LASF1500
 10967 0009 05       		.byte	0x5
 10968 000a 5E       		.uleb128 0x5e
 10969 000b FA000100 		.4byte	.LASF1501
 10970 000f 05       		.byte	0x5
 10971 0010 C901     		.uleb128 0xc9
 10972 0012 8A390000 		.4byte	.LASF1502
 10973 0016 05       		.byte	0x5
 10974 0017 CA01     		.uleb128 0xca
 10975 0019 36320000 		.4byte	.LASF1503
 10976 001d 05       		.byte	0x5
 10977 001e CB01     		.uleb128 0xcb
 10978 0020 1EB70000 		.4byte	.LASF1504
 10979 0024 05       		.byte	0x5
 10980 0025 CC01     		.uleb128 0xcc
 10981 0027 D3760000 		.4byte	.LASF1505
 10982 002b 05       		.byte	0x5
 10983 002c CD01     		.uleb128 0xcd
 10984 002e C4970000 		.4byte	.LASF1506
 10985 0032 00       		.byte	0
 10986              		.section	.debug_macro,"G",%progbits,wm4.pprz_geodetic_utm.h.31.75931423081a7967d00585c8ad115843,co
 10987              	.Ldebug_macro32:
 10988 0000 0400     		.2byte	0x4
 10989 0002 00       		.byte	0
 10990 0003 05       		.byte	0x5
 10991 0004 1F       		.uleb128 0x1f
 10992 0005 32E50000 		.4byte	.LASF1507
 10993 0009 05       		.byte	0x5
 10994 000a 28       		.uleb128 0x28
 10995 000b FD450000 		.4byte	.LASF1508
 10996 000f 05       		.byte	0x5
 10997 0010 29       		.uleb128 0x29
 10998 0011 8D880000 		.4byte	.LASF1509
 10999 0015 05       		.byte	0x5
ARM GAS  /tmp/cceVa9lb.s 			page 194


 11000 0016 2A       		.uleb128 0x2a
 11001 0017 344C0000 		.4byte	.LASF1510
 11002 001b 05       		.byte	0x5
 11003 001c 2B       		.uleb128 0x2b
 11004 001d D3350000 		.4byte	.LASF1511
 11005 0021 05       		.byte	0x5
 11006 0022 2C       		.uleb128 0x2c
 11007 0023 D6E10000 		.4byte	.LASF1512
 11008 0027 05       		.byte	0x5
 11009 0028 2D       		.uleb128 0x2d
 11010 0029 A6B50000 		.4byte	.LASF1513
 11011 002d 05       		.byte	0x5
 11012 002e 2F       		.uleb128 0x2f
 11013 002f 4C420000 		.4byte	.LASF1514
 11014 0033 05       		.byte	0x5
 11015 0034 30       		.uleb128 0x30
 11016 0035 E4600000 		.4byte	.LASF1515
 11017 0039 05       		.byte	0x5
 11018 003a 31       		.uleb128 0x31
 11019 003b C8AF0000 		.4byte	.LASF1516
 11020 003f 00       		.byte	0
 11021              		.section	.debug_line,"",%progbits
 11022              	.Ldebug_line0:
 11023 0000 3A080000 		.section	.debug_str,"MS",%progbits,1
 11023      03009802 
 11023      00000201 
 11023      FB0E0D00 
 11023      01010101 
 11024              	.LASF1198:
 11025 0000 50524964 		.ascii	"PRIdMAX __PRIMAX(d)\000"
 11025      4D415820 
 11025      5F5F5052 
 11025      494D4158 
 11025      28642900 
 11026              	.LASF405:
 11027 0014 5F5F7468 		.ascii	"__thumb__ 1\000"
 11027      756D625F 
 11027      5F203100 
 11028              	.LASF1080:
 11029 0020 55494E54 		.ascii	"UINT16_C(c) __UINT16_C(c)\000"
 11029      31365F43 
 11029      28632920 
 11029      5F5F5549 
 11029      4E543136 
 11030              	.LASF293:
 11031 003a 5F5F5541 		.ascii	"__UACCUM_FBIT__ 16\000"
 11031      4343554D 
 11031      5F464249 
 11031      545F5F20 
 11031      313600
 11032              	.LASF403:
 11033 004d 5F5F4150 		.ascii	"__APCS_32__ 1\000"
 11033      43535F33 
 11033      325F5F20 
 11033      3100
 11034              	.LASF1445:
 11035 005b 464C4F41 		.ascii	"FLOAT_VECT2_NORMALIZE(_v) float_vect2_normalize(&(_"
ARM GAS  /tmp/cceVa9lb.s 			page 195


 11035      545F5645 
 11035      4354325F 
 11035      4E4F524D 
 11035      414C495A 
 11036 008e 76292900 		.ascii	"v))\000"
 11037              	.LASF1242:
 11038 0092 4D415448 		.ascii	"MATH_ERREXCEPT 2\000"
 11038      5F455252 
 11038      45584345 
 11038      50542032 
 11038      00
 11039              	.LASF30:
 11040 00a3 5F5F464C 		.ascii	"__FLOAT_WORD_ORDER__ __ORDER_LITTLE_ENDIAN__\000"
 11040      4F41545F 
 11040      574F5244 
 11040      5F4F5244 
 11040      45525F5F 
 11041              	.LASF1093:
 11042 00d0 5F5F5052 		.ascii	"__PRI8FAST(x) __FAST8 __STRINGIFY(x)\000"
 11042      49384641 
 11042      53542878 
 11042      29205F5F 
 11042      46415354 
 11043              	.LASF153:
 11044 00f5 5F5F464C 		.ascii	"__FLT_NORM_MAX__ 3.4028234663852886e+38F\000"
 11044      545F4E4F 
 11044      524D5F4D 
 11044      41585F5F 
 11044      20332E34 
 11045              	.LASF1356:
 11046 011e 56454354 		.ascii	"VECT3_ASSIGN_ABS(_a,_x,_y,_z) { (_a).x = ABS(_x); ("
 11046      335F4153 
 11046      5349474E 
 11046      5F414253 
 11046      285F612C 
 11047 0151 5F61292E 		.ascii	"_a).y = ABS(_y); (_a).z = ABS(_z); }\000"
 11047      79203D20 
 11047      41425328 
 11047      5F79293B 
 11047      20285F61 
 11048              	.LASF1233:
 11049 0176 4E414E20 		.ascii	"NAN (__builtin_nanf(\"\"))\000"
 11049      285F5F62 
 11049      75696C74 
 11049      696E5F6E 
 11049      616E6628 
 11050              	.LASF1031:
 11051 018f 55494E54 		.ascii	"UINT_FAST32_MAX\000"
 11051      5F464153 
 11051      5433325F 
 11051      4D415800 
 11052              	.LASF435:
 11053 019f 5F5F4152 		.ascii	"__ARM_FEATURE_MATMUL_INT8\000"
 11053      4D5F4645 
 11053      41545552 
 11053      455F4D41 
 11053      544D554C 
ARM GAS  /tmp/cceVa9lb.s 			page 196


 11054              	.LASF796:
 11055 01b9 5F524545 		.ascii	"_REENT_L64A_BUF(ptr) ((ptr)->_new._reent._l64a_buf)"
 11055      4E545F4C 
 11055      3634415F 
 11055      42554628 
 11055      70747229 
 11056 01ec 00       		.ascii	"\000"
 11057              	.LASF1490:
 11058 01ed 464C4F41 		.ascii	"FLOAT_QUAT_DERIVATIVE_LAGRANGE(_qd,_r,_q) WARNING(\""
 11058      545F5155 
 11058      41545F44 
 11058      45524956 
 11058      41544956 
 11059 0220 464C4F41 		.ascii	"FLOAT_QUAT_DERIVATIVE_LAGRANGE macro is deprecated,"
 11059      545F5155 
 11059      41545F44 
 11059      45524956 
 11059      41544956 
 11060 0253 20757365 		.ascii	" use the lower case function instead\") float_quat_"
 11060      20746865 
 11060      206C6F77 
 11060      65722063 
 11060      61736520 
 11061 0285 64657269 		.ascii	"derivative_lagrange(&(_qd), &(_r), &(_q))\000"
 11061      76617469 
 11061      76655F6C 
 11061      61677261 
 11061      6E676528 
 11062              	.LASF193:
 11063 02af 5F5F464C 		.ascii	"__FLT32_DIG__ 6\000"
 11063      5433325F 
 11063      4449475F 
 11063      5F203600 
 11064              	.LASF171:
 11065 02bf 5F5F4442 		.ascii	"__DBL_EPSILON__ ((double)2.2204460492503131e-16L)\000"
 11065      4C5F4550 
 11065      53494C4F 
 11065      4E5F5F20 
 11065      2828646F 
 11066              	.LASF230:
 11067 02f1 5F5F464C 		.ascii	"__FLT32X_MAX__ 1.7976931348623157e+308F32x\000"
 11067      54333258 
 11067      5F4D4158 
 11067      5F5F2031 
 11067      2E373937 
 11068              	.LASF294:
 11069 031c 5F5F5541 		.ascii	"__UACCUM_IBIT__ 16\000"
 11069      4343554D 
 11069      5F494249 
 11069      545F5F20 
 11069      313600
 11070              	.LASF1042:
 11071 032f 494E5450 		.ascii	"INTPTR_MIN (-INTPTR_MAX - 1)\000"
 11071      54525F4D 
 11071      494E2028 
 11071      2D494E54 
 11071      5054525F 
ARM GAS  /tmp/cceVa9lb.s 			page 197


 11072              	.LASF636:
 11073 034c 5F5F4D49 		.ascii	"__MISC_VISIBLE 1\000"
 11073      53435F56 
 11073      49534942 
 11073      4C452031 
 11073      00
 11074              	.LASF1408:
 11075 035d 4D415433 		.ascii	"MAT33_TRANS(_mat1,_mat2) { MAT33_ELMT((_mat1),0,0) "
 11075      335F5452 
 11075      414E5328 
 11075      5F6D6174 
 11075      312C5F6D 
 11076 0390 3D204D41 		.ascii	"= MAT33_ELMT((_mat2),0,0); MAT33_ELMT((_mat1),0,1) "
 11076      5433335F 
 11076      454C4D54 
 11076      28285F6D 
 11076      61743229 
 11077 03c3 3D204D41 		.ascii	"= MAT33_ELMT((_mat2),1,0); MAT33_ELMT((_mat1),0,2) "
 11077      5433335F 
 11077      454C4D54 
 11077      28285F6D 
 11077      61743229 
 11078 03f6 3D204D41 		.ascii	"= MAT33_ELMT((_mat2),2,0); MAT33_ELMT((_mat1),1,0) "
 11078      5433335F 
 11078      454C4D54 
 11078      28285F6D 
 11078      61743229 
 11079 0429 3D204D41 		.ascii	"= MAT33_ELMT((_mat2),0,1); MAT33_ELMT((_mat1),1,1) "
 11079      5433335F 
 11079      454C4D54 
 11079      28285F6D 
 11079      61743229 
 11080 045c 3D204D41 		.ascii	"= MAT33_ELMT((_mat2),1,1); MAT33_ELMT((_mat1),1,2) "
 11080      5433335F 
 11080      454C4D54 
 11080      28285F6D 
 11080      61743229 
 11081 048f 3D204D41 		.ascii	"= MAT33_ELMT((_mat2),2,1); MAT33_ELMT((_mat1),2,0) "
 11081      5433335F 
 11081      454C4D54 
 11081      28285F6D 
 11081      61743229 
 11082 04c2 3D204D41 		.ascii	"= MAT33_ELMT((_mat2),0,2); MAT33_ELMT((_mat1),2,1) "
 11082      5433335F 
 11082      454C4D54 
 11082      28285F6D 
 11082      61743229 
 11083 04f5 3D204D41 		.ascii	"= MAT33_ELMT((_mat2),1,2); MAT33_ELMT((_mat1),2,2) "
 11083      5433335F 
 11083      454C4D54 
 11083      28285F6D 
 11083      61743229 
 11084 0528 3D204D41 		.ascii	"= MAT33_ELMT((_mat2),2,2); }\000"
 11084      5433335F 
 11084      454C4D54 
 11084      28285F6D 
 11084      61743229 
ARM GAS  /tmp/cceVa9lb.s 			page 198


 11085              	.LASF126:
 11086 0545 5F5F494E 		.ascii	"__INT_FAST16_MAX__ 0x7fffffff\000"
 11086      545F4641 
 11086      53543136 
 11086      5F4D4158 
 11086      5F5F2030 
 11087              	.LASF1301:
 11088 0563 50545228 		.ascii	"PTR(_f) &_f\000"
 11088      5F662920 
 11088      265F6600 
 11089              	.LASF1251:
 11090 056f 69736772 		.ascii	"isgreaterequal(__x,__y) (__builtin_isgreaterequal ("
 11090      65617465 
 11090      72657175 
 11090      616C285F 
 11090      5F782C5F 
 11091 05a2 5F5F782C 		.ascii	"__x, __y))\000"
 11091      205F5F79 
 11091      292900
 11092              	.LASF533:
 11093 05ad 464C545F 		.ascii	"FLT_RADIX\000"
 11093      52414449 
 11093      5800
 11094              	.LASF768:
 11095 05b7 5F524545 		.ascii	"_REENT_CHECK_RAND48(ptr) \000"
 11095      4E545F43 
 11095      4845434B 
 11095      5F52414E 
 11095      44343828 
 11096              	.LASF208:
 11097 05d1 5F5F464C 		.ascii	"__FLT64_MANT_DIG__ 53\000"
 11097      5436345F 
 11097      4D414E54 
 11097      5F444947 
 11097      5F5F2035 
 11098              	.LASF1001:
 11099 05e7 55494E54 		.ascii	"UINT_LEAST16_MAX\000"
 11099      5F4C4541 
 11099      53543136 
 11099      5F4D4158 
 11099      00
 11100              	.LASF996:
 11101 05f8 55494E54 		.ascii	"UINT_LEAST8_MAX __UINT_LEAST8_MAX__\000"
 11101      5F4C4541 
 11101      5354385F 
 11101      4D415820 
 11101      5F5F5549 
 11102              	.LASF1026:
 11103 061c 55494E54 		.ascii	"UINT_FAST16_MAX __UINT_FAST16_MAX__\000"
 11103      5F464153 
 11103      5431365F 
 11103      4D415820 
 11103      5F5F5549 
 11104              	.LASF712:
 11105 0640 5F57494E 		.ascii	"_WINT_T \000"
 11105      545F5420 
 11105      00
ARM GAS  /tmp/cceVa9lb.s 			page 199


 11106              	.LASF1000:
 11107 0649 494E545F 		.ascii	"INT_LEAST16_MIN (-INT_LEAST16_MAX - 1)\000"
 11107      4C454153 
 11107      5431365F 
 11107      4D494E20 
 11107      282D494E 
 11108              	.LASF1488:
 11109 0670 464C4F41 		.ascii	"FLOAT_QUAT_VMULT(v_out,q,v_in) WARNING(\"FLOAT_QUAT"
 11109      545F5155 
 11109      41545F56 
 11109      4D554C54 
 11109      28765F6F 
 11110 06a2 5F564D55 		.ascii	"_VMULT macro is deprecated, use the lower case func"
 11110      4C54206D 
 11110      6163726F 
 11110      20697320 
 11110      64657072 
 11111 06d5 74696F6E 		.ascii	"tion instead\") float_quat_vmult(&(v_out), &(q), &("
 11111      20696E73 
 11111      74656164 
 11111      22292066 
 11111      6C6F6174 
 11112 0707 765F696E 		.ascii	"v_in))\000"
 11112      292900
 11113              	.LASF556:
 11114 070e 464C545F 		.ascii	"FLT_MIN_10_EXP __FLT_MIN_10_EXP__\000"
 11114      4D494E5F 
 11114      31305F45 
 11114      5850205F 
 11114      5F464C54 
 11115              	.LASF771:
 11116 0730 5F524545 		.ascii	"_REENT_CHECK_ASCTIME_BUF(ptr) \000"
 11116      4E545F43 
 11116      4845434B 
 11116      5F415343 
 11116      54494D45 
 11117              	.LASF999:
 11118 074f 494E545F 		.ascii	"INT_LEAST16_MIN\000"
 11118      4C454153 
 11118      5431365F 
 11118      4D494E00 
 11119              	.LASF1574:
 11120 075f 656E755F 		.ascii	"enu_of_ecef_point_d\000"
 11120      6F665F65 
 11120      6365665F 
 11120      706F696E 
 11120      745F6400 
 11121              	.LASF1231:
 11122 0773 48554745 		.ascii	"HUGE_VALL (__builtin_huge_vall())\000"
 11122      5F56414C 
 11122      4C20285F 
 11122      5F627569 
 11122      6C74696E 
 11123              	.LASF731:
 11124 0795 5F434C4F 		.ascii	"_CLOCK_T_ unsigned long\000"
 11124      434B5F54 
 11124      5F20756E 
ARM GAS  /tmp/cceVa9lb.s 			page 200


 11124      7369676E 
 11124      6564206C 
 11125              	.LASF1344:
 11126 07ad 56454354 		.ascii	"VECT2_ASSIGN(_a,_x,_y) { (_a).x = (_x); (_a).y = (_"
 11126      325F4153 
 11126      5349474E 
 11126      285F612C 
 11126      5F782C5F 
 11127 07e0 79293B20 		.ascii	"y); }\000"
 11127      7D00
 11128              	.LASF717:
 11129 07e6 5F5F6861 		.ascii	"__have_longlong64 1\000"
 11129      76655F6C 
 11129      6F6E676C 
 11129      6F6E6736 
 11129      34203100 
 11130              	.LASF77:
 11131 07fa 5F5F5054 		.ascii	"__PTRDIFF_MAX__ 0x7fffffff\000"
 11131      52444946 
 11131      465F4D41 
 11131      585F5F20 
 11131      30783766 
 11132              	.LASF698:
 11133 0815 5F574348 		.ascii	"_WCHAR_T_H \000"
 11133      41525F54 
 11133      5F482000 
 11134              	.LASF988:
 11135 0821 494E5436 		.ascii	"INT64_MIN (-INT64_MAX - 1)\000"
 11135      345F4D49 
 11135      4E20282D 
 11135      494E5436 
 11135      345F4D41 
 11136              	.LASF829:
 11137 083c 5F5F474E 		.ascii	"__GNUCLIKE_BUILTIN_CONSTANT_P 1\000"
 11137      55434C49 
 11137      4B455F42 
 11137      55494C54 
 11137      494E5F43 
 11138              	.LASF211:
 11139 085c 5F5F464C 		.ascii	"__FLT64_MIN_10_EXP__ (-307)\000"
 11139      5436345F 
 11139      4D494E5F 
 11139      31305F45 
 11139      58505F5F 
 11140              	.LASF589:
 11141 0878 464C545F 		.ascii	"FLT_ROUNDS\000"
 11141      524F554E 
 11141      445300
 11142              	.LASF1340:
 11143 0883 554E5553 		.ascii	"UNUSED __attribute__((__unused__))\000"
 11143      4544205F 
 11143      5F617474 
 11143      72696275 
 11143      74655F5F 
 11144              	.LASF1334:
 11145 08a6 44656164 		.ascii	"DeadBand(_x,_v) { if (_x > (_v)) _x = _x -(_v); els"
 11145      42616E64 
ARM GAS  /tmp/cceVa9lb.s 			page 201


 11145      285F782C 
 11145      5F762920 
 11145      7B206966 
 11146 08d9 65206966 		.ascii	"e if (_x < -(_v)) _x = _x +(_v); else _x = 0; }\000"
 11146      20285F78 
 11146      203C202D 
 11146      285F7629 
 11146      29205F78 
 11147              	.LASF1037:
 11148 0909 55494E54 		.ascii	"UINT_FAST64_MAX\000"
 11148      5F464153 
 11148      5436345F 
 11148      4D415800 
 11149              	.LASF1383:
 11150 0919 45554C45 		.ascii	"EULERS_BOUND_CUBE(_v,_min,_max) { (_v).phi = (_v).p"
 11150      52535F42 
 11150      4F554E44 
 11150      5F435542 
 11150      45285F76 
 11151 094c 6869203C 		.ascii	"hi < (_min) ? (_min) : (_v).phi > (_max) ? (_max) :"
 11151      20285F6D 
 11151      696E2920 
 11151      3F20285F 
 11151      6D696E29 
 11152 097f 20285F76 		.ascii	" (_v).phi; (_v).theta = (_v).theta < (_min) ? (_min"
 11152      292E7068 
 11152      693B2028 
 11152      5F76292E 
 11152      74686574 
 11153 09b2 29203A20 		.ascii	") : (_v).theta > (_max) ? (_max) : (_v).theta; (_v)"
 11153      285F7629 
 11153      2E746865 
 11153      7461203E 
 11153      20285F6D 
 11154 09e5 2E707369 		.ascii	".psi = (_v).psi < (_min) ? (_min) : (_v).psi > (_ma"
 11154      203D2028 
 11154      5F76292E 
 11154      70736920 
 11154      3C20285F 
 11155 0a18 7829203F 		.ascii	"x) ? (_max) : (_v).psi; }\000"
 11155      20285F6D 
 11155      61782920 
 11155      3A20285F 
 11155      76292E70 
 11156              	.LASF890:
 11157 0a32 5F5F7072 		.ascii	"__printflike(fmtarg,firstvararg) __attribute__((__f"
 11157      696E7466 
 11157      6C696B65 
 11157      28666D74 
 11157      6172672C 
 11158 0a65 6F726D61 		.ascii	"ormat__ (__printf__, fmtarg, firstvararg)))\000"
 11158      745F5F20 
 11158      285F5F70 
 11158      72696E74 
 11158      665F5F2C 
 11159              	.LASF0:
 11160 0a91 5F5F5354 		.ascii	"__STDC__ 1\000"
ARM GAS  /tmp/cceVa9lb.s 			page 202


 11160      44435F5F 
 11160      203100
 11161              	.LASF1410:
 11162 0a9c 51554154 		.ascii	"QUAT_DIFF(_qc,_qa,_qb) { (_qc).qi = (_qa).qi - (_qb"
 11162      5F444946 
 11162      46285F71 
 11162      632C5F71 
 11162      612C5F71 
 11163 0acf 292E7169 		.ascii	").qi; (_qc).qx = (_qa).qx - (_qb).qx; (_qc).qy = (_"
 11163      3B20285F 
 11163      7163292E 
 11163      7178203D 
 11163      20285F71 
 11164 0b02 7161292E 		.ascii	"qa).qy - (_qb).qy; (_qc).qz = (_qa).qz - (_qb).qz; "
 11164      7179202D 
 11164      20285F71 
 11164      62292E71 
 11164      793B2028 
 11165 0b35 7D00     		.ascii	"}\000"
 11166              	.LASF1368:
 11167 0b37 56454354 		.ascii	"VECT3_EW_MUL(_vo,_va,_vb) { (_vo).x = (_va).x * (_v"
 11167      335F4557 
 11167      5F4D554C 
 11167      285F766F 
 11167      2C5F7661 
 11168 0b6a 62292E78 		.ascii	"b).x; (_vo).y = (_va).y * (_vb).y; (_vo).z = (_va)."
 11168      3B20285F 
 11168      766F292E 
 11168      79203D20 
 11168      285F7661 
 11169 0b9d 7A202A20 		.ascii	"z * (_vb).z; }\000"
 11169      285F7662 
 11169      292E7A3B 
 11169      207D00
 11170              	.LASF911:
 11171 0bac 5F4E756C 		.ascii	"_Null_unspecified \000"
 11171      6C5F756E 
 11171      73706563 
 11171      69666965 
 11171      642000
 11172              	.LASF274:
 11173 0bbf 5F5F554C 		.ascii	"__ULLFRACT_IBIT__ 0\000"
 11173      4C465241 
 11173      43545F49 
 11173      4249545F 
 11173      5F203000 
 11174              	.LASF647:
 11175 0bd3 5F524541 		.ascii	"_READ_WRITE_BUFSIZE_TYPE int\000"
 11175      445F5752 
 11175      4954455F 
 11175      42554653 
 11175      495A455F 
 11176              	.LASF29:
 11177 0bf0 5F5F4259 		.ascii	"__BYTE_ORDER__ __ORDER_LITTLE_ENDIAN__\000"
 11177      54455F4F 
 11177      52444552 
 11177      5F5F205F 
ARM GAS  /tmp/cceVa9lb.s 			page 203


 11177      5F4F5244 
 11178              	.LASF541:
 11179 0c17 464C545F 		.ascii	"FLT_DIG\000"
 11179      44494700 
 11180              	.LASF196:
 11181 0c1f 5F5F464C 		.ascii	"__FLT32_MAX_EXP__ 128\000"
 11181      5433325F 
 11181      4D41585F 
 11181      4558505F 
 11181      5F203132 
 11182              	.LASF340:
 11183 0c35 5F5F5341 		.ascii	"__SA_FBIT__ 15\000"
 11183      5F464249 
 11183      545F5F20 
 11183      313500
 11184              	.LASF1348:
 11185 0c44 56454354 		.ascii	"VECT2_SUM(_c,_a,_b) { (_c).x = (_a).x + (_b).x; (_c"
 11185      325F5355 
 11185      4D285F63 
 11185      2C5F612C 
 11185      5F622920 
 11186 0c77 292E7920 		.ascii	").y = (_a).y + (_b).y; }\000"
 11186      3D20285F 
 11186      61292E79 
 11186      202B2028 
 11186      5F62292E 
 11187              	.LASF311:
 11188 0c90 5F5F4C4C 		.ascii	"__LLACCUM_MAX__ 0X7FFFFFFFFFFFFFFFP-31LLK\000"
 11188      41434355 
 11188      4D5F4D41 
 11188      585F5F20 
 11188      30583746 
 11189              	.LASF350:
 11190 0cba 5F5F5544 		.ascii	"__UDA_FBIT__ 32\000"
 11190      415F4642 
 11190      49545F5F 
 11190      20333200 
 11191              	.LASF455:
 11192 0cca 43485F44 		.ascii	"CH_DBG_ENABLE_STACK_CHECK TRUE\000"
 11192      42475F45 
 11192      4E41424C 
 11192      455F5354 
 11192      41434B5F 
 11193              	.LASF290:
 11194 0ce9 5F5F4143 		.ascii	"__ACCUM_MIN__ (-0X1P15K-0X1P15K)\000"
 11194      43554D5F 
 11194      4D494E5F 
 11194      5F20282D 
 11194      30583150 
 11195              	.LASF697:
 11196 0d0a 5F574348 		.ascii	"_WCHAR_T_DEFINED \000"
 11196      41525F54 
 11196      5F444546 
 11196      494E4544 
 11196      2000
 11197              	.LASF519:
 11198 0d1c 5050525A 		.ascii	"PPRZ_GEODETIC_H \000"
ARM GAS  /tmp/cceVa9lb.s 			page 204


 11198      5F47454F 
 11198      44455449 
 11198      435F4820 
 11198      00
 11199              	.LASF48:
 11200 0d2d 5F5F5549 		.ascii	"__UINT64_TYPE__ long long unsigned int\000"
 11200      4E543634 
 11200      5F545950 
 11200      455F5F20 
 11200      6C6F6E67 
 11201              	.LASF1384:
 11202 0d54 52415445 		.ascii	"RATES_ASSIGN(_ra,_p,_q,_r) { (_ra).p = (_p); (_ra)."
 11202      535F4153 
 11202      5349474E 
 11202      285F7261 
 11202      2C5F702C 
 11203 0d87 71203D20 		.ascii	"q = (_q); (_ra).r = (_r); }\000"
 11203      285F7129 
 11203      3B20285F 
 11203      7261292E 
 11203      72203D20 
 11204              	.LASF166:
 11205 0da3 5F5F4442 		.ascii	"__DBL_MAX_10_EXP__ 308\000"
 11205      4C5F4D41 
 11205      585F3130 
 11205      5F455850 
 11205      5F5F2033 
 11206              	.LASF1005:
 11207 0dba 494E545F 		.ascii	"INT_LEAST32_MIN\000"
 11207      4C454153 
 11207      5433325F 
 11207      4D494E00 
 11208              	.LASF135:
 11209 0dca 5F5F5549 		.ascii	"__UINT_FAST64_MAX__ 0xffffffffffffffffULL\000"
 11209      4E545F46 
 11209      41535436 
 11209      345F4D41 
 11209      585F5F20 
 11210              	.LASF429:
 11211 0df4 5F5F4152 		.ascii	"__ARM_FEATURE_IDIV 1\000"
 11211      4D5F4645 
 11211      41545552 
 11211      455F4944 
 11211      49562031 
 11212              	.LASF34:
 11213 0e09 5F5F5743 		.ascii	"__WCHAR_TYPE__ unsigned int\000"
 11213      4841525F 
 11213      54595045 
 11213      5F5F2075 
 11213      6E736967 
 11214              	.LASF825:
 11215 0e25 5F5F474E 		.ascii	"__GNUCLIKE___TYPEOF 1\000"
 11215      55434C49 
 11215      4B455F5F 
 11215      5F545950 
 11215      454F4620 
 11216              	.LASF341:
ARM GAS  /tmp/cceVa9lb.s 			page 205


 11217 0e3b 5F5F5341 		.ascii	"__SA_IBIT__ 16\000"
 11217      5F494249 
 11217      545F5F20 
 11217      313600
 11218              	.LASF1328:
 11219 0e4a 426F756E 		.ascii	"BoundInverted(_x,_min,_max) { if ((_x < (_min)) && "
 11219      64496E76 
 11219      65727465 
 11219      64285F78 
 11219      2C5F6D69 
 11220 0e7d 285F7820 		.ascii	"(_x > (_max))) { if (abs(_x - (_min)) < abs(_x - (_"
 11220      3E20285F 
 11220      6D617829 
 11220      2929207B 
 11220      20696620 
 11221 0eb0 6D617829 		.ascii	"max))) _x = (_min); else _x = (_max); } }\000"
 11221      2929205F 
 11221      78203D20 
 11221      285F6D69 
 11221      6E293B20 
 11222              	.LASF1259:
 11223 0eda 4D415846 		.ascii	"MAXFLOAT 3.40282347e+38F\000"
 11223      4C4F4154 
 11223      20332E34 
 11223      30323832 
 11223      33343765 
 11224              	.LASF351:
 11225 0ef3 5F5F5544 		.ascii	"__UDA_IBIT__ 32\000"
 11225      415F4942 
 11225      49545F5F 
 11225      20333200 
 11226              	.LASF791:
 11227 0f03 5F524545 		.ascii	"_REENT_MBRLEN_STATE(ptr) ((ptr)->_new._reent._mbrle"
 11227      4E545F4D 
 11227      42524C45 
 11227      4E5F5354 
 11227      41544528 
 11228 0f36 6E5F7374 		.ascii	"n_state)\000"
 11228      61746529 
 11228      00
 11229              	.LASF440:
 11230 0f3f 5F5F454C 		.ascii	"__ELF__ 1\000"
 11230      465F5F20 
 11230      3100
 11231              	.LASF17:
 11232 0f49 5F5F5349 		.ascii	"__SIZEOF_LONG__ 4\000"
 11232      5A454F46 
 11232      5F4C4F4E 
 11232      475F5F20 
 11232      3400
 11233              	.LASF957:
 11234 0f5b 5F5F494E 		.ascii	"__INT64 \"ll\"\000"
 11234      54363420 
 11234      226C6C22 
 11234      00
 11235              	.LASF711:
 11236 0f68 5F5F6E65 		.ascii	"__need_wint_t \000"
ARM GAS  /tmp/cceVa9lb.s 			page 206


 11236      65645F77 
 11236      696E745F 
 11236      742000
 11237              	.LASF1587:
 11238 0f77 67635F6F 		.ascii	"gc_of_gd_lat_d\000"
 11238      665F6764 
 11238      5F6C6174 
 11238      5F6400
 11239              	.LASF1156:
 11240 0f86 5F5F5343 		.ascii	"__SCN32FAST(x) __FAST32 __STRINGIFY(x)\000"
 11240      4E333246 
 11240      41535428 
 11240      7829205F 
 11240      5F464153 
 11241              	.LASF501:
 11242 0fad 5553455F 		.ascii	"USE_ADC 1\000"
 11242      41444320 
 11242      3100
 11243              	.LASF1438:
 11244 0fb7 41434345 		.ascii	"ACCELS_BFP_OF_REAL(_ef,_ei) { (_ef).x = ACCEL_BFP_O"
 11244      4C535F42 
 11244      46505F4F 
 11244      465F5245 
 11244      414C285F 
 11245 0fea 465F5245 		.ascii	"F_REAL((_ei).x); (_ef).y = ACCEL_BFP_OF_REAL((_ei)."
 11245      414C2828 
 11245      5F656929 
 11245      2E78293B 
 11245      20285F65 
 11246 101d 79293B20 		.ascii	"y); (_ef).z = ACCEL_BFP_OF_REAL((_ei).z); }\000"
 11246      285F6566 
 11246      292E7A20 
 11246      3D204143 
 11246      43454C5F 
 11247              	.LASF689:
 11248 1049 5F5F5743 		.ascii	"__WCHAR_T__ \000"
 11248      4841525F 
 11248      545F5F20 
 11248      00
 11249              	.LASF445:
 11250 1056 434F5254 		.ascii	"CORTEX_USE_FPU TRUE\000"
 11250      45585F55 
 11250      53455F46 
 11250      50552054 
 11250      52554500 
 11251              	.LASF523:
 11252 106a 4C4C415F 		.ascii	"LLA_COPY(_pos1,_pos2) { (_pos1).lat = (_pos2).lat; "
 11252      434F5059 
 11252      285F706F 
 11252      73312C5F 
 11252      706F7332 
 11253 109d 285F706F 		.ascii	"(_pos1).lon = (_pos2).lon; (_pos1).alt = (_pos2).al"
 11253      7331292E 
 11253      6C6F6E20 
 11253      3D20285F 
 11253      706F7332 
 11254 10d0 743B207D 		.ascii	"t; }\000"
ARM GAS  /tmp/cceVa9lb.s 			page 207


 11254      00
 11255              	.LASF1353:
 11256 10d5 56454354 		.ascii	"VECT2_DOT_PRODUCT(_v1,_v2) ((_v1).x*(_v2).x + (_v1)"
 11256      325F444F 
 11256      545F5052 
 11256      4F445543 
 11256      54285F76 
 11257 1108 2E792A28 		.ascii	".y*(_v2).y)\000"
 11257      5F763229 
 11257      2E792900 
 11258              	.LASF1443:
 11259 1114 464C4F41 		.ascii	"FLOAT_VECT2_ZERO(_v) VECT2_ASSIGN(_v, 0., 0.)\000"
 11259      545F5645 
 11259      4354325F 
 11259      5A45524F 
 11259      285F7629 
 11260              	.LASF1222:
 11261 1142 5F535444 		.ascii	"_STDBOOL_H \000"
 11261      424F4F4C 
 11261      5F482000 
 11262              	.LASF751:
 11263 114e 5F415445 		.ascii	"_ATEXIT_INIT {_NULL, 0, {_NULL}, {{_NULL}, {_NULL},"
 11263      5849545F 
 11263      494E4954 
 11263      207B5F4E 
 11263      554C4C2C 
 11264 1181 20302C20 		.ascii	" 0, 0}}\000"
 11264      307D7D00 
 11265              	.LASF1057:
 11266 1189 5349475F 		.ascii	"SIG_ATOMIC_MIN\000"
 11266      41544F4D 
 11266      49435F4D 
 11266      494E00
 11267              	.LASF80:
 11268 1198 5F5F5348 		.ascii	"__SHRT_WIDTH__ 16\000"
 11268      52545F57 
 11268      49445448 
 11268      5F5F2031 
 11268      3600
 11269              	.LASF845:
 11270 11aa 5F5F5028 		.ascii	"__P(protos) protos\000"
 11270      70726F74 
 11270      6F732920 
 11270      70726F74 
 11270      6F7300
 11271              	.LASF65:
 11272 11bd 5F5F494E 		.ascii	"__INTPTR_TYPE__ int\000"
 11272      54505452 
 11272      5F545950 
 11272      455F5F20 
 11272      696E7400 
 11273              	.LASF324:
 11274 11d1 5F5F4451 		.ascii	"__DQ_FBIT__ 63\000"
 11274      5F464249 
 11274      545F5F20 
 11274      363300
 11275              	.LASF297:
ARM GAS  /tmp/cceVa9lb.s 			page 208


 11276 11e0 5F5F5541 		.ascii	"__UACCUM_EPSILON__ 0x1P-16UK\000"
 11276      4343554D 
 11276      5F455053 
 11276      494C4F4E 
 11276      5F5F2030 
 11277              	.LASF127:
 11278 11fd 5F5F494E 		.ascii	"__INT_FAST16_WIDTH__ 32\000"
 11278      545F4641 
 11278      53543136 
 11278      5F574944 
 11278      54485F5F 
 11279              	.LASF158:
 11280 1215 5F5F464C 		.ascii	"__FLT_HAS_INFINITY__ 1\000"
 11280      545F4841 
 11280      535F494E 
 11280      46494E49 
 11280      54595F5F 
 11281              	.LASF1390:
 11282 122c 52415445 		.ascii	"RATES_DIFF(_c,_a,_b) { (_c).p = (_a).p - (_b).p; (_"
 11282      535F4449 
 11282      4646285F 
 11282      632C5F61 
 11282      2C5F6229 
 11283 125f 63292E71 		.ascii	"c).q = (_a).q - (_b).q; (_c).r = (_a).r - (_b).r; }"
 11283      203D2028 
 11283      5F61292E 
 11283      71202D20 
 11283      285F6229 
 11284 1292 00       		.ascii	"\000"
 11285              	.LASF1220:
 11286 1293 53434E75 		.ascii	"SCNuPTR __SCNPTR(u)\000"
 11286      50545220 
 11286      5F5F5343 
 11286      4E505452 
 11286      28752900 
 11287              	.LASF1470:
 11288 12a7 464C4F41 		.ascii	"FLOAT_RMAT_OF_QUAT(_rm,_q) WARNING(\"FLOAT_RMAT_OF_"
 11288      545F524D 
 11288      41545F4F 
 11288      465F5155 
 11288      4154285F 
 11289 12d9 51554154 		.ascii	"QUAT macro is deprecated, use the lower case functi"
 11289      206D6163 
 11289      726F2069 
 11289      73206465 
 11289      70726563 
 11290 130c 6F6E2069 		.ascii	"on instead\") float_rmat_of_quat(&(_rm), &(_q))\000"
 11290      6E737465 
 11290      61642229 
 11290      20666C6F 
 11290      61745F72 
 11291              	.LASF1558:
 11292 133b 70686930 		.ascii	"phi0\000"
 11292      00
 11293              	.LASF551:
 11294 1340 44424C5F 		.ascii	"DBL_MIN_EXP __DBL_MIN_EXP__\000"
 11294      4D494E5F 
ARM GAS  /tmp/cceVa9lb.s 			page 209


 11294      45585020 
 11294      5F5F4442 
 11294      4C5F4D49 
 11295              	.LASF1179:
 11296 135c 50524964 		.ascii	"PRIdFAST32 __PRI32FAST(d)\000"
 11296      46415354 
 11296      3332205F 
 11296      5F505249 
 11296      33324641 
 11297              	.LASF1229:
 11298 1376 48554745 		.ascii	"HUGE_VAL (__builtin_huge_val())\000"
 11298      5F56414C 
 11298      20285F5F 
 11298      6275696C 
 11298      74696E5F 
 11299              	.LASF1034:
 11300 1396 494E545F 		.ascii	"INT_FAST64_MAX __INT_FAST64_MAX__\000"
 11300      46415354 
 11300      36345F4D 
 11300      4158205F 
 11300      5F494E54 
 11301              	.LASF504:
 11302 13b8 5553455F 		.ascii	"USE_BAROMETER TRUE\000"
 11302      4241524F 
 11302      4D455445 
 11302      52205452 
 11302      554500
 11303              	.LASF1321:
 11304 13cb 4D696E28 		.ascii	"Min(x,y) (x < y ? x : y)\000"
 11304      782C7929 
 11304      20287820 
 11304      3C207920 
 11304      3F207820 
 11305              	.LASF546:
 11306 13e4 4C44424C 		.ascii	"LDBL_DIG __LDBL_DIG__\000"
 11306      5F444947 
 11306      205F5F4C 
 11306      44424C5F 
 11306      4449475F 
 11307              	.LASF1125:
 11308 13fa 53434E69 		.ascii	"SCNi16 __SCN16(i)\000"
 11308      3136205F 
 11308      5F53434E 
 11308      31362869 
 11308      2900
 11309              	.LASF963:
 11310 140c 5F5F4C45 		.ascii	"__LEAST16 \"h\"\000"
 11310      41535431 
 11310      36202268 
 11310      2200
 11311              	.LASF882:
 11312 141a 5F5F7072 		.ascii	"__predict_true(exp) __builtin_expect((exp), 1)\000"
 11312      65646963 
 11312      745F7472 
 11312      75652865 
 11312      78702920 
 11313              	.LASF1130:
ARM GAS  /tmp/cceVa9lb.s 			page 210


 11314 1449 50524969 		.ascii	"PRIiLEAST16 __PRI16LEAST(i)\000"
 11314      4C454153 
 11314      54313620 
 11314      5F5F5052 
 11314      4931364C 
 11315              	.LASF1547:
 11316 1465 73657269 		.ascii	"serie_coeff_proj_mercator\000"
 11316      655F636F 
 11316      6566665F 
 11316      70726F6A 
 11316      5F6D6572 
 11317              	.LASF859:
 11318 147f 5F5F616C 		.ascii	"__aligned(x) __attribute__((__aligned__(x)))\000"
 11318      69676E65 
 11318      64287829 
 11318      205F5F61 
 11318      74747269 
 11319              	.LASF207:
 11320 14ac 5F5F4650 		.ascii	"__FP_FAST_FMAF32 1\000"
 11320      5F464153 
 11320      545F464D 
 11320      41463332 
 11320      203100
 11321              	.LASF1554:
 11322 14bf 7068695F 		.ascii	"phi_\000"
 11322      00
 11323              	.LASF661:
 11324 14c4 5F545F50 		.ascii	"_T_PTRDIFF_ \000"
 11324      54524449 
 11324      46465F20 
 11324      00
 11325              	.LASF1239:
 11326 14d1 46505F49 		.ascii	"FP_ILOGB0 (-__INT_MAX__)\000"
 11326      4C4F4742 
 11326      3020282D 
 11326      5F5F494E 
 11326      545F4D41 
 11327              	.LASF1268:
 11328 14ea 4D5F315F 		.ascii	"M_1_PI 0.31830988618379067154\000"
 11328      50492030 
 11328      2E333138 
 11328      33303938 
 11328      38363138 
 11329              	.LASF817:
 11330 1508 5F5F756E 		.ascii	"__unbounded \000"
 11330      626F756E 
 11330      64656420 
 11330      00
 11331              	.LASF109:
 11332 1515 5F5F494E 		.ascii	"__INT_LEAST16_WIDTH__ 16\000"
 11332      545F4C45 
 11332      41535431 
 11332      365F5749 
 11332      4454485F 
 11333              	.LASF245:
 11334 152e 5F5F5553 		.ascii	"__USFRACT_MIN__ 0.0UHR\000"
 11334      46524143 
ARM GAS  /tmp/cceVa9lb.s 			page 211


 11334      545F4D49 
 11334      4E5F5F20 
 11334      302E3055 
 11335              	.LASF604:
 11336 1545 5F57414E 		.ascii	"_WANT_REGISTER_FINI 1\000"
 11336      545F5245 
 11336      47495354 
 11336      45525F46 
 11336      494E4920 
 11337              	.LASF51:
 11338 155b 5F5F494E 		.ascii	"__INT_LEAST32_TYPE__ long int\000"
 11338      545F4C45 
 11338      41535433 
 11338      325F5459 
 11338      50455F5F 
 11339              	.LASF174:
 11340 1579 5F5F4442 		.ascii	"__DBL_HAS_INFINITY__ 1\000"
 11340      4C5F4841 
 11340      535F494E 
 11340      46494E49 
 11340      54595F5F 
 11341              	.LASF606:
 11342 1590 5F4D425F 		.ascii	"_MB_LEN_MAX 1\000"
 11342      4C454E5F 
 11342      4D415820 
 11342      3100
 11343              	.LASF1235:
 11344 159e 46505F49 		.ascii	"FP_INFINITE 1\000"
 11344      4E46494E 
 11344      49544520 
 11344      3100
 11345              	.LASF1437:
 11346 15ac 41434345 		.ascii	"ACCELS_FLOAT_OF_BFP(_ef,_ei) { (_ef).x = ACCEL_FLOA"
 11346      4C535F46 
 11346      4C4F4154 
 11346      5F4F465F 
 11346      42465028 
 11347 15df 545F4F46 		.ascii	"T_OF_BFP((_ei).x); (_ef).y = ACCEL_FLOAT_OF_BFP((_e"
 11347      5F424650 
 11347      28285F65 
 11347      69292E78 
 11347      293B2028 
 11348 1612 69292E79 		.ascii	"i).y); (_ef).z = ACCEL_FLOAT_OF_BFP((_ei).z); }\000"
 11348      293B2028 
 11348      5F656629 
 11348      2E7A203D 
 11348      20414343 
 11349              	.LASF928:
 11350 1642 5F5F6E6F 		.ascii	"__no_lock_analysis __lock_annotate(no_thread_safety"
 11350      5F6C6F63 
 11350      6B5F616E 
 11350      616C7973 
 11350      6973205F 
 11351 1675 5F616E61 		.ascii	"_analysis)\000"
 11351      6C797369 
 11351      732900
 11352              	.LASF69:
ARM GAS  /tmp/cceVa9lb.s 			page 212


 11353 1680 5F5F5348 		.ascii	"__SHRT_MAX__ 0x7fff\000"
 11353      52545F4D 
 11353      41585F5F 
 11353      20307837 
 11353      66666600 
 11354              	.LASF1048:
 11355 1694 494E544D 		.ascii	"INTMAX_MIN (-INTMAX_MAX - 1)\000"
 11355      41585F4D 
 11355      494E2028 
 11355      2D494E54 
 11355      4D41585F 
 11356              	.LASF460:
 11357 16b1 4354524C 		.ascii	"CTRL_TYPE_H \"firmwares/fixedwing/guidance/guidance"
 11357      5F545950 
 11357      455F4820 
 11357      22666972 
 11357      6D776172 
 11358 16e3 5F762E68 		.ascii	"_v.h\"\000"
 11358      2200
 11359              	.LASF107:
 11360 16e9 5F5F494E 		.ascii	"__INT_LEAST16_MAX__ 0x7fff\000"
 11360      545F4C45 
 11360      41535431 
 11360      365F4D41 
 11360      585F5F20 
 11361              	.LASF205:
 11362 1704 5F5F464C 		.ascii	"__FLT32_HAS_INFINITY__ 1\000"
 11362      5433325F 
 11362      4841535F 
 11362      494E4649 
 11362      4E495459 
 11363              	.LASF786:
 11364 171d 5F524545 		.ascii	"_REENT_EMERGENCY(ptr) ((ptr)->_emergency)\000"
 11364      4E545F45 
 11364      4D455247 
 11364      454E4359 
 11364      28707472 
 11365              	.LASF550:
 11366 1747 464C545F 		.ascii	"FLT_MIN_EXP __FLT_MIN_EXP__\000"
 11366      4D494E5F 
 11366      45585020 
 11366      5F5F464C 
 11366      545F4D49 
 11367              	.LASF795:
 11368 1763 5F524545 		.ascii	"_REENT_WCSRTOMBS_STATE(ptr) ((ptr)->_new._reent._wc"
 11368      4E545F57 
 11368      43535254 
 11368      4F4D4253 
 11368      5F535441 
 11369 1796 7372746F 		.ascii	"srtombs_state)\000"
 11369      6D62735F 
 11369      73746174 
 11369      652900
 11370              	.LASF1579:
 11371 17a5 73696E5F 		.ascii	"sin_lon\000"
 11371      6C6F6E00 
 11372              	.LASF1317:
ARM GAS  /tmp/cceVa9lb.s 			page 213


 11373 17ad 4D4F6643 		.ascii	"MOfCm(_x) (((float)(_x))/100.)\000"
 11373      6D285F78 
 11373      29202828 
 11373      28666C6F 
 11373      61742928 
 11374              	.LASF877:
 11375 17cc 5F5F6661 		.ascii	"__fastcall __attribute__((__fastcall__))\000"
 11375      73746361 
 11375      6C6C205F 
 11375      5F617474 
 11375      72696275 
 11376              	.LASF1293:
 11377 17f5 494E464F 		.ascii	"INFO(x) DO_PRAGMA(message (\"Info: \" x))\000"
 11377      28782920 
 11377      444F5F50 
 11377      5241474D 
 11377      41286D65 
 11378              	.LASF1096:
 11379 181d 5052496F 		.ascii	"PRIo8 __PRI8(o)\000"
 11379      38205F5F 
 11379      50524938 
 11379      286F2900 
 11380              	.LASF1542:
 11381 182d 7A6F6E65 		.ascii	"zone\000"
 11381      00
 11382              	.LASF654:
 11383 1832 5F4E4F49 		.ascii	"_NOINLINE __attribute__ ((__noinline__))\000"
 11383      4E4C494E 
 11383      45205F5F 
 11383      61747472 
 11383      69627574 
 11384              	.LASF1049:
 11385 185b 55494E54 		.ascii	"UINTMAX_MAX\000"
 11385      4D41585F 
 11385      4D415800 
 11386              	.LASF130:
 11387 1867 5F5F494E 		.ascii	"__INT_FAST64_MAX__ 0x7fffffffffffffffLL\000"
 11387      545F4641 
 11387      53543634 
 11387      5F4D4158 
 11387      5F5F2030 
 11388              	.LASF310:
 11389 188f 5F5F4C4C 		.ascii	"__LLACCUM_MIN__ (-0X1P31LLK-0X1P31LLK)\000"
 11389      41434355 
 11389      4D5F4D49 
 11389      4E5F5F20 
 11389      282D3058 
 11390              	.LASF363:
 11391 18b6 5F5F4743 		.ascii	"__GCC_ATOMIC_CHAR_LOCK_FREE 2\000"
 11391      435F4154 
 11391      4F4D4943 
 11391      5F434841 
 11391      525F4C4F 
 11392              	.LASF62:
 11393 18d4 5F5F5549 		.ascii	"__UINT_FAST16_TYPE__ unsigned int\000"
 11393      4E545F46 
 11393      41535431 
ARM GAS  /tmp/cceVa9lb.s 			page 214


 11393      365F5459 
 11393      50455F5F 
 11394              	.LASF1227:
 11395 18f6 5F4D4154 		.ascii	"_MATH_H_ \000"
 11395      485F485F 
 11395      2000
 11396              	.LASF308:
 11397 1900 5F5F4C4C 		.ascii	"__LLACCUM_FBIT__ 31\000"
 11397      41434355 
 11397      4D5F4642 
 11397      49545F5F 
 11397      20333100 
 11398              	.LASF103:
 11399 1914 5F5F5549 		.ascii	"__UINT64_MAX__ 0xffffffffffffffffULL\000"
 11399      4E543634 
 11399      5F4D4158 
 11399      5F5F2030 
 11399      78666666 
 11400              	.LASF16:
 11401 1939 5F5F5349 		.ascii	"__SIZEOF_INT__ 4\000"
 11401      5A454F46 
 11401      5F494E54 
 11401      5F5F2034 
 11401      00
 11402              	.LASF1254:
 11403 194a 69736C65 		.ascii	"islessgreater(__x,__y) (__builtin_islessgreater (__"
 11403      73736772 
 11403      65617465 
 11403      72285F5F 
 11403      782C5F5F 
 11404 197d 782C205F 		.ascii	"x, __y))\000"
 11404      5F792929 
 11404      00
 11405              	.LASF1208:
 11406 1986 53434E78 		.ascii	"SCNxMAX __SCNMAX(x)\000"
 11406      4D415820 
 11406      5F5F5343 
 11406      4E4D4158 
 11406      28782900 
 11407              	.LASF228:
 11408 199a 5F5F464C 		.ascii	"__FLT32X_MAX_10_EXP__ 308\000"
 11408      54333258 
 11408      5F4D4158 
 11408      5F31305F 
 11408      4558505F 
 11409              	.LASF942:
 11410 19b4 5F5F696E 		.ascii	"__int20__\000"
 11410      7432305F 
 11410      5F00
 11411              	.LASF1478:
 11412 19be 464C4F41 		.ascii	"FLOAT_QUAT_NORMALIZE(_q) WARNING(\"FLOAT_QUAT_NORMA"
 11412      545F5155 
 11412      41545F4E 
 11412      4F524D41 
 11412      4C495A45 
 11413 19f0 4C495A45 		.ascii	"LIZE macro is deprecated, use the lower case functi"
 11413      206D6163 
ARM GAS  /tmp/cceVa9lb.s 			page 215


 11413      726F2069 
 11413      73206465 
 11413      70726563 
 11414 1a23 6F6E2069 		.ascii	"on instead\") float_quat_normalize(&(_q))\000"
 11414      6E737465 
 11414      61642229 
 11414      20666C6F 
 11414      61745F71 
 11415              	.LASF40:
 11416 1a4c 5F5F5349 		.ascii	"__SIG_ATOMIC_TYPE__ int\000"
 11416      475F4154 
 11416      4F4D4943 
 11416      5F545950 
 11416      455F5F20 
 11417              	.LASF681:
 11418 1a64 5F425344 		.ascii	"_BSD_SIZE_T_DEFINED_ \000"
 11418      5F53495A 
 11418      455F545F 
 11418      44454649 
 11418      4E45445F 
 11419              	.LASF828:
 11420 1a7a 5F5F474E 		.ascii	"__GNUCLIKE_CTOR_SECTION_HANDLING 1\000"
 11420      55434C49 
 11420      4B455F43 
 11420      544F525F 
 11420      53454354 
 11421              	.LASF940:
 11422 1a9d 73686F72 		.ascii	"short\000"
 11422      7400
 11423              	.LASF1461:
 11424 1aa3 464C4F41 		.ascii	"FLOAT_RMAT_COMP_INV(_m_a2b,_m_a2c,_m_b2c) WARNING(\""
 11424      545F524D 
 11424      41545F43 
 11424      4F4D505F 
 11424      494E5628 
 11425 1ad6 464C4F41 		.ascii	"FLOAT_RMAT_COMP_INV macro is deprecated, use the lo"
 11425      545F524D 
 11425      41545F43 
 11425      4F4D505F 
 11425      494E5620 
 11426 1b09 77657220 		.ascii	"wer case function instead\") float_rmat_comp_inv(&("
 11426      63617365 
 11426      2066756E 
 11426      6374696F 
 11426      6E20696E 
 11427 1b3b 5F6D5F61 		.ascii	"_m_a2b), &(_m_a2c), &(_m_b2c))\000"
 11427      3262292C 
 11427      2026285F 
 11427      6D5F6132 
 11427      63292C20 
 11428              	.LASF1387:
 11429 1b5a 52415445 		.ascii	"RATES_SUB(_a,_b) { (_a).p -= (_b).p; (_a).q -= (_b)"
 11429      535F5355 
 11429      42285F61 
 11429      2C5F6229 
 11429      207B2028 
 11430 1b8d 2E713B20 		.ascii	".q; (_a).r -= (_b).r; }\000"
ARM GAS  /tmp/cceVa9lb.s 			page 216


 11430      285F6129 
 11430      2E72202D 
 11430      3D20285F 
 11430      62292E72 
 11431              	.LASF1258:
 11432 1ba5 5F5F7369 		.ascii	"__signgam_r(ptr) _REENT_SIGNGAM(ptr)\000"
 11432      676E6761 
 11432      6D5F7228 
 11432      70747229 
 11432      205F5245 
 11433              	.LASF1117:
 11434 1bca 5F5F5343 		.ascii	"__SCN16FAST(x) __FAST16 __STRINGIFY(x)\000"
 11434      4E313646 
 11434      41535428 
 11434      7829205F 
 11434      5F464153 
 11435              	.LASF119:
 11436 1bf1 5F5F5549 		.ascii	"__UINT16_C(c) c\000"
 11436      4E543136 
 11436      5F432863 
 11436      29206300 
 11437              	.LASF375:
 11438 1c01 5F5F5052 		.ascii	"__PRAGMA_REDEFINE_EXTNAME 1\000"
 11438      41474D41 
 11438      5F524544 
 11438      4546494E 
 11438      455F4558 
 11439              	.LASF52:
 11440 1c1d 5F5F494E 		.ascii	"__INT_LEAST64_TYPE__ long long int\000"
 11440      545F4C45 
 11440      41535436 
 11440      345F5459 
 11440      50455F5F 
 11441              	.LASF864:
 11442 1c40 5F416C69 		.ascii	"_Alignas(x) __aligned(x)\000"
 11442      676E6173 
 11442      28782920 
 11442      5F5F616C 
 11442      69676E65 
 11443              	.LASF1371:
 11444 1c59 56454354 		.ascii	"VECT3_ABS(_vo,_vi) { (_vo).x = ABS((_vi).x); (_vo)."
 11444      335F4142 
 11444      53285F76 
 11444      6F2C5F76 
 11444      6929207B 
 11445 1c8c 79203D20 		.ascii	"y = ABS((_vi).y); (_vo).z = ABS((_vi).z); }\000"
 11445      41425328 
 11445      285F7669 
 11445      292E7929 
 11445      3B20285F 
 11446              	.LASF1382:
 11447 1cb8 45554C45 		.ascii	"EULERS_SDIV(_eo,_ei,_s) { (_eo).phi = (_ei).phi / ("
 11447      52535F53 
 11447      44495628 
 11447      5F656F2C 
 11447      5F65692C 
 11448 1ceb 5F73293B 		.ascii	"_s); (_eo).theta = (_ei).theta / (_s); (_eo).psi = "
ARM GAS  /tmp/cceVa9lb.s 			page 217


 11448      20285F65 
 11448      6F292E74 
 11448      68657461 
 11448      203D2028 
 11449 1d1e 285F6569 		.ascii	"(_ei).psi / (_s); }\000"
 11449      292E7073 
 11449      69202F20 
 11449      285F7329 
 11449      3B207D00 
 11450              	.LASF744:
 11451 1d32 5F5F6C6F 		.ascii	"__lock_acquire(lock) ((void) 0)\000"
 11451      636B5F61 
 11451      63717569 
 11451      7265286C 
 11451      6F636B29 
 11452              	.LASF899:
 11453 1d52 5F5F7379 		.ascii	"__sym_compat(sym,impl,verid) __asm__(\".symver \" #"
 11453      6D5F636F 
 11453      6D706174 
 11453      2873796D 
 11453      2C696D70 
 11454 1d83 696D706C 		.ascii	"impl \", \" #sym \"@\" #verid)\000"
 11454      20222C20 
 11454      22202373 
 11454      796D2022 
 11454      40222023 
 11455              	.LASF1075:
 11456 1d9e 494E5436 		.ascii	"INT64_C\000"
 11456      345F4300 
 11457              	.LASF927:
 11458 1da6 5F5F7265 		.ascii	"__requires_unlocked(...) __lock_annotate(locks_excl"
 11458      71756972 
 11458      65735F75 
 11458      6E6C6F63 
 11458      6B656428 
 11459 1dd9 75646564 		.ascii	"uded(__VA_ARGS__))\000"
 11459      285F5F56 
 11459      415F4152 
 11459      47535F5F 
 11459      292900
 11460              	.LASF1190:
 11461 1dec 5F5F5052 		.ascii	"__PRI64(x) __INT64 __STRINGIFY(x)\000"
 11461      49363428 
 11461      7829205F 
 11461      5F494E54 
 11461      3634205F 
 11462              	.LASF1453:
 11463 1e0e 464C4F41 		.ascii	"FLOAT_RATES_INTEGRATE_FI(_ra,_racc,_dt) WARNING(\"F"
 11463      545F5241 
 11463      5445535F 
 11463      494E5445 
 11463      47524154 
 11464 1e40 4C4F4154 		.ascii	"LOAT_RATES_INTEGRATE_FI macro is deprecated, use th"
 11464      5F524154 
 11464      45535F49 
 11464      4E544547 
 11464      52415445 
ARM GAS  /tmp/cceVa9lb.s 			page 218


 11465 1e73 65206C6F 		.ascii	"e lower case function instead\") float_rates_integr"
 11465      77657220 
 11465      63617365 
 11465      2066756E 
 11465      6374696F 
 11466 1ea5 6174655F 		.ascii	"ate_fi(&(_ra), &(_racc), _dt)\000"
 11466      66692826 
 11466      285F7261 
 11466      292C2026 
 11466      285F7261 
 11467              	.LASF569:
 11468 1ec3 44424C5F 		.ascii	"DBL_MAX_10_EXP __DBL_MAX_10_EXP__\000"
 11468      4D41585F 
 11468      31305F45 
 11468      5850205F 
 11468      5F44424C 
 11469              	.LASF1373:
 11470 1ee5 56454354 		.ascii	"VECT3_DOT_PRODUCT(_v1,_v2) ((_v1).x*(_v2).x + (_v1)"
 11470      335F444F 
 11470      545F5052 
 11470      4F445543 
 11470      54285F76 
 11471 1f18 2E792A28 		.ascii	".y*(_v2).y + (_v1).z*(_v2).z)\000"
 11471      5F763229 
 11471      2E79202B 
 11471      20285F76 
 11471      31292E7A 
 11472              	.LASF1310:
 11473 1f36 4E6F726D 		.ascii	"NormCourseRad(x) { while (x < 0) x += 2*M_PI; while"
 11473      436F7572 
 11473      73655261 
 11473      64287829 
 11473      207B2077 
 11474 1f69 20287820 		.ascii	" (x >= 2*M_PI) x -= 2*M_PI; }\000"
 11474      3E3D2032 
 11474      2A4D5F50 
 11474      49292078 
 11474      202D3D20 
 11475              	.LASF1184:
 11476 1f87 50524958 		.ascii	"PRIXFAST32 __PRI32FAST(X)\000"
 11476      46415354 
 11476      3332205F 
 11476      5F505249 
 11476      33324641 
 11477              	.LASF1522:
 11478 1fa1 756E7369 		.ascii	"unsigned char\000"
 11478      676E6564 
 11478      20636861 
 11478      7200
 11479              	.LASF1518:
 11480 1faf 43457870 		.ascii	"CExp(v) { double e = exp(v.x); v.x = e*cos(v.y); v."
 11480      28762920 
 11480      7B20646F 
 11480      75626C65 
 11480      2065203D 
 11481 1fe2 79203D20 		.ascii	"y = e*sin(v.y); }\000"
 11481      652A7369 
ARM GAS  /tmp/cceVa9lb.s 			page 219


 11481      6E28762E 
 11481      79293B20 
 11481      7D00
 11482              	.LASF1088:
 11483 1ff4 55494E54 		.ascii	"UINTMAX_C(c) __UINTMAX_C(c)\000"
 11483      4D41585F 
 11483      43286329 
 11483      205F5F55 
 11483      494E544D 
 11484              	.LASF1339:
 11485 2010 50657269 		.ascii	"PeriodicPrescaleBy10(_code_0,_code_1,_code_2,_code_"
 11485      6F646963 
 11485      50726573 
 11485      63616C65 
 11485      42793130 
 11486 2043 332C5F63 		.ascii	"3,_code_4,_code_5,_code_6,_code_7,_code_8,_code_9) "
 11486      6F64655F 
 11486      342C5F63 
 11486      6F64655F 
 11486      352C5F63 
 11487 2076 7B207374 		.ascii	"{ static uint8_t _cnt = 0; _cnt++; if (_cnt >= 10) "
 11487      61746963 
 11487      2075696E 
 11487      74385F74 
 11487      205F636E 
 11488 20a9 5F636E74 		.ascii	"_cnt = 0; switch (_cnt) { case 0: _code_0; break; c"
 11488      203D2030 
 11488      3B207377 
 11488      69746368 
 11488      20285F63 
 11489 20dc 61736520 		.ascii	"ase 1: _code_1; break; case 2: _code_2; break; case"
 11489      313A205F 
 11489      636F6465 
 11489      5F313B20 
 11489      62726561 
 11490 210f 20333A20 		.ascii	" 3: _code_3; break; case 4: _code_4; break; case 5:"
 11490      5F636F64 
 11490      655F333B 
 11490      20627265 
 11490      616B3B20 
 11491 2142 205F636F 		.ascii	" _code_5; break; case 6: _code_6; break; case 7: _c"
 11491      64655F35 
 11491      3B206272 
 11491      65616B3B 
 11491      20636173 
 11492 2175 6F64655F 		.ascii	"ode_7; break; case 8: _code_8; break; case 9: defau"
 11492      373B2062 
 11492      7265616B 
 11492      3B206361 
 11492      73652038 
 11493 21a8 6C743A20 		.ascii	"lt: _code_9; break; } }\000"
 11493      5F636F64 
 11493      655F393B 
 11493      20627265 
 11493      616B3B20 
 11494              	.LASF183:
 11495 21c0 5F5F4C44 		.ascii	"__LDBL_DECIMAL_DIG__ 17\000"
ARM GAS  /tmp/cceVa9lb.s 			page 220


 11495      424C5F44 
 11495      4543494D 
 11495      414C5F44 
 11495      49475F5F 
 11496              	.LASF1391:
 11497 21d8 52415445 		.ascii	"RATES_SMUL(_ro,_ri,_s) { (_ro).p = (_ri).p * (_s); "
 11497      535F534D 
 11497      554C285F 
 11497      726F2C5F 
 11497      72692C5F 
 11498 220b 285F726F 		.ascii	"(_ro).q = (_ri).q * (_s); (_ro).r = (_ri).r * (_s);"
 11498      292E7120 
 11498      3D20285F 
 11498      7269292E 
 11498      71202A20 
 11499 223e 207D00   		.ascii	" }\000"
 11500              	.LASF234:
 11501 2241 5F5F464C 		.ascii	"__FLT32X_DENORM_MIN__ 4.9406564584124654e-324F32x\000"
 11501      54333258 
 11501      5F44454E 
 11501      4F524D5F 
 11501      4D494E5F 
 11502              	.LASF472:
 11503 2273 4750535F 		.ascii	"GPS_UBX_NAV5_DYNAMICS NAV5_DYN_AIRBORNE_2G\000"
 11503      5542585F 
 11503      4E415635 
 11503      5F44594E 
 11503      414D4943 
 11504              	.LASF1223:
 11505 229e 626F6F6C 		.ascii	"bool _Bool\000"
 11505      205F426F 
 11505      6F6C00
 11506              	.LASF531:
 11507 22a9 5050525A 		.ascii	"PPRZ_ALGEBRA_H \000"
 11507      5F414C47 
 11507      45425241 
 11507      5F482000 
 11508              	.LASF514:
 11509 22b9 57494E44 		.ascii	"WIND_INFO 1\000"
 11509      5F494E46 
 11509      4F203100 
 11510              	.LASF1325:
 11511 22c5 41425328 		.ascii	"ABS(val) ((val) < 0 ? -(val) : (val))\000"
 11511      76616C29 
 11511      20282876 
 11511      616C2920 
 11511      3C203020 
 11512              	.LASF1165:
 11513 22eb 53434E6F 		.ascii	"SCNo32 __SCN32(o)\000"
 11513      3332205F 
 11513      5F53434E 
 11513      3332286F 
 11513      2900
 11514              	.LASF25:
 11515 22fd 5F5F4249 		.ascii	"__BIGGEST_ALIGNMENT__ 8\000"
 11515      47474553 
 11515      545F414C 
ARM GAS  /tmp/cceVa9lb.s 			page 221


 11515      49474E4D 
 11515      454E545F 
 11516              	.LASF401:
 11517 2315 5F5F4152 		.ascii	"__ARM_ARCH\000"
 11517      4D5F4152 
 11517      434800
 11518              	.LASF45:
 11519 2320 5F5F5549 		.ascii	"__UINT8_TYPE__ unsigned char\000"
 11519      4E54385F 
 11519      54595045 
 11519      5F5F2075 
 11519      6E736967 
 11520              	.LASF513:
 11521 233d 5553455F 		.ascii	"USE_UART4 1\000"
 11521      55415254 
 11521      34203100 
 11522              	.LASF1036:
 11523 2349 494E545F 		.ascii	"INT_FAST64_MIN (-INT_FAST64_MAX - 1)\000"
 11523      46415354 
 11523      36345F4D 
 11523      494E2028 
 11523      2D494E54 
 11524              	.LASF1444:
 11525 236e 464C4F41 		.ascii	"FLOAT_VECT2_NORM(_v) sqrtf(VECT2_NORM2(_v))\000"
 11525      545F5645 
 11525      4354325F 
 11525      4E4F524D 
 11525      285F7629 
 11526              	.LASF788:
 11527 239a 5F524545 		.ascii	"_REENT_MBLEN_STATE(ptr) ((ptr)->_new._reent._mblen_"
 11527      4E545F4D 
 11527      424C454E 
 11527      5F535441 
 11527      54452870 
 11528 23cd 73746174 		.ascii	"state)\000"
 11528      652900
 11529              	.LASF195:
 11530 23d4 5F5F464C 		.ascii	"__FLT32_MIN_10_EXP__ (-37)\000"
 11530      5433325F 
 11530      4D494E5F 
 11530      31305F45 
 11530      58505F5F 
 11531              	.LASF1370:
 11532 23ef 56454354 		.ascii	"VECT3_BOUND_BOX(_v,_v_min,_v_max) { if ((_v).x > (_"
 11532      335F424F 
 11532      554E445F 
 11532      424F5828 
 11532      5F762C5F 
 11533 2422 765F6D61 		.ascii	"v_max).x) (_v).x = (_v_max).x; else if ((_v).x < (_"
 11533      78292E78 
 11533      2920285F 
 11533      76292E78 
 11533      203D2028 
 11534 2455 765F6D69 		.ascii	"v_min).x) (_v).x = (_v_min).x; if ((_v).y > (_v_max"
 11534      6E292E78 
 11534      2920285F 
 11534      76292E78 
ARM GAS  /tmp/cceVa9lb.s 			page 222


 11534      203D2028 
 11535 2488 292E7929 		.ascii	").y) (_v).y = (_v_max).y; else if ((_v).y < (_v_min"
 11535      20285F76 
 11535      292E7920 
 11535      3D20285F 
 11535      765F6D61 
 11536 24bb 292E7929 		.ascii	").y) (_v).y = (_v_min).y; if ((_v).z > (_v_max).z) "
 11536      20285F76 
 11536      292E7920 
 11536      3D20285F 
 11536      765F6D69 
 11537 24ee 285F7629 		.ascii	"(_v).z = (_v_max).z; else if ((_v).z < (_v_min).z) "
 11537      2E7A203D 
 11537      20285F76 
 11537      5F6D6178 
 11537      292E7A3B 
 11538 2521 285F7629 		.ascii	"(_v).z = (_v_min).z; }\000"
 11538      2E7A203D 
 11538      20285F76 
 11538      5F6D696E 
 11538      292E7A3B 
 11539              	.LASF316:
 11540 2538 5F5F554C 		.ascii	"__ULLACCUM_MAX__ 0XFFFFFFFFFFFFFFFFP-32ULLK\000"
 11540      4C414343 
 11540      554D5F4D 
 11540      41585F5F 
 11540      20305846 
 11541              	.LASF314:
 11542 2564 5F5F554C 		.ascii	"__ULLACCUM_IBIT__ 32\000"
 11542      4C414343 
 11542      554D5F49 
 11542      4249545F 
 11542      5F203332 
 11543              	.LASF1572:
 11544 2579 656E755F 		.ascii	"enu_of_ecef_vect_d\000"
 11544      6F665F65 
 11544      6365665F 
 11544      76656374 
 11544      5F6400
 11545              	.LASF3:
 11546 258c 5F5F5354 		.ascii	"__STDC_UTF_32__ 1\000"
 11546      44435F55 
 11546      54465F33 
 11546      325F5F20 
 11546      3100
 11547              	.LASF1360:
 11548 259e 56454354 		.ascii	"VECT3_SUM(_c,_a,_b) { (_c).x = (_a).x + (_b).x; (_c"
 11548      335F5355 
 11548      4D285F63 
 11548      2C5F612C 
 11548      5F622920 
 11549 25d1 292E7920 		.ascii	").y = (_a).y + (_b).y; (_c).z = (_a).z + (_b).z; }\000"
 11549      3D20285F 
 11549      61292E79 
 11549      202B2028 
 11549      5F62292E 
 11550              	.LASF850:
ARM GAS  /tmp/cceVa9lb.s 			page 223


 11551 2604 5F5F636F 		.ascii	"__const const\000"
 11551      6E737420 
 11551      636F6E73 
 11551      7400
 11552              	.LASF1150:
 11553 2612 53434E78 		.ascii	"SCNxFAST16 __SCN16FAST(x)\000"
 11553      46415354 
 11553      3136205F 
 11553      5F53434E 
 11553      31364641 
 11554              	.LASF511:
 11555 262c 5553455F 		.ascii	"USE_PPM TRUE\000"
 11555      50504D20 
 11555      54525545 
 11555      00
 11556              	.LASF493:
 11557 2639 5348545F 		.ascii	"SHT_DAT_GPIO GPIOB,GPIO1\000"
 11557      4441545F 
 11557      4750494F 
 11557      20475049 
 11557      4F422C47 
 11558              	.LASF506:
 11559 2652 5553455F 		.ascii	"USE_GPS 1\000"
 11559      47505320 
 11559      3100
 11560              	.LASF1567:
 11561 265c 65636566 		.ascii	"ecef_of_ned_vect_d\000"
 11561      5F6F665F 
 11561      6E65645F 
 11561      76656374 
 11561      5F6400
 11562              	.LASF1219:
 11563 266f 53434E6F 		.ascii	"SCNoPTR __SCNPTR(o)\000"
 11563      50545220 
 11563      5F5F5343 
 11563      4E505452 
 11563      286F2900 
 11564              	.LASF596:
 11565 2683 5F414E53 		.ascii	"_ANSIDECL_H_ \000"
 11565      49444543 
 11565      4C5F485F 
 11565      2000
 11566              	.LASF46:
 11567 2691 5F5F5549 		.ascii	"__UINT16_TYPE__ short unsigned int\000"
 11567      4E543136 
 11567      5F545950 
 11567      455F5F20 
 11567      73686F72 
 11568              	.LASF727:
 11569 26b4 5F5F4558 		.ascii	"__EXP\000"
 11569      5000
 11570              	.LASF1588:
 11571 26ba 6C74705F 		.ascii	"ltp_def_from_ecef_d\000"
 11571      6465665F 
 11571      66726F6D 
 11571      5F656365 
 11571      665F6400 
ARM GAS  /tmp/cceVa9lb.s 			page 224


 11572              	.LASF674:
 11573 26ce 5F545F53 		.ascii	"_T_SIZE_ \000"
 11573      495A455F 
 11573      2000
 11574              	.LASF200:
 11575 26d8 5F5F464C 		.ascii	"__FLT32_NORM_MAX__ 3.4028234663852886e+38F32\000"
 11575      5433325F 
 11575      4E4F524D 
 11575      5F4D4158 
 11575      5F5F2033 
 11576              	.LASF1492:
 11577 2705 464C4F41 		.ascii	"FLOAT_QUAT_OF_AXIS_ANGLE(_q,_uv,_an) WARNING(\"FLOA"
 11577      545F5155 
 11577      41545F4F 
 11577      465F4158 
 11577      49535F41 
 11578 2737 545F5155 		.ascii	"T_QUAT_OF_AXIS_ANGLE macro is deprecated, use the l"
 11578      41545F4F 
 11578      465F4158 
 11578      49535F41 
 11578      4E474C45 
 11579 276a 6F776572 		.ascii	"ower case function instead\") float_quat_of_axis_an"
 11579      20636173 
 11579      65206675 
 11579      6E637469 
 11579      6F6E2069 
 11580 279c 676C6528 		.ascii	"gle(&(_q), &(_uv), _an)\000"
 11580      26285F71 
 11580      292C2026 
 11580      285F7576 
 11580      292C205F 
 11581              	.LASF495:
 11582 27b4 5348545F 		.ascii	"SHT_SDLOG TRUE\000"
 11582      53444C4F 
 11582      47205452 
 11582      554500
 11583              	.LASF236:
 11584 27c3 5F5F464C 		.ascii	"__FLT32X_HAS_INFINITY__ 1\000"
 11584      54333258 
 11584      5F484153 
 11584      5F494E46 
 11584      494E4954 
 11585              	.LASF750:
 11586 27dd 5F415445 		.ascii	"_ATEXIT_SIZE 32\000"
 11586      5849545F 
 11586      53495A45 
 11586      20333200 
 11587              	.LASF285:
 11588 27ed 5F5F5553 		.ascii	"__USACCUM_MIN__ 0.0UHK\000"
 11588      41434355 
 11588      4D5F4D49 
 11588      4E5F5F20 
 11588      302E3055 
 11589              	.LASF938:
 11590 2804 7369676E 		.ascii	"signed\000"
 11590      656400
 11591              	.LASF122:
ARM GAS  /tmp/cceVa9lb.s 			page 225


 11592 280b 5F5F5549 		.ascii	"__UINT_LEAST64_MAX__ 0xffffffffffffffffULL\000"
 11592      4E545F4C 
 11592      45415354 
 11592      36345F4D 
 11592      41585F5F 
 11593              	.LASF105:
 11594 2836 5F5F494E 		.ascii	"__INT8_C(c) c\000"
 11594      54385F43 
 11594      28632920 
 11594      6300
 11595              	.LASF792:
 11596 2844 5F524545 		.ascii	"_REENT_MBRTOWC_STATE(ptr) ((ptr)->_new._reent._mbrt"
 11596      4E545F4D 
 11596      4252544F 
 11596      57435F53 
 11596      54415445 
 11597 2877 6F77635F 		.ascii	"owc_state)\000"
 11597      73746174 
 11597      652900
 11598              	.LASF1122:
 11599 2882 50524978 		.ascii	"PRIx16 __PRI16(x)\000"
 11599      3136205F 
 11599      5F505249 
 11599      31362878 
 11599      2900
 11600              	.LASF426:
 11601 2894 5F5F4152 		.ascii	"__ARM_EABI__ 1\000"
 11601      4D5F4541 
 11601      42495F5F 
 11601      203100
 11602              	.LASF1203:
 11603 28a3 50524958 		.ascii	"PRIXMAX __PRIMAX(X)\000"
 11603      4D415820 
 11603      5F5F5052 
 11603      494D4158 
 11603      28582900 
 11604              	.LASF895:
 11605 28b7 5F5F7072 		.ascii	"__printf0like(fmtarg,firstvararg) \000"
 11605      696E7466 
 11605      306C696B 
 11605      6528666D 
 11605      74617267 
 11606              	.LASF1084:
 11607 28da 55494E54 		.ascii	"UINT64_C(c) __UINT64_C(c)\000"
 11607      36345F43 
 11607      28632920 
 11607      5F5F5549 
 11607      4E543634 
 11608              	.LASF1489:
 11609 28f4 464C4F41 		.ascii	"FLOAT_QUAT_DERIVATIVE(_qd,_r,_q) WARNING(\"FLOAT_QU"
 11609      545F5155 
 11609      41545F44 
 11609      45524956 
 11609      41544956 
 11610 2926 41545F44 		.ascii	"AT_DERIVATIVE macro is deprecated, use the lower ca"
 11610      45524956 
 11610      41544956 
ARM GAS  /tmp/cceVa9lb.s 			page 226


 11610      45206D61 
 11610      63726F20 
 11611 2959 73652066 		.ascii	"se function instead\") float_quat_derivative(&(_qd)"
 11611      756E6374 
 11611      696F6E20 
 11611      696E7374 
 11611      65616422 
 11612 298b 2C202628 		.ascii	", &(_r), &(_q))\000"
 11612      5F72292C 
 11612      2026285F 
 11612      71292900 
 11613              	.LASF202:
 11614 299b 5F5F464C 		.ascii	"__FLT32_EPSILON__ 1.1920928955078125e-7F32\000"
 11614      5433325F 
 11614      45505349 
 11614      4C4F4E5F 
 11614      5F20312E 
 11615              	.LASF992:
 11616 29c6 494E545F 		.ascii	"INT_LEAST8_MAX __INT_LEAST8_MAX__\000"
 11616      4C454153 
 11616      54385F4D 
 11616      4158205F 
 11616      5F494E54 
 11617              	.LASF1225:
 11618 29e8 66616C73 		.ascii	"false 0\000"
 11618      65203000 
 11619              	.LASF149:
 11620 29f0 5F5F464C 		.ascii	"__FLT_MAX_EXP__ 128\000"
 11620      545F4D41 
 11620      585F4558 
 11620      505F5F20 
 11620      31323800 
 11621              	.LASF1123:
 11622 2a04 50524958 		.ascii	"PRIX16 __PRI16(X)\000"
 11622      3136205F 
 11622      5F505249 
 11622      31362858 
 11622      2900
 11623              	.LASF99:
 11624 2a16 5F5F494E 		.ascii	"__INT64_MAX__ 0x7fffffffffffffffLL\000"
 11624      5436345F 
 11624      4D41585F 
 11624      5F203078 
 11624      37666666 
 11625              	.LASF839:
 11626 2a39 5F5F4343 		.ascii	"__CC_SUPPORTS___INLINE 1\000"
 11626      5F535550 
 11626      504F5254 
 11626      535F5F5F 
 11626      494E4C49 
 11627              	.LASF10:
 11628 2a52 5F5F4154 		.ascii	"__ATOMIC_SEQ_CST 5\000"
 11628      4F4D4943 
 11628      5F534551 
 11628      5F435354 
 11628      203500
 11629              	.LASF1363:
ARM GAS  /tmp/cceVa9lb.s 			page 227


 11630 2a65 56454354 		.ascii	"VECT3_DIFF(_c,_a,_b) { (_c).x = (_a).x - (_b).x; (_"
 11630      335F4449 
 11630      4646285F 
 11630      632C5F61 
 11630      2C5F6229 
 11631 2a98 63292E79 		.ascii	"c).y = (_a).y - (_b).y; (_c).z = (_a).z - (_b).z; }"
 11631      203D2028 
 11631      5F61292E 
 11631      79202D20 
 11631      285F6229 
 11632 2acb 00       		.ascii	"\000"
 11633              	.LASF743:
 11634 2acc 5F5F6C6F 		.ascii	"__lock_close_recursive(lock) ((void) 0)\000"
 11634      636B5F63 
 11634      6C6F7365 
 11634      5F726563 
 11634      75727369 
 11635              	.LASF505:
 11636 2af4 5553455F 		.ascii	"USE_COMMANDS 1\000"
 11636      434F4D4D 
 11636      414E4453 
 11636      203100
 11637              	.LASF774:
 11638 2b03 5F524545 		.ascii	"_REENT_CHECK_SIGNAL_BUF(ptr) \000"
 11638      4E545F43 
 11638      4845434B 
 11638      5F534947 
 11638      4E414C5F 
 11639              	.LASF1487:
 11640 2b21 464C4F41 		.ascii	"FLOAT_QUAT_INTEGRATE(_q,_omega,_dt) WARNING(\"FLOAT"
 11640      545F5155 
 11640      41545F49 
 11640      4E544547 
 11640      52415445 
 11641 2b53 5F515541 		.ascii	"_QUAT_INTEGRATE macro is deprecated, use the lower "
 11641      545F494E 
 11641      54454752 
 11641      41544520 
 11641      6D616372 
 11642 2b86 63617365 		.ascii	"case function instead\") float_quat_integrate(&(_q)"
 11642      2066756E 
 11642      6374696F 
 11642      6E20696E 
 11642      73746561 
 11643 2bb8 2C202628 		.ascii	", &(_omega), _dt)\000"
 11643      5F6F6D65 
 11643      6761292C 
 11643      205F6474 
 11643      2900
 11644              	.LASF227:
 11645 2bca 5F5F464C 		.ascii	"__FLT32X_MAX_EXP__ 1024\000"
 11645      54333258 
 11645      5F4D4158 
 11645      5F455850 
 11645      5F5F2031 
 11646              	.LASF842:
 11647 2be2 5F5F4343 		.ascii	"__CC_SUPPORTS_WARNING 1\000"
ARM GAS  /tmp/cceVa9lb.s 			page 228


 11647      5F535550 
 11647      504F5254 
 11647      535F5741 
 11647      524E494E 
 11648              	.LASF192:
 11649 2bfa 5F5F464C 		.ascii	"__FLT32_MANT_DIG__ 24\000"
 11649      5433325F 
 11649      4D414E54 
 11649      5F444947 
 11649      5F5F2032 
 11650              	.LASF61:
 11651 2c10 5F5F5549 		.ascii	"__UINT_FAST8_TYPE__ unsigned int\000"
 11651      4E545F46 
 11651      41535438 
 11651      5F545950 
 11651      455F5F20 
 11652              	.LASF352:
 11653 2c31 5F5F5554 		.ascii	"__UTA_FBIT__ 64\000"
 11653      415F4642 
 11653      49545F5F 
 11653      20363400 
 11654              	.LASF162:
 11655 2c41 5F5F4442 		.ascii	"__DBL_DIG__ 15\000"
 11655      4C5F4449 
 11655      475F5F20 
 11655      313500
 11656              	.LASF1040:
 11657 2c50 494E5450 		.ascii	"INTPTR_MAX __INTPTR_MAX__\000"
 11657      54525F4D 
 11657      4158205F 
 11657      5F494E54 
 11657      5054525F 
 11658              	.LASF716:
 11659 2c6a 5F5F4558 		.ascii	"__EXP(x) __ ##x ##__\000"
 11659      50287829 
 11659      205F5F20 
 11659      23237820 
 11659      23235F5F 
 11660              	.LASF182:
 11661 2c7f 5F5F4445 		.ascii	"__DECIMAL_DIG__ 17\000"
 11661      43494D41 
 11661      4C5F4449 
 11661      475F5F20 
 11661      313700
 11662              	.LASF1023:
 11663 2c92 494E545F 		.ascii	"INT_FAST16_MIN\000"
 11663      46415354 
 11663      31365F4D 
 11663      494E00
 11664              	.LASF1016:
 11665 2ca1 494E545F 		.ascii	"INT_FAST8_MAX __INT_FAST8_MAX__\000"
 11665      46415354 
 11665      385F4D41 
 11665      58205F5F 
 11665      494E545F 
 11666              	.LASF811:
 11667 2cc1 5F5F6C6F 		.ascii	"__long_double_t long double\000"
ARM GAS  /tmp/cceVa9lb.s 			page 229


 11667      6E675F64 
 11667      6F75626C 
 11667      655F7420 
 11667      6C6F6E67 
 11668              	.LASF1429:
 11669 2cdd 51554154 		.ascii	"QUAT_FLOAT_OF_BFP(_qf,_qi) { (_qf).qi = QUAT1_FLOAT"
 11669      5F464C4F 
 11669      41545F4F 
 11669      465F4246 
 11669      50285F71 
 11670 2d10 5F4F465F 		.ascii	"_OF_BFP((_qi).qi); (_qf).qx = QUAT1_FLOAT_OF_BFP((_"
 11670      42465028 
 11670      285F7169 
 11670      292E7169 
 11670      293B2028 
 11671 2d43 7169292E 		.ascii	"qi).qx); (_qf).qy = QUAT1_FLOAT_OF_BFP((_qi).qy); ("
 11671      7178293B 
 11671      20285F71 
 11671      66292E71 
 11671      79203D20 
 11672 2d76 5F716629 		.ascii	"_qf).qz = QUAT1_FLOAT_OF_BFP((_qi).qz); }\000"
 11672      2E717A20 
 11672      3D205155 
 11672      4154315F 
 11672      464C4F41 
 11673              	.LASF908:
 11674 2da0 5F5F4445 		.ascii	"__DEQUALIFY(type,var) ((type)(__uintptr_t)(const vo"
 11674      5155414C 
 11674      49465928 
 11674      74797065 
 11674      2C766172 
 11675 2dd3 6C617469 		.ascii	"latile void *)(var))\000"
 11675      6C652076 
 11675      6F696420 
 11675      2A292876 
 11675      61722929 
 11676              	.LASF820:
 11677 2de8 5F5F6861 		.ascii	"__has_feature(x) 0\000"
 11677      735F6665 
 11677      61747572 
 11677      65287829 
 11677      203000
 11678              	.LASF538:
 11679 2dfb 464C545F 		.ascii	"FLT_MANT_DIG __FLT_MANT_DIG__\000"
 11679      4D414E54 
 11679      5F444947 
 11679      205F5F46 
 11679      4C545F4D 
 11680              	.LASF761:
 11681 2e19 5F524545 		.ascii	"_REENT_EMERGENCY_SIZE 25\000"
 11681      4E545F45 
 11681      4D455247 
 11681      454E4359 
 11681      5F53495A 
 11682              	.LASF353:
 11683 2e32 5F5F5554 		.ascii	"__UTA_IBIT__ 64\000"
 11683      415F4942 
ARM GAS  /tmp/cceVa9lb.s 			page 230


 11683      49545F5F 
 11683      20363400 
 11684              	.LASF140:
 11685 2e42 5F5F4743 		.ascii	"__GCC_IEC_559_COMPLEX 0\000"
 11685      435F4945 
 11685      435F3535 
 11685      395F434F 
 11685      4D504C45 
 11686              	.LASF1083:
 11687 2e5a 55494E54 		.ascii	"UINT64_C\000"
 11687      36345F43 
 11687      00
 11688              	.LASF1459:
 11689 2e63 464C4F41 		.ascii	"FLOAT_RMAT_NORM(_m) WARNING(\"FLOAT_RMAT_NORM macro"
 11689      545F524D 
 11689      41545F4E 
 11689      4F524D28 
 11689      5F6D2920 
 11690 2e95 20697320 		.ascii	" is deprecated, use the lower case function instead"
 11690      64657072 
 11690      65636174 
 11690      65642C20 
 11690      75736520 
 11691 2ec8 22292066 		.ascii	"\") float_rmat_norm(&(_m))\000"
 11691      6C6F6174 
 11691      5F726D61 
 11691      745F6E6F 
 11691      726D2826 
 11692              	.LASF279:
 11693 2ee2 5F5F5341 		.ascii	"__SACCUM_IBIT__ 8\000"
 11693      4343554D 
 11693      5F494249 
 11693      545F5F20 
 11693      3800
 11694              	.LASF1545:
 11695 2ef4 6C74705F 		.ascii	"ltp_of_ecef\000"
 11695      6F665F65 
 11695      63656600 
 11696              	.LASF1449:
 11697 2f00 464C4F41 		.ascii	"FLOAT_RATES_ZERO(_r) { RATES_ASSIGN(_r, 0., 0., 0.)"
 11697      545F5241 
 11697      5445535F 
 11697      5A45524F 
 11697      285F7229 
 11698 2f33 3B207D00 		.ascii	"; }\000"
 11699              	.LASF259:
 11700 2f37 5F5F4C46 		.ascii	"__LFRACT_IBIT__ 0\000"
 11700      52414354 
 11700      5F494249 
 11700      545F5F20 
 11700      3000
 11701              	.LASF1151:
 11702 2f49 5F5F5052 		.ascii	"__PRI32(x) __INT32 __STRINGIFY(x)\000"
 11702      49333228 
 11702      7829205F 
 11702      5F494E54 
 11702      3332205F 
ARM GAS  /tmp/cceVa9lb.s 			page 231


 11703              	.LASF355:
 11704 2f6b 5F5F5553 		.ascii	"__USER_LABEL_PREFIX__ \000"
 11704      45525F4C 
 11704      4142454C 
 11704      5F505245 
 11704      4649585F 
 11705              	.LASF812:
 11706 2f82 5F5F6174 		.ascii	"__attribute_malloc__ \000"
 11706      74726962 
 11706      7574655F 
 11706      6D616C6C 
 11706      6F635F5F 
 11707              	.LASF496:
 11708 2f98 5359535F 		.ascii	"SYS_TIME_LED 1\000"
 11708      54494D45 
 11708      5F4C4544 
 11708      203100
 11709              	.LASF720:
 11710 2fa7 5F5F5F69 		.ascii	"___int16_t_defined 1\000"
 11710      6E743136 
 11710      5F745F64 
 11710      6566696E 
 11710      65642031 
 11711              	.LASF981:
 11712 2fbc 494E5433 		.ascii	"INT32_MIN\000"
 11712      325F4D49 
 11712      4E00
 11713              	.LASF785:
 11714 2fc6 5F524545 		.ascii	"_REENT_TM(ptr) (&(ptr)->_new._reent._localtime_buf)"
 11714      4E545F54 
 11714      4D287074 
 11714      72292028 
 11714      26287074 
 11715 2ff9 00       		.ascii	"\000"
 11716              	.LASF986:
 11717 2ffa 494E5436 		.ascii	"INT64_MAX __INT64_MAX__\000"
 11717      345F4D41 
 11717      58205F5F 
 11717      494E5436 
 11717      345F4D41 
 11718              	.LASF648:
 11719 3012 5F424547 		.ascii	"_BEGIN_STD_C \000"
 11719      494E5F53 
 11719      54445F43 
 11719      2000
 11720              	.LASF319:
 11721 3020 5F5F5151 		.ascii	"__QQ_IBIT__ 0\000"
 11721      5F494249 
 11721      545F5F20 
 11721      3000
 11722              	.LASF1245:
 11723 302e 69736669 		.ascii	"isfinite(__x) (__builtin_isfinite (__x))\000"
 11723      6E697465 
 11723      285F5F78 
 11723      2920285F 
 11723      5F627569 
 11724              	.LASF1414:
ARM GAS  /tmp/cceVa9lb.s 			page 232


 11725 3057 51554154 		.ascii	"QUAT_ADD(_qo,_qi) { (_qo).qi += (_qi).qi; (_qo).qx "
 11725      5F414444 
 11725      285F716F 
 11725      2C5F7169 
 11725      29207B20 
 11726 308a 2B3D2028 		.ascii	"+= (_qi).qx; (_qo).qy += (_qi).qy; (_qo).qz += (_qi"
 11726      5F716929 
 11726      2E71783B 
 11726      20285F71 
 11726      6F292E71 
 11727 30bd 292E717A 		.ascii	").qz; }\000"
 11727      3B207D00 
 11728              	.LASF1013:
 11729 30c5 55494E54 		.ascii	"UINT_LEAST64_MAX\000"
 11729      5F4C4541 
 11729      53543634 
 11729      5F4D4158 
 11729      00
 11730              	.LASF906:
 11731 30d6 5F5F4445 		.ascii	"__DECONST(type,var) ((type)(__uintptr_t)(const void"
 11731      434F4E53 
 11731      54287479 
 11731      70652C76 
 11731      61722920 
 11732 3109 202A2928 		.ascii	" *)(var))\000"
 11732      76617229 
 11732      2900
 11733              	.LASF516:
 11734 3113 5448554D 		.ascii	"THUMB_NO_INTERWORKING 1\000"
 11734      425F4E4F 
 11734      5F494E54 
 11734      4552574F 
 11734      524B494E 
 11735              	.LASF170:
 11736 312b 5F5F4442 		.ascii	"__DBL_MIN__ ((double)2.2250738585072014e-308L)\000"
 11736      4C5F4D49 
 11736      4E5F5F20 
 11736      2828646F 
 11736      75626C65 
 11737              	.LASF916:
 11738 315a 5F5F6C6F 		.ascii	"__lock_annotate(x) \000"
 11738      636B5F61 
 11738      6E6E6F74 
 11738      61746528 
 11738      78292000 
 11739              	.LASF124:
 11740 316e 5F5F494E 		.ascii	"__INT_FAST8_MAX__ 0x7fffffff\000"
 11740      545F4641 
 11740      5354385F 
 11740      4D41585F 
 11740      5F203078 
 11741              	.LASF410:
 11742 318b 5F5F4152 		.ascii	"__ARMEL__ 1\000"
 11742      4D454C5F 
 11742      5F203100 
 11743              	.LASF690:
 11744 3197 5F574348 		.ascii	"_WCHAR_T \000"
ARM GAS  /tmp/cceVa9lb.s 			page 233


 11744      41525F54 
 11744      2000
 11745              	.LASF574:
 11746 31a1 464C545F 		.ascii	"FLT_MAX __FLT_MAX__\000"
 11746      4D415820 
 11746      5F5F464C 
 11746      545F4D41 
 11746      585F5F00 
 11747              	.LASF125:
 11748 31b5 5F5F494E 		.ascii	"__INT_FAST8_WIDTH__ 32\000"
 11748      545F4641 
 11748      5354385F 
 11748      57494454 
 11748      485F5F20 
 11749              	.LASF454:
 11750 31cc 43485F44 		.ascii	"CH_DBG_ENABLE_CHECKS TRUE\000"
 11750      42475F45 
 11750      4E41424C 
 11750      455F4348 
 11750      45434B53 
 11751              	.LASF451:
 11752 31e6 4241524F 		.ascii	"BARO_PERIODIC_FREQUENCY 50\000"
 11752      5F504552 
 11752      494F4449 
 11752      435F4652 
 11752      45515545 
 11753              	.LASF184:
 11754 3201 5F5F4C44 		.ascii	"__LDBL_MAX__ 1.7976931348623157e+308L\000"
 11754      424C5F4D 
 11754      41585F5F 
 11754      20312E37 
 11754      39373639 
 11755              	.LASF1027:
 11756 3227 494E545F 		.ascii	"INT_FAST32_MAX\000"
 11756      46415354 
 11756      33325F4D 
 11756      415800
 11757              	.LASF1503:
 11758 3236 444F5542 		.ascii	"DOUBLE_RMAT_OF_EULERS_321(_rm,_e) WARNING(\"DOUBLE_"
 11758      4C455F52 
 11758      4D41545F 
 11758      4F465F45 
 11758      554C4552 
 11759 3268 524D4154 		.ascii	"RMAT_OF_EULERS_321 macro is deprecated, use the low"
 11759      5F4F465F 
 11759      45554C45 
 11759      52535F33 
 11759      3231206D 
 11760 329b 65722063 		.ascii	"er case function instead\") double_rmat_of_eulers(&"
 11760      61736520 
 11760      66756E63 
 11760      74696F6E 
 11760      20696E73 
 11761 32cd 285F726D 		.ascii	"(_rm), &(_e))\000"
 11761      292C2026 
 11761      285F6529 
 11761      2900
ARM GAS  /tmp/cceVa9lb.s 			page 234


 11762              	.LASF416:
 11763 32db 5F5F4152 		.ascii	"__ARM_FP16_ARGS\000"
 11763      4D5F4650 
 11763      31365F41 
 11763      52475300 
 11764              	.LASF194:
 11765 32eb 5F5F464C 		.ascii	"__FLT32_MIN_EXP__ (-125)\000"
 11765      5433325F 
 11765      4D494E5F 
 11765      4558505F 
 11765      5F20282D 
 11766              	.LASF443:
 11767 3304 5553455F 		.ascii	"USE_ADC_WATCHDOG 1\000"
 11767      4144435F 
 11767      57415443 
 11767      48444F47 
 11767      203100
 11768              	.LASF270:
 11769 3317 5F5F4C4C 		.ascii	"__LLFRACT_MIN__ (-0.5LLR-0.5LLR)\000"
 11769      46524143 
 11769      545F4D49 
 11769      4E5F5F20 
 11769      282D302E 
 11770              	.LASF1120:
 11771 3338 5052496F 		.ascii	"PRIo16 __PRI16(o)\000"
 11771      3136205F 
 11771      5F505249 
 11771      3136286F 
 11771      2900
 11772              	.LASF178:
 11773 334a 5F5F4C44 		.ascii	"__LDBL_MIN_EXP__ (-1021)\000"
 11773      424C5F4D 
 11773      494E5F45 
 11773      58505F5F 
 11773      20282D31 
 11774              	.LASF164:
 11775 3363 5F5F4442 		.ascii	"__DBL_MIN_10_EXP__ (-307)\000"
 11775      4C5F4D49 
 11775      4E5F3130 
 11775      5F455850 
 11775      5F5F2028 
 11776              	.LASF1161:
 11777 337d 50524978 		.ascii	"PRIx32 __PRI32(x)\000"
 11777      3332205F 
 11777      5F505249 
 11777      33322878 
 11777      2900
 11778              	.LASF1273:
 11779 338f 4D5F5457 		.ascii	"M_TWOPI (M_PI * 2.0)\000"
 11779      4F504920 
 11779      284D5F50 
 11779      49202A20 
 11779      322E3029 
 11780              	.LASF1418:
 11781 33a4 51554154 		.ascii	"QUAT_DOT_PRODUCT(_qa,_qb) ((_qa).qi * (_qb).qi + (_"
 11781      5F444F54 
 11781      5F50524F 
ARM GAS  /tmp/cceVa9lb.s 			page 235


 11781      44554354 
 11781      285F7161 
 11782 33d7 7161292E 		.ascii	"qa).qx * (_qb).qx + (_qa).qy * (_qb).qy + (_qa).qz "
 11782      7178202A 
 11782      20285F71 
 11782      62292E71 
 11782      78202B20 
 11783 340a 2A20285F 		.ascii	"* (_qb).qz)\000"
 11783      7162292E 
 11783      717A2900 
 11784              	.LASF255:
 11785 3416 5F5F5546 		.ascii	"__UFRACT_MIN__ 0.0UR\000"
 11785      52414354 
 11785      5F4D494E 
 11785      5F5F2030 
 11785      2E305552 
 11786              	.LASF948:
 11787 342b 5F5F696E 		.ascii	"__int20 +2\000"
 11787      74323020 
 11787      2B3200
 11788              	.LASF1308:
 11789 3436 4E6F726D 		.ascii	"NormRadAngle(x) { while (x > M_PI) x -= 2 * M_PI; w"
 11789      52616441 
 11789      6E676C65 
 11789      28782920 
 11789      7B207768 
 11790 3469 68696C65 		.ascii	"hile (x < -M_PI) x += 2 * M_PI; }\000"
 11790      20287820 
 11790      3C202D4D 
 11790      5F504929 
 11790      2078202B 
 11791              	.LASF148:
 11792 348b 5F5F464C 		.ascii	"__FLT_MIN_10_EXP__ (-37)\000"
 11792      545F4D49 
 11792      4E5F3130 
 11792      5F455850 
 11792      5F5F2028 
 11793              	.LASF1010:
 11794 34a4 494E545F 		.ascii	"INT_LEAST64_MAX __INT_LEAST64_MAX__\000"
 11794      4C454153 
 11794      5436345F 
 11794      4D415820 
 11794      5F5F494E 
 11795              	.LASF547:
 11796 34c8 464C545F 		.ascii	"FLT_MIN_EXP\000"
 11796      4D494E5F 
 11796      45585000 
 11797              	.LASF335:
 11798 34d4 5F5F5544 		.ascii	"__UDQ_IBIT__ 0\000"
 11798      515F4942 
 11798      49545F5F 
 11798      203000
 11799              	.LASF1475:
 11800 34e3 464C4F41 		.ascii	"FLOAT_QUAT_INVERT(_qo,_qi) WARNING(\"FLOAT_QUAT_INV"
 11800      545F5155 
 11800      41545F49 
 11800      4E564552 
ARM GAS  /tmp/cceVa9lb.s 			page 236


 11800      54285F71 
 11801 3515 45525420 		.ascii	"ERT macro is deprecated, use the lower case functio"
 11801      6D616372 
 11801      6F206973 
 11801      20646570 
 11801      72656361 
 11802 3548 6E20696E 		.ascii	"n instead\") float_quat_invert(&(_qo), &(_qi))\000"
 11802      73746561 
 11802      64222920 
 11802      666C6F61 
 11802      745F7175 
 11803              	.LASF161:
 11804 3576 5F5F4442 		.ascii	"__DBL_MANT_DIG__ 53\000"
 11804      4C5F4D41 
 11804      4E545F44 
 11804      49475F5F 
 11804      20353300 
 11805              	.LASF1143:
 11806 358a 50524975 		.ascii	"PRIuFAST16 __PRI16FAST(u)\000"
 11806      46415354 
 11806      3136205F 
 11806      5F505249 
 11806      31364641 
 11807              	.LASF86:
 11808 35a4 5F5F5054 		.ascii	"__PTRDIFF_WIDTH__ 32\000"
 11808      52444946 
 11808      465F5749 
 11808      4454485F 
 11808      5F203332 
 11809              	.LASF901:
 11810 35b9 5F5F4642 		.ascii	"__FBSDID(s) struct __hack\000"
 11810      53444944 
 11810      28732920 
 11810      73747275 
 11810      6374205F 
 11811              	.LASF1511:
 11812 35d3 44454C54 		.ascii	"DELTA_NORTH 0.\000"
 11812      415F4E4F 
 11812      52544820 
 11812      302E00
 11813              	.LASF1174:
 11814 35e2 53434E64 		.ascii	"SCNdLEAST32 __SCN32LEAST(d)\000"
 11814      4C454153 
 11814      54333220 
 11814      5F5F5343 
 11814      4E33324C 
 11815              	.LASF315:
 11816 35fe 5F5F554C 		.ascii	"__ULLACCUM_MIN__ 0.0ULLK\000"
 11816      4C414343 
 11816      554D5F4D 
 11816      494E5F5F 
 11816      20302E30 
 11817              	.LASF700:
 11818 3617 5F5F494E 		.ascii	"__INT_WCHAR_T_H \000"
 11818      545F5743 
 11818      4841525F 
 11818      545F4820 
ARM GAS  /tmp/cceVa9lb.s 			page 237


 11818      00
 11819              	.LASF485:
 11820 3628 5050525A 		.ascii	"PPRZ_UART uart1\000"
 11820      5F554152 
 11820      54207561 
 11820      72743100 
 11821              	.LASF1033:
 11822 3638 494E545F 		.ascii	"INT_FAST64_MAX\000"
 11822      46415354 
 11822      36345F4D 
 11822      415800
 11823              	.LASF1218:
 11824 3647 53434E69 		.ascii	"SCNiPTR __SCNPTR(i)\000"
 11824      50545220 
 11824      5F5F5343 
 11824      4E505452 
 11824      28692900 
 11825              	.LASF1264:
 11826 365b 4D5F4C4E 		.ascii	"M_LN10 2.30258509299404568402\000"
 11826      31302032 
 11826      2E333032 
 11826      35383530 
 11826      39323939 
 11827              	.LASF1185:
 11828 3679 53434E64 		.ascii	"SCNdFAST32 __SCN32FAST(d)\000"
 11828      46415354 
 11828      3332205F 
 11828      5F53434E 
 11828      33324641 
 11829              	.LASF625:
 11830 3693 5F504F53 		.ascii	"_POSIX_SOURCE\000"
 11830      49585F53 
 11830      4F555243 
 11830      4500
 11831              	.LASF1544:
 11832 36a1 65636566 		.ascii	"ecef\000"
 11832      00
 11833              	.LASF686:
 11834 36a6 5F5F7369 		.ascii	"__size_t \000"
 11834      7A655F74 
 11834      2000
 11835              	.LASF75:
 11836 36b0 5F5F5749 		.ascii	"__WINT_MAX__ 0xffffffffU\000"
 11836      4E545F4D 
 11836      41585F5F 
 11836      20307866 
 11836      66666666 
 11837              	.LASF20:
 11838 36c9 5F5F5349 		.ascii	"__SIZEOF_FLOAT__ 4\000"
 11838      5A454F46 
 11838      5F464C4F 
 11838      41545F5F 
 11838      203400
 11839              	.LASF1228:
 11840 36dc 5F4D5F4C 		.ascii	"_M_LN2 0.693147180559945309417\000"
 11840      4E322030 
 11840      2E363933 
ARM GAS  /tmp/cceVa9lb.s 			page 238


 11840      31343731 
 11840      38303535 
 11841              	.LASF1426:
 11842 36fb 45554C45 		.ascii	"EULERS_BFP_OF_REAL(_ei,_ef) { (_ei).phi = ANGLE_BFP"
 11842      52535F42 
 11842      46505F4F 
 11842      465F5245 
 11842      414C285F 
 11843 372e 5F4F465F 		.ascii	"_OF_REAL((_ef).phi); (_ei).theta = ANGLE_BFP_OF_REA"
 11843      5245414C 
 11843      28285F65 
 11843      66292E70 
 11843      6869293B 
 11844 3761 4C28285F 		.ascii	"L((_ef).theta); (_ei).psi = ANGLE_BFP_OF_REAL((_ef)"
 11844      6566292E 
 11844      74686574 
 11844      61293B20 
 11844      285F6569 
 11845 3794 2E707369 		.ascii	".psi); }\000"
 11845      293B207D 
 11845      00
 11846              	.LASF415:
 11847 379d 5F5F4152 		.ascii	"__ARM_FP16_FORMAT_ALTERNATIVE\000"
 11847      4D5F4650 
 11847      31365F46 
 11847      4F524D41 
 11847      545F414C 
 11848              	.LASF1450:
 11849 37bb 464C4F41 		.ascii	"FLOAT_RATES_NORM(_v) (sqrtf((_v).p*(_v).p + (_v).q*"
 11849      545F5241 
 11849      5445535F 
 11849      4E4F524D 
 11849      285F7629 
 11850 37ee 285F7629 		.ascii	"(_v).q + (_v).r*(_v).r))\000"
 11850      2E71202B 
 11850      20285F76 
 11850      292E722A 
 11850      285F7629 
 11851              	.LASF1170:
 11852 3807 5052496F 		.ascii	"PRIoLEAST32 __PRI32LEAST(o)\000"
 11852      4C454153 
 11852      54333220 
 11852      5F5F5052 
 11852      4933324C 
 11853              	.LASF1043:
 11854 3823 55494E54 		.ascii	"UINTPTR_MAX\000"
 11854      5054525F 
 11854      4D415800 
 11855              	.LASF1551:
 11856 382f 76737461 		.ascii	"vstar\000"
 11856      7200
 11857              	.LASF1307:
 11858 3835 436C6561 		.ascii	"ClearBit(a,n) a &= ~(1 << n)\000"
 11858      72426974 
 11858      28612C6E 
 11858      29206120 
 11858      263D207E 
ARM GAS  /tmp/cceVa9lb.s 			page 239


 11859              	.LASF283:
 11860 3852 5F5F5553 		.ascii	"__USACCUM_FBIT__ 8\000"
 11860      41434355 
 11860      4D5F4642 
 11860      49545F5F 
 11860      203800
 11861              	.LASF371:
 11862 3865 5F5F4743 		.ascii	"__GCC_ATOMIC_TEST_AND_SET_TRUEVAL 1\000"
 11862      435F4154 
 11862      4F4D4943 
 11862      5F544553 
 11862      545F414E 
 11863              	.LASF47:
 11864 3889 5F5F5549 		.ascii	"__UINT32_TYPE__ long unsigned int\000"
 11864      4E543332 
 11864      5F545950 
 11864      455F5F20 
 11864      6C6F6E67 
 11865              	.LASF155:
 11866 38ab 5F5F464C 		.ascii	"__FLT_EPSILON__ 1.1920928955078125e-7F\000"
 11866      545F4550 
 11866      53494C4F 
 11866      4E5F5F20 
 11866      312E3139 
 11867              	.LASF826:
 11868 38d2 5F5F474E 		.ascii	"__GNUCLIKE___OFFSETOF 1\000"
 11868      55434C49 
 11868      4B455F5F 
 11868      5F4F4646 
 11868      5345544F 
 11869              	.LASF1154:
 11870 38ea 5F5F5343 		.ascii	"__SCN32LEAST(x) __LEAST32 __STRINGIFY(x)\000"
 11870      4E33324C 
 11870      45415354 
 11870      28782920 
 11870      5F5F4C45 
 11871              	.LASF1246:
 11872 3913 6973696E 		.ascii	"isinf(__x) (__builtin_isinf_sign (__x))\000"
 11872      66285F5F 
 11872      78292028 
 11872      5F5F6275 
 11872      696C7469 
 11873              	.LASF1292:
 11874 393b 544F444F 		.ascii	"TODO(x) DO_PRAGMA(message (\"TODO - \" x))\000"
 11874      28782920 
 11874      444F5F50 
 11874      5241474D 
 11874      41286D65 
 11875              	.LASF117:
 11876 3964 5F5F5549 		.ascii	"__UINT8_C(c) c\000"
 11876      4E54385F 
 11876      43286329 
 11876      206300
 11877              	.LASF838:
 11878 3973 5F5F4343 		.ascii	"__CC_SUPPORTS_INLINE 1\000"
 11878      5F535550 
 11878      504F5254 
ARM GAS  /tmp/cceVa9lb.s 			page 240


 11878      535F494E 
 11878      4C494E45 
 11879              	.LASF1502:
 11880 398a 444F5542 		.ascii	"DOUBLE_RMAT_OF_EULERS(_rm,_e) WARNING(\"DOUBLE_RMAT"
 11880      4C455F52 
 11880      4D41545F 
 11880      4F465F45 
 11880      554C4552 
 11881 39bc 5F4F465F 		.ascii	"_OF_EULERS macro is deprecated, use the lower case "
 11881      45554C45 
 11881      5253206D 
 11881      6163726F 
 11881      20697320 
 11882 39ef 66756E63 		.ascii	"function instead\") double_rmat_of_eulers(&(_rm), &"
 11882      74696F6E 
 11882      20696E73 
 11882      74656164 
 11882      22292064 
 11883 3a21 285F6529 		.ascii	"(_e))\000"
 11883      2900
 11884              	.LASF394:
 11885 3a27 5F5F4152 		.ascii	"__ARM_FEATURE_NUMERIC_MAXMIN\000"
 11885      4D5F4645 
 11885      41545552 
 11885      455F4E55 
 11885      4D455249 
 11886              	.LASF964:
 11887 3a44 5F5F4C45 		.ascii	"__LEAST32 \"l\"\000"
 11887      41535433 
 11887      3220226C 
 11887      2200
 11888              	.LASF1454:
 11889 3a52 464C4F41 		.ascii	"FLOAT_RATES_OF_EULER_DOT(_ra,_e,_ed) WARNING(\"FLOA"
 11889      545F5241 
 11889      5445535F 
 11889      4F465F45 
 11889      554C4552 
 11890 3a84 545F5241 		.ascii	"T_RATES_OF_EULER_DOT macro is deprecated, use the l"
 11890      5445535F 
 11890      4F465F45 
 11890      554C4552 
 11890      5F444F54 
 11891 3ab7 6F776572 		.ascii	"ower case function instead\") float_rates_of_euler_"
 11891      20636173 
 11891      65206675 
 11891      6E637469 
 11891      6F6E2069 
 11892 3ae9 646F7428 		.ascii	"dot(&(_ra), &(_e), &(_ed))\000"
 11892      26285F72 
 11892      61292C20 
 11892      26285F65 
 11892      292C2026 
 11893              	.LASF1517:
 11894 3b04 43492876 		.ascii	"CI(v) { double tmp = v.x; v.x = -v.y; v.y = tmp; }\000"
 11894      29207B20 
 11894      646F7562 
 11894      6C652074 
ARM GAS  /tmp/cceVa9lb.s 			page 241


 11894      6D70203D 
 11895              	.LASF1070:
 11896 3b37 494E5438 		.ascii	"INT8_C(c) __INT8_C(c)\000"
 11896      5F432863 
 11896      29205F5F 
 11896      494E5438 
 11896      5F432863 
 11897              	.LASF1271:
 11898 3b4d 4D5F5351 		.ascii	"M_SQRT2 1.41421356237309504880\000"
 11898      52543220 
 11898      312E3431 
 11898      34323133 
 11898      35363233 
 11899              	.LASF1568:
 11900 3b6c 65636566 		.ascii	"ecef_of_enu_vect_d\000"
 11900      5F6F665F 
 11900      656E755F 
 11900      76656374 
 11900      5F6400
 11901              	.LASF978:
 11902 3b7f 55494E54 		.ascii	"UINT16_MAX __UINT16_MAX__\000"
 11902      31365F4D 
 11902      4158205F 
 11902      5F55494E 
 11902      5431365F 
 11903              	.LASF853:
 11904 3b99 5F5F7765 		.ascii	"__weak_symbol __attribute__((__weak__))\000"
 11904      616B5F73 
 11904      796D626F 
 11904      6C205F5F 
 11904      61747472 
 11905              	.LASF815:
 11906 3bc1 5F5F666C 		.ascii	"__flexarr [0]\000"
 11906      65786172 
 11906      72205B30 
 11906      5D00
 11907              	.LASF779:
 11908 3bcf 5F524545 		.ascii	"_REENT_RAND48_ADD(ptr) ((ptr)->_new._reent._r48._ad"
 11908      4E545F52 
 11908      414E4434 
 11908      385F4144 
 11908      44287074 
 11909 3c02 642900   		.ascii	"d)\000"
 11910              	.LASF88:
 11911 3c05 5F5F494E 		.ascii	"__INTMAX_MAX__ 0x7fffffffffffffffLL\000"
 11911      544D4158 
 11911      5F4D4158 
 11911      5F5F2030 
 11911      78376666 
 11912              	.LASF275:
 11913 3c29 5F5F554C 		.ascii	"__ULLFRACT_MIN__ 0.0ULLR\000"
 11913      4C465241 
 11913      43545F4D 
 11913      494E5F5F 
 11913      20302E30 
 11914              	.LASF1311:
 11915 3c42 436C6F73 		.ascii	"CloseDegAngles(_c1,_c2) ({ float _diff = _c1 - _c2;"
ARM GAS  /tmp/cceVa9lb.s 			page 242


 11915      65446567 
 11915      416E676C 
 11915      6573285F 
 11915      63312C5F 
 11916 3c75 204E6F72 		.ascii	" NormCourse(_diff); 350 < _diff || _diff < 10; })\000"
 11916      6D436F75 
 11916      72736528 
 11916      5F646966 
 11916      66293B20 
 11917              	.LASF1549:
 11918 3ca7 7363616C 		.ascii	"scale\000"
 11918      6500
 11919              	.LASF459:
 11920 3cad 43485F44 		.ascii	"CH_DBG_SYSTEM_STATE_CHECK TRUE\000"
 11920      42475F53 
 11920      59535445 
 11920      4D5F5354 
 11920      4154455F 
 11921              	.LASF413:
 11922 3ccc 5F5F4152 		.ascii	"__ARM_FP 4\000"
 11922      4D5F4650 
 11922      203400
 11923              	.LASF652:
 11924 3cd7 5F415454 		.ascii	"_ATTRIBUTE(attrs) __attribute__ (attrs)\000"
 11924      52494255 
 11924      54452861 
 11924      74747273 
 11924      29205F5F 
 11925              	.LASF384:
 11926 3cff 5F5F4152 		.ascii	"__ARM_FEATURE_QRDMX\000"
 11926      4D5F4645 
 11926      41545552 
 11926      455F5152 
 11926      444D5800 
 11927              	.LASF239:
 11928 3d13 5F5F5346 		.ascii	"__SFRACT_IBIT__ 0\000"
 11928      52414354 
 11928      5F494249 
 11928      545F5F20 
 11928      3000
 11929              	.LASF1473:
 11930 3d25 464C4F41 		.ascii	"FLOAT_QUAT_EXTRACT(_vo,_qi) QUAT_EXTRACT_Q(_vo, _qi"
 11930      545F5155 
 11930      41545F45 
 11930      58545241 
 11930      4354285F 
 11931 3d58 2900     		.ascii	")\000"
 11932              	.LASF748:
 11933 3d5a 5F5F6C6F 		.ascii	"__lock_release(lock) ((void) 0)\000"
 11933      636B5F72 
 11933      656C6561 
 11933      7365286C 
 11933      6F636B29 
 11934              	.LASF26:
 11935 3d7a 5F5F4F52 		.ascii	"__ORDER_LITTLE_ENDIAN__ 1234\000"
 11935      4445525F 
 11935      4C495454 
ARM GAS  /tmp/cceVa9lb.s 			page 243


 11935      4C455F45 
 11935      4E444941 
 11936              	.LASF668:
 11937 3d97 5F505452 		.ascii	"_PTRDIFF_T_DECLARED \000"
 11937      44494646 
 11937      5F545F44 
 11937      45434C41 
 11937      52454420 
 11938              	.LASF775:
 11939 3dac 5F524545 		.ascii	"_REENT_SIGNGAM(ptr) ((ptr)->_new._reent._gamma_sign"
 11939      4E545F53 
 11939      49474E47 
 11939      414D2870 
 11939      74722920 
 11940 3ddf 67616D29 		.ascii	"gam)\000"
 11940      00
 11941              	.LASF146:
 11942 3de4 5F5F464C 		.ascii	"__FLT_DIG__ 6\000"
 11942      545F4449 
 11942      475F5F20 
 11942      3600
 11943              	.LASF1313:
 11944 3df2 4465674F 		.ascii	"DegOfRad(x) ((x) * (180. / M_PI))\000"
 11944      66526164 
 11944      28782920 
 11944      28287829 
 11944      202A2028 
 11945              	.LASF1411:
 11946 3e14 51554154 		.ascii	"QUAT_COPY(_qo,_qi) { (_qo).qi = (_qi).qi; (_qo).qx "
 11946      5F434F50 
 11946      59285F71 
 11946      6F2C5F71 
 11946      6929207B 
 11947 3e47 3D20285F 		.ascii	"= (_qi).qx; (_qo).qy = (_qi).qy; (_qo).qz = (_qi).q"
 11947      7169292E 
 11947      71783B20 
 11947      285F716F 
 11947      292E7179 
 11948 3e7a 7A3B207D 		.ascii	"z; }\000"
 11948      00
 11949              	.LASF862:
 11950 3e7f 5F5F616C 		.ascii	"__alloc_size2(n,x) __attribute__((__alloc_size__(n,"
 11950      6C6F635F 
 11950      73697A65 
 11950      32286E2C 
 11950      7829205F 
 11951 3eb2 20782929 		.ascii	" x)))\000"
 11951      2900
 11952              	.LASF958:
 11953 3eb8 5F5F4641 		.ascii	"__FAST8 \000"
 11953      53543820 
 11953      00
 11954              	.LASF1531:
 11955 3ec1 666C6F61 		.ascii	"float\000"
 11955      7400
 11956              	.LASF1552:
 11957 3ec7 6C6C615F 		.ascii	"lla_of_utm_d\000"
ARM GAS  /tmp/cceVa9lb.s 			page 244


 11957      6F665F75 
 11957      746D5F64 
 11957      00
 11958              	.LASF592:
 11959 3ed4 464C545F 		.ascii	"FLT_EVAL_METHOD __FLT_EVAL_METHOD__\000"
 11959      4556414C 
 11959      5F4D4554 
 11959      484F4420 
 11959      5F5F464C 
 11960              	.LASF1393:
 11961 3ef8 52415445 		.ascii	"RATES_EWMULT_RSHIFT(c,a,b,_s) { (c).p = ((a).p * (b"
 11961      535F4557 
 11961      4D554C54 
 11961      5F525348 
 11961      49465428 
 11962 3f2b 292E7029 		.ascii	").p) >> (_s); (c).q = ((a).q * (b).q) >> (_s); (c)."
 11962      203E3E20 
 11962      285F7329 
 11962      3B202863 
 11962      292E7120 
 11963 3f5e 72203D20 		.ascii	"r = ((a).r * (b).r) >> (_s); }\000"
 11963      28286129 
 11963      2E72202A 
 11963      20286229 
 11963      2E722920 
 11964              	.LASF729:
 11965 3f7d 756E7369 		.ascii	"unsigned signed\000"
 11965      676E6564 
 11965      20736967 
 11965      6E656400 
 11966              	.LASF525:
 11967 3f8d 55544D5F 		.ascii	"UTM_COPY(_u1,_u2) { (_u1).north = (_u2).north; (_u1"
 11967      434F5059 
 11967      285F7531 
 11967      2C5F7532 
 11967      29207B20 
 11968 3fc0 292E6561 		.ascii	").east = (_u2).east; (_u1).alt = (_u2).alt; (_u1).z"
 11968      7374203D 
 11968      20285F75 
 11968      32292E65 
 11968      6173743B 
 11969 3ff3 6F6E6520 		.ascii	"one = (_u2).zone; }\000"
 11969      3D20285F 
 11969      7532292E 
 11969      7A6F6E65 
 11969      3B207D00 
 11970              	.LASF118:
 11971 4007 5F5F5549 		.ascii	"__UINT_LEAST16_MAX__ 0xffff\000"
 11971      4E545F4C 
 11971      45415354 
 11971      31365F4D 
 11971      41585F5F 
 11972              	.LASF1456:
 11973 4023 464C4F41 		.ascii	"FLOAT_MAT33_DIAG(_m,_d00,_d11,_d22) { MAT33_ELMT(_m"
 11973      545F4D41 
 11973      5433335F 
 11973      44494147 
ARM GAS  /tmp/cceVa9lb.s 			page 245


 11973      285F6D2C 
 11974 4056 2C20302C 		.ascii	", 0, 0) = _d00; MAT33_ELMT(_m, 0, 1) = 0.; MAT33_EL"
 11974      20302920 
 11974      3D205F64 
 11974      30303B20 
 11974      4D415433 
 11975 4089 4D54285F 		.ascii	"MT(_m, 0, 2) = 0.; MAT33_ELMT(_m, 1, 0) = 0.; MAT33"
 11975      6D2C2030 
 11975      2C203229 
 11975      203D2030 
 11975      2E3B204D 
 11976 40bc 5F454C4D 		.ascii	"_ELMT(_m, 1, 1) = _d11; MAT33_ELMT(_m, 1, 2) = 0.; "
 11976      54285F6D 
 11976      2C20312C 
 11976      20312920 
 11976      3D205F64 
 11977 40ef 4D415433 		.ascii	"MAT33_ELMT(_m, 2, 0) = 0.; MAT33_ELMT(_m, 2, 1) = 0"
 11977      335F454C 
 11977      4D54285F 
 11977      6D2C2032 
 11977      2C203029 
 11978 4122 2E3B204D 		.ascii	".; MAT33_ELMT(_m, 2, 2) = _d22; }\000"
 11978      41543333 
 11978      5F454C4D 
 11978      54285F6D 
 11978      2C20322C 
 11979              	.LASF87:
 11980 4144 5F5F5349 		.ascii	"__SIZE_WIDTH__ 32\000"
 11980      5A455F57 
 11980      49445448 
 11980      5F5F2033 
 11980      3200
 11981              	.LASF884:
 11982 4156 5F5F6E75 		.ascii	"__null_sentinel __attribute__((__sentinel__))\000"
 11982      6C6C5F73 
 11982      656E7469 
 11982      6E656C20 
 11982      5F5F6174 
 11983              	.LASF419:
 11984 4184 5F5F4152 		.ascii	"__ARM_FEATURE_FP16_FML\000"
 11984      4D5F4645 
 11984      41545552 
 11984      455F4650 
 11984      31365F46 
 11985              	.LASF787:
 11986 419b 5F524545 		.ascii	"_REENT_STRTOK_LAST(ptr) ((ptr)->_new._reent._strtok"
 11986      4E545F53 
 11986      5452544F 
 11986      4B5F4C41 
 11986      53542870 
 11987 41ce 5F6C6173 		.ascii	"_last)\000"
 11987      742900
 11988              	.LASF827:
 11989 41d5 5F5F474E 		.ascii	"__GNUCLIKE___SECTION 1\000"
 11989      55434C49 
 11989      4B455F5F 
 11989      5F534543 
ARM GAS  /tmp/cceVa9lb.s 			page 246


 11989      54494F4E 
 11990              	.LASF554:
 11991 41ec 44424C5F 		.ascii	"DBL_MIN_10_EXP\000"
 11991      4D494E5F 
 11991      31305F45 
 11991      585000
 11992              	.LASF23:
 11993 41fb 5F5F5349 		.ascii	"__SIZEOF_SIZE_T__ 4\000"
 11993      5A454F46 
 11993      5F53495A 
 11993      455F545F 
 11993      5F203400 
 11994              	.LASF473:
 11995 420f 4750535F 		.ascii	"GPS_UBX_UCENTER 1\000"
 11995      5542585F 
 11995      5543454E 
 11995      54455220 
 11995      3100
 11996              	.LASF1214:
 11997 4221 50524975 		.ascii	"PRIuPTR __PRIPTR(u)\000"
 11997      50545220 
 11997      5F5F5052 
 11997      49505452 
 11997      28752900 
 11998              	.LASF85:
 11999 4235 5F5F5749 		.ascii	"__WINT_WIDTH__ 32\000"
 11999      4E545F57 
 11999      49445448 
 11999      5F5F2033 
 11999      3200
 12000              	.LASF1541:
 12001 4247 65617374 		.ascii	"east\000"
 12001      00
 12002              	.LASF1514:
 12003 424c 4C616D62 		.ascii	"LambdaOfUtmZone(utm_zone) RadOfDeg((utm_zone-1)*6-1"
 12003      64614F66 
 12003      55746D5A 
 12003      6F6E6528 
 12003      75746D5F 
 12004 427f 38302B33 		.ascii	"80+3)\000"
 12004      2900
 12005              	.LASF1160:
 12006 4285 50524975 		.ascii	"PRIu32 __PRI32(u)\000"
 12006      3332205F 
 12006      5F505249 
 12006      33322875 
 12006      2900
 12007              	.LASF660:
 12008 4297 5F505452 		.ascii	"_PTRDIFF_T \000"
 12008      44494646 
 12008      5F542000 
 12009              	.LASF1286:
 12010 42a3 4D455353 		.ascii	"MESSAGE_PRAGMAS_H \000"
 12010      4147455F 
 12010      50524147 
 12010      4D41535F 
 12010      482000
ARM GAS  /tmp/cceVa9lb.s 			page 247


 12011              	.LASF470:
 12012 42b6 4750535F 		.ascii	"GPS_LED 3\000"
 12012      4C454420 
 12012      3300
 12013              	.LASF998:
 12014 42c0 494E545F 		.ascii	"INT_LEAST16_MAX __INT_LEAST16_MAX__\000"
 12014      4C454153 
 12014      5431365F 
 12014      4D415820 
 12014      5F5F494E 
 12015              	.LASF607:
 12016 42e4 48415645 		.ascii	"HAVE_INITFINI_ARRAY 1\000"
 12016      5F494E49 
 12016      5446494E 
 12016      495F4152 
 12016      52415920 
 12017              	.LASF575:
 12018 42fa 44424C5F 		.ascii	"DBL_MAX __DBL_MAX__\000"
 12018      4D415820 
 12018      5F5F4442 
 12018      4C5F4D41 
 12018      585F5F00 
 12019              	.LASF1094:
 12020 430e 50524964 		.ascii	"PRId8 __PRI8(d)\000"
 12020      38205F5F 
 12020      50524938 
 12020      28642900 
 12021              	.LASF892:
 12022 431e 5F5F666F 		.ascii	"__format_arg(fmtarg) __attribute__((__format_arg__ "
 12022      726D6174 
 12022      5F617267 
 12022      28666D74 
 12022      61726729 
 12023 4351 28666D74 		.ascii	"(fmtarg)))\000"
 12023      61726729 
 12023      292900
 12024              	.LASF1021:
 12025 435c 494E545F 		.ascii	"INT_FAST16_MAX\000"
 12025      46415354 
 12025      31365F4D 
 12025      415800
 12026              	.LASF1063:
 12027 436b 57434841 		.ascii	"WCHAR_MIN\000"
 12027      525F4D49 
 12027      4E00
 12028              	.LASF1474:
 12029 4375 464C4F41 		.ascii	"FLOAT_QUAT_ZERO(_q) WARNING(\"FLOAT_QUAT_ZERO macro"
 12029      545F5155 
 12029      41545F5A 
 12029      45524F28 
 12029      5F712920 
 12030 43a7 20697320 		.ascii	" is deprecated, use the lower case function instead"
 12030      64657072 
 12030      65636174 
 12030      65642C20 
 12030      75736520 
 12031 43da 22292066 		.ascii	"\") float_quat_identity(&(_q))\000"
ARM GAS  /tmp/cceVa9lb.s 			page 248


 12031      6C6F6174 
 12031      5F717561 
 12031      745F6964 
 12031      656E7469 
 12032              	.LASF1181:
 12033 43f8 5052496F 		.ascii	"PRIoFAST32 __PRI32FAST(o)\000"
 12033      46415354 
 12033      3332205F 
 12033      5F505249 
 12033      33324641 
 12034              	.LASF1394:
 12035 4412 52415445 		.ascii	"RATES_BOUND_CUBE(_v,_min,_max) { (_v).p = (_v).p < "
 12035      535F424F 
 12035      554E445F 
 12035      43554245 
 12035      285F762C 
 12036 4445 285F6D69 		.ascii	"(_min) ? (_min) : (_v).p > (_max) ? (_max) : (_v).p"
 12036      6E29203F 
 12036      20285F6D 
 12036      696E2920 
 12036      3A20285F 
 12037 4478 3B20285F 		.ascii	"; (_v).q = (_v).q < (_min) ? (_min) : (_v).q > (_ma"
 12037      76292E71 
 12037      203D2028 
 12037      5F76292E 
 12037      71203C20 
 12038 44ab 7829203F 		.ascii	"x) ? (_max) : (_v).q; (_v).r = (_v).r < (_min) ? (_"
 12038      20285F6D 
 12038      61782920 
 12038      3A20285F 
 12038      76292E71 
 12039 44de 6D696E29 		.ascii	"min) : (_v).r > (_max) ? (_max) : (_v).r; }\000"
 12039      203A2028 
 12039      5F76292E 
 12039      72203E20 
 12039      285F6D61 
 12040              	.LASF623:
 12041 450a 5F444546 		.ascii	"_DEFAULT_SOURCE\000"
 12041      41554C54 
 12041      5F534F55 
 12041      52434500 
 12042              	.LASF1020:
 12043 451a 55494E54 		.ascii	"UINT_FAST8_MAX __UINT_FAST8_MAX__\000"
 12043      5F464153 
 12043      54385F4D 
 12043      4158205F 
 12043      5F55494E 
 12044              	.LASF238:
 12045 453c 5F5F5346 		.ascii	"__SFRACT_FBIT__ 7\000"
 12045      52414354 
 12045      5F464249 
 12045      545F5F20 
 12045      3700
 12046              	.LASF312:
 12047 454e 5F5F4C4C 		.ascii	"__LLACCUM_EPSILON__ 0x1P-31LLK\000"
 12047      41434355 
 12047      4D5F4550 
ARM GAS  /tmp/cceVa9lb.s 			page 249


 12047      53494C4F 
 12047      4E5F5F20 
 12048              	.LASF453:
 12049 456d 43485F44 		.ascii	"CH_DBG_ENABLE_ASSERTS TRUE\000"
 12049      42475F45 
 12049      4E41424C 
 12049      455F4153 
 12049      53455254 
 12050              	.LASF333:
 12051 4588 5F5F5553 		.ascii	"__USQ_IBIT__ 0\000"
 12051      515F4942 
 12051      49545F5F 
 12051      203000
 12052              	.LASF581:
 12053 4597 44424C5F 		.ascii	"DBL_EPSILON __DBL_EPSILON__\000"
 12053      45505349 
 12053      4C4F4E20 
 12053      5F5F4442 
 12053      4C5F4550 
 12054              	.LASF1171:
 12055 45b3 50524975 		.ascii	"PRIuLEAST32 __PRI32LEAST(u)\000"
 12055      4C454153 
 12055      54333220 
 12055      5F5F5052 
 12055      4933324C 
 12056              	.LASF167:
 12057 45cf 5F5F4442 		.ascii	"__DBL_DECIMAL_DIG__ 17\000"
 12057      4C5F4445 
 12057      43494D41 
 12057      4C5F4449 
 12057      475F5F20 
 12058              	.LASF18:
 12059 45e6 5F5F5349 		.ascii	"__SIZEOF_LONG_LONG__ 8\000"
 12059      5A454F46 
 12059      5F4C4F4E 
 12059      475F4C4F 
 12059      4E475F5F 
 12060              	.LASF1508:
 12061 45fd 4520302E 		.ascii	"E 0.08181919106\000"
 12061      30383138 
 12061      31393139 
 12061      31303600 
 12062              	.LASF1059:
 12063 460d 53495A45 		.ascii	"SIZE_MAX\000"
 12063      5F4D4158 
 12063      00
 12064              	.LASF1241:
 12065 4616 4D415448 		.ascii	"MATH_ERRNO 1\000"
 12065      5F455252 
 12065      4E4F2031 
 12065      00
 12066              	.LASF875:
 12067 4623 5F5F6E6F 		.ascii	"__nonnull(x) __attribute__((__nonnull__ x))\000"
 12067      6E6E756C 
 12067      6C287829 
 12067      205F5F61 
 12067      74747269 
ARM GAS  /tmp/cceVa9lb.s 			page 250


 12068              	.LASF198:
 12069 464f 5F5F464C 		.ascii	"__FLT32_DECIMAL_DIG__ 9\000"
 12069      5433325F 
 12069      44454349 
 12069      4D414C5F 
 12069      4449475F 
 12070              	.LASF1109:
 12071 4667 50524975 		.ascii	"PRIuFAST8 __PRI8FAST(u)\000"
 12071      46415354 
 12071      38205F5F 
 12071      50524938 
 12071      46415354 
 12072              	.LASF1097:
 12073 467f 50524975 		.ascii	"PRIu8 __PRI8(u)\000"
 12073      38205F5F 
 12073      50524938 
 12073      28752900 
 12074              	.LASF601:
 12075 468f 5F5F4E45 		.ascii	"__NEWLIB_MINOR__ 3\000"
 12075      574C4942 
 12075      5F4D494E 
 12075      4F525F5F 
 12075      203300
 12076              	.LASF793:
 12077 46a2 5F524545 		.ascii	"_REENT_MBSRTOWCS_STATE(ptr) ((ptr)->_new._reent._mb"
 12077      4E545F4D 
 12077      42535254 
 12077      4F574353 
 12077      5F535441 
 12078 46d5 7372746F 		.ascii	"srtowcs_state)\000"
 12078      7763735F 
 12078      73746174 
 12078      652900
 12079              	.LASF915:
 12080 46e4 5F5F6461 		.ascii	"__datatype_type_tag(kind,type) \000"
 12080      74617479 
 12080      70655F74 
 12080      7970655F 
 12080      74616728 
 12081              	.LASF1238:
 12082 4704 46505F4E 		.ascii	"FP_NORMAL 4\000"
 12082      4F524D41 
 12082      4C203400 
 12083              	.LASF624:
 12084 4710 5F444546 		.ascii	"_DEFAULT_SOURCE 1\000"
 12084      41554C54 
 12084      5F534F55 
 12084      52434520 
 12084      3100
 12085              	.LASF696:
 12086 4722 5F574348 		.ascii	"_WCHAR_T_DEFINED_ \000"
 12086      41525F54 
 12086      5F444546 
 12086      494E4544 
 12086      5F2000
 12087              	.LASF618:
 12088 4735 5F5F4F42 		.ascii	"__OBSOLETE_MATH_DEFAULT 1\000"
ARM GAS  /tmp/cceVa9lb.s 			page 251


 12088      534F4C45 
 12088      54455F4D 
 12088      4154485F 
 12088      44454641 
 12089              	.LASF816:
 12090 474f 5F5F626F 		.ascii	"__bounded \000"
 12090      756E6465 
 12090      642000
 12091              	.LASF591:
 12092 475a 464C545F 		.ascii	"FLT_EVAL_METHOD\000"
 12092      4556414C 
 12092      5F4D4554 
 12092      484F4400 
 12093              	.LASF35:
 12094 476a 5F5F5749 		.ascii	"__WINT_TYPE__ unsigned int\000"
 12094      4E545F54 
 12094      5950455F 
 12094      5F20756E 
 12094      7369676E 
 12095              	.LASF557:
 12096 4785 44424C5F 		.ascii	"DBL_MIN_10_EXP __DBL_MIN_10_EXP__\000"
 12096      4D494E5F 
 12096      31305F45 
 12096      5850205F 
 12096      5F44424C 
 12097              	.LASF1388:
 12098 47a7 52415445 		.ascii	"RATES_SUM(_c,_a,_b) { (_c).p = (_a).p + (_b).p; (_c"
 12098      535F5355 
 12098      4D285F63 
 12098      2C5F612C 
 12098      5F622920 
 12099 47da 292E7120 		.ascii	").q = (_a).q + (_b).q; (_c).r = (_a).r + (_b).r; }\000"
 12099      3D20285F 
 12099      61292E71 
 12099      202B2028 
 12099      5F62292E 
 12100              	.LASF1347:
 12101 480d 56454354 		.ascii	"VECT2_SUB(_a,_b) { (_a).x -= (_b).x; (_a).y -= (_b)"
 12101      325F5355 
 12101      42285F61 
 12101      2C5F6229 
 12101      207B2028 
 12102 4840 2E793B20 		.ascii	".y; }\000"
 12102      7D00
 12103              	.LASF723:
 12104 4846 5F5F5F69 		.ascii	"___int_least8_t_defined 1\000"
 12104      6E745F6C 
 12104      65617374 
 12104      385F745F 
 12104      64656669 
 12105              	.LASF1452:
 12106 4860 464C4F41 		.ascii	"FLOAT_VECT3_INTEGRATE_FI(_vo,_dv,_dt) WARNING(\"FLO"
 12106      545F5645 
 12106      4354335F 
 12106      494E5445 
 12106      47524154 
 12107 4892 41545F56 		.ascii	"AT_VECT3_INTEGRATE_FI macro is deprecated, use the "
ARM GAS  /tmp/cceVa9lb.s 			page 252


 12107      45435433 
 12107      5F494E54 
 12107      45475241 
 12107      54455F46 
 12108 48c5 6C6F7765 		.ascii	"lower case function instead\") float_vect3_integrat"
 12108      72206361 
 12108      73652066 
 12108      756E6374 
 12108      696F6E20 
 12109 48f7 655F6669 		.ascii	"e_fi(&(_vo), &(_dv), _dt)\000"
 12109      2826285F 
 12109      766F292C 
 12109      2026285F 
 12109      6476292C 
 12110              	.LASF914:
 12111 4911 5F5F6172 		.ascii	"__arg_type_tag(arg_kind,arg_idx,type_tag_idx) \000"
 12111      675F7479 
 12111      70655F74 
 12111      61672861 
 12111      72675F6B 
 12112              	.LASF95:
 12113 4940 5F5F5349 		.ascii	"__SIG_ATOMIC_WIDTH__ 32\000"
 12113      475F4154 
 12113      4F4D4943 
 12113      5F574944 
 12113      54485F5F 
 12114              	.LASF608:
 12115 4958 5F415445 		.ascii	"_ATEXIT_DYNAMIC_ALLOC 1\000"
 12115      5849545F 
 12115      44594E41 
 12115      4D49435F 
 12115      414C4C4F 
 12116              	.LASF1570:
 12117 4970 65636566 		.ascii	"ecef_of_enu_point_d\000"
 12117      5F6F665F 
 12117      656E755F 
 12117      706F696E 
 12117      745F6400 
 12118              	.LASF97:
 12119 4984 5F5F494E 		.ascii	"__INT16_MAX__ 0x7fff\000"
 12119      5431365F 
 12119      4D41585F 
 12119      5F203078 
 12119      37666666 
 12120              	.LASF307:
 12121 4999 5F5F554C 		.ascii	"__ULACCUM_EPSILON__ 0x1P-32ULK\000"
 12121      41434355 
 12121      4D5F4550 
 12121      53494C4F 
 12121      4E5F5F20 
 12122              	.LASF145:
 12123 49b8 5F5F464C 		.ascii	"__FLT_MANT_DIG__ 24\000"
 12123      545F4D41 
 12123      4E545F44 
 12123      49475F5F 
 12123      20323400 
 12124              	.LASF1216:
ARM GAS  /tmp/cceVa9lb.s 			page 253


 12125 49cc 50524958 		.ascii	"PRIXPTR __PRIPTR(X)\000"
 12125      50545220 
 12125      5F5F5052 
 12125      49505452 
 12125      28582900 
 12126              	.LASF923:
 12127 49e0 5F5F6173 		.ascii	"__asserts_exclusive(...) __lock_annotate(assert_exc"
 12127      73657274 
 12127      735F6578 
 12127      636C7573 
 12127      69766528 
 12128 4a13 6C757369 		.ascii	"lusive_lock(__VA_ARGS__))\000"
 12128      76655F6C 
 12128      6F636B28 
 12128      5F5F5641 
 12128      5F415247 
 12129              	.LASF1573:
 12130 4a2d 6E65645F 		.ascii	"ned_of_ecef_point_d\000"
 12130      6F665F65 
 12130      6365665F 
 12130      706F696E 
 12130      745F6400 
 12131              	.LASF303:
 12132 4a41 5F5F554C 		.ascii	"__ULACCUM_FBIT__ 32\000"
 12132      41434355 
 12132      4D5F4642 
 12132      49545F5F 
 12132      20333200 
 12133              	.LASF1430:
 12134 4a55 51554154 		.ascii	"QUAT_BFP_OF_REAL(_qi,_qf) { (_qi).qi = QUAT1_BFP_OF"
 12134      5F424650 
 12134      5F4F465F 
 12134      5245414C 
 12134      285F7169 
 12135 4a88 5F524541 		.ascii	"_REAL((_qf).qi); (_qi).qx = QUAT1_BFP_OF_REAL((_qf)"
 12135      4C28285F 
 12135      7166292E 
 12135      7169293B 
 12135      20285F71 
 12136 4abb 2E717829 		.ascii	".qx); (_qi).qy = QUAT1_BFP_OF_REAL((_qf).qy); (_qi)"
 12136      3B20285F 
 12136      7169292E 
 12136      7179203D 
 12136      20515541 
 12137 4aee 2E717A20 		.ascii	".qz = QUAT1_BFP_OF_REAL((_qf).qz); }\000"
 12137      3D205155 
 12137      4154315F 
 12137      4246505F 
 12137      4F465F52 
 12138              	.LASF833:
 12139 4b13 5F5F474E 		.ascii	"__GNUC_VA_LIST_COMPATIBILITY 1\000"
 12139      55435F56 
 12139      415F4C49 
 12139      53545F43 
 12139      4F4D5041 
 12140              	.LASF1103:
 12141 4b32 50524975 		.ascii	"PRIuLEAST8 __PRI8LEAST(u)\000"
ARM GAS  /tmp/cceVa9lb.s 			page 254


 12141      4C454153 
 12141      5438205F 
 12141      5F505249 
 12141      384C4541 
 12142              	.LASF924:
 12143 4b4c 5F5F6173 		.ascii	"__asserts_shared(...) __lock_annotate(assert_shared"
 12143      73657274 
 12143      735F7368 
 12143      61726564 
 12143      282E2E2E 
 12144 4b7f 5F6C6F63 		.ascii	"_lock(__VA_ARGS__))\000"
 12144      6B285F5F 
 12144      56415F41 
 12144      5247535F 
 12144      5F292900 
 12145              	.LASF1180:
 12146 4b93 50524969 		.ascii	"PRIiFAST32 __PRI32FAST(i)\000"
 12146      46415354 
 12146      3332205F 
 12146      5F505249 
 12146      33324641 
 12147              	.LASF399:
 12148 4bad 5F5F4152 		.ascii	"__ARM_ARCH_PROFILE 77\000"
 12148      4D5F4152 
 12148      43485F50 
 12148      524F4649 
 12148      4C452037 
 12149              	.LASF1202:
 12150 4bc3 50524978 		.ascii	"PRIxMAX __PRIMAX(x)\000"
 12150      4D415820 
 12150      5F5F5052 
 12150      494D4158 
 12150      28782900 
 12151              	.LASF836:
 12152 4bd7 5F5F474E 		.ascii	"__GNUCLIKE_MATH_BUILTIN_RELOPS \000"
 12152      55434C49 
 12152      4B455F4D 
 12152      4154485F 
 12152      4255494C 
 12153              	.LASF476:
 12154 4bf7 48414C5F 		.ascii	"HAL_USE_USB TRUE\000"
 12154      5553455F 
 12154      55534220 
 12154      54525545 
 12154      00
 12155              	.LASF304:
 12156 4c08 5F5F554C 		.ascii	"__ULACCUM_IBIT__ 32\000"
 12156      41434355 
 12156      4D5F4942 
 12156      49545F5F 
 12156      20333200 
 12157              	.LASF432:
 12158 4c1c 5F5F4152 		.ascii	"__ARM_FEATURE_COPROC 15\000"
 12158      4D5F4645 
 12158      41545552 
 12158      455F434F 
 12158      50524F43 
ARM GAS  /tmp/cceVa9lb.s 			page 255


 12159              	.LASF1510:
 12160 4c34 44454C54 		.ascii	"DELTA_EAST 500000.\000"
 12160      415F4541 
 12160      53542035 
 12160      30303030 
 12160      302E00
 12161              	.LASF1257:
 12162 4c47 7369676E 		.ascii	"signgam (*__signgam())\000"
 12162      67616D20 
 12162      282A5F5F 
 12162      7369676E 
 12162      67616D28 
 12163              	.LASF1448:
 12164 4c5e 464C4F41 		.ascii	"FLOAT_VECT3_NORMALIZE(_v) float_vect3_normalize(&(_"
 12164      545F5645 
 12164      4354335F 
 12164      4E4F524D 
 12164      414C495A 
 12165 4c91 76292900 		.ascii	"v))\000"
 12166              	.LASF1537:
 12167 4c95 4E656443 		.ascii	"NedCoor_d\000"
 12167      6F6F725F 
 12167      6400
 12168              	.LASF104:
 12169 4c9f 5F5F494E 		.ascii	"__INT_LEAST8_MAX__ 0x7f\000"
 12169      545F4C45 
 12169      41535438 
 12169      5F4D4158 
 12169      5F5F2030 
 12170              	.LASF328:
 12171 4cb7 5F5F5551 		.ascii	"__UQQ_FBIT__ 8\000"
 12171      515F4642 
 12171      49545F5F 
 12171      203800
 12172              	.LASF147:
 12173 4cc6 5F5F464C 		.ascii	"__FLT_MIN_EXP__ (-125)\000"
 12173      545F4D49 
 12173      4E5F4558 
 12173      505F5F20 
 12173      282D3132 
 12174              	.LASF1346:
 12175 4cdd 56454354 		.ascii	"VECT2_ADD(_a,_b) { (_a).x += (_b).x; (_a).y += (_b)"
 12175      325F4144 
 12175      44285F61 
 12175      2C5F6229 
 12175      207B2028 
 12176 4d10 2E793B20 		.ascii	".y; }\000"
 12176      7D00
 12177              	.LASF471:
 12178 4d16 4750535F 		.ascii	"GPS_TYPE_H \"modules/gps/gps_ubx.h\"\000"
 12178      54595045 
 12178      5F482022 
 12178      6D6F6475 
 12178      6C65732F 
 12179              	.LASF123:
 12180 4d39 5F5F5549 		.ascii	"__UINT64_C(c) c ## ULL\000"
 12180      4E543634 
ARM GAS  /tmp/cceVa9lb.s 			page 256


 12180      5F432863 
 12180      29206320 
 12180      23232055 
 12181              	.LASF1365:
 12182 4d50 56454354 		.ascii	"VECT3_SDIV(_vo,_vi,_s) { (_vo).x = (_vi).x / (_s); "
 12182      335F5344 
 12182      4956285F 
 12182      766F2C5F 
 12182      76692C5F 
 12183 4d83 285F766F 		.ascii	"(_vo).y = (_vi).y / (_s); (_vo).z = (_vi).z / (_s);"
 12183      292E7920 
 12183      3D20285F 
 12183      7669292E 
 12183      79202F20 
 12184 4db6 207D00   		.ascii	" }\000"
 12185              	.LASF144:
 12186 4db9 5F5F464C 		.ascii	"__FLT_RADIX__ 2\000"
 12186      545F5241 
 12186      4449585F 
 12186      5F203200 
 12187              	.LASF499:
 12188 4dc9 55415254 		.ascii	"UART4_BAUD B38400\000"
 12188      345F4241 
 12188      55442042 
 12188      33383430 
 12188      3000
 12189              	.LASF348:
 12190 4ddb 5F5F5553 		.ascii	"__USA_FBIT__ 16\000"
 12190      415F4642 
 12190      49545F5F 
 12190      20313600 
 12191              	.LASF458:
 12192 4deb 43485F44 		.ascii	"CH_DBG_STATISTICS TRUE\000"
 12192      42475F53 
 12192      54415449 
 12192      53544943 
 12192      53205452 
 12193              	.LASF950:
 12194 4e02 696E7420 		.ascii	"int +2\000"
 12194      2B3200
 12195              	.LASF224:
 12196 4e09 5F5F464C 		.ascii	"__FLT32X_DIG__ 15\000"
 12196      54333258 
 12196      5F444947 
 12196      5F5F2031 
 12196      3500
 12197              	.LASF1540:
 12198 4e1b 6E6F7274 		.ascii	"north\000"
 12198      6800
 12199              	.LASF643:
 12200 4e21 5F5F5241 		.ascii	"__RAND_MAX 0x7fffffff\000"
 12200      4E445F4D 
 12200      41582030 
 12200      78376666 
 12200      66666666 
 12201              	.LASF187:
 12202 4e37 5F5F4C44 		.ascii	"__LDBL_EPSILON__ 2.2204460492503131e-16L\000"
ARM GAS  /tmp/cceVa9lb.s 			page 257


 12202      424C5F45 
 12202      5053494C 
 12202      4F4E5F5F 
 12202      20322E32 
 12203              	.LASF952:
 12204 4e60 5F494E54 		.ascii	"_INTPTR_EQ_INT \000"
 12204      5054525F 
 12204      45515F49 
 12204      4E542000 
 12205              	.LASF142:
 12206 4e70 5F5F464C 		.ascii	"__FLT_EVAL_METHOD_TS_18661_3__ 0\000"
 12206      545F4556 
 12206      414C5F4D 
 12206      4554484F 
 12206      445F5453 
 12207              	.LASF1376:
 12208 4e91 45554C45 		.ascii	"EULERS_COPY(_a,_b) { (_a).phi = (_b).phi; (_a).thet"
 12208      52535F43 
 12208      4F505928 
 12208      5F612C5F 
 12208      6229207B 
 12209 4ec4 61203D20 		.ascii	"a = (_b).theta; (_a).psi = (_b).psi; }\000"
 12209      285F6229 
 12209      2E746865 
 12209      74613B20 
 12209      285F6129 
 12210              	.LASF322:
 12211 4eeb 5F5F5351 		.ascii	"__SQ_FBIT__ 31\000"
 12211      5F464249 
 12211      545F5F20 
 12211      333100
 12212              	.LASF90:
 12213 4efa 5F5F5549 		.ascii	"__UINTMAX_MAX__ 0xffffffffffffffffULL\000"
 12213      4E544D41 
 12213      585F4D41 
 12213      585F5F20 
 12213      30786666 
 12214              	.LASF349:
 12215 4f20 5F5F5553 		.ascii	"__USA_IBIT__ 16\000"
 12215      415F4942 
 12215      49545F5F 
 12215      20313600 
 12216              	.LASF292:
 12217 4f30 5F5F4143 		.ascii	"__ACCUM_EPSILON__ 0x1P-15K\000"
 12217      43554D5F 
 12217      45505349 
 12217      4C4F4E5F 
 12217      5F203078 
 12218              	.LASF586:
 12219 4f4b 464C545F 		.ascii	"FLT_MIN __FLT_MIN__\000"
 12219      4D494E20 
 12219      5F5F464C 
 12219      545F4D49 
 12219      4E5F5F00 
 12220              	.LASF1500:
 12221 4f5f 444F5542 		.ascii	"DOUBLE_VECT3_ROUND(_v) DOUBLE_VECT3_RINT(_v, _v)\000"
 12221      4C455F56 
ARM GAS  /tmp/cceVa9lb.s 			page 258


 12221      45435433 
 12221      5F524F55 
 12221      4E44285F 
 12222              	.LASF301:
 12223 4f90 5F5F4C41 		.ascii	"__LACCUM_MAX__ 0X7FFFFFFFFFFFFFFFP-31LK\000"
 12223      4343554D 
 12223      5F4D4158 
 12223      5F5F2030 
 12223      58374646 
 12224              	.LASF770:
 12225 4fb8 5F524545 		.ascii	"_REENT_CHECK_TM(ptr) \000"
 12225      4E545F43 
 12225      4845434B 
 12225      5F544D28 
 12225      70747229 
 12226              	.LASF487:
 12227 4fce 5050525A 		.ascii	"PPRZ_VER_MAJOR 6\000"
 12227      5F564552 
 12227      5F4D414A 
 12227      4F522036 
 12227      00
 12228              	.LASF1571:
 12229 4fdf 6E65645F 		.ascii	"ned_of_ecef_vect_d\000"
 12229      6F665F65 
 12229      6365665F 
 12229      76656374 
 12229      5F6400
 12230              	.LASF1281:
 12231 4ff2 4D5F494E 		.ascii	"M_INVLN2 1.4426950408889633870E0\000"
 12231      564C4E32 
 12231      20312E34 
 12231      34323639 
 12231      35303430 
 12232              	.LASF1468:
 12233 5013 464C4F41 		.ascii	"FLOAT_RMAT_OF_EULERS_321(_rm,_e) WARNING(\"FLOAT_RM"
 12233      545F524D 
 12233      41545F4F 
 12233      465F4555 
 12233      4C455253 
 12234 5045 41545F4F 		.ascii	"AT_OF_EULERS_321 macro is deprecated, use the lower"
 12234      465F4555 
 12234      4C455253 
 12234      5F333231 
 12234      206D6163 
 12235 5078 20636173 		.ascii	" case function instead\") float_rmat_of_eulers_321("
 12235      65206675 
 12235      6E637469 
 12235      6F6E2069 
 12235      6E737465 
 12236 50aa 26285F72 		.ascii	"&(_rm), &(_e))\000"
 12236      6D292C20 
 12236      26285F65 
 12236      292900
 12237              	.LASF1029:
 12238 50b9 494E545F 		.ascii	"INT_FAST32_MIN\000"
 12238      46415354 
 12238      33325F4D 
ARM GAS  /tmp/cceVa9lb.s 			page 259


 12238      494E00
 12239              	.LASF252:
 12240 50c8 5F5F4652 		.ascii	"__FRACT_EPSILON__ 0x1P-15R\000"
 12240      4143545F 
 12240      45505349 
 12240      4C4F4E5F 
 12240      5F203078 
 12241              	.LASF1178:
 12242 50e3 53434E78 		.ascii	"SCNxLEAST32 __SCN32LEAST(x)\000"
 12242      4C454153 
 12242      54333220 
 12242      5F5F5343 
 12242      4E33324C 
 12243              	.LASF602:
 12244 50ff 5F5F4E45 		.ascii	"__NEWLIB_PATCHLEVEL__ 0\000"
 12244      574C4942 
 12244      5F504154 
 12244      43484C45 
 12244      56454C5F 
 12245              	.LASF741:
 12246 5117 5F5F6C6F 		.ascii	"__lock_init_recursive(lock) ((void) 0)\000"
 12246      636B5F69 
 12246      6E69745F 
 12246      72656375 
 12246      72736976 
 12247              	.LASF1102:
 12248 513e 5052496F 		.ascii	"PRIoLEAST8 __PRI8LEAST(o)\000"
 12248      4C454153 
 12248      5438205F 
 12248      5F505249 
 12248      384C4541 
 12249              	.LASF368:
 12250 5158 5F5F4743 		.ascii	"__GCC_ATOMIC_INT_LOCK_FREE 2\000"
 12250      435F4154 
 12250      4F4D4943 
 12250      5F494E54 
 12250      5F4C4F43 
 12251              	.LASF1416:
 12252 5175 51554154 		.ascii	"QUAT_EXTRACT_Q(_vo,_qi) { (_vo).x=(_qi).qx; (_vo).y"
 12252      5F455854 
 12252      52414354 
 12252      5F51285F 
 12252      766F2C5F 
 12253 51a8 3D285F71 		.ascii	"=(_qi).qy; (_vo).z=(_qi).qz; }\000"
 12253      69292E71 
 12253      793B2028 
 12253      5F766F29 
 12253      2E7A3D28 
 12254              	.LASF81:
 12255 51c7 5F5F494E 		.ascii	"__INT_WIDTH__ 32\000"
 12255      545F5749 
 12255      4454485F 
 12255      5F203332 
 12255      00
 12256              	.LASF562:
 12257 51d8 464C545F 		.ascii	"FLT_MAX_EXP __FLT_MAX_EXP__\000"
 12257      4D41585F 
ARM GAS  /tmp/cceVa9lb.s 			page 260


 12257      45585020 
 12257      5F5F464C 
 12257      545F4D41 
 12258              	.LASF549:
 12259 51f4 4C44424C 		.ascii	"LDBL_MIN_EXP\000"
 12259      5F4D494E 
 12259      5F455850 
 12259      00
 12260              	.LASF803:
 12261 5201 5F474C4F 		.ascii	"_GLOBAL_REENT _global_impure_ptr\000"
 12261      42414C5F 
 12261      5245454E 
 12261      54205F67 
 12261      6C6F6261 
 12262              	.LASF209:
 12263 5222 5F5F464C 		.ascii	"__FLT64_DIG__ 15\000"
 12263      5436345F 
 12263      4449475F 
 12263      5F203135 
 12263      00
 12264              	.LASF422:
 12265 5233 5F5F4152 		.ascii	"__ARM_NEON\000"
 12265      4D5F4E45 
 12265      4F4E00
 12266              	.LASF515:
 12267 523e 5448554D 		.ascii	"THUMB_PRESENT 1\000"
 12267      425F5052 
 12267      4553454E 
 12267      54203100 
 12268              	.LASF424:
 12269 524e 5F5F4152 		.ascii	"__ARM_ARCH_7EM__ 1\000"
 12269      4D5F4152 
 12269      43485F37 
 12269      454D5F5F 
 12269      203100
 12270              	.LASF722:
 12271 5261 5F5F5F69 		.ascii	"___int64_t_defined 1\000"
 12271      6E743634 
 12271      5F745F64 
 12271      6566696E 
 12271      65642031 
 12272              	.LASF1098:
 12273 5276 50524978 		.ascii	"PRIx8 __PRI8(x)\000"
 12273      38205F5F 
 12273      50524938 
 12273      28782900 
 12274              	.LASF605:
 12275 5286 5F524545 		.ascii	"_REENT_CHECK_VERIFY 1\000"
 12275      4E545F43 
 12275      4845434B 
 12275      5F564552 
 12275      49465920 
 12276              	.LASF835:
 12277 529c 5F5F474E 		.ascii	"__GNUCLIKE_BUILTIN_NEXT_ARG 1\000"
 12277      55434C49 
 12277      4B455F42 
 12277      55494C54 
ARM GAS  /tmp/cceVa9lb.s 			page 261


 12277      494E5F4E 
 12278              	.LASF1111:
 12279 52ba 50524958 		.ascii	"PRIXFAST8 __PRI8FAST(X)\000"
 12279      46415354 
 12279      38205F5F 
 12279      50524938 
 12279      46415354 
 12280              	.LASF1015:
 12281 52d2 494E545F 		.ascii	"INT_FAST8_MAX\000"
 12281      46415354 
 12281      385F4D41 
 12281      5800
 12282              	.LASF1455:
 12283 52e0 464C4F41 		.ascii	"FLOAT_MAT33_ZERO(_m) { MAT33_ELMT(_m, 0, 0) = 0.; M"
 12283      545F4D41 
 12283      5433335F 
 12283      5A45524F 
 12283      285F6D29 
 12284 5313 41543333 		.ascii	"AT33_ELMT(_m, 0, 1) = 0.; MAT33_ELMT(_m, 0, 2) = 0."
 12284      5F454C4D 
 12284      54285F6D 
 12284      2C20302C 
 12284      20312920 
 12285 5346 3B204D41 		.ascii	"; MAT33_ELMT(_m, 1, 0) = 0.; MAT33_ELMT(_m, 1, 1) ="
 12285      5433335F 
 12285      454C4D54 
 12285      285F6D2C 
 12285      20312C20 
 12286 5379 20302E3B 		.ascii	" 0.; MAT33_ELMT(_m, 1, 2) = 0.; MAT33_ELMT(_m, 2, 0"
 12286      204D4154 
 12286      33335F45 
 12286      4C4D5428 
 12286      5F6D2C20 
 12287 53ac 29203D20 		.ascii	") = 0.; MAT33_ELMT(_m, 2, 1) = 0.; MAT33_ELMT(_m, 2"
 12287      302E3B20 
 12287      4D415433 
 12287      335F454C 
 12287      4D54285F 
 12288 53df 2C203229 		.ascii	", 2) = 0.; }\000"
 12288      203D2030 
 12288      2E3B207D 
 12288      00
 12289              	.LASF229:
 12290 53ec 5F5F464C 		.ascii	"__FLT32X_DECIMAL_DIG__ 17\000"
 12290      54333258 
 12290      5F444543 
 12290      494D414C 
 12290      5F444947 
 12291              	.LASF1333:
 12292 5406 416C6967 		.ascii	"Align(_x,_a1) (_x%_a1 ? _x + (_a1 - (_x%_a1)) : _x "
 12292      6E285F78 
 12292      2C5F6131 
 12292      2920285F 
 12292      78255F61 
 12293 5439 2900     		.ascii	")\000"
 12294              	.LASF365:
 12295 543b 5F5F4743 		.ascii	"__GCC_ATOMIC_CHAR32_T_LOCK_FREE 2\000"
ARM GAS  /tmp/cceVa9lb.s 			page 262


 12295      435F4154 
 12295      4F4D4943 
 12295      5F434841 
 12295      5233325F 
 12296              	.LASF492:
 12297 545d 52414449 		.ascii	"RADIO_CONTROL_TYPE_PPM 1\000"
 12297      4F5F434F 
 12297      4E54524F 
 12297      4C5F5459 
 12297      50455F50 
 12298              	.LASF42:
 12299 5476 5F5F494E 		.ascii	"__INT16_TYPE__ short int\000"
 12299      5431365F 
 12299      54595045 
 12299      5F5F2073 
 12299      686F7274 
 12300              	.LASF465:
 12301 548f 444F574E 		.ascii	"DOWNLINK_TRANSPORT pprz_tp\000"
 12301      4C494E4B 
 12301      5F545241 
 12301      4E53504F 
 12301      52542070 
 12302              	.LASF1226:
 12303 54aa 5F5F626F 		.ascii	"__bool_true_false_are_defined 1\000"
 12303      6F6C5F74 
 12303      7275655F 
 12303      66616C73 
 12303      655F6172 
 12304              	.LASF1422:
 12305 54ca 524D4154 		.ascii	"RMAT_VECT3_MUL(_vout,_rmat,_vin) { (_vout).x = RMAT"
 12305      5F564543 
 12305      54335F4D 
 12305      554C285F 
 12305      766F7574 
 12306 54fd 5F454C4D 		.ascii	"_ELMT((_rmat), 0, 0) * (_vin).x + RMAT_ELMT((_rmat)"
 12306      5428285F 
 12306      726D6174 
 12306      292C2030 
 12306      2C203029 
 12307 5530 2C20302C 		.ascii	", 0, 1) * (_vin).y + RMAT_ELMT((_rmat), 0, 2) * (_v"
 12307      20312920 
 12307      2A20285F 
 12307      76696E29 
 12307      2E79202B 
 12308 5563 696E292E 		.ascii	"in).z; (_vout).y = RMAT_ELMT((_rmat), 1, 0) * (_vin"
 12308      7A3B2028 
 12308      5F766F75 
 12308      74292E79 
 12308      203D2052 
 12309 5596 292E7820 		.ascii	").x + RMAT_ELMT((_rmat), 1, 1) * (_vin).y + RMAT_EL"
 12309      2B20524D 
 12309      41545F45 
 12309      4C4D5428 
 12309      285F726D 
 12310 55c9 4D542828 		.ascii	"MT((_rmat), 1, 2) * (_vin).z; (_vout).z = RMAT_ELMT"
 12310      5F726D61 
 12310      74292C20 
ARM GAS  /tmp/cceVa9lb.s 			page 263


 12310      312C2032 
 12310      29202A20 
 12311 55fc 28285F72 		.ascii	"((_rmat), 2, 0) * (_vin).x + RMAT_ELMT((_rmat), 2, "
 12311      6D617429 
 12311      2C20322C 
 12311      20302920 
 12311      2A20285F 
 12312 562f 3129202A 		.ascii	"1) * (_vin).y + RMAT_ELMT((_rmat), 2, 2) * (_vin).z"
 12312      20285F76 
 12312      696E292E 
 12312      79202B20 
 12312      524D4154 
 12313 5662 3B207D00 		.ascii	"; }\000"
 12314              	.LASF250:
 12315 5666 5F5F4652 		.ascii	"__FRACT_MIN__ (-0.5R-0.5R)\000"
 12315      4143545F 
 12315      4D494E5F 
 12315      5F20282D 
 12315      302E3552 
 12316              	.LASF263:
 12317 5681 5F5F554C 		.ascii	"__ULFRACT_FBIT__ 32\000"
 12317      46524143 
 12317      545F4642 
 12317      49545F5F 
 12317      20333200 
 12318              	.LASF837:
 12319 5695 5F5F474E 		.ascii	"__GNUCLIKE_BUILTIN_MEMCPY 1\000"
 12319      55434C49 
 12319      4B455F42 
 12319      55494C54 
 12319      494E5F4D 
 12320              	.LASF683:
 12321 56b1 5F5F5F69 		.ascii	"___int_size_t_h \000"
 12321      6E745F73 
 12321      697A655F 
 12321      745F6820 
 12321      00
 12322              	.LASF900:
 12323 56c2 5F5F7379 		.ascii	"__sym_default(sym,impl,verid) __asm__(\".symver \" "
 12323      6D5F6465 
 12323      6661756C 
 12323      74287379 
 12323      6D2C696D 
 12324 56f3 23696D70 		.ascii	"#impl \", \" #sym \"@@\" #verid)\000"
 12324      6C20222C 
 12324      20222023 
 12324      73796D20 
 12324      22404022 
 12325              	.LASF1425:
 12326 5710 45554C45 		.ascii	"EULERS_FLOAT_OF_BFP(_ef,_ei) { (_ef).phi = ANGLE_FL"
 12326      52535F46 
 12326      4C4F4154 
 12326      5F4F465F 
 12326      42465028 
 12327 5743 4F41545F 		.ascii	"OAT_OF_BFP((_ei).phi); (_ef).theta = ANGLE_FLOAT_OF"
 12327      4F465F42 
 12327      46502828 
ARM GAS  /tmp/cceVa9lb.s 			page 264


 12327      5F656929 
 12327      2E706869 
 12328 5776 5F424650 		.ascii	"_BFP((_ei).theta); (_ef).psi = ANGLE_FLOAT_OF_BFP(("
 12328      28285F65 
 12328      69292E74 
 12328      68657461 
 12328      293B2028 
 12329 57a9 5F656929 		.ascii	"_ei).psi); }\000"
 12329      2E707369 
 12329      293B207D 
 12329      00
 12330              	.LASF1569:
 12331 57b6 65636566 		.ascii	"ecef_of_ned_point_d\000"
 12331      5F6F665F 
 12331      6E65645F 
 12331      706F696E 
 12331      745F6400 
 12332              	.LASF1192:
 12333 57ca 5F5F5052 		.ascii	"__PRI64LEAST(x) __LEAST64 __STRINGIFY(x)\000"
 12333      4936344C 
 12333      45415354 
 12333      28782920 
 12333      5F5F4C45 
 12334              	.LASF369:
 12335 57f3 5F5F4743 		.ascii	"__GCC_ATOMIC_LONG_LOCK_FREE 2\000"
 12335      435F4154 
 12335      4F4D4943 
 12335      5F4C4F4E 
 12335      475F4C4F 
 12336              	.LASF966:
 12337 5811 5F474343 		.ascii	"_GCC_STDINT_H \000"
 12337      5F535444 
 12337      494E545F 
 12337      482000
 12338              	.LASF1213:
 12339 5820 5052496F 		.ascii	"PRIoPTR __PRIPTR(o)\000"
 12339      50545220 
 12339      5F5F5052 
 12339      49505452 
 12339      286F2900 
 12340              	.LASF1052:
 12341 5834 50545244 		.ascii	"PTRDIFF_MAX __PTRDIFF_MAX__\000"
 12341      4946465F 
 12341      4D415820 
 12341      5F5F5054 
 12341      52444946 
 12342              	.LASF439:
 12343 5850 5F5F4758 		.ascii	"__GXX_TYPEINFO_EQUALITY_INLINE 0\000"
 12343      585F5459 
 12343      5045494E 
 12343      464F5F45 
 12343      5155414C 
 12344              	.LASF765:
 12345 5871 5F524545 		.ascii	"_REENT_STDIO_STREAM(var,index) &(var)->__sf[index]\000"
 12345      4E545F53 
 12345      5444494F 
 12345      5F535452 
ARM GAS  /tmp/cceVa9lb.s 			page 265


 12345      45414D28 
 12346              	.LASF330:
 12347 58a4 5F5F5548 		.ascii	"__UHQ_FBIT__ 16\000"
 12347      515F4642 
 12347      49545F5F 
 12347      20313600 
 12348              	.LASF1530:
 12349 58b4 75696E74 		.ascii	"uint8_t\000"
 12349      385F7400 
 12350              	.LASF1195:
 12351 58bc 5F5F5343 		.ascii	"__SCN64FAST(x) __FAST64 __STRINGIFY(x)\000"
 12351      4E363446 
 12351      41535428 
 12351      7829205F 
 12351      5F464153 
 12352              	.LASF1320:
 12353 58e3 4F722878 		.ascii	"Or(x,y) ((x) || (y))\000"
 12353      2C792920 
 12353      28287829 
 12353      207C7C20 
 12353      28792929 
 12354              	.LASF452:
 12355 58f8 424F4152 		.ascii	"BOARD_CONFIG \"boards/apogee/chibios/v1.0/board.h\""
 12355      445F434F 
 12355      4E464947 
 12355      2022626F 
 12355      61726473 
 12356 5929 00       		.ascii	"\000"
 12357              	.LASF932:
 12358 592a 5F535953 		.ascii	"_SYS__LOCALE_H \000"
 12358      5F5F4C4F 
 12358      43414C45 
 12358      5F482000 
 12359              	.LASF1101:
 12360 593a 50524969 		.ascii	"PRIiLEAST8 __PRI8LEAST(i)\000"
 12360      4C454153 
 12360      5438205F 
 12360      5F505249 
 12360      384C4541 
 12361              	.LASF1434:
 12362 5954 504F5349 		.ascii	"POSITIONS_BFP_OF_REAL(_ef,_ei) { (_ef).x = POS_BFP_"
 12362      54494F4E 
 12362      535F4246 
 12362      505F4F46 
 12362      5F524541 
 12363 5987 4F465F52 		.ascii	"OF_REAL((_ei).x); (_ef).y = POS_BFP_OF_REAL((_ei).y"
 12363      45414C28 
 12363      285F6569 
 12363      292E7829 
 12363      3B20285F 
 12364 59ba 293B2028 		.ascii	"); (_ef).z = POS_BFP_OF_REAL((_ei).z); }\000"
 12364      5F656629 
 12364      2E7A203D 
 12364      20504F53 
 12364      5F424650 
 12365              	.LASF705:
 12366 59e3 4E554C4C 		.ascii	"NULL\000"
ARM GAS  /tmp/cceVa9lb.s 			page 266


 12366      00
 12367              	.LASF539:
 12368 59e8 44424C5F 		.ascii	"DBL_MANT_DIG __DBL_MANT_DIG__\000"
 12368      4D414E54 
 12368      5F444947 
 12368      205F5F44 
 12368      424C5F4D 
 12369              	.LASF834:
 12370 5a06 5F5F636F 		.ascii	"__compiler_membar() __asm __volatile(\" \" : : : \""
 12370      6D70696C 
 12370      65725F6D 
 12370      656D6261 
 12370      72282920 
 12371 5a36 6D656D6F 		.ascii	"memory\")\000"
 12371      72792229 
 12371      00
 12372              	.LASF203:
 12373 5a3f 5F5F464C 		.ascii	"__FLT32_DENORM_MIN__ 1.4012984643248171e-45F32\000"
 12373      5433325F 
 12373      44454E4F 
 12373      524D5F4D 
 12373      494E5F5F 
 12374              	.LASF1481:
 12375 5a6e 464C4F41 		.ascii	"FLOAT_QUAT_INV_COMP(_b2c,_a2b,_a2c) WARNING(\"FLOAT"
 12375      545F5155 
 12375      41545F49 
 12375      4E565F43 
 12375      4F4D5028 
 12376 5aa0 5F515541 		.ascii	"_QUAT_INV_COMP macro is deprecated, use the lower c"
 12376      545F494E 
 12376      565F434F 
 12376      4D50206D 
 12376      6163726F 
 12377 5ad3 61736520 		.ascii	"ase function instead\") float_quat_inv_comp(&(_b2c)"
 12377      66756E63 
 12377      74696F6E 
 12377      20696E73 
 12377      74656164 
 12378 5b05 2C202628 		.ascii	", &(_a2b), &(_a2c))\000"
 12378      5F613262 
 12378      292C2026 
 12378      285F6132 
 12378      63292900 
 12379              	.LASF638:
 12380 5b19 5F5F5356 		.ascii	"__SVID_VISIBLE 1\000"
 12380      49445F56 
 12380      49534942 
 12380      4C452031 
 12380      00
 12381              	.LASF1560:
 12382 5b2a 73696E5F 		.ascii	"sin_phi\000"
 12382      70686900 
 12383              	.LASF160:
 12384 5b32 5F5F4650 		.ascii	"__FP_FAST_FMAF 1\000"
 12384      5F464153 
 12384      545F464D 
 12384      41462031 
ARM GAS  /tmp/cceVa9lb.s 			page 267


 12384      00
 12385              	.LASF564:
 12386 5b43 4C44424C 		.ascii	"LDBL_MAX_EXP __LDBL_MAX_EXP__\000"
 12386      5F4D4158 
 12386      5F455850 
 12386      205F5F4C 
 12386      44424C5F 
 12387              	.LASF74:
 12388 5b61 5F5F5743 		.ascii	"__WCHAR_MIN__ 0U\000"
 12388      4841525F 
 12388      4D494E5F 
 12388      5F203055 
 12388      00
 12389              	.LASF1581:
 12390 5b72 615F6368 		.ascii	"a_chi\000"
 12390      6900
 12391              	.LASF1280:
 12392 5b78 4D5F4C4F 		.ascii	"M_LOG2_E _M_LN2\000"
 12392      47325F45 
 12392      205F4D5F 
 12392      4C4E3200 
 12393              	.LASF769:
 12394 5b88 5F524545 		.ascii	"_REENT_CHECK_MP(ptr) \000"
 12394      4E545F43 
 12394      4845434B 
 12394      5F4D5028 
 12394      70747229 
 12395              	.LASF1493:
 12396 5b9e 464C4F41 		.ascii	"FLOAT_QUAT_OF_ORIENTATION_VECT(_q,_ov) WARNING(\"FL"
 12396      545F5155 
 12396      41545F4F 
 12396      465F4F52 
 12396      49454E54 
 12397 5bd0 4F41545F 		.ascii	"OAT_QUAT_OF_ORIENTATION_VECT macro is deprecated, u"
 12397      51554154 
 12397      5F4F465F 
 12397      4F524945 
 12397      4E544154 
 12398 5c03 73652074 		.ascii	"se the lower case function instead\") float_quat_of"
 12398      6865206C 
 12398      6F776572 
 12398      20636173 
 12398      65206675 
 12399 5c35 5F6F7269 		.ascii	"_orientation_vect(&(_q), &(_ov))\000"
 12399      656E7461 
 12399      74696F6E 
 12399      5F766563 
 12399      74282628 
 12400              	.LASF373:
 12401 5c56 5F5F4841 		.ascii	"__HAVE_SPECULATION_SAFE_VALUE 1\000"
 12401      56455F53 
 12401      50454355 
 12401      4C415449 
 12401      4F4E5F53 
 12402              	.LASF1135:
 12403 5c76 53434E64 		.ascii	"SCNdLEAST16 __SCN16LEAST(d)\000"
 12403      4C454153 
ARM GAS  /tmp/cceVa9lb.s 			page 268


 12403      54313620 
 12403      5F5F5343 
 12403      4E31364C 
 12404              	.LASF1543:
 12405 5c92 4C747044 		.ascii	"LtpDef_d\000"
 12405      65665F64 
 12405      00
 12406              	.LASF701:
 12407 5c9b 5F474343 		.ascii	"_GCC_WCHAR_T \000"
 12407      5F574348 
 12407      41525F54 
 12407      2000
 12408              	.LASF1149:
 12409 5ca9 53434E75 		.ascii	"SCNuFAST16 __SCN16FAST(u)\000"
 12409      46415354 
 12409      3136205F 
 12409      5F53434E 
 12409      31364641 
 12410              	.LASF738:
 12411 5cc3 5F5F4C4F 		.ascii	"__LOCK_INIT(class,lock) static int lock = 0;\000"
 12411      434B5F49 
 12411      4E495428 
 12411      636C6173 
 12411      732C6C6F 
 12412              	.LASF1578:
 12413 5cf0 636F735F 		.ascii	"cos_lat\000"
 12413      6C617400 
 12414              	.LASF954:
 12415 5cf8 5F5F494E 		.ascii	"__INT8 \"hh\"\000"
 12415      54382022 
 12415      68682200 
 12416              	.LASF272:
 12417 5d04 5F5F4C4C 		.ascii	"__LLFRACT_EPSILON__ 0x1P-63LLR\000"
 12417      46524143 
 12417      545F4550 
 12417      53494C4F 
 12417      4E5F5F20 
 12418              	.LASF530:
 12419 5d23 5050525A 		.ascii	"PPRZ_ALGEBRA_DOUBLE_H \000"
 12419      5F414C47 
 12419      45425241 
 12419      5F444F55 
 12419      424C455F 
 12420              	.LASF131:
 12421 5d3a 5F5F494E 		.ascii	"__INT_FAST64_WIDTH__ 64\000"
 12421      545F4641 
 12421      53543634 
 12421      5F574944 
 12421      54485F5F 
 12422              	.LASF248:
 12423 5d52 5F5F4652 		.ascii	"__FRACT_FBIT__ 15\000"
 12423      4143545F 
 12423      46424954 
 12423      5F5F2031 
 12423      3500
 12424              	.LASF1424:
 12425 5d64 524D4154 		.ascii	"RMAT_COPY(_o,_i) { memcpy(&(_o), &(_i), sizeof(_o))"
ARM GAS  /tmp/cceVa9lb.s 			page 269


 12425      5F434F50 
 12425      59285F6F 
 12425      2C5F6929 
 12425      207B206D 
 12426 5d97 3B7D00   		.ascii	";}\000"
 12427              	.LASF854:
 12428 5d9a 5F5F6465 		.ascii	"__dead2 __attribute__((__noreturn__))\000"
 12428      61643220 
 12428      5F5F6174 
 12428      74726962 
 12428      7574655F 
 12429              	.LASF710:
 12430 5dc0 5F5F6E65 		.ascii	"__need_size_t \000"
 12430      65645F73 
 12430      697A655F 
 12430      742000
 12431              	.LASF13:
 12432 5dcf 5F5F4154 		.ascii	"__ATOMIC_ACQ_REL 4\000"
 12432      4F4D4943 
 12432      5F414351 
 12432      5F52454C 
 12432      203400
 12433              	.LASF1288:
 12434 5de2 56414C55 		.ascii	"VALUE_TO_STRING(x) #x\000"
 12434      455F544F 
 12434      5F535452 
 12434      494E4728 
 12434      78292023 
 12435              	.LASF306:
 12436 5df8 5F5F554C 		.ascii	"__ULACCUM_MAX__ 0XFFFFFFFFFFFFFFFFP-32ULK\000"
 12436      41434355 
 12436      4D5F4D41 
 12436      585F5F20 
 12436      30584646 
 12437              	.LASF98:
 12438 5e22 5F5F494E 		.ascii	"__INT32_MAX__ 0x7fffffffL\000"
 12438      5433325F 
 12438      4D41585F 
 12438      5F203078 
 12438      37666666 
 12439              	.LASF852:
 12440 5e3c 5F5F766F 		.ascii	"__volatile volatile\000"
 12440      6C617469 
 12440      6C652076 
 12440      6F6C6174 
 12440      696C6500 
 12441              	.LASF1483:
 12442 5e50 464C4F41 		.ascii	"FLOAT_QUAT_COMP_NORM_SHORTEST(_a2c,_a2b,_b2c) WARNI"
 12442      545F5155 
 12442      41545F43 
 12442      4F4D505F 
 12442      4E4F524D 
 12443 5e83 4E472822 		.ascii	"NG(\"FLOAT_QUAT_COMP_NORM_SHORTEST macro is depreca"
 12443      464C4F41 
 12443      545F5155 
 12443      41545F43 
 12443      4F4D505F 
ARM GAS  /tmp/cceVa9lb.s 			page 270


 12444 5eb5 7465642C 		.ascii	"ted, use the lower case function instead\") float_q"
 12444      20757365 
 12444      20746865 
 12444      206C6F77 
 12444      65722063 
 12445 5ee7 7561745F 		.ascii	"uat_comp_norm_shortest(&(_a2c), &(_a2b), &(_b2c))\000"
 12445      636F6D70 
 12445      5F6E6F72 
 12445      6D5F7368 
 12445      6F727465 
 12446              	.LASF358:
 12447 5f19 5F5F4348 		.ascii	"__CHAR_UNSIGNED__ 1\000"
 12447      41525F55 
 12447      4E534947 
 12447      4E45445F 
 12447      5F203100 
 12448              	.LASF1361:
 12449 5f2d 56454354 		.ascii	"VECT3_ADD_SCALED(_a,_b,_s) { (_a).x += ((_b).x * (_"
 12449      335F4144 
 12449      445F5343 
 12449      414C4544 
 12449      285F612C 
 12450 5f60 7329293B 		.ascii	"s)); (_a).y += ((_b).y * (_s)); (_a).z += ((_b).z *"
 12450      20285F61 
 12450      292E7920 
 12450      2B3D2028 
 12450      285F6229 
 12451 5f93 20285F73 		.ascii	" (_s)); }\000"
 12451      29293B20 
 12451      7D00
 12452              	.LASF703:
 12453 5f9d 5F425344 		.ascii	"_BSD_WCHAR_T_\000"
 12453      5F574348 
 12453      41525F54 
 12453      5F00
 12454              	.LASF552:
 12455 5fab 4C44424C 		.ascii	"LDBL_MIN_EXP __LDBL_MIN_EXP__\000"
 12455      5F4D494E 
 12455      5F455850 
 12455      205F5F4C 
 12455      44424C5F 
 12456              	.LASF68:
 12457 5fc9 5F5F5343 		.ascii	"__SCHAR_MAX__ 0x7f\000"
 12457      4841525F 
 12457      4D41585F 
 12457      5F203078 
 12457      376600
 12458              	.LASF374:
 12459 5fdc 5F5F4743 		.ascii	"__GCC_HAVE_DWARF2_CFI_ASM 1\000"
 12459      435F4841 
 12459      56455F44 
 12459      57415246 
 12459      325F4346 
 12460              	.LASF974:
 12461 5ff8 494E5431 		.ascii	"INT16_MAX __INT16_MAX__\000"
 12461      365F4D41 
 12461      58205F5F 
ARM GAS  /tmp/cceVa9lb.s 			page 271


 12461      494E5431 
 12461      365F4D41 
 12462              	.LASF677:
 12463 6010 5F53495A 		.ascii	"_SIZE_T_ \000"
 12463      455F545F 
 12463      2000
 12464              	.LASF558:
 12465 601a 4C44424C 		.ascii	"LDBL_MIN_10_EXP __LDBL_MIN_10_EXP__\000"
 12465      5F4D494E 
 12465      5F31305F 
 12465      45585020 
 12465      5F5F4C44 
 12466              	.LASF1469:
 12467 603e 464C4F41 		.ascii	"FLOAT_RMAT_OF_EULERS_312(_rm,_e) WARNING(\"FLOAT_RM"
 12467      545F524D 
 12467      41545F4F 
 12467      465F4555 
 12467      4C455253 
 12468 6070 41545F4F 		.ascii	"AT_OF_EULERS_312 macro is deprecated, use the lower"
 12468      465F4555 
 12468      4C455253 
 12468      5F333132 
 12468      206D6163 
 12469 60a3 20636173 		.ascii	" case function instead\") float_rmat_of_eulers_312("
 12469      65206675 
 12469      6E637469 
 12469      6F6E2069 
 12469      6E737465 
 12470 60d5 26285F72 		.ascii	"&(_rm), &(_e))\000"
 12470      6D292C20 
 12470      26285F65 
 12470      292900
 12471              	.LASF1515:
 12472 60e4 55746D5A 		.ascii	"UtmZoneOfLlaLonRad(lla_lon) (floor(DegOfRad(lla_lon"
 12472      6F6E654F 
 12472      664C6C61 
 12472      4C6F6E52 
 12472      6164286C 
 12473 6117 29202B20 		.ascii	") + 180) / 6) + 1\000"
 12473      31383029 
 12473      202F2036 
 12473      29202B20 
 12473      3100
 12474              	.LASF1303:
 12475 6129 54525545 		.ascii	"TRUE true\000"
 12475      20747275 
 12475      6500
 12476              	.LASF276:
 12477 6133 5F5F554C 		.ascii	"__ULLFRACT_MAX__ 0XFFFFFFFFFFFFFFFFP-64ULLR\000"
 12477      4C465241 
 12477      43545F4D 
 12477      41585F5F 
 12477      20305846 
 12478              	.LASF1499:
 12479 615f 4D414B45 		.ascii	"MAKE_MATRIX_PTR(_ptr,_mat,_rows) float * _ptr[_rows"
 12479      5F4D4154 
 12479      5249585F 
ARM GAS  /tmp/cceVa9lb.s 			page 272


 12479      50545228 
 12479      5F707472 
 12480 6192 5D3B207B 		.ascii	"]; { int __i; for (__i = 0; __i < _rows; __i++) { _"
 12480      20696E74 
 12480      205F5F69 
 12480      3B20666F 
 12480      7220285F 
 12481 61c5 7074725B 		.ascii	"ptr[__i] = &_mat[__i][0]; } }\000"
 12481      5F5F695D 
 12481      203D2026 
 12481      5F6D6174 
 12481      5B5F5F69 
 12482              	.LASF669:
 12483 61e3 5F5F6E65 		.ascii	"__need_ptrdiff_t\000"
 12483      65645F70 
 12483      74726469 
 12483      66665F74 
 12483      00
 12484              	.LASF1440:
 12485 61f4 4D414753 		.ascii	"MAGS_BFP_OF_REAL(_ef,_ei) { (_ef).x = MAG_BFP_OF_RE"
 12485      5F424650 
 12485      5F4F465F 
 12485      5245414C 
 12485      285F6566 
 12486 6227 414C2828 		.ascii	"AL((_ei).x); (_ef).y = MAG_BFP_OF_REAL((_ei).y); (_"
 12486      5F656929 
 12486      2E78293B 
 12486      20285F65 
 12486      66292E79 
 12487 625a 6566292E 		.ascii	"ef).z = MAG_BFP_OF_REAL((_ei).z); }\000"
 12487      7A203D20 
 12487      4D41475F 
 12487      4246505F 
 12487      4F465F52 
 12488              	.LASF338:
 12489 627e 5F5F4841 		.ascii	"__HA_FBIT__ 7\000"
 12489      5F464249 
 12489      545F5F20 
 12489      3700
 12490              	.LASF1349:
 12491 628c 56454354 		.ascii	"VECT2_DIFF(_c,_a,_b) { (_c).x = (_a).x - (_b).x; (_"
 12491      325F4449 
 12491      4646285F 
 12491      632C5F61 
 12491      2C5F6229 
 12492 62bf 63292E79 		.ascii	"c).y = (_a).y - (_b).y; }\000"
 12492      203D2028 
 12492      5F61292E 
 12492      79202D20 
 12492      285F6229 
 12493              	.LASF295:
 12494 62d9 5F5F5541 		.ascii	"__UACCUM_MIN__ 0.0UK\000"
 12494      4343554D 
 12494      5F4D494E 
 12494      5F5F2030 
 12494      2E30554B 
 12495              	.LASF889:
ARM GAS  /tmp/cceVa9lb.s 			page 273


 12496 62ee 5F5F636F 		.ascii	"__containerof(x,s,m) ({ const volatile __typeof(((s"
 12496      6E746169 
 12496      6E65726F 
 12496      6628782C 
 12496      732C6D29 
 12497 6321 202A2930 		.ascii	" *)0)->m) *__x = (x); __DEQUALIFY(s *, (const volat"
 12497      292D3E6D 
 12497      29202A5F 
 12497      5F78203D 
 12497      20287829 
 12498 6354 696C6520 		.ascii	"ile char *)__x - __offsetof(s, m));})\000"
 12498      63686172 
 12498      202A295F 
 12498      5F78202D 
 12498      205F5F6F 
 12499              	.LASF1004:
 12500 637a 494E545F 		.ascii	"INT_LEAST32_MAX __INT_LEAST32_MAX__\000"
 12500      4C454153 
 12500      5433325F 
 12500      4D415820 
 12500      5F5F494E 
 12501              	.LASF823:
 12502 639e 5F5F474E 		.ascii	"__GNUCLIKE_ASM 3\000"
 12502      55434C49 
 12502      4B455F41 
 12502      534D2033 
 12502      00
 12503              	.LASF430:
 12504 63af 5F5F4152 		.ascii	"__ARM_ASM_SYNTAX_UNIFIED__ 1\000"
 12504      4D5F4153 
 12504      4D5F5359 
 12504      4E544158 
 12504      5F554E49 
 12505              	.LASF1479:
 12506 63cc 464C4F41 		.ascii	"FLOAT_QUAT_COMP(_a2c,_a2b,_b2c) WARNING(\"FLOAT_QUA"
 12506      545F5155 
 12506      41545F43 
 12506      4F4D5028 
 12506      5F613263 
 12507 63fe 545F434F 		.ascii	"T_COMP macro is deprecated, use the lower case func"
 12507      4D50206D 
 12507      6163726F 
 12507      20697320 
 12507      64657072 
 12508 6431 74696F6E 		.ascii	"tion instead\") float_quat_comp(&(_a2c), &(_a2b), &"
 12508      20696E73 
 12508      74656164 
 12508      22292066 
 12508      6C6F6174 
 12509 6463 285F6232 		.ascii	"(_b2c))\000"
 12509      63292900 
 12510              	.LASF1367:
 12511 646b 56454354 		.ascii	"VECT3_EW_DIV(_vo,_va,_vb) { (_vo).x = (_va).x / (_v"
 12511      335F4557 
 12511      5F444956 
 12511      285F766F 
 12511      2C5F7661 
ARM GAS  /tmp/cceVa9lb.s 			page 274


 12512 649e 62292E78 		.ascii	"b).x; (_vo).y = (_va).y / (_vb).y; (_vo).z = (_va)."
 12512      3B20285F 
 12512      766F292E 
 12512      79203D20 
 12512      285F7661 
 12513 64d1 7A202F20 		.ascii	"z / (_vb).z; }\000"
 12513      285F7662 
 12513      292E7A3B 
 12513      207D00
 12514              	.LASF1153:
 12515 64e0 5F5F5052 		.ascii	"__PRI32LEAST(x) __LEAST32 __STRINGIFY(x)\000"
 12515      4933324C 
 12515      45415354 
 12515      28782920 
 12515      5F5F4C45 
 12516              	.LASF583:
 12517 6509 464C545F 		.ascii	"FLT_MIN\000"
 12517      4D494E00 
 12518              	.LASF1402:
 12519 6511 4D415433 		.ascii	"MAT33_VECT3_TRANSP_MUL(_vout,_mat,_vin) { (_vout).x"
 12519      335F5645 
 12519      4354335F 
 12519      5452414E 
 12519      53505F4D 
 12520 6544 203D204D 		.ascii	" = MAT33_ELMT((_mat), 0, 0) * (_vin).x + MAT33_ELMT"
 12520      41543333 
 12520      5F454C4D 
 12520      5428285F 
 12520      6D617429 
 12521 6577 28285F6D 		.ascii	"((_mat), 1, 0) * (_vin).y + MAT33_ELMT((_mat), 2, 0"
 12521      6174292C 
 12521      20312C20 
 12521      3029202A 
 12521      20285F76 
 12522 65aa 29202A20 		.ascii	") * (_vin).z; (_vout).y = MAT33_ELMT((_mat), 0, 1) "
 12522      285F7669 
 12522      6E292E7A 
 12522      3B20285F 
 12522      766F7574 
 12523 65dd 2A20285F 		.ascii	"* (_vin).x + MAT33_ELMT((_mat), 1, 1) * (_vin).y + "
 12523      76696E29 
 12523      2E78202B 
 12523      204D4154 
 12523      33335F45 
 12524 6610 4D415433 		.ascii	"MAT33_ELMT((_mat), 2, 1) * (_vin).z; (_vout).z = MA"
 12524      335F454C 
 12524      4D542828 
 12524      5F6D6174 
 12524      292C2032 
 12525 6643 5433335F 		.ascii	"T33_ELMT((_mat), 0, 2) * (_vin).x + MAT33_ELMT((_ma"
 12525      454C4D54 
 12525      28285F6D 
 12525      6174292C 
 12525      20302C20 
 12526 6676 74292C20 		.ascii	"t), 1, 2) * (_vin).y + MAT33_ELMT((_mat), 2, 2) * ("
 12526      312C2032 
 12526      29202A20 
ARM GAS  /tmp/cceVa9lb.s 			page 275


 12526      285F7669 
 12526      6E292E79 
 12527 66a9 5F76696E 		.ascii	"_vin).z; }\000"
 12527      292E7A3B 
 12527      207D00
 12528              	.LASF159:
 12529 66b4 5F5F464C 		.ascii	"__FLT_HAS_QUIET_NAN__ 1\000"
 12529      545F4841 
 12529      535F5155 
 12529      4945545F 
 12529      4E414E5F 
 12530              	.LASF1148:
 12531 66cc 53434E6F 		.ascii	"SCNoFAST16 __SCN16FAST(o)\000"
 12531      46415354 
 12531      3136205F 
 12531      5F53434E 
 12531      31364641 
 12532              	.LASF1038:
 12533 66e6 55494E54 		.ascii	"UINT_FAST64_MAX __UINT_FAST64_MAX__\000"
 12533      5F464153 
 12533      5436345F 
 12533      4D415820 
 12533      5F5F5549 
 12534              	.LASF944:
 12535 670a 7369676E 		.ascii	"signed +0\000"
 12535      6564202B 
 12535      3000
 12536              	.LASF576:
 12537 6714 4C44424C 		.ascii	"LDBL_MAX __LDBL_MAX__\000"
 12537      5F4D4158 
 12537      205F5F4C 
 12537      44424C5F 
 12537      4D41585F 
 12538              	.LASF231:
 12539 672a 5F5F464C 		.ascii	"__FLT32X_NORM_MAX__ 1.7976931348623157e+308F32x\000"
 12539      54333258 
 12539      5F4E4F52 
 12539      4D5F4D41 
 12539      585F5F20 
 12540              	.LASF1206:
 12541 675a 53434E6F 		.ascii	"SCNoMAX __SCNMAX(o)\000"
 12541      4D415820 
 12541      5F5F5343 
 12541      4E4D4158 
 12541      286F2900 
 12542              	.LASF1056:
 12543 676e 5349475F 		.ascii	"SIG_ATOMIC_MAX __SIG_ATOMIC_MAX__\000"
 12543      41544F4D 
 12543      49435F4D 
 12543      4158205F 
 12543      5F534947 
 12544              	.LASF767:
 12545 6790 5F524545 		.ascii	"_REENT_INIT_PTR_ZEROED(var) { (var)->_stdin = _REEN"
 12545      4E545F49 
 12545      4E49545F 
 12545      5054525F 
 12545      5A45524F 
ARM GAS  /tmp/cceVa9lb.s 			page 276


 12546 67c3 545F5354 		.ascii	"T_STDIO_STREAM(var, 0); (var)->_stdout = _REENT_STD"
 12546      44494F5F 
 12546      53545245 
 12546      414D2876 
 12546      61722C20 
 12547 67f6 494F5F53 		.ascii	"IO_STREAM(var, 1); (var)->_stderr = _REENT_STDIO_ST"
 12547      54524541 
 12547      4D287661 
 12547      722C2031 
 12547      293B2028 
 12548 6829 5245414D 		.ascii	"REAM(var, 2); (var)->_new._reent._rand_next = 1; (v"
 12548      28766172 
 12548      2C203229 
 12548      3B202876 
 12548      6172292D 
 12549 685c 6172292D 		.ascii	"ar)->_new._reent._r48._seed[0] = _RAND48_SEED_0; (v"
 12549      3E5F6E65 
 12549      772E5F72 
 12549      65656E74 
 12549      2E5F7234 
 12550 688f 6172292D 		.ascii	"ar)->_new._reent._r48._seed[1] = _RAND48_SEED_1; (v"
 12550      3E5F6E65 
 12550      772E5F72 
 12550      65656E74 
 12550      2E5F7234 
 12551 68c2 6172292D 		.ascii	"ar)->_new._reent._r48._seed[2] = _RAND48_SEED_2; (v"
 12551      3E5F6E65 
 12551      772E5F72 
 12551      65656E74 
 12551      2E5F7234 
 12552 68f5 6172292D 		.ascii	"ar)->_new._reent._r48._mult[0] = _RAND48_MULT_0; (v"
 12552      3E5F6E65 
 12552      772E5F72 
 12552      65656E74 
 12552      2E5F7234 
 12553 6928 6172292D 		.ascii	"ar)->_new._reent._r48._mult[1] = _RAND48_MULT_1; (v"
 12553      3E5F6E65 
 12553      772E5F72 
 12553      65656E74 
 12553      2E5F7234 
 12554 695b 6172292D 		.ascii	"ar)->_new._reent._r48._mult[2] = _RAND48_MULT_2; (v"
 12554      3E5F6E65 
 12554      772E5F72 
 12554      65656E74 
 12554      2E5F7234 
 12555 698e 6172292D 		.ascii	"ar)->_new._reent._r48._add = _RAND48_ADD; }\000"
 12555      3E5F6E65 
 12555      772E5F72 
 12555      65656E74 
 12555      2E5F7234 
 12556              	.LASF1087:
 12557 69ba 55494E54 		.ascii	"UINTMAX_C\000"
 12557      4D41585F 
 12557      4300
 12558              	.LASF781:
 12559 69c4 5F524545 		.ascii	"_REENT_MP_RESULT_K(ptr) ((ptr)->_result_k)\000"
 12559      4E545F4D 
ARM GAS  /tmp/cceVa9lb.s 			page 277


 12559      505F5245 
 12559      53554C54 
 12559      5F4B2870 
 12560              	.LASF79:
 12561 69ef 5F5F5343 		.ascii	"__SCHAR_WIDTH__ 8\000"
 12561      4841525F 
 12561      57494454 
 12561      485F5F20 
 12561      3800
 12562              	.LASF1404:
 12563 6a01 4D415433 		.ascii	"MAT33_ROW_VECT3_SMUL(_mat,_row,_vin,_s) { MAT33_ELM"
 12563      335F524F 
 12563      575F5645 
 12563      4354335F 
 12563      534D554C 
 12564 6a34 5428285F 		.ascii	"T((_mat), _row, 0) = (_vin).x * (_s); MAT33_ELMT((_"
 12564      6D617429 
 12564      2C205F72 
 12564      6F772C20 
 12564      3029203D 
 12565 6a67 6D617429 		.ascii	"mat), _row, 1) = (_vin).y * (_s); MAT33_ELMT((_mat)"
 12565      2C205F72 
 12565      6F772C20 
 12565      3129203D 
 12565      20285F76 
 12566 6a9a 2C205F72 		.ascii	", _row, 2) = (_vin).z * (_s); }\000"
 12566      6F772C20 
 12566      3229203D 
 12566      20285F76 
 12566      696E292E 
 12567              	.LASF1302:
 12568 6aba 46414C53 		.ascii	"FALSE false\000"
 12568      45206661 
 12568      6C736500 
 12569              	.LASF28:
 12570 6ac6 5F5F4F52 		.ascii	"__ORDER_PDP_ENDIAN__ 3412\000"
 12570      4445525F 
 12570      5044505F 
 12570      454E4449 
 12570      414E5F5F 
 12571              	.LASF1291:
 12572 6ae0 4D455353 		.ascii	"MESSAGE(x) DO_PRAGMA(message (x))\000"
 12572      41474528 
 12572      78292044 
 12572      4F5F5052 
 12572      41474D41 
 12573              	.LASF11:
 12574 6b02 5F5F4154 		.ascii	"__ATOMIC_ACQUIRE 2\000"
 12574      4F4D4943 
 12574      5F414351 
 12574      55495245 
 12574      203200
 12575              	.LASF1550:
 12576 6b15 6C616D62 		.ascii	"lambda_c\000"
 12576      64615F63 
 12576      00
 12577              	.LASF60:
ARM GAS  /tmp/cceVa9lb.s 			page 278


 12578 6b1e 5F5F494E 		.ascii	"__INT_FAST64_TYPE__ long long int\000"
 12578      545F4641 
 12578      53543634 
 12578      5F545950 
 12578      455F5F20 
 12579              	.LASF874:
 12580 6b40 5F5F6E6F 		.ascii	"__noinline __attribute__ ((__noinline__))\000"
 12580      696E6C69 
 12580      6E65205F 
 12580      5F617474 
 12580      72696275 
 12581              	.LASF288:
 12582 6b6a 5F5F4143 		.ascii	"__ACCUM_FBIT__ 15\000"
 12582      43554D5F 
 12582      46424954 
 12582      5F5F2031 
 12582      3500
 12583              	.LASF813:
 12584 6b7c 5F5F6174 		.ascii	"__attribute_pure__ \000"
 12584      74726962 
 12584      7574655F 
 12584      70757265 
 12584      5F5F2000 
 12585              	.LASF609:
 12586 6b90 5F484156 		.ascii	"_HAVE_LONG_DOUBLE 1\000"
 12586      455F4C4F 
 12586      4E475F44 
 12586      4F55424C 
 12586      45203100 
 12587              	.LASF1563:
 12588 6ba4 69736F6D 		.ascii	"isometric_latitude_d\000"
 12588      65747269 
 12588      635F6C61 
 12588      74697475 
 12588      64655F64 
 12589              	.LASF113:
 12590 6bb9 5F5F494E 		.ascii	"__INT_LEAST64_MAX__ 0x7fffffffffffffffLL\000"
 12590      545F4C45 
 12590      41535436 
 12590      345F4D41 
 12590      585F5F20 
 12591              	.LASF1439:
 12592 6be2 4D414753 		.ascii	"MAGS_FLOAT_OF_BFP(_ef,_ei) { (_ef).x = MAG_FLOAT_OF"
 12592      5F464C4F 
 12592      41545F4F 
 12592      465F4246 
 12592      50285F65 
 12593 6c15 5F424650 		.ascii	"_BFP((_ei).x); (_ef).y = MAG_FLOAT_OF_BFP((_ei).y);"
 12593      28285F65 
 12593      69292E78 
 12593      293B2028 
 12593      5F656629 
 12594 6c48 20285F65 		.ascii	" (_ef).z = MAG_FLOAT_OF_BFP((_ei).z); }\000"
 12594      66292E7A 
 12594      203D204D 
 12594      41475F46 
 12594      4C4F4154 
ARM GAS  /tmp/cceVa9lb.s 			page 279


 12595              	.LASF380:
 12596 6c70 5F5F4152 		.ascii	"__ARM_FEATURE_QBIT 1\000"
 12596      4D5F4645 
 12596      41545552 
 12596      455F5142 
 12596      49542031 
 12597              	.LASF121:
 12598 6c85 5F5F5549 		.ascii	"__UINT32_C(c) c ## UL\000"
 12598      4E543332 
 12598      5F432863 
 12598      29206320 
 12598      23232055 
 12599              	.LASF1212:
 12600 6c9b 50524969 		.ascii	"PRIiPTR __PRIPTR(i)\000"
 12600      50545220 
 12600      5F5F5052 
 12600      49505452 
 12600      28692900 
 12601              	.LASF1082:
 12602 6caf 55494E54 		.ascii	"UINT32_C(c) __UINT32_C(c)\000"
 12602      33325F43 
 12602      28632920 
 12602      5F5F5549 
 12602      4E543332 
 12603              	.LASF935:
 12604 6cc9 5F494E54 		.ascii	"_INTTYPES_H \000"
 12604      54595045 
 12604      535F4820 
 12604      00
 12605              	.LASF383:
 12606 6cd6 5F5F4152 		.ascii	"__ARM_FEATURE_UNALIGNED 1\000"
 12606      4D5F4645 
 12606      41545552 
 12606      455F554E 
 12606      414C4947 
 12607              	.LASF1495:
 12608 6cf0 464C4F41 		.ascii	"FLOAT_EULERS_ZERO(_e) EULERS_ASSIGN(_e, 0., 0., 0.)"
 12608      545F4555 
 12608      4C455253 
 12608      5F5A4552 
 12608      4F285F65 
 12609 6d23 3B00     		.ascii	";\000"
 12610              	.LASF959:
 12611 6d25 5F5F4641 		.ascii	"__FAST16 \000"
 12611      53543136 
 12611      2000
 12612              	.LASF860:
 12613 6d2f 5F5F7365 		.ascii	"__section(x) __attribute__((__section__(x)))\000"
 12613      6374696F 
 12613      6E287829 
 12613      205F5F61 
 12613      74747269 
 12614              	.LASF2:
 12615 6d5c 5F5F5354 		.ascii	"__STDC_UTF_16__ 1\000"
 12615      44435F55 
 12615      54465F31 
 12615      365F5F20 
ARM GAS  /tmp/cceVa9lb.s 			page 280


 12615      3100
 12616              	.LASF818:
 12617 6d6e 5F5F7074 		.ascii	"__ptrvalue \000"
 12617      7276616C 
 12617      75652000 
 12618              	.LASF289:
 12619 6d7a 5F5F4143 		.ascii	"__ACCUM_IBIT__ 16\000"
 12619      43554D5F 
 12619      49424954 
 12619      5F5F2031 
 12619      3600
 12620              	.LASF990:
 12621 6d8c 55494E54 		.ascii	"UINT64_MAX __UINT64_MAX__\000"
 12621      36345F4D 
 12621      4158205F 
 12621      5F55494E 
 12621      5436345F 
 12622              	.LASF1230:
 12623 6da6 48554745 		.ascii	"HUGE_VALF (__builtin_huge_valf())\000"
 12623      5F56414C 
 12623      4620285F 
 12623      5F627569 
 12623      6C74696E 
 12624              	.LASF1482:
 12625 6dc8 464C4F41 		.ascii	"FLOAT_QUAT_COMP_INV(_a2b,_a2c,_b2c) WARNING(\"FLOAT"
 12625      545F5155 
 12625      41545F43 
 12625      4F4D505F 
 12625      494E5628 
 12626 6dfa 5F515541 		.ascii	"_QUAT_COMP_INV macro is deprecated, use the lower c"
 12626      545F434F 
 12626      4D505F49 
 12626      4E56206D 
 12626      6163726F 
 12627 6e2d 61736520 		.ascii	"ase function instead\") float_quat_comp_inv(&(_a2b)"
 12627      66756E63 
 12627      74696F6E 
 12627      20696E73 
 12627      74656164 
 12628 6e5f 2C202628 		.ascii	", &(_a2c), &(_b2c))\000"
 12628      5F613263 
 12628      292C2026 
 12628      285F6232 
 12628      63292900 
 12629              	.LASF92:
 12630 6e73 5F5F494E 		.ascii	"__INTMAX_WIDTH__ 64\000"
 12630      544D4158 
 12630      5F574944 
 12630      54485F5F 
 12630      20363400 
 12631              	.LASF479:
 12632 6e87 4D41585F 		.ascii	"MAX_FLI 16\000"
 12632      464C4920 
 12632      313600
 12633              	.LASF1457:
 12634 6e92 666C6F61 		.ascii	"float_rmat_of_eulers float_rmat_of_eulers_321\000"
 12634      745F726D 
ARM GAS  /tmp/cceVa9lb.s 			page 281


 12634      61745F6F 
 12634      665F6575 
 12634      6C657273 
 12635              	.LASF594:
 12636 6ec0 44454349 		.ascii	"DECIMAL_DIG __DECIMAL_DIG__\000"
 12636      4D414C5F 
 12636      44494720 
 12636      5F5F4445 
 12636      43494D41 
 12637              	.LASF392:
 12638 6edc 5F5F4152 		.ascii	"__ARM_FEATURE_LDREX 7\000"
 12638      4D5F4645 
 12638      41545552 
 12638      455F4C44 
 12638      52455820 
 12639              	.LASF1187:
 12640 6ef2 53434E6F 		.ascii	"SCNoFAST32 __SCN32FAST(o)\000"
 12640      46415354 
 12640      3332205F 
 12640      5F53434E 
 12640      33324641 
 12641              	.LASF115:
 12642 6f0c 5F5F494E 		.ascii	"__INT_LEAST64_WIDTH__ 64\000"
 12642      545F4C45 
 12642      41535436 
 12642      345F5749 
 12642      4454485F 
 12643              	.LASF1300:
 12644 6f25 53545249 		.ascii	"STRINGIFY(s) _STRINGIFY(s)\000"
 12644      4E474946 
 12644      59287329 
 12644      205F5354 
 12644      52494E47 
 12645              	.LASF1175:
 12646 6f40 53434E69 		.ascii	"SCNiLEAST32 __SCN32LEAST(i)\000"
 12646      4C454153 
 12646      54333220 
 12646      5F5F5343 
 12646      4E33324C 
 12647              	.LASF913:
 12648 6f5c 5F5F4E55 		.ascii	"__NULLABILITY_PRAGMA_POP \000"
 12648      4C4C4142 
 12648      494C4954 
 12648      595F5052 
 12648      41474D41 
 12649              	.LASF1451:
 12650 6f76 464C4F41 		.ascii	"FLOAT_RATES_LIN_CMB(_ro,_r1,_s1,_r2,_s2) { _ro.p = "
 12650      545F5241 
 12650      5445535F 
 12650      4C494E5F 
 12650      434D4228 
 12651 6fa9 5F733120 		.ascii	"_s1 * _r1.p + _s2 * _r2.p; _ro.q = _s1 * _r1.q + _s"
 12651      2A205F72 
 12651      312E7020 
 12651      2B205F73 
 12651      32202A20 
 12652 6fdc 32202A20 		.ascii	"2 * _r2.q; _ro.r = _s1 * _r1.r + _s2 * _r2.r; }\000"
ARM GAS  /tmp/cceVa9lb.s 			page 282


 12652      5F72322E 
 12652      713B205F 
 12652      726F2E72 
 12652      203D205F 
 12653              	.LASF598:
 12654 700c 5F4E4557 		.ascii	"_NEWLIB_VERSION_H__ 1\000"
 12654      4C49425F 
 12654      56455253 
 12654      494F4E5F 
 12654      485F5F20 
 12655              	.LASF1354:
 12656 7022 56454354 		.ascii	"VECT2_NORM2(_v) ((_v).x*(_v).x + (_v).y*(_v).y)\000"
 12656      325F4E4F 
 12656      524D3228 
 12656      5F762920 
 12656      28285F76 
 12657              	.LASF713:
 12658 7052 5F5F6E65 		.ascii	"__need_wint_t\000"
 12658      65645F77 
 12658      696E745F 
 12658      7400
 12659              	.LASF388:
 12660 7060 5F5F4152 		.ascii	"__ARM_32BIT_STATE 1\000"
 12660      4D5F3332 
 12660      4249545F 
 12660      53544154 
 12660      45203100 
 12661              	.LASF9:
 12662 7074 5F5F4154 		.ascii	"__ATOMIC_RELAXED 0\000"
 12662      4F4D4943 
 12662      5F52454C 
 12662      41584544 
 12662      203000
 12663              	.LASF1496:
 12664 7087 464C4F41 		.ascii	"FLOAT_EULERS_OF_RMAT(_e,_rm) WARNING(\"FLOAT_EULERS"
 12664      545F4555 
 12664      4C455253 
 12664      5F4F465F 
 12664      524D4154 
 12665 70b9 5F4F465F 		.ascii	"_OF_RMAT macro is deprecated, use the lower case fu"
 12665      524D4154 
 12665      206D6163 
 12665      726F2069 
 12665      73206465 
 12666 70ec 6E637469 		.ascii	"nction instead\") float_eulers_of_rmat(&(_e), &(_rm"
 12666      6F6E2069 
 12666      6E737465 
 12666      61642229 
 12666      20666C6F 
 12667 711e 292900   		.ascii	"))\000"
 12668              	.LASF261:
 12669 7121 5F5F4C46 		.ascii	"__LFRACT_MAX__ 0X7FFFFFFFP-31LR\000"
 12669      52414354 
 12669      5F4D4158 
 12669      5F5F2030 
 12669      58374646 
 12670              	.LASF186:
ARM GAS  /tmp/cceVa9lb.s 			page 283


 12671 7141 5F5F4C44 		.ascii	"__LDBL_MIN__ 2.2250738585072014e-308L\000"
 12671      424C5F4D 
 12671      494E5F5F 
 12671      20322E32 
 12671      32353037 
 12672              	.LASF281:
 12673 7167 5F5F5341 		.ascii	"__SACCUM_MAX__ 0X7FFFP-7HK\000"
 12673      4343554D 
 12673      5F4D4158 
 12673      5F5F2030 
 12673      58374646 
 12674              	.LASF1498:
 12675 7182 464C4F41 		.ascii	"FLOAT_EULERS_NORM(_e) WARNING(\"FLOAT_EULERS_NORM m"
 12675      545F4555 
 12675      4C455253 
 12675      5F4E4F52 
 12675      4D285F65 
 12676 71b4 6163726F 		.ascii	"acro is deprecated, use the lower case function ins"
 12676      20697320 
 12676      64657072 
 12676      65636174 
 12676      65642C20 
 12677 71e7 74656164 		.ascii	"tead\") float_eulers_norm(&(_e))\000"
 12677      22292066 
 12677      6C6F6174 
 12677      5F65756C 
 12677      6572735F 
 12678              	.LASF936:
 12679 7207 5F535953 		.ascii	"_SYS__INTSUP_H \000"
 12679      5F5F494E 
 12679      54535550 
 12679      5F482000 
 12680              	.LASF1345:
 12681 7217 56454354 		.ascii	"VECT2_COPY(_a,_b) { (_a).x = (_b).x; (_a).y = (_b)."
 12681      325F434F 
 12681      5059285F 
 12681      612C5F62 
 12681      29207B20 
 12682 724a 793B207D 		.ascii	"y; }\000"
 12682      00
 12683              	.LASF91:
 12684 724f 5F5F5549 		.ascii	"__UINTMAX_C(c) c ## ULL\000"
 12684      4E544D41 
 12684      585F4328 
 12684      63292063 
 12684      20232320 
 12685              	.LASF637:
 12686 7267 5F5F504F 		.ascii	"__POSIX_VISIBLE 200809\000"
 12686      5349585F 
 12686      56495349 
 12686      424C4520 
 12686      32303038 
 12687              	.LASF600:
 12688 727e 5F5F4E45 		.ascii	"__NEWLIB__ 3\000"
 12688      574C4942 
 12688      5F5F2033 
 12688      00
ARM GAS  /tmp/cceVa9lb.s 			page 284


 12689              	.LASF251:
 12690 728b 5F5F4652 		.ascii	"__FRACT_MAX__ 0X7FFFP-15R\000"
 12690      4143545F 
 12690      4D41585F 
 12690      5F203058 
 12690      37464646 
 12691              	.LASF1556:
 12692 72a5 65707369 		.ascii	"epsilon\000"
 12692      6C6F6E00 
 12693              	.LASF879:
 12694 72ad 5F5F7265 		.ascii	"__returns_twice __attribute__((__returns_twice__))\000"
 12694      7475726E 
 12694      735F7477 
 12694      69636520 
 12694      5F5F6174 
 12695              	.LASF461:
 12696 72e0 44415441 		.ascii	"DATALINK PPRZ\000"
 12696      4C494E4B 
 12696      20505052 
 12696      5A00
 12697              	.LASF780:
 12698 72ee 5F524545 		.ascii	"_REENT_MP_RESULT(ptr) ((ptr)->_result)\000"
 12698      4E545F4D 
 12698      505F5245 
 12698      53554C54 
 12698      28707472 
 12699              	.LASF139:
 12700 7315 5F5F4743 		.ascii	"__GCC_IEC_559 0\000"
 12700      435F4945 
 12700      435F3535 
 12700      39203000 
 12701              	.LASF627:
 12702 7325 5F504F53 		.ascii	"_POSIX_C_SOURCE\000"
 12702      49585F43 
 12702      5F534F55 
 12702      52434500 
 12703              	.LASF567:
 12704 7335 4C44424C 		.ascii	"LDBL_MAX_10_EXP\000"
 12704      5F4D4158 
 12704      5F31305F 
 12704      45585000 
 12705              	.LASF233:
 12706 7345 5F5F464C 		.ascii	"__FLT32X_EPSILON__ 2.2204460492503131e-16F32x\000"
 12706      54333258 
 12706      5F455053 
 12706      494C4F4E 
 12706      5F5F2032 
 12707              	.LASF497:
 12708 7373 54454C45 		.ascii	"TELEMETRY_FREQUENCY 100\000"
 12708      4D455452 
 12708      595F4652 
 12708      45515545 
 12708      4E435920 
 12709              	.LASF1183:
 12710 738b 50524978 		.ascii	"PRIxFAST32 __PRI32FAST(x)\000"
 12710      46415354 
 12710      3332205F 
ARM GAS  /tmp/cceVa9lb.s 			page 285


 12710      5F505249 
 12710      33324641 
 12711              	.LASF1586:
 12712 73a5 2F686F6D 		.ascii	"/home/argroos/paparazzi/sw/airborne\000"
 12712      652F6172 
 12712      67726F6F 
 12712      732F7061 
 12712      70617261 
 12713              	.LASF64:
 12714 73c9 5F5F5549 		.ascii	"__UINT_FAST64_TYPE__ long long unsigned int\000"
 12714      4E545F46 
 12714      41535436 
 12714      345F5459 
 12714      50455F5F 
 12715              	.LASF1381:
 12716 73f5 45554C45 		.ascii	"EULERS_SMUL(_eo,_ei,_s) { (_eo).phi = (_ei).phi * ("
 12716      52535F53 
 12716      4D554C28 
 12716      5F656F2C 
 12716      5F65692C 
 12717 7428 5F73293B 		.ascii	"_s); (_eo).theta = (_ei).theta * (_s); (_eo).psi = "
 12717      20285F65 
 12717      6F292E74 
 12717      68657461 
 12717      203D2028 
 12718 745b 285F6569 		.ascii	"(_ei).psi * (_s); }\000"
 12718      292E7073 
 12718      69202A20 
 12718      285F7329 
 12718      3B207D00 
 12719              	.LASF565:
 12720 746f 464C545F 		.ascii	"FLT_MAX_10_EXP\000"
 12720      4D41585F 
 12720      31305F45 
 12720      585000
 12721              	.LASF798:
 12722 747e 5F524545 		.ascii	"_REENT_GETDATE_ERR_P(ptr) (&((ptr)->_new._reent._ge"
 12722      4E545F47 
 12722      45544441 
 12722      54455F45 
 12722      52525F50 
 12723 74b1 74646174 		.ascii	"tdate_err))\000"
 12723      655F6572 
 12723      72292900 
 12724              	.LASF649:
 12725 74bd 5F454E44 		.ascii	"_END_STD_C \000"
 12725      5F535444 
 12725      5F432000 
 12726              	.LASF735:
 12727 74c9 5F4E554C 		.ascii	"_NULL 0\000"
 12727      4C203000 
 12728              	.LASF1431:
 12729 74d1 52415445 		.ascii	"RATES_FLOAT_OF_BFP(_rf,_ri) { (_rf).p = RATE_FLOAT_"
 12729      535F464C 
 12729      4F41545F 
 12729      4F465F42 
 12729      4650285F 
ARM GAS  /tmp/cceVa9lb.s 			page 286


 12730 7504 4F465F42 		.ascii	"OF_BFP((_ri).p); (_rf).q = RATE_FLOAT_OF_BFP((_ri)."
 12730      46502828 
 12730      5F726929 
 12730      2E70293B 
 12730      20285F72 
 12731 7537 71293B20 		.ascii	"q); (_rf).r = RATE_FLOAT_OF_BFP((_ri).r); }\000"
 12731      285F7266 
 12731      292E7220 
 12731      3D205241 
 12731      54455F46 
 12732              	.LASF688:
 12733 7563 5F5F7763 		.ascii	"__wchar_t__ \000"
 12733      6861725F 
 12733      745F5F20 
 12733      00
 12734              	.LASF535:
 12735 7570 464C545F 		.ascii	"FLT_MANT_DIG\000"
 12735      4D414E54 
 12735      5F444947 
 12735      00
 12736              	.LASF1539:
 12737 757d 55746D43 		.ascii	"UtmCoor_d\000"
 12737      6F6F725F 
 12737      6400
 12738              	.LASF930:
 12739 7587 5F5F7074 		.ascii	"__pt_guarded_by(x) __lock_annotate(pt_guarded_by(x)"
 12739      5F677561 
 12739      72646564 
 12739      5F627928 
 12739      7829205F 
 12740 75ba 2900     		.ascii	")\000"
 12741              	.LASF702:
 12742 75bc 5F574348 		.ascii	"_WCHAR_T_DECLARED \000"
 12742      41525F54 
 12742      5F444543 
 12742      4C415245 
 12742      442000
 12743              	.LASF861:
 12744 75cf 5F5F616C 		.ascii	"__alloc_size(x) __attribute__((__alloc_size__(x)))\000"
 12744      6C6F635F 
 12744      73697A65 
 12744      28782920 
 12744      5F5F6174 
 12745              	.LASF1186:
 12746 7602 53434E69 		.ascii	"SCNiFAST32 __SCN32FAST(i)\000"
 12746      46415354 
 12746      3332205F 
 12746      5F53434E 
 12746      33324641 
 12747              	.LASF772:
 12748 761c 5F524545 		.ascii	"_REENT_CHECK_EMERGENCY(ptr) \000"
 12748      4E545F43 
 12748      4845434B 
 12748      5F454D45 
 12748      5247454E 
 12749              	.LASF615:
 12750 7639 5F554E42 		.ascii	"_UNBUF_STREAM_OPT 1\000"
ARM GAS  /tmp/cceVa9lb.s 			page 287


 12750      55465F53 
 12750      54524541 
 12750      4D5F4F50 
 12750      54203100 
 12751              	.LASF438:
 12752 764d 5F5F4152 		.ascii	"__ARM_BF16_FORMAT_ALTERNATIVE\000"
 12752      4D5F4246 
 12752      31365F46 
 12752      4F524D41 
 12752      545F414C 
 12753              	.LASF599:
 12754 766b 5F4E4557 		.ascii	"_NEWLIB_VERSION \"3.3.0\"\000"
 12754      4C49425F 
 12754      56455253 
 12754      494F4E20 
 12754      22332E33 
 12755              	.LASF106:
 12756 7683 5F5F494E 		.ascii	"__INT_LEAST8_WIDTH__ 8\000"
 12756      545F4C45 
 12756      41535438 
 12756      5F574944 
 12756      54485F5F 
 12757              	.LASF5:
 12758 769a 5F5F474E 		.ascii	"__GNUC__ 10\000"
 12758      55435F5F 
 12758      20313000 
 12759              	.LASF431:
 12760 76a6 5F5F4152 		.ascii	"__ARM_FEATURE_COPROC\000"
 12760      4D5F4645 
 12760      41545552 
 12760      455F434F 
 12760      50524F43 
 12761              	.LASF58:
 12762 76bb 5F5F494E 		.ascii	"__INT_FAST16_TYPE__ int\000"
 12762      545F4641 
 12762      53543136 
 12762      5F545950 
 12762      455F5F20 
 12763              	.LASF1505:
 12764 76d3 444F5542 		.ascii	"DOUBLE_EULERS_OF_QUAT(_e,_q) WARNING(\"DOUBLE_EULER"
 12764      4C455F45 
 12764      554C4552 
 12764      535F4F46 
 12764      5F515541 
 12765 7705 535F4F46 		.ascii	"S_OF_QUAT macro is deprecated, use the lower case f"
 12765      5F515541 
 12765      54206D61 
 12765      63726F20 
 12765      69732064 
 12766 7738 756E6374 		.ascii	"unction instead\") double_eulers_of_quat(&(_e), &(_"
 12766      696F6E20 
 12766      696E7374 
 12766      65616422 
 12766      2920646F 
 12767 776a 71292900 		.ascii	"q))\000"
 12768              	.LASF534:
 12769 776e 464C545F 		.ascii	"FLT_RADIX __FLT_RADIX__\000"
ARM GAS  /tmp/cceVa9lb.s 			page 288


 12769      52414449 
 12769      58205F5F 
 12769      464C545F 
 12769      52414449 
 12770              	.LASF112:
 12771 7786 5F5F494E 		.ascii	"__INT_LEAST32_WIDTH__ 32\000"
 12771      545F4C45 
 12771      41535433 
 12771      325F5749 
 12771      4454485F 
 12772              	.LASF1304:
 12773 779f 6269745F 		.ascii	"bit_is_set(x,b) ((x >> b) & 0x1)\000"
 12773      69735F73 
 12773      65742878 
 12773      2C622920 
 12773      28287820 
 12774              	.LASF1312:
 12775 77c0 436C6F73 		.ascii	"CloseRadAngles(_c1,_c2) ({ float _diff = _c1 - _c2;"
 12775      65526164 
 12775      416E676C 
 12775      6573285F 
 12775      63312C5F 
 12776 77f3 204E6F72 		.ascii	" NormRadAngle(_diff); fabsf(_diff) < 0.0177; })\000"
 12776      6D526164 
 12776      416E676C 
 12776      65285F64 
 12776      69666629 
 12777              	.LASF337:
 12778 7823 5F5F5554 		.ascii	"__UTQ_IBIT__ 0\000"
 12778      515F4942 
 12778      49545F5F 
 12778      203000
 12779              	.LASF960:
 12780 7832 5F5F4641 		.ascii	"__FAST32 \000"
 12780      53543332 
 12780      2000
 12781              	.LASF377:
 12782 783c 5F5F5349 		.ascii	"__SIZEOF_WINT_T__ 4\000"
 12782      5A454F46 
 12782      5F57494E 
 12782      545F545F 
 12782      5F203400 
 12783              	.LASF1128:
 12784 7850 53434E78 		.ascii	"SCNx16 __SCN16(x)\000"
 12784      3136205F 
 12784      5F53434E 
 12784      31362878 
 12784      2900
 12785              	.LASF1017:
 12786 7862 494E545F 		.ascii	"INT_FAST8_MIN\000"
 12786      46415354 
 12786      385F4D49 
 12786      4E00
 12787              	.LASF450:
 12788 7870 41504F47 		.ascii	"APOGEE_BARO_SDLOG TRUE\000"
 12788      45455F42 
 12788      41524F5F 
ARM GAS  /tmp/cceVa9lb.s 			page 289


 12788      53444C4F 
 12788      47205452 
 12789              	.LASF528:
 12790 7887 55544D5F 		.ascii	"UTM_OF_ENU_ADD(_utm,_pos,_utm0) { (_utm).east = (_u"
 12790      4F465F45 
 12790      4E555F41 
 12790      4444285F 
 12790      75746D2C 
 12791 78ba 746D3029 		.ascii	"tm0).east + (_pos).x; (_utm).north = (_utm0).north "
 12791      2E656173 
 12791      74202B20 
 12791      285F706F 
 12791      73292E78 
 12792 78ed 2B20285F 		.ascii	"+ (_pos).y; (_utm).alt = (_utm0).alt + (_pos).z; }\000"
 12792      706F7329 
 12792      2E793B20 
 12792      285F7574 
 12792      6D292E61 
 12793              	.LASF587:
 12794 7920 44424C5F 		.ascii	"DBL_MIN __DBL_MIN__\000"
 12794      4D494E20 
 12794      5F5F4442 
 12794      4C5F4D49 
 12794      4E5F5F00 
 12795              	.LASF381:
 12796 7934 5F5F4152 		.ascii	"__ARM_FEATURE_SAT 1\000"
 12796      4D5F4645 
 12796      41545552 
 12796      455F5341 
 12796      54203100 
 12797              	.LASF1423:
 12798 7948 524D4154 		.ascii	"RMAT_VECT3_TRANSP_MUL(_vout,_rmat,_vin) { (_vout).x"
 12798      5F564543 
 12798      54335F54 
 12798      52414E53 
 12798      505F4D55 
 12799 797b 203D2052 		.ascii	" = RMAT_ELMT((_rmat), 0, 0) * (_vin).x + RMAT_ELMT("
 12799      4D41545F 
 12799      454C4D54 
 12799      28285F72 
 12799      6D617429 
 12800 79ae 285F726D 		.ascii	"(_rmat), 1, 0) * (_vin).y + RMAT_ELMT((_rmat), 2, 0"
 12800      6174292C 
 12800      20312C20 
 12800      3029202A 
 12800      20285F76 
 12801 79e1 29202A20 		.ascii	") * (_vin).z; (_vout).y = RMAT_ELMT((_rmat), 0, 1) "
 12801      285F7669 
 12801      6E292E7A 
 12801      3B20285F 
 12801      766F7574 
 12802 7a14 2A20285F 		.ascii	"* (_vin).x + RMAT_ELMT((_rmat), 1, 1) * (_vin).y + "
 12802      76696E29 
 12802      2E78202B 
 12802      20524D41 
 12802      545F454C 
 12803 7a47 524D4154 		.ascii	"RMAT_ELMT((_rmat), 2, 1) * (_vin).z; (_vout).z = RM"
ARM GAS  /tmp/cceVa9lb.s 			page 290


 12803      5F454C4D 
 12803      5428285F 
 12803      726D6174 
 12803      292C2032 
 12804 7a7a 41545F45 		.ascii	"AT_ELMT((_rmat), 0, 2) * (_vin).x + RMAT_ELMT((_rma"
 12804      4C4D5428 
 12804      285F726D 
 12804      6174292C 
 12804      20302C20 
 12805 7aad 74292C20 		.ascii	"t), 1, 2) * (_vin).y + RMAT_ELMT((_rmat), 2, 2) * ("
 12805      312C2032 
 12805      29202A20 
 12805      285F7669 
 12805      6E292E79 
 12806 7ae0 5F76696E 		.ascii	"_vin).z; }\000"
 12806      292E7A3B 
 12806      207D00
 12807              	.LASF70:
 12808 7aeb 5F5F494E 		.ascii	"__INT_MAX__ 0x7fffffff\000"
 12808      545F4D41 
 12808      585F5F20 
 12808      30783766 
 12808      66666666 
 12809              	.LASF580:
 12810 7b02 464C545F 		.ascii	"FLT_EPSILON __FLT_EPSILON__\000"
 12810      45505349 
 12810      4C4F4E20 
 12810      5F5F464C 
 12810      545F4550 
 12811              	.LASF152:
 12812 7b1e 5F5F464C 		.ascii	"__FLT_MAX__ 3.4028234663852886e+38F\000"
 12812      545F4D41 
 12812      585F5F20 
 12812      332E3430 
 12812      32383233 
 12813              	.LASF67:
 12814 7b42 5F5F4758 		.ascii	"__GXX_ABI_VERSION 1014\000"
 12814      585F4142 
 12814      495F5645 
 12814      5253494F 
 12814      4E203130 
 12815              	.LASF49:
 12816 7b59 5F5F494E 		.ascii	"__INT_LEAST8_TYPE__ signed char\000"
 12816      545F4C45 
 12816      41535438 
 12816      5F545950 
 12816      455F5F20 
 12817              	.LASF692:
 12818 7b79 5F545F57 		.ascii	"_T_WCHAR \000"
 12818      43484152 
 12818      2000
 12819              	.LASF1073:
 12820 7b83 494E5433 		.ascii	"INT32_C\000"
 12820      325F4300 
 12821              	.LASF165:
 12822 7b8b 5F5F4442 		.ascii	"__DBL_MAX_EXP__ 1024\000"
 12822      4C5F4D41 
ARM GAS  /tmp/cceVa9lb.s 			page 291


 12822      585F4558 
 12822      505F5F20 
 12822      31303234 
 12823              	.LASF1247:
 12824 7ba0 69736E61 		.ascii	"isnan(__x) (__builtin_isnan (__x))\000"
 12824      6E285F5F 
 12824      78292028 
 12824      5F5F6275 
 12824      696C7469 
 12825              	.LASF258:
 12826 7bc3 5F5F4C46 		.ascii	"__LFRACT_FBIT__ 31\000"
 12826      52414354 
 12826      5F464249 
 12826      545F5F20 
 12826      333100
 12827              	.LASF408:
 12828 7bd6 5F5F4152 		.ascii	"__ARM_ARCH_ISA_THUMB\000"
 12828      4D5F4152 
 12828      43485F49 
 12828      53415F54 
 12828      48554D42 
 12829              	.LASF376:
 12830 7beb 5F5F5349 		.ascii	"__SIZEOF_WCHAR_T__ 4\000"
 12830      5A454F46 
 12830      5F574348 
 12830      41525F54 
 12830      5F5F2034 
 12831              	.LASF1085:
 12832 7c00 494E544D 		.ascii	"INTMAX_C\000"
 12832      41585F43 
 12832      00
 12833              	.LASF286:
 12834 7c09 5F5F5553 		.ascii	"__USACCUM_MAX__ 0XFFFFP-8UHK\000"
 12834      41434355 
 12834      4D5F4D41 
 12834      585F5F20 
 12834      30584646 
 12835              	.LASF1133:
 12836 7c26 50524978 		.ascii	"PRIxLEAST16 __PRI16LEAST(x)\000"
 12836      4C454153 
 12836      54313620 
 12836      5F5F5052 
 12836      4931364C 
 12837              	.LASF896:
 12838 7c42 5F5F7374 		.ascii	"__strong_reference(sym,aliassym) extern __typeof (s"
 12838      726F6E67 
 12838      5F726566 
 12838      6572656E 
 12838      63652873 
 12839 7c75 796D2920 		.ascii	"ym) aliassym __attribute__ ((__alias__ (#sym)))\000"
 12839      616C6961 
 12839      7373796D 
 12839      205F5F61 
 12839      74747269 
 12840              	.LASF1343:
 12841 7ca5 53515541 		.ascii	"SQUARE(_a) ((_a)*(_a))\000"
 12841      5245285F 
ARM GAS  /tmp/cceVa9lb.s 			page 292


 12841      61292028 
 12841      285F6129 
 12841      2A285F61 
 12842              	.LASF96:
 12843 7cbc 5F5F494E 		.ascii	"__INT8_MAX__ 0x7f\000"
 12843      54385F4D 
 12843      41585F5F 
 12843      20307837 
 12843      6600
 12844              	.LASF694:
 12845 7cce 5F574348 		.ascii	"_WCHAR_T_ \000"
 12845      41525F54 
 12845      5F2000
 12846              	.LASF110:
 12847 7cd9 5F5F494E 		.ascii	"__INT_LEAST32_MAX__ 0x7fffffffL\000"
 12847      545F4C45 
 12847      41535433 
 12847      325F4D41 
 12847      585F5F20 
 12848              	.LASF593:
 12849 7cf9 44454349 		.ascii	"DECIMAL_DIG\000"
 12849      4D414C5F 
 12849      44494700 
 12850              	.LASF830:
 12851 7d05 5F5F474E 		.ascii	"__GNUCLIKE_BUILTIN_VARARGS 1\000"
 12851      55434C49 
 12851      4B455F42 
 12851      55494C54 
 12851      494E5F56 
 12852              	.LASF490:
 12853 7d22 52414449 		.ascii	"RADIO_CONTROL 1\000"
 12853      4F5F434F 
 12853      4E54524F 
 12853      4C203100 
 12854              	.LASF809:
 12855 7d32 5F5F4153 		.ascii	"__ASMNAME(cname) __XSTRING (__USER_LABEL_PREFIX__) "
 12855      4D4E414D 
 12855      4528636E 
 12855      616D6529 
 12855      205F5F58 
 12856 7d65 636E616D 		.ascii	"cname\000"
 12856      6500
 12857              	.LASF868:
 12858 7d6b 5F546872 		.ascii	"_Thread_local __thread\000"
 12858      6561645F 
 12858      6C6F6361 
 12858      6C205F5F 
 12858      74687265 
 12859              	.LASF1442:
 12860 7d82 464C4F41 		.ascii	"FLOAT_ANGLE_NORMALIZE(_a) { while (_a > M_PI) _a -="
 12860      545F414E 
 12860      474C455F 
 12860      4E4F524D 
 12860      414C495A 
 12861 7db5 2028322E 		.ascii	" (2.*M_PI); while (_a < -M_PI) _a += (2.*M_PI); }\000"
 12861      2A4D5F50 
 12861      49293B20 
ARM GAS  /tmp/cceVa9lb.s 			page 293


 12861      7768696C 
 12861      6520285F 
 12862              	.LASF287:
 12863 7de7 5F5F5553 		.ascii	"__USACCUM_EPSILON__ 0x1P-8UHK\000"
 12863      41434355 
 12863      4D5F4550 
 12863      53494C4F 
 12863      4E5F5F20 
 12864              	.LASF462:
 12865 7e05 44454255 		.ascii	"DEBUG_GPS_UBX_UCENTER TRUE\000"
 12865      475F4750 
 12865      535F5542 
 12865      585F5543 
 12865      454E5445 
 12866              	.LASF1472:
 12867 7e20 464C4F41 		.ascii	"FLOAT_QUAT_NORM2(_q) (SQUARE((_q).qi) + SQUARE((_q)"
 12867      545F5155 
 12867      41545F4E 
 12867      4F524D32 
 12867      285F7129 
 12868 7e53 2E717829 		.ascii	".qx) + SQUARE((_q).qy) + SQUARE((_q).qz))\000"
 12868      202B2053 
 12868      51554152 
 12868      4528285F 
 12868      71292E71 
 12869              	.LASF673:
 12870 7e7d 5F535953 		.ascii	"_SYS_SIZE_T_H \000"
 12870      5F53495A 
 12870      455F545F 
 12870      482000
 12871              	.LASF188:
 12872 7e8c 5F5F4C44 		.ascii	"__LDBL_DENORM_MIN__ 4.9406564584124654e-324L\000"
 12872      424C5F44 
 12872      454E4F52 
 12872      4D5F4D49 
 12872      4E5F5F20 
 12873              	.LASF89:
 12874 7eb9 5F5F494E 		.ascii	"__INTMAX_C(c) c ## LL\000"
 12874      544D4158 
 12874      5F432863 
 12874      29206320 
 12874      2323204C 
 12875              	.LASF300:
 12876 7ecf 5F5F4C41 		.ascii	"__LACCUM_MIN__ (-0X1P31LK-0X1P31LK)\000"
 12876      4343554D 
 12876      5F4D494E 
 12876      5F5F2028 
 12876      2D305831 
 12877              	.LASF133:
 12878 7ef3 5F5F5549 		.ascii	"__UINT_FAST16_MAX__ 0xffffffffU\000"
 12878      4E545F46 
 12878      41535431 
 12878      365F4D41 
 12878      585F5F20 
 12879              	.LASF428:
 12880 7f13 5F5F4152 		.ascii	"__ARM_ARCH_EXT_IDIV__ 1\000"
 12880      4D5F4152 
ARM GAS  /tmp/cceVa9lb.s 			page 294


 12880      43485F45 
 12880      58545F49 
 12880      4449565F 
 12881              	.LASF542:
 12882 7f2b 44424C5F 		.ascii	"DBL_DIG\000"
 12882      44494700 
 12883              	.LASF1377:
 12884 7f33 45554C45 		.ascii	"EULERS_ASSIGN(_e,_phi,_theta,_psi) { (_e).phi = (_p"
 12884      52535F41 
 12884      53534947 
 12884      4E285F65 
 12884      2C5F7068 
 12885 7f66 6869293B 		.ascii	"hi); (_e).theta = (_theta); (_e).psi = (_psi); }\000"
 12885      20285F65 
 12885      292E7468 
 12885      65746120 
 12885      3D20285F 
 12886              	.LASF776:
 12887 7f97 5F524545 		.ascii	"_REENT_RAND_NEXT(ptr) ((ptr)->_new._reent._rand_nex"
 12887      4E545F52 
 12887      414E445F 
 12887      4E455854 
 12887      28707472 
 12888 7fca 742900   		.ascii	"t)\000"
 12889              	.LASF480:
 12890 7fcd 4E415620 		.ascii	"NAV 1\000"
 12890      3100
 12891              	.LASF1172:
 12892 7fd3 50524978 		.ascii	"PRIxLEAST32 __PRI32LEAST(x)\000"
 12892      4C454153 
 12892      54333220 
 12892      5F5F5052 
 12892      4933324C 
 12893              	.LASF919:
 12894 7fef 5F5F6C6F 		.ascii	"__locks_shared(...) __lock_annotate(shared_lock_fun"
 12894      636B735F 
 12894      73686172 
 12894      6564282E 
 12894      2E2E2920 
 12895 8022 6374696F 		.ascii	"ction(__VA_ARGS__))\000"
 12895      6E285F5F 
 12895      56415F41 
 12895      5247535F 
 12895      5F292900 
 12896              	.LASF832:
 12897 8036 5F5F474E 		.ascii	"__GNUCLIKE_BUILTIN_VAALIST 1\000"
 12897      55434C49 
 12897      4B455F42 
 12897      55494C54 
 12897      494E5F56 
 12898              	.LASF257:
 12899 8053 5F5F5546 		.ascii	"__UFRACT_EPSILON__ 0x1P-16UR\000"
 12899      52414354 
 12899      5F455053 
 12899      494C4F4E 
 12899      5F5F2030 
 12900              	.LASF444:
ARM GAS  /tmp/cceVa9lb.s 			page 295


 12901 8070 5050525A 		.ascii	"PPRZLINK_UNALIGNED_ACCESS 1\000"
 12901      4C494E4B 
 12901      5F554E41 
 12901      4C49474E 
 12901      45445F41 
 12902              	.LASF1112:
 12903 808c 5F5F5052 		.ascii	"__PRI16(x) __INT16 __STRINGIFY(x)\000"
 12903      49313628 
 12903      7829205F 
 12903      5F494E54 
 12903      3136205F 
 12904              	.LASF78:
 12905 80ae 5F5F5349 		.ascii	"__SIZE_MAX__ 0xffffffffU\000"
 12905      5A455F4D 
 12905      41585F5F 
 12905      20307866 
 12905      66666666 
 12906              	.LASF757:
 12907 80c7 5F52414E 		.ascii	"_RAND48_MULT_0 (0xe66d)\000"
 12907      4434385F 
 12907      4D554C54 
 12907      5F302028 
 12907      30786536 
 12908              	.LASF1067:
 12909 80df 57494E54 		.ascii	"WINT_MIN\000"
 12909      5F4D494E 
 12909      00
 12910              	.LASF1316:
 12911 80e8 5261644F 		.ascii	"RadOfDeciDeg(x) ((x) * (M_PI/1800.))\000"
 12911      66446563 
 12911      69446567 
 12911      28782920 
 12911      28287829 
 12912              	.LASF1529:
 12913 810d 696E7438 		.ascii	"int8_t\000"
 12913      5F7400
 12914              	.LASF1217:
 12915 8114 53434E64 		.ascii	"SCNdPTR __SCNPTR(d)\000"
 12915      50545220 
 12915      5F5F5343 
 12915      4E505452 
 12915      28642900 
 12916              	.LASF1314:
 12917 8128 44656369 		.ascii	"DeciDegOfRad(x) ((x) * (1800./ M_PI))\000"
 12917      4465674F 
 12917      66526164 
 12917      28782920 
 12917      28287829 
 12918              	.LASF548:
 12919 814e 44424C5F 		.ascii	"DBL_MIN_EXP\000"
 12919      4D494E5F 
 12919      45585000 
 12920              	.LASF132:
 12921 815a 5F5F5549 		.ascii	"__UINT_FAST8_MAX__ 0xffffffffU\000"
 12921      4E545F46 
 12921      41535438 
 12921      5F4D4158 
ARM GAS  /tmp/cceVa9lb.s 			page 296


 12921      5F5F2030 
 12922              	.LASF482:
 12923 8179 50455249 		.ascii	"PERIODIC_TELEMETRY 1\000"
 12923      4F444943 
 12923      5F54454C 
 12923      454D4554 
 12923      52592031 
 12924              	.LASF800:
 12925 818e 5F4B6D61 		.ascii	"_Kmax (sizeof (size_t) << 3)\000"
 12925      78202873 
 12925      697A656F 
 12925      66202873 
 12925      697A655F 
 12926              	.LASF802:
 12927 81ab 5F524545 		.ascii	"_REENT _impure_ptr\000"
 12927      4E54205F 
 12927      696D7075 
 12927      72655F70 
 12927      747200
 12928              	.LASF790:
 12929 81be 5F524545 		.ascii	"_REENT_WCTOMB_STATE(ptr) ((ptr)->_new._reent._wctom"
 12929      4E545F57 
 12929      43544F4D 
 12929      425F5354 
 12929      41544528 
 12930 81f1 625F7374 		.ascii	"b_state)\000"
 12930      61746529 
 12930      00
 12931              	.LASF1256:
 12932 81fa 6C6F6732 		.ascii	"log2(x) (log (x) / _M_LN2)\000"
 12932      28782920 
 12932      286C6F67 
 12932      20287829 
 12932      202F205F 
 12933              	.LASF323:
 12934 8215 5F5F5351 		.ascii	"__SQ_IBIT__ 0\000"
 12934      5F494249 
 12934      545F5F20 
 12934      3000
 12935              	.LASF1024:
 12936 8223 494E545F 		.ascii	"INT_FAST16_MIN (-INT_FAST16_MAX - 1)\000"
 12936      46415354 
 12936      31365F4D 
 12936      494E2028 
 12936      2D494E54 
 12937              	.LASF395:
 12938 8248 5F5F4152 		.ascii	"__ARM_FEATURE_SIMD32 1\000"
 12938      4D5F4645 
 12938      41545552 
 12938      455F5349 
 12938      4D443332 
 12939              	.LASF707:
 12940 825f 5F5F6E65 		.ascii	"__need_NULL\000"
 12940      65645F4E 
 12940      554C4C00 
 12941              	.LASF708:
 12942 826b 6F666673 		.ascii	"offsetof(TYPE,MEMBER) __builtin_offsetof (TYPE, MEM"
ARM GAS  /tmp/cceVa9lb.s 			page 297


 12942      65746F66 
 12942      28545950 
 12942      452C4D45 
 12942      4D424552 
 12943 829e 42455229 		.ascii	"BER)\000"
 12943      00
 12944              	.LASF509:
 12945 82a3 5553455F 		.ascii	"USE_IMU 1\000"
 12945      494D5520 
 12945      3100
 12946              	.LASF1386:
 12947 82ad 52415445 		.ascii	"RATES_ADD(_a,_b) { (_a).p += (_b).p; (_a).q += (_b)"
 12947      535F4144 
 12947      44285F61 
 12947      2C5F6229 
 12947      207B2028 
 12948 82e0 2E713B20 		.ascii	".q; (_a).r += (_b).r; }\000"
 12948      285F6129 
 12948      2E72202B 
 12948      3D20285F 
 12948      62292E72 
 12949              	.LASF331:
 12950 82f8 5F5F5548 		.ascii	"__UHQ_IBIT__ 0\000"
 12950      515F4942 
 12950      49545F5F 
 12950      203000
 12951              	.LASF734:
 12952 8307 5F54494D 		.ascii	"_TIMER_T_ unsigned long\000"
 12952      45525F54 
 12952      5F20756E 
 12952      7369676E 
 12952      6564206C 
 12953              	.LASF858:
 12954 831f 5F5F7061 		.ascii	"__packed __attribute__((__packed__))\000"
 12954      636B6564 
 12954      205F5F61 
 12954      74747269 
 12954      62757465 
 12955              	.LASF1126:
 12956 8344 53434E6F 		.ascii	"SCNo16 __SCN16(o)\000"
 12956      3136205F 
 12956      5F53434E 
 12956      3136286F 
 12956      2900
 12957              	.LASF240:
 12958 8356 5F5F5346 		.ascii	"__SFRACT_MIN__ (-0.5HR-0.5HR)\000"
 12958      52414354 
 12958      5F4D494E 
 12958      5F5F2028 
 12958      2D302E35 
 12959              	.LASF406:
 12960 8374 5F5F7468 		.ascii	"__thumb2__ 1\000"
 12960      756D6232 
 12960      5F5F2031 
 12960      00
 12961              	.LASF359:
 12962 8381 5F5F4743 		.ascii	"__GCC_HAVE_SYNC_COMPARE_AND_SWAP_1 1\000"
ARM GAS  /tmp/cceVa9lb.s 			page 298


 12962      435F4841 
 12962      56455F53 
 12962      594E435F 
 12962      434F4D50 
 12963              	.LASF298:
 12964 83a6 5F5F4C41 		.ascii	"__LACCUM_FBIT__ 31\000"
 12964      4343554D 
 12964      5F464249 
 12964      545F5F20 
 12964      333100
 12965              	.LASF1167:
 12966 83b9 53434E78 		.ascii	"SCNx32 __SCN32(x)\000"
 12966      3332205F 
 12966      5F53434E 
 12966      33322878 
 12966      2900
 12967              	.LASF1205:
 12968 83cb 53434E69 		.ascii	"SCNiMAX __SCNMAX(i)\000"
 12968      4D415820 
 12968      5F5F5343 
 12968      4E4D4158 
 12968      28692900 
 12969              	.LASF305:
 12970 83df 5F5F554C 		.ascii	"__ULACCUM_MIN__ 0.0ULK\000"
 12970      41434355 
 12970      4D5F4D49 
 12970      4E5F5F20 
 12970      302E3055 
 12971              	.LASF190:
 12972 83f6 5F5F4C44 		.ascii	"__LDBL_HAS_INFINITY__ 1\000"
 12972      424C5F48 
 12972      41535F49 
 12972      4E46494E 
 12972      4954595F 
 12973              	.LASF520:
 12974 840e 454E555F 		.ascii	"ENU_OF_TO_NED(_po,_pi) { (_po).x = (_pi).y; (_po).y"
 12974      4F465F54 
 12974      4F5F4E45 
 12974      44285F70 
 12974      6F2C5F70 
 12975 8441 203D2028 		.ascii	" = (_pi).x; (_po).z = -(_pi).z; }\000"
 12975      5F706929 
 12975      2E783B20 
 12975      285F706F 
 12975      292E7A20 
 12976              	.LASF318:
 12977 8463 5F5F5151 		.ascii	"__QQ_FBIT__ 7\000"
 12977      5F464249 
 12977      545F5F20 
 12977      3700
 12978              	.LASF870:
 12979 8471 5F5F6D69 		.ascii	"__min_size(x) static (x)\000"
 12979      6E5F7369 
 12979      7A652878 
 12979      29207374 
 12979      61746963 
 12980              	.LASF1169:
ARM GAS  /tmp/cceVa9lb.s 			page 299


 12981 848a 50524969 		.ascii	"PRIiLEAST32 __PRI32LEAST(i)\000"
 12981      4C454153 
 12981      54333220 
 12981      5F5F5052 
 12981      4933324C 
 12982              	.LASF709:
 12983 84a6 5F535953 		.ascii	"_SYS__TYPES_H \000"
 12983      5F5F5459 
 12983      5045535F 
 12983      482000
 12984              	.LASF1566:
 12985 84b5 656E755F 		.ascii	"enu_of_lla_point_d\000"
 12985      6F665F6C 
 12985      6C615F70 
 12985      6F696E74 
 12985      5F6400
 12986              	.LASF756:
 12987 84c8 5F52414E 		.ascii	"_RAND48_SEED_2 (0x1234)\000"
 12987      4434385F 
 12987      53454544 
 12987      5F322028 
 12987      30783132 
 12988              	.LASF71:
 12989 84e0 5F5F4C4F 		.ascii	"__LONG_MAX__ 0x7fffffffL\000"
 12989      4E475F4D 
 12989      41585F5F 
 12989      20307837 
 12989      66666666 
 12990              	.LASF1477:
 12991 84f9 464C4F41 		.ascii	"FLOAT_QUAT_NORM(_q) WARNING(\"FLOAT_QUAT_NORM macro"
 12991      545F5155 
 12991      41545F4E 
 12991      4F524D28 
 12991      5F712920 
 12992 852b 20697320 		.ascii	" is deprecated, use the lower case function instead"
 12992      64657072 
 12992      65636174 
 12992      65642C20 
 12992      75736520 
 12993 855e 22292066 		.ascii	"\") float_quat_norm(&(_q))\000"
 12993      6C6F6174 
 12993      5F717561 
 12993      745F6E6F 
 12993      726D2826 
 12994              	.LASF1399:
 12995 8578 4D415433 		.ascii	"MAT33_COPY(_mat1,_mat2) { MAT33_ELMT((_mat1),0,0) ="
 12995      335F434F 
 12995      5059285F 
 12995      6D617431 
 12995      2C5F6D61 
 12996 85ab 204D4154 		.ascii	" MAT33_ELMT((_mat2),0,0); MAT33_ELMT((_mat1),0,1) ="
 12996      33335F45 
 12996      4C4D5428 
 12996      285F6D61 
 12996      7432292C 
 12997 85de 204D4154 		.ascii	" MAT33_ELMT((_mat2),0,1); MAT33_ELMT((_mat1),0,2) ="
 12997      33335F45 
ARM GAS  /tmp/cceVa9lb.s 			page 300


 12997      4C4D5428 
 12997      285F6D61 
 12997      7432292C 
 12998 8611 204D4154 		.ascii	" MAT33_ELMT((_mat2),0,2); MAT33_ELMT((_mat1),1,0) ="
 12998      33335F45 
 12998      4C4D5428 
 12998      285F6D61 
 12998      7432292C 
 12999 8644 204D4154 		.ascii	" MAT33_ELMT((_mat2),1,0); MAT33_ELMT((_mat1),1,1) ="
 12999      33335F45 
 12999      4C4D5428 
 12999      285F6D61 
 12999      7432292C 
 13000 8677 204D4154 		.ascii	" MAT33_ELMT((_mat2),1,1); MAT33_ELMT((_mat1),1,2) ="
 13000      33335F45 
 13000      4C4D5428 
 13000      285F6D61 
 13000      7432292C 
 13001 86aa 204D4154 		.ascii	" MAT33_ELMT((_mat2),1,2); MAT33_ELMT((_mat1),2,0) ="
 13001      33335F45 
 13001      4C4D5428 
 13001      285F6D61 
 13001      7432292C 
 13002 86dd 204D4154 		.ascii	" MAT33_ELMT((_mat2),2,0); MAT33_ELMT((_mat1),2,1) ="
 13002      33335F45 
 13002      4C4D5428 
 13002      285F6D61 
 13002      7432292C 
 13003 8710 204D4154 		.ascii	" MAT33_ELMT((_mat2),2,1); MAT33_ELMT((_mat1),2,2) ="
 13003      33335F45 
 13003      4C4D5428 
 13003      285F6D61 
 13003      7432292C 
 13004 8743 204D4154 		.ascii	" MAT33_ELMT((_mat2),2,2); }\000"
 13004      33335F45 
 13004      4C4D5428 
 13004      285F6D61 
 13004      7432292C 
 13005              	.LASF902:
 13006 875f 5F5F5243 		.ascii	"__RCSID(s) struct __hack\000"
 13006      53494428 
 13006      73292073 
 13006      74727563 
 13006      74205F5F 
 13007              	.LASF746:
 13008 8778 5F5F6C6F 		.ascii	"__lock_try_acquire(lock) ((void) 0)\000"
 13008      636B5F74 
 13008      72795F61 
 13008      63717569 
 13008      7265286C 
 13009              	.LASF111:
 13010 879c 5F5F494E 		.ascii	"__INT32_C(c) c ## L\000"
 13010      5433325F 
 13010      43286329 
 13010      20632023 
 13010      23204C00 
 13011              	.LASF822:
ARM GAS  /tmp/cceVa9lb.s 			page 301


 13012 87b0 5F5F454E 		.ascii	"__END_DECLS \000"
 13012      445F4445 
 13012      434C5320 
 13012      00
 13013              	.LASF762:
 13014 87bd 5F524545 		.ascii	"_REENT_ASCTIME_SIZE 26\000"
 13014      4E545F41 
 13014      53435449 
 13014      4D455F53 
 13014      495A4520 
 13015              	.LASF216:
 13016 87d4 5F5F464C 		.ascii	"__FLT64_NORM_MAX__ 1.7976931348623157e+308F64\000"
 13016      5436345F 
 13016      4E4F524D 
 13016      5F4D4158 
 13016      5F5F2031 
 13017              	.LASF1039:
 13018 8802 494E5450 		.ascii	"INTPTR_MAX\000"
 13018      54525F4D 
 13018      415800
 13019              	.LASF947:
 13020 880d 73686F72 		.ascii	"short +1\000"
 13020      74202B31 
 13020      00
 13021              	.LASF831:
 13022 8816 5F5F474E 		.ascii	"__GNUCLIKE_BUILTIN_STDARG 1\000"
 13022      55434C49 
 13022      4B455F42 
 13022      55494C54 
 13022      494E5F53 
 13023              	.LASF1555:
 13024 8832 6C616D62 		.ascii	"lambda_\000"
 13024      64615F00 
 13025              	.LASF1335:
 13026 883a 426C656E 		.ascii	"Blend(a,b,rho) (((rho)*(a))+(1-(rho))*(b))\000"
 13026      6428612C 
 13026      622C7268 
 13026      6F292028 
 13026      28287268 
 13027              	.LASF1090:
 13028 8865 5F5F5354 		.ascii	"__STRINGIFY(a) #a\000"
 13028      52494E47 
 13028      49465928 
 13028      61292023 
 13028      6100
 13029              	.LASF617:
 13030 8877 5F5F4945 		.ascii	"__IEEE_LITTLE_ENDIAN \000"
 13030      45455F4C 
 13030      4954544C 
 13030      455F454E 
 13030      4449414E 
 13031              	.LASF1509:
 13032 888d 4B302030 		.ascii	"K0 0.9996\000"
 13032      2E393939 
 13032      3600
 13033              	.LASF1032:
 13034 8897 55494E54 		.ascii	"UINT_FAST32_MAX __UINT_FAST32_MAX__\000"
ARM GAS  /tmp/cceVa9lb.s 			page 302


 13034      5F464153 
 13034      5433325F 
 13034      4D415820 
 13034      5F5F5549 
 13035              	.LASF749:
 13036 88bb 5F5F6C6F 		.ascii	"__lock_release_recursive(lock) ((void) 0)\000"
 13036      636B5F72 
 13036      656C6561 
 13036      73655F72 
 13036      65637572 
 13037              	.LASF1081:
 13038 88e5 55494E54 		.ascii	"UINT32_C\000"
 13038      33325F43 
 13038      00
 13039              	.LASF1524:
 13040 88ee 73686F72 		.ascii	"short unsigned int\000"
 13040      7420756E 
 13040      7369676E 
 13040      65642069 
 13040      6E7400
 13041              	.LASF1436:
 13042 8901 53504545 		.ascii	"SPEEDS_BFP_OF_REAL(_ef,_ei) { (_ef).x = SPEED_BFP_O"
 13042      44535F42 
 13042      46505F4F 
 13042      465F5245 
 13042      414C285F 
 13043 8934 465F5245 		.ascii	"F_REAL((_ei).x); (_ef).y = SPEED_BFP_OF_REAL((_ei)."
 13043      414C2828 
 13043      5F656929 
 13043      2E78293B 
 13043      20285F65 
 13044 8967 79293B20 		.ascii	"y); (_ef).z = SPEED_BFP_OF_REAL((_ei).z); }\000"
 13044      285F6566 
 13044      292E7A20 
 13044      3D205350 
 13044      4545445F 
 13045              	.LASF1494:
 13046 8993 464C4F41 		.ascii	"FLOAT_QUAT_OF_RMAT(_q,_r) WARNING(\"FLOAT_QUAT_OF_R"
 13046      545F5155 
 13046      41545F4F 
 13046      465F524D 
 13046      4154285F 
 13047 89c5 4D415420 		.ascii	"MAT macro is deprecated, use the lower case functio"
 13047      6D616372 
 13047      6F206973 
 13047      20646570 
 13047      72656361 
 13048 89f8 6E20696E 		.ascii	"n instead\") float_quat_of_rmat(&(_q), &(_r))\000"
 13048      73746561 
 13048      64222920 
 13048      666C6F61 
 13048      745F7175 
 13049              	.LASF1521:
 13050 8a25 7369676E 		.ascii	"signed char\000"
 13050      65642063 
 13050      68617200 
 13051              	.LASF726:
ARM GAS  /tmp/cceVa9lb.s 			page 303


 13052 8a31 5F5F5F69 		.ascii	"___int_least64_t_defined 1\000"
 13052      6E745F6C 
 13052      65617374 
 13052      36345F74 
 13052      5F646566 
 13053              	.LASF503:
 13054 8a4c 5553455F 		.ascii	"USE_AHRS_ALIGNER 1\000"
 13054      41485253 
 13054      5F414C49 
 13054      474E4552 
 13054      203100
 13055              	.LASF1327:
 13056 8a5f 426F756E 		.ascii	"Bound(_x,_min,_max) { if (!(_x > (_min))) _x = (_mi"
 13056      64285F78 
 13056      2C5F6D69 
 13056      6E2C5F6D 
 13056      61782920 
 13057 8a92 6E293B20 		.ascii	"n); else if (!(_x < (_max))) _x = (_max); }\000"
 13057      656C7365 
 13057      20696620 
 13057      2821285F 
 13057      78203C20 
 13058              	.LASF670:
 13059 8abe 5F5F7369 		.ascii	"__size_t__ \000"
 13059      7A655F74 
 13059      5F5F2000 
 13060              	.LASF464:
 13061 8aca 444F574E 		.ascii	"DOWNLINK_DEVICE uart1\000"
 13061      4C494E4B 
 13061      5F444556 
 13061      49434520 
 13061      75617274 
 13062              	.LASF1250:
 13063 8ae0 69736772 		.ascii	"isgreater(__x,__y) (__builtin_isgreater (__x, __y))"
 13063      65617465 
 13063      72285F5F 
 13063      782C5F5F 
 13063      79292028 
 13064 8b13 00       		.ascii	"\000"
 13065              	.LASF883:
 13066 8b14 5F5F7072 		.ascii	"__predict_false(exp) __builtin_expect((exp), 0)\000"
 13066      65646963 
 13066      745F6661 
 13066      6C736528 
 13066      65787029 
 13067              	.LASF223:
 13068 8b44 5F5F464C 		.ascii	"__FLT32X_MANT_DIG__ 53\000"
 13068      54333258 
 13068      5F4D414E 
 13068      545F4449 
 13068      475F5F20 
 13069              	.LASF1086:
 13070 8b5b 494E544D 		.ascii	"INTMAX_C(c) __INTMAX_C(c)\000"
 13070      41585F43 
 13070      28632920 
 13070      5F5F494E 
 13070      544D4158 
ARM GAS  /tmp/cceVa9lb.s 			page 304


 13071              	.LASF1066:
 13072 8b75 57494E54 		.ascii	"WINT_MAX __WINT_MAX__\000"
 13072      5F4D4158 
 13072      205F5F57 
 13072      494E545F 
 13072      4D41585F 
 13073              	.LASF1419:
 13074 8b8b 524D4154 		.ascii	"RMAT_ELMT(_rm,_row,_col) MAT33_ELMT(_rm, _row, _col"
 13074      5F454C4D 
 13074      54285F72 
 13074      6D2C5F72 
 13074      6F772C5F 
 13075 8bbe 2900     		.ascii	")\000"
 13076              	.LASF317:
 13077 8bc0 5F5F554C 		.ascii	"__ULLACCUM_EPSILON__ 0x1P-32ULLK\000"
 13077      4C414343 
 13077      554D5F45 
 13077      5053494C 
 13077      4F4E5F5F 
 13078              	.LASF24:
 13079 8be1 5F5F4348 		.ascii	"__CHAR_BIT__ 8\000"
 13079      41525F42 
 13079      49545F5F 
 13079      203800
 13080              	.LASF1047:
 13081 8bf0 494E544D 		.ascii	"INTMAX_MIN\000"
 13081      41585F4D 
 13081      494E00
 13082              	.LASF36:
 13083 8bfb 5F5F494E 		.ascii	"__INTMAX_TYPE__ long long int\000"
 13083      544D4158 
 13083      5F545950 
 13083      455F5F20 
 13083      6C6F6E67 
 13084              	.LASF1548:
 13085 8c19 73657269 		.ascii	"serie_coeff_proj_mercator_inverse\000"
 13085      655F636F 
 13085      6566665F 
 13085      70726F6A 
 13085      5F6D6572 
 13086              	.LASF641:
 13087 8c3b 5F504F49 		.ascii	"_POINTER_INT long\000"
 13087      4E544552 
 13087      5F494E54 
 13087      206C6F6E 
 13087      6700
 13088              	.LASF1152:
 13089 8c4d 5F5F5343 		.ascii	"__SCN32(x) __INT32 __STRINGIFY(x)\000"
 13089      4E333228 
 13089      7829205F 
 13089      5F494E54 
 13089      3332205F 
 13090              	.LASF766:
 13091 8c6f 5F524545 		.ascii	"_REENT_INIT(var) { 0, _REENT_STDIO_STREAM(&(var), 0"
 13091      4E545F49 
 13091      4E495428 
 13091      76617229 
ARM GAS  /tmp/cceVa9lb.s 			page 305


 13091      207B2030 
 13092 8ca2 292C205F 		.ascii	"), _REENT_STDIO_STREAM(&(var), 1), _REENT_STDIO_STR"
 13092      5245454E 
 13092      545F5354 
 13092      44494F5F 
 13092      53545245 
 13093 8cd5 45414D28 		.ascii	"EAM(&(var), 2), 0, \"\", 0, _NULL, 0, _NULL, _NULL,"
 13093      26287661 
 13093      72292C20 
 13093      32292C20 
 13093      302C2022 
 13094 8d06 20302C20 		.ascii	" 0, _NULL, _NULL, 0, _NULL, { { 0, _NULL, \"\", {0,"
 13094      5F4E554C 
 13094      4C2C205F 
 13094      4E554C4C 
 13094      2C20302C 
 13095 8d37 20302C20 		.ascii	" 0, 0, 0, 0, 0, 0, 0, 0}, 0, 1, { {_RAND48_SEED_0, "
 13095      302C2030 
 13095      2C20302C 
 13095      20302C20 
 13095      302C2030 
 13096 8d6a 5F52414E 		.ascii	"_RAND48_SEED_1, _RAND48_SEED_2}, {_RAND48_MULT_0, _"
 13096      4434385F 
 13096      53454544 
 13096      5F312C20 
 13096      5F52414E 
 13097 8d9d 52414E44 		.ascii	"RAND48_MULT_1, _RAND48_MULT_2}, _RAND48_ADD }, {0, "
 13097      34385F4D 
 13097      554C545F 
 13097      312C205F 
 13097      52414E44 
 13098 8dd0 7B307D7D 		.ascii	"{0}}, {0, {0}}, {0, {0}}, \"\", \"\", 0, {0, {0}}, "
 13098      2C207B30 
 13098      2C207B30 
 13098      7D7D2C20 
 13098      7B302C20 
 13099 8dff 7B302C20 		.ascii	"{0, {0}}, {0, {0}}, {0, {0}}, {0, {0}} } }, _REENT_"
 13099      7B307D7D 
 13099      2C207B30 
 13099      2C207B30 
 13099      7D7D2C20 
 13100 8e32 494E4954 		.ascii	"INIT_ATEXIT _NULL, {_NULL, 0, _NULL} }\000"
 13100      5F415445 
 13100      58495420 
 13100      5F4E554C 
 13100      4C2C207B 
 13101              	.LASF1318:
 13102 8e59 4D4F664D 		.ascii	"MOfMm(_x) (((float)(_x))/1000.)\000"
 13102      6D285F78 
 13102      29202828 
 13102      28666C6F 
 13102      61742928 
 13103              	.LASF386:
 13104 8e79 5F5F4152 		.ascii	"__ARM_FEATURE_DOTPROD\000"
 13104      4D5F4645 
 13104      41545552 
 13104      455F444F 
ARM GAS  /tmp/cceVa9lb.s 			page 306


 13104      5450524F 
 13105              	.LASF804:
 13106 8e8f 5F474C4F 		.ascii	"_GLOBAL_ATEXIT (_GLOBAL_REENT->_atexit)\000"
 13106      42414C5F 
 13106      41544558 
 13106      49542028 
 13106      5F474C4F 
 13107              	.LASF949:
 13108 8eb7 5F5F696E 		.ascii	"__int20__ +2\000"
 13108      7432305F 
 13108      5F202B32 
 13108      00
 13109              	.LASF921:
 13110 8ec4 5F5F7472 		.ascii	"__trylocks_shared(...) __lock_annotate(shared_trylo"
 13110      796C6F63 
 13110      6B735F73 
 13110      68617265 
 13110      64282E2E 
 13111 8ef7 636B5F66 		.ascii	"ck_function(__VA_ARGS__))\000"
 13111      756E6374 
 13111      696F6E28 
 13111      5F5F5641 
 13111      5F415247 
 13112              	.LASF595:
 13113 8f11 5F535452 		.ascii	"_STRING_H_ \000"
 13113      494E475F 
 13113      485F2000 
 13114              	.LASF38:
 13115 8f1d 5F5F4348 		.ascii	"__CHAR16_TYPE__ short unsigned int\000"
 13115      41523136 
 13115      5F545950 
 13115      455F5F20 
 13115      73686F72 
 13116              	.LASF1201:
 13117 8f40 50524975 		.ascii	"PRIuMAX __PRIMAX(u)\000"
 13117      4D415820 
 13117      5F5F5052 
 13117      494D4158 
 13117      28752900 
 13118              	.LASF217:
 13119 8f54 5F5F464C 		.ascii	"__FLT64_MIN__ 2.2250738585072014e-308F64\000"
 13119      5436345F 
 13119      4D494E5F 
 13119      5F20322E 
 13119      32323530 
 13120              	.LASF136:
 13121 8f7d 5F5F494E 		.ascii	"__INTPTR_MAX__ 0x7fffffff\000"
 13121      54505452 
 13121      5F4D4158 
 13121      5F5F2030 
 13121      78376666 
 13122              	.LASF168:
 13123 8f97 5F5F4442 		.ascii	"__DBL_MAX__ ((double)1.7976931348623157e+308L)\000"
 13123      4C5F4D41 
 13123      585F5F20 
 13123      2828646F 
 13123      75626C65 
ARM GAS  /tmp/cceVa9lb.s 			page 307


 13124              	.LASF1209:
 13125 8fc6 5F5F5052 		.ascii	"__PRIPTR(x) __STRINGIFY(x)\000"
 13125      49505452 
 13125      28782920 
 13125      5F5F5354 
 13125      52494E47 
 13126              	.LASF1446:
 13127 8fe1 464C4F41 		.ascii	"FLOAT_VECT3_ZERO(_v) VECT3_ASSIGN(_v, 0., 0., 0.)\000"
 13127      545F5645 
 13127      4354335F 
 13127      5A45524F 
 13127      285F7629 
 13128              	.LASF1476:
 13129 9013 464C4F41 		.ascii	"FLOAT_QUAT_WRAP_SHORTEST(_q) WARNING(\"FLOAT_QUAT_W"
 13129      545F5155 
 13129      41545F57 
 13129      5241505F 
 13129      53484F52 
 13130 9045 5241505F 		.ascii	"RAP_SHORTEST macro is deprecated, use the lower cas"
 13130      53484F52 
 13130      54455354 
 13130      206D6163 
 13130      726F2069 
 13131 9078 65206675 		.ascii	"e function instead\") float_quat_wrap_shortest(&(_q"
 13131      6E637469 
 13131      6F6E2069 
 13131      6E737465 
 13131      61642229 
 13132 90aa 292900   		.ascii	"))\000"
 13133              	.LASF372:
 13134 90ad 5F5F4743 		.ascii	"__GCC_ATOMIC_POINTER_LOCK_FREE 2\000"
 13134      435F4154 
 13134      4F4D4943 
 13134      5F504F49 
 13134      4E544552 
 13135              	.LASF909:
 13136 90ce 5F4E6F6E 		.ascii	"_Nonnull \000"
 13136      6E756C6C 
 13136      2000
 13137              	.LASF737:
 13138 90d8 5F5F5359 		.ascii	"__SYS_LOCK_H__ \000"
 13138      535F4C4F 
 13138      434B5F48 
 13138      5F5F2000 
 13139              	.LASF1275:
 13140 90e8 4D5F5351 		.ascii	"M_SQRTPI 1.77245385090551602792981\000"
 13140      52545049 
 13140      20312E37 
 13140      37323435 
 13140      33383530 
 13141              	.LASF758:
 13142 910b 5F52414E 		.ascii	"_RAND48_MULT_1 (0xdeec)\000"
 13142      4434385F 
 13142      4D554C54 
 13142      5F312028 
 13142      30786465 
 13143              	.LASF417:
ARM GAS  /tmp/cceVa9lb.s 			page 308


 13144 9123 5F5F4152 		.ascii	"__ARM_FEATURE_FP16_SCALAR_ARITHMETIC\000"
 13144      4D5F4645 
 13144      41545552 
 13144      455F4650 
 13144      31365F53 
 13145              	.LASF1435:
 13146 9148 53504545 		.ascii	"SPEEDS_FLOAT_OF_BFP(_ef,_ei) { (_ef).x = SPEED_FLOA"
 13146      44535F46 
 13146      4C4F4154 
 13146      5F4F465F 
 13146      42465028 
 13147 917b 545F4F46 		.ascii	"T_OF_BFP((_ei).x); (_ef).y = SPEED_FLOAT_OF_BFP((_e"
 13147      5F424650 
 13147      28285F65 
 13147      69292E78 
 13147      293B2028 
 13148 91ae 69292E79 		.ascii	"i).y); (_ef).z = SPEED_FLOAT_OF_BFP((_ei).z); }\000"
 13148      293B2028 
 13148      5F656629 
 13148      2E7A203D 
 13148      20535045 
 13149              	.LASF197:
 13150 91de 5F5F464C 		.ascii	"__FLT32_MAX_10_EXP__ 38\000"
 13150      5433325F 
 13150      4D41585F 
 13150      31305F45 
 13150      58505F5F 
 13151              	.LASF1266:
 13152 91f6 4D5F5049 		.ascii	"M_PI_2 1.57079632679489661923\000"
 13152      5F322031 
 13152      2E353730 
 13152      37393633 
 13152      32363739 
 13153              	.LASF778:
 13154 9214 5F524545 		.ascii	"_REENT_RAND48_MULT(ptr) ((ptr)->_new._reent._r48._m"
 13154      4E545F52 
 13154      414E4434 
 13154      385F4D55 
 13154      4C542870 
 13155 9247 756C7429 		.ascii	"ult)\000"
 13155      00
 13156              	.LASF1006:
 13157 924c 494E545F 		.ascii	"INT_LEAST32_MIN (-INT_LEAST32_MAX - 1)\000"
 13157      4C454153 
 13157      5433325F 
 13157      4D494E20 
 13157      282D494E 
 13158              	.LASF1417:
 13159 9273 51554154 		.ascii	"QUAT_SDIV(_qo,_qi,_s) { (_qo).qi = (_qi).qi / (_s);"
 13159      5F534449 
 13159      56285F71 
 13159      6F2C5F71 
 13159      692C5F73 
 13160 92a6 20285F71 		.ascii	" (_qo).qx = (_qi).qx / (_s); (_qo).qy = (_qi).qy / "
 13160      6F292E71 
 13160      78203D20 
 13160      285F7169 
ARM GAS  /tmp/cceVa9lb.s 			page 309


 13160      292E7178 
 13161 92d9 285F7329 		.ascii	"(_s); (_qo).qz = (_qi).qz / (_s); }\000"
 13161      3B20285F 
 13161      716F292E 
 13161      717A203D 
 13161      20285F71 
 13162              	.LASF991:
 13163 92fd 494E545F 		.ascii	"INT_LEAST8_MAX\000"
 13163      4C454153 
 13163      54385F4D 
 13163      415800
 13164              	.LASF477:
 13165 930c 494D555F 		.ascii	"IMU_APOGEE_I2C_DEV i2c1\000"
 13165      41504F47 
 13165      45455F49 
 13165      32435F44 
 13165      45562069 
 13166              	.LASF129:
 13167 9324 5F5F494E 		.ascii	"__INT_FAST32_WIDTH__ 32\000"
 13167      545F4641 
 13167      53543332 
 13167      5F574944 
 13167      54485F5F 
 13168              	.LASF189:
 13169 933c 5F5F4C44 		.ascii	"__LDBL_HAS_DENORM__ 1\000"
 13169      424C5F48 
 13169      41535F44 
 13169      454E4F52 
 13169      4D5F5F20 
 13170              	.LASF1244:
 13171 9352 6670636C 		.ascii	"fpclassify(__x) (__builtin_fpclassify (FP_NAN, FP_I"
 13171      61737369 
 13171      6679285F 
 13171      5F782920 
 13171      285F5F62 
 13172 9385 4E46494E 		.ascii	"NFINITE, FP_NORMAL, FP_SUBNORMAL, FP_ZERO, __x))\000"
 13172      4954452C 
 13172      2046505F 
 13172      4E4F524D 
 13172      414C2C20 
 13173              	.LASF1166:
 13174 93b6 53434E75 		.ascii	"SCNu32 __SCN32(u)\000"
 13174      3332205F 
 13174      5F53434E 
 13174      33322875 
 13174      2900
 13175              	.LASF659:
 13176 93c8 5F414E53 		.ascii	"_ANSI_STDDEF_H \000"
 13176      495F5354 
 13176      44444546 
 13176      5F482000 
 13177              	.LASF414:
 13178 93d8 5F5F4152 		.ascii	"__ARM_FP16_FORMAT_IEEE\000"
 13178      4D5F4650 
 13178      31365F46 
 13178      4F524D41 
 13178      545F4945 
ARM GAS  /tmp/cceVa9lb.s 			page 310


 13179              	.LASF1428:
 13180 93ef 524D4154 		.ascii	"RMAT_FLOAT_OF_BFP(_ef,_ei) { (_ef).m[0] = TRIG_FLOA"
 13180      5F464C4F 
 13180      41545F4F 
 13180      465F4246 
 13180      50285F65 
 13181 9422 545F4F46 		.ascii	"T_OF_BFP((_ei).m[0]); (_ef).m[1] = TRIG_FLOAT_OF_BF"
 13181      5F424650 
 13181      28285F65 
 13181      69292E6D 
 13181      5B305D29 
 13182 9455 5028285F 		.ascii	"P((_ei).m[1]); (_ef).m[2] = TRIG_FLOAT_OF_BFP((_ei)"
 13182      6569292E 
 13182      6D5B315D 
 13182      293B2028 
 13182      5F656629 
 13183 9488 2E6D5B32 		.ascii	".m[2]); (_ef).m[3] = TRIG_FLOAT_OF_BFP((_ei).m[3]);"
 13183      5D293B20 
 13183      285F6566 
 13183      292E6D5B 
 13183      335D203D 
 13184 94bb 20285F65 		.ascii	" (_ef).m[4] = TRIG_FLOAT_OF_BFP((_ei).m[4]); (_ef)."
 13184      66292E6D 
 13184      5B345D20 
 13184      3D205452 
 13184      49475F46 
 13185 94ee 6D5B355D 		.ascii	"m[5] = TRIG_FLOAT_OF_BFP((_ei).m[5]); (_ef).m[6] = "
 13185      203D2054 
 13185      5249475F 
 13185      464C4F41 
 13185      545F4F46 
 13186 9521 54524947 		.ascii	"TRIG_FLOAT_OF_BFP((_ei).m[6]); (_ef).m[7] = TRIG_FL"
 13186      5F464C4F 
 13186      41545F4F 
 13186      465F4246 
 13186      5028285F 
 13187 9554 4F41545F 		.ascii	"OAT_OF_BFP((_ei).m[7]); (_ef).m[8] = TRIG_FLOAT_OF_"
 13187      4F465F42 
 13187      46502828 
 13187      5F656929 
 13187      2E6D5B37 
 13188 9587 42465028 		.ascii	"BFP((_ei).m[8]); }\000"
 13188      285F6569 
 13188      292E6D5B 
 13188      385D293B 
 13188      207D00
 13189              	.LASF1116:
 13190 959a 5F5F5343 		.ascii	"__SCN16LEAST(x) __LEAST16 __STRINGIFY(x)\000"
 13190      4E31364C 
 13190      45415354 
 13190      28782920 
 13190      5F5F4C45 
 13191              	.LASF53:
 13192 95c3 5F5F5549 		.ascii	"__UINT_LEAST8_TYPE__ unsigned char\000"
 13192      4E545F4C 
 13192      45415354 
 13192      385F5459 
ARM GAS  /tmp/cceVa9lb.s 			page 311


 13192      50455F5F 
 13193              	.LASF759:
 13194 95e6 5F52414E 		.ascii	"_RAND48_MULT_2 (0x0005)\000"
 13194      4434385F 
 13194      4D554C54 
 13194      5F322028 
 13194      30783030 
 13195              	.LASF733:
 13196 95fe 5F434C4F 		.ascii	"_CLOCKID_T_ unsigned long\000"
 13196      434B4944 
 13196      5F545F20 
 13196      756E7369 
 13196      676E6564 
 13197              	.LASF843:
 13198 9618 5F5F4343 		.ascii	"__CC_SUPPORTS_VARADIC_XXX 1\000"
 13198      5F535550 
 13198      504F5254 
 13198      535F5641 
 13198      52414449 
 13199              	.LASF441:
 13200 9634 5F5F5553 		.ascii	"__USES_INITFINI__ 1\000"
 13200      45535F49 
 13200      4E495446 
 13200      494E495F 
 13200      5F203100 
 13201              	.LASF907:
 13202 9648 5F5F4445 		.ascii	"__DEVOLATILE(type,var) ((type)(__uintptr_t)(volatil"
 13202      564F4C41 
 13202      54494C45 
 13202      28747970 
 13202      652C7661 
 13203 967b 6520766F 		.ascii	"e void *)(var))\000"
 13203      6964202A 
 13203      29287661 
 13203      72292900 
 13204              	.LASF1168:
 13205 968b 50524964 		.ascii	"PRIdLEAST32 __PRI32LEAST(d)\000"
 13205      4C454153 
 13205      54333220 
 13205      5F5F5052 
 13205      4933324C 
 13206              	.LASF212:
 13207 96a7 5F5F464C 		.ascii	"__FLT64_MAX_EXP__ 1024\000"
 13207      5436345F 
 13207      4D41585F 
 13207      4558505F 
 13207      5F203130 
 13208              	.LASF1447:
 13209 96be 464C4F41 		.ascii	"FLOAT_VECT3_NORM(_v) sqrtf(VECT3_NORM2(_v))\000"
 13209      545F5645 
 13209      4354335F 
 13209      4E4F524D 
 13209      285F7629 
 13210              	.LASF819:
 13211 96ea 5F5F6861 		.ascii	"__has_extension __has_feature\000"
 13211      735F6578 
 13211      74656E73 
ARM GAS  /tmp/cceVa9lb.s 			page 312


 13211      696F6E20 
 13211      5F5F6861 
 13212              	.LASF559:
 13213 9708 464C545F 		.ascii	"FLT_MAX_EXP\000"
 13213      4D41585F 
 13213      45585000 
 13214              	.LASF1375:
 13215 9714 56454354 		.ascii	"VECT3_RATES_CROSS_VECT3(_vo,_r1,_v2) { (_vo).x = (_"
 13215      335F5241 
 13215      5445535F 
 13215      43524F53 
 13215      535F5645 
 13216 9747 7231292E 		.ascii	"r1).q*(_v2).z - (_r1).r*(_v2).y; (_vo).y = (_r1).r*"
 13216      712A285F 
 13216      7632292E 
 13216      7A202D20 
 13216      285F7231 
 13217 977a 285F7632 		.ascii	"(_v2).x - (_r1).p*(_v2).z; (_vo).z = (_r1).p*(_v2)."
 13217      292E7820 
 13217      2D20285F 
 13217      7231292E 
 13217      702A285F 
 13218 97ad 79202D20 		.ascii	"y - (_r1).q*(_v2).x; }\000"
 13218      285F7231 
 13218      292E712A 
 13218      285F7632 
 13218      292E783B 
 13219              	.LASF1506:
 13220 97c4 444F5542 		.ascii	"DOUBLE_QUAT_VMULT(v_out,q,v_in) WARNING(\"DOUBLE_QU"
 13220      4C455F51 
 13220      5541545F 
 13220      564D554C 
 13220      5428765F 
 13221 97f6 41545F56 		.ascii	"AT_VMULT macro is deprecated, use the lower case fu"
 13221      4D554C54 
 13221      206D6163 
 13221      726F2069 
 13221      73206465 
 13222 9829 6E637469 		.ascii	"nction instead\") double_quat_vmult(&(v_out), &(q),"
 13222      6F6E2069 
 13222      6E737465 
 13222      61642229 
 13222      20646F75 
 13223 985b 20262876 		.ascii	" &(v_in))\000"
 13223      5F696E29 
 13223      2900
 13224              	.LASF922:
 13225 9865 5F5F756E 		.ascii	"__unlocks(...) __lock_annotate(unlock_function(__VA"
 13225      6C6F636B 
 13225      73282E2E 
 13225      2E29205F 
 13225      5F6C6F63 
 13226 9898 5F415247 		.ascii	"_ARGS__))\000"
 13226      535F5F29 
 13226      2900
 13227              	.LASF246:
 13228 98a2 5F5F5553 		.ascii	"__USFRACT_MAX__ 0XFFP-8UHR\000"
ARM GAS  /tmp/cceVa9lb.s 			page 313


 13228      46524143 
 13228      545F4D41 
 13228      585F5F20 
 13228      30584646 
 13229              	.LASF481:
 13230 98bd 50455249 		.ascii	"PERIODIC_FREQUENCY 100\000"
 13230      4F444943 
 13230      5F465245 
 13230      5155454E 
 13230      43592031 
 13231              	.LASF447:
 13232 98d4 41485253 		.ascii	"AHRS_ALIGNER_LED 2\000"
 13232      5F414C49 
 13232      474E4552 
 13232      5F4C4544 
 13232      203200
 13233              	.LASF1248:
 13234 98e7 69736E6F 		.ascii	"isnormal(__x) (__builtin_isnormal (__x))\000"
 13234      726D616C 
 13234      285F5F78 
 13234      2920285F 
 13234      5F627569 
 13235              	.LASF199:
 13236 9910 5F5F464C 		.ascii	"__FLT32_MAX__ 3.4028234663852886e+38F32\000"
 13236      5433325F 
 13236      4D41585F 
 13236      5F20332E 
 13236      34303238 
 13237              	.LASF537:
 13238 9938 4C44424C 		.ascii	"LDBL_MANT_DIG\000"
 13238      5F4D414E 
 13238      545F4449 
 13238      4700
 13239              	.LASF742:
 13240 9946 5F5F6C6F 		.ascii	"__lock_close(lock) ((void) 0)\000"
 13240      636B5F63 
 13240      6C6F7365 
 13240      286C6F63 
 13240      6B292028 
 13241              	.LASF1403:
 13242 9964 4D415433 		.ascii	"MAT33_INV(_minv,_m) { const float m00 = MAT33_ELMT("
 13242      335F494E 
 13242      56285F6D 
 13242      696E762C 
 13242      5F6D2920 
 13243 9997 285F6D29 		.ascii	"(_m),1,1)*MAT33_ELMT((_m),2,2) - MAT33_ELMT((_m),1,"
 13243      2C312C31 
 13243      292A4D41 
 13243      5433335F 
 13243      454C4D54 
 13244 99ca 32292A4D 		.ascii	"2)*MAT33_ELMT((_m),2,1); const float m10 = MAT33_EL"
 13244      41543333 
 13244      5F454C4D 
 13244      5428285F 
 13244      6D292C32 
 13245 99fd 4D542828 		.ascii	"MT((_m),0,1)*MAT33_ELMT((_m),2,2) - MAT33_ELMT((_m)"
 13245      5F6D292C 
ARM GAS  /tmp/cceVa9lb.s 			page 314


 13245      302C3129 
 13245      2A4D4154 
 13245      33335F45 
 13246 9a30 2C302C32 		.ascii	",0,2)*MAT33_ELMT((_m),2,1); const float m20 = MAT33"
 13246      292A4D41 
 13246      5433335F 
 13246      454C4D54 
 13246      28285F6D 
 13247 9a63 5F454C4D 		.ascii	"_ELMT((_m),0,1)*MAT33_ELMT((_m),1,2) - MAT33_ELMT(("
 13247      5428285F 
 13247      6D292C30 
 13247      2C31292A 
 13247      4D415433 
 13248 9a96 5F6D292C 		.ascii	"_m),0,2)*MAT33_ELMT((_m),1,1); const float m01 = MA"
 13248      302C3229 
 13248      2A4D4154 
 13248      33335F45 
 13248      4C4D5428 
 13249 9ac9 5433335F 		.ascii	"T33_ELMT((_m),1,0)*MAT33_ELMT((_m),2,2) - MAT33_ELM"
 13249      454C4D54 
 13249      28285F6D 
 13249      292C312C 
 13249      30292A4D 
 13250 9afc 5428285F 		.ascii	"T((_m),1,2)*MAT33_ELMT((_m),2,0); const float m11 ="
 13250      6D292C31 
 13250      2C32292A 
 13250      4D415433 
 13250      335F454C 
 13251 9b2f 204D4154 		.ascii	" MAT33_ELMT((_m),0,0)*MAT33_ELMT((_m),2,2) - MAT33_"
 13251      33335F45 
 13251      4C4D5428 
 13251      285F6D29 
 13251      2C302C30 
 13252 9b62 454C4D54 		.ascii	"ELMT((_m),0,2)*MAT33_ELMT((_m),2,0); const float m2"
 13252      28285F6D 
 13252      292C302C 
 13252      32292A4D 
 13252      41543333 
 13253 9b95 31203D20 		.ascii	"1 = MAT33_ELMT((_m),0,0)*MAT33_ELMT((_m),1,2) - MAT"
 13253      4D415433 
 13253      335F454C 
 13253      4D542828 
 13253      5F6D292C 
 13254 9bc8 33335F45 		.ascii	"33_ELMT((_m),0,2)*MAT33_ELMT((_m),1,0); const float"
 13254      4C4D5428 
 13254      285F6D29 
 13254      2C302C32 
 13254      292A4D41 
 13255 9bfb 206D3032 		.ascii	" m02 = MAT33_ELMT((_m),1,0)*MAT33_ELMT((_m),2,1) - "
 13255      203D204D 
 13255      41543333 
 13255      5F454C4D 
 13255      5428285F 
 13256 9c2e 4D415433 		.ascii	"MAT33_ELMT((_m),1,1)*MAT33_ELMT((_m),2,0); const fl"
 13256      335F454C 
 13256      4D542828 
 13256      5F6D292C 
ARM GAS  /tmp/cceVa9lb.s 			page 315


 13256      312C3129 
 13257 9c61 6F617420 		.ascii	"oat m12 = MAT33_ELMT((_m),0,0)*MAT33_ELMT((_m),2,1)"
 13257      6D313220 
 13257      3D204D41 
 13257      5433335F 
 13257      454C4D54 
 13258 9c94 202D204D 		.ascii	" - MAT33_ELMT((_m),0,1)*MAT33_ELMT((_m),2,0); const"
 13258      41543333 
 13258      5F454C4D 
 13258      5428285F 
 13258      6D292C30 
 13259 9cc7 20666C6F 		.ascii	" float m22 = MAT33_ELMT((_m),0,0)*MAT33_ELMT((_m),1"
 13259      6174206D 
 13259      3232203D 
 13259      204D4154 
 13259      33335F45 
 13260 9cfa 2C312920 		.ascii	",1) - MAT33_ELMT((_m),0,1)*MAT33_ELMT((_m),1,0); co"
 13260      2D204D41 
 13260      5433335F 
 13260      454C4D54 
 13260      28285F6D 
 13261 9d2d 6E737420 		.ascii	"nst float det = MAT33_ELMT((_m),0,0)*m00 - MAT33_EL"
 13261      666C6F61 
 13261      74206465 
 13261      74203D20 
 13261      4D415433 
 13262 9d60 4D542828 		.ascii	"MT((_m),1,0)*m10 + MAT33_ELMT((_m),2,0)*m20; if (fa"
 13262      5F6D292C 
 13262      312C3029 
 13262      2A6D3130 
 13262      202B204D 
 13263 9d93 62732864 		.ascii	"bs(det) > FLT_EPSILON) { MAT33_ELMT((_minv),0,0) = "
 13263      65742920 
 13263      3E20464C 
 13263      545F4550 
 13263      53494C4F 
 13264 9dc6 6D303020 		.ascii	"m00 / det; MAT33_ELMT((_minv),1,0) = -m01 / det; MA"
 13264      2F206465 
 13264      743B204D 
 13264      41543333 
 13264      5F454C4D 
 13265 9df9 5433335F 		.ascii	"T33_ELMT((_minv),2,0) = m02 / det; MAT33_ELMT((_min"
 13265      454C4D54 
 13265      28285F6D 
 13265      696E7629 
 13265      2C322C30 
 13266 9e2c 76292C30 		.ascii	"v),0,1) = -m10 / det; MAT33_ELMT((_minv),1,1) = m11"
 13266      2C312920 
 13266      3D202D6D 
 13266      3130202F 
 13266      20646574 
 13267 9e5f 202F2064 		.ascii	" / det; MAT33_ELMT((_minv),2,1) = -m12 / det; MAT33"
 13267      65743B20 
 13267      4D415433 
 13267      335F454C 
 13267      4D542828 
 13268 9e92 5F454C4D 		.ascii	"_ELMT((_minv),0,2) = m20 / det; MAT33_ELMT((_minv),"
ARM GAS  /tmp/cceVa9lb.s 			page 316


 13268      5428285F 
 13268      6D696E76 
 13268      292C302C 
 13268      3229203D 
 13269 9ec5 312C3229 		.ascii	"1,2) = -m21 / det; MAT33_ELMT((_minv),2,2) = m22 / "
 13269      203D202D 
 13269      6D323120 
 13269      2F206465 
 13269      743B204D 
 13270 9ef8 6465743B 		.ascii	"det; } }\000"
 13270      207D207D 
 13270      00
 13271              	.LASF1277:
 13272 9f01 4D5F4C4E 		.ascii	"M_LN2HI 6.9314718036912381649E-1\000"
 13272      32484920 
 13272      362E3933 
 13272      31343731 
 13272      38303336 
 13273              	.LASF1236:
 13274 9f22 46505F5A 		.ascii	"FP_ZERO 2\000"
 13274      45524F20 
 13274      3200
 13275              	.LASF1458:
 13276 9f2c 464C4F41 		.ascii	"FLOAT_RMAT_INV(_m_b2a,_m_a2b) WARNING(\"FLOAT_RMAT_"
 13276      545F524D 
 13276      41545F49 
 13276      4E56285F 
 13276      6D5F6232 
 13277 9f5e 494E5620 		.ascii	"INV macro is deprecated, use the lower case functio"
 13277      6D616372 
 13277      6F206973 
 13277      20646570 
 13277      72656361 
 13278 9f91 6E20696E 		.ascii	"n instead\") float_rmat_inv(&(_m_b2a), &(_m_a2b))\000"
 13278      73746561 
 13278      64222920 
 13278      666C6F61 
 13278      745F726D 
 13279              	.LASF898:
 13280 9fc2 5F5F7761 		.ascii	"__warn_references(sym,msg) __asm__(\".section .gnu."
 13280      726E5F72 
 13280      65666572 
 13280      656E6365 
 13280      73287379 
 13281 9ff4 7761726E 		.ascii	"warning.\" #sym); __asm__(\".asciz \\\"\" msg \"\\\""
 13281      696E672E 
 13281      22202373 
 13281      796D293B 
 13281      205F5F61 
 13282 a020 22293B20 		.ascii	"\"); __asm__(\".previous\")\000"
 13282      5F5F6173 
 13282      6D5F5F28 
 13282      222E7072 
 13282      6576696F 
 13283              	.LASF784:
 13284 a039 5F524545 		.ascii	"_REENT_ASCTIME_BUF(ptr) ((ptr)->_new._reent._asctim"
 13284      4E545F41 
ARM GAS  /tmp/cceVa9lb.s 			page 317


 13284      53435449 
 13284      4D455F42 
 13284      55462870 
 13285 a06c 655F6275 		.ascii	"e_buf)\000"
 13285      662900
 13286              	.LASF869:
 13287 a073 5F5F6765 		.ascii	"__generic(expr,t,yes,no) __builtin_choose_expr( __b"
 13287      6E657269 
 13287      63286578 
 13287      70722C74 
 13287      2C796573 
 13288 a0a6 75696C74 		.ascii	"uiltin_types_compatible_p(__typeof(expr), t), yes, "
 13288      696E5F74 
 13288      79706573 
 13288      5F636F6D 
 13288      70617469 
 13289 a0d9 6E6F2900 		.ascii	"no)\000"
 13290              	.LASF332:
 13291 a0dd 5F5F5553 		.ascii	"__USQ_FBIT__ 32\000"
 13291      515F4642 
 13291      49545F5F 
 13291      20333200 
 13292              	.LASF1140:
 13293 a0ed 50524964 		.ascii	"PRIdFAST16 __PRI16FAST(d)\000"
 13293      46415354 
 13293      3136205F 
 13293      5F505249 
 13293      31364641 
 13294              	.LASF1197:
 13295 a107 5F5F5343 		.ascii	"__SCNMAX(x) __STRINGIFY(ll ##x)\000"
 13295      4E4D4158 
 13295      28782920 
 13295      5F5F5354 
 13295      52494E47 
 13296              	.LASF57:
 13297 a127 5F5F494E 		.ascii	"__INT_FAST8_TYPE__ int\000"
 13297      545F4641 
 13297      5354385F 
 13297      54595045 
 13297      5F5F2069 
 13298              	.LASF354:
 13299 a13e 5F5F5245 		.ascii	"__REGISTER_PREFIX__ \000"
 13299      47495354 
 13299      45525F50 
 13299      52454649 
 13299      585F5F20 
 13300              	.LASF1580:
 13301 a153 636F735F 		.ascii	"cos_lon\000"
 13301      6C6F6E00 
 13302              	.LASF1078:
 13303 a15b 55494E54 		.ascii	"UINT8_C(c) __UINT8_C(c)\000"
 13303      385F4328 
 13303      6329205F 
 13303      5F55494E 
 13303      54385F43 
 13304              	.LASF983:
 13305 a173 55494E54 		.ascii	"UINT32_MAX\000"
ARM GAS  /tmp/cceVa9lb.s 			page 318


 13305      33325F4D 
 13305      415800
 13306              	.LASF536:
 13307 a17e 44424C5F 		.ascii	"DBL_MANT_DIG\000"
 13307      4D414E54 
 13307      5F444947 
 13307      00
 13308              	.LASF436:
 13309 a18b 5F5F4152 		.ascii	"__ARM_FEATURE_BF16_SCALAR_ARITHMETIC\000"
 13309      4D5F4645 
 13309      41545552 
 13309      455F4246 
 13309      31365F53 
 13310              	.LASF810:
 13311 a1b0 5F5F7074 		.ascii	"__ptr_t void *\000"
 13311      725F7420 
 13311      766F6964 
 13311      202A00
 13312              	.LASF483:
 13313 a1bf 50455249 		.ascii	"PERIPHERALS_AUTO_INIT 1\000"
 13313      50484552 
 13313      414C535F 
 13313      4155544F 
 13313      5F494E49 
 13314              	.LASF1189:
 13315 a1d7 53434E78 		.ascii	"SCNxFAST32 __SCN32FAST(x)\000"
 13315      46415354 
 13315      3332205F 
 13315      5F53434E 
 13315      33324641 
 13316              	.LASF249:
 13317 a1f1 5F5F4652 		.ascii	"__FRACT_IBIT__ 0\000"
 13317      4143545F 
 13317      49424954 
 13317      5F5F2030 
 13317      00
 13318              	.LASF730:
 13319 a202 756E7369 		.ascii	"unsigned\000"
 13319      676E6564 
 13319      00
 13320              	.LASF4:
 13321 a20b 5F5F5354 		.ascii	"__STDC_HOSTED__ 1\000"
 13321      44435F48 
 13321      4F535445 
 13321      445F5F20 
 13321      3100
 13322              	.LASF1576:
 13323 a21d 65636566 		.ascii	"ecef_of_lla_d\000"
 13323      5F6F665F 
 13323      6C6C615F 
 13323      6400
 13324              	.LASF560:
 13325 a22b 44424C5F 		.ascii	"DBL_MAX_EXP\000"
 13325      4D41585F 
 13325      45585000 
 13326              	.LASF1249:
 13327 a237 7369676E 		.ascii	"signbit(__x) ((sizeof(__x) == sizeof(float)) ? __bu"
ARM GAS  /tmp/cceVa9lb.s 			page 319


 13327      62697428 
 13327      5F5F7829 
 13327      20282873 
 13327      697A656F 
 13328 a26a 696C7469 		.ascii	"iltin_signbitf(__x) : (sizeof(__x) == sizeof(double"
 13328      6E5F7369 
 13328      676E6269 
 13328      7466285F 
 13328      5F782920 
 13329 a29d 2929203F 		.ascii	")) ? __builtin_signbit (__x) : __builtin_signbitl(_"
 13329      205F5F62 
 13329      75696C74 
 13329      696E5F73 
 13329      69676E62 
 13330 a2d0 5F782929 		.ascii	"_x))\000"
 13330      00
 13331              	.LASF1380:
 13332 a2d5 45554C45 		.ascii	"EULERS_DIFF(_c,_a,_b) { (_c).phi = (_a).phi - (_b)."
 13332      52535F44 
 13332      49464628 
 13332      5F632C5F 
 13332      612C5F62 
 13333 a308 7068693B 		.ascii	"phi; (_c).theta = (_a).theta - (_b).theta; (_c).psi"
 13333      20285F63 
 13333      292E7468 
 13333      65746120 
 13333      3D20285F 
 13334 a33b 203D2028 		.ascii	" = (_a).psi - (_b).psi; }\000"
 13334      5F61292E 
 13334      70736920 
 13334      2D20285F 
 13334      62292E70 
 13335              	.LASF925:
 13336 a355 5F5F7265 		.ascii	"__requires_exclusive(...) __lock_annotate(exclusive"
 13336      71756972 
 13336      65735F65 
 13336      78636C75 
 13336      73697665 
 13337 a388 5F6C6F63 		.ascii	"_locks_required(__VA_ARGS__))\000"
 13337      6B735F72 
 13337      65717569 
 13337      72656428 
 13337      5F5F5641 
 13338              	.LASF510:
 13339 a3a6 5553455F 		.ascii	"USE_LED 1\000"
 13339      4C454420 
 13339      3100
 13340              	.LASF1110:
 13341 a3b0 50524978 		.ascii	"PRIxFAST8 __PRI8FAST(x)\000"
 13341      46415354 
 13341      38205F5F 
 13341      50524938 
 13341      46415354 
 13342              	.LASF1525:
 13343 a3c8 6C6F6E67 		.ascii	"long int\000"
 13343      20696E74 
 13343      00
ARM GAS  /tmp/cceVa9lb.s 			page 320


 13344              	.LASF1294:
 13345 a3d1 494E464F 		.ascii	"INFO_VALUE(x,v) DO_PRAGMA(message (\"Info: \" x VAL"
 13345      5F56414C 
 13345      55452878 
 13345      2C762920 
 13345      444F5F50 
 13346 a402 55452876 		.ascii	"UE(v)))\000"
 13346      29292900 
 13347              	.LASF76:
 13348 a40a 5F5F5749 		.ascii	"__WINT_MIN__ 0U\000"
 13348      4E545F4D 
 13348      494E5F5F 
 13348      20305500 
 13349              	.LASF1283:
 13350 a41a 5F4C4942 		.ascii	"_LIB_VERSION __fdlib_version\000"
 13350      5F564552 
 13350      53494F4E 
 13350      205F5F66 
 13350      646C6962 
 13351              	.LASF782:
 13352 a437 5F524545 		.ascii	"_REENT_MP_P5S(ptr) ((ptr)->_p5s)\000"
 13352      4E545F4D 
 13352      505F5035 
 13352      53287074 
 13352      72292028 
 13353              	.LASF616:
 13354 a458 5F5F5359 		.ascii	"__SYS_CONFIG_H__ \000"
 13354      535F434F 
 13354      4E464947 
 13354      5F485F5F 
 13354      2000
 13355              	.LASF169:
 13356 a46a 5F5F4442 		.ascii	"__DBL_NORM_MAX__ ((double)1.7976931348623157e+308L)"
 13356      4C5F4E4F 
 13356      524D5F4D 
 13356      41585F5F 
 13356      20282864 
 13357 a49d 00       		.ascii	"\000"
 13358              	.LASF1484:
 13359 a49e 464C4F41 		.ascii	"FLOAT_QUAT_COMP_INV_NORM_SHORTEST(_a2b,_a2c,_b2c) W"
 13359      545F5155 
 13359      41545F43 
 13359      4F4D505F 
 13359      494E565F 
 13360 a4d1 41524E49 		.ascii	"ARNING(\"FLOAT_QUAT_COMP_INV_NORM_SHORTEST macro is"
 13360      4E472822 
 13360      464C4F41 
 13360      545F5155 
 13360      41545F43 
 13361 a503 20646570 		.ascii	" deprecated, use the lower case function instead\")"
 13361      72656361 
 13361      7465642C 
 13361      20757365 
 13361      20746865 
 13362 a535 20666C6F 		.ascii	" float_quat_comp_inv_norm_shortest(&(_a2b), &(_a2c)"
 13362      61745F71 
 13362      7561745F 
ARM GAS  /tmp/cceVa9lb.s 			page 321


 13362      636F6D70 
 13362      5F696E76 
 13363 a568 2C202628 		.ascii	", &(_b2c))\000"
 13363      5F623263 
 13363      292900
 13364              	.LASF973:
 13365 a573 494E5431 		.ascii	"INT16_MAX\000"
 13365      365F4D41 
 13365      5800
 13366              	.LASF173:
 13367 a57d 5F5F4442 		.ascii	"__DBL_HAS_DENORM__ 1\000"
 13367      4C5F4841 
 13367      535F4445 
 13367      4E4F524D 
 13367      5F5F2031 
 13368              	.LASF1104:
 13369 a592 50524978 		.ascii	"PRIxLEAST8 __PRI8LEAST(x)\000"
 13369      4C454153 
 13369      5438205F 
 13369      5F505249 
 13369      384C4541 
 13370              	.LASF1274:
 13371 a5ac 4D5F3350 		.ascii	"M_3PI_4 2.3561944901923448370E0\000"
 13371      495F3420 
 13371      322E3335 
 13371      36313934 
 13371      34393031 
 13372              	.LASF631:
 13373 a5cc 5F5F4154 		.ascii	"__ATFILE_VISIBLE 1\000"
 13373      46494C45 
 13373      5F564953 
 13373      49424C45 
 13373      203100
 13374              	.LASF360:
 13375 a5df 5F5F4743 		.ascii	"__GCC_HAVE_SYNC_COMPARE_AND_SWAP_2 1\000"
 13375      435F4841 
 13375      56455F53 
 13375      594E435F 
 13375      434F4D50 
 13376              	.LASF213:
 13377 a604 5F5F464C 		.ascii	"__FLT64_MAX_10_EXP__ 308\000"
 13377      5436345F 
 13377      4D41585F 
 13377      31305F45 
 13377      58505F5F 
 13378              	.LASF1535:
 13379 a61d 45636566 		.ascii	"EcefCoor_d\000"
 13379      436F6F72 
 13379      5F6400
 13380              	.LASF1134:
 13381 a628 50524958 		.ascii	"PRIXLEAST16 __PRI16LEAST(X)\000"
 13381      4C454153 
 13381      54313620 
 13381      5F5F5052 
 13381      4931364C 
 13382              	.LASF764:
 13383 a644 5F4E5F4C 		.ascii	"_N_LISTS 30\000"
ARM GAS  /tmp/cceVa9lb.s 			page 322


 13383      49535453 
 13383      20333000 
 13384              	.LASF588:
 13385 a650 4C44424C 		.ascii	"LDBL_MIN __LDBL_MIN__\000"
 13385      5F4D494E 
 13385      205F5F4C 
 13385      44424C5F 
 13385      4D494E5F 
 13386              	.LASF33:
 13387 a666 5F5F5054 		.ascii	"__PTRDIFF_TYPE__ int\000"
 13387      52444946 
 13387      465F5459 
 13387      50455F5F 
 13387      20696E74 
 13388              	.LASF1355:
 13389 a67b 56454354 		.ascii	"VECT3_ASSIGN(_a,_x,_y,_z) { (_a).x = (_x); (_a).y ="
 13389      335F4153 
 13389      5349474E 
 13389      285F612C 
 13389      5F782C5F 
 13390 a6ae 20285F79 		.ascii	" (_y); (_a).z = (_z); }\000"
 13390      293B2028 
 13390      5F61292E 
 13390      7A203D20 
 13390      285F7A29 
 13391              	.LASF83:
 13392 a6c6 5F5F4C4F 		.ascii	"__LONG_LONG_WIDTH__ 64\000"
 13392      4E475F4C 
 13392      4F4E475F 
 13392      57494454 
 13392      485F5F20 
 13393              	.LASF1392:
 13394 a6dd 52415445 		.ascii	"RATES_SDIV(_ro,_ri,_s) { (_ro).p = (_ri).p / (_s) ;"
 13394      535F5344 
 13394      4956285F 
 13394      726F2C5F 
 13394      72692C5F 
 13395 a710 20285F72 		.ascii	" (_ro).q = (_ri).q / (_s); (_ro).r = (_ri).r / (_s)"
 13395      6F292E71 
 13395      203D2028 
 13395      5F726929 
 13395      2E71202F 
 13396 a743 3B207D00 		.ascii	"; }\000"
 13397              	.LASF1582:
 13398 a747 6C6C615F 		.ascii	"lla_of_ecef_d\000"
 13398      6F665F65 
 13398      6365665F 
 13398      6400
 13399              	.LASF1118:
 13400 a755 50524964 		.ascii	"PRId16 __PRI16(d)\000"
 13400      3136205F 
 13400      5F505249 
 13400      31362864 
 13400      2900
 13401              	.LASF1405:
 13402 a767 56454354 		.ascii	"VECT3_VECT3_TRANS_MUL(_mat,_v_a,_v_b) { MAT33_ELMT("
 13402      335F5645 
ARM GAS  /tmp/cceVa9lb.s 			page 323


 13402      4354335F 
 13402      5452414E 
 13402      535F4D55 
 13403 a79a 285F6D61 		.ascii	"(_mat),0,0) = (_v_a).x*(_v_b).x; MAT33_ELMT((_mat),"
 13403      74292C30 
 13403      2C302920 
 13403      3D20285F 
 13403      765F6129 
 13404 a7cd 302C3129 		.ascii	"0,1) = (_v_a).x*(_v_b).y; MAT33_ELMT((_mat),0,2) = "
 13404      203D2028 
 13404      5F765F61 
 13404      292E782A 
 13404      285F765F 
 13405 a800 285F765F 		.ascii	"(_v_a).x*(_v_b).z; MAT33_ELMT((_mat),1,0) = (_v_a)."
 13405      61292E78 
 13405      2A285F76 
 13405      5F62292E 
 13405      7A3B204D 
 13406 a833 792A285F 		.ascii	"y*(_v_b).x; MAT33_ELMT((_mat),1,1) = (_v_a).y*(_v_b"
 13406      765F6229 
 13406      2E783B20 
 13406      4D415433 
 13406      335F454C 
 13407 a866 292E793B 		.ascii	").y; MAT33_ELMT((_mat),1,2) = (_v_a).y*(_v_b).z; MA"
 13407      204D4154 
 13407      33335F45 
 13407      4C4D5428 
 13407      285F6D61 
 13408 a899 5433335F 		.ascii	"T33_ELMT((_mat),2,0) = (_v_a).z*(_v_b).x; MAT33_ELM"
 13408      454C4D54 
 13408      28285F6D 
 13408      6174292C 
 13408      322C3029 
 13409 a8cc 5428285F 		.ascii	"T((_mat),2,1) = (_v_a).z*(_v_b).y; MAT33_ELMT((_mat"
 13409      6D617429 
 13409      2C322C31 
 13409      29203D20 
 13409      285F765F 
 13410 a8ff 292C322C 		.ascii	"),2,2) = (_v_a).z*(_v_b).z; }\000"
 13410      3229203D 
 13410      20285F76 
 13410      5F61292E 
 13410      7A2A285F 
 13411              	.LASF302:
 13412 a91d 5F5F4C41 		.ascii	"__LACCUM_EPSILON__ 0x1P-31LK\000"
 13412      4343554D 
 13412      5F455053 
 13412      494C4F4E 
 13412      5F5F2030 
 13413              	.LASF412:
 13414 a93a 5F5F4152 		.ascii	"__ARM_FP\000"
 13414      4D5F4650 
 13414      00
 13415              	.LASF1342:
 13416 a943 494E5445 		.ascii	"INTENTIONAL_FALLTHRU __attribute__ ((fallthrough));"
 13416      4E54494F 
 13416      4E414C5F 
ARM GAS  /tmp/cceVa9lb.s 			page 324


 13416      46414C4C 
 13416      54485255 
 13417 a976 00       		.ascii	"\000"
 13418              	.LASF1395:
 13419 a977 52415445 		.ascii	"RATES_BOUND_BOX(_v,_v_min,_v_max) { if ((_v).p > (_"
 13419      535F424F 
 13419      554E445F 
 13419      424F5828 
 13419      5F762C5F 
 13420 a9aa 765F6D61 		.ascii	"v_max).p) (_v).p = (_v_max).p; else if ((_v).p < (_"
 13420      78292E70 
 13420      2920285F 
 13420      76292E70 
 13420      203D2028 
 13421 a9dd 765F6D69 		.ascii	"v_min).p) (_v).p = (_v_min).p; if ((_v).q > (_v_max"
 13421      6E292E70 
 13421      2920285F 
 13421      76292E70 
 13421      203D2028 
 13422 aa10 292E7129 		.ascii	").q) (_v).q = (_v_max).q; else if ((_v).q < (_v_min"
 13422      20285F76 
 13422      292E7120 
 13422      3D20285F 
 13422      765F6D61 
 13423 aa43 292E7129 		.ascii	").q) (_v).q = (_v_min).q; if ((_v).r > (_v_max).r) "
 13423      20285F76 
 13423      292E7120 
 13423      3D20285F 
 13423      765F6D69 
 13424 aa76 285F7629 		.ascii	"(_v).r = (_v_max).r; else if ((_v).r < (_v_min).r) "
 13424      2E72203D 
 13424      20285F76 
 13424      5F6D6178 
 13424      292E723B 
 13425 aaa9 285F7629 		.ascii	"(_v).r = (_v_min).r; }\000"
 13425      2E72203D 
 13425      20285F76 
 13425      5F6D696E 
 13425      292E723B 
 13426              	.LASF644:
 13427 aac0 5F5F4558 		.ascii	"__EXPORT \000"
 13427      504F5254 
 13427      2000
 13428              	.LASF806:
 13429 aaca 5F5F504D 		.ascii	"__PMT(args) args\000"
 13429      54286172 
 13429      67732920 
 13429      61726773 
 13429      00
 13430              	.LASF521:
 13431 aadb 56454354 		.ascii	"VECT2_ENU_OF_TO_NED(_po,_pi) { (_po).x = (_pi).y; ("
 13431      325F454E 
 13431      555F4F46 
 13431      5F544F5F 
 13431      4E454428 
 13432 ab0e 5F706F29 		.ascii	"_po).y = (_pi).x; }\000"
 13432      2E79203D 
ARM GAS  /tmp/cceVa9lb.s 			page 325


 13432      20285F70 
 13432      69292E78 
 13432      3B207D00 
 13433              	.LASF664:
 13434 ab22 5F505452 		.ascii	"_PTRDIFF_T_ \000"
 13434      44494646 
 13434      5F545F20 
 13434      00
 13435              	.LASF1019:
 13436 ab2f 55494E54 		.ascii	"UINT_FAST8_MAX\000"
 13436      5F464153 
 13436      54385F4D 
 13436      415800
 13437              	.LASF1108:
 13438 ab3e 5052496F 		.ascii	"PRIoFAST8 __PRI8FAST(o)\000"
 13438      46415354 
 13438      38205F5F 
 13438      50524938 
 13438      46415354 
 13439              	.LASF84:
 13440 ab56 5F5F5743 		.ascii	"__WCHAR_WIDTH__ 32\000"
 13440      4841525F 
 13440      57494454 
 13440      485F5F20 
 13440      333200
 13441              	.LASF1276:
 13442 ab69 4D5F4C4E 		.ascii	"M_LN2LO 1.9082149292705877000E-10\000"
 13442      324C4F20 
 13442      312E3930 
 13442      38323134 
 13442      39323932 
 13443              	.LASF522:
 13444 ab8b 4C4C415F 		.ascii	"LLA_ASSIGN(_pos,_lat,_lon,_alt) { (_pos).lat = (_la"
 13444      41535349 
 13444      474E285F 
 13444      706F732C 
 13444      5F6C6174 
 13445 abbe 74293B20 		.ascii	"t); (_pos).lon = (_lon); (_pos).alt = (_alt); }\000"
 13445      285F706F 
 13445      73292E6C 
 13445      6F6E203D 
 13445      20285F6C 
 13446              	.LASF336:
 13447 abee 5F5F5554 		.ascii	"__UTQ_FBIT__ 128\000"
 13447      515F4642 
 13447      49545F5F 
 13447      20313238 
 13447      00
 13448              	.LASF1114:
 13449 abff 5F5F5052 		.ascii	"__PRI16FAST(x) __FAST16 __STRINGIFY(x)\000"
 13449      49313646 
 13449      41535428 
 13449      7829205F 
 13449      5F464153 
 13450              	.LASF894:
 13451 ac26 5F5F7374 		.ascii	"__strftimelike(fmtarg,firstvararg) __attribute__((_"
 13451      72667469 
ARM GAS  /tmp/cceVa9lb.s 			page 326


 13451      6D656C69 
 13451      6B652866 
 13451      6D746172 
 13452 ac59 5F666F72 		.ascii	"_format__ (__strftime__, fmtarg, firstvararg)))\000"
 13452      6D61745F 
 13452      5F20285F 
 13452      5F737472 
 13452      6674696D 
 13453              	.LASF663:
 13454 ac89 5F5F5054 		.ascii	"__PTRDIFF_T \000"
 13454      52444946 
 13454      465F5420 
 13454      00
 13455              	.LASF1485:
 13456 ac96 464C4F41 		.ascii	"FLOAT_QUAT_INV_COMP_NORM_SHORTEST(_b2c,_a2b,_a2c) W"
 13456      545F5155 
 13456      41545F49 
 13456      4E565F43 
 13456      4F4D505F 
 13457 acc9 41524E49 		.ascii	"ARNING(\"FLOAT_QUAT_INV_COMP_NORM_SHORTEST macro is"
 13457      4E472822 
 13457      464C4F41 
 13457      545F5155 
 13457      41545F49 
 13458 acfb 20646570 		.ascii	" deprecated, use the lower case function instead\")"
 13458      72656361 
 13458      7465642C 
 13458      20757365 
 13458      20746865 
 13459 ad2d 20666C6F 		.ascii	" float_quat_inv_comp_norm_shortest(&(_b2c), &(_a2b)"
 13459      61745F71 
 13459      7561745F 
 13459      696E765F 
 13459      636F6D70 
 13460 ad60 2C202628 		.ascii	", &(_a2c))\000"
 13460      5F613263 
 13460      292900
 13461              	.LASF1173:
 13462 ad6b 50524958 		.ascii	"PRIXLEAST32 __PRI32LEAST(X)\000"
 13462      4C454153 
 13462      54333220 
 13462      5F5F5052 
 13462      4933324C 
 13463              	.LASF679:
 13464 ad87 5F53495A 		.ascii	"_SIZE_T_DEFINED_ \000"
 13464      455F545F 
 13464      44454649 
 13464      4E45445F 
 13464      2000
 13465              	.LASF379:
 13466 ad99 5F5F4152 		.ascii	"__ARM_FEATURE_DSP 1\000"
 13466      4D5F4645 
 13466      41545552 
 13466      455F4453 
 13466      50203100 
 13467              	.LASF570:
 13468 adad 4C44424C 		.ascii	"LDBL_MAX_10_EXP __LDBL_MAX_10_EXP__\000"
ARM GAS  /tmp/cceVa9lb.s 			page 327


 13468      5F4D4158 
 13468      5F31305F 
 13468      45585020 
 13468      5F5F4C44 
 13469              	.LASF1007:
 13470 add1 55494E54 		.ascii	"UINT_LEAST32_MAX\000"
 13470      5F4C4541 
 13470      53543332 
 13470      5F4D4158 
 13470      00
 13471              	.LASF382:
 13472 ade2 5F5F4152 		.ascii	"__ARM_FEATURE_CRYPTO\000"
 13472      4D5F4645 
 13472      41545552 
 13472      455F4352 
 13472      5950544F 
 13473              	.LASF590:
 13474 adf7 464C545F 		.ascii	"FLT_ROUNDS 1\000"
 13474      524F554E 
 13474      44532031 
 13474      00
 13475              	.LASF962:
 13476 ae04 5F5F4C45 		.ascii	"__LEAST8 \"hh\"\000"
 13476      41535438 
 13476      20226868 
 13476      2200
 13477              	.LASF269:
 13478 ae12 5F5F4C4C 		.ascii	"__LLFRACT_IBIT__ 0\000"
 13478      46524143 
 13478      545F4942 
 13478      49545F5F 
 13478      203000
 13479              	.LASF204:
 13480 ae25 5F5F464C 		.ascii	"__FLT32_HAS_DENORM__ 1\000"
 13480      5433325F 
 13480      4841535F 
 13480      44454E4F 
 13480      524D5F5F 
 13481              	.LASF893:
 13482 ae3c 5F5F7374 		.ascii	"__strfmonlike(fmtarg,firstvararg) __attribute__((__"
 13482      72666D6F 
 13482      6E6C696B 
 13482      6528666D 
 13482      74617267 
 13483 ae6f 666F726D 		.ascii	"format__ (__strfmon__, fmtarg, firstvararg)))\000"
 13483      61745F5F 
 13483      20285F5F 
 13483      73747266 
 13483      6D6F6E5F 
 13484              	.LASF1415:
 13485 ae9d 51554154 		.ascii	"QUAT_INVERT(_qo,_qi) { (_qo).qi = (_qi).qi; (_qo).q"
 13485      5F494E56 
 13485      45525428 
 13485      5F716F2C 
 13485      5F716929 
 13486 aed0 78203D20 		.ascii	"x = -(_qi).qx; (_qo).qy = -(_qi).qy; (_qo).qz = -(_"
 13486      2D285F71 
ARM GAS  /tmp/cceVa9lb.s 			page 328


 13486      69292E71 
 13486      783B2028 
 13486      5F716F29 
 13487 af03 7169292E 		.ascii	"qi).qz; }\000"
 13487      717A3B20 
 13487      7D00
 13488              	.LASF474:
 13489 af0d 48414C5F 		.ascii	"HAL_USE_RTC TRUE\000"
 13489      5553455F 
 13489      52544320 
 13489      54525545 
 13489      00
 13490              	.LASF982:
 13491 af1e 494E5433 		.ascii	"INT32_MIN (-INT32_MAX - 1)\000"
 13491      325F4D49 
 13491      4E20282D 
 13491      494E5433 
 13491      325F4D41 
 13492              	.LASF1200:
 13493 af39 5052496F 		.ascii	"PRIoMAX __PRIMAX(o)\000"
 13493      4D415820 
 13493      5F5F5052 
 13493      494D4158 
 13493      286F2900 
 13494              	.LASF873:
 13495 af4d 5F5F616C 		.ascii	"__always_inline __inline__ __attribute__((__always_"
 13495      77617973 
 13495      5F696E6C 
 13495      696E6520 
 13495      5F5F696E 
 13496 af80 696E6C69 		.ascii	"inline__))\000"
 13496      6E655F5F 
 13496      292900
 13497              	.LASF278:
 13498 af8b 5F5F5341 		.ascii	"__SACCUM_FBIT__ 7\000"
 13498      4343554D 
 13498      5F464249 
 13498      545F5F20 
 13498      3700
 13499              	.LASF320:
 13500 af9d 5F5F4851 		.ascii	"__HQ_FBIT__ 15\000"
 13500      5F464249 
 13500      545F5F20 
 13500      313500
 13501              	.LASF1077:
 13502 afac 55494E54 		.ascii	"UINT8_C\000"
 13502      385F4300 
 13503              	.LASF309:
 13504 afb4 5F5F4C4C 		.ascii	"__LLACCUM_IBIT__ 32\000"
 13504      41434355 
 13504      4D5F4942 
 13504      49545F5F 
 13504      20333200 
 13505              	.LASF1516:
 13506 afc8 55746D5A 		.ascii	"UtmZoneOfLlaLonDeg(lla_lon) (floor((lla_lon) / 1e7 "
 13506      6F6E654F 
 13506      664C6C61 
ARM GAS  /tmp/cceVa9lb.s 			page 329


 13506      4C6F6E44 
 13506      6567286C 
 13507 affb 2B203138 		.ascii	"+ 180) / 6) + 1\000"
 13507      3029202F 
 13507      20362920 
 13507      2B203100 
 13508              	.LASF1533:
 13509 b00b 446F7562 		.ascii	"DoubleVect2\000"
 13509      6C655665 
 13509      63743200 
 13510              	.LASF676:
 13511 b017 5F5F5349 		.ascii	"__SIZE_T \000"
 13511      5A455F54 
 13511      2000
 13512              	.LASF268:
 13513 b021 5F5F4C4C 		.ascii	"__LLFRACT_FBIT__ 63\000"
 13513      46524143 
 13513      545F4642 
 13513      49545F5F 
 13513      20363300 
 13514              	.LASF177:
 13515 b035 5F5F4C44 		.ascii	"__LDBL_DIG__ 15\000"
 13515      424C5F44 
 13515      49475F5F 
 13515      20313500 
 13516              	.LASF39:
 13517 b045 5F5F4348 		.ascii	"__CHAR32_TYPE__ long unsigned int\000"
 13517      41523332 
 13517      5F545950 
 13517      455F5F20 
 13517      6C6F6E67 
 13518              	.LASF1553:
 13519 b067 75746D5F 		.ascii	"utm_of_lla_d\000"
 13519      6F665F6C 
 13519      6C615F64 
 13519      00
 13520              	.LASF736:
 13521 b074 5F5F4C6F 		.ascii	"__Long long\000"
 13521      6E67206C 
 13521      6F6E6700 
 13522              	.LASF1269:
 13523 b080 4D5F325F 		.ascii	"M_2_PI 0.63661977236758134308\000"
 13523      50492030 
 13523      2E363336 
 13523      36313937 
 13523      37323336 
 13524              	.LASF367:
 13525 b09e 5F5F4743 		.ascii	"__GCC_ATOMIC_SHORT_LOCK_FREE 2\000"
 13525      435F4154 
 13525      4F4D4943 
 13525      5F53484F 
 13525      52545F4C 
 13526              	.LASF621:
 13527 b0bd 5F5F474E 		.ascii	"__GNUC_PREREQ(maj,min) ((__GNUC__ << 16) + __GNUC_M"
 13527      55435F50 
 13527      52455245 
 13527      51286D61 
ARM GAS  /tmp/cceVa9lb.s 			page 330


 13527      6A2C6D69 
 13528 b0f0 494E4F52 		.ascii	"INOR__ >= ((maj) << 16) + (min))\000"
 13528      5F5F203E 
 13528      3D202828 
 13528      6D616A29 
 13528      203C3C20 
 13529              	.LASF266:
 13530 b111 5F5F554C 		.ascii	"__ULFRACT_MAX__ 0XFFFFFFFFP-32ULR\000"
 13530      46524143 
 13530      545F4D41 
 13530      585F5F20 
 13530      30584646 
 13531              	.LASF1099:
 13532 b133 50524958 		.ascii	"PRIX8 __PRI8(X)\000"
 13532      38205F5F 
 13532      50524938 
 13532      28582900 
 13533              	.LASF31:
 13534 b143 5F5F5349 		.ascii	"__SIZEOF_POINTER__ 4\000"
 13534      5A454F46 
 13534      5F504F49 
 13534      4E544552 
 13534      5F5F2034 
 13535              	.LASF807:
 13536 b158 5F5F444F 		.ascii	"__DOTS , ...\000"
 13536      5453202C 
 13536      202E2E2E 
 13536      00
 13537              	.LASF404:
 13538 b165 5F5F4743 		.ascii	"__GCC_ASM_FLAG_OUTPUTS__ 1\000"
 13538      435F4153 
 13538      4D5F464C 
 13538      41475F4F 
 13538      55545055 
 13539              	.LASF725:
 13540 b180 5F5F5F69 		.ascii	"___int_least32_t_defined 1\000"
 13540      6E745F6C 
 13540      65617374 
 13540      33325F74 
 13540      5F646566 
 13541              	.LASF872:
 13542 b19b 5F5F7075 		.ascii	"__pure __attribute__((__pure__))\000"
 13542      7265205F 
 13542      5F617474 
 13542      72696275 
 13542      74655F5F 
 13543              	.LASF1121:
 13544 b1bc 50524975 		.ascii	"PRIu16 __PRI16(u)\000"
 13544      3136205F 
 13544      5F505249 
 13544      31362875 
 13544      2900
 13545              	.LASF1290:
 13546 b1ce 5741524E 		.ascii	"WARNING(x) DO_PRAGMA(GCC warning #x)\000"
 13546      494E4728 
 13546      78292044 
 13546      4F5F5052 
ARM GAS  /tmp/cceVa9lb.s 			page 331


 13546      41474D41 
 13547              	.LASF1014:
 13548 b1f3 55494E54 		.ascii	"UINT_LEAST64_MAX __UINT_LEAST64_MAX__\000"
 13548      5F4C4541 
 13548      53543634 
 13548      5F4D4158 
 13548      205F5F55 
 13549              	.LASF37:
 13550 b219 5F5F5549 		.ascii	"__UINTMAX_TYPE__ long long unsigned int\000"
 13550      4E544D41 
 13550      585F5459 
 13550      50455F5F 
 13550      206C6F6E 
 13551              	.LASF675:
 13552 b241 5F545F53 		.ascii	"_T_SIZE \000"
 13552      495A4520 
 13552      00
 13553              	.LASF1106:
 13554 b24a 50524964 		.ascii	"PRIdFAST8 __PRI8FAST(d)\000"
 13554      46415354 
 13554      38205F5F 
 13554      50524938 
 13554      46415354 
 13555              	.LASF777:
 13556 b262 5F524545 		.ascii	"_REENT_RAND48_SEED(ptr) ((ptr)->_new._reent._r48._s"
 13556      4E545F52 
 13556      414E4434 
 13556      385F5345 
 13556      45442870 
 13557 b295 65656429 		.ascii	"eed)\000"
 13557      00
 13558              	.LASF1486:
 13559 b29a 464C4F41 		.ascii	"FLOAT_QUAT_DIFFERENTIAL(q_out,w,dt) WARNING(\"FLOAT"
 13559      545F5155 
 13559      41545F44 
 13559      49464645 
 13559      52454E54 
 13560 b2cc 5F515541 		.ascii	"_QUAT_DIFFERENTIAL macro is deprecated, use the low"
 13560      545F4449 
 13560      46464552 
 13560      454E5449 
 13560      414C206D 
 13561 b2ff 65722063 		.ascii	"er case function instead\") float_quat_differential"
 13561      61736520 
 13561      66756E63 
 13561      74696F6E 
 13561      20696E73 
 13562 b331 28262871 		.ascii	"(&(q_out), &(w), dt)\000"
 13562      5F6F7574 
 13562      292C2026 
 13562      2877292C 
 13562      20647429 
 13563              	.LASF137:
 13564 b346 5F5F494E 		.ascii	"__INTPTR_WIDTH__ 32\000"
 13564      54505452 
 13564      5F574944 
 13564      54485F5F 
ARM GAS  /tmp/cceVa9lb.s 			page 332


 13564      20333200 
 13565              	.LASF941:
 13566 b35a 5F5F696E 		.ascii	"__int20\000"
 13566      74323000 
 13567              	.LASF1138:
 13568 b362 53434E75 		.ascii	"SCNuLEAST16 __SCN16LEAST(u)\000"
 13568      4C454153 
 13568      54313620 
 13568      5F5F5343 
 13568      4E31364C 
 13569              	.LASF1145:
 13570 b37e 50524958 		.ascii	"PRIXFAST16 __PRI16FAST(X)\000"
 13570      46415354 
 13570      3136205F 
 13570      5F505249 
 13570      31364641 
 13571              	.LASF846:
 13572 b398 5F5F434F 		.ascii	"__CONCAT1(x,y) x ## y\000"
 13572      4E434154 
 13572      3128782C 
 13572      79292078 
 13572      20232320 
 13573              	.LASF1041:
 13574 b3ae 494E5450 		.ascii	"INTPTR_MIN\000"
 13574      54525F4D 
 13574      494E00
 13575              	.LASF1337:
 13576 b3b9 52756E58 		.ascii	"RunXTimesEvery(_jumpstart,_prescaler,_interval,_xti"
 13576      54696D65 
 13576      73457665 
 13576      7279285F 
 13576      6A756D70 
 13577 b3ec 6D65732C 		.ascii	"mes,_code) { static uint16_t prescaler = _jumpstart"
 13577      5F636F64 
 13577      6529207B 
 13577      20737461 
 13577      74696320 
 13578 b41f 3B207374 		.ascii	"; static uint16_t xtimes = 0; prescaler++; if (pres"
 13578      61746963 
 13578      2075696E 
 13578      7431365F 
 13578      74207874 
 13579 b452 63616C65 		.ascii	"caler >= _prescaler + _interval*xtimes && xtimes < "
 13579      72203E3D 
 13579      205F7072 
 13579      65736361 
 13579      6C657220 
 13580 b485 5F787469 		.ascii	"_xtimes) { _code; xtimes++; } if (xtimes >= _xtimes"
 13580      6D657329 
 13580      207B205F 
 13580      636F6465 
 13580      3B207874 
 13581 b4b8 29207B20 		.ascii	") { xtimes = 0; prescaler = 0; } }\000"
 13581      7874696D 
 13581      6573203D 
 13581      20303B20 
 13581      70726573 
ARM GAS  /tmp/cceVa9lb.s 			page 333


 13582              	.LASF878:
 13583 b4db 5F5F7265 		.ascii	"__result_use_check __attribute__((__warn_unused_res"
 13583      73756C74 
 13583      5F757365 
 13583      5F636865 
 13583      636B205F 
 13584 b50e 756C745F 		.ascii	"ult__))\000"
 13584      5F292900 
 13585              	.LASF1319:
 13586 b516 416E6428 		.ascii	"And(x,y) ((x) && (y))\000"
 13586      782C7929 
 13586      20282878 
 13586      29202626 
 13586      20287929 
 13587              	.LASF799:
 13588 b52c 5F524545 		.ascii	"_REENT_INIT_PTR(var) { memset((var), 0, sizeof(*(va"
 13588      4E545F49 
 13588      4E49545F 
 13588      50545228 
 13588      76617229 
 13589 b55f 72292929 		.ascii	"r))); _REENT_INIT_PTR_ZEROED(var); }\000"
 13589      3B205F52 
 13589      45454E54 
 13589      5F494E49 
 13589      545F5054 
 13590              	.LASF221:
 13591 b584 5F5F464C 		.ascii	"__FLT64_HAS_INFINITY__ 1\000"
 13591      5436345F 
 13591      4841535F 
 13591      494E4649 
 13591      4E495459 
 13592              	.LASF573:
 13593 b59d 4C44424C 		.ascii	"LDBL_MAX\000"
 13593      5F4D4158 
 13593      00
 13594              	.LASF1513:
 13595 b5a6 4E20284B 		.ascii	"N (K0*A)\000"
 13595      302A4129 
 13595      00
 13596              	.LASF639:
 13597 b5af 5F5F5853 		.ascii	"__XSI_VISIBLE 0\000"
 13597      495F5649 
 13597      5349424C 
 13597      45203000 
 13598              	.LASF1265:
 13599 b5bf 4D5F5049 		.ascii	"M_PI 3.14159265358979323846\000"
 13599      20332E31 
 13599      34313539 
 13599      32363533 
 13599      35383937 
 13600              	.LASF72:
 13601 b5db 5F5F4C4F 		.ascii	"__LONG_LONG_MAX__ 0x7fffffffffffffffLL\000"
 13601      4E475F4C 
 13601      4F4E475F 
 13601      4D41585F 
 13601      5F203078 
 13602              	.LASF1113:
ARM GAS  /tmp/cceVa9lb.s 			page 334


 13603 b602 5F5F5052 		.ascii	"__PRI16LEAST(x) __LEAST16 __STRINGIFY(x)\000"
 13603      4931364C 
 13603      45415354 
 13603      28782920 
 13603      5F5F4C45 
 13604              	.LASF1466:
 13605 b62b 464C4F41 		.ascii	"FLOAT_RMAT_OF_AXIS_ANGLE(_rm,_uv,_an) WARNING(\"FLO"
 13605      545F524D 
 13605      41545F4F 
 13605      465F4158 
 13605      49535F41 
 13606 b65d 41545F52 		.ascii	"AT_RMAT_OF_AXIS_ANGLE macro is deprecated, use the "
 13606      4D41545F 
 13606      4F465F41 
 13606      5849535F 
 13606      414E474C 
 13607 b690 6C6F7765 		.ascii	"lower case function instead\") float_rmat_of_axis_a"
 13607      72206361 
 13607      73652066 
 13607      756E6374 
 13607      696F6E20 
 13608 b6c2 6E676C65 		.ascii	"ngle(&(_rm), &(_uv), _an)\000"
 13608      2826285F 
 13608      726D292C 
 13608      2026285F 
 13608      7576292C 
 13609              	.LASF691:
 13610 b6dc 5F545F57 		.ascii	"_T_WCHAR_ \000"
 13610      43484152 
 13610      5F2000
 13611              	.LASF1:
 13612 b6e7 5F5F5354 		.ascii	"__STDC_VERSION__ 199901L\000"
 13612      44435F56 
 13612      45525349 
 13612      4F4E5F5F 
 13612      20313939 
 13613              	.LASF260:
 13614 b700 5F5F4C46 		.ascii	"__LFRACT_MIN__ (-0.5LR-0.5LR)\000"
 13614      52414354 
 13614      5F4D494E 
 13614      5F5F2028 
 13614      2D302E35 
 13615              	.LASF1504:
 13616 b71e 444F5542 		.ascii	"DOUBLE_QUAT_OF_EULERS(_q,_e) WARNING(\"DOUBLE_QUAT_"
 13616      4C455F51 
 13616      5541545F 
 13616      4F465F45 
 13616      554C4552 
 13617 b750 4F465F45 		.ascii	"OF_EULERS macro is deprecated, use the lower case f"
 13617      554C4552 
 13617      53206D61 
 13617      63726F20 
 13617      69732064 
 13618 b783 756E6374 		.ascii	"unction instead\") double_quat_of_eulers(&(_q), &(_"
 13618      696F6E20 
 13618      696E7374 
 13618      65616422 
ARM GAS  /tmp/cceVa9lb.s 			page 335


 13618      2920646F 
 13619 b7b5 65292900 		.ascii	"e))\000"
 13620              	.LASF610:
 13621 b7b9 5F484156 		.ascii	"_HAVE_CC_INHIBIT_LOOP_TO_LIBCALL 1\000"
 13621      455F4343 
 13621      5F494E48 
 13621      49424954 
 13621      5F4C4F4F 
 13622              	.LASF1051:
 13623 b7dc 50545244 		.ascii	"PTRDIFF_MAX\000"
 13623      4946465F 
 13623      4D415800 
 13624              	.LASF903:
 13625 b7e8 5F5F5243 		.ascii	"__RCSID_SOURCE(s) struct __hack\000"
 13625      5349445F 
 13625      534F5552 
 13625      43452873 
 13625      29207374 
 13626              	.LASF1157:
 13627 b808 50524964 		.ascii	"PRId32 __PRI32(d)\000"
 13627      3332205F 
 13627      5F505249 
 13627      33322864 
 13627      2900
 13628              	.LASF634:
 13629 b81a 5F5F4953 		.ascii	"__ISO_C_VISIBLE 1999\000"
 13629      4F5F435F 
 13629      56495349 
 13629      424C4520 
 13629      31393939 
 13630              	.LASF1177:
 13631 b82f 53434E75 		.ascii	"SCNuLEAST32 __SCN32LEAST(u)\000"
 13631      4C454153 
 13631      54333220 
 13631      5F5F5343 
 13631      4E33324C 
 13632              	.LASF1076:
 13633 b84b 494E5436 		.ascii	"INT64_C(c) __INT64_C(c)\000"
 13633      345F4328 
 13633      6329205F 
 13633      5F494E54 
 13633      36345F43 
 13634              	.LASF370:
 13635 b863 5F5F4743 		.ascii	"__GCC_ATOMIC_LLONG_LOCK_FREE 1\000"
 13635      435F4154 
 13635      4F4D4943 
 13635      5F4C4C4F 
 13635      4E475F4C 
 13636              	.LASF805:
 13637 b882 5F535953 		.ascii	"_SYS_CDEFS_H_ \000"
 13637      5F434445 
 13637      46535F48 
 13637      5F2000
 13638              	.LASF582:
 13639 b891 4C44424C 		.ascii	"LDBL_EPSILON __LDBL_EPSILON__\000"
 13639      5F455053 
 13639      494C4F4E 
ARM GAS  /tmp/cceVa9lb.s 			page 336


 13639      205F5F4C 
 13639      44424C5F 
 13640              	.LASF1159:
 13641 b8af 5052496F 		.ascii	"PRIo32 __PRI32(o)\000"
 13641      3332205F 
 13641      5F505249 
 13641      3332286F 
 13641      2900
 13642              	.LASF267:
 13643 b8c1 5F5F554C 		.ascii	"__ULFRACT_EPSILON__ 0x1P-32ULR\000"
 13643      46524143 
 13643      545F4550 
 13643      53494C4F 
 13643      4E5F5F20 
 13644              	.LASF446:
 13645 b8e0 41435455 		.ascii	"ACTUATORS 1\000"
 13645      41544F52 
 13645      53203100 
 13646              	.LASF1584:
 13647 b8ec 474E5520 		.ascii	"GNU C99 10.3.1 20210621 (release) -mcpu=cortex-m4 -"
 13647      43393920 
 13647      31302E33 
 13647      2E312032 
 13647      30323130 
 13648 b91f 6D666C6F 		.ascii	"mfloat-abi=softfp -mfpu=fpv4-sp-d16 -mno-thumb-inte"
 13648      61742D61 
 13648      62693D73 
 13648      6F667466 
 13648      70202D6D 
 13649 b952 72776F72 		.ascii	"rwork -mthumb -march=armv7e-m+fp -g -ggdb3 -O0 -std"
 13649      6B202D6D 
 13649      7468756D 
 13649      62202D6D 
 13649      61726368 
 13650 b985 3D676E75 		.ascii	"=gnu99 -fno-inline -falign-functions=16 -fomit-fram"
 13650      3939202D 
 13650      666E6F2D 
 13650      696E6C69 
 13650      6E65202D 
 13651 b9b8 652D706F 		.ascii	"e-pointer -ffunction-sections -fdata-sections -fno-"
 13651      696E7465 
 13651      72202D66 
 13651      66756E63 
 13651      74696F6E 
 13652 b9eb 636F6D6D 		.ascii	"common\000"
 13652      6F6E00
 13653              	.LASF1011:
 13654 b9f2 494E545F 		.ascii	"INT_LEAST64_MIN\000"
 13654      4C454153 
 13654      5436345F 
 13654      4D494E00 
 13655              	.LASF1409:
 13656 ba02 51554154 		.ascii	"QUAT_ASSIGN(_q,_i,_x,_y,_z) { (_q).qi = (_i); (_q)."
 13656      5F415353 
 13656      49474E28 
 13656      5F712C5F 
 13656      692C5F78 
ARM GAS  /tmp/cceVa9lb.s 			page 337


 13657 ba35 7178203D 		.ascii	"qx = (_x); (_q).qy = (_y); (_q).qz = (_z); }\000"
 13657      20285F78 
 13657      293B2028 
 13657      5F71292E 
 13657      7179203D 
 13658              	.LASF1352:
 13659 ba62 56454354 		.ascii	"VECT2_STRIM(_v,_min,_max) { (_v).x = (_v).x < _min "
 13659      325F5354 
 13659      52494D28 
 13659      5F762C5F 
 13659      6D696E2C 
 13660 ba95 3F205F6D 		.ascii	"? _min : (_v).x > _max ? _max : (_v).x; (_v).y = (_"
 13660      696E203A 
 13660      20285F76 
 13660      292E7820 
 13660      3E205F6D 
 13661 bac8 76292E79 		.ascii	"v).y < _min ? _min : (_v).y > _max ? _max : (_v).y;"
 13661      203C205F 
 13661      6D696E20 
 13661      3F205F6D 
 13661      696E203A 
 13662 bafb 207D00   		.ascii	" }\000"
 13663              	.LASF572:
 13664 bafe 44424C5F 		.ascii	"DBL_MAX\000"
 13664      4D415800 
 13665              	.LASF1054:
 13666 bb06 50545244 		.ascii	"PTRDIFF_MIN (-PTRDIFF_MAX - 1)\000"
 13666      4946465F 
 13666      4D494E20 
 13666      282D5054 
 13666      52444946 
 13667              	.LASF939:
 13668 bb25 63686172 		.ascii	"char\000"
 13668      00
 13669              	.LASF1182:
 13670 bb2a 50524975 		.ascii	"PRIuFAST32 __PRI32FAST(u)\000"
 13670      46415354 
 13670      3332205F 
 13670      5F505249 
 13670      33324641 
 13671              	.LASF218:
 13672 bb44 5F5F464C 		.ascii	"__FLT64_EPSILON__ 2.2204460492503131e-16F64\000"
 13672      5436345F 
 13672      45505349 
 13672      4C4F4E5F 
 13672      5F20322E 
 13673              	.LASF364:
 13674 bb70 5F5F4743 		.ascii	"__GCC_ATOMIC_CHAR16_T_LOCK_FREE 2\000"
 13674      435F4154 
 13674      4F4D4943 
 13674      5F434841 
 13674      5231365F 
 13675              	.LASF597:
 13676 bb92 5F5F4E45 		.ascii	"__NEWLIB_H__ 1\000"
 13676      574C4942 
 13676      5F485F5F 
 13676      203100
ARM GAS  /tmp/cceVa9lb.s 			page 338


 13677              	.LASF282:
 13678 bba1 5F5F5341 		.ascii	"__SACCUM_EPSILON__ 0x1P-7HK\000"
 13678      4343554D 
 13678      5F455053 
 13678      494C4F4E 
 13678      5F5F2030 
 13679              	.LASF1100:
 13680 bbbd 50524964 		.ascii	"PRIdLEAST8 __PRI8LEAST(d)\000"
 13680      4C454153 
 13680      5438205F 
 13680      5F505249 
 13680      384C4541 
 13681              	.LASF1519:
 13682 bbd7 4353696E 		.ascii	"CSin(v) { CI(v); struct DoubleVect2 vstar = {-v.x, "
 13682      28762920 
 13682      7B204349 
 13682      2876293B 
 13682      20737472 
 13683 bc0a 2D762E79 		.ascii	"-v.y}; CExp(v); CExp(vstar); VECT2_SUB(v, vstar); V"
 13683      7D3B2043 
 13683      45787028 
 13683      76293B20 
 13683      43457870 
 13684 bc3d 45435432 		.ascii	"ECT2_SMUL(v, v, -0.5); CI(v); }\000"
 13684      5F534D55 
 13684      4C28762C 
 13684      20762C20 
 13684      2D302E35 
 13685              	.LASF313:
 13686 bc5d 5F5F554C 		.ascii	"__ULLACCUM_FBIT__ 32\000"
 13686      4C414343 
 13686      554D5F46 
 13686      4249545F 
 13686      5F203332 
 13687              	.LASF855:
 13688 bc72 5F5F7075 		.ascii	"__pure2 __attribute__((__const__))\000"
 13688      72653220 
 13688      5F5F6174 
 13688      74726962 
 13688      7574655F 
 13689              	.LASF191:
 13690 bc95 5F5F4C44 		.ascii	"__LDBL_HAS_QUIET_NAN__ 1\000"
 13690      424C5F48 
 13690      41535F51 
 13690      55494554 
 13690      5F4E414E 
 13691              	.LASF699:
 13692 bcae 5F5F5F69 		.ascii	"___int_wchar_t_h \000"
 13692      6E745F77 
 13692      63686172 
 13692      5F745F68 
 13692      2000
 13693              	.LASF888:
 13694 bcc0 5F5F7261 		.ascii	"__rangeof(type,start,end) (__offsetof(type, end) - "
 13694      6E67656F 
 13694      66287479 
 13694      70652C73 
ARM GAS  /tmp/cceVa9lb.s 			page 339


 13694      74617274 
 13695 bcf3 5F5F6F66 		.ascii	"__offsetof(type, start))\000"
 13695      66736574 
 13695      6F662874 
 13695      7970652C 
 13695      20737461 
 13696              	.LASF73:
 13697 bd0c 5F5F5743 		.ascii	"__WCHAR_MAX__ 0xffffffffU\000"
 13697      4841525F 
 13697      4D41585F 
 13697      5F203078 
 13697      66666666 
 13698              	.LASF357:
 13699 bd26 5F5F4E4F 		.ascii	"__NO_INLINE__ 1\000"
 13699      5F494E4C 
 13699      494E455F 
 13699      5F203100 
 13700              	.LASF672:
 13701 bd36 5F53495A 		.ascii	"_SIZE_T \000"
 13701      455F5420 
 13701      00
 13702              	.LASF628:
 13703 bd3f 5F504F53 		.ascii	"_POSIX_C_SOURCE 200809L\000"
 13703      49585F43 
 13703      5F534F55 
 13703      52434520 
 13703      32303038 
 13704              	.LASF1215:
 13705 bd57 50524978 		.ascii	"PRIxPTR __PRIPTR(x)\000"
 13705      50545220 
 13705      5F5F5052 
 13705      49505452 
 13705      28782900 
 13706              	.LASF1326:
 13707 bd6b 426F756E 		.ascii	"BoundUpper(_x,_max) { if (_x > (_max)) _x = (_max);"
 13707      64557070 
 13707      6572285F 
 13707      782C5F6D 
 13707      61782920 
 13708 bd9e 7D00     		.ascii	"}\000"
 13709              	.LASF1369:
 13710 bda0 56454354 		.ascii	"VECT3_BOUND_CUBE(_v,_min,_max) { if ((_v).x > (_max"
 13710      335F424F 
 13710      554E445F 
 13710      43554245 
 13710      285F762C 
 13711 bdd3 29292028 		.ascii	")) (_v).x = (_max); else if ((_v).x < (_min)) (_v)."
 13711      5F76292E 
 13711      78203D20 
 13711      285F6D61 
 13711      78293B20 
 13712 be06 78203D20 		.ascii	"x = (_min); if ((_v).y > (_max)) (_v).y = (_max); e"
 13712      285F6D69 
 13712      6E293B20 
 13712      69662028 
 13712      285F7629 
 13713 be39 6C736520 		.ascii	"lse if ((_v).y < (_min)) (_v).y = (_min); if ((_v)."
ARM GAS  /tmp/cceVa9lb.s 			page 340


 13713      69662028 
 13713      285F7629 
 13713      2E79203C 
 13713      20285F6D 
 13714 be6c 7A203E20 		.ascii	"z > (_max)) (_v).z = (_max); else if ((_v).z < (_mi"
 13714      285F6D61 
 13714      78292920 
 13714      285F7629 
 13714      2E7A203D 
 13715 be9f 6E292920 		.ascii	"n)) (_v).z = (_min); }\000"
 13715      285F7629 
 13715      2E7A203D 
 13715      20285F6D 
 13715      696E293B 
 13716              	.LASF1332:
 13717 beb6 436C6970 		.ascii	"ClipAbs(x,max) Clip(x, -(max), (max))\000"
 13717      41627328 
 13717      782C6D61 
 13717      78292043 
 13717      6C697028 
 13718              	.LASF1142:
 13719 bedc 5052496F 		.ascii	"PRIoFAST16 __PRI16FAST(o)\000"
 13719      46415354 
 13719      3136205F 
 13719      5F505249 
 13719      31364641 
 13720              	.LASF176:
 13721 bef6 5F5F4C44 		.ascii	"__LDBL_MANT_DIG__ 53\000"
 13721      424C5F4D 
 13721      414E545F 
 13721      4449475F 
 13721      5F203533 
 13722              	.LASF1464:
 13723 bf0b 464C4F41 		.ascii	"FLOAT_RMAT_RATEMULT(_rb,_m_a2b,_ra) WARNING(\"FLOAT"
 13723      545F524D 
 13723      41545F52 
 13723      4154454D 
 13723      554C5428 
 13724 bf3d 5F524D41 		.ascii	"_RMAT_RATEMULT macro is deprecated, use the lower c"
 13724      545F5241 
 13724      54454D55 
 13724      4C54206D 
 13724      6163726F 
 13725 bf70 61736520 		.ascii	"ase function instead\") float_rmat_ratemult(&(_rb),"
 13725      66756E63 
 13725      74696F6E 
 13725      20696E73 
 13725      74656164 
 13726 bfa2 2026285F 		.ascii	" &(_m_a2b), &(_ra))\000"
 13726      6D5F6132 
 13726      62292C20 
 13726      26285F72 
 13726      61292900 
 13727              	.LASF273:
 13728 bfb6 5F5F554C 		.ascii	"__ULLFRACT_FBIT__ 64\000"
 13728      4C465241 
 13728      43545F46 
ARM GAS  /tmp/cceVa9lb.s 			page 341


 13728      4249545F 
 13728      5F203634 
 13729              	.LASF1061:
 13730 bfcb 57434841 		.ascii	"WCHAR_MAX\000"
 13730      525F4D41 
 13730      5800
 13731              	.LASF325:
 13732 bfd5 5F5F4451 		.ascii	"__DQ_IBIT__ 0\000"
 13732      5F494249 
 13732      545F5F20 
 13732      3000
 13733              	.LASF215:
 13734 bfe3 5F5F464C 		.ascii	"__FLT64_MAX__ 1.7976931348623157e+308F64\000"
 13734      5436345F 
 13734      4D41585F 
 13734      5F20312E 
 13734      37393736 
 13735              	.LASF484:
 13736 c00c 5050525A 		.ascii	"PPRZLINK_ENABLE_FD 1\000"
 13736      4C494E4B 
 13736      5F454E41 
 13736      424C455F 
 13736      46442031 
 13737              	.LASF680:
 13738 c021 5F53495A 		.ascii	"_SIZE_T_DEFINED \000"
 13738      455F545F 
 13738      44454649 
 13738      4E454420 
 13738      00
 13739              	.LASF1211:
 13740 c032 50524964 		.ascii	"PRIdPTR __PRIPTR(d)\000"
 13740      50545220 
 13740      5F5F5052 
 13740      49505452 
 13740      28642900 
 13741              	.LASF993:
 13742 c046 494E545F 		.ascii	"INT_LEAST8_MIN\000"
 13742      4C454153 
 13742      54385F4D 
 13742      494E00
 13743              	.LASF1306:
 13744 c055 53657442 		.ascii	"SetBit(a,n) a |= (1 << n)\000"
 13744      69742861 
 13744      2C6E2920 
 13744      61207C3D 
 13744      20283120 
 13745              	.LASF329:
 13746 c06f 5F5F5551 		.ascii	"__UQQ_IBIT__ 0\000"
 13746      515F4942 
 13746      49545F5F 
 13746      203000
 13747              	.LASF719:
 13748 c07e 5F5F5F69 		.ascii	"___int8_t_defined 1\000"
 13748      6E74385F 
 13748      745F6465 
 13748      66696E65 
 13748      64203100 
ARM GAS  /tmp/cceVa9lb.s 			page 342


 13749              	.LASF1267:
 13750 c092 4D5F5049 		.ascii	"M_PI_4 0.78539816339744830962\000"
 13750      5F342030 
 13750      2E373835 
 13750      33393831 
 13750      36333339 
 13751              	.LASF961:
 13752 c0b0 5F5F4641 		.ascii	"__FAST64 \"ll\"\000"
 13752      53543634 
 13752      20226C6C 
 13752      2200
 13753              	.LASF867:
 13754 c0be 5F4E6F72 		.ascii	"_Noreturn __dead2\000"
 13754      65747572 
 13754      6E205F5F 
 13754      64656164 
 13754      3200
 13755              	.LASF1480:
 13756 c0d0 464C4F41 		.ascii	"FLOAT_QUAT_MULT(_a2c,_a2b,_b2c) WARNING(\"FLOAT_QUA"
 13756      545F5155 
 13756      41545F4D 
 13756      554C5428 
 13756      5F613263 
 13757 c102 545F4D55 		.ascii	"T_MULT macro is deprecated, use the lower case func"
 13757      4C54206D 
 13757      6163726F 
 13757      20697320 
 13757      64657072 
 13758 c135 74696F6E 		.ascii	"tion instead\") float_quat_comp(&(_a2c), &(_a2b), &"
 13758      20696E73 
 13758      74656164 
 13758      22292066 
 13758      6C6F6174 
 13759 c167 285F6232 		.ascii	"(_b2c))\000"
 13759      63292900 
 13760              	.LASF1378:
 13761 c16f 45554C45 		.ascii	"EULERS_ADD(_a,_b) { (_a).phi += (_b).phi; (_a).thet"
 13761      52535F41 
 13761      4444285F 
 13761      612C5F62 
 13761      29207B20 
 13762 c1a2 61202B3D 		.ascii	"a += (_b).theta; (_a).psi += (_b).psi; }\000"
 13762      20285F62 
 13762      292E7468 
 13762      6574613B 
 13762      20285F61 
 13763              	.LASF1460:
 13764 c1cb 464C4F41 		.ascii	"FLOAT_RMAT_COMP(_m_a2c,_m_a2b,_m_b2c) WARNING(\"FLO"
 13764      545F524D 
 13764      41545F43 
 13764      4F4D5028 
 13764      5F6D5F61 
 13765 c1fd 41545F52 		.ascii	"AT_RMAT_COMP macro is deprecated, use the lower cas"
 13765      4D41545F 
 13765      434F4D50 
 13765      206D6163 
 13765      726F2069 
ARM GAS  /tmp/cceVa9lb.s 			page 343


 13766 c230 65206675 		.ascii	"e function instead\") float_rmat_comp(&(_m_a2c), &("
 13766      6E637469 
 13766      6F6E2069 
 13766      6E737465 
 13766      61642229 
 13767 c262 5F6D5F61 		.ascii	"_m_a2b), &(_m_b2c))\000"
 13767      3262292C 
 13767      2026285F 
 13767      6D5F6232 
 13767      63292900 
 13768              	.LASF467:
 13769 c276 464C4947 		.ascii	"FLIGHTRECORDER_SDLOG 1\000"
 13769      48545245 
 13769      434F5244 
 13769      45525F53 
 13769      444C4F47 
 13770              	.LASF433:
 13771 c28d 5F5F4152 		.ascii	"__ARM_FEATURE_CDE\000"
 13771      4D5F4645 
 13771      41545552 
 13771      455F4344 
 13771      4500
 13772              	.LASF632:
 13773 c29f 5F5F4253 		.ascii	"__BSD_VISIBLE 1\000"
 13773      445F5649 
 13773      5349424C 
 13773      45203100 
 13774              	.LASF931:
 13775 c2af 5F5F6E65 		.ascii	"__need_NULL \000"
 13775      65645F4E 
 13775      554C4C20 
 13775      00
 13776              	.LASF561:
 13777 c2bc 4C44424C 		.ascii	"LDBL_MAX_EXP\000"
 13777      5F4D4158 
 13777      5F455850 
 13777      00
 13778              	.LASF391:
 13779 c2c9 5F5F4152 		.ascii	"__ARM_FEATURE_LDREX\000"
 13779      4D5F4645 
 13779      41545552 
 13779      455F4C44 
 13779      52455800 
 13780              	.LASF1565:
 13781 c2dd 6E65645F 		.ascii	"ned_of_lla_point_d\000"
 13781      6F665F6C 
 13781      6C615F70 
 13781      6F696E74 
 13781      5F6400
 13782              	.LASF120:
 13783 c2f0 5F5F5549 		.ascii	"__UINT_LEAST32_MAX__ 0xffffffffUL\000"
 13783      4E545F4C 
 13783      45415354 
 13783      33325F4D 
 13783      41585F5F 
 13784              	.LASF518:
 13785 c312 5050525A 		.ascii	"PPRZ_GEODETIC_DOUBLE_H \000"
ARM GAS  /tmp/cceVa9lb.s 			page 344


 13785      5F47454F 
 13785      44455449 
 13785      435F444F 
 13785      55424C45 
 13786              	.LASF953:
 13787 c32a 5F494E54 		.ascii	"_INT32_EQ_LONG \000"
 13787      33325F45 
 13787      515F4C4F 
 13787      4E472000 
 13788              	.LASF706:
 13789 c33a 4E554C4C 		.ascii	"NULL ((void *)0)\000"
 13789      20282876 
 13789      6F696420 
 13789      2A293029 
 13789      00
 13790              	.LASF247:
 13791 c34b 5F5F5553 		.ascii	"__USFRACT_EPSILON__ 0x1P-8UHR\000"
 13791      46524143 
 13791      545F4550 
 13791      53494C4F 
 13791      4E5F5F20 
 13792              	.LASF1199:
 13793 c369 50524969 		.ascii	"PRIiMAX __PRIMAX(i)\000"
 13793      4D415820 
 13793      5F5F5052 
 13793      494D4158 
 13793      28692900 
 13794              	.LASF27:
 13795 c37d 5F5F4F52 		.ascii	"__ORDER_BIG_ENDIAN__ 4321\000"
 13795      4445525F 
 13795      4249475F 
 13795      454E4449 
 13795      414E5F5F 
 13796              	.LASF390:
 13797 c397 5F5F4152 		.ascii	"__ARM_FEATURE_CMSE\000"
 13797      4D5F4645 
 13797      41545552 
 13797      455F434D 
 13797      534500
 13798              	.LASF1398:
 13799 c3aa 4D415433 		.ascii	"MAT33_ELMT(_m,_row,_col) ((_m).m[(_row)*3+(_col)])\000"
 13799      335F454C 
 13799      4D54285F 
 13799      6D2C5F72 
 13799      6F772C5F 
 13800              	.LASF256:
 13801 c3dd 5F5F5546 		.ascii	"__UFRACT_MAX__ 0XFFFFP-16UR\000"
 13801      52414354 
 13801      5F4D4158 
 13801      5F5F2030 
 13801      58464646 
 13802              	.LASF715:
 13803 c3f9 5F4D4143 		.ascii	"_MACHINE__DEFAULT_TYPES_H \000"
 13803      48494E45 
 13803      5F5F4445 
 13803      4641554C 
 13803      545F5459 
ARM GAS  /tmp/cceVa9lb.s 			page 345


 13804              	.LASF63:
 13805 c414 5F5F5549 		.ascii	"__UINT_FAST32_TYPE__ unsigned int\000"
 13805      4E545F46 
 13805      41535433 
 13805      325F5459 
 13805      50455F5F 
 13806              	.LASF94:
 13807 c436 5F5F5349 		.ascii	"__SIG_ATOMIC_MIN__ (-__SIG_ATOMIC_MAX__ - 1)\000"
 13807      475F4154 
 13807      4F4D4943 
 13807      5F4D494E 
 13807      5F5F2028 
 13808              	.LASF1224:
 13809 c463 74727565 		.ascii	"true 1\000"
 13809      203100
 13810              	.LASF1074:
 13811 c46a 494E5433 		.ascii	"INT32_C(c) __INT32_C(c)\000"
 13811      325F4328 
 13811      6329205F 
 13811      5F494E54 
 13811      33325F43 
 13812              	.LASF1491:
 13813 c482 464C4F41 		.ascii	"FLOAT_QUAT_OF_EULERS(_q,_e) WARNING(\"FLOAT_QUAT_OF"
 13813      545F5155 
 13813      41545F4F 
 13813      465F4555 
 13813      4C455253 
 13814 c4b4 5F45554C 		.ascii	"_EULERS macro is deprecated, use the lower case fun"
 13814      45525320 
 13814      6D616372 
 13814      6F206973 
 13814      20646570 
 13815 c4e7 6374696F 		.ascii	"ction instead\") float_quat_of_eulers(&(_q), &(_e))"
 13815      6E20696E 
 13815      73746561 
 13815      64222920 
 13815      666C6F61 
 13816 c519 00       		.ascii	"\000"
 13817              	.LASF704:
 13818 c51a 5F5F6E65 		.ascii	"__need_wchar_t\000"
 13818      65645F77 
 13818      63686172 
 13818      5F7400
 13819              	.LASF151:
 13820 c529 5F5F464C 		.ascii	"__FLT_DECIMAL_DIG__ 9\000"
 13820      545F4445 
 13820      43494D41 
 13820      4C5F4449 
 13820      475F5F20 
 13821              	.LASF43:
 13822 c53f 5F5F494E 		.ascii	"__INT32_TYPE__ long int\000"
 13822      5433325F 
 13822      54595045 
 13822      5F5F206C 
 13822      6F6E6720 
 13823              	.LASF662:
 13824 c557 5F545F50 		.ascii	"_T_PTRDIFF \000"
ARM GAS  /tmp/cceVa9lb.s 			page 346


 13824      54524449 
 13824      46462000 
 13825              	.LASF284:
 13826 c563 5F5F5553 		.ascii	"__USACCUM_IBIT__ 8\000"
 13826      41434355 
 13826      4D5F4942 
 13826      49545F5F 
 13826      203800
 13827              	.LASF253:
 13828 c576 5F5F5546 		.ascii	"__UFRACT_FBIT__ 16\000"
 13828      52414354 
 13828      5F464249 
 13828      545F5F20 
 13828      313600
 13829              	.LASF646:
 13830 c589 5F524541 		.ascii	"_READ_WRITE_RETURN_TYPE int\000"
 13830      445F5752 
 13830      4954455F 
 13830      52455455 
 13830      524E5F54 
 13831              	.LASF265:
 13832 c5a5 5F5F554C 		.ascii	"__ULFRACT_MIN__ 0.0ULR\000"
 13832      46524143 
 13832      545F4D49 
 13832      4E5F5F20 
 13832      302E3055 
 13833              	.LASF667:
 13834 c5bc 5F474343 		.ascii	"_GCC_PTRDIFF_T \000"
 13834      5F505452 
 13834      44494646 
 13834      5F542000 
 13835              	.LASF752:
 13836 c5cc 5F524545 		.ascii	"_REENT_INIT_ATEXIT _NULL, _ATEXIT_INIT,\000"
 13836      4E545F49 
 13836      4E49545F 
 13836      41544558 
 13836      4954205F 
 13837              	.LASF326:
 13838 c5f4 5F5F5451 		.ascii	"__TQ_FBIT__ 127\000"
 13838      5F464249 
 13838      545F5F20 
 13838      31323700 
 13839              	.LASF1427:
 13840 c604 524D4154 		.ascii	"RMAT_BFP_OF_REAL(_ei,_ef) { (_ei).m[0] = TRIG_BFP_O"
 13840      5F424650 
 13840      5F4F465F 
 13840      5245414C 
 13840      285F6569 
 13841 c637 465F5245 		.ascii	"F_REAL((_ef).m[0]); (_ei).m[1] = TRIG_BFP_OF_REAL(("
 13841      414C2828 
 13841      5F656629 
 13841      2E6D5B30 
 13841      5D293B20 
 13842 c66a 5F656629 		.ascii	"_ef).m[1]); (_ei).m[2] = TRIG_BFP_OF_REAL((_ef).m[2"
 13842      2E6D5B31 
 13842      5D293B20 
 13842      285F6569 
ARM GAS  /tmp/cceVa9lb.s 			page 347


 13842      292E6D5B 
 13843 c69d 5D293B20 		.ascii	"]); (_ei).m[3] = TRIG_BFP_OF_REAL((_ef).m[3]); (_ei"
 13843      285F6569 
 13843      292E6D5B 
 13843      335D203D 
 13843      20545249 
 13844 c6d0 292E6D5B 		.ascii	").m[4] = TRIG_BFP_OF_REAL((_ef).m[4]); (_ei).m[5] ="
 13844      345D203D 
 13844      20545249 
 13844      475F4246 
 13844      505F4F46 
 13845 c703 20545249 		.ascii	" TRIG_BFP_OF_REAL((_ef).m[5]); (_ei).m[6] = TRIG_BF"
 13845      475F4246 
 13845      505F4F46 
 13845      5F524541 
 13845      4C28285F 
 13846 c736 505F4F46 		.ascii	"P_OF_REAL((_ef).m[6]); (_ei).m[7] = TRIG_BFP_OF_REA"
 13846      5F524541 
 13846      4C28285F 
 13846      6566292E 
 13846      6D5B365D 
 13847 c769 4C28285F 		.ascii	"L((_ef).m[7]); (_ei).m[8] = TRIG_BFP_OF_REAL((_ef)."
 13847      6566292E 
 13847      6D5B375D 
 13847      293B2028 
 13847      5F656929 
 13848 c79c 6D5B385D 		.ascii	"m[8]); }\000"
 13848      293B207D 
 13848      00
 13849              	.LASF66:
 13850 c7a5 5F5F5549 		.ascii	"__UINTPTR_TYPE__ unsigned int\000"
 13850      4E545054 
 13850      525F5459 
 13850      50455F5F 
 13850      20756E73 
 13851              	.LASF500:
 13852 c7c3 5542585F 		.ascii	"UBX_GPS_LINK uart4\000"
 13852      4750535F 
 13852      4C494E4B 
 13852      20756172 
 13852      743400
 13853              	.LASF1234:
 13854 c7d6 46505F4E 		.ascii	"FP_NAN 0\000"
 13854      414E2030 
 13854      00
 13855              	.LASF15:
 13856 c7df 5F5F4649 		.ascii	"__FINITE_MATH_ONLY__ 0\000"
 13856      4E495445 
 13856      5F4D4154 
 13856      485F4F4E 
 13856      4C595F5F 
 13857              	.LASF972:
 13858 c7f6 55494E54 		.ascii	"UINT8_MAX __UINT8_MAX__\000"
 13858      385F4D41 
 13858      58205F5F 
 13858      55494E54 
 13858      385F4D41 
ARM GAS  /tmp/cceVa9lb.s 			page 348


 13859              	.LASF334:
 13860 c80e 5F5F5544 		.ascii	"__UDQ_FBIT__ 64\000"
 13860      515F4642 
 13860      49545F5F 
 13860      20363400 
 13861              	.LASF1105:
 13862 c81e 50524958 		.ascii	"PRIXLEAST8 __PRI8LEAST(X)\000"
 13862      4C454153 
 13862      5438205F 
 13862      5F505249 
 13862      384C4541 
 13863              	.LASF1330:
 13864 c838 426F756E 		.ascii	"BoundAbs(_x,_max) Bound(_x, -(_max), (_max))\000"
 13864      64416273 
 13864      285F782C 
 13864      5F6D6178 
 13864      2920426F 
 13865              	.LASF929:
 13866 c865 5F5F6775 		.ascii	"__guarded_by(x) __lock_annotate(guarded_by(x))\000"
 13866      61726465 
 13866      645F6279 
 13866      28782920 
 13866      5F5F6C6F 
 13867              	.LASF1262:
 13868 c894 4D5F4C4F 		.ascii	"M_LOG10E 0.43429448190325182765\000"
 13868      47313045 
 13868      20302E34 
 13868      33343239 
 13868      34343831 
 13869              	.LASF1263:
 13870 c8b4 4D5F4C4E 		.ascii	"M_LN2 _M_LN2\000"
 13870      32205F4D 
 13870      5F4C4E32 
 13870      00
 13871              	.LASF437:
 13872 c8c1 5F5F4152 		.ascii	"__ARM_FEATURE_BF16_VECTOR_ARITHMETIC\000"
 13872      4D5F4645 
 13872      41545552 
 13872      455F4246 
 13872      31365F56 
 13873              	.LASF578:
 13874 c8e6 44424C5F 		.ascii	"DBL_EPSILON\000"
 13874      45505349 
 13874      4C4F4E00 
 13875              	.LASF1358:
 13876 c8f2 56454354 		.ascii	"VECT3_ADD(_a,_b) { (_a).x += (_b).x; (_a).y += (_b)"
 13876      335F4144 
 13876      44285F61 
 13876      2C5F6229 
 13876      207B2028 
 13877 c925 2E793B20 		.ascii	".y; (_a).z += (_b).z; }\000"
 13877      285F6129 
 13877      2E7A202B 
 13877      3D20285F 
 13877      62292E7A 
 13878              	.LASF971:
 13879 c93d 55494E54 		.ascii	"UINT8_MAX\000"
ARM GAS  /tmp/cceVa9lb.s 			page 349


 13879      385F4D41 
 13879      5800
 13880              	.LASF1164:
 13881 c947 53434E69 		.ascii	"SCNi32 __SCN32(i)\000"
 13881      3332205F 
 13881      5F53434E 
 13881      33322869 
 13881      2900
 13882              	.LASF880:
 13883 c959 5F5F756E 		.ascii	"__unreachable() __builtin_unreachable()\000"
 13883      72656163 
 13883      6861626C 
 13883      65282920 
 13883      5F5F6275 
 13884              	.LASF508:
 13885 c981 5553455F 		.ascii	"USE_I2C1 1\000"
 13885      49324331 
 13885      203100
 13886              	.LASF475:
 13887 c98c 48414C5F 		.ascii	"HAL_USE_SDC TRUE\000"
 13887      5553455F 
 13887      53444320 
 13887      54525545 
 13887      00
 13888              	.LASF396:
 13889 c99d 5F5F4152 		.ascii	"__ARM_SIZEOF_MINIMAL_ENUM 1\000"
 13889      4D5F5349 
 13889      5A454F46 
 13889      5F4D494E 
 13889      494D414C 
 13890              	.LASF897:
 13891 c9b9 5F5F7765 		.ascii	"__weak_reference(sym,alias) __asm__(\".weak \" #ali"
 13891      616B5F72 
 13891      65666572 
 13891      656E6365 
 13891      2873796D 
 13892 c9ea 6173293B 		.ascii	"as); __asm__(\".equ \" #alias \", \" #sym)\000"
 13892      205F5F61 
 13892      736D5F5F 
 13892      28222E65 
 13892      71752022 
 13893              	.LASF463:
 13894 ca11 444F574E 		.ascii	"DOWNLINK 1\000"
 13894      4C494E4B 
 13894      203100
 13895              	.LASF114:
 13896 ca1c 5F5F494E 		.ascii	"__INT64_C(c) c ## LL\000"
 13896      5436345F 
 13896      43286329 
 13896      20632023 
 13896      23204C4C 
 13897              	.LASF955:
 13898 ca31 5F5F494E 		.ascii	"__INT16 \"h\"\000"
 13898      54313620 
 13898      22682200 
 13899              	.LASF937:
 13900 ca3d 5F5F5354 		.ascii	"__STDINT_EXP(x) __ ##x ##__\000"
ARM GAS  /tmp/cceVa9lb.s 			page 350


 13900      44494E54 
 13900      5F455850 
 13900      28782920 
 13900      5F5F2023 
 13901              	.LASF997:
 13902 ca59 494E545F 		.ascii	"INT_LEAST16_MAX\000"
 13902      4C454153 
 13902      5431365F 
 13902      4D415800 
 13903              	.LASF457:
 13904 ca69 43485F44 		.ascii	"CH_DBG_FILL_THREADS TRUE\000"
 13904      42475F46 
 13904      494C4C5F 
 13904      54485245 
 13904      41445320 
 13905              	.LASF1146:
 13906 ca82 53434E64 		.ascii	"SCNdFAST16 __SCN16FAST(d)\000"
 13906      46415354 
 13906      3136205F 
 13906      5F53434E 
 13906      31364641 
 13907              	.LASF342:
 13908 ca9c 5F5F4441 		.ascii	"__DA_FBIT__ 31\000"
 13908      5F464249 
 13908      545F5F20 
 13908      333100
 13909              	.LASF201:
 13910 caab 5F5F464C 		.ascii	"__FLT32_MIN__ 1.1754943508222875e-38F32\000"
 13910      5433325F 
 13910      4D494E5F 
 13910      5F20312E 
 13910      31373534 
 13911              	.LASF1060:
 13912 cad3 53495A45 		.ascii	"SIZE_MAX __SIZE_MAX__\000"
 13912      5F4D4158 
 13912      205F5F53 
 13912      495A455F 
 13912      4D41585F 
 13913              	.LASF969:
 13914 cae9 494E5438 		.ascii	"INT8_MIN\000"
 13914      5F4D494E 
 13914      00
 13915              	.LASF849:
 13916 caf2 5F5F5853 		.ascii	"__XSTRING(x) __STRING(x)\000"
 13916      5452494E 
 13916      47287829 
 13916      205F5F53 
 13916      5452494E 
 13917              	.LASF904:
 13918 cb0b 5F5F5343 		.ascii	"__SCCSID(s) struct __hack\000"
 13918      43534944 
 13918      28732920 
 13918      73747275 
 13918      6374205F 
 13919              	.LASF448:
 13920 cb25 41485253 		.ascii	"AHRS_TYPE_H \"modules/ahrs/ahrs_float_dcm_wrapper.h"
 13920      5F545950 
ARM GAS  /tmp/cceVa9lb.s 			page 351


 13920      455F4820 
 13920      226D6F64 
 13920      756C6573 
 13921 cb57 2200     		.ascii	"\"\000"
 13922              	.LASF362:
 13923 cb59 5F5F4743 		.ascii	"__GCC_ATOMIC_BOOL_LOCK_FREE 2\000"
 13923      435F4154 
 13923      4F4D4943 
 13923      5F424F4F 
 13923      4C5F4C4F 
 13924              	.LASF1035:
 13925 cb77 494E545F 		.ascii	"INT_FAST64_MIN\000"
 13925      46415354 
 13925      36345F4D 
 13925      494E00
 13926              	.LASF128:
 13927 cb86 5F5F494E 		.ascii	"__INT_FAST32_MAX__ 0x7fffffff\000"
 13927      545F4641 
 13927      53543332 
 13927      5F4D4158 
 13927      5F5F2030 
 13928              	.LASF150:
 13929 cba4 5F5F464C 		.ascii	"__FLT_MAX_10_EXP__ 38\000"
 13929      545F4D41 
 13929      585F3130 
 13929      5F455850 
 13929      5F5F2033 
 13930              	.LASF1412:
 13931 cbba 51554154 		.ascii	"QUAT_EXPLEMENTARY(b,a) { (b).qi = -(a).qi; (b).qx ="
 13931      5F455850 
 13931      4C454D45 
 13931      4E544152 
 13931      5928622C 
 13932 cbed 202D2861 		.ascii	" -(a).qx; (b).qy = -(a).qy; (b).qz = -(a).qz; }\000"
 13932      292E7178 
 13932      3B202862 
 13932      292E7179 
 13932      203D202D 
 13933              	.LASF1068:
 13934 cc1d 57494E54 		.ascii	"WINT_MIN __WINT_MIN__\000"
 13934      5F4D494E 
 13934      205F5F57 
 13934      494E545F 
 13934      4D494E5F 
 13935              	.LASF1298:
 13936 cc33 5052494E 		.ascii	"PRINT_CONFIG_VAR(var) \000"
 13936      545F434F 
 13936      4E464947 
 13936      5F564152 
 13936      28766172 
 13937              	.LASF801:
 13938 cc4a 5F5F4154 		.ascii	"__ATTRIBUTE_IMPURE_PTR__ \000"
 13938      54524942 
 13938      5554455F 
 13938      494D5055 
 13938      52455F50 
 13939              	.LASF343:
ARM GAS  /tmp/cceVa9lb.s 			page 352


 13940 cc64 5F5F4441 		.ascii	"__DA_IBIT__ 32\000"
 13940      5F494249 
 13940      545F5F20 
 13940      333200
 13941              	.LASF1243:
 13942 cc73 6D617468 		.ascii	"math_errhandling MATH_ERRNO\000"
 13942      5F657272 
 13942      68616E64 
 13942      6C696E67 
 13942      204D4154 
 13943              	.LASF1351:
 13944 cc8f 56454354 		.ascii	"VECT2_SDIV(_vo,_vi,_s) { (_vo).x = (_vi).x / (_s); "
 13944      325F5344 
 13944      4956285F 
 13944      766F2C5F 
 13944      76692C5F 
 13945 ccc2 285F766F 		.ascii	"(_vo).y = (_vi).y / (_s); }\000"
 13945      292E7920 
 13945      3D20285F 
 13945      7669292E 
 13945      79202F20 
 13946              	.LASF411:
 13947 ccde 5F5F5646 		.ascii	"__VFP_FP__ 1\000"
 13947      505F4650 
 13947      5F5F2031 
 13947      00
 13948              	.LASF577:
 13949 cceb 464C545F 		.ascii	"FLT_EPSILON\000"
 13949      45505349 
 13949      4C4F4E00 
 13950              	.LASF951:
 13951 ccf7 6C6F6E67 		.ascii	"long +4\000"
 13951      202B3400 
 13952              	.LASF773:
 13953 ccff 5F524545 		.ascii	"_REENT_CHECK_MISC(ptr) \000"
 13953      4E545F43 
 13953      4845434B 
 13953      5F4D4953 
 13953      43287074 
 13954              	.LASF603:
 13955 cd17 5F57414E 		.ascii	"_WANT_IO_LONG_LONG 1\000"
 13955      545F494F 
 13955      5F4C4F4E 
 13955      475F4C4F 
 13955      4E472031 
 13956              	.LASF979:
 13957 cd2c 494E5433 		.ascii	"INT32_MAX\000"
 13957      325F4D41 
 13957      5800
 13958              	.LASF1532:
 13959 cd36 646F7562 		.ascii	"double\000"
 13959      6C6500
 13960              	.LASF1561:
 13961 cd3d 696E7665 		.ascii	"inverse_isometric_latitude_d\000"
 13961      7273655F 
 13961      69736F6D 
 13961      65747269 
ARM GAS  /tmp/cceVa9lb.s 			page 353


 13961      635F6C61 
 13962              	.LASF264:
 13963 cd5a 5F5F554C 		.ascii	"__ULFRACT_IBIT__ 0\000"
 13963      46524143 
 13963      545F4942 
 13963      49545F5F 
 13963      203000
 13964              	.LASF1297:
 13965 cd6d 5052494E 		.ascii	"PRINT_CONFIG_MSG_VALUE(x,v) \000"
 13965      545F434F 
 13965      4E464947 
 13965      5F4D5347 
 13965      5F56414C 
 13966              	.LASF488:
 13967 cd8a 5050525A 		.ascii	"PPRZ_VER_MINOR 4\000"
 13967      5F564552 
 13967      5F4D494E 
 13967      4F522034 
 13967      00
 13968              	.LASF1162:
 13969 cd9b 50524958 		.ascii	"PRIX32 __PRI32(X)\000"
 13969      3332205F 
 13969      5F505249 
 13969      33322858 
 13969      2900
 13970              	.LASF891:
 13971 cdad 5F5F7363 		.ascii	"__scanflike(fmtarg,firstvararg) __attribute__((__fo"
 13971      616E666C 
 13971      696B6528 
 13971      666D7461 
 13971      72672C66 
 13972 cde0 726D6174 		.ascii	"rmat__ (__scanf__, fmtarg, firstvararg)))\000"
 13972      5F5F2028 
 13972      5F5F7363 
 13972      616E665F 
 13972      5F2C2066 
 13973              	.LASF93:
 13974 ce0a 5F5F5349 		.ascii	"__SIG_ATOMIC_MAX__ 0x7fffffff\000"
 13974      475F4154 
 13974      4F4D4943 
 13974      5F4D4158 
 13974      5F5F2030 
 13975              	.LASF489:
 13976 ce28 5050525A 		.ascii	"PPRZ_VER_PATCH 0\000"
 13976      5F564552 
 13976      5F504154 
 13976      43482030 
 13976      00
 13977              	.LASF466:
 13978 ce39 46495845 		.ascii	"FIXEDWING_FIRMWARE 1\000"
 13978      4457494E 
 13978      475F4649 
 13978      524D5741 
 13978      52452031 
 13979              	.LASF1401:
 13980 ce4e 4D415433 		.ascii	"MAT33_VECT3_MUL(_vout,_mat,_vin) { (_vout).x = MAT3"
 13980      335F5645 
ARM GAS  /tmp/cceVa9lb.s 			page 354


 13980      4354335F 
 13980      4D554C28 
 13980      5F766F75 
 13981 ce81 335F454C 		.ascii	"3_ELMT((_mat), 0, 0) * (_vin).x + MAT33_ELMT((_mat)"
 13981      4D542828 
 13981      5F6D6174 
 13981      292C2030 
 13981      2C203029 
 13982 ceb4 2C20302C 		.ascii	", 0, 1) * (_vin).y + MAT33_ELMT((_mat), 0, 2) * (_v"
 13982      20312920 
 13982      2A20285F 
 13982      76696E29 
 13982      2E79202B 
 13983 cee7 696E292E 		.ascii	"in).z; (_vout).y = MAT33_ELMT((_mat), 1, 0) * (_vin"
 13983      7A3B2028 
 13983      5F766F75 
 13983      74292E79 
 13983      203D204D 
 13984 cf1a 292E7820 		.ascii	").x + MAT33_ELMT((_mat), 1, 1) * (_vin).y + MAT33_E"
 13984      2B204D41 
 13984      5433335F 
 13984      454C4D54 
 13984      28285F6D 
 13985 cf4d 4C4D5428 		.ascii	"LMT((_mat), 1, 2) * (_vin).z; (_vout).z = MAT33_ELM"
 13985      285F6D61 
 13985      74292C20 
 13985      312C2032 
 13985      29202A20 
 13986 cf80 5428285F 		.ascii	"T((_mat), 2, 0) * (_vin).x + MAT33_ELMT((_mat), 2, "
 13986      6D617429 
 13986      2C20322C 
 13986      20302920 
 13986      2A20285F 
 13987 cfb3 3129202A 		.ascii	"1) * (_vin).y + MAT33_ELMT((_mat), 2, 2) * (_vin).z"
 13987      20285F76 
 13987      696E292E 
 13987      79202B20 
 13987      4D415433 
 13988 cfe6 3B207D00 		.ascii	"; }\000"
 13989              	.LASF571:
 13990 cfea 464C545F 		.ascii	"FLT_MAX\000"
 13990      4D415800 
 13991              	.LASF21:
 13992 cff2 5F5F5349 		.ascii	"__SIZEOF_DOUBLE__ 8\000"
 13992      5A454F46 
 13992      5F444F55 
 13992      424C455F 
 13992      5F203800 
 13993              	.LASF134:
 13994 d006 5F5F5549 		.ascii	"__UINT_FAST32_MAX__ 0xffffffffU\000"
 13994      4E545F46 
 13994      41535433 
 13994      325F4D41 
 13994      585F5F20 
 13995              	.LASF180:
 13996 d026 5F5F4C44 		.ascii	"__LDBL_MAX_EXP__ 1024\000"
 13996      424C5F4D 
ARM GAS  /tmp/cceVa9lb.s 			page 355


 13996      41585F45 
 13996      58505F5F 
 13996      20313032 
 13997              	.LASF1137:
 13998 d03c 53434E6F 		.ascii	"SCNoLEAST16 __SCN16LEAST(o)\000"
 13998      4C454153 
 13998      54313620 
 13998      5F5F5343 
 13998      4E31364C 
 13999              	.LASF469:
 14000 d058 4749545F 		.ascii	"GIT_SHA1 232f532dc3af5329cebb0954554d3061da91f830\000"
 14000      53484131 
 14000      20323332 
 14000      66353332 
 14000      64633361 
 14001              	.LASF695:
 14002 d08a 5F425344 		.ascii	"_BSD_WCHAR_T_ \000"
 14002      5F574348 
 14002      41525F54 
 14002      5F2000
 14003              	.LASF633:
 14004 d099 5F5F474E 		.ascii	"__GNU_VISIBLE 0\000"
 14004      555F5649 
 14004      5349424C 
 14004      45203000 
 14005              	.LASF418:
 14006 d0a9 5F5F4152 		.ascii	"__ARM_FEATURE_FP16_VECTOR_ARITHMETIC\000"
 14006      4D5F4645 
 14006      41545552 
 14006      455F4650 
 14006      31365F56 
 14007              	.LASF1155:
 14008 d0ce 5F5F5052 		.ascii	"__PRI32FAST(x) __FAST32 __STRINGIFY(x)\000"
 14008      49333246 
 14008      41535428 
 14008      7829205F 
 14008      5F464153 
 14009              	.LASF760:
 14010 d0f5 5F52414E 		.ascii	"_RAND48_ADD (0x000b)\000"
 14010      4434385F 
 14010      41444420 
 14010      28307830 
 14010      30306229 
 14011              	.LASF657:
 14012 d10a 5F535444 		.ascii	"_STDDEF_H \000"
 14012      4445465F 
 14012      482000
 14013              	.LASF754:
 14014 d115 5F52414E 		.ascii	"_RAND48_SEED_0 (0x330e)\000"
 14014      4434385F 
 14014      53454544 
 14014      5F302028 
 14014      30783333 
 14015              	.LASF1095:
 14016 d12d 50524969 		.ascii	"PRIi8 __PRI8(i)\000"
 14016      38205F5F 
 14016      50524938 
ARM GAS  /tmp/cceVa9lb.s 			page 356


 14016      28692900 
 14017              	.LASF1261:
 14018 d13d 4D5F4C4F 		.ascii	"M_LOG2E 1.4426950408889634074\000"
 14018      47324520 
 14018      312E3434 
 14018      32363935 
 14018      30343038 
 14019              	.LASF397:
 14020 d15b 5F5F4152 		.ascii	"__ARM_SIZEOF_WCHAR_T 4\000"
 14020      4D5F5349 
 14020      5A454F46 
 14020      5F574348 
 14020      41525F54 
 14021              	.LASF1557:
 14022 d172 6578705F 		.ascii	"exp_l\000"
 14022      6C00
 14023              	.LASF926:
 14024 d178 5F5F7265 		.ascii	"__requires_shared(...) __lock_annotate(shared_locks"
 14024      71756972 
 14024      65735F73 
 14024      68617265 
 14024      64282E2E 
 14025 d1ab 5F726571 		.ascii	"_required(__VA_ARGS__))\000"
 14025      75697265 
 14025      64285F5F 
 14025      56415F41 
 14025      5247535F 
 14026              	.LASF1287:
 14027 d1c3 444F5F50 		.ascii	"DO_PRAGMA(x) _Pragma (#x)\000"
 14027      5241474D 
 14027      41287829 
 14027      205F5072 
 14027      61676D61 
 14028              	.LASF985:
 14029 d1dd 494E5436 		.ascii	"INT64_MAX\000"
 14029      345F4D41 
 14029      5800
 14030              	.LASF585:
 14031 d1e7 4C44424C 		.ascii	"LDBL_MIN\000"
 14031      5F4D494E 
 14031      00
 14032              	.LASF1002:
 14033 d1f0 55494E54 		.ascii	"UINT_LEAST16_MAX __UINT_LEAST16_MAX__\000"
 14033      5F4C4541 
 14033      53543136 
 14033      5F4D4158 
 14033      205F5F55 
 14034              	.LASF82:
 14035 d216 5F5F4C4F 		.ascii	"__LONG_WIDTH__ 32\000"
 14035      4E475F57 
 14035      49445448 
 14035      5F5F2033 
 14035      3200
 14036              	.LASF783:
 14037 d228 5F524545 		.ascii	"_REENT_MP_FREELIST(ptr) ((ptr)->_freelist)\000"
 14037      4E545F4D 
 14037      505F4652 
ARM GAS  /tmp/cceVa9lb.s 			page 357


 14037      45454C49 
 14037      53542870 
 14038              	.LASF1012:
 14039 d253 494E545F 		.ascii	"INT_LEAST64_MIN (-INT_LEAST64_MAX - 1)\000"
 14039      4C454153 
 14039      5436345F 
 14039      4D494E20 
 14039      282D494E 
 14040              	.LASF851:
 14041 d27a 5F5F7369 		.ascii	"__signed signed\000"
 14041      676E6564 
 14041      20736967 
 14041      6E656400 
 14042              	.LASF640:
 14043 d28a 5F5F5353 		.ascii	"__SSP_FORTIFY_LEVEL 0\000"
 14043      505F464F 
 14043      52544946 
 14043      595F4C45 
 14043      56454C20 
 14044              	.LASF1176:
 14045 d2a0 53434E6F 		.ascii	"SCNoLEAST32 __SCN32LEAST(o)\000"
 14045      4C454153 
 14045      54333220 
 14045      5F5F5343 
 14045      4E33324C 
 14046              	.LASF620:
 14047 d2bc 5F535953 		.ascii	"_SYS_FEATURES_H \000"
 14047      5F464541 
 14047      54555245 
 14047      535F4820 
 14047      00
 14048              	.LASF400:
 14049 d2cd 5F5F6172 		.ascii	"__arm__ 1\000"
 14049      6D5F5F20 
 14049      3100
 14050              	.LASF1053:
 14051 d2d7 50545244 		.ascii	"PTRDIFF_MIN\000"
 14051      4946465F 
 14051      4D494E00 
 14052              	.LASF881:
 14053 d2e3 5F5F7265 		.ascii	"__restrict restrict\000"
 14053      73747269 
 14053      63742072 
 14053      65737472 
 14053      69637400 
 14054              	.LASF984:
 14055 d2f7 55494E54 		.ascii	"UINT32_MAX __UINT32_MAX__\000"
 14055      33325F4D 
 14055      4158205F 
 14055      5F55494E 
 14055      5433325F 
 14056              	.LASF1089:
 14057 d311 5F5F6E65 		.ascii	"__need_wchar_t \000"
 14057      65645F77 
 14057      63686172 
 14057      5F742000 
 14058              	.LASF728:
ARM GAS  /tmp/cceVa9lb.s 			page 358


 14059 d321 5F5F7369 		.ascii	"__size_t\000"
 14059      7A655F74 
 14059      00
 14060              	.LASF1008:
 14061 d32a 55494E54 		.ascii	"UINT_LEAST32_MAX __UINT_LEAST32_MAX__\000"
 14061      5F4C4541 
 14061      53543332 
 14061      5F4D4158 
 14061      205F5F55 
 14062              	.LASF1204:
 14063 d350 53434E64 		.ascii	"SCNdMAX __SCNMAX(d)\000"
 14063      4D415820 
 14063      5F5F5343 
 14063      4E4D4158 
 14063      28642900 
 14064              	.LASF1158:
 14065 d364 50524969 		.ascii	"PRIi32 __PRI32(i)\000"
 14065      3332205F 
 14065      5F505249 
 14065      33322869 
 14065      2900
 14066              	.LASF653:
 14067 d376 5F454C49 		.ascii	"_ELIDABLE_INLINE static __inline__\000"
 14067      4441424C 
 14067      455F494E 
 14067      4C494E45 
 14067      20737461 
 14068              	.LASF1069:
 14069 d399 494E5438 		.ascii	"INT8_C\000"
 14069      5F4300
 14070              	.LASF555:
 14071 d3a0 4C44424C 		.ascii	"LDBL_MIN_10_EXP\000"
 14071      5F4D494E 
 14071      5F31305F 
 14071      45585000 
 14072              	.LASF863:
 14073 d3b0 5F5F616C 		.ascii	"__alloc_align(x) __attribute__((__alloc_align__(x))"
 14073      6C6F635F 
 14073      616C6967 
 14073      6E287829 
 14073      205F5F61 
 14074 d3e3 2900     		.ascii	")\000"
 14075              	.LASF1282:
 14076 d3e5 5F4C4942 		.ascii	"_LIB_VERSION_TYPE enum __fdlibm_version\000"
 14076      5F564552 
 14076      53494F4E 
 14076      5F545950 
 14076      4520656E 
 14077              	.LASF1030:
 14078 d40d 494E545F 		.ascii	"INT_FAST32_MIN (-INT_FAST32_MAX - 1)\000"
 14078      46415354 
 14078      33325F4D 
 14078      494E2028 
 14078      2D494E54 
 14079              	.LASF612:
 14080 d432 5F465657 		.ascii	"_FVWRITE_IN_STREAMIO 1\000"
 14080      52495445 
ARM GAS  /tmp/cceVa9lb.s 			page 359


 14080      5F494E5F 
 14080      53545245 
 14080      414D494F 
 14081              	.LASF685:
 14082 d449 5F53495A 		.ascii	"_SIZET_ \000"
 14082      45545F20 
 14082      00
 14083              	.LASF41:
 14084 d452 5F5F494E 		.ascii	"__INT8_TYPE__ signed char\000"
 14084      54385F54 
 14084      5950455F 
 14084      5F207369 
 14084      676E6564 
 14085              	.LASF584:
 14086 d46c 44424C5F 		.ascii	"DBL_MIN\000"
 14086      4D494E00 
 14087              	.LASF361:
 14088 d474 5F5F4743 		.ascii	"__GCC_HAVE_SYNC_COMPARE_AND_SWAP_4 1\000"
 14088      435F4841 
 14088      56455F53 
 14088      594E435F 
 14088      434F4D50 
 14089              	.LASF553:
 14090 d499 464C545F 		.ascii	"FLT_MIN_10_EXP\000"
 14090      4D494E5F 
 14090      31305F45 
 14090      585000
 14091              	.LASF1575:
 14092 d4a8 64656C74 		.ascii	"delta\000"
 14092      6100
 14093              	.LASF886:
 14094 d4ae 5F5F6869 		.ascii	"__hidden __attribute__((__visibility__(\"hidden\"))"
 14094      6464656E 
 14094      205F5F61 
 14094      74747269 
 14094      62757465 
 14095 d4df 2900     		.ascii	")\000"
 14096              	.LASF1397:
 14097 d4e1 52415445 		.ascii	"RATES_ADD_SCALED_VECT(_ro,_v,_s) { (_ro).p += (_v)."
 14097      535F4144 
 14097      445F5343 
 14097      414C4544 
 14097      5F564543 
 14098 d514 78202A20 		.ascii	"x * (_s); (_ro).q += (_v).y * (_s); (_ro).r += (_v)"
 14098      285F7329 
 14098      3B20285F 
 14098      726F292E 
 14098      71202B3D 
 14099 d547 2E7A202A 		.ascii	".z * (_s); }\000"
 14099      20285F73 
 14099      293B207D 
 14099      00
 14100              	.LASF658:
 14101 d554 5F535444 		.ascii	"_STDDEF_H_ \000"
 14101      4445465F 
 14101      485F2000 
 14102              	.LASF1432:
ARM GAS  /tmp/cceVa9lb.s 			page 360


 14103 d560 52415445 		.ascii	"RATES_BFP_OF_REAL(_ri,_rf) { (_ri).p = RATE_BFP_OF_"
 14103      535F4246 
 14103      505F4F46 
 14103      5F524541 
 14103      4C285F72 
 14104 d593 5245414C 		.ascii	"REAL((_rf).p); (_ri).q = RATE_BFP_OF_REAL((_rf).q);"
 14104      28285F72 
 14104      66292E70 
 14104      293B2028 
 14104      5F726929 
 14105 d5c6 20285F72 		.ascii	" (_ri).r = RATE_BFP_OF_REAL((_rf).r); }\000"
 14105      69292E72 
 14105      203D2052 
 14105      4154455F 
 14105      4246505F 
 14106              	.LASF630:
 14107 d5ee 5F415446 		.ascii	"_ATFILE_SOURCE 1\000"
 14107      494C455F 
 14107      534F5552 
 14107      43452031 
 14107      00
 14108              	.LASF642:
 14109 d5ff 5F5F5241 		.ascii	"__RAND_MAX\000"
 14109      4E445F4D 
 14109      415800
 14110              	.LASF1188:
 14111 d60a 53434E75 		.ascii	"SCNuFAST32 __SCN32FAST(u)\000"
 14111      46415354 
 14111      3332205F 
 14111      5F53434E 
 14111      33324641 
 14112              	.LASF1285:
 14113 d624 5F504F53 		.ascii	"_POSIX_ __fdlibm_posix\000"
 14113      49585F20 
 14113      5F5F6664 
 14113      6C69626D 
 14113      5F706F73 
 14114              	.LASF622:
 14115 d63b 5F5F474E 		.ascii	"__GNUC_PREREQ__(ma,mi) __GNUC_PREREQ(ma, mi)\000"
 14115      55435F50 
 14115      52455245 
 14115      515F5F28 
 14115      6D612C6D 
 14116              	.LASF291:
 14117 d668 5F5F4143 		.ascii	"__ACCUM_MAX__ 0X7FFFFFFFP-15K\000"
 14117      43554D5F 
 14117      4D41585F 
 14117      5F203058 
 14117      37464646 
 14118              	.LASF1420:
 14119 d686 524D4154 		.ascii	"RMAT_TRACE(_rm) (RMAT_ELMT(_rm, 0, 0)+RMAT_ELMT(_rm"
 14119      5F545241 
 14119      4345285F 
 14119      726D2920 
 14119      28524D41 
 14120 d6b9 2C20312C 		.ascii	", 1, 1)+RMAT_ELMT(_rm, 2, 2))\000"
 14120      2031292B 
ARM GAS  /tmp/cceVa9lb.s 			page 361


 14120      524D4154 
 14120      5F454C4D 
 14120      54285F72 
 14121              	.LASF425:
 14122 d6d7 5F5F4152 		.ascii	"__ARM_PCS 1\000"
 14122      4D5F5043 
 14122      53203100 
 14123              	.LASF210:
 14124 d6e3 5F5F464C 		.ascii	"__FLT64_MIN_EXP__ (-1021)\000"
 14124      5436345F 
 14124      4D494E5F 
 14124      4558505F 
 14124      5F20282D 
 14125              	.LASF59:
 14126 d6fd 5F5F494E 		.ascii	"__INT_FAST32_TYPE__ int\000"
 14126      545F4641 
 14126      53543332 
 14126      5F545950 
 14126      455F5F20 
 14127              	.LASF619:
 14128 d715 5F5F4F42 		.ascii	"__OBSOLETE_MATH __OBSOLETE_MATH_DEFAULT\000"
 14128      534F4C45 
 14128      54455F4D 
 14128      41544820 
 14128      5F5F4F42 
 14129              	.LASF740:
 14130 d73d 5F5F6C6F 		.ascii	"__lock_init(lock) ((void) 0)\000"
 14130      636B5F69 
 14130      6E697428 
 14130      6C6F636B 
 14130      29202828 
 14131              	.LASF910:
 14132 d75a 5F4E756C 		.ascii	"_Nullable \000"
 14132      6C61626C 
 14132      652000
 14133              	.LASF222:
 14134 d765 5F5F464C 		.ascii	"__FLT64_HAS_QUIET_NAN__ 1\000"
 14134      5436345F 
 14134      4841535F 
 14134      51554945 
 14134      545F4E41 
 14135              	.LASF421:
 14136 d77f 5F5F4152 		.ascii	"__ARM_NEON__\000"
 14136      4D5F4E45 
 14136      4F4E5F5F 
 14136      00
 14137              	.LASF650:
 14138 d78c 5F4E4F54 		.ascii	"_NOTHROW \000"
 14138      48524F57 
 14138      2000
 14139              	.LASF840:
 14140 d796 5F5F4343 		.ascii	"__CC_SUPPORTS___INLINE__ 1\000"
 14140      5F535550 
 14140      504F5254 
 14140      535F5F5F 
 14140      494E4C49 
 14141              	.LASF1536:
ARM GAS  /tmp/cceVa9lb.s 			page 362


 14142 d7b1 4C6C6143 		.ascii	"LlaCoor_d\000"
 14142      6F6F725F 
 14142      6400
 14143              	.LASF967:
 14144 d7bb 494E5438 		.ascii	"INT8_MAX\000"
 14144      5F4D4158 
 14144      00
 14145              	.LASF1270:
 14146 d7c4 4D5F325F 		.ascii	"M_2_SQRTPI 1.12837916709551257390\000"
 14146      53515254 
 14146      50492031 
 14146      2E313238 
 14146      33373931 
 14147              	.LASF280:
 14148 d7e6 5F5F5341 		.ascii	"__SACCUM_MIN__ (-0X1P7HK-0X1P7HK)\000"
 14148      4343554D 
 14148      5F4D494E 
 14148      5F5F2028 
 14148      2D305831 
 14149              	.LASF1132:
 14150 d808 50524975 		.ascii	"PRIuLEAST16 __PRI16LEAST(u)\000"
 14150      4C454153 
 14150      54313620 
 14150      5F5F5052 
 14150      4931364C 
 14151              	.LASF1329:
 14152 d824 426F756E 		.ascii	"BoundWrapped(_x,_min,_max) { if ((_max) > (_min)) B"
 14152      64577261 
 14152      70706564 
 14152      285F782C 
 14152      5F6D696E 
 14153 d857 6F756E64 		.ascii	"ound(_x, _min, _max) else BoundInverted(_x, _min, _"
 14153      285F782C 
 14153      205F6D69 
 14153      6E2C205F 
 14153      6D617829 
 14154 d88a 6D617829 		.ascii	"max) }\000"
 14154      207D00
 14155              	.LASF763:
 14156 d891 5F524545 		.ascii	"_REENT_SIGNAL_SIZE 24\000"
 14156      4E545F53 
 14156      49474E41 
 14156      4C5F5349 
 14156      5A452032 
 14157              	.LASF656:
 14158 d8a7 5F535953 		.ascii	"_SYS_REENT_H_ \000"
 14158      5F524545 
 14158      4E545F48 
 14158      5F2000
 14159              	.LASF225:
 14160 d8b6 5F5F464C 		.ascii	"__FLT32X_MIN_EXP__ (-1021)\000"
 14160      54333258 
 14160      5F4D494E 
 14160      5F455850 
 14160      5F5F2028 
 14161              	.LASF527:
 14162 d8d1 4E45445F 		.ascii	"NED_OF_UTM_DIFF(_pos,_utm1,_utm2) { (_pos).x = (_ut"
ARM GAS  /tmp/cceVa9lb.s 			page 363


 14162      4F465F55 
 14162      544D5F44 
 14162      49464628 
 14162      5F706F73 
 14163 d904 6D31292E 		.ascii	"m1).north - (_utm2).north; (_pos).y = (_utm1).east "
 14163      6E6F7274 
 14163      68202D20 
 14163      285F7574 
 14163      6D32292E 
 14164 d937 2D20285F 		.ascii	"- (_utm2).east; (_pos).z = -(_utm1).alt + (_utm2).a"
 14164      75746D32 
 14164      292E6561 
 14164      73743B20 
 14164      285F706F 
 14165 d96a 6C743B20 		.ascii	"lt; }\000"
 14165      7D00
 14166              	.LASF1362:
 14167 d970 56454354 		.ascii	"VECT3_SUM_SCALED(_c,_a,_b,_s) { (_c).x = (_a).x + ("
 14167      335F5355 
 14167      4D5F5343 
 14167      414C4544 
 14167      285F632C 
 14168 d9a3 5F73292A 		.ascii	"_s)*(_b).x; (_c).y = (_a).y + (_s)*(_b).y; (_c).z ="
 14168      285F6229 
 14168      2E783B20 
 14168      285F6329 
 14168      2E79203D 
 14169 d9d6 20285F61 		.ascii	" (_a).z + (_s)*(_b).z; }\000"
 14169      292E7A20 
 14169      2B20285F 
 14169      73292A28 
 14169      5F62292E 
 14170              	.LASF665:
 14171 d9ef 5F425344 		.ascii	"_BSD_PTRDIFF_T_ \000"
 14171      5F505452 
 14171      44494646 
 14171      5F545F20 
 14171      00
 14172              	.LASF693:
 14173 da00 5F5F5743 		.ascii	"__WCHAR_T \000"
 14173      4841525F 
 14173      542000
 14174              	.LASF747:
 14175 da0b 5F5F6C6F 		.ascii	"__lock_try_acquire_recursive(lock) ((void) 0)\000"
 14175      636B5F74 
 14175      72795F61 
 14175      63717569 
 14175      72655F72 
 14176              	.LASF841:
 14177 da39 5F5F4343 		.ascii	"__CC_SUPPORTS___FUNC__ 1\000"
 14177      5F535550 
 14177      504F5254 
 14177      535F5F5F 
 14177      46554E43 
 14178              	.LASF1193:
 14179 da52 5F5F5343 		.ascii	"__SCN64LEAST(x) __LEAST64 __STRINGIFY(x)\000"
 14179      4E36344C 
ARM GAS  /tmp/cceVa9lb.s 			page 364


 14179      45415354 
 14179      28782920 
 14179      5F5F4C45 
 14180              	.LASF745:
 14181 da7b 5F5F6C6F 		.ascii	"__lock_acquire_recursive(lock) ((void) 0)\000"
 14181      636B5F61 
 14181      63717569 
 14181      72655F72 
 14181      65637572 
 14182              	.LASF398:
 14183 daa5 5F5F4152 		.ascii	"__ARM_ARCH_PROFILE\000"
 14183      4D5F4152 
 14183      43485F50 
 14183      524F4649 
 14183      4C4500
 14184              	.LASF1400:
 14185 dab8 4D415433 		.ascii	"MAT33_MULT_SCALAR(_mat1,_scalar) { MAT33_ELMT((_mat"
 14185      335F4D55 
 14185      4C545F53 
 14185      43414C41 
 14185      52285F6D 
 14186 daeb 31292C30 		.ascii	"1),0,0) = MAT33_ELMT((_mat1),0,0)*_scalar; MAT33_EL"
 14186      2C302920 
 14186      3D204D41 
 14186      5433335F 
 14186      454C4D54 
 14187 db1e 4D542828 		.ascii	"MT((_mat1),0,1) = MAT33_ELMT((_mat1),0,1)*_scalar; "
 14187      5F6D6174 
 14187      31292C30 
 14187      2C312920 
 14187      3D204D41 
 14188 db51 4D415433 		.ascii	"MAT33_ELMT((_mat1),0,2) = MAT33_ELMT((_mat1),0,2)*_"
 14188      335F454C 
 14188      4D542828 
 14188      5F6D6174 
 14188      31292C30 
 14189 db84 7363616C 		.ascii	"scalar; MAT33_ELMT((_mat1),1,0) = MAT33_ELMT((_mat1"
 14189      61723B20 
 14189      4D415433 
 14189      335F454C 
 14189      4D542828 
 14190 dbb7 292C312C 		.ascii	"),1,0)*_scalar; MAT33_ELMT((_mat1),1,1) = MAT33_ELM"
 14190      30292A5F 
 14190      7363616C 
 14190      61723B20 
 14190      4D415433 
 14191 dbea 5428285F 		.ascii	"T((_mat1),1,1)*_scalar; MAT33_ELMT((_mat1),1,2) = M"
 14191      6D617431 
 14191      292C312C 
 14191      31292A5F 
 14191      7363616C 
 14192 dc1d 41543333 		.ascii	"AT33_ELMT((_mat1),1,2)*_scalar; MAT33_ELMT((_mat1),"
 14192      5F454C4D 
 14192      5428285F 
 14192      6D617431 
 14192      292C312C 
 14193 dc50 322C3029 		.ascii	"2,0) = MAT33_ELMT((_mat1),2,0)*_scalar; MAT33_ELMT("
ARM GAS  /tmp/cceVa9lb.s 			page 365


 14193      203D204D 
 14193      41543333 
 14193      5F454C4D 
 14193      5428285F 
 14194 dc83 285F6D61 		.ascii	"(_mat1),2,1) = MAT33_ELMT((_mat1),2,1)*_scalar; MAT"
 14194      7431292C 
 14194      322C3129 
 14194      203D204D 
 14194      41543333 
 14195 dcb6 33335F45 		.ascii	"33_ELMT((_mat1),2,2) = MAT33_ELMT((_mat1),2,2)*_sca"
 14195      4C4D5428 
 14195      285F6D61 
 14195      7431292C 
 14195      322C3229 
 14196 dce9 6C61723B 		.ascii	"lar; }\000"
 14196      207D00
 14197              	.LASF299:
 14198 dcf0 5F5F4C41 		.ascii	"__LACCUM_IBIT__ 32\000"
 14198      4343554D 
 14198      5F494249 
 14198      545F5F20 
 14198      333200
 14199              	.LASF724:
 14200 dd03 5F5F5F69 		.ascii	"___int_least16_t_defined 1\000"
 14200      6E745F6C 
 14200      65617374 
 14200      31365F74 
 14200      5F646566 
 14201              	.LASF626:
 14202 dd1e 5F504F53 		.ascii	"_POSIX_SOURCE 1\000"
 14202      49585F53 
 14202      4F555243 
 14202      45203100 
 14203              	.LASF108:
 14204 dd2e 5F5F494E 		.ascii	"__INT16_C(c) c\000"
 14204      5431365F 
 14204      43286329 
 14204      206300
 14205              	.LASF1407:
 14206 dd3d 4D415433 		.ascii	"MAT33_MAT33_SUM(_mat1,_mat2,_mat3) { MAT33_ELMT((_m"
 14206      335F4D41 
 14206      5433335F 
 14206      53554D28 
 14206      5F6D6174 
 14207 dd70 61743129 		.ascii	"at1),0,0) = MAT33_ELMT((_mat2),0,0)+MAT33_ELMT((_ma"
 14207      2C302C30 
 14207      29203D20 
 14207      4D415433 
 14207      335F454C 
 14208 dda3 7433292C 		.ascii	"t3),0,0); MAT33_ELMT((_mat1),0,1) = MAT33_ELMT((_ma"
 14208      302C3029 
 14208      3B204D41 
 14208      5433335F 
 14208      454C4D54 
 14209 ddd6 7432292C 		.ascii	"t2),0,1)+MAT33_ELMT((_mat3),0,1); MAT33_ELMT((_mat1"
 14209      302C3129 
 14209      2B4D4154 
ARM GAS  /tmp/cceVa9lb.s 			page 366


 14209      33335F45 
 14209      4C4D5428 
 14210 de09 292C302C 		.ascii	"),0,2) = MAT33_ELMT((_mat2),0,2)+MAT33_ELMT((_mat3)"
 14210      3229203D 
 14210      204D4154 
 14210      33335F45 
 14210      4C4D5428 
 14211 de3c 2C302C32 		.ascii	",0,2); MAT33_ELMT((_mat1),1,0) = MAT33_ELMT((_mat2)"
 14211      293B204D 
 14211      41543333 
 14211      5F454C4D 
 14211      5428285F 
 14212 de6f 2C312C30 		.ascii	",1,0)+MAT33_ELMT((_mat3),1,0); MAT33_ELMT((_mat1),1"
 14212      292B4D41 
 14212      5433335F 
 14212      454C4D54 
 14212      28285F6D 
 14213 dea2 2C312920 		.ascii	",1) = MAT33_ELMT((_mat2),1,1)+MAT33_ELMT((_mat3),1,"
 14213      3D204D41 
 14213      5433335F 
 14213      454C4D54 
 14213      28285F6D 
 14214 ded5 31293B20 		.ascii	"1); MAT33_ELMT((_mat1),1,2) = MAT33_ELMT((_mat2),1,"
 14214      4D415433 
 14214      335F454C 
 14214      4D542828 
 14214      5F6D6174 
 14215 df08 32292B4D 		.ascii	"2)+MAT33_ELMT((_mat3),1,2); MAT33_ELMT((_mat1),2,0)"
 14215      41543333 
 14215      5F454C4D 
 14215      5428285F 
 14215      6D617433 
 14216 df3b 203D204D 		.ascii	" = MAT33_ELMT((_mat2),2,0)+MAT33_ELMT((_mat3),2,0);"
 14216      41543333 
 14216      5F454C4D 
 14216      5428285F 
 14216      6D617432 
 14217 df6e 204D4154 		.ascii	" MAT33_ELMT((_mat1),2,1) = MAT33_ELMT((_mat2),2,1)+"
 14217      33335F45 
 14217      4C4D5428 
 14217      285F6D61 
 14217      7431292C 
 14218 dfa1 4D415433 		.ascii	"MAT33_ELMT((_mat3),2,1); MAT33_ELMT((_mat1),2,2) = "
 14218      335F454C 
 14218      4D542828 
 14218      5F6D6174 
 14218      33292C32 
 14219 dfd4 4D415433 		.ascii	"MAT33_ELMT((_mat2),2,2)+MAT33_ELMT((_mat3),2,2); }\000"
 14219      335F454C 
 14219      4D542828 
 14219      5F6D6174 
 14219      32292C32 
 14220              	.LASF1141:
 14221 e007 50524969 		.ascii	"PRIiFAST16 __PRI16FAST(i)\000"
 14221      46415354 
 14221      3136205F 
 14221      5F505249 
ARM GAS  /tmp/cceVa9lb.s 			page 367


 14221      31364641 
 14222              	.LASF666:
 14223 e021 5F5F5F69 		.ascii	"___int_ptrdiff_t_h \000"
 14223      6E745F70 
 14223      74726469 
 14223      66665F74 
 14223      5F682000 
 14224              	.LASF975:
 14225 e035 494E5431 		.ascii	"INT16_MIN\000"
 14225      365F4D49 
 14225      4E00
 14226              	.LASF517:
 14227 e03f 5448554D 		.ascii	"THUMB 1\000"
 14227      42203100 
 14228              	.LASF1237:
 14229 e047 46505F53 		.ascii	"FP_SUBNORMAL 3\000"
 14229      55424E4F 
 14229      524D414C 
 14229      203300
 14230              	.LASF1064:
 14231 e056 57434841 		.ascii	"WCHAR_MIN __WCHAR_MIN__\000"
 14231      525F4D49 
 14231      4E205F5F 
 14231      57434841 
 14231      525F4D49 
 14232              	.LASF1413:
 14233 e06e 51554154 		.ascii	"QUAT_SMUL(_qo,_qi,_s) { (_qo).qi = (_qi).qi * (_s);"
 14233      5F534D55 
 14233      4C285F71 
 14233      6F2C5F71 
 14233      692C5F73 
 14234 e0a1 20285F71 		.ascii	" (_qo).qx = (_qi).qx * (_s); (_qo).qy = (_qi).qy * "
 14234      6F292E71 
 14234      78203D20 
 14234      285F7169 
 14234      292E7178 
 14235 e0d4 285F7329 		.ascii	"(_s); (_qo).qz = (_qi).qz * (_s); }\000"
 14235      3B20285F 
 14235      716F292E 
 14235      717A203D 
 14235      20285F71 
 14236              	.LASF814:
 14237 e0f8 5F5F6174 		.ascii	"__attribute_format_strfmon__(a,b) \000"
 14237      74726962 
 14237      7574655F 
 14237      666F726D 
 14237      61745F73 
 14238              	.LASF1528:
 14239 e11b 6C6F6E67 		.ascii	"long long unsigned int\000"
 14239      206C6F6E 
 14239      6720756E 
 14239      7369676E 
 14239      65642069 
 14240              	.LASF19:
 14241 e132 5F5F5349 		.ascii	"__SIZEOF_SHORT__ 2\000"
 14241      5A454F46 
 14241      5F53484F 
ARM GAS  /tmp/cceVa9lb.s 			page 368


 14241      52545F5F 
 14241      203200
 14242              	.LASF512:
 14243 e145 5553455F 		.ascii	"USE_UART1 1\000"
 14243      55415254 
 14243      31203100 
 14244              	.LASF1044:
 14245 e151 55494E54 		.ascii	"UINTPTR_MAX __UINTPTR_MAX__\000"
 14245      5054525F 
 14245      4D415820 
 14245      5F5F5549 
 14245      4E545054 
 14246              	.LASF968:
 14247 e16d 494E5438 		.ascii	"INT8_MAX __INT8_MAX__\000"
 14247      5F4D4158 
 14247      205F5F49 
 14247      4E54385F 
 14247      4D41585F 
 14248              	.LASF718:
 14249 e183 5F5F6861 		.ascii	"__have_long32 1\000"
 14249      76655F6C 
 14249      6F6E6733 
 14249      32203100 
 14250              	.LASF1534:
 14251 e193 446F7562 		.ascii	"DoubleRMat\000"
 14251      6C65524D 
 14251      617400
 14252              	.LASF100:
 14253 e19e 5F5F5549 		.ascii	"__UINT8_MAX__ 0xff\000"
 14253      4E54385F 
 14253      4D41585F 
 14253      5F203078 
 14253      666600
 14254              	.LASF934:
 14255 e1b1 5354445F 		.ascii	"STD_H \000"
 14255      482000
 14256              	.LASF1323:
 14257 e1b8 4C657373 		.ascii	"LessThan(_x,_y) ((_x) < (_y))\000"
 14257      5468616E 
 14257      285F782C 
 14257      5F792920 
 14257      28285F78 
 14258              	.LASF1512:
 14259 e1d6 41203633 		.ascii	"A 6378137.0\000"
 14259      37383133 
 14259      372E3000 
 14260              	.LASF1562:
 14261 e1e2 69736F6D 		.ascii	"isometric_latitude_fast_d\000"
 14261      65747269 
 14261      635F6C61 
 14261      74697475 
 14261      64655F66 
 14262              	.LASF1221:
 14263 e1fc 53434E78 		.ascii	"SCNxPTR __SCNPTR(x)\000"
 14263      50545220 
 14263      5F5F5343 
 14263      4E505452 
ARM GAS  /tmp/cceVa9lb.s 			page 369


 14263      28782900 
 14264              	.LASF1396:
 14265 e210 52415445 		.ascii	"RATES_BOUND_BOX_ABS(_v,_v_max) { if ((_v).p > (_v_m"
 14265      535F424F 
 14265      554E445F 
 14265      424F585F 
 14265      41425328 
 14266 e243 6178292E 		.ascii	"ax).p) (_v).p = (_v_max).p; else if ((_v).p < -(_v_"
 14266      70292028 
 14266      5F76292E 
 14266      70203D20 
 14266      285F765F 
 14267 e276 6D617829 		.ascii	"max).p) (_v).p = -(_v_max).p; if ((_v).q > (_v_max)"
 14267      2E702920 
 14267      285F7629 
 14267      2E70203D 
 14267      202D285F 
 14268 e2a9 2E712920 		.ascii	".q) (_v).q = (_v_max).q; else if ((_v).q < -(_v_max"
 14268      285F7629 
 14268      2E71203D 
 14268      20285F76 
 14268      5F6D6178 
 14269 e2dc 292E7129 		.ascii	").q) (_v).q = -(_v_max).q; if ((_v).r > (_v_max).r)"
 14269      20285F76 
 14269      292E7120 
 14269      3D202D28 
 14269      5F765F6D 
 14270 e30f 20285F76 		.ascii	" (_v).r = (_v_max).r; else if ((_v).r < -(_v_max).r"
 14270      292E7220 
 14270      3D20285F 
 14270      765F6D61 
 14270      78292E72 
 14271 e342 2920285F 		.ascii	") (_v).r = -(_v_max).r; }\000"
 14271      76292E72 
 14271      203D202D 
 14271      285F765F 
 14271      6D617829 
 14272              	.LASF498:
 14273 e35c 55415254 		.ascii	"UART1_BAUD B57600\000"
 14273      315F4241 
 14273      55442042 
 14273      35373630 
 14273      3000
 14274              	.LASF794:
 14275 e36e 5F524545 		.ascii	"_REENT_WCRTOMB_STATE(ptr) ((ptr)->_new._reent._wcrt"
 14275      4E545F57 
 14275      4352544F 
 14275      4D425F53 
 14275      54415445 
 14276 e3a1 6F6D625F 		.ascii	"omb_state)\000"
 14276      73746174 
 14276      652900
 14277              	.LASF687:
 14278 e3ac 5F5F6E65 		.ascii	"__need_size_t\000"
 14278      65645F73 
 14278      697A655F 
 14278      7400
ARM GAS  /tmp/cceVa9lb.s 			page 370


 14279              	.LASF821:
 14280 e3ba 5F5F4245 		.ascii	"__BEGIN_DECLS \000"
 14280      47494E5F 
 14280      4445434C 
 14280      532000
 14281              	.LASF1240:
 14282 e3c9 46505F49 		.ascii	"FP_ILOGBNAN __INT_MAX__\000"
 14282      4C4F4742 
 14282      4E414E20 
 14282      5F5F494E 
 14282      545F4D41 
 14283              	.LASF529:
 14284 e3e1 55544D5F 		.ascii	"UTM_OF_NED_ADD(_utm,_pos,_utm0) { (_utm).east = (_u"
 14284      4F465F4E 
 14284      45445F41 
 14284      4444285F 
 14284      75746D2C 
 14285 e414 746D3029 		.ascii	"tm0).east + (_pos).y; (_utm).north = (_utm0).north "
 14285      2E656173 
 14285      74202B20 
 14285      285F706F 
 14285      73292E79 
 14286 e447 2B20285F 		.ascii	"+ (_pos).x; (_utm).alt = (_utm0).alt - (_pos).z; }\000"
 14286      706F7329 
 14286      2E783B20 
 14286      285F7574 
 14286      6D292E61 
 14287              	.LASF568:
 14288 e47a 464C545F 		.ascii	"FLT_MAX_10_EXP __FLT_MAX_10_EXP__\000"
 14288      4D41585F 
 14288      31305F45 
 14288      5850205F 
 14288      5F464C54 
 14289              	.LASF753:
 14290 e49c 5F524545 		.ascii	"_REENT_SMALL_CHECK_INIT(ptr) \000"
 14290      4E545F53 
 14290      4D414C4C 
 14290      5F434845 
 14290      434B5F49 
 14291              	.LASF1025:
 14292 e4ba 55494E54 		.ascii	"UINT_FAST16_MAX\000"
 14292      5F464153 
 14292      5431365F 
 14292      4D415800 
 14293              	.LASF214:
 14294 e4ca 5F5F464C 		.ascii	"__FLT64_DECIMAL_DIG__ 17\000"
 14294      5436345F 
 14294      44454349 
 14294      4D414C5F 
 14294      4449475F 
 14295              	.LASF138:
 14296 e4e3 5F5F5549 		.ascii	"__UINTPTR_MAX__ 0xffffffffU\000"
 14296      4E545054 
 14296      525F4D41 
 14296      585F5F20 
 14296      30786666 
 14297              	.LASF387:
ARM GAS  /tmp/cceVa9lb.s 			page 371


 14298 e4ff 5F5F4152 		.ascii	"__ARM_FEATURE_COMPLEX\000"
 14298      4D5F4645 
 14298      41545552 
 14298      455F434F 
 14298      4D504C45 
 14299              	.LASF507:
 14300 e515 5553455F 		.ascii	"USE_HARD_FAULT_RECOVERY TRUE\000"
 14300      48415244 
 14300      5F464155 
 14300      4C545F52 
 14300      45434F56 
 14301              	.LASF1507:
 14302 e532 5050525A 		.ascii	"PPRZ_GEODETIC_UTM_H \000"
 14302      5F47454F 
 14302      44455449 
 14302      435F5554 
 14302      4D5F4820 
 14303              	.LASF494:
 14304 e547 5348545F 		.ascii	"SHT_SCK_GPIO GPIOC,GPIO5\000"
 14304      53434B5F 
 14304      4750494F 
 14304      20475049 
 14304      4F432C47 
 14305              	.LASF242:
 14306 e560 5F5F5346 		.ascii	"__SFRACT_EPSILON__ 0x1P-7HR\000"
 14306      52414354 
 14306      5F455053 
 14306      494C4F4E 
 14306      5F5F2030 
 14307              	.LASF14:
 14308 e57c 5F5F4154 		.ascii	"__ATOMIC_CONSUME 1\000"
 14308      4F4D4943 
 14308      5F434F4E 
 14308      53554D45 
 14308      203100
 14309              	.LASF856:
 14310 e58f 5F5F756E 		.ascii	"__unused __attribute__((__unused__))\000"
 14310      75736564 
 14310      205F5F61 
 14310      74747269 
 14310      62757465 
 14311              	.LASF154:
 14312 e5b4 5F5F464C 		.ascii	"__FLT_MIN__ 1.1754943508222875e-38F\000"
 14312      545F4D49 
 14312      4E5F5F20 
 14312      312E3137 
 14312      35343934 
 14313              	.LASF50:
 14314 e5d8 5F5F494E 		.ascii	"__INT_LEAST16_TYPE__ short int\000"
 14314      545F4C45 
 14314      41535431 
 14314      365F5459 
 14314      50455F5F 
 14315              	.LASF56:
 14316 e5f7 5F5F5549 		.ascii	"__UINT_LEAST64_TYPE__ long long unsigned int\000"
 14316      4E545F4C 
 14316      45415354 
ARM GAS  /tmp/cceVa9lb.s 			page 372


 14316      36345F54 
 14316      5950455F 
 14317              	.LASF918:
 14318 e624 5F5F6C6F 		.ascii	"__locks_exclusive(...) __lock_annotate(exclusive_lo"
 14318      636B735F 
 14318      6578636C 
 14318      75736976 
 14318      65282E2E 
 14319 e657 636B5F66 		.ascii	"ck_function(__VA_ARGS__))\000"
 14319      756E6374 
 14319      696F6E28 
 14319      5F5F5641 
 14319      5F415247 
 14320              	.LASF980:
 14321 e671 494E5433 		.ascii	"INT32_MAX __INT32_MAX__\000"
 14321      325F4D41 
 14321      58205F5F 
 14321      494E5433 
 14321      325F4D41 
 14322              	.LASF243:
 14323 e689 5F5F5553 		.ascii	"__USFRACT_FBIT__ 8\000"
 14323      46524143 
 14323      545F4642 
 14323      49545F5F 
 14323      203800
 14324              	.LASF468:
 14325 e69c 4749545F 		.ascii	"GIT_DESC v6.4.0_stable\000"
 14325      44455343 
 14325      2076362E 
 14325      342E305F 
 14325      73746162 
 14326              	.LASF1357:
 14327 e6b3 56454354 		.ascii	"VECT3_COPY(_a,_b) { (_a).x = (_b).x; (_a).y = (_b)."
 14327      335F434F 
 14327      5059285F 
 14327      612C5F62 
 14327      29207B20 
 14328 e6e6 793B2028 		.ascii	"y; (_a).z = (_b).z; }\000"
 14328      5F61292E 
 14328      7A203D20 
 14328      285F6229 
 14328      2E7A3B20 
 14329              	.LASF1577:
 14330 e6fc 73696E5F 		.ascii	"sin_lat\000"
 14330      6C617400 
 14331              	.LASF366:
 14332 e704 5F5F4743 		.ascii	"__GCC_ATOMIC_WCHAR_T_LOCK_FREE 2\000"
 14332      435F4154 
 14332      4F4D4943 
 14332      5F574348 
 14332      41525F54 
 14333              	.LASF1471:
 14334 e725 464C4F41 		.ascii	"FLOAT_RMAT_INTEGRATE_FI(_rm,_omega,_dt) WARNING(\"F"
 14334      545F524D 
 14334      41545F49 
 14334      4E544547 
 14334      52415445 
ARM GAS  /tmp/cceVa9lb.s 			page 373


 14335 e757 4C4F4154 		.ascii	"LOAT_RMAT_INTEGRATE_FI macro is deprecated, use the"
 14335      5F524D41 
 14335      545F494E 
 14335      54454752 
 14335      4154455F 
 14336 e78a 206C6F77 		.ascii	" lower case function instead\") float_rmat_integrat"
 14336      65722063 
 14336      61736520 
 14336      66756E63 
 14336      74696F6E 
 14337 e7bc 655F6669 		.ascii	"e_fi(&(_rm), &(_omega), &(_dt))\000"
 14337      2826285F 
 14337      726D292C 
 14337      2026285F 
 14337      6F6D6567 
 14338              	.LASF1546:
 14339 e7dc 686D736C 		.ascii	"hmsl\000"
 14339      00
 14340              	.LASF378:
 14341 e7e1 5F5F5349 		.ascii	"__SIZEOF_PTRDIFF_T__ 4\000"
 14341      5A454F46 
 14341      5F505452 
 14341      44494646 
 14341      5F545F5F 
 14342              	.LASF563:
 14343 e7f8 44424C5F 		.ascii	"DBL_MAX_EXP __DBL_MAX_EXP__\000"
 14343      4D41585F 
 14343      45585020 
 14343      5F5F4442 
 14343      4C5F4D41 
 14344              	.LASF1115:
 14345 e814 5F5F5343 		.ascii	"__SCN16(x) __INT16 __STRINGIFY(x)\000"
 14345      4E313628 
 14345      7829205F 
 14345      5F494E54 
 14345      3136205F 
 14346              	.LASF721:
 14347 e836 5F5F5F69 		.ascii	"___int32_t_defined 1\000"
 14347      6E743332 
 14347      5F745F64 
 14347      6566696E 
 14347      65642031 
 14348              	.LASF1194:
 14349 e84b 5F5F5052 		.ascii	"__PRI64FAST(x) __FAST64 __STRINGIFY(x)\000"
 14349      49363446 
 14349      41535428 
 14349      7829205F 
 14349      5F464153 
 14350              	.LASF946:
 14351 e872 63686172 		.ascii	"char +0\000"
 14351      202B3000 
 14352              	.LASF989:
 14353 e87a 55494E54 		.ascii	"UINT64_MAX\000"
 14353      36345F4D 
 14353      415800
 14354              	.LASF237:
 14355 e885 5F5F464C 		.ascii	"__FLT32X_HAS_QUIET_NAN__ 1\000"
ARM GAS  /tmp/cceVa9lb.s 			page 374


 14355      54333258 
 14355      5F484153 
 14355      5F515549 
 14355      45545F4E 
 14356              	.LASF629:
 14357 e8a0 5F415446 		.ascii	"_ATFILE_SOURCE\000"
 14357      494C455F 
 14357      534F5552 
 14357      434500
 14358              	.LASF262:
 14359 e8af 5F5F4C46 		.ascii	"__LFRACT_EPSILON__ 0x1P-31LR\000"
 14359      52414354 
 14359      5F455053 
 14359      494C4F4E 
 14359      5F5F2030 
 14360              	.LASF1252:
 14361 e8cc 69736C65 		.ascii	"isless(__x,__y) (__builtin_isless (__x, __y))\000"
 14361      7373285F 
 14361      5F782C5F 
 14361      5F792920 
 14361      285F5F62 
 14362              	.LASF55:
 14363 e8fa 5F5F5549 		.ascii	"__UINT_LEAST32_TYPE__ long unsigned int\000"
 14363      4E545F4C 
 14363      45415354 
 14363      33325F54 
 14363      5950455F 
 14364              	.LASF1139:
 14365 e922 53434E78 		.ascii	"SCNxLEAST16 __SCN16LEAST(x)\000"
 14365      4C454153 
 14365      54313620 
 14365      5F5F5343 
 14365      4E31364C 
 14366              	.LASF163:
 14367 e93e 5F5F4442 		.ascii	"__DBL_MIN_EXP__ (-1021)\000"
 14367      4C5F4D49 
 14367      4E5F4558 
 14367      505F5F20 
 14367      282D3130 
 14368              	.LASF885:
 14369 e956 5F5F6578 		.ascii	"__exported __attribute__((__visibility__(\"default\""
 14369      706F7274 
 14369      6564205F 
 14369      5F617474 
 14369      72696275 
 14370 e988 29292900 		.ascii	")))\000"
 14371              	.LASF912:
 14372 e98c 5F5F4E55 		.ascii	"__NULLABILITY_PRAGMA_PUSH \000"
 14372      4C4C4142 
 14372      494C4954 
 14372      595F5052 
 14372      41474D41 
 14373              	.LASF449:
 14374 e9a7 41502031 		.ascii	"AP 1\000"
 14374      00
 14375              	.LASF1441:
 14376 e9ac 5050525A 		.ascii	"PPRZ_ALGEBRA_FLOAT_H \000"
ARM GAS  /tmp/cceVa9lb.s 			page 375


 14376      5F414C47 
 14376      45425241 
 14376      5F464C4F 
 14376      41545F48 
 14377              	.LASF977:
 14378 e9c2 55494E54 		.ascii	"UINT16_MAX\000"
 14378      31365F4D 
 14378      415800
 14379              	.LASF844:
 14380 e9cd 5F5F4343 		.ascii	"__CC_SUPPORTS_DYNAMIC_ARRAY_INIT 1\000"
 14380      5F535550 
 14380      504F5254 
 14380      535F4459 
 14380      4E414D49 
 14381              	.LASF1322:
 14382 e9f0 4D617828 		.ascii	"Max(x,y) (x > y ? x : y)\000"
 14382      782C7929 
 14382      20287820 
 14382      3E207920 
 14382      3F207820 
 14383              	.LASF181:
 14384 ea09 5F5F4C44 		.ascii	"__LDBL_MAX_10_EXP__ 308\000"
 14384      424C5F4D 
 14384      41585F31 
 14384      305F4558 
 14384      505F5F20 
 14385              	.LASF1278:
 14386 ea21 4D5F5351 		.ascii	"M_SQRT3 1.73205080756887719000\000"
 14386      52543320 
 14386      312E3733 
 14386      32303530 
 14386      38303735 
 14387              	.LASF645:
 14388 ea40 5F5F494D 		.ascii	"__IMPORT \000"
 14388      504F5254 
 14388      2000
 14389              	.LASF491:
 14390 ea4a 52414449 		.ascii	"RADIO_CONTROL_LED 4\000"
 14390      4F5F434F 
 14390      4E54524F 
 14390      4C5F4C45 
 14390      44203400 
 14391              	.LASF1350:
 14392 ea5e 56454354 		.ascii	"VECT2_SMUL(_vo,_vi,_s) { (_vo).x = (_vi).x * (_s); "
 14392      325F534D 
 14392      554C285F 
 14392      766F2C5F 
 14392      76692C5F 
 14393 ea91 285F766F 		.ascii	"(_vo).y = (_vi).y * (_s); }\000"
 14393      292E7920 
 14393      3D20285F 
 14393      7669292E 
 14393      79202A20 
 14394              	.LASF545:
 14395 eaad 44424C5F 		.ascii	"DBL_DIG __DBL_DIG__\000"
 14395      44494720 
 14395      5F5F4442 
ARM GAS  /tmp/cceVa9lb.s 			page 376


 14395      4C5F4449 
 14395      475F5F00 
 14396              	.LASF44:
 14397 eac1 5F5F494E 		.ascii	"__INT64_TYPE__ long long int\000"
 14397      5436345F 
 14397      54595045 
 14397      5F5F206C 
 14397      6F6E6720 
 14398              	.LASF994:
 14399 eade 494E545F 		.ascii	"INT_LEAST8_MIN (-INT_LEAST8_MAX - 1)\000"
 14399      4C454153 
 14399      54385F4D 
 14399      494E2028 
 14399      2D494E54 
 14400              	.LASF385:
 14401 eb03 5F5F4152 		.ascii	"__ARM_FEATURE_CRC32\000"
 14401      4D5F4645 
 14401      41545552 
 14401      455F4352 
 14401      43333200 
 14402              	.LASF344:
 14403 eb17 5F5F5441 		.ascii	"__TA_FBIT__ 63\000"
 14403      5F464249 
 14403      545F5F20 
 14403      363300
 14404              	.LASF185:
 14405 eb26 5F5F4C44 		.ascii	"__LDBL_NORM_MAX__ 1.7976931348623157e+308L\000"
 14405      424C5F4E 
 14405      4F524D5F 
 14405      4D41585F 
 14405      5F20312E 
 14406              	.LASF1058:
 14407 eb51 5349475F 		.ascii	"SIG_ATOMIC_MIN __SIG_ATOMIC_MIN__\000"
 14407      41544F4D 
 14407      49435F4D 
 14407      494E205F 
 14407      5F534947 
 14408              	.LASF219:
 14409 eb73 5F5F464C 		.ascii	"__FLT64_DENORM_MIN__ 4.9406564584124654e-324F64\000"
 14409      5436345F 
 14409      44454E4F 
 14409      524D5F4D 
 14409      494E5F5F 
 14410              	.LASF1379:
 14411 eba3 45554C45 		.ascii	"EULERS_SUB(_a,_b) { (_a).phi -= (_b).phi; (_a).thet"
 14411      52535F53 
 14411      5542285F 
 14411      612C5F62 
 14411      29207B20 
 14412 ebd6 61202D3D 		.ascii	"a -= (_b).theta; (_a).psi -= (_b).psi; }\000"
 14412      20285F62 
 14412      292E7468 
 14412      6574613B 
 14412      20285F61 
 14413              	.LASF655:
 14414 ebff 5F4E4F49 		.ascii	"_NOINLINE_STATIC _NOINLINE static\000"
 14414      4E4C494E 
ARM GAS  /tmp/cceVa9lb.s 			page 377


 14414      455F5354 
 14414      41544943 
 14414      205F4E4F 
 14415              	.LASF651:
 14416 ec21 5F4C4F4E 		.ascii	"_LONG_DOUBLE long double\000"
 14416      475F444F 
 14416      55424C45 
 14416      206C6F6E 
 14416      6720646F 
 14417              	.LASF857:
 14418 ec3a 5F5F7573 		.ascii	"__used __attribute__((__used__))\000"
 14418      6564205F 
 14418      5F617474 
 14418      72696275 
 14418      74655F5F 
 14419              	.LASF1433:
 14420 ec5b 504F5349 		.ascii	"POSITIONS_FLOAT_OF_BFP(_ef,_ei) { (_ef).x = POS_FLO"
 14420      54494F4E 
 14420      535F464C 
 14420      4F41545F 
 14420      4F465F42 
 14421 ec8e 41545F4F 		.ascii	"AT_OF_BFP((_ei).x); (_ef).y = POS_FLOAT_OF_BFP((_ei"
 14421      465F4246 
 14421      5028285F 
 14421      6569292E 
 14421      78293B20 
 14422 ecc1 292E7929 		.ascii	").y); (_ef).z = POS_FLOAT_OF_BFP((_ei).z); }\000"
 14422      3B20285F 
 14422      6566292E 
 14422      7A203D20 
 14422      504F535F 
 14423              	.LASF1232:
 14424 ecee 494E4649 		.ascii	"INFINITY (__builtin_inff())\000"
 14424      4E495459 
 14424      20285F5F 
 14424      6275696C 
 14424      74696E5F 
 14425              	.LASF339:
 14426 ed0a 5F5F4841 		.ascii	"__HA_IBIT__ 8\000"
 14426      5F494249 
 14426      545F5F20 
 14426      3800
 14427              	.LASF1072:
 14428 ed18 494E5431 		.ascii	"INT16_C(c) __INT16_C(c)\000"
 14428      365F4328 
 14428      6329205F 
 14428      5F494E54 
 14428      31365F43 
 14429              	.LASF345:
 14430 ed30 5F5F5441 		.ascii	"__TA_IBIT__ 64\000"
 14430      5F494249 
 14430      545F5F20 
 14430      363400
 14431              	.LASF1564:
 14432 ed3f 67645F6C 		.ascii	"gd_lat\000"
 14432      617400
 14433              	.LASF933:
ARM GAS  /tmp/cceVa9lb.s 			page 378


 14434 ed46 5F535452 		.ascii	"_STRINGS_H_ \000"
 14434      494E4753 
 14434      5F485F20 
 14434      00
 14435              	.LASF566:
 14436 ed53 44424C5F 		.ascii	"DBL_MAX_10_EXP\000"
 14436      4D41585F 
 14436      31305F45 
 14436      585000
 14437              	.LASF970:
 14438 ed62 494E5438 		.ascii	"INT8_MIN (-INT8_MAX - 1)\000"
 14438      5F4D494E 
 14438      20282D49 
 14438      4E54385F 
 14438      4D415820 
 14439              	.LASF235:
 14440 ed7b 5F5F464C 		.ascii	"__FLT32X_HAS_DENORM__ 1\000"
 14440      54333258 
 14440      5F484153 
 14440      5F44454E 
 14440      4F524D5F 
 14441              	.LASF1071:
 14442 ed93 494E5431 		.ascii	"INT16_C\000"
 14442      365F4300 
 14443              	.LASF206:
 14444 ed9b 5F5F464C 		.ascii	"__FLT32_HAS_QUIET_NAN__ 1\000"
 14444      5433325F 
 14444      4841535F 
 14444      51554945 
 14444      545F4E41 
 14445              	.LASF1136:
 14446 edb5 53434E69 		.ascii	"SCNiLEAST16 __SCN16LEAST(i)\000"
 14446      4C454153 
 14446      54313620 
 14446      5F5F5343 
 14446      4E31364C 
 14447              	.LASF12:
 14448 edd1 5F5F4154 		.ascii	"__ATOMIC_RELEASE 3\000"
 14448      4F4D4943 
 14448      5F52454C 
 14448      45415345 
 14448      203300
 14449              	.LASF321:
 14450 ede4 5F5F4851 		.ascii	"__HQ_IBIT__ 0\000"
 14450      5F494249 
 14450      545F5F20 
 14450      3000
 14451              	.LASF1467:
 14452 edf2 464C4F41 		.ascii	"FLOAT_RMAT_OF_EULERS(_rm,_e) WARNING(\"FLOAT_RMAT_O"
 14452      545F524D 
 14452      41545F4F 
 14452      465F4555 
 14452      4C455253 
 14453 ee24 465F4555 		.ascii	"F_EULERS macro is deprecated, use the lower case fu"
 14453      4C455253 
 14453      206D6163 
 14453      726F2069 
ARM GAS  /tmp/cceVa9lb.s 			page 379


 14453      73206465 
 14454 ee57 6E637469 		.ascii	"nction instead\") float_rmat_of_eulers_321(&(_rm), "
 14454      6F6E2069 
 14454      6E737465 
 14454      61642229 
 14454      20666C6F 
 14455 ee89 26285F65 		.ascii	"&(_e))\000"
 14455      292900
 14456              	.LASF1527:
 14457 ee90 6C6F6E67 		.ascii	"long long int\000"
 14457      206C6F6E 
 14457      6720696E 
 14457      7400
 14458              	.LASF141:
 14459 ee9e 5F5F464C 		.ascii	"__FLT_EVAL_METHOD__ 0\000"
 14459      545F4556 
 14459      414C5F4D 
 14459      4554484F 
 14459      445F5F20 
 14460              	.LASF1463:
 14461 eeb4 464C4F41 		.ascii	"FLOAT_RMAT_TRANSP_VMULT(_vb,_m_b2a,_va) WARNING(\"F"
 14461      545F524D 
 14461      41545F54 
 14461      52414E53 
 14461      505F564D 
 14462 eee6 4C4F4154 		.ascii	"LOAT_RMAT_TRANSP_VMULT macro is deprecated, use the"
 14462      5F524D41 
 14462      545F5452 
 14462      414E5350 
 14462      5F564D55 
 14463 ef19 206C6F77 		.ascii	" lower case function instead\") float_rmat_transp_v"
 14463      65722063 
 14463      61736520 
 14463      66756E63 
 14463      74696F6E 
 14464 ef4b 6D756C74 		.ascii	"mult(&(_vb), &(_m_b2a), &(_va))\000"
 14464      2826285F 
 14464      7662292C 
 14464      2026285F 
 14464      6D5F6232 
 14465              	.LASF1497:
 14466 ef6b 464C4F41 		.ascii	"FLOAT_EULERS_OF_QUAT(_e,_q) WARNING(\"FLOAT_EULERS_"
 14466      545F4555 
 14466      4C455253 
 14466      5F4F465F 
 14466      51554154 
 14467 ef9d 4F465F51 		.ascii	"OF_QUAT macro is deprecated, use the lower case fun"
 14467      55415420 
 14467      6D616372 
 14467      6F206973 
 14467      20646570 
 14468 efd0 6374696F 		.ascii	"ction instead\") float_eulers_of_quat(&(_e), &(_q))"
 14468      6E20696E 
 14468      73746561 
 14468      64222920 
 14468      666C6F61 
 14469 f002 00       		.ascii	"\000"
ARM GAS  /tmp/cceVa9lb.s 			page 380


 14470              	.LASF917:
 14471 f003 5F5F6C6F 		.ascii	"__lockable __lock_annotate(lockable)\000"
 14471      636B6162 
 14471      6C65205F 
 14471      5F6C6F63 
 14471      6B5F616E 
 14472              	.LASF614:
 14473 f028 5F574944 		.ascii	"_WIDE_ORIENT 1\000"
 14473      455F4F52 
 14473      49454E54 
 14473      203100
 14474              	.LASF945:
 14475 f037 756E7369 		.ascii	"unsigned +0\000"
 14475      676E6564 
 14475      202B3000 
 14476              	.LASF943:
 14477 f043 6C6F6E67 		.ascii	"long\000"
 14477      00
 14478              	.LASF346:
 14479 f048 5F5F5548 		.ascii	"__UHA_FBIT__ 8\000"
 14479      415F4642 
 14479      49545F5F 
 14479      203800
 14480              	.LASF1119:
 14481 f057 50524969 		.ascii	"PRIi16 __PRI16(i)\000"
 14481      3136205F 
 14481      5F505249 
 14481      31362869 
 14481      2900
 14482              	.LASF1255:
 14483 f069 6973756E 		.ascii	"isunordered(__x,__y) (__builtin_isunordered (__x, _"
 14483      6F726465 
 14483      72656428 
 14483      5F5F782C 
 14483      5F5F7929 
 14484 f09c 5F792929 		.ascii	"_y))\000"
 14484      00
 14485              	.LASF277:
 14486 f0a1 5F5F554C 		.ascii	"__ULLFRACT_EPSILON__ 0x1P-64ULLR\000"
 14486      4C465241 
 14486      43545F45 
 14486      5053494C 
 14486      4F4E5F5F 
 14487              	.LASF1129:
 14488 f0c2 50524964 		.ascii	"PRIdLEAST16 __PRI16LEAST(d)\000"
 14488      4C454153 
 14488      54313620 
 14488      5F5F5052 
 14488      4931364C 
 14489              	.LASF905:
 14490 f0de 5F5F434F 		.ascii	"__COPYRIGHT(s) struct __hack\000"
 14490      50595249 
 14490      47485428 
 14490      73292073 
 14490      74727563 
 14491              	.LASF1359:
 14492 f0fb 56454354 		.ascii	"VECT3_SUB(_a,_b) { (_a).x -= (_b).x; (_a).y -= (_b)"
ARM GAS  /tmp/cceVa9lb.s 			page 381


 14492      335F5355 
 14492      42285F61 
 14492      2C5F6229 
 14492      207B2028 
 14493 f12e 2E793B20 		.ascii	".y; (_a).z -= (_b).z; }\000"
 14493      285F6129 
 14493      2E7A202D 
 14493      3D20285F 
 14493      62292E7A 
 14494              	.LASF393:
 14495 f146 5F5F4152 		.ascii	"__ARM_FEATURE_CLZ 1\000"
 14495      4D5F4645 
 14495      41545552 
 14495      455F434C 
 14495      5A203100 
 14496              	.LASF1003:
 14497 f15a 494E545F 		.ascii	"INT_LEAST32_MAX\000"
 14497      4C454153 
 14497      5433325F 
 14497      4D415800 
 14498              	.LASF1389:
 14499 f16a 52415445 		.ascii	"RATES_SUM_SCALED(_c,_a,_b,_s) { (_c).p = (_a).p + ("
 14499      535F5355 
 14499      4D5F5343 
 14499      414C4544 
 14499      285F632C 
 14500 f19d 5F73292A 		.ascii	"_s)*(_b).p; (_c).q = (_a).q + (_s)*(_b).q; (_c).r ="
 14500      285F6229 
 14500      2E703B20 
 14500      285F6329 
 14500      2E71203D 
 14501 f1d0 20285F61 		.ascii	" (_a).r + (_s)*(_b).r; }\000"
 14501      292E7220 
 14501      2B20285F 
 14501      73292A28 
 14501      5F62292E 
 14502              	.LASF478:
 14503 f1e9 494E535F 		.ascii	"INS_TYPE_H \"modules/ins/ins_alt_float.h\"\000"
 14503      54595045 
 14503      5F482022 
 14503      6D6F6475 
 14503      6C65732F 
 14504              	.LASF420:
 14505 f212 5F5F4152 		.ascii	"__ARM_FEATURE_FMA 1\000"
 14505      4D5F4645 
 14505      41545552 
 14505      455F464D 
 14505      41203100 
 14506              	.LASF1336:
 14507 f226 52756E4F 		.ascii	"RunOnceEvery(_prescaler,_code) { static uint16_t pr"
 14507      6E636545 
 14507      76657279 
 14507      285F7072 
 14507      65736361 
 14508 f259 65736361 		.ascii	"escaler = 0; prescaler++; if (prescaler >= _prescal"
 14508      6C657220 
 14508      3D20303B 
ARM GAS  /tmp/cceVa9lb.s 			page 382


 14508      20707265 
 14508      7363616C 
 14509 f28c 65722920 		.ascii	"er) { prescaler = 0; _code; } }\000"
 14509      7B207072 
 14509      65736361 
 14509      6C657220 
 14509      3D20303B 
 14510              	.LASF965:
 14511 f2ac 5F5F4C45 		.ascii	"__LEAST64 \"ll\"\000"
 14511      41535436 
 14511      3420226C 
 14511      6C2200
 14512              	.LASF423:
 14513 f2bb 5F5F4152 		.ascii	"__ARM_NEON_FP\000"
 14513      4D5F4E45 
 14513      4F4E5F46 
 14513      5000
 14514              	.LASF427:
 14515 f2c9 5F5F4644 		.ascii	"__FDPIC__\000"
 14515      5049435F 
 14515      5F00
 14516              	.LASF543:
 14517 f2d3 4C44424C 		.ascii	"LDBL_DIG\000"
 14517      5F444947 
 14517      00
 14518              	.LASF987:
 14519 f2dc 494E5436 		.ascii	"INT64_MIN\000"
 14519      345F4D49 
 14519      4E00
 14520              	.LASF101:
 14521 f2e6 5F5F5549 		.ascii	"__UINT16_MAX__ 0xffff\000"
 14521      4E543136 
 14521      5F4D4158 
 14521      5F5F2030 
 14521      78666666 
 14522              	.LASF356:
 14523 f2fc 5F5F474E 		.ascii	"__GNUC_STDC_INLINE__ 1\000"
 14523      55435F53 
 14523      5444435F 
 14523      494E4C49 
 14523      4E455F5F 
 14524              	.LASF402:
 14525 f313 5F5F4152 		.ascii	"__ARM_ARCH 7\000"
 14525      4D5F4152 
 14525      43482037 
 14525      00
 14526              	.LASF254:
 14527 f320 5F5F5546 		.ascii	"__UFRACT_IBIT__ 0\000"
 14527      52414354 
 14527      5F494249 
 14527      545F5F20 
 14527      3000
 14528              	.LASF797:
 14529 f332 5F524545 		.ascii	"_REENT_SIGNAL_BUF(ptr) ((ptr)->_new._reent._signal_"
 14529      4E545F53 
 14529      49474E41 
 14529      4C5F4255 
ARM GAS  /tmp/cceVa9lb.s 			page 383


 14529      46287074 
 14530 f365 62756629 		.ascii	"buf)\000"
 14530      00
 14531              	.LASF847:
 14532 f36a 5F5F434F 		.ascii	"__CONCAT(x,y) __CONCAT1(x,y)\000"
 14532      4E434154 
 14532      28782C79 
 14532      29205F5F 
 14532      434F4E43 
 14533              	.LASF175:
 14534 f387 5F5F4442 		.ascii	"__DBL_HAS_QUIET_NAN__ 1\000"
 14534      4C5F4841 
 14534      535F5155 
 14534      4945545F 
 14534      4E414E5F 
 14535              	.LASF179:
 14536 f39f 5F5F4C44 		.ascii	"__LDBL_MIN_10_EXP__ (-307)\000"
 14536      424C5F4D 
 14536      494E5F31 
 14536      305F4558 
 14536      505F5F20 
 14537              	.LASF1284:
 14538 f3ba 5F494545 		.ascii	"_IEEE_ __fdlibm_ieee\000"
 14538      455F205F 
 14538      5F66646C 
 14538      69626D5F 
 14538      69656565 
 14539              	.LASF1207:
 14540 f3cf 53434E75 		.ascii	"SCNuMAX __SCNMAX(u)\000"
 14540      4D415820 
 14540      5F5F5343 
 14540      4E4D4158 
 14540      28752900 
 14541              	.LASF1191:
 14542 f3e3 5F5F5343 		.ascii	"__SCN64(x) __INT64 __STRINGIFY(x)\000"
 14542      4E363428 
 14542      7829205F 
 14542      5F494E54 
 14542      3634205F 
 14543              	.LASF678:
 14544 f405 5F425344 		.ascii	"_BSD_SIZE_T_ \000"
 14544      5F53495A 
 14544      455F545F 
 14544      2000
 14545              	.LASF456:
 14546 f413 43485F44 		.ascii	"CH_DBG_ENABLE_TRACE TRUE\000"
 14546      42475F45 
 14546      4E41424C 
 14546      455F5452 
 14546      41434520 
 14547              	.LASF1272:
 14548 f42c 4D5F5351 		.ascii	"M_SQRT1_2 0.70710678118654752440\000"
 14548      5254315F 
 14548      3220302E 
 14548      37303731 
 14548      30363738 
 14549              	.LASF1364:
ARM GAS  /tmp/cceVa9lb.s 			page 384


 14550 f44d 56454354 		.ascii	"VECT3_SMUL(_vo,_vi,_s) { (_vo).x = (_vi).x * (_s); "
 14550      335F534D 
 14550      554C285F 
 14550      766F2C5F 
 14550      76692C5F 
 14551 f480 285F766F 		.ascii	"(_vo).y = (_vi).y * (_s); (_vo).z = (_vi).z * (_s);"
 14551      292E7920 
 14551      3D20285F 
 14551      7669292E 
 14551      79202A20 
 14552 f4b3 207D00   		.ascii	" }\000"
 14553              	.LASF1055:
 14554 f4b6 5349475F 		.ascii	"SIG_ATOMIC_MAX\000"
 14554      41544F4D 
 14554      49435F4D 
 14554      415800
 14555              	.LASF244:
 14556 f4c5 5F5F5553 		.ascii	"__USFRACT_IBIT__ 0\000"
 14556      46524143 
 14556      545F4942 
 14556      49545F5F 
 14556      203000
 14557              	.LASF1092:
 14558 f4d8 5F5F5052 		.ascii	"__PRI8LEAST(x) __LEAST8 __STRINGIFY(x)\000"
 14558      49384C45 
 14558      41535428 
 14558      7829205F 
 14558      5F4C4541 
 14559              	.LASF226:
 14560 f4ff 5F5F464C 		.ascii	"__FLT32X_MIN_10_EXP__ (-307)\000"
 14560      54333258 
 14560      5F4D494E 
 14560      5F31305F 
 14560      4558505F 
 14561              	.LASF1065:
 14562 f51c 57494E54 		.ascii	"WINT_MAX\000"
 14562      5F4D4158 
 14562      00
 14563              	.LASF1091:
 14564 f525 5F5F5052 		.ascii	"__PRI8(x) __INT8 __STRINGIFY(x)\000"
 14564      49382878 
 14564      29205F5F 
 14564      494E5438 
 14564      205F5F53 
 14565              	.LASF1062:
 14566 f545 57434841 		.ascii	"WCHAR_MAX __WCHAR_MAX__\000"
 14566      525F4D41 
 14566      58205F5F 
 14566      57434841 
 14566      525F4D41 
 14567              	.LASF143:
 14568 f55d 5F5F4445 		.ascii	"__DEC_EVAL_METHOD__ 2\000"
 14568      435F4556 
 14568      414C5F4D 
 14568      4554484F 
 14568      445F5F20 
 14569              	.LASF1009:
ARM GAS  /tmp/cceVa9lb.s 			page 385


 14570 f573 494E545F 		.ascii	"INT_LEAST64_MAX\000"
 14570      4C454153 
 14570      5436345F 
 14570      4D415800 
 14571              	.LASF1305:
 14572 f583 5F425628 		.ascii	"_BV(bit) (1 << (bit))\000"
 14572      62697429 
 14572      20283120 
 14572      3C3C2028 
 14572      62697429 
 14573              	.LASF613:
 14574 f599 5F465345 		.ascii	"_FSEEK_OPTIMIZATION 1\000"
 14574      454B5F4F 
 14574      5054494D 
 14574      495A4154 
 14574      494F4E20 
 14575              	.LASF1526:
 14576 f5af 6C6F6E67 		.ascii	"long unsigned int\000"
 14576      20756E73 
 14576      69676E65 
 14576      6420696E 
 14576      7400
 14577              	.LASF684:
 14578 f5c1 5F474343 		.ascii	"_GCC_SIZE_T \000"
 14578      5F53495A 
 14578      455F5420 
 14578      00
 14579              	.LASF8:
 14580 f5ce 5F5F5645 		.ascii	"__VERSION__ \"10.3.1 20210621 (release)\"\000"
 14580      5253494F 
 14580      4E5F5F20 
 14580      2231302E 
 14580      332E3120 
 14581              	.LASF732:
 14582 f5f6 5F54494D 		.ascii	"_TIME_T_ __int_least64_t\000"
 14582      455F545F 
 14582      205F5F69 
 14582      6E745F6C 
 14582      65617374 
 14583              	.LASF1124:
 14584 f60f 53434E64 		.ascii	"SCNd16 __SCN16(d)\000"
 14584      3136205F 
 14584      5F53434E 
 14584      31362864 
 14584      2900
 14585              	.LASF241:
 14586 f621 5F5F5346 		.ascii	"__SFRACT_MAX__ 0X7FP-7HR\000"
 14586      52414354 
 14586      5F4D4158 
 14586      5F5F2030 
 14586      58374650 
 14587              	.LASF1309:
 14588 f63a 4E6F726D 		.ascii	"NormCourse(x) { while (x < 0) x += 360; while (x >="
 14588      436F7572 
 14588      73652878 
 14588      29207B20 
 14588      7768696C 
ARM GAS  /tmp/cceVa9lb.s 			page 386


 14589 f66d 20333630 		.ascii	" 360) x -= 360; }\000"
 14589      29207820 
 14589      2D3D2033 
 14589      36303B20 
 14589      7D00
 14590              	.LASF22:
 14591 f67f 5F5F5349 		.ascii	"__SIZEOF_LONG_DOUBLE__ 8\000"
 14591      5A454F46 
 14591      5F4C4F4E 
 14591      475F444F 
 14591      55424C45 
 14592              	.LASF1299:
 14593 f698 5F535452 		.ascii	"_STRINGIFY(s) #s\000"
 14593      494E4749 
 14593      46592873 
 14593      29202373 
 14593      00
 14594              	.LASF876:
 14595 f6a9 5F5F6E6F 		.ascii	"__nonnull_all __attribute__((__nonnull__))\000"
 14595      6E6E756C 
 14595      6C5F616C 
 14595      6C205F5F 
 14595      61747472 
 14596              	.LASF220:
 14597 f6d4 5F5F464C 		.ascii	"__FLT64_HAS_DENORM__ 1\000"
 14597      5436345F 
 14597      4841535F 
 14597      44454E4F 
 14597      524D5F5F 
 14598              	.LASF172:
 14599 f6eb 5F5F4442 		.ascii	"__DBL_DENORM_MIN__ ((double)4.9406564584124654e-324"
 14599      4C5F4445 
 14599      4E4F524D 
 14599      5F4D494E 
 14599      5F5F2028 
 14600 f71e 4C2900   		.ascii	"L)\000"
 14601              	.LASF157:
 14602 f721 5F5F464C 		.ascii	"__FLT_HAS_DENORM__ 1\000"
 14602      545F4841 
 14602      535F4445 
 14602      4E4F524D 
 14602      5F5F2031 
 14603              	.LASF824:
 14604 f736 5F5F474E 		.ascii	"__GNUCLIKE_MATH_BUILTIN_CONSTANTS \000"
 14604      55434C49 
 14604      4B455F4D 
 14604      4154485F 
 14604      4255494C 
 14605              	.LASF995:
 14606 f759 55494E54 		.ascii	"UINT_LEAST8_MAX\000"
 14606      5F4C4541 
 14606      5354385F 
 14606      4D415800 
 14607              	.LASF407:
 14608 f769 5F5F5448 		.ascii	"__THUMBEL__ 1\000"
 14608      554D4245 
 14608      4C5F5F20 
ARM GAS  /tmp/cceVa9lb.s 			page 387


 14608      3100
 14609              	.LASF544:
 14610 f777 464C545F 		.ascii	"FLT_DIG __FLT_DIG__\000"
 14610      44494720 
 14610      5F5F464C 
 14610      545F4449 
 14610      475F5F00 
 14611              	.LASF1131:
 14612 f78b 5052496F 		.ascii	"PRIoLEAST16 __PRI16LEAST(o)\000"
 14612      4C454153 
 14612      54313620 
 14612      5F5F5052 
 14612      4931364C 
 14613              	.LASF866:
 14614 f7a7 5F41746F 		.ascii	"_Atomic(T) struct { T volatile __val; }\000"
 14614      6D696328 
 14614      54292073 
 14614      74727563 
 14614      74207B20 
 14615              	.LASF296:
 14616 f7cf 5F5F5541 		.ascii	"__UACCUM_MAX__ 0XFFFFFFFFP-16UK\000"
 14616      4343554D 
 14616      5F4D4158 
 14616      5F5F2030 
 14616      58464646 
 14617              	.LASF1018:
 14618 f7ef 494E545F 		.ascii	"INT_FAST8_MIN (-INT_FAST8_MAX - 1)\000"
 14618      46415354 
 14618      385F4D49 
 14618      4E20282D 
 14618      494E545F 
 14619              	.LASF327:
 14620 f812 5F5F5451 		.ascii	"__TQ_IBIT__ 0\000"
 14620      5F494249 
 14620      545F5F20 
 14620      3000
 14621              	.LASF1366:
 14622 f820 56454354 		.ascii	"VECT3_STRIM(_v,_min,_max) { (_v).x = (_v).x < _min "
 14622      335F5354 
 14622      52494D28 
 14622      5F762C5F 
 14622      6D696E2C 
 14623 f853 3F205F6D 		.ascii	"? _min : (_v).x > _max ? _max : (_v).x; (_v).y = (_"
 14623      696E203A 
 14623      20285F76 
 14623      292E7820 
 14623      3E205F6D 
 14624 f886 76292E79 		.ascii	"v).y < _min ? _min : (_v).y > _max ? _max : (_v).y;"
 14624      203C205F 
 14624      6D696E20 
 14624      3F205F6D 
 14624      696E203A 
 14625 f8b9 20285F76 		.ascii	" (_v).z = (_v).z < _min ? _min : (_v).z > _max ? _m"
 14625      292E7A20 
 14625      3D20285F 
 14625      76292E7A 
 14625      203C205F 
ARM GAS  /tmp/cceVa9lb.s 			page 388


 14626 f8ec 6178203A 		.ascii	"ax : (_v).z; }\000"
 14626      20285F76 
 14626      292E7A3B 
 14626      207D00
 14627              	.LASF232:
 14628 f8fb 5F5F464C 		.ascii	"__FLT32X_MIN__ 2.2250738585072014e-308F32x\000"
 14628      54333258 
 14628      5F4D494E 
 14628      5F5F2032 
 14628      2E323235 
 14629              	.LASF1279:
 14630 f926 4D5F4956 		.ascii	"M_IVLN10 0.43429448190325182765\000"
 14630      4C4E3130 
 14630      20302E34 
 14630      33343239 
 14630      34343831 
 14631              	.LASF1331:
 14632 f946 436C6970 		.ascii	"Clip(_x,_min,_max) ( (_x) < (_min) ? (_min) : (_x) "
 14632      285F782C 
 14632      5F6D696E 
 14632      2C5F6D61 
 14632      78292028 
 14633 f979 3E20285F 		.ascii	"> (_max) ? (_max) : (_x) )\000"
 14633      6D617829 
 14633      203F2028 
 14633      5F6D6178 
 14633      29203A20 
 14634              	.LASF1295:
 14635 f994 494E464F 		.ascii	"INFO_VAR(var) DO_PRAGMA(message (\"INFO: \" #var \""
 14635      5F564152 
 14635      28766172 
 14635      2920444F 
 14635      5F505241 
 14636 f9c4 203D2022 		.ascii	" = \" VALUE(var)))\000"
 14636      2056414C 
 14636      55452876 
 14636      61722929 
 14636      2900
 14637              	.LASF671:
 14638 f9d6 5F5F5349 		.ascii	"__SIZE_T__ \000"
 14638      5A455F54 
 14638      5F5F2000 
 14639              	.LASF1341:
 14640 f9e2 5745414B 		.ascii	"WEAK __attribute__((weak))\000"
 14640      205F5F61 
 14640      74747269 
 14640      62757465 
 14640      5F5F2828 
 14641              	.LASF32:
 14642 f9fd 5F5F5349 		.ascii	"__SIZE_TYPE__ unsigned int\000"
 14642      5A455F54 
 14642      5950455F 
 14642      5F20756E 
 14642      7369676E 
 14643              	.LASF1253:
 14644 fa18 69736C65 		.ascii	"islessequal(__x,__y) (__builtin_islessequal (__x, _"
 14644      73736571 
ARM GAS  /tmp/cceVa9lb.s 			page 389


 14644      75616C28 
 14644      5F5F782C 
 14644      5F5F7929 
 14645 fa4b 5F792929 		.ascii	"_y))\000"
 14645      00
 14646              	.LASF1296:
 14647 fa50 5052494E 		.ascii	"PRINT_CONFIG_MSG(x) \000"
 14647      545F434F 
 14647      4E464947 
 14647      5F4D5347 
 14647      28782920 
 14648              	.LASF865:
 14649 fa65 5F416C69 		.ascii	"_Alignof(x) __alignof(x)\000"
 14649      676E6F66 
 14649      28782920 
 14649      5F5F616C 
 14649      69676E6F 
 14650              	.LASF887:
 14651 fa7e 5F5F6F66 		.ascii	"__offsetof(type,field) offsetof(type, field)\000"
 14651      66736574 
 14651      6F662874 
 14651      7970652C 
 14651      6669656C 
 14652              	.LASF682:
 14653 faab 5F53495A 		.ascii	"_SIZE_T_DECLARED \000"
 14653      455F545F 
 14653      4445434C 
 14653      41524544 
 14653      2000
 14654              	.LASF755:
 14655 fabd 5F52414E 		.ascii	"_RAND48_SEED_1 (0xabcd)\000"
 14655      4434385F 
 14655      53454544 
 14655      5F312028 
 14655      30786162 
 14656              	.LASF635:
 14657 fad5 5F5F4C41 		.ascii	"__LARGEFILE_VISIBLE 0\000"
 14657      52474546 
 14657      494C455F 
 14657      56495349 
 14657      424C4520 
 14658              	.LASF1045:
 14659 faeb 494E544D 		.ascii	"INTMAX_MAX\000"
 14659      41585F4D 
 14659      415800
 14660              	.LASF1079:
 14661 faf6 55494E54 		.ascii	"UINT16_C\000"
 14661      31365F43 
 14661      00
 14662              	.LASF848:
 14663 faff 5F5F5354 		.ascii	"__STRING(x) #x\000"
 14663      52494E47 
 14663      28782920 
 14663      237800
 14664              	.LASF1465:
 14665 fb0e 464C4F41 		.ascii	"FLOAT_RMAT_TRANSP_RATEMULT(_rb,_m_b2a,_ra) WARNING("
 14665      545F524D 
ARM GAS  /tmp/cceVa9lb.s 			page 390


 14665      41545F54 
 14665      52414E53 
 14665      505F5241 
 14666 fb41 22464C4F 		.ascii	"\"FLOAT_RMAT_TRANSP_RATEMULT macro is deprecated, u"
 14666      41545F52 
 14666      4D41545F 
 14666      5452414E 
 14666      53505F52 
 14667 fb73 73652074 		.ascii	"se the lower case function instead\") float_rmat_ra"
 14667      6865206C 
 14667      6F776572 
 14667      20636173 
 14667      65206675 
 14668 fba5 74656D75 		.ascii	"temult(&(_rb), &(_m_b2a), &(_ra))\000"
 14668      6C742826 
 14668      285F7262 
 14668      292C2026 
 14668      285F6D5F 
 14669              	.LASF1374:
 14670 fbc7 56454354 		.ascii	"VECT3_NORM2(_v) ((_v).x*(_v).x + (_v).y*(_v).y + (_"
 14670      335F4E4F 
 14670      524D3228 
 14670      5F762920 
 14670      28285F76 
 14671 fbfa 76292E7A 		.ascii	"v).z*(_v).z)\000"
 14671      2A285F76 
 14671      292E7A29 
 14671      00
 14672              	.LASF1372:
 14673 fc07 56454354 		.ascii	"VECT3_CROSS_PRODUCT(_vo,_v1,_v2) { (_vo).x = (_v1)."
 14673      335F4352 
 14673      4F53535F 
 14673      50524F44 
 14673      55435428 
 14674 fc3a 792A285F 		.ascii	"y*(_v2).z - (_v1).z*(_v2).y; (_vo).y = (_v1).z*(_v2"
 14674      7632292E 
 14674      7A202D20 
 14674      285F7631 
 14674      292E7A2A 
 14675 fc6d 292E7820 		.ascii	").x - (_v1).x*(_v2).z; (_vo).z = (_v1).x*(_v2).y - "
 14675      2D20285F 
 14675      7631292E 
 14675      782A285F 
 14675      7632292E 
 14676 fca0 285F7631 		.ascii	"(_v1).y*(_v2).x; }\000"
 14676      292E792A 
 14676      285F7632 
 14676      292E783B 
 14676      207D00
 14677              	.LASF976:
 14678 fcb3 494E5431 		.ascii	"INT16_MIN (-INT16_MAX - 1)\000"
 14678      365F4D49 
 14678      4E20282D 
 14678      494E5431 
 14678      365F4D41 
 14679              	.LASF486:
 14680 fcce 5050525A 		.ascii	"PPRZ_VER \000"
ARM GAS  /tmp/cceVa9lb.s 			page 391


 14680      5F564552 
 14680      2000
 14681              	.LASF1127:
 14682 fcd8 53434E75 		.ascii	"SCNu16 __SCN16(u)\000"
 14682      3136205F 
 14682      5F53434E 
 14682      31362875 
 14682      2900
 14683              	.LASF789:
 14684 fcea 5F524545 		.ascii	"_REENT_MBTOWC_STATE(ptr) ((ptr)->_new._reent._mbtow"
 14684      4E545F4D 
 14684      42544F57 
 14684      435F5354 
 14684      41544528 
 14685 fd1d 635F7374 		.ascii	"c_state)\000"
 14685      61746529 
 14685      00
 14686              	.LASF442:
 14687 fd26 5553455F 		.ascii	"USE_CHIBIOS_RTOS 1\000"
 14687      43484942 
 14687      494F535F 
 14687      52544F53 
 14687      203100
 14688              	.LASF1520:
 14689 fd39 756E7369 		.ascii	"unsigned int\000"
 14689      676E6564 
 14689      20696E74 
 14689      00
 14690              	.LASF579:
 14691 fd46 4C44424C 		.ascii	"LDBL_EPSILON\000"
 14691      5F455053 
 14691      494C4F4E 
 14691      00
 14692              	.LASF871:
 14693 fd53 5F5F6D61 		.ascii	"__malloc_like __attribute__((__malloc__))\000"
 14693      6C6C6F63 
 14693      5F6C696B 
 14693      65205F5F 
 14693      61747472 
 14694              	.LASF502:
 14695 fd7d 5553455F 		.ascii	"USE_AHRS 1\000"
 14695      41485253 
 14695      203100
 14696              	.LASF1324:
 14697 fd88 4D6F7265 		.ascii	"MoreThan(_x,_y) ((_x) > (_y))\000"
 14697      5468616E 
 14697      285F782C 
 14697      5F792920 
 14697      28285F78 
 14698              	.LASF808:
 14699 fda6 5F5F5448 		.ascii	"__THROW \000"
 14699      524F5720 
 14699      00
 14700              	.LASF1338:
 14701 fdaf 50657269 		.ascii	"PeriodicPrescaleBy5(_code_0,_code_1,_code_2,_code_3"
 14701      6F646963 
 14701      50726573 
ARM GAS  /tmp/cceVa9lb.s 			page 392


 14701      63616C65 
 14701      42793528 
 14702 fde2 2C5F636F 		.ascii	",_code_4) { static uint8_t _50hz = 0; _50hz++; if ("
 14702      64655F34 
 14702      29207B20 
 14702      73746174 
 14702      69632075 
 14703 fe15 5F353068 		.ascii	"_50hz >= 5) _50hz = 0; switch (_50hz) { case 0: _co"
 14703      7A203E3D 
 14703      20352920 
 14703      5F353068 
 14703      7A203D20 
 14704 fe48 64655F30 		.ascii	"de_0; break; case 1: _code_1; break; case 2: _code_"
 14704      3B206272 
 14704      65616B3B 
 14704      20636173 
 14704      6520313A 
 14705 fe7b 323B2062 		.ascii	"2; break; case 3: _code_3; break; case 4: _code_4; "
 14705      7265616B 
 14705      3B206361 
 14705      73652033 
 14705      3A205F63 
 14706 feae 62726561 		.ascii	"break; } }\000"
 14706      6B3B207D 
 14706      207D00
 14707              	.LASF389:
 14708 feb9 5F5F4152 		.ascii	"__ARM_FEATURE_MVE\000"
 14708      4D5F4645 
 14708      41545552 
 14708      455F4D56 
 14708      4500
 14709              	.LASF1107:
 14710 fecb 50524969 		.ascii	"PRIiFAST8 __PRI8FAST(i)\000"
 14710      46415354 
 14710      38205F5F 
 14710      50524938 
 14710      46415354 
 14711              	.LASF1196:
 14712 fee3 5F5F5052 		.ascii	"__PRIMAX(x) __STRINGIFY(ll ##x)\000"
 14712      494D4158 
 14712      28782920 
 14712      5F5F5354 
 14712      52494E47 
 14713              	.LASF1022:
 14714 ff03 494E545F 		.ascii	"INT_FAST16_MAX __INT_FAST16_MAX__\000"
 14714      46415354 
 14714      31365F4D 
 14714      4158205F 
 14714      5F494E54 
 14715              	.LASF1385:
 14716 ff25 52415445 		.ascii	"RATES_COPY(_a,_b) { (_a).p = (_b).p; (_a).q = (_b)."
 14716      535F434F 
 14716      5059285F 
 14716      612C5F62 
 14716      29207B20 
 14717 ff58 713B2028 		.ascii	"q; (_a).r = (_b).r; }\000"
 14717      5F61292E 
ARM GAS  /tmp/cceVa9lb.s 			page 393


 14717      72203D20 
 14717      285F6229 
 14717      2E723B20 
 14718              	.LASF956:
 14719 ff6e 5F5F494E 		.ascii	"__INT32 \"l\"\000"
 14719      54333220 
 14719      226C2200 
 14720              	.LASF347:
 14721 ff7a 5F5F5548 		.ascii	"__UHA_IBIT__ 8\000"
 14721      415F4942 
 14721      49545F5F 
 14721      203800
 14722              	.LASF526:
 14723 ff89 454E555F 		.ascii	"ENU_OF_UTM_DIFF(_pos,_utm1,_utm2) { (_pos).x = (_ut"
 14723      4F465F55 
 14723      544D5F44 
 14723      49464628 
 14723      5F706F73 
 14724 ffbc 6D31292E 		.ascii	"m1).east - (_utm2).east; (_pos).y = (_utm1).north -"
 14724      65617374 
 14724      202D2028 
 14724      5F75746D 
 14724      32292E65 
 14725 ffef 20285F75 		.ascii	" (_utm2).north; (_pos).z = (_utm1).alt - (_utm2).al"
 14725      746D3229 
 14725      2E6E6F72 
 14725      74683B20 
 14725      285F706F 
 14726 10022 743B207D 		.ascii	"t; }\000"
 14726      00
 14727              	.LASF434:
 14728 10027 5F5F4152 		.ascii	"__ARM_FEATURE_CDE_COPROC\000"
 14728      4D5F4645 
 14728      41545552 
 14728      455F4344 
 14728      455F434F 
 14729              	.LASF271:
 14730 10040 5F5F4C4C 		.ascii	"__LLFRACT_MAX__ 0X7FFFFFFFFFFFFFFFP-63LLR\000"
 14730      46524143 
 14730      545F4D41 
 14730      585F5F20 
 14730      30583746 
 14731              	.LASF540:
 14732 1006a 4C44424C 		.ascii	"LDBL_MANT_DIG __LDBL_MANT_DIG__\000"
 14732      5F4D414E 
 14732      545F4449 
 14732      47205F5F 
 14732      4C44424C 
 14733              	.LASF920:
 14734 1008a 5F5F7472 		.ascii	"__trylocks_exclusive(...) __lock_annotate(exclusive"
 14734      796C6F63 
 14734      6B735F65 
 14734      78636C75 
 14734      73697665 
 14735 100bd 5F747279 		.ascii	"_trylock_function(__VA_ARGS__))\000"
 14735      6C6F636B 
 14735      5F66756E 
ARM GAS  /tmp/cceVa9lb.s 			page 394


 14735      6374696F 
 14735      6E285F5F 
 14736              	.LASF1523:
 14737 100dd 73686F72 		.ascii	"short int\000"
 14737      7420696E 
 14737      7400
 14738              	.LASF714:
 14739 100e7 5F4D4143 		.ascii	"_MACHINE__TYPES_H \000"
 14739      48494E45 
 14739      5F5F5459 
 14739      5045535F 
 14739      482000
 14740              	.LASF1501:
 14741 100fa 444F5542 		.ascii	"DOUBLE_VECT3_RINT(_vout,_vin) { (_vout).x = rint((_"
 14741      4C455F56 
 14741      45435433 
 14741      5F52494E 
 14741      54285F76 
 14742 1012d 76696E29 		.ascii	"vin).x); (_vout).y = rint((_vin).y); (_vout).z = ri"
 14742      2E78293B 
 14742      20285F76 
 14742      6F757429 
 14742      2E79203D 
 14743 10160 6E742828 		.ascii	"nt((_vin).z); }\000"
 14743      5F76696E 
 14743      292E7A29 
 14743      3B207D00 
 14744              	.LASF6:
 14745 10170 5F5F474E 		.ascii	"__GNUC_MINOR__ 3\000"
 14745      55435F4D 
 14745      494E4F52 
 14745      5F5F2033 
 14745      00
 14746              	.LASF1144:
 14747 10181 50524978 		.ascii	"PRIxFAST16 __PRI16FAST(x)\000"
 14747      46415354 
 14747      3136205F 
 14747      5F505249 
 14747      31364641 
 14748              	.LASF1538:
 14749 1019b 456E7543 		.ascii	"EnuCoor_d\000"
 14749      6F6F725F 
 14749      6400
 14750              	.LASF1046:
 14751 101a5 494E544D 		.ascii	"INTMAX_MAX __INTMAX_MAX__\000"
 14751      41585F4D 
 14751      4158205F 
 14751      5F494E54 
 14751      4D41585F 
 14752              	.LASF1583:
 14753 101bf 6C74705F 		.ascii	"ltp_def_from_lla_d\000"
 14753      6465665F 
 14753      66726F6D 
 14753      5F6C6C61 
 14753      5F6400
 14754              	.LASF1421:
 14755 101d2 524D4154 		.ascii	"RMAT_DIFF(_c,_a,_b) { (_c).m[0] = (_a).m[0] - (_b)."
ARM GAS  /tmp/cceVa9lb.s 			page 395


 14755      5F444946 
 14755      46285F63 
 14755      2C5F612C 
 14755      5F622920 
 14756 10205 6D5B305D 		.ascii	"m[0]; (_c).m[1] = (_a).m[1] - (_b).m[1]; (_c).m[2] "
 14756      3B20285F 
 14756      63292E6D 
 14756      5B315D20 
 14756      3D20285F 
 14757 10238 3D20285F 		.ascii	"= (_a).m[2] - (_b).m[2]; (_c).m[3] = (_a).m[3] - (_"
 14757      61292E6D 
 14757      5B325D20 
 14757      2D20285F 
 14757      62292E6D 
 14758 1026b 62292E6D 		.ascii	"b).m[3]; (_c).m[4] = (_a).m[4] - (_b).m[4]; (_c).m["
 14758      5B335D3B 
 14758      20285F63 
 14758      292E6D5B 
 14758      345D203D 
 14759 1029e 355D203D 		.ascii	"5] = (_a).m[5] - (_b).m[5]; (_c).m[6] = (_a).m[6] -"
 14759      20285F61 
 14759      292E6D5B 
 14759      355D202D 
 14759      20285F62 
 14760 102d1 20285F62 		.ascii	" (_b).m[6]; (_c).m[7] = (_a).m[7] - (_b).m[7]; (_c)"
 14760      292E6D5B 
 14760      365D3B20 
 14760      285F6329 
 14760      2E6D5B37 
 14761 10304 2E6D5B38 		.ascii	".m[8] = (_a).m[8] - (_b).m[8]; }\000"
 14761      5D203D20 
 14761      285F6129 
 14761      2E6D5B38 
 14761      5D202D20 
 14762              	.LASF1163:
 14763 10325 53434E64 		.ascii	"SCNd32 __SCN32(d)\000"
 14763      3332205F 
 14763      5F53434E 
 14763      33322864 
 14763      2900
 14764              	.LASF54:
 14765 10337 5F5F5549 		.ascii	"__UINT_LEAST16_TYPE__ short unsigned int\000"
 14765      4E545F4C 
 14765      45415354 
 14765      31365F54 
 14765      5950455F 
 14766              	.LASF524:
 14767 10360 4C54505F 		.ascii	"LTP_DEF_COPY(_def1,_def2) { LLA_COPY((_def1).lla, ("
 14767      4445465F 
 14767      434F5059 
 14767      285F6465 
 14767      66312C5F 
 14768 10393 5F646566 		.ascii	"_def2).lla); VECT3_COPY((_def1).ecef, (_def2).ecef)"
 14768      32292E6C 
 14768      6C61293B 
 14768      20564543 
 14768      54335F43 
ARM GAS  /tmp/cceVa9lb.s 			page 396


 14769 103c6 3B20524D 		.ascii	"; RMAT_COPY((_def1).ltp_of_ecef, (_def2).ltp_of_ece"
 14769      41545F43 
 14769      4F505928 
 14769      285F6465 
 14769      6631292E 
 14770 103f9 66293B20 		.ascii	"f); (_def1).hmsl = (_def2).hmsl; }\000"
 14770      285F6465 
 14770      6631292E 
 14770      686D736C 
 14770      203D2028 
 14771              	.LASF611:
 14772 1041c 5F4C4442 		.ascii	"_LDBL_EQ_DBL 1\000"
 14772      4C5F4551 
 14772      5F44424C 
 14772      203100
 14773              	.LASF1289:
 14774 1042b 56414C55 		.ascii	"VALUE(x) VALUE_TO_STRING(x)\000"
 14774      45287829 
 14774      2056414C 
 14774      55455F54 
 14774      4F5F5354 
 14775              	.LASF532:
 14776 10447 5F464C4F 		.ascii	"_FLOAT_H___ \000"
 14776      41545F48 
 14776      5F5F5F20 
 14776      00
 14777              	.LASF156:
 14778 10454 5F5F464C 		.ascii	"__FLT_DENORM_MIN__ 1.4012984643248171e-45F\000"
 14778      545F4445 
 14778      4E4F524D 
 14778      5F4D494E 
 14778      5F5F2031 
 14779              	.LASF1147:
 14780 1047f 53434E69 		.ascii	"SCNiFAST16 __SCN16FAST(i)\000"
 14780      46415354 
 14780      3136205F 
 14780      5F53434E 
 14780      31364641 
 14781              	.LASF1028:
 14782 10499 494E545F 		.ascii	"INT_FAST32_MAX __INT_FAST32_MAX__\000"
 14782      46415354 
 14782      33325F4D 
 14782      4158205F 
 14782      5F494E54 
 14783              	.LASF1050:
 14784 104bb 55494E54 		.ascii	"UINTMAX_MAX __UINTMAX_MAX__\000"
 14784      4D41585F 
 14784      4D415820 
 14784      5F5F5549 
 14784      4E544D41 
 14785              	.LASF1315:
 14786 104d7 5261644F 		.ascii	"RadOfDeg(x) ((x) * (M_PI/180.))\000"
 14786      66446567 
 14786      28782920 
 14786      28287829 
 14786      202A2028 
 14787              	.LASF116:
ARM GAS  /tmp/cceVa9lb.s 			page 397


 14788 104f7 5F5F5549 		.ascii	"__UINT_LEAST8_MAX__ 0xff\000"
 14788      4E545F4C 
 14788      45415354 
 14788      385F4D41 
 14788      585F5F20 
 14789              	.LASF409:
 14790 10510 5F5F4152 		.ascii	"__ARM_ARCH_ISA_THUMB 2\000"
 14790      4D5F4152 
 14790      43485F49 
 14790      53415F54 
 14790      48554D42 
 14791              	.LASF1260:
 14792 10527 4D5F4520 		.ascii	"M_E 2.7182818284590452354\000"
 14792      322E3731 
 14792      38323831 
 14792      38323834 
 14792      35393034 
 14793              	.LASF102:
 14794 10541 5F5F5549 		.ascii	"__UINT32_MAX__ 0xffffffffUL\000"
 14794      4E543332 
 14794      5F4D4158 
 14794      5F5F2030 
 14794      78666666 
 14795              	.LASF1462:
 14796 1055d 464C4F41 		.ascii	"FLOAT_RMAT_VMULT(_vb,_m_a2b,_va) WARNING(\"FLOAT_RM"
 14796      545F524D 
 14796      41545F56 
 14796      4D554C54 
 14796      285F7662 
 14797 1058f 41545F56 		.ascii	"AT_VMULT macro is deprecated, use the lower case fu"
 14797      4D554C54 
 14797      206D6163 
 14797      726F2069 
 14797      73206465 
 14798 105c2 6E637469 		.ascii	"nction instead\") float_rmat_vmult(&(_vb), &(_m_a2b"
 14798      6F6E2069 
 14798      6E737465 
 14798      61642229 
 14798      20666C6F 
 14799 105f4 292C2026 		.ascii	"), &(_va))\000"
 14799      285F7661 
 14799      292900
 14800              	.LASF1210:
 14801 105ff 5F5F5343 		.ascii	"__SCNPTR(x) __STRINGIFY(x)\000"
 14801      4E505452 
 14801      28782920 
 14801      5F5F5354 
 14801      52494E47 
 14802              	.LASF1406:
 14803 1061a 4D415433 		.ascii	"MAT33_MAT33_DIFF(_mat1,_mat2,_mat3) { MAT33_ELMT((_"
 14803      335F4D41 
 14803      5433335F 
 14803      44494646 
 14803      285F6D61 
 14804 1064d 6D617431 		.ascii	"mat1),0,0) = MAT33_ELMT((_mat2),0,0)-MAT33_ELMT((_m"
 14804      292C302C 
 14804      3029203D 
ARM GAS  /tmp/cceVa9lb.s 			page 398


 14804      204D4154 
 14804      33335F45 
 14805 10680 61743329 		.ascii	"at3),0,0); MAT33_ELMT((_mat1),0,1) = MAT33_ELMT((_m"
 14805      2C302C30 
 14805      293B204D 
 14805      41543333 
 14805      5F454C4D 
 14806 106b3 61743229 		.ascii	"at2),0,1)-MAT33_ELMT((_mat3),0,1); MAT33_ELMT((_mat"
 14806      2C302C31 
 14806      292D4D41 
 14806      5433335F 
 14806      454C4D54 
 14807 106e6 31292C30 		.ascii	"1),0,2) = MAT33_ELMT((_mat2),0,2)-MAT33_ELMT((_mat3"
 14807      2C322920 
 14807      3D204D41 
 14807      5433335F 
 14807      454C4D54 
 14808 10719 292C302C 		.ascii	"),0,2); MAT33_ELMT((_mat1),1,0) = MAT33_ELMT((_mat2"
 14808      32293B20 
 14808      4D415433 
 14808      335F454C 
 14808      4D542828 
 14809 1074c 292C312C 		.ascii	"),1,0)-MAT33_ELMT((_mat3),1,0); MAT33_ELMT((_mat1),"
 14809      30292D4D 
 14809      41543333 
 14809      5F454C4D 
 14809      5428285F 
 14810 1077f 312C3129 		.ascii	"1,1) = MAT33_ELMT((_mat2),1,1)-MAT33_ELMT((_mat3),1"
 14810      203D204D 
 14810      41543333 
 14810      5F454C4D 
 14810      5428285F 
 14811 107b2 2C31293B 		.ascii	",1); MAT33_ELMT((_mat1),1,2) = MAT33_ELMT((_mat2),1"
 14811      204D4154 
 14811      33335F45 
 14811      4C4D5428 
 14811      285F6D61 
 14812 107e5 2C32292D 		.ascii	",2)-MAT33_ELMT((_mat3),1,2); MAT33_ELMT((_mat1),2,0"
 14812      4D415433 
 14812      335F454C 
 14812      4D542828 
 14812      5F6D6174 
 14813 10818 29203D20 		.ascii	") = MAT33_ELMT((_mat2),2,0)-MAT33_ELMT((_mat3),2,0)"
 14813      4D415433 
 14813      335F454C 
 14813      4D542828 
 14813      5F6D6174 
 14814 1084b 3B204D41 		.ascii	"; MAT33_ELMT((_mat1),2,1) = MAT33_ELMT((_mat2),2,1)"
 14814      5433335F 
 14814      454C4D54 
 14814      28285F6D 
 14814      61743129 
 14815 1087e 2D4D4154 		.ascii	"-MAT33_ELMT((_mat3),2,1); MAT33_ELMT((_mat1),2,2) ="
 14815      33335F45 
 14815      4C4D5428 
 14815      285F6D61 
 14815      7433292C 
ARM GAS  /tmp/cceVa9lb.s 			page 399


 14816 108b1 204D4154 		.ascii	" MAT33_ELMT((_mat2),2,2)-MAT33_ELMT((_mat3),2,2); }"
 14816      33335F45 
 14816      4C4D5428 
 14816      285F6D61 
 14816      7432292C 
 14817 108e4 00       		.ascii	"\000"
 14818              	.LASF739:
 14819 108e5 5F5F4C4F 		.ascii	"__LOCK_INIT_RECURSIVE(class,lock) static int lock ="
 14819      434B5F49 
 14819      4E49545F 
 14819      52454355 
 14819      52534956 
 14820 10918 20303B00 		.ascii	" 0;\000"
 14821              	.LASF1585:
 14822 1091c 6D617468 		.ascii	"math/pprz_geodetic_double.c\000"
 14822      2F707072 
 14822      7A5F6765 
 14822      6F646574 
 14822      69635F64 
 14823              	.LASF1559:
 14824 10938 6D61785F 		.ascii	"max_iter\000"
 14824      69746572 
 14824      00
 14825              	.LASF7:
 14826 10941 5F5F474E 		.ascii	"__GNUC_PATCHLEVEL__ 1\000"
 14826      55435F50 
 14826      41544348 
 14826      4C455645 
 14826      4C5F5F20 
 14827              		.ident	"GCC: (15:10.3-2021.07-4) 10.3.1 20210621 (release)"
ARM GAS  /tmp/cceVa9lb.s 			page 400


DEFINED SYMBOLS
                            *ABS*:0000000000000000 pprz_geodetic_double.c
     /tmp/cceVa9lb.s:18     .text.ltp_def_from_ecef_d:0000000000000000 $t
     /tmp/cceVa9lb.s:27     .text.ltp_def_from_ecef_d:0000000000000000 ltp_def_from_ecef_d
     /tmp/cceVa9lb.s:339    .text.lla_of_ecef_d:0000000000000000 lla_of_ecef_d
     /tmp/cceVa9lb.s:174    .text.ltp_def_from_lla_d:0000000000000000 $t
     /tmp/cceVa9lb.s:182    .text.ltp_def_from_lla_d:0000000000000000 ltp_def_from_lla_d
     /tmp/cceVa9lb.s:1096   .text.ecef_of_lla_d:0000000000000000 ecef_of_lla_d
     /tmp/cceVa9lb.s:331    .text.lla_of_ecef_d:0000000000000000 $t
     /tmp/cceVa9lb.s:673    .text.lla_of_ecef_d:00000000000002f0 $d
     /tmp/cceVa9lb.s:3613   .rodata.f.3:0000000000000000 f.3
     /tmp/cceVa9lb.s:3620   .rodata.a.2:0000000000000000 a.2
     /tmp/cceVa9lb.s:680    .text.lla_of_ecef_d:0000000000000308 $t
     /tmp/cceVa9lb.s:1027   .text.lla_of_ecef_d:0000000000000638 $d
     /tmp/cceVa9lb.s:1031   .text.lla_of_ecef_d:0000000000000644 $t
     /tmp/cceVa9lb.s:1088   .text.ecef_of_lla_d:0000000000000000 $t
     /tmp/cceVa9lb.s:1288   .text.ecef_of_lla_d:000000000000019c $d
     /tmp/cceVa9lb.s:3627   .rodata.f.1:0000000000000000 f.1
     /tmp/cceVa9lb.s:3634   .rodata.a.0:0000000000000000 a.0
     /tmp/cceVa9lb.s:1295   .text.enu_of_ecef_point_d:0000000000000000 $t
     /tmp/cceVa9lb.s:1303   .text.enu_of_ecef_point_d:0000000000000000 enu_of_ecef_point_d
     /tmp/cceVa9lb.s:1457   .text.ned_of_ecef_point_d:0000000000000000 $t
     /tmp/cceVa9lb.s:1465   .text.ned_of_ecef_point_d:0000000000000000 ned_of_ecef_point_d
     /tmp/cceVa9lb.s:1509   .text.enu_of_ecef_vect_d:0000000000000000 $t
     /tmp/cceVa9lb.s:1517   .text.enu_of_ecef_vect_d:0000000000000000 enu_of_ecef_vect_d
     /tmp/cceVa9lb.s:1655   .text.ned_of_ecef_vect_d:0000000000000000 $t
     /tmp/cceVa9lb.s:1663   .text.ned_of_ecef_vect_d:0000000000000000 ned_of_ecef_vect_d
     /tmp/cceVa9lb.s:1707   .text.ecef_of_enu_point_d:0000000000000000 $t
     /tmp/cceVa9lb.s:1715   .text.ecef_of_enu_point_d:0000000000000000 ecef_of_enu_point_d
     /tmp/cceVa9lb.s:1881   .text.ecef_of_ned_point_d:0000000000000000 $t
     /tmp/cceVa9lb.s:1889   .text.ecef_of_ned_point_d:0000000000000000 ecef_of_ned_point_d
     /tmp/cceVa9lb.s:1933   .text.ecef_of_enu_vect_d:0000000000000000 $t
     /tmp/cceVa9lb.s:1941   .text.ecef_of_enu_vect_d:0000000000000000 ecef_of_enu_vect_d
     /tmp/cceVa9lb.s:2079   .text.ecef_of_ned_vect_d:0000000000000000 $t
     /tmp/cceVa9lb.s:2087   .text.ecef_of_ned_vect_d:0000000000000000 ecef_of_ned_vect_d
     /tmp/cceVa9lb.s:2131   .text.enu_of_lla_point_d:0000000000000000 $t
     /tmp/cceVa9lb.s:2139   .text.enu_of_lla_point_d:0000000000000000 enu_of_lla_point_d
     /tmp/cceVa9lb.s:2174   .text.ned_of_lla_point_d:0000000000000000 $t
     /tmp/cceVa9lb.s:2182   .text.ned_of_lla_point_d:0000000000000000 ned_of_lla_point_d
     /tmp/cceVa9lb.s:2217   .text.gc_of_gd_lat_d:0000000000000000 $t
     /tmp/cceVa9lb.s:2225   .text.gc_of_gd_lat_d:0000000000000000 gc_of_gd_lat_d
     /tmp/cceVa9lb.s:2350   .text.gc_of_gd_lat_d:0000000000000100 $d
     /tmp/cceVa9lb.s:2359   .rodata.serie_coeff_proj_mercator:0000000000000000 $d
     /tmp/cceVa9lb.s:2362   .rodata.serie_coeff_proj_mercator:0000000000000000 serie_coeff_proj_mercator
     /tmp/cceVa9lb.s:2369   .rodata.serie_coeff_proj_mercator_inverse:0000000000000000 $d
     /tmp/cceVa9lb.s:2372   .rodata.serie_coeff_proj_mercator_inverse:0000000000000000 serie_coeff_proj_mercator_inverse
     /tmp/cceVa9lb.s:2379   .text.isometric_latitude_d:0000000000000000 $t
     /tmp/cceVa9lb.s:2386   .text.isometric_latitude_d:0000000000000000 isometric_latitude_d
     /tmp/cceVa9lb.s:2504   .text.isometric_latitude_d:00000000000000f0 $d
     /tmp/cceVa9lb.s:2511   .text.isometric_latitude_fast_d:0000000000000000 $t
     /tmp/cceVa9lb.s:2518   .text.isometric_latitude_fast_d:0000000000000000 isometric_latitude_fast_d
     /tmp/cceVa9lb.s:2565   .text.isometric_latitude_fast_d:0000000000000050 $d
     /tmp/cceVa9lb.s:2572   .text.inverse_isometric_latitude_d:0000000000000000 $t
     /tmp/cceVa9lb.s:2579   .text.inverse_isometric_latitude_d:0000000000000000 inverse_isometric_latitude_d
     /tmp/cceVa9lb.s:2732   .text.inverse_isometric_latitude_d:0000000000000140 $d
     /tmp/cceVa9lb.s:2742   .text.utm_of_lla_d:0000000000000000 $t
     /tmp/cceVa9lb.s:2750   .text.utm_of_lla_d:0000000000000000 utm_of_lla_d
ARM GAS  /tmp/cceVa9lb.s 			page 401


     /tmp/cceVa9lb.s:2932   .text.utm_of_lla_d:0000000000000188 $d
     /tmp/cceVa9lb.s:2945   .text.utm_of_lla_d:00000000000001b0 $t
     /tmp/cceVa9lb.s:3199   .text.utm_of_lla_d:0000000000000460 $d
     /tmp/cceVa9lb.s:3209   .text.lla_of_utm_d:0000000000000000 $t
     /tmp/cceVa9lb.s:3217   .text.lla_of_utm_d:0000000000000000 lla_of_utm_d
     /tmp/cceVa9lb.s:3288   .text.lla_of_utm_d:0000000000000080 $d
     /tmp/cceVa9lb.s:3296   .text.lla_of_utm_d:0000000000000094 $t
     /tmp/cceVa9lb.s:3598   .text.lla_of_utm_d:00000000000003a8 $d
     /tmp/cceVa9lb.s:3610   .rodata.f.3:0000000000000000 $d
     /tmp/cceVa9lb.s:3617   .rodata.a.2:0000000000000000 $d
     /tmp/cceVa9lb.s:3624   .rodata.f.1:0000000000000000 $d
     /tmp/cceVa9lb.s:3631   .rodata.a.0:0000000000000000 $d
                           .group:0000000000000000 wm4.0.2794bdaec8201ab6082bad9e2f5cd9ec
                           .group:0000000000000000 wm4.pprz_geodetic.h.35.f3fa96d246078502d67afc0af687adaf
                           .group:0000000000000000 wm4.float.h.29.cae0b78251c51e3ff449cb238a29ed5b
                           .group:0000000000000000 wm4._newlib_version.h.4.1ef4e12f167f8b69d7c30054be56050d
                           .group:0000000000000000 wm4.newlib.h.21.1ae2897bc09bbe4bc80ffb801fb02432
                           .group:0000000000000000 wm4.ieeefp.h.77.f33a4dce62116f6f5175ff8bae57a54c
                           .group:0000000000000000 wm4.features.h.22.026edb2397769f4ae13f35900dbdb560
                           .group:0000000000000000 wm4.config.h.224.c701144a7b0518c6ee9b9b5465b79f81
                           .group:0000000000000000 wm4._ansi.h.31.de524f58584151836e90d8620a16f8e8
                           .group:0000000000000000 wm4.stddef.h.39.27677723d43e5b5a7afdf8d798429f1d
                           .group:0000000000000000 wm4._types.h.20.dd0d04dca3800a0d2a6129b87f3adbb2
                           .group:0000000000000000 wm4.stddef.h.155.3588ebfdd1e8c7ede80509bb9c3b8009
                           .group:0000000000000000 wm4._default_types.h.6.959254cf5f09734ea7516c89e8bb21bd
                           .group:0000000000000000 wm4._types.h.127.34941de1b2539d59d5cac00e0dd27a45
                           .group:0000000000000000 wm4.reent.h.17.e292bf8b0bec6c96e131a54347145a30
                           .group:0000000000000000 wm4.lock.h.2.c0958401bd0ce484d507ee19aacab817
                           .group:0000000000000000 wm4.reent.h.77.dcd6129ff07fe81bd5636db29abe53b2
                           .group:0000000000000000 wm4.cdefs.h.49.3d0fe8ea14e93bda8c589d4f684b21b8
                           .group:0000000000000000 wm4.string.h.15.dab3980bf35408a4c507182805e2de3a
                           .group:0000000000000000 wm4.stddef.h.155.ba788add86a0e365f264484f110c3c29
                           .group:0000000000000000 wm4._intsup.h.10.48bafbb683905c4daa4565a85aeeb264
                           .group:0000000000000000 wm4.stdint.h.29.6d480f4ba0f60596e88234283d42444f
                           .group:0000000000000000 wm4.inttypes.h.28.c5f35ffa6c62f217ce23d4796ab1c6e6
                           .group:0000000000000000 wm4.stdbool.h.29.07dce69c3b78884144b7f7bd19483461
                           .group:0000000000000000 wm4.math.h.13.3407b0d71b4c439015d8928b0a2edca3
                           .group:0000000000000000 wm4.message_pragmas.h.2.19f9da639d3b857b5eedec0176791f43
                           .group:0000000000000000 wm4.std.h.41.98eaba0fe9afe518eab028a73a8ce0e2
                           .group:0000000000000000 wm4.pprz_algebra.h.48.e27d96e216b5b7bc59138cb613a0c51a
                           .group:0000000000000000 wm4.pprz_algebra_float.h.99.3ecbbede49507432559ec22e1139225e
                           .group:0000000000000000 wm4.pprz_algebra_double.h.91.f156fcde81a326cb905c59ecc1b4b11d
                           .group:0000000000000000 wm4.pprz_geodetic_utm.h.31.75931423081a7967d00585c8ad115843

UNDEFINED SYMBOLS
__aeabi_dmul
sin
cos
__aeabi_dsub
__aeabi_dadd
__aeabi_ddiv
sqrt
pow
atan
atan2
tan
log
ARM GAS  /tmp/cceVa9lb.s 			page 402


__aeabi_dcmplt
exp
__aeabi_d2uiz
__aeabi_i2d
__aeabi_f2d
floor
cosh
asin
sinh
