ARM GAS  /tmp/cc3mS0ZT.s 			page 1


   1              		.cpu cortex-m4
   2              		.eabi_attribute 27, 1
   3              		.eabi_attribute 20, 1
   4              		.eabi_attribute 21, 1
   5              		.eabi_attribute 23, 3
   6              		.eabi_attribute 24, 1
   7              		.eabi_attribute 25, 1
   8              		.eabi_attribute 26, 1
   9              		.eabi_attribute 30, 6
  10              		.eabi_attribute 34, 1
  11              		.eabi_attribute 18, 4
  12              		.file	"state.c"
  13              		.text
  14              	.Ltext0:
  15              		.cfi_sections	.debug_frame
  16              		.global	state
  17              		.section	.bss.state,"aw",%nobits
  18              		.align	2
  19              		.type	state, %object
  20              		.size	state, 636
  21              	state:
  22 0000 00000000 		.space	636
  22      00000000 
  22      00000000 
  22      00000000 
  22      00000000 
  23              		.section	.text.stateInit,"ax",%progbits
  24              		.align	1
  25              		.p2align 4,,15
  26              		.global	stateInit
  27              		.arch armv7e-m
  28              		.syntax unified
  29              		.thumb
  30              		.thumb_func
  31              		.fpu fpv4-sp-d16
  32              		.type	stateInit, %function
  33              	stateInit:
  34              	.LFB173:
  35              		.file 1 "state.c"
  36              		.loc 1 58 1
  37              		.cfi_startproc
  38              		@ args = 0, pretend = 0, frame = 0
  39              		@ frame_needed = 0, uses_anonymous_args = 0
  40              		@ link register save eliminated.
  41              		.loc 1 59 20
  42 0000 144B     		ldr	r3, .L2
  43 0002 0022     		movs	r2, #0
  44 0004 1A80     		strh	r2, [r3]	@ movhi
  45              		.loc 1 60 22
  46 0006 134B     		ldr	r3, .L2
  47 0008 0022     		movs	r2, #0
  48 000a A3F81421 		strh	r2, [r3, #276]	@ movhi
  49              		.loc 1 61 22
  50 000e 114B     		ldr	r3, .L2
  51 0010 0022     		movs	r2, #0
  52 0012 83F87021 		strb	r2, [r3, #368]
  53              		.loc 1 62 40
ARM GAS  /tmp/cc3mS0ZT.s 			page 2


  54 0016 0F4B     		ldr	r3, .L2
  55 0018 0022     		movs	r2, #0
  56 001a 83F8B021 		strb	r2, [r3, #432]
  57              		.loc 1 63 21
  58 001e 0D4B     		ldr	r3, .L2
  59 0020 0022     		movs	r2, #0
  60 0022 83F83422 		strb	r2, [r3, #564]
  61              		.loc 1 64 25
  62 0026 0B4B     		ldr	r3, .L2
  63 0028 0022     		movs	r2, #0
  64 002a 83F85022 		strb	r2, [r3, #592]
  65              		.loc 1 65 27
  66 002e 094B     		ldr	r3, .L2
  67 0030 0022     		movs	r2, #0
  68 0032 83F85C20 		strb	r2, [r3, #92]
  69              		.loc 1 66 27
  70 0036 074B     		ldr	r3, .L2
  71 0038 0022     		movs	r2, #0
  72 003a 83F8E420 		strb	r2, [r3, #228]
  73              		.loc 1 67 27
  74 003e 054B     		ldr	r3, .L2
  75 0040 0022     		movs	r2, #0
  76 0042 83F8F820 		strb	r2, [r3, #248]
  77              		.loc 1 70 27
  78 0046 034B     		ldr	r3, .L2
  79 0048 0022     		movs	r2, #0
  80 004a 83F8F420 		strb	r2, [r3, #244]
  81              		.loc 1 76 1
  82 004e 00BF     		nop
  83 0050 7047     		bx	lr
  84              	.L3:
  85 0052 00BF     		.align	2
  86              	.L2:
  87 0054 00000000 		.word	state
  88              		.cfi_endproc
  89              	.LFE173:
  90              		.size	stateInit, .-stateInit
  91              		.global	__aeabi_f2d
  92              		.global	__aeabi_dmul
  93              		.global	__aeabi_d2iz
  94              		.section	.text.stateCalcPositionEcef_i,"ax",%progbits
  95              		.align	1
  96              		.p2align 4,,15
  97              		.global	stateCalcPositionEcef_i
  98              		.syntax unified
  99              		.thumb
 100              		.thumb_func
 101              		.fpu fpv4-sp-d16
 102              		.type	stateCalcPositionEcef_i, %function
 103              	stateCalcPositionEcef_i:
 104              	.LFB174:
 105              		.loc 1 88 1
 106              		.cfi_startproc
 107              		@ args = 0, pretend = 0, frame = 0
 108              		@ frame_needed = 0, uses_anonymous_args = 0
 109 0000 08B5     		push	{r3, lr}
 110              		.cfi_def_cfa_offset 8
ARM GAS  /tmp/cc3mS0ZT.s 			page 3


 111              		.cfi_offset 3, -8
 112              		.cfi_offset 14, -4
 113              		.loc 1 89 7
 114 0002 8E4B     		ldr	r3, .L15
 115 0004 1B88     		ldrh	r3, [r3]
 116 0006 03F00103 		and	r3, r3, #1
 117              		.loc 1 89 6
 118 000a 002B     		cmp	r3, #0
 119 000c 40F01281 		bne	.L13
 120              		.loc 1 93 7
 121 0010 8A4B     		ldr	r3, .L15
 122 0012 1B88     		ldrh	r3, [r3]
 123 0014 5B09     		lsrs	r3, r3, #5
 124 0016 9BB2     		uxth	r3, r3
 125 0018 03F00103 		and	r3, r3, #1
 126              		.loc 1 93 6
 127 001c 002B     		cmp	r3, #0
 128 001e 3CD0     		beq	.L7
 129              		.loc 1 94 5
 130 0020 864B     		ldr	r3, .L15
 131 0022 D3F89830 		ldr	r3, [r3, #152]	@ float
 132 0026 1846     		mov	r0, r3	@ float
 133 0028 FFF7FEFF 		bl	__aeabi_f2d
 134 002c 4FF00002 		mov	r2, #0
 135 0030 834B     		ldr	r3, .L15+4
 136 0032 FFF7FEFF 		bl	__aeabi_dmul
 137 0036 0246     		mov	r2, r0
 138 0038 0B46     		mov	r3, r1
 139 003a 1046     		mov	r0, r2
 140 003c 1946     		mov	r1, r3
 141 003e FFF7FEFF 		bl	__aeabi_d2iz
 142 0042 0346     		mov	r3, r0
 143 0044 7D4A     		ldr	r2, .L15
 144 0046 5360     		str	r3, [r2, #4]
 145 0048 7C4B     		ldr	r3, .L15
 146 004a D3F89C30 		ldr	r3, [r3, #156]	@ float
 147 004e 1846     		mov	r0, r3	@ float
 148 0050 FFF7FEFF 		bl	__aeabi_f2d
 149 0054 4FF00002 		mov	r2, #0
 150 0058 794B     		ldr	r3, .L15+4
 151 005a FFF7FEFF 		bl	__aeabi_dmul
 152 005e 0246     		mov	r2, r0
 153 0060 0B46     		mov	r3, r1
 154 0062 1046     		mov	r0, r2
 155 0064 1946     		mov	r1, r3
 156 0066 FFF7FEFF 		bl	__aeabi_d2iz
 157 006a 0346     		mov	r3, r0
 158 006c 734A     		ldr	r2, .L15
 159 006e 9360     		str	r3, [r2, #8]
 160 0070 724B     		ldr	r3, .L15
 161 0072 D3F8A030 		ldr	r3, [r3, #160]	@ float
 162 0076 1846     		mov	r0, r3	@ float
 163 0078 FFF7FEFF 		bl	__aeabi_f2d
 164 007c 4FF00002 		mov	r2, #0
 165 0080 6F4B     		ldr	r3, .L15+4
 166 0082 FFF7FEFF 		bl	__aeabi_dmul
 167 0086 0246     		mov	r2, r0
ARM GAS  /tmp/cc3mS0ZT.s 			page 4


 168 0088 0B46     		mov	r3, r1
 169 008a 1046     		mov	r0, r2
 170 008c 1946     		mov	r1, r3
 171 008e FFF7FEFF 		bl	__aeabi_d2iz
 172 0092 0346     		mov	r3, r0
 173 0094 694A     		ldr	r2, .L15
 174 0096 D360     		str	r3, [r2, #12]
 175 0098 C4E0     		b	.L8
 176              	.L7:
 177              		.loc 1 95 14
 178 009a 684B     		ldr	r3, .L15
 179 009c 1B88     		ldrh	r3, [r3]
 180 009e 5B08     		lsrs	r3, r3, #1
 181 00a0 9BB2     		uxth	r3, r3
 182 00a2 03F00103 		and	r3, r3, #1
 183              		.loc 1 95 13
 184 00a6 002B     		cmp	r3, #0
 185 00a8 0AD0     		beq	.L9
 186              		.loc 1 95 62 discriminator 1
 187 00aa 644B     		ldr	r3, .L15
 188 00ac 93F85C30 		ldrb	r3, [r3, #92]	@ zero_extendqisi2
 189              		.loc 1 95 54 discriminator 1
 190 00b0 002B     		cmp	r3, #0
 191 00b2 05D0     		beq	.L9
 192              		.loc 1 96 5
 193 00b4 634A     		ldr	r2, .L15+8
 194 00b6 6449     		ldr	r1, .L15+12
 195 00b8 6448     		ldr	r0, .L15+16
 196 00ba FFF7FEFF 		bl	ecef_of_ned_pos_i
 197 00be B1E0     		b	.L8
 198              	.L9:
 199              		.loc 1 97 14
 200 00c0 5E4B     		ldr	r3, .L15
 201 00c2 1B88     		ldrh	r3, [r3]
 202 00c4 9B09     		lsrs	r3, r3, #6
 203 00c6 9BB2     		uxth	r3, r3
 204 00c8 03F00103 		and	r3, r3, #1
 205              		.loc 1 97 13
 206 00cc 002B     		cmp	r3, #0
 207 00ce 4DD0     		beq	.L10
 208              		.loc 1 97 62 discriminator 1
 209 00d0 5A4B     		ldr	r3, .L15
 210 00d2 93F8E430 		ldrb	r3, [r3, #228]	@ zero_extendqisi2
 211              		.loc 1 97 54 discriminator 1
 212 00d6 002B     		cmp	r3, #0
 213 00d8 48D0     		beq	.L10
 214              		.loc 1 99 5
 215 00da 5D4A     		ldr	r2, .L15+20
 216 00dc 5D49     		ldr	r1, .L15+24
 217 00de 5E48     		ldr	r0, .L15+28
 218 00e0 FFF7FEFF 		bl	ecef_of_ned_point_f
 219              		.loc 1 100 5
 220 00e4 554B     		ldr	r3, .L15
 221 00e6 1B88     		ldrh	r3, [r3]
 222 00e8 43F02003 		orr	r3, r3, #32
 223 00ec 9AB2     		uxth	r2, r3
 224 00ee 534B     		ldr	r3, .L15
ARM GAS  /tmp/cc3mS0ZT.s 			page 5


 225 00f0 1A80     		strh	r2, [r3]	@ movhi
 226              		.loc 1 101 5
 227 00f2 524B     		ldr	r3, .L15
 228 00f4 D3F89830 		ldr	r3, [r3, #152]	@ float
 229 00f8 1846     		mov	r0, r3	@ float
 230 00fa FFF7FEFF 		bl	__aeabi_f2d
 231 00fe 4FF00002 		mov	r2, #0
 232 0102 4F4B     		ldr	r3, .L15+4
 233 0104 FFF7FEFF 		bl	__aeabi_dmul
 234 0108 0246     		mov	r2, r0
 235 010a 0B46     		mov	r3, r1
 236 010c 1046     		mov	r0, r2
 237 010e 1946     		mov	r1, r3
 238 0110 FFF7FEFF 		bl	__aeabi_d2iz
 239 0114 0346     		mov	r3, r0
 240 0116 494A     		ldr	r2, .L15
 241 0118 5360     		str	r3, [r2, #4]
 242 011a 484B     		ldr	r3, .L15
 243 011c D3F89C30 		ldr	r3, [r3, #156]	@ float
 244 0120 1846     		mov	r0, r3	@ float
 245 0122 FFF7FEFF 		bl	__aeabi_f2d
 246 0126 4FF00002 		mov	r2, #0
 247 012a 454B     		ldr	r3, .L15+4
 248 012c FFF7FEFF 		bl	__aeabi_dmul
 249 0130 0246     		mov	r2, r0
 250 0132 0B46     		mov	r3, r1
 251 0134 1046     		mov	r0, r2
 252 0136 1946     		mov	r1, r3
 253 0138 FFF7FEFF 		bl	__aeabi_d2iz
 254 013c 0346     		mov	r3, r0
 255 013e 3F4A     		ldr	r2, .L15
 256 0140 9360     		str	r3, [r2, #8]
 257 0142 3E4B     		ldr	r3, .L15
 258 0144 D3F8A030 		ldr	r3, [r3, #160]	@ float
 259 0148 1846     		mov	r0, r3	@ float
 260 014a FFF7FEFF 		bl	__aeabi_f2d
 261 014e 4FF00002 		mov	r2, #0
 262 0152 3B4B     		ldr	r3, .L15+4
 263 0154 FFF7FEFF 		bl	__aeabi_dmul
 264 0158 0246     		mov	r2, r0
 265 015a 0B46     		mov	r3, r1
 266 015c 1046     		mov	r0, r2
 267 015e 1946     		mov	r1, r3
 268 0160 FFF7FEFF 		bl	__aeabi_d2iz
 269 0164 0346     		mov	r3, r0
 270 0166 354A     		ldr	r2, .L15
 271 0168 D360     		str	r3, [r2, #12]
 272 016a 5BE0     		b	.L8
 273              	.L10:
 274              		.loc 1 102 14
 275 016c 334B     		ldr	r3, .L15
 276 016e 1B88     		ldrh	r3, [r3]
 277 0170 DB08     		lsrs	r3, r3, #3
 278 0172 9BB2     		uxth	r3, r3
 279 0174 03F00103 		and	r3, r3, #1
 280              		.loc 1 102 13
 281 0178 002B     		cmp	r3, #0
ARM GAS  /tmp/cc3mS0ZT.s 			page 6


 282 017a 04D0     		beq	.L11
 283              		.loc 1 103 5
 284 017c 3749     		ldr	r1, .L15+32
 285 017e 3348     		ldr	r0, .L15+16
 286 0180 FFF7FEFF 		bl	ecef_of_lla_i
 287 0184 4EE0     		b	.L8
 288              	.L11:
 289              		.loc 1 104 14
 290 0186 2D4B     		ldr	r3, .L15
 291 0188 1B88     		ldrh	r3, [r3]
 292 018a 1B0A     		lsrs	r3, r3, #8
 293 018c 9BB2     		uxth	r3, r3
 294 018e 03F00103 		and	r3, r3, #1
 295              		.loc 1 104 13
 296 0192 002B     		cmp	r3, #0
 297 0194 50D0     		beq	.L14
 298              		.loc 1 106 5
 299 0196 3249     		ldr	r1, .L15+36
 300 0198 2F48     		ldr	r0, .L15+28
 301 019a FFF7FEFF 		bl	ecef_of_lla_f
 302              		.loc 1 107 5
 303 019e 274B     		ldr	r3, .L15
 304 01a0 1B88     		ldrh	r3, [r3]
 305 01a2 43F02003 		orr	r3, r3, #32
 306 01a6 9AB2     		uxth	r2, r3
 307 01a8 244B     		ldr	r3, .L15
 308 01aa 1A80     		strh	r2, [r3]	@ movhi
 309              		.loc 1 108 5
 310 01ac 234B     		ldr	r3, .L15
 311 01ae D3F89830 		ldr	r3, [r3, #152]	@ float
 312 01b2 1846     		mov	r0, r3	@ float
 313 01b4 FFF7FEFF 		bl	__aeabi_f2d
 314 01b8 4FF00002 		mov	r2, #0
 315 01bc 204B     		ldr	r3, .L15+4
 316 01be FFF7FEFF 		bl	__aeabi_dmul
 317 01c2 0246     		mov	r2, r0
 318 01c4 0B46     		mov	r3, r1
 319 01c6 1046     		mov	r0, r2
 320 01c8 1946     		mov	r1, r3
 321 01ca FFF7FEFF 		bl	__aeabi_d2iz
 322 01ce 0346     		mov	r3, r0
 323 01d0 1A4A     		ldr	r2, .L15
 324 01d2 5360     		str	r3, [r2, #4]
 325 01d4 194B     		ldr	r3, .L15
 326 01d6 D3F89C30 		ldr	r3, [r3, #156]	@ float
 327 01da 1846     		mov	r0, r3	@ float
 328 01dc FFF7FEFF 		bl	__aeabi_f2d
 329 01e0 4FF00002 		mov	r2, #0
 330 01e4 164B     		ldr	r3, .L15+4
 331 01e6 FFF7FEFF 		bl	__aeabi_dmul
 332 01ea 0246     		mov	r2, r0
 333 01ec 0B46     		mov	r3, r1
 334 01ee 1046     		mov	r0, r2
 335 01f0 1946     		mov	r1, r3
 336 01f2 FFF7FEFF 		bl	__aeabi_d2iz
 337 01f6 0346     		mov	r3, r0
 338 01f8 104A     		ldr	r2, .L15
ARM GAS  /tmp/cc3mS0ZT.s 			page 7


 339 01fa 9360     		str	r3, [r2, #8]
 340 01fc 0F4B     		ldr	r3, .L15
 341 01fe D3F8A030 		ldr	r3, [r3, #160]	@ float
 342 0202 1846     		mov	r0, r3	@ float
 343 0204 FFF7FEFF 		bl	__aeabi_f2d
 344 0208 4FF00002 		mov	r2, #0
 345 020c 0C4B     		ldr	r3, .L15+4
 346 020e FFF7FEFF 		bl	__aeabi_dmul
 347 0212 0246     		mov	r2, r0
 348 0214 0B46     		mov	r3, r1
 349 0216 1046     		mov	r0, r2
 350 0218 1946     		mov	r1, r3
 351 021a FFF7FEFF 		bl	__aeabi_d2iz
 352 021e 0346     		mov	r3, r0
 353 0220 064A     		ldr	r2, .L15
 354 0222 D360     		str	r3, [r2, #12]
 355              	.L8:
 356              		.loc 1 116 3
 357 0224 054B     		ldr	r3, .L15
 358 0226 1B88     		ldrh	r3, [r3]
 359 0228 43F00103 		orr	r3, r3, #1
 360 022c 9AB2     		uxth	r2, r3
 361 022e 034B     		ldr	r3, .L15
 362 0230 1A80     		strh	r2, [r3]	@ movhi
 363 0232 02E0     		b	.L4
 364              	.L13:
 365              		.loc 1 90 5
 366 0234 00BF     		nop
 367 0236 00E0     		b	.L4
 368              	.L14:
 369              		.loc 1 113 5
 370 0238 00BF     		nop
 371              	.L4:
 372              		.loc 1 117 1
 373 023a 08BD     		pop	{r3, pc}
 374              	.L16:
 375              		.align	2
 376              	.L15:
 377 023c 00000000 		.word	state
 378 0240 00005940 		.word	1079574528
 379 0244 60000000 		.word	state+96
 380 0248 1C000000 		.word	state+28
 381 024c 04000000 		.word	state+4
 382 0250 FC000000 		.word	state+252
 383 0254 A4000000 		.word	state+164
 384 0258 98000000 		.word	state+152
 385 025c 10000000 		.word	state+16
 386 0260 8C000000 		.word	state+140
 387              		.cfi_endproc
 388              	.LFE174:
 389              		.size	stateCalcPositionEcef_i, .-stateCalcPositionEcef_i
 390              		.global	__aeabi_ddiv
 391              		.global	__aeabi_d2f
 392              		.section	.text.stateCalcPositionNed_i,"ax",%progbits
 393              		.align	1
 394              		.p2align 4,,15
 395              		.global	stateCalcPositionNed_i
ARM GAS  /tmp/cc3mS0ZT.s 			page 8


 396              		.syntax unified
 397              		.thumb
 398              		.thumb_func
 399              		.fpu fpv4-sp-d16
 400              		.type	stateCalcPositionNed_i, %function
 401              	stateCalcPositionNed_i:
 402              	.LFB175:
 403              		.loc 1 120 1
 404              		.cfi_startproc
 405              		@ args = 0, pretend = 0, frame = 8
 406              		@ frame_needed = 0, uses_anonymous_args = 0
 407 0000 00B5     		push	{lr}
 408              		.cfi_def_cfa_offset 4
 409              		.cfi_offset 14, -4
 410 0002 83B0     		sub	sp, sp, #12
 411              		.cfi_def_cfa_offset 16
 412              		.loc 1 121 7
 413 0004 9D4B     		ldr	r3, .L39
 414 0006 1B88     		ldrh	r3, [r3]
 415 0008 5B08     		lsrs	r3, r3, #1
 416 000a 9BB2     		uxth	r3, r3
 417 000c 03F00103 		and	r3, r3, #1
 418              		.loc 1 121 6
 419 0010 002B     		cmp	r3, #0
 420 0012 40F06783 		bne	.L37
 421              		.loc 1 125 7
 422 0016 0023     		movs	r3, #0
 423 0018 0193     		str	r3, [sp, #4]
 424              		.loc 1 126 12
 425 001a 984B     		ldr	r3, .L39
 426 001c 93F85C30 		ldrb	r3, [r3, #92]	@ zero_extendqisi2
 427              		.loc 1 126 6
 428 0020 002B     		cmp	r3, #0
 429 0022 00F03F81 		beq	.L20
 430              		.loc 1 127 9
 431 0026 954B     		ldr	r3, .L39
 432 0028 1B88     		ldrh	r3, [r3]
 433 002a 9B09     		lsrs	r3, r3, #6
 434 002c 9BB2     		uxth	r3, r3
 435 002e 03F00103 		and	r3, r3, #1
 436              		.loc 1 127 8
 437 0032 002B     		cmp	r3, #0
 438 0034 27D0     		beq	.L21
 439              		.loc 1 128 7
 440 0036 914B     		ldr	r3, .L39
 441 0038 D3ED3F7A 		vldr.32	s15, [r3, #252]
 442 003c 9FED907A 		vldr.32	s14, .L39+4
 443 0040 67EE877A 		vmul.f32	s15, s15, s14
 444 0044 FDEEE77A 		vcvt.s32.f32	s15, s15
 445 0048 17EE902A 		vmov	r2, s15	@ int
 446 004c 8B4B     		ldr	r3, .L39
 447 004e 1A66     		str	r2, [r3, #96]
 448 0050 8A4B     		ldr	r3, .L39
 449 0052 D3ED407A 		vldr.32	s15, [r3, #256]
 450 0056 9FED8A7A 		vldr.32	s14, .L39+4
 451 005a 67EE877A 		vmul.f32	s15, s15, s14
 452 005e FDEEE77A 		vcvt.s32.f32	s15, s15
ARM GAS  /tmp/cc3mS0ZT.s 			page 9


 453 0062 17EE902A 		vmov	r2, s15	@ int
 454 0066 854B     		ldr	r3, .L39
 455 0068 5A66     		str	r2, [r3, #100]
 456 006a 844B     		ldr	r3, .L39
 457 006c D3ED417A 		vldr.32	s15, [r3, #260]
 458 0070 9FED837A 		vldr.32	s14, .L39+4
 459 0074 67EE877A 		vmul.f32	s15, s15, s14
 460 0078 FDEEE77A 		vcvt.s32.f32	s15, s15
 461 007c 17EE902A 		vmov	r2, s15	@ int
 462 0080 7E4B     		ldr	r3, .L39
 463 0082 9A66     		str	r2, [r3, #104]
 464 0084 23E3     		b	.L22
 465              	.L21:
 466              		.loc 1 129 16
 467 0086 7D4B     		ldr	r3, .L39
 468 0088 1B88     		ldrh	r3, [r3]
 469 008a 9B08     		lsrs	r3, r3, #2
 470 008c 9BB2     		uxth	r3, r3
 471 008e 03F00103 		and	r3, r3, #1
 472              		.loc 1 129 15
 473 0092 002B     		cmp	r3, #0
 474 0094 0DD0     		beq	.L23
 475              		.loc 1 130 7
 476 0096 794B     		ldr	r3, .L39
 477 0098 1B6F     		ldr	r3, [r3, #112]
 478 009a 784A     		ldr	r2, .L39
 479 009c 1366     		str	r3, [r2, #96]
 480 009e 774B     		ldr	r3, .L39
 481 00a0 DB6E     		ldr	r3, [r3, #108]
 482 00a2 764A     		ldr	r2, .L39
 483 00a4 5366     		str	r3, [r2, #100]
 484 00a6 754B     		ldr	r3, .L39
 485 00a8 5B6F     		ldr	r3, [r3, #116]
 486 00aa 5B42     		rsbs	r3, r3, #0
 487 00ac 734A     		ldr	r2, .L39
 488 00ae 9366     		str	r3, [r2, #104]
 489 00b0 0DE3     		b	.L22
 490              	.L23:
 491              		.loc 1 131 16
 492 00b2 724B     		ldr	r3, .L39
 493 00b4 1B88     		ldrh	r3, [r3]
 494 00b6 DB09     		lsrs	r3, r3, #7
 495 00b8 9BB2     		uxth	r3, r3
 496 00ba 03F00103 		and	r3, r3, #1
 497              		.loc 1 131 15
 498 00be 002B     		cmp	r3, #0
 499 00c0 3BD0     		beq	.L24
 500              		.loc 1 132 7
 501 00c2 6E4B     		ldr	r3, .L39
 502 00c4 D3ED427A 		vldr.32	s15, [r3, #264]
 503 00c8 9FED6D7A 		vldr.32	s14, .L39+4
 504 00cc 67EE877A 		vmul.f32	s15, s15, s14
 505 00d0 FDEEE77A 		vcvt.s32.f32	s15, s15
 506 00d4 17EE902A 		vmov	r2, s15	@ int
 507 00d8 684B     		ldr	r3, .L39
 508 00da DA66     		str	r2, [r3, #108]
 509 00dc 674B     		ldr	r3, .L39
ARM GAS  /tmp/cc3mS0ZT.s 			page 10


 510 00de D3ED437A 		vldr.32	s15, [r3, #268]
 511 00e2 9FED677A 		vldr.32	s14, .L39+4
 512 00e6 67EE877A 		vmul.f32	s15, s15, s14
 513 00ea FDEEE77A 		vcvt.s32.f32	s15, s15
 514 00ee 17EE902A 		vmov	r2, s15	@ int
 515 00f2 624B     		ldr	r3, .L39
 516 00f4 1A67     		str	r2, [r3, #112]
 517 00f6 614B     		ldr	r3, .L39
 518 00f8 D3ED447A 		vldr.32	s15, [r3, #272]
 519 00fc 9FED607A 		vldr.32	s14, .L39+4
 520 0100 67EE877A 		vmul.f32	s15, s15, s14
 521 0104 FDEEE77A 		vcvt.s32.f32	s15, s15
 522 0108 17EE902A 		vmov	r2, s15	@ int
 523 010c 5B4B     		ldr	r3, .L39
 524 010e 5A67     		str	r2, [r3, #116]
 525              		.loc 1 133 7
 526 0110 5A4B     		ldr	r3, .L39
 527 0112 1B88     		ldrh	r3, [r3]
 528 0114 43F00403 		orr	r3, r3, #4
 529 0118 9AB2     		uxth	r2, r3
 530 011a 584B     		ldr	r3, .L39
 531 011c 1A80     		strh	r2, [r3]	@ movhi
 532              		.loc 1 134 7
 533 011e 574B     		ldr	r3, .L39
 534 0120 1B6F     		ldr	r3, [r3, #112]
 535 0122 564A     		ldr	r2, .L39
 536 0124 1366     		str	r3, [r2, #96]
 537 0126 554B     		ldr	r3, .L39
 538 0128 DB6E     		ldr	r3, [r3, #108]
 539 012a 544A     		ldr	r2, .L39
 540 012c 5366     		str	r3, [r2, #100]
 541 012e 534B     		ldr	r3, .L39
 542 0130 5B6F     		ldr	r3, [r3, #116]
 543 0132 5B42     		rsbs	r3, r3, #0
 544 0134 514A     		ldr	r2, .L39
 545 0136 9366     		str	r3, [r2, #104]
 546 0138 C9E2     		b	.L22
 547              	.L24:
 548              		.loc 1 135 16
 549 013a 504B     		ldr	r3, .L39
 550 013c 1B88     		ldrh	r3, [r3]
 551 013e 03F00103 		and	r3, r3, #1
 552              		.loc 1 135 15
 553 0142 002B     		cmp	r3, #0
 554 0144 05D0     		beq	.L25
 555              		.loc 1 136 7
 556 0146 4F4A     		ldr	r2, .L39+8
 557 0148 4F49     		ldr	r1, .L39+12
 558 014a 5048     		ldr	r0, .L39+16
 559 014c FFF7FEFF 		bl	ned_of_ecef_pos_i
 560 0150 BDE2     		b	.L22
 561              	.L25:
 562              		.loc 1 137 16
 563 0152 4A4B     		ldr	r3, .L39
 564 0154 1B88     		ldrh	r3, [r3]
 565 0156 5B09     		lsrs	r3, r3, #5
 566 0158 9BB2     		uxth	r3, r3
ARM GAS  /tmp/cc3mS0ZT.s 			page 11


 567 015a 03F00103 		and	r3, r3, #1
 568              		.loc 1 137 15
 569 015e 002B     		cmp	r3, #0
 570 0160 33D0     		beq	.L26
 571              		.loc 1 139 7
 572 0162 4B4A     		ldr	r2, .L39+20
 573 0164 4B49     		ldr	r1, .L39+24
 574 0166 4C48     		ldr	r0, .L39+28
 575 0168 FFF7FEFF 		bl	ned_of_ecef_point_f
 576              		.loc 1 140 7
 577 016c 434B     		ldr	r3, .L39
 578 016e 1B88     		ldrh	r3, [r3]
 579 0170 43F04003 		orr	r3, r3, #64
 580 0174 9AB2     		uxth	r2, r3
 581 0176 414B     		ldr	r3, .L39
 582 0178 1A80     		strh	r2, [r3]	@ movhi
 583              		.loc 1 141 7
 584 017a 404B     		ldr	r3, .L39
 585 017c D3ED3F7A 		vldr.32	s15, [r3, #252]
 586 0180 9FED3F7A 		vldr.32	s14, .L39+4
 587 0184 67EE877A 		vmul.f32	s15, s15, s14
 588 0188 FDEEE77A 		vcvt.s32.f32	s15, s15
 589 018c 17EE902A 		vmov	r2, s15	@ int
 590 0190 3A4B     		ldr	r3, .L39
 591 0192 1A66     		str	r2, [r3, #96]
 592 0194 394B     		ldr	r3, .L39
 593 0196 D3ED407A 		vldr.32	s15, [r3, #256]
 594 019a 9FED397A 		vldr.32	s14, .L39+4
 595 019e 67EE877A 		vmul.f32	s15, s15, s14
 596 01a2 FDEEE77A 		vcvt.s32.f32	s15, s15
 597 01a6 17EE902A 		vmov	r2, s15	@ int
 598 01aa 344B     		ldr	r3, .L39
 599 01ac 5A66     		str	r2, [r3, #100]
 600 01ae 334B     		ldr	r3, .L39
 601 01b0 D3ED417A 		vldr.32	s15, [r3, #260]
 602 01b4 9FED327A 		vldr.32	s14, .L39+4
 603 01b8 67EE877A 		vmul.f32	s15, s15, s14
 604 01bc FDEEE77A 		vcvt.s32.f32	s15, s15
 605 01c0 17EE902A 		vmov	r2, s15	@ int
 606 01c4 2D4B     		ldr	r3, .L39
 607 01c6 9A66     		str	r2, [r3, #104]
 608 01c8 81E2     		b	.L22
 609              	.L26:
 610              		.loc 1 142 16
 611 01ca 2C4B     		ldr	r3, .L39
 612 01cc 1B88     		ldrh	r3, [r3]
 613 01ce 1B0A     		lsrs	r3, r3, #8
 614 01d0 9BB2     		uxth	r3, r3
 615 01d2 03F00103 		and	r3, r3, #1
 616              		.loc 1 142 15
 617 01d6 002B     		cmp	r3, #0
 618 01d8 3ED0     		beq	.L27
 619              		.loc 1 144 7
 620 01da 3049     		ldr	r1, .L39+32
 621 01dc 2C48     		ldr	r0, .L39+20
 622 01de FFF7FEFF 		bl	ecef_of_lla_f
 623              		.loc 1 145 7
ARM GAS  /tmp/cc3mS0ZT.s 			page 12


 624 01e2 264B     		ldr	r3, .L39
 625 01e4 1B88     		ldrh	r3, [r3]
 626 01e6 43F02003 		orr	r3, r3, #32
 627 01ea 9AB2     		uxth	r2, r3
 628 01ec 234B     		ldr	r3, .L39
 629 01ee 1A80     		strh	r2, [r3]	@ movhi
 630              		.loc 1 146 7
 631 01f0 274A     		ldr	r2, .L39+20
 632 01f2 2849     		ldr	r1, .L39+24
 633 01f4 2848     		ldr	r0, .L39+28
 634 01f6 FFF7FEFF 		bl	ned_of_ecef_point_f
 635              		.loc 1 147 7
 636 01fa 204B     		ldr	r3, .L39
 637 01fc 1B88     		ldrh	r3, [r3]
 638 01fe 43F04003 		orr	r3, r3, #64
 639 0202 9AB2     		uxth	r2, r3
 640 0204 1D4B     		ldr	r3, .L39
 641 0206 1A80     		strh	r2, [r3]	@ movhi
 642              		.loc 1 148 7
 643 0208 1C4B     		ldr	r3, .L39
 644 020a D3ED3F7A 		vldr.32	s15, [r3, #252]
 645 020e 9FED1C7A 		vldr.32	s14, .L39+4
 646 0212 67EE877A 		vmul.f32	s15, s15, s14
 647 0216 FDEEE77A 		vcvt.s32.f32	s15, s15
 648 021a 17EE902A 		vmov	r2, s15	@ int
 649 021e 174B     		ldr	r3, .L39
 650 0220 1A66     		str	r2, [r3, #96]
 651 0222 164B     		ldr	r3, .L39
 652 0224 D3ED407A 		vldr.32	s15, [r3, #256]
 653 0228 9FED157A 		vldr.32	s14, .L39+4
 654 022c 67EE877A 		vmul.f32	s15, s15, s14
 655 0230 FDEEE77A 		vcvt.s32.f32	s15, s15
 656 0234 17EE902A 		vmov	r2, s15	@ int
 657 0238 104B     		ldr	r3, .L39
 658 023a 5A66     		str	r2, [r3, #100]
 659 023c 0F4B     		ldr	r3, .L39
 660 023e D3ED417A 		vldr.32	s15, [r3, #260]
 661 0242 9FED0F7A 		vldr.32	s14, .L39+4
 662 0246 67EE877A 		vmul.f32	s15, s15, s14
 663 024a FDEEE77A 		vcvt.s32.f32	s15, s15
 664 024e 17EE902A 		vmov	r2, s15	@ int
 665 0252 0A4B     		ldr	r3, .L39
 666 0254 9A66     		str	r2, [r3, #104]
 667 0256 3AE2     		b	.L22
 668              	.L27:
 669              		.loc 1 149 16
 670 0258 084B     		ldr	r3, .L39
 671 025a 1B88     		ldrh	r3, [r3]
 672 025c DB08     		lsrs	r3, r3, #3
 673 025e 9BB2     		uxth	r3, r3
 674 0260 03F00103 		and	r3, r3, #1
 675              		.loc 1 149 15
 676 0264 002B     		cmp	r3, #0
 677 0266 05D0     		beq	.L28
 678              		.loc 1 150 7
 679 0268 0D4A     		ldr	r2, .L39+36
 680 026a 0749     		ldr	r1, .L39+12
ARM GAS  /tmp/cc3mS0ZT.s 			page 13


 681 026c 0748     		ldr	r0, .L39+16
 682 026e FFF7FEFF 		bl	ned_of_lla_pos_i
 683 0272 2CE2     		b	.L22
 684              	.L28:
 685              		.loc 1 152 13
 686 0274 0123     		movs	r3, #1
 687 0276 0193     		str	r3, [sp, #4]
 688 0278 29E2     		b	.L22
 689              	.L40:
 690 027a 00BF     		.align	2
 691              	.L39:
 692 027c 00000000 		.word	state
 693 0280 00008043 		.word	1132462080
 694 0284 04000000 		.word	state+4
 695 0288 1C000000 		.word	state+28
 696 028c 60000000 		.word	state+96
 697 0290 98000000 		.word	state+152
 698 0294 A4000000 		.word	state+164
 699 0298 FC000000 		.word	state+252
 700 029c 8C000000 		.word	state+140
 701 02a0 10000000 		.word	state+16
 702              	.L20:
 703              		.loc 1 154 19
 704 02a4 A54B     		ldr	r3, .L41
 705 02a6 93F8F830 		ldrb	r3, [r3, #248]	@ zero_extendqisi2
 706              		.loc 1 154 13
 707 02aa 002B     		cmp	r3, #0
 708 02ac 00F00D82 		beq	.L29
 709              		.loc 1 155 9
 710 02b0 A24B     		ldr	r3, .L41
 711 02b2 1B88     		ldrh	r3, [r3]
 712 02b4 9B09     		lsrs	r3, r3, #6
 713 02b6 9BB2     		uxth	r3, r3
 714 02b8 03F00103 		and	r3, r3, #1
 715              		.loc 1 155 8
 716 02bc 002B     		cmp	r3, #0
 717 02be 27D0     		beq	.L30
 718              		.loc 1 156 7
 719 02c0 9E4B     		ldr	r3, .L41
 720 02c2 D3ED3F7A 		vldr.32	s15, [r3, #252]
 721 02c6 9FED9E7A 		vldr.32	s14, .L41+4
 722 02ca 67EE877A 		vmul.f32	s15, s15, s14
 723 02ce FDEEE77A 		vcvt.s32.f32	s15, s15
 724 02d2 17EE902A 		vmov	r2, s15	@ int
 725 02d6 994B     		ldr	r3, .L41
 726 02d8 1A66     		str	r2, [r3, #96]
 727 02da 984B     		ldr	r3, .L41
 728 02dc D3ED407A 		vldr.32	s15, [r3, #256]
 729 02e0 9FED977A 		vldr.32	s14, .L41+4
 730 02e4 67EE877A 		vmul.f32	s15, s15, s14
 731 02e8 FDEEE77A 		vcvt.s32.f32	s15, s15
 732 02ec 17EE902A 		vmov	r2, s15	@ int
 733 02f0 924B     		ldr	r3, .L41
 734 02f2 5A66     		str	r2, [r3, #100]
 735 02f4 914B     		ldr	r3, .L41
 736 02f6 D3ED417A 		vldr.32	s15, [r3, #260]
 737 02fa 9FED917A 		vldr.32	s14, .L41+4
ARM GAS  /tmp/cc3mS0ZT.s 			page 14


 738 02fe 67EE877A 		vmul.f32	s15, s15, s14
 739 0302 FDEEE77A 		vcvt.s32.f32	s15, s15
 740 0306 17EE902A 		vmov	r2, s15	@ int
 741 030a 8C4B     		ldr	r3, .L41
 742 030c 9A66     		str	r2, [r3, #104]
 743 030e DEE1     		b	.L22
 744              	.L30:
 745              		.loc 1 157 16
 746 0310 8A4B     		ldr	r3, .L41
 747 0312 1B88     		ldrh	r3, [r3]
 748 0314 9B08     		lsrs	r3, r3, #2
 749 0316 9BB2     		uxth	r3, r3
 750 0318 03F00103 		and	r3, r3, #1
 751              		.loc 1 157 15
 752 031c 002B     		cmp	r3, #0
 753 031e 0DD0     		beq	.L31
 754              		.loc 1 158 7
 755 0320 864B     		ldr	r3, .L41
 756 0322 1B6F     		ldr	r3, [r3, #112]
 757 0324 854A     		ldr	r2, .L41
 758 0326 1366     		str	r3, [r2, #96]
 759 0328 844B     		ldr	r3, .L41
 760 032a DB6E     		ldr	r3, [r3, #108]
 761 032c 834A     		ldr	r2, .L41
 762 032e 5366     		str	r3, [r2, #100]
 763 0330 824B     		ldr	r3, .L41
 764 0332 5B6F     		ldr	r3, [r3, #116]
 765 0334 5B42     		rsbs	r3, r3, #0
 766 0336 814A     		ldr	r2, .L41
 767 0338 9366     		str	r3, [r2, #104]
 768 033a C8E1     		b	.L22
 769              	.L31:
 770              		.loc 1 159 16
 771 033c 7F4B     		ldr	r3, .L41
 772 033e 1B88     		ldrh	r3, [r3]
 773 0340 DB09     		lsrs	r3, r3, #7
 774 0342 9BB2     		uxth	r3, r3
 775 0344 03F00103 		and	r3, r3, #1
 776              		.loc 1 159 15
 777 0348 002B     		cmp	r3, #0
 778 034a 3BD0     		beq	.L32
 779              		.loc 1 160 7
 780 034c 7B4B     		ldr	r3, .L41
 781 034e D3ED427A 		vldr.32	s15, [r3, #264]
 782 0352 9FED7B7A 		vldr.32	s14, .L41+4
 783 0356 67EE877A 		vmul.f32	s15, s15, s14
 784 035a FDEEE77A 		vcvt.s32.f32	s15, s15
 785 035e 17EE902A 		vmov	r2, s15	@ int
 786 0362 764B     		ldr	r3, .L41
 787 0364 DA66     		str	r2, [r3, #108]
 788 0366 754B     		ldr	r3, .L41
 789 0368 D3ED437A 		vldr.32	s15, [r3, #268]
 790 036c 9FED747A 		vldr.32	s14, .L41+4
 791 0370 67EE877A 		vmul.f32	s15, s15, s14
 792 0374 FDEEE77A 		vcvt.s32.f32	s15, s15
 793 0378 17EE902A 		vmov	r2, s15	@ int
 794 037c 6F4B     		ldr	r3, .L41
ARM GAS  /tmp/cc3mS0ZT.s 			page 15


 795 037e 1A67     		str	r2, [r3, #112]
 796 0380 6E4B     		ldr	r3, .L41
 797 0382 D3ED447A 		vldr.32	s15, [r3, #272]
 798 0386 9FED6E7A 		vldr.32	s14, .L41+4
 799 038a 67EE877A 		vmul.f32	s15, s15, s14
 800 038e FDEEE77A 		vcvt.s32.f32	s15, s15
 801 0392 17EE902A 		vmov	r2, s15	@ int
 802 0396 694B     		ldr	r3, .L41
 803 0398 5A67     		str	r2, [r3, #116]
 804              		.loc 1 161 7
 805 039a 684B     		ldr	r3, .L41
 806 039c 1B88     		ldrh	r3, [r3]
 807 039e 43F00403 		orr	r3, r3, #4
 808 03a2 9AB2     		uxth	r2, r3
 809 03a4 654B     		ldr	r3, .L41
 810 03a6 1A80     		strh	r2, [r3]	@ movhi
 811              		.loc 1 162 7
 812 03a8 644B     		ldr	r3, .L41
 813 03aa 1B6F     		ldr	r3, [r3, #112]
 814 03ac 634A     		ldr	r2, .L41
 815 03ae 1366     		str	r3, [r2, #96]
 816 03b0 624B     		ldr	r3, .L41
 817 03b2 DB6E     		ldr	r3, [r3, #108]
 818 03b4 614A     		ldr	r2, .L41
 819 03b6 5366     		str	r3, [r2, #100]
 820 03b8 604B     		ldr	r3, .L41
 821 03ba 5B6F     		ldr	r3, [r3, #116]
 822 03bc 5B42     		rsbs	r3, r3, #0
 823 03be 5F4A     		ldr	r2, .L41
 824 03c0 9366     		str	r3, [r2, #104]
 825 03c2 84E1     		b	.L22
 826              	.L32:
 827              		.loc 1 163 16
 828 03c4 5D4B     		ldr	r3, .L41
 829 03c6 1B88     		ldrh	r3, [r3]
 830 03c8 5B0A     		lsrs	r3, r3, #9
 831 03ca 9BB2     		uxth	r3, r3
 832 03cc 03F00103 		and	r3, r3, #1
 833              		.loc 1 163 15
 834 03d0 002B     		cmp	r3, #0
 835 03d2 4FD0     		beq	.L33
 836              		.loc 1 165 7
 837 03d4 594B     		ldr	r3, .L41
 838 03d6 93ED1E7A 		vldr.32	s14, [r3, #120]
 839 03da 584B     		ldr	r3, .L41
 840 03dc D3ED3A7A 		vldr.32	s15, [r3, #232]
 841 03e0 77EE677A 		vsub.f32	s15, s14, s15
 842 03e4 554B     		ldr	r3, .L41
 843 03e6 C3ED3F7A 		vstr.32	s15, [r3, #252]
 844 03ea 544B     		ldr	r3, .L41
 845 03ec 93ED1F7A 		vldr.32	s14, [r3, #124]
 846 03f0 524B     		ldr	r3, .L41
 847 03f2 D3ED3B7A 		vldr.32	s15, [r3, #236]
 848 03f6 77EE677A 		vsub.f32	s15, s14, s15
 849 03fa 504B     		ldr	r3, .L41
 850 03fc C3ED407A 		vstr.32	s15, [r3, #256]
 851 0400 4E4B     		ldr	r3, .L41
ARM GAS  /tmp/cc3mS0ZT.s 			page 16


 852 0402 93ED3C7A 		vldr.32	s14, [r3, #240]
 853 0406 4D4B     		ldr	r3, .L41
 854 0408 D3ED207A 		vldr.32	s15, [r3, #128]
 855 040c 77EE677A 		vsub.f32	s15, s14, s15
 856 0410 4A4B     		ldr	r3, .L41
 857 0412 C3ED417A 		vstr.32	s15, [r3, #260]
 858              		.loc 1 166 7
 859 0416 494B     		ldr	r3, .L41
 860 0418 1B88     		ldrh	r3, [r3]
 861 041a 43F04003 		orr	r3, r3, #64
 862 041e 9AB2     		uxth	r2, r3
 863 0420 464B     		ldr	r3, .L41
 864 0422 1A80     		strh	r2, [r3]	@ movhi
 865              		.loc 1 167 7
 866 0424 454B     		ldr	r3, .L41
 867 0426 D3ED3F7A 		vldr.32	s15, [r3, #252]
 868 042a 9FED457A 		vldr.32	s14, .L41+4
 869 042e 67EE877A 		vmul.f32	s15, s15, s14
 870 0432 FDEEE77A 		vcvt.s32.f32	s15, s15
 871 0436 17EE902A 		vmov	r2, s15	@ int
 872 043a 404B     		ldr	r3, .L41
 873 043c 1A66     		str	r2, [r3, #96]
 874 043e 3F4B     		ldr	r3, .L41
 875 0440 D3ED407A 		vldr.32	s15, [r3, #256]
 876 0444 9FED3E7A 		vldr.32	s14, .L41+4
 877 0448 67EE877A 		vmul.f32	s15, s15, s14
 878 044c FDEEE77A 		vcvt.s32.f32	s15, s15
 879 0450 17EE902A 		vmov	r2, s15	@ int
 880 0454 394B     		ldr	r3, .L41
 881 0456 5A66     		str	r2, [r3, #100]
 882 0458 384B     		ldr	r3, .L41
 883 045a D3ED417A 		vldr.32	s15, [r3, #260]
 884 045e 9FED387A 		vldr.32	s14, .L41+4
 885 0462 67EE877A 		vmul.f32	s15, s15, s14
 886 0466 FDEEE77A 		vcvt.s32.f32	s15, s15
 887 046a 17EE902A 		vmov	r2, s15	@ int
 888 046e 334B     		ldr	r3, .L41
 889 0470 9A66     		str	r2, [r3, #104]
 890 0472 2CE1     		b	.L22
 891              	.L33:
 892              		.loc 1 168 16
 893 0474 314B     		ldr	r3, .L41
 894 0476 1B88     		ldrh	r3, [r3]
 895 0478 1B0A     		lsrs	r3, r3, #8
 896 047a 9BB2     		uxth	r3, r3
 897 047c 03F00103 		and	r3, r3, #1
 898              		.loc 1 168 15
 899 0480 002B     		cmp	r3, #0
 900 0482 63D0     		beq	.L34
 901              		.loc 1 170 7
 902 0484 2F49     		ldr	r1, .L41+8
 903 0486 3048     		ldr	r0, .L41+12
 904 0488 FFF7FEFF 		bl	utm_of_lla_f
 905              		.loc 1 171 7
 906 048c 2B4B     		ldr	r3, .L41
 907 048e 1B88     		ldrh	r3, [r3]
 908 0490 43F40073 		orr	r3, r3, #512
ARM GAS  /tmp/cc3mS0ZT.s 			page 17


 909 0494 9AB2     		uxth	r2, r3
 910 0496 294B     		ldr	r3, .L41
 911 0498 1A80     		strh	r2, [r3]	@ movhi
 912              		.loc 1 172 7
 913 049a 284B     		ldr	r3, .L41
 914 049c 93ED1E7A 		vldr.32	s14, [r3, #120]
 915 04a0 264B     		ldr	r3, .L41
 916 04a2 D3ED3A7A 		vldr.32	s15, [r3, #232]
 917 04a6 77EE677A 		vsub.f32	s15, s14, s15
 918 04aa 244B     		ldr	r3, .L41
 919 04ac C3ED3F7A 		vstr.32	s15, [r3, #252]
 920 04b0 224B     		ldr	r3, .L41
 921 04b2 93ED1F7A 		vldr.32	s14, [r3, #124]
 922 04b6 214B     		ldr	r3, .L41
 923 04b8 D3ED3B7A 		vldr.32	s15, [r3, #236]
 924 04bc 77EE677A 		vsub.f32	s15, s14, s15
 925 04c0 1E4B     		ldr	r3, .L41
 926 04c2 C3ED407A 		vstr.32	s15, [r3, #256]
 927 04c6 1D4B     		ldr	r3, .L41
 928 04c8 93ED3C7A 		vldr.32	s14, [r3, #240]
 929 04cc 1B4B     		ldr	r3, .L41
 930 04ce D3ED207A 		vldr.32	s15, [r3, #128]
 931 04d2 77EE677A 		vsub.f32	s15, s14, s15
 932 04d6 194B     		ldr	r3, .L41
 933 04d8 C3ED417A 		vstr.32	s15, [r3, #260]
 934              		.loc 1 173 7
 935 04dc 174B     		ldr	r3, .L41
 936 04de 1B88     		ldrh	r3, [r3]
 937 04e0 43F04003 		orr	r3, r3, #64
 938 04e4 9AB2     		uxth	r2, r3
 939 04e6 154B     		ldr	r3, .L41
 940 04e8 1A80     		strh	r2, [r3]	@ movhi
 941              		.loc 1 174 7
 942 04ea 144B     		ldr	r3, .L41
 943 04ec D3ED3F7A 		vldr.32	s15, [r3, #252]
 944 04f0 9FED137A 		vldr.32	s14, .L41+4
 945 04f4 67EE877A 		vmul.f32	s15, s15, s14
 946 04f8 FDEEE77A 		vcvt.s32.f32	s15, s15
 947 04fc 17EE902A 		vmov	r2, s15	@ int
 948 0500 0E4B     		ldr	r3, .L41
 949 0502 1A66     		str	r2, [r3, #96]
 950 0504 0D4B     		ldr	r3, .L41
 951 0506 D3ED407A 		vldr.32	s15, [r3, #256]
 952 050a 9FED0D7A 		vldr.32	s14, .L41+4
 953 050e 67EE877A 		vmul.f32	s15, s15, s14
 954 0512 FDEEE77A 		vcvt.s32.f32	s15, s15
 955 0516 17EE902A 		vmov	r2, s15	@ int
 956 051a 084B     		ldr	r3, .L41
 957 051c 5A66     		str	r2, [r3, #100]
 958 051e 074B     		ldr	r3, .L41
 959 0520 D3ED417A 		vldr.32	s15, [r3, #260]
 960 0524 9FED067A 		vldr.32	s14, .L41+4
 961 0528 67EE877A 		vmul.f32	s15, s15, s14
 962 052c FDEEE77A 		vcvt.s32.f32	s15, s15
 963 0530 17EE902A 		vmov	r2, s15	@ int
 964 0534 014B     		ldr	r3, .L41
 965 0536 9A66     		str	r2, [r3, #104]
ARM GAS  /tmp/cc3mS0ZT.s 			page 18


 966 0538 C9E0     		b	.L22
 967              	.L42:
 968 053a 00BF     		.align	2
 969              	.L41:
 970 053c 00000000 		.word	state
 971 0540 00008043 		.word	1132462080
 972 0544 8C000000 		.word	state+140
 973 0548 78000000 		.word	state+120
 974              	.L34:
 975              		.loc 1 175 16
 976 054c 6C4B     		ldr	r3, .L43+16
 977 054e 1B88     		ldrh	r3, [r3]
 978 0550 DB08     		lsrs	r3, r3, #3
 979 0552 9BB2     		uxth	r3, r3
 980 0554 03F00103 		and	r3, r3, #1
 981              		.loc 1 175 15
 982 0558 002B     		cmp	r3, #0
 983 055a 00F0B380 		beq	.L35
 984              		.loc 1 177 7
 985 055e 684B     		ldr	r3, .L43+16
 986 0560 1B69     		ldr	r3, [r3, #16]
 987 0562 07EE903A 		vmov	s15, r3	@ int
 988 0566 F8EEE77A 		vcvt.f32.s32	s15, s15
 989 056a 17EE900A 		vmov	r0, s15
 990 056e FFF7FEFF 		bl	__aeabi_f2d
 991 0572 5FA3     		adr	r3, .L43
 992 0574 D3E90023 		ldrd	r2, [r3]
 993 0578 FFF7FEFF 		bl	__aeabi_dmul
 994 057c 0246     		mov	r2, r0
 995 057e 0B46     		mov	r3, r1
 996 0580 1046     		mov	r0, r2
 997 0582 1946     		mov	r1, r3
 998 0584 5CA3     		adr	r3, .L43+8
 999 0586 D3E90023 		ldrd	r2, [r3]
 1000 058a FFF7FEFF 		bl	__aeabi_ddiv
 1001 058e 0246     		mov	r2, r0
 1002 0590 0B46     		mov	r3, r1
 1003 0592 1046     		mov	r0, r2
 1004 0594 1946     		mov	r1, r3
 1005 0596 FFF7FEFF 		bl	__aeabi_d2f
 1006 059a 0346     		mov	r3, r0	@ float
 1007 059c 584A     		ldr	r2, .L43+16
 1008 059e C2F88C30 		str	r3, [r2, #140]	@ float
 1009 05a2 574B     		ldr	r3, .L43+16
 1010 05a4 5B69     		ldr	r3, [r3, #20]
 1011 05a6 07EE903A 		vmov	s15, r3	@ int
 1012 05aa F8EEE77A 		vcvt.f32.s32	s15, s15
 1013 05ae 17EE900A 		vmov	r0, s15
 1014 05b2 FFF7FEFF 		bl	__aeabi_f2d
 1015 05b6 4EA3     		adr	r3, .L43
 1016 05b8 D3E90023 		ldrd	r2, [r3]
 1017 05bc FFF7FEFF 		bl	__aeabi_dmul
 1018 05c0 0246     		mov	r2, r0
 1019 05c2 0B46     		mov	r3, r1
 1020 05c4 1046     		mov	r0, r2
 1021 05c6 1946     		mov	r1, r3
 1022 05c8 4BA3     		adr	r3, .L43+8
ARM GAS  /tmp/cc3mS0ZT.s 			page 19


 1023 05ca D3E90023 		ldrd	r2, [r3]
 1024 05ce FFF7FEFF 		bl	__aeabi_ddiv
 1025 05d2 0246     		mov	r2, r0
 1026 05d4 0B46     		mov	r3, r1
 1027 05d6 1046     		mov	r0, r2
 1028 05d8 1946     		mov	r1, r3
 1029 05da FFF7FEFF 		bl	__aeabi_d2f
 1030 05de 0346     		mov	r3, r0	@ float
 1031 05e0 474A     		ldr	r2, .L43+16
 1032 05e2 C2F89030 		str	r3, [r2, #144]	@ float
 1033 05e6 464B     		ldr	r3, .L43+16
 1034 05e8 9B69     		ldr	r3, [r3, #24]
 1035 05ea 07EE903A 		vmov	s15, r3	@ int
 1036 05ee B8EEE77A 		vcvt.f32.s32	s14, s15
 1037 05f2 DFED446A 		vldr.32	s13, .L43+20
 1038 05f6 C7EE267A 		vdiv.f32	s15, s14, s13
 1039 05fa 414B     		ldr	r3, .L43+16
 1040 05fc C3ED257A 		vstr.32	s15, [r3, #148]
 1041              		.loc 1 178 7
 1042 0600 3F4B     		ldr	r3, .L43+16
 1043 0602 1B88     		ldrh	r3, [r3]
 1044 0604 43F48073 		orr	r3, r3, #256
 1045 0608 9AB2     		uxth	r2, r3
 1046 060a 3D4B     		ldr	r3, .L43+16
 1047 060c 1A80     		strh	r2, [r3]	@ movhi
 1048              		.loc 1 179 7
 1049 060e 3E49     		ldr	r1, .L43+24
 1050 0610 3E48     		ldr	r0, .L43+28
 1051 0612 FFF7FEFF 		bl	utm_of_lla_f
 1052              		.loc 1 180 7
 1053 0616 3A4B     		ldr	r3, .L43+16
 1054 0618 1B88     		ldrh	r3, [r3]
 1055 061a 43F40073 		orr	r3, r3, #512
 1056 061e 9AB2     		uxth	r2, r3
 1057 0620 374B     		ldr	r3, .L43+16
 1058 0622 1A80     		strh	r2, [r3]	@ movhi
 1059              		.loc 1 181 7
 1060 0624 364B     		ldr	r3, .L43+16
 1061 0626 93ED1E7A 		vldr.32	s14, [r3, #120]
 1062 062a 354B     		ldr	r3, .L43+16
 1063 062c D3ED3A7A 		vldr.32	s15, [r3, #232]
 1064 0630 77EE677A 		vsub.f32	s15, s14, s15
 1065 0634 324B     		ldr	r3, .L43+16
 1066 0636 C3ED3F7A 		vstr.32	s15, [r3, #252]
 1067 063a 314B     		ldr	r3, .L43+16
 1068 063c 93ED1F7A 		vldr.32	s14, [r3, #124]
 1069 0640 2F4B     		ldr	r3, .L43+16
 1070 0642 D3ED3B7A 		vldr.32	s15, [r3, #236]
 1071 0646 77EE677A 		vsub.f32	s15, s14, s15
 1072 064a 2D4B     		ldr	r3, .L43+16
 1073 064c C3ED407A 		vstr.32	s15, [r3, #256]
 1074 0650 2B4B     		ldr	r3, .L43+16
 1075 0652 93ED3C7A 		vldr.32	s14, [r3, #240]
 1076 0656 2A4B     		ldr	r3, .L43+16
 1077 0658 D3ED207A 		vldr.32	s15, [r3, #128]
 1078 065c 77EE677A 		vsub.f32	s15, s14, s15
 1079 0660 274B     		ldr	r3, .L43+16
ARM GAS  /tmp/cc3mS0ZT.s 			page 20


 1080 0662 C3ED417A 		vstr.32	s15, [r3, #260]
 1081              		.loc 1 182 7
 1082 0666 264B     		ldr	r3, .L43+16
 1083 0668 1B88     		ldrh	r3, [r3]
 1084 066a 43F04003 		orr	r3, r3, #64
 1085 066e 9AB2     		uxth	r2, r3
 1086 0670 234B     		ldr	r3, .L43+16
 1087 0672 1A80     		strh	r2, [r3]	@ movhi
 1088              		.loc 1 183 7
 1089 0674 224B     		ldr	r3, .L43+16
 1090 0676 D3ED3F7A 		vldr.32	s15, [r3, #252]
 1091 067a 9FED257A 		vldr.32	s14, .L43+32
 1092 067e 67EE877A 		vmul.f32	s15, s15, s14
 1093 0682 FDEEE77A 		vcvt.s32.f32	s15, s15
 1094 0686 17EE902A 		vmov	r2, s15	@ int
 1095 068a 1D4B     		ldr	r3, .L43+16
 1096 068c 1A66     		str	r2, [r3, #96]
 1097 068e 1C4B     		ldr	r3, .L43+16
 1098 0690 D3ED407A 		vldr.32	s15, [r3, #256]
 1099 0694 9FED1E7A 		vldr.32	s14, .L43+32
 1100 0698 67EE877A 		vmul.f32	s15, s15, s14
 1101 069c FDEEE77A 		vcvt.s32.f32	s15, s15
 1102 06a0 17EE902A 		vmov	r2, s15	@ int
 1103 06a4 164B     		ldr	r3, .L43+16
 1104 06a6 5A66     		str	r2, [r3, #100]
 1105 06a8 154B     		ldr	r3, .L43+16
 1106 06aa D3ED417A 		vldr.32	s15, [r3, #260]
 1107 06ae 9FED187A 		vldr.32	s14, .L43+32
 1108 06b2 67EE877A 		vmul.f32	s15, s15, s14
 1109 06b6 FDEEE77A 		vcvt.s32.f32	s15, s15
 1110 06ba 17EE902A 		vmov	r2, s15	@ int
 1111 06be 104B     		ldr	r3, .L43+16
 1112 06c0 9A66     		str	r2, [r3, #104]
 1113 06c2 04E0     		b	.L22
 1114              	.L35:
 1115              		.loc 1 185 13
 1116 06c4 0223     		movs	r3, #2
 1117 06c6 0193     		str	r3, [sp, #4]
 1118 06c8 01E0     		b	.L22
 1119              	.L29:
 1120              		.loc 1 188 11
 1121 06ca 0323     		movs	r3, #3
 1122 06cc 0193     		str	r3, [sp, #4]
 1123              	.L22:
 1124              		.loc 1 190 6
 1125 06ce 019B     		ldr	r3, [sp, #4]
 1126 06d0 002B     		cmp	r3, #0
 1127 06d2 09D1     		bne	.L38
 1128              		.loc 1 196 3
 1129 06d4 0A4B     		ldr	r3, .L43+16
 1130 06d6 1B88     		ldrh	r3, [r3]
 1131 06d8 43F00203 		orr	r3, r3, #2
 1132 06dc 9AB2     		uxth	r2, r3
 1133 06de 084B     		ldr	r3, .L43+16
 1134 06e0 1A80     		strh	r2, [r3]	@ movhi
 1135 06e2 02E0     		b	.L17
 1136              	.L37:
ARM GAS  /tmp/cc3mS0ZT.s 			page 21


 1137              		.loc 1 122 5
 1138 06e4 00BF     		nop
 1139 06e6 00E0     		b	.L17
 1140              	.L38:
 1141              		.loc 1 193 5
 1142 06e8 00BF     		nop
 1143              	.L17:
 1144              		.loc 1 197 1
 1145 06ea 03B0     		add	sp, sp, #12
 1146              		.cfi_def_cfa_offset 4
 1147              		@ sp needed
 1148 06ec 5DF804FB 		ldr	pc, [sp], #4
 1149              	.L44:
 1150              		.align	3
 1151              	.L43:
 1152 06f0 399D52A2 		.word	-1571644103
 1153 06f4 46DF913F 		.word	1066524486
 1154 06f8 00000000 		.word	0
 1155 06fc D0126341 		.word	1097011920
 1156 0700 00000000 		.word	state
 1157 0704 00007A44 		.word	1148846080
 1158 0708 8C000000 		.word	state+140
 1159 070c 78000000 		.word	state+120
 1160 0710 00008043 		.word	1132462080
 1161              		.cfi_endproc
 1162              	.LFE175:
 1163              		.size	stateCalcPositionNed_i, .-stateCalcPositionNed_i
 1164              		.section	.text.stateCalcPositionEnu_i,"ax",%progbits
 1165              		.align	1
 1166              		.p2align 4,,15
 1167              		.global	stateCalcPositionEnu_i
 1168              		.syntax unified
 1169              		.thumb
 1170              		.thumb_func
 1171              		.fpu fpv4-sp-d16
 1172              		.type	stateCalcPositionEnu_i, %function
 1173              	stateCalcPositionEnu_i:
 1174              	.LFB176:
 1175              		.loc 1 200 1
 1176              		.cfi_startproc
 1177              		@ args = 0, pretend = 0, frame = 8
 1178              		@ frame_needed = 0, uses_anonymous_args = 0
 1179 0000 00B5     		push	{lr}
 1180              		.cfi_def_cfa_offset 4
 1181              		.cfi_offset 14, -4
 1182 0002 83B0     		sub	sp, sp, #12
 1183              		.cfi_def_cfa_offset 16
 1184              		.loc 1 201 7
 1185 0004 9D4B     		ldr	r3, .L67
 1186 0006 1B88     		ldrh	r3, [r3]
 1187 0008 9B08     		lsrs	r3, r3, #2
 1188 000a 9BB2     		uxth	r3, r3
 1189 000c 03F00103 		and	r3, r3, #1
 1190              		.loc 1 201 6
 1191 0010 002B     		cmp	r3, #0
 1192 0012 40F06783 		bne	.L65
 1193              		.loc 1 205 7
ARM GAS  /tmp/cc3mS0ZT.s 			page 22


 1194 0016 0023     		movs	r3, #0
 1195 0018 0193     		str	r3, [sp, #4]
 1196              		.loc 1 206 12
 1197 001a 984B     		ldr	r3, .L67
 1198 001c 93F85C30 		ldrb	r3, [r3, #92]	@ zero_extendqisi2
 1199              		.loc 1 206 6
 1200 0020 002B     		cmp	r3, #0
 1201 0022 00F03F81 		beq	.L48
 1202              		.loc 1 207 9
 1203 0026 954B     		ldr	r3, .L67
 1204 0028 1B88     		ldrh	r3, [r3]
 1205 002a 5B08     		lsrs	r3, r3, #1
 1206 002c 9BB2     		uxth	r3, r3
 1207 002e 03F00103 		and	r3, r3, #1
 1208              		.loc 1 207 8
 1209 0032 002B     		cmp	r3, #0
 1210 0034 0DD0     		beq	.L49
 1211              		.loc 1 208 7
 1212 0036 914B     		ldr	r3, .L67
 1213 0038 5B6E     		ldr	r3, [r3, #100]
 1214 003a 904A     		ldr	r2, .L67
 1215 003c D366     		str	r3, [r2, #108]
 1216 003e 8F4B     		ldr	r3, .L67
 1217 0040 1B6E     		ldr	r3, [r3, #96]
 1218 0042 8E4A     		ldr	r2, .L67
 1219 0044 1367     		str	r3, [r2, #112]
 1220 0046 8D4B     		ldr	r3, .L67
 1221 0048 9B6E     		ldr	r3, [r3, #104]
 1222 004a 5B42     		rsbs	r3, r3, #0
 1223 004c 8B4A     		ldr	r2, .L67
 1224 004e 5367     		str	r3, [r2, #116]
 1225 0050 3DE3     		b	.L50
 1226              	.L49:
 1227              		.loc 1 209 16
 1228 0052 8A4B     		ldr	r3, .L67
 1229 0054 1B88     		ldrh	r3, [r3]
 1230 0056 DB09     		lsrs	r3, r3, #7
 1231 0058 9BB2     		uxth	r3, r3
 1232 005a 03F00103 		and	r3, r3, #1
 1233              		.loc 1 209 15
 1234 005e 002B     		cmp	r3, #0
 1235 0060 27D0     		beq	.L51
 1236              		.loc 1 210 7
 1237 0062 864B     		ldr	r3, .L67
 1238 0064 D3ED427A 		vldr.32	s15, [r3, #264]
 1239 0068 9FED857A 		vldr.32	s14, .L67+4
 1240 006c 67EE877A 		vmul.f32	s15, s15, s14
 1241 0070 FDEEE77A 		vcvt.s32.f32	s15, s15
 1242 0074 17EE902A 		vmov	r2, s15	@ int
 1243 0078 804B     		ldr	r3, .L67
 1244 007a DA66     		str	r2, [r3, #108]
 1245 007c 7F4B     		ldr	r3, .L67
 1246 007e D3ED437A 		vldr.32	s15, [r3, #268]
 1247 0082 9FED7F7A 		vldr.32	s14, .L67+4
 1248 0086 67EE877A 		vmul.f32	s15, s15, s14
 1249 008a FDEEE77A 		vcvt.s32.f32	s15, s15
 1250 008e 17EE902A 		vmov	r2, s15	@ int
ARM GAS  /tmp/cc3mS0ZT.s 			page 23


 1251 0092 7A4B     		ldr	r3, .L67
 1252 0094 1A67     		str	r2, [r3, #112]
 1253 0096 794B     		ldr	r3, .L67
 1254 0098 D3ED447A 		vldr.32	s15, [r3, #272]
 1255 009c 9FED787A 		vldr.32	s14, .L67+4
 1256 00a0 67EE877A 		vmul.f32	s15, s15, s14
 1257 00a4 FDEEE77A 		vcvt.s32.f32	s15, s15
 1258 00a8 17EE902A 		vmov	r2, s15	@ int
 1259 00ac 734B     		ldr	r3, .L67
 1260 00ae 5A67     		str	r2, [r3, #116]
 1261 00b0 0DE3     		b	.L50
 1262              	.L51:
 1263              		.loc 1 211 16
 1264 00b2 724B     		ldr	r3, .L67
 1265 00b4 1B88     		ldrh	r3, [r3]
 1266 00b6 9B09     		lsrs	r3, r3, #6
 1267 00b8 9BB2     		uxth	r3, r3
 1268 00ba 03F00103 		and	r3, r3, #1
 1269              		.loc 1 211 15
 1270 00be 002B     		cmp	r3, #0
 1271 00c0 3BD0     		beq	.L52
 1272              		.loc 1 212 7
 1273 00c2 6E4B     		ldr	r3, .L67
 1274 00c4 D3ED3F7A 		vldr.32	s15, [r3, #252]
 1275 00c8 9FED6D7A 		vldr.32	s14, .L67+4
 1276 00cc 67EE877A 		vmul.f32	s15, s15, s14
 1277 00d0 FDEEE77A 		vcvt.s32.f32	s15, s15
 1278 00d4 17EE902A 		vmov	r2, s15	@ int
 1279 00d8 684B     		ldr	r3, .L67
 1280 00da 1A66     		str	r2, [r3, #96]
 1281 00dc 674B     		ldr	r3, .L67
 1282 00de D3ED407A 		vldr.32	s15, [r3, #256]
 1283 00e2 9FED677A 		vldr.32	s14, .L67+4
 1284 00e6 67EE877A 		vmul.f32	s15, s15, s14
 1285 00ea FDEEE77A 		vcvt.s32.f32	s15, s15
 1286 00ee 17EE902A 		vmov	r2, s15	@ int
 1287 00f2 624B     		ldr	r3, .L67
 1288 00f4 5A66     		str	r2, [r3, #100]
 1289 00f6 614B     		ldr	r3, .L67
 1290 00f8 D3ED417A 		vldr.32	s15, [r3, #260]
 1291 00fc 9FED607A 		vldr.32	s14, .L67+4
 1292 0100 67EE877A 		vmul.f32	s15, s15, s14
 1293 0104 FDEEE77A 		vcvt.s32.f32	s15, s15
 1294 0108 17EE902A 		vmov	r2, s15	@ int
 1295 010c 5B4B     		ldr	r3, .L67
 1296 010e 9A66     		str	r2, [r3, #104]
 1297              		.loc 1 213 7
 1298 0110 5A4B     		ldr	r3, .L67
 1299 0112 1B88     		ldrh	r3, [r3]
 1300 0114 43F00203 		orr	r3, r3, #2
 1301 0118 9AB2     		uxth	r2, r3
 1302 011a 584B     		ldr	r3, .L67
 1303 011c 1A80     		strh	r2, [r3]	@ movhi
 1304              		.loc 1 214 7
 1305 011e 574B     		ldr	r3, .L67
 1306 0120 5B6E     		ldr	r3, [r3, #100]
 1307 0122 564A     		ldr	r2, .L67
ARM GAS  /tmp/cc3mS0ZT.s 			page 24


 1308 0124 D366     		str	r3, [r2, #108]
 1309 0126 554B     		ldr	r3, .L67
 1310 0128 1B6E     		ldr	r3, [r3, #96]
 1311 012a 544A     		ldr	r2, .L67
 1312 012c 1367     		str	r3, [r2, #112]
 1313 012e 534B     		ldr	r3, .L67
 1314 0130 9B6E     		ldr	r3, [r3, #104]
 1315 0132 5B42     		rsbs	r3, r3, #0
 1316 0134 514A     		ldr	r2, .L67
 1317 0136 5367     		str	r3, [r2, #116]
 1318 0138 C9E2     		b	.L50
 1319              	.L52:
 1320              		.loc 1 215 16
 1321 013a 504B     		ldr	r3, .L67
 1322 013c 1B88     		ldrh	r3, [r3]
 1323 013e 03F00103 		and	r3, r3, #1
 1324              		.loc 1 215 15
 1325 0142 002B     		cmp	r3, #0
 1326 0144 05D0     		beq	.L53
 1327              		.loc 1 216 7
 1328 0146 4F4A     		ldr	r2, .L67+8
 1329 0148 4F49     		ldr	r1, .L67+12
 1330 014a 5048     		ldr	r0, .L67+16
 1331 014c FFF7FEFF 		bl	enu_of_ecef_pos_i
 1332 0150 BDE2     		b	.L50
 1333              	.L53:
 1334              		.loc 1 217 16
 1335 0152 4A4B     		ldr	r3, .L67
 1336 0154 1B88     		ldrh	r3, [r3]
 1337 0156 5B09     		lsrs	r3, r3, #5
 1338 0158 9BB2     		uxth	r3, r3
 1339 015a 03F00103 		and	r3, r3, #1
 1340              		.loc 1 217 15
 1341 015e 002B     		cmp	r3, #0
 1342 0160 33D0     		beq	.L54
 1343              		.loc 1 219 7
 1344 0162 4B4A     		ldr	r2, .L67+20
 1345 0164 4B49     		ldr	r1, .L67+24
 1346 0166 4C48     		ldr	r0, .L67+28
 1347 0168 FFF7FEFF 		bl	enu_of_ecef_point_f
 1348              		.loc 1 220 7
 1349 016c 434B     		ldr	r3, .L67
 1350 016e 1B88     		ldrh	r3, [r3]
 1351 0170 43F08003 		orr	r3, r3, #128
 1352 0174 9AB2     		uxth	r2, r3
 1353 0176 414B     		ldr	r3, .L67
 1354 0178 1A80     		strh	r2, [r3]	@ movhi
 1355              		.loc 1 221 7
 1356 017a 404B     		ldr	r3, .L67
 1357 017c D3ED427A 		vldr.32	s15, [r3, #264]
 1358 0180 9FED3F7A 		vldr.32	s14, .L67+4
 1359 0184 67EE877A 		vmul.f32	s15, s15, s14
 1360 0188 FDEEE77A 		vcvt.s32.f32	s15, s15
 1361 018c 17EE902A 		vmov	r2, s15	@ int
 1362 0190 3A4B     		ldr	r3, .L67
 1363 0192 DA66     		str	r2, [r3, #108]
 1364 0194 394B     		ldr	r3, .L67
ARM GAS  /tmp/cc3mS0ZT.s 			page 25


 1365 0196 D3ED437A 		vldr.32	s15, [r3, #268]
 1366 019a 9FED397A 		vldr.32	s14, .L67+4
 1367 019e 67EE877A 		vmul.f32	s15, s15, s14
 1368 01a2 FDEEE77A 		vcvt.s32.f32	s15, s15
 1369 01a6 17EE902A 		vmov	r2, s15	@ int
 1370 01aa 344B     		ldr	r3, .L67
 1371 01ac 1A67     		str	r2, [r3, #112]
 1372 01ae 334B     		ldr	r3, .L67
 1373 01b0 D3ED447A 		vldr.32	s15, [r3, #272]
 1374 01b4 9FED327A 		vldr.32	s14, .L67+4
 1375 01b8 67EE877A 		vmul.f32	s15, s15, s14
 1376 01bc FDEEE77A 		vcvt.s32.f32	s15, s15
 1377 01c0 17EE902A 		vmov	r2, s15	@ int
 1378 01c4 2D4B     		ldr	r3, .L67
 1379 01c6 5A67     		str	r2, [r3, #116]
 1380 01c8 81E2     		b	.L50
 1381              	.L54:
 1382              		.loc 1 222 16
 1383 01ca 2C4B     		ldr	r3, .L67
 1384 01cc 1B88     		ldrh	r3, [r3]
 1385 01ce 1B0A     		lsrs	r3, r3, #8
 1386 01d0 9BB2     		uxth	r3, r3
 1387 01d2 03F00103 		and	r3, r3, #1
 1388              		.loc 1 222 15
 1389 01d6 002B     		cmp	r3, #0
 1390 01d8 3ED0     		beq	.L55
 1391              		.loc 1 224 7
 1392 01da 3049     		ldr	r1, .L67+32
 1393 01dc 2C48     		ldr	r0, .L67+20
 1394 01de FFF7FEFF 		bl	ecef_of_lla_f
 1395              		.loc 1 225 7
 1396 01e2 264B     		ldr	r3, .L67
 1397 01e4 1B88     		ldrh	r3, [r3]
 1398 01e6 43F02003 		orr	r3, r3, #32
 1399 01ea 9AB2     		uxth	r2, r3
 1400 01ec 234B     		ldr	r3, .L67
 1401 01ee 1A80     		strh	r2, [r3]	@ movhi
 1402              		.loc 1 226 7
 1403 01f0 274A     		ldr	r2, .L67+20
 1404 01f2 2849     		ldr	r1, .L67+24
 1405 01f4 2848     		ldr	r0, .L67+28
 1406 01f6 FFF7FEFF 		bl	enu_of_ecef_point_f
 1407              		.loc 1 227 7
 1408 01fa 204B     		ldr	r3, .L67
 1409 01fc 1B88     		ldrh	r3, [r3]
 1410 01fe 43F08003 		orr	r3, r3, #128
 1411 0202 9AB2     		uxth	r2, r3
 1412 0204 1D4B     		ldr	r3, .L67
 1413 0206 1A80     		strh	r2, [r3]	@ movhi
 1414              		.loc 1 228 7
 1415 0208 1C4B     		ldr	r3, .L67
 1416 020a D3ED427A 		vldr.32	s15, [r3, #264]
 1417 020e 9FED1C7A 		vldr.32	s14, .L67+4
 1418 0212 67EE877A 		vmul.f32	s15, s15, s14
 1419 0216 FDEEE77A 		vcvt.s32.f32	s15, s15
 1420 021a 17EE902A 		vmov	r2, s15	@ int
 1421 021e 174B     		ldr	r3, .L67
ARM GAS  /tmp/cc3mS0ZT.s 			page 26


 1422 0220 DA66     		str	r2, [r3, #108]
 1423 0222 164B     		ldr	r3, .L67
 1424 0224 D3ED437A 		vldr.32	s15, [r3, #268]
 1425 0228 9FED157A 		vldr.32	s14, .L67+4
 1426 022c 67EE877A 		vmul.f32	s15, s15, s14
 1427 0230 FDEEE77A 		vcvt.s32.f32	s15, s15
 1428 0234 17EE902A 		vmov	r2, s15	@ int
 1429 0238 104B     		ldr	r3, .L67
 1430 023a 1A67     		str	r2, [r3, #112]
 1431 023c 0F4B     		ldr	r3, .L67
 1432 023e D3ED447A 		vldr.32	s15, [r3, #272]
 1433 0242 9FED0F7A 		vldr.32	s14, .L67+4
 1434 0246 67EE877A 		vmul.f32	s15, s15, s14
 1435 024a FDEEE77A 		vcvt.s32.f32	s15, s15
 1436 024e 17EE902A 		vmov	r2, s15	@ int
 1437 0252 0A4B     		ldr	r3, .L67
 1438 0254 5A67     		str	r2, [r3, #116]
 1439 0256 3AE2     		b	.L50
 1440              	.L55:
 1441              		.loc 1 229 16
 1442 0258 084B     		ldr	r3, .L67
 1443 025a 1B88     		ldrh	r3, [r3]
 1444 025c DB08     		lsrs	r3, r3, #3
 1445 025e 9BB2     		uxth	r3, r3
 1446 0260 03F00103 		and	r3, r3, #1
 1447              		.loc 1 229 15
 1448 0264 002B     		cmp	r3, #0
 1449 0266 05D0     		beq	.L56
 1450              		.loc 1 230 7
 1451 0268 0D4A     		ldr	r2, .L67+36
 1452 026a 0749     		ldr	r1, .L67+12
 1453 026c 0748     		ldr	r0, .L67+16
 1454 026e FFF7FEFF 		bl	enu_of_lla_pos_i
 1455 0272 2CE2     		b	.L50
 1456              	.L56:
 1457              		.loc 1 232 13
 1458 0274 0123     		movs	r3, #1
 1459 0276 0193     		str	r3, [sp, #4]
 1460 0278 29E2     		b	.L50
 1461              	.L68:
 1462 027a 00BF     		.align	2
 1463              	.L67:
 1464 027c 00000000 		.word	state
 1465 0280 00008043 		.word	1132462080
 1466 0284 04000000 		.word	state+4
 1467 0288 1C000000 		.word	state+28
 1468 028c 6C000000 		.word	state+108
 1469 0290 98000000 		.word	state+152
 1470 0294 A4000000 		.word	state+164
 1471 0298 08010000 		.word	state+264
 1472 029c 8C000000 		.word	state+140
 1473 02a0 10000000 		.word	state+16
 1474              	.L48:
 1475              		.loc 1 234 19
 1476 02a4 A54B     		ldr	r3, .L69
 1477 02a6 93F8F830 		ldrb	r3, [r3, #248]	@ zero_extendqisi2
 1478              		.loc 1 234 13
ARM GAS  /tmp/cc3mS0ZT.s 			page 27


 1479 02aa 002B     		cmp	r3, #0
 1480 02ac 00F00D82 		beq	.L57
 1481              		.loc 1 235 9
 1482 02b0 A24B     		ldr	r3, .L69
 1483 02b2 1B88     		ldrh	r3, [r3]
 1484 02b4 DB09     		lsrs	r3, r3, #7
 1485 02b6 9BB2     		uxth	r3, r3
 1486 02b8 03F00103 		and	r3, r3, #1
 1487              		.loc 1 235 8
 1488 02bc 002B     		cmp	r3, #0
 1489 02be 27D0     		beq	.L58
 1490              		.loc 1 236 7
 1491 02c0 9E4B     		ldr	r3, .L69
 1492 02c2 D3ED427A 		vldr.32	s15, [r3, #264]
 1493 02c6 9FED9E7A 		vldr.32	s14, .L69+4
 1494 02ca 67EE877A 		vmul.f32	s15, s15, s14
 1495 02ce FDEEE77A 		vcvt.s32.f32	s15, s15
 1496 02d2 17EE902A 		vmov	r2, s15	@ int
 1497 02d6 994B     		ldr	r3, .L69
 1498 02d8 DA66     		str	r2, [r3, #108]
 1499 02da 984B     		ldr	r3, .L69
 1500 02dc D3ED437A 		vldr.32	s15, [r3, #268]
 1501 02e0 9FED977A 		vldr.32	s14, .L69+4
 1502 02e4 67EE877A 		vmul.f32	s15, s15, s14
 1503 02e8 FDEEE77A 		vcvt.s32.f32	s15, s15
 1504 02ec 17EE902A 		vmov	r2, s15	@ int
 1505 02f0 924B     		ldr	r3, .L69
 1506 02f2 1A67     		str	r2, [r3, #112]
 1507 02f4 914B     		ldr	r3, .L69
 1508 02f6 D3ED447A 		vldr.32	s15, [r3, #272]
 1509 02fa 9FED917A 		vldr.32	s14, .L69+4
 1510 02fe 67EE877A 		vmul.f32	s15, s15, s14
 1511 0302 FDEEE77A 		vcvt.s32.f32	s15, s15
 1512 0306 17EE902A 		vmov	r2, s15	@ int
 1513 030a 8C4B     		ldr	r3, .L69
 1514 030c 5A67     		str	r2, [r3, #116]
 1515 030e DEE1     		b	.L50
 1516              	.L58:
 1517              		.loc 1 237 16
 1518 0310 8A4B     		ldr	r3, .L69
 1519 0312 1B88     		ldrh	r3, [r3]
 1520 0314 5B08     		lsrs	r3, r3, #1
 1521 0316 9BB2     		uxth	r3, r3
 1522 0318 03F00103 		and	r3, r3, #1
 1523              		.loc 1 237 15
 1524 031c 002B     		cmp	r3, #0
 1525 031e 0DD0     		beq	.L59
 1526              		.loc 1 238 7
 1527 0320 864B     		ldr	r3, .L69
 1528 0322 5B6E     		ldr	r3, [r3, #100]
 1529 0324 854A     		ldr	r2, .L69
 1530 0326 D366     		str	r3, [r2, #108]
 1531 0328 844B     		ldr	r3, .L69
 1532 032a 1B6E     		ldr	r3, [r3, #96]
 1533 032c 834A     		ldr	r2, .L69
 1534 032e 1367     		str	r3, [r2, #112]
 1535 0330 824B     		ldr	r3, .L69
ARM GAS  /tmp/cc3mS0ZT.s 			page 28


 1536 0332 9B6E     		ldr	r3, [r3, #104]
 1537 0334 5B42     		rsbs	r3, r3, #0
 1538 0336 814A     		ldr	r2, .L69
 1539 0338 5367     		str	r3, [r2, #116]
 1540 033a C8E1     		b	.L50
 1541              	.L59:
 1542              		.loc 1 239 16
 1543 033c 7F4B     		ldr	r3, .L69
 1544 033e 1B88     		ldrh	r3, [r3]
 1545 0340 9B09     		lsrs	r3, r3, #6
 1546 0342 9BB2     		uxth	r3, r3
 1547 0344 03F00103 		and	r3, r3, #1
 1548              		.loc 1 239 15
 1549 0348 002B     		cmp	r3, #0
 1550 034a 3BD0     		beq	.L60
 1551              		.loc 1 240 7
 1552 034c 7B4B     		ldr	r3, .L69
 1553 034e D3ED3F7A 		vldr.32	s15, [r3, #252]
 1554 0352 9FED7B7A 		vldr.32	s14, .L69+4
 1555 0356 67EE877A 		vmul.f32	s15, s15, s14
 1556 035a FDEEE77A 		vcvt.s32.f32	s15, s15
 1557 035e 17EE902A 		vmov	r2, s15	@ int
 1558 0362 764B     		ldr	r3, .L69
 1559 0364 1A66     		str	r2, [r3, #96]
 1560 0366 754B     		ldr	r3, .L69
 1561 0368 D3ED407A 		vldr.32	s15, [r3, #256]
 1562 036c 9FED747A 		vldr.32	s14, .L69+4
 1563 0370 67EE877A 		vmul.f32	s15, s15, s14
 1564 0374 FDEEE77A 		vcvt.s32.f32	s15, s15
 1565 0378 17EE902A 		vmov	r2, s15	@ int
 1566 037c 6F4B     		ldr	r3, .L69
 1567 037e 5A66     		str	r2, [r3, #100]
 1568 0380 6E4B     		ldr	r3, .L69
 1569 0382 D3ED417A 		vldr.32	s15, [r3, #260]
 1570 0386 9FED6E7A 		vldr.32	s14, .L69+4
 1571 038a 67EE877A 		vmul.f32	s15, s15, s14
 1572 038e FDEEE77A 		vcvt.s32.f32	s15, s15
 1573 0392 17EE902A 		vmov	r2, s15	@ int
 1574 0396 694B     		ldr	r3, .L69
 1575 0398 9A66     		str	r2, [r3, #104]
 1576              		.loc 1 241 7
 1577 039a 684B     		ldr	r3, .L69
 1578 039c 1B88     		ldrh	r3, [r3]
 1579 039e 43F00203 		orr	r3, r3, #2
 1580 03a2 9AB2     		uxth	r2, r3
 1581 03a4 654B     		ldr	r3, .L69
 1582 03a6 1A80     		strh	r2, [r3]	@ movhi
 1583              		.loc 1 242 7
 1584 03a8 644B     		ldr	r3, .L69
 1585 03aa 5B6E     		ldr	r3, [r3, #100]
 1586 03ac 634A     		ldr	r2, .L69
 1587 03ae D366     		str	r3, [r2, #108]
 1588 03b0 624B     		ldr	r3, .L69
 1589 03b2 1B6E     		ldr	r3, [r3, #96]
 1590 03b4 614A     		ldr	r2, .L69
 1591 03b6 1367     		str	r3, [r2, #112]
 1592 03b8 604B     		ldr	r3, .L69
ARM GAS  /tmp/cc3mS0ZT.s 			page 29


 1593 03ba 9B6E     		ldr	r3, [r3, #104]
 1594 03bc 5B42     		rsbs	r3, r3, #0
 1595 03be 5F4A     		ldr	r2, .L69
 1596 03c0 5367     		str	r3, [r2, #116]
 1597 03c2 84E1     		b	.L50
 1598              	.L60:
 1599              		.loc 1 243 16
 1600 03c4 5D4B     		ldr	r3, .L69
 1601 03c6 1B88     		ldrh	r3, [r3]
 1602 03c8 5B0A     		lsrs	r3, r3, #9
 1603 03ca 9BB2     		uxth	r3, r3
 1604 03cc 03F00103 		and	r3, r3, #1
 1605              		.loc 1 243 15
 1606 03d0 002B     		cmp	r3, #0
 1607 03d2 4FD0     		beq	.L61
 1608              		.loc 1 245 7
 1609 03d4 594B     		ldr	r3, .L69
 1610 03d6 93ED1F7A 		vldr.32	s14, [r3, #124]
 1611 03da 584B     		ldr	r3, .L69
 1612 03dc D3ED3B7A 		vldr.32	s15, [r3, #236]
 1613 03e0 77EE677A 		vsub.f32	s15, s14, s15
 1614 03e4 554B     		ldr	r3, .L69
 1615 03e6 C3ED427A 		vstr.32	s15, [r3, #264]
 1616 03ea 544B     		ldr	r3, .L69
 1617 03ec 93ED1E7A 		vldr.32	s14, [r3, #120]
 1618 03f0 524B     		ldr	r3, .L69
 1619 03f2 D3ED3A7A 		vldr.32	s15, [r3, #232]
 1620 03f6 77EE677A 		vsub.f32	s15, s14, s15
 1621 03fa 504B     		ldr	r3, .L69
 1622 03fc C3ED437A 		vstr.32	s15, [r3, #268]
 1623 0400 4E4B     		ldr	r3, .L69
 1624 0402 93ED207A 		vldr.32	s14, [r3, #128]
 1625 0406 4D4B     		ldr	r3, .L69
 1626 0408 D3ED3C7A 		vldr.32	s15, [r3, #240]
 1627 040c 77EE677A 		vsub.f32	s15, s14, s15
 1628 0410 4A4B     		ldr	r3, .L69
 1629 0412 C3ED447A 		vstr.32	s15, [r3, #272]
 1630              		.loc 1 246 7
 1631 0416 494B     		ldr	r3, .L69
 1632 0418 1B88     		ldrh	r3, [r3]
 1633 041a 43F08003 		orr	r3, r3, #128
 1634 041e 9AB2     		uxth	r2, r3
 1635 0420 464B     		ldr	r3, .L69
 1636 0422 1A80     		strh	r2, [r3]	@ movhi
 1637              		.loc 1 247 7
 1638 0424 454B     		ldr	r3, .L69
 1639 0426 D3ED427A 		vldr.32	s15, [r3, #264]
 1640 042a 9FED457A 		vldr.32	s14, .L69+4
 1641 042e 67EE877A 		vmul.f32	s15, s15, s14
 1642 0432 FDEEE77A 		vcvt.s32.f32	s15, s15
 1643 0436 17EE902A 		vmov	r2, s15	@ int
 1644 043a 404B     		ldr	r3, .L69
 1645 043c DA66     		str	r2, [r3, #108]
 1646 043e 3F4B     		ldr	r3, .L69
 1647 0440 D3ED437A 		vldr.32	s15, [r3, #268]
 1648 0444 9FED3E7A 		vldr.32	s14, .L69+4
 1649 0448 67EE877A 		vmul.f32	s15, s15, s14
ARM GAS  /tmp/cc3mS0ZT.s 			page 30


 1650 044c FDEEE77A 		vcvt.s32.f32	s15, s15
 1651 0450 17EE902A 		vmov	r2, s15	@ int
 1652 0454 394B     		ldr	r3, .L69
 1653 0456 1A67     		str	r2, [r3, #112]
 1654 0458 384B     		ldr	r3, .L69
 1655 045a D3ED447A 		vldr.32	s15, [r3, #272]
 1656 045e 9FED387A 		vldr.32	s14, .L69+4
 1657 0462 67EE877A 		vmul.f32	s15, s15, s14
 1658 0466 FDEEE77A 		vcvt.s32.f32	s15, s15
 1659 046a 17EE902A 		vmov	r2, s15	@ int
 1660 046e 334B     		ldr	r3, .L69
 1661 0470 5A67     		str	r2, [r3, #116]
 1662 0472 2CE1     		b	.L50
 1663              	.L61:
 1664              		.loc 1 248 16
 1665 0474 314B     		ldr	r3, .L69
 1666 0476 1B88     		ldrh	r3, [r3]
 1667 0478 1B0A     		lsrs	r3, r3, #8
 1668 047a 9BB2     		uxth	r3, r3
 1669 047c 03F00103 		and	r3, r3, #1
 1670              		.loc 1 248 15
 1671 0480 002B     		cmp	r3, #0
 1672 0482 63D0     		beq	.L62
 1673              		.loc 1 250 7
 1674 0484 2F49     		ldr	r1, .L69+8
 1675 0486 3048     		ldr	r0, .L69+12
 1676 0488 FFF7FEFF 		bl	utm_of_lla_f
 1677              		.loc 1 251 7
 1678 048c 2B4B     		ldr	r3, .L69
 1679 048e 1B88     		ldrh	r3, [r3]
 1680 0490 43F40073 		orr	r3, r3, #512
 1681 0494 9AB2     		uxth	r2, r3
 1682 0496 294B     		ldr	r3, .L69
 1683 0498 1A80     		strh	r2, [r3]	@ movhi
 1684              		.loc 1 252 7
 1685 049a 284B     		ldr	r3, .L69
 1686 049c 93ED1F7A 		vldr.32	s14, [r3, #124]
 1687 04a0 264B     		ldr	r3, .L69
 1688 04a2 D3ED3B7A 		vldr.32	s15, [r3, #236]
 1689 04a6 77EE677A 		vsub.f32	s15, s14, s15
 1690 04aa 244B     		ldr	r3, .L69
 1691 04ac C3ED427A 		vstr.32	s15, [r3, #264]
 1692 04b0 224B     		ldr	r3, .L69
 1693 04b2 93ED1E7A 		vldr.32	s14, [r3, #120]
 1694 04b6 214B     		ldr	r3, .L69
 1695 04b8 D3ED3A7A 		vldr.32	s15, [r3, #232]
 1696 04bc 77EE677A 		vsub.f32	s15, s14, s15
 1697 04c0 1E4B     		ldr	r3, .L69
 1698 04c2 C3ED437A 		vstr.32	s15, [r3, #268]
 1699 04c6 1D4B     		ldr	r3, .L69
 1700 04c8 93ED207A 		vldr.32	s14, [r3, #128]
 1701 04cc 1B4B     		ldr	r3, .L69
 1702 04ce D3ED3C7A 		vldr.32	s15, [r3, #240]
 1703 04d2 77EE677A 		vsub.f32	s15, s14, s15
 1704 04d6 194B     		ldr	r3, .L69
 1705 04d8 C3ED447A 		vstr.32	s15, [r3, #272]
 1706              		.loc 1 253 7
ARM GAS  /tmp/cc3mS0ZT.s 			page 31


 1707 04dc 174B     		ldr	r3, .L69
 1708 04de 1B88     		ldrh	r3, [r3]
 1709 04e0 43F08003 		orr	r3, r3, #128
 1710 04e4 9AB2     		uxth	r2, r3
 1711 04e6 154B     		ldr	r3, .L69
 1712 04e8 1A80     		strh	r2, [r3]	@ movhi
 1713              		.loc 1 254 7
 1714 04ea 144B     		ldr	r3, .L69
 1715 04ec D3ED427A 		vldr.32	s15, [r3, #264]
 1716 04f0 9FED137A 		vldr.32	s14, .L69+4
 1717 04f4 67EE877A 		vmul.f32	s15, s15, s14
 1718 04f8 FDEEE77A 		vcvt.s32.f32	s15, s15
 1719 04fc 17EE902A 		vmov	r2, s15	@ int
 1720 0500 0E4B     		ldr	r3, .L69
 1721 0502 DA66     		str	r2, [r3, #108]
 1722 0504 0D4B     		ldr	r3, .L69
 1723 0506 D3ED437A 		vldr.32	s15, [r3, #268]
 1724 050a 9FED0D7A 		vldr.32	s14, .L69+4
 1725 050e 67EE877A 		vmul.f32	s15, s15, s14
 1726 0512 FDEEE77A 		vcvt.s32.f32	s15, s15
 1727 0516 17EE902A 		vmov	r2, s15	@ int
 1728 051a 084B     		ldr	r3, .L69
 1729 051c 1A67     		str	r2, [r3, #112]
 1730 051e 074B     		ldr	r3, .L69
 1731 0520 D3ED447A 		vldr.32	s15, [r3, #272]
 1732 0524 9FED067A 		vldr.32	s14, .L69+4
 1733 0528 67EE877A 		vmul.f32	s15, s15, s14
 1734 052c FDEEE77A 		vcvt.s32.f32	s15, s15
 1735 0530 17EE902A 		vmov	r2, s15	@ int
 1736 0534 014B     		ldr	r3, .L69
 1737 0536 5A67     		str	r2, [r3, #116]
 1738 0538 C9E0     		b	.L50
 1739              	.L70:
 1740 053a 00BF     		.align	2
 1741              	.L69:
 1742 053c 00000000 		.word	state
 1743 0540 00008043 		.word	1132462080
 1744 0544 8C000000 		.word	state+140
 1745 0548 78000000 		.word	state+120
 1746              	.L62:
 1747              		.loc 1 255 16
 1748 054c 6C4B     		ldr	r3, .L71+16
 1749 054e 1B88     		ldrh	r3, [r3]
 1750 0550 DB08     		lsrs	r3, r3, #3
 1751 0552 9BB2     		uxth	r3, r3
 1752 0554 03F00103 		and	r3, r3, #1
 1753              		.loc 1 255 15
 1754 0558 002B     		cmp	r3, #0
 1755 055a 00F0B380 		beq	.L63
 1756              		.loc 1 257 7
 1757 055e 684B     		ldr	r3, .L71+16
 1758 0560 1B69     		ldr	r3, [r3, #16]
 1759 0562 07EE903A 		vmov	s15, r3	@ int
 1760 0566 F8EEE77A 		vcvt.f32.s32	s15, s15
 1761 056a 17EE900A 		vmov	r0, s15
 1762 056e FFF7FEFF 		bl	__aeabi_f2d
 1763 0572 5FA3     		adr	r3, .L71
ARM GAS  /tmp/cc3mS0ZT.s 			page 32


 1764 0574 D3E90023 		ldrd	r2, [r3]
 1765 0578 FFF7FEFF 		bl	__aeabi_dmul
 1766 057c 0246     		mov	r2, r0
 1767 057e 0B46     		mov	r3, r1
 1768 0580 1046     		mov	r0, r2
 1769 0582 1946     		mov	r1, r3
 1770 0584 5CA3     		adr	r3, .L71+8
 1771 0586 D3E90023 		ldrd	r2, [r3]
 1772 058a FFF7FEFF 		bl	__aeabi_ddiv
 1773 058e 0246     		mov	r2, r0
 1774 0590 0B46     		mov	r3, r1
 1775 0592 1046     		mov	r0, r2
 1776 0594 1946     		mov	r1, r3
 1777 0596 FFF7FEFF 		bl	__aeabi_d2f
 1778 059a 0346     		mov	r3, r0	@ float
 1779 059c 584A     		ldr	r2, .L71+16
 1780 059e C2F88C30 		str	r3, [r2, #140]	@ float
 1781 05a2 574B     		ldr	r3, .L71+16
 1782 05a4 5B69     		ldr	r3, [r3, #20]
 1783 05a6 07EE903A 		vmov	s15, r3	@ int
 1784 05aa F8EEE77A 		vcvt.f32.s32	s15, s15
 1785 05ae 17EE900A 		vmov	r0, s15
 1786 05b2 FFF7FEFF 		bl	__aeabi_f2d
 1787 05b6 4EA3     		adr	r3, .L71
 1788 05b8 D3E90023 		ldrd	r2, [r3]
 1789 05bc FFF7FEFF 		bl	__aeabi_dmul
 1790 05c0 0246     		mov	r2, r0
 1791 05c2 0B46     		mov	r3, r1
 1792 05c4 1046     		mov	r0, r2
 1793 05c6 1946     		mov	r1, r3
 1794 05c8 4BA3     		adr	r3, .L71+8
 1795 05ca D3E90023 		ldrd	r2, [r3]
 1796 05ce FFF7FEFF 		bl	__aeabi_ddiv
 1797 05d2 0246     		mov	r2, r0
 1798 05d4 0B46     		mov	r3, r1
 1799 05d6 1046     		mov	r0, r2
 1800 05d8 1946     		mov	r1, r3
 1801 05da FFF7FEFF 		bl	__aeabi_d2f
 1802 05de 0346     		mov	r3, r0	@ float
 1803 05e0 474A     		ldr	r2, .L71+16
 1804 05e2 C2F89030 		str	r3, [r2, #144]	@ float
 1805 05e6 464B     		ldr	r3, .L71+16
 1806 05e8 9B69     		ldr	r3, [r3, #24]
 1807 05ea 07EE903A 		vmov	s15, r3	@ int
 1808 05ee B8EEE77A 		vcvt.f32.s32	s14, s15
 1809 05f2 DFED446A 		vldr.32	s13, .L71+20
 1810 05f6 C7EE267A 		vdiv.f32	s15, s14, s13
 1811 05fa 414B     		ldr	r3, .L71+16
 1812 05fc C3ED257A 		vstr.32	s15, [r3, #148]
 1813              		.loc 1 258 7
 1814 0600 3F4B     		ldr	r3, .L71+16
 1815 0602 1B88     		ldrh	r3, [r3]
 1816 0604 43F48073 		orr	r3, r3, #256
 1817 0608 9AB2     		uxth	r2, r3
 1818 060a 3D4B     		ldr	r3, .L71+16
 1819 060c 1A80     		strh	r2, [r3]	@ movhi
 1820              		.loc 1 259 7
ARM GAS  /tmp/cc3mS0ZT.s 			page 33


 1821 060e 3E49     		ldr	r1, .L71+24
 1822 0610 3E48     		ldr	r0, .L71+28
 1823 0612 FFF7FEFF 		bl	utm_of_lla_f
 1824              		.loc 1 260 7
 1825 0616 3A4B     		ldr	r3, .L71+16
 1826 0618 1B88     		ldrh	r3, [r3]
 1827 061a 43F40073 		orr	r3, r3, #512
 1828 061e 9AB2     		uxth	r2, r3
 1829 0620 374B     		ldr	r3, .L71+16
 1830 0622 1A80     		strh	r2, [r3]	@ movhi
 1831              		.loc 1 261 7
 1832 0624 364B     		ldr	r3, .L71+16
 1833 0626 93ED1F7A 		vldr.32	s14, [r3, #124]
 1834 062a 354B     		ldr	r3, .L71+16
 1835 062c D3ED3B7A 		vldr.32	s15, [r3, #236]
 1836 0630 77EE677A 		vsub.f32	s15, s14, s15
 1837 0634 324B     		ldr	r3, .L71+16
 1838 0636 C3ED427A 		vstr.32	s15, [r3, #264]
 1839 063a 314B     		ldr	r3, .L71+16
 1840 063c 93ED1E7A 		vldr.32	s14, [r3, #120]
 1841 0640 2F4B     		ldr	r3, .L71+16
 1842 0642 D3ED3A7A 		vldr.32	s15, [r3, #232]
 1843 0646 77EE677A 		vsub.f32	s15, s14, s15
 1844 064a 2D4B     		ldr	r3, .L71+16
 1845 064c C3ED437A 		vstr.32	s15, [r3, #268]
 1846 0650 2B4B     		ldr	r3, .L71+16
 1847 0652 93ED207A 		vldr.32	s14, [r3, #128]
 1848 0656 2A4B     		ldr	r3, .L71+16
 1849 0658 D3ED3C7A 		vldr.32	s15, [r3, #240]
 1850 065c 77EE677A 		vsub.f32	s15, s14, s15
 1851 0660 274B     		ldr	r3, .L71+16
 1852 0662 C3ED447A 		vstr.32	s15, [r3, #272]
 1853              		.loc 1 262 7
 1854 0666 264B     		ldr	r3, .L71+16
 1855 0668 1B88     		ldrh	r3, [r3]
 1856 066a 43F08003 		orr	r3, r3, #128
 1857 066e 9AB2     		uxth	r2, r3
 1858 0670 234B     		ldr	r3, .L71+16
 1859 0672 1A80     		strh	r2, [r3]	@ movhi
 1860              		.loc 1 263 7
 1861 0674 224B     		ldr	r3, .L71+16
 1862 0676 D3ED427A 		vldr.32	s15, [r3, #264]
 1863 067a 9FED257A 		vldr.32	s14, .L71+32
 1864 067e 67EE877A 		vmul.f32	s15, s15, s14
 1865 0682 FDEEE77A 		vcvt.s32.f32	s15, s15
 1866 0686 17EE902A 		vmov	r2, s15	@ int
 1867 068a 1D4B     		ldr	r3, .L71+16
 1868 068c DA66     		str	r2, [r3, #108]
 1869 068e 1C4B     		ldr	r3, .L71+16
 1870 0690 D3ED437A 		vldr.32	s15, [r3, #268]
 1871 0694 9FED1E7A 		vldr.32	s14, .L71+32
 1872 0698 67EE877A 		vmul.f32	s15, s15, s14
 1873 069c FDEEE77A 		vcvt.s32.f32	s15, s15
 1874 06a0 17EE902A 		vmov	r2, s15	@ int
 1875 06a4 164B     		ldr	r3, .L71+16
 1876 06a6 1A67     		str	r2, [r3, #112]
 1877 06a8 154B     		ldr	r3, .L71+16
ARM GAS  /tmp/cc3mS0ZT.s 			page 34


 1878 06aa D3ED447A 		vldr.32	s15, [r3, #272]
 1879 06ae 9FED187A 		vldr.32	s14, .L71+32
 1880 06b2 67EE877A 		vmul.f32	s15, s15, s14
 1881 06b6 FDEEE77A 		vcvt.s32.f32	s15, s15
 1882 06ba 17EE902A 		vmov	r2, s15	@ int
 1883 06be 104B     		ldr	r3, .L71+16
 1884 06c0 5A67     		str	r2, [r3, #116]
 1885 06c2 04E0     		b	.L50
 1886              	.L63:
 1887              		.loc 1 265 13
 1888 06c4 0223     		movs	r3, #2
 1889 06c6 0193     		str	r3, [sp, #4]
 1890 06c8 01E0     		b	.L50
 1891              	.L57:
 1892              		.loc 1 268 11
 1893 06ca 0323     		movs	r3, #3
 1894 06cc 0193     		str	r3, [sp, #4]
 1895              	.L50:
 1896              		.loc 1 270 6
 1897 06ce 019B     		ldr	r3, [sp, #4]
 1898 06d0 002B     		cmp	r3, #0
 1899 06d2 09D1     		bne	.L66
 1900              		.loc 1 276 3
 1901 06d4 0A4B     		ldr	r3, .L71+16
 1902 06d6 1B88     		ldrh	r3, [r3]
 1903 06d8 43F00403 		orr	r3, r3, #4
 1904 06dc 9AB2     		uxth	r2, r3
 1905 06de 084B     		ldr	r3, .L71+16
 1906 06e0 1A80     		strh	r2, [r3]	@ movhi
 1907 06e2 02E0     		b	.L45
 1908              	.L65:
 1909              		.loc 1 202 5
 1910 06e4 00BF     		nop
 1911 06e6 00E0     		b	.L45
 1912              	.L66:
 1913              		.loc 1 273 5
 1914 06e8 00BF     		nop
 1915              	.L45:
 1916              		.loc 1 277 1
 1917 06ea 03B0     		add	sp, sp, #12
 1918              		.cfi_def_cfa_offset 4
 1919              		@ sp needed
 1920 06ec 5DF804FB 		ldr	pc, [sp], #4
 1921              	.L72:
 1922              		.align	3
 1923              	.L71:
 1924 06f0 399D52A2 		.word	-1571644103
 1925 06f4 46DF913F 		.word	1066524486
 1926 06f8 00000000 		.word	0
 1927 06fc D0126341 		.word	1097011920
 1928 0700 00000000 		.word	state
 1929 0704 00007A44 		.word	1148846080
 1930 0708 8C000000 		.word	state+140
 1931 070c 78000000 		.word	state+120
 1932 0710 00008043 		.word	1132462080
 1933              		.cfi_endproc
 1934              	.LFE176:
ARM GAS  /tmp/cc3mS0ZT.s 			page 35


 1935              		.size	stateCalcPositionEnu_i, .-stateCalcPositionEnu_i
 1936              		.section	.text.stateCalcPositionLla_i,"ax",%progbits
 1937              		.align	1
 1938              		.p2align 4,,15
 1939              		.global	stateCalcPositionLla_i
 1940              		.syntax unified
 1941              		.thumb
 1942              		.thumb_func
 1943              		.fpu fpv4-sp-d16
 1944              		.type	stateCalcPositionLla_i, %function
 1945              	stateCalcPositionLla_i:
 1946              	.LFB177:
 1947              		.loc 1 287 1
 1948              		.cfi_startproc
 1949              		@ args = 0, pretend = 0, frame = 8
 1950              		@ frame_needed = 0, uses_anonymous_args = 0
 1951 0000 00B5     		push	{lr}
 1952              		.cfi_def_cfa_offset 4
 1953              		.cfi_offset 14, -4
 1954 0002 83B0     		sub	sp, sp, #12
 1955              		.cfi_def_cfa_offset 16
 1956              		.loc 1 288 7
 1957 0004 A84B     		ldr	r3, .L94+16
 1958 0006 1B88     		ldrh	r3, [r3]
 1959 0008 DB08     		lsrs	r3, r3, #3
 1960 000a 9BB2     		uxth	r3, r3
 1961 000c 03F00103 		and	r3, r3, #1
 1962              		.loc 1 288 6
 1963 0010 002B     		cmp	r3, #0
 1964 0012 40F0CD84 		bne	.L92
 1965              		.loc 1 292 7
 1966 0016 0023     		movs	r3, #0
 1967 0018 0193     		str	r3, [sp, #4]
 1968              		.loc 1 293 7
 1969 001a A34B     		ldr	r3, .L94+16
 1970 001c 1B88     		ldrh	r3, [r3]
 1971 001e 03F00103 		and	r3, r3, #1
 1972              		.loc 1 293 6
 1973 0022 002B     		cmp	r3, #0
 1974 0024 05D0     		beq	.L76
 1975              		.loc 1 294 5
 1976 0026 A149     		ldr	r1, .L94+20
 1977 0028 A148     		ldr	r0, .L94+24
 1978 002a FFF7FEFF 		bl	lla_of_ecef_i
 1979 002e 00F0B4BC 		b	.L77
 1980              	.L76:
 1981              		.loc 1 295 14
 1982 0032 9D4B     		ldr	r3, .L94+16
 1983 0034 1B88     		ldrh	r3, [r3]
 1984 0036 5B09     		lsrs	r3, r3, #5
 1985 0038 9BB2     		uxth	r3, r3
 1986 003a 03F00103 		and	r3, r3, #1
 1987              		.loc 1 295 13
 1988 003e 002B     		cmp	r3, #0
 1989 0040 48D0     		beq	.L78
 1990              		.loc 1 297 5
 1991 0042 994B     		ldr	r3, .L94+16
ARM GAS  /tmp/cc3mS0ZT.s 			page 36


 1992 0044 D3F89830 		ldr	r3, [r3, #152]	@ float
 1993 0048 1846     		mov	r0, r3	@ float
 1994 004a FFF7FEFF 		bl	__aeabi_f2d
 1995 004e 4FF00002 		mov	r2, #0
 1996 0052 984B     		ldr	r3, .L94+28
 1997 0054 FFF7FEFF 		bl	__aeabi_dmul
 1998 0058 0246     		mov	r2, r0
 1999 005a 0B46     		mov	r3, r1
 2000 005c 1046     		mov	r0, r2
 2001 005e 1946     		mov	r1, r3
 2002 0060 FFF7FEFF 		bl	__aeabi_d2iz
 2003 0064 0346     		mov	r3, r0
 2004 0066 904A     		ldr	r2, .L94+16
 2005 0068 5360     		str	r3, [r2, #4]
 2006 006a 8F4B     		ldr	r3, .L94+16
 2007 006c D3F89C30 		ldr	r3, [r3, #156]	@ float
 2008 0070 1846     		mov	r0, r3	@ float
 2009 0072 FFF7FEFF 		bl	__aeabi_f2d
 2010 0076 4FF00002 		mov	r2, #0
 2011 007a 8E4B     		ldr	r3, .L94+28
 2012 007c FFF7FEFF 		bl	__aeabi_dmul
 2013 0080 0246     		mov	r2, r0
 2014 0082 0B46     		mov	r3, r1
 2015 0084 1046     		mov	r0, r2
 2016 0086 1946     		mov	r1, r3
 2017 0088 FFF7FEFF 		bl	__aeabi_d2iz
 2018 008c 0346     		mov	r3, r0
 2019 008e 864A     		ldr	r2, .L94+16
 2020 0090 9360     		str	r3, [r2, #8]
 2021 0092 854B     		ldr	r3, .L94+16
 2022 0094 D3F8A030 		ldr	r3, [r3, #160]	@ float
 2023 0098 1846     		mov	r0, r3	@ float
 2024 009a FFF7FEFF 		bl	__aeabi_f2d
 2025 009e 4FF00002 		mov	r2, #0
 2026 00a2 844B     		ldr	r3, .L94+28
 2027 00a4 FFF7FEFF 		bl	__aeabi_dmul
 2028 00a8 0246     		mov	r2, r0
 2029 00aa 0B46     		mov	r3, r1
 2030 00ac 1046     		mov	r0, r2
 2031 00ae 1946     		mov	r1, r3
 2032 00b0 FFF7FEFF 		bl	__aeabi_d2iz
 2033 00b4 0346     		mov	r3, r0
 2034 00b6 7C4A     		ldr	r2, .L94+16
 2035 00b8 D360     		str	r3, [r2, #12]
 2036              		.loc 1 298 5
 2037 00ba 7B4B     		ldr	r3, .L94+16
 2038 00bc 1B88     		ldrh	r3, [r3]
 2039 00be 43F00103 		orr	r3, r3, #1
 2040 00c2 9AB2     		uxth	r2, r3
 2041 00c4 784B     		ldr	r3, .L94+16
 2042 00c6 1A80     		strh	r2, [r3]	@ movhi
 2043              		.loc 1 299 5
 2044 00c8 7849     		ldr	r1, .L94+20
 2045 00ca 7948     		ldr	r0, .L94+24
 2046 00cc FFF7FEFF 		bl	lla_of_ecef_i
 2047 00d0 00F063BC 		b	.L77
 2048              	.L78:
ARM GAS  /tmp/cc3mS0ZT.s 			page 37


 2049              		.loc 1 300 14
 2050 00d4 744B     		ldr	r3, .L94+16
 2051 00d6 1B88     		ldrh	r3, [r3]
 2052 00d8 5B0A     		lsrs	r3, r3, #9
 2053 00da 9BB2     		uxth	r3, r3
 2054 00dc 03F00103 		and	r3, r3, #1
 2055              		.loc 1 300 13
 2056 00e0 002B     		cmp	r3, #0
 2057 00e2 5AD0     		beq	.L79
 2058              		.loc 1 302 5
 2059 00e4 7449     		ldr	r1, .L94+32
 2060 00e6 7548     		ldr	r0, .L94+36
 2061 00e8 FFF7FEFF 		bl	lla_of_utm_f
 2062              		.loc 1 303 5
 2063 00ec 6E4B     		ldr	r3, .L94+16
 2064 00ee 1B88     		ldrh	r3, [r3]
 2065 00f0 43F48073 		orr	r3, r3, #256
 2066 00f4 9AB2     		uxth	r2, r3
 2067 00f6 6C4B     		ldr	r3, .L94+16
 2068 00f8 1A80     		strh	r2, [r3]	@ movhi
 2069              		.loc 1 304 5
 2070 00fa 6B4B     		ldr	r3, .L94+16
 2071 00fc D3F88C30 		ldr	r3, [r3, #140]	@ float
 2072 0100 1846     		mov	r0, r3	@ float
 2073 0102 FFF7FEFF 		bl	__aeabi_f2d
 2074 0106 64A3     		adr	r3, .L94
 2075 0108 D3E90023 		ldrd	r2, [r3]
 2076 010c FFF7FEFF 		bl	__aeabi_dmul
 2077 0110 0246     		mov	r2, r0
 2078 0112 0B46     		mov	r3, r1
 2079 0114 1046     		mov	r0, r2
 2080 0116 1946     		mov	r1, r3
 2081 0118 61A3     		adr	r3, .L94+8
 2082 011a D3E90023 		ldrd	r2, [r3]
 2083 011e FFF7FEFF 		bl	__aeabi_dmul
 2084 0122 0246     		mov	r2, r0
 2085 0124 0B46     		mov	r3, r1
 2086 0126 1046     		mov	r0, r2
 2087 0128 1946     		mov	r1, r3
 2088 012a FFF7FEFF 		bl	__aeabi_d2iz
 2089 012e 0346     		mov	r3, r0
 2090 0130 5D4A     		ldr	r2, .L94+16
 2091 0132 1361     		str	r3, [r2, #16]
 2092 0134 5C4B     		ldr	r3, .L94+16
 2093 0136 D3F89030 		ldr	r3, [r3, #144]	@ float
 2094 013a 1846     		mov	r0, r3	@ float
 2095 013c FFF7FEFF 		bl	__aeabi_f2d
 2096 0140 55A3     		adr	r3, .L94
 2097 0142 D3E90023 		ldrd	r2, [r3]
 2098 0146 FFF7FEFF 		bl	__aeabi_dmul
 2099 014a 0246     		mov	r2, r0
 2100 014c 0B46     		mov	r3, r1
 2101 014e 1046     		mov	r0, r2
 2102 0150 1946     		mov	r1, r3
 2103 0152 53A3     		adr	r3, .L94+8
 2104 0154 D3E90023 		ldrd	r2, [r3]
 2105 0158 FFF7FEFF 		bl	__aeabi_dmul
ARM GAS  /tmp/cc3mS0ZT.s 			page 38


 2106 015c 0246     		mov	r2, r0
 2107 015e 0B46     		mov	r3, r1
 2108 0160 1046     		mov	r0, r2
 2109 0162 1946     		mov	r1, r3
 2110 0164 FFF7FEFF 		bl	__aeabi_d2iz
 2111 0168 0346     		mov	r3, r0
 2112 016a 4F4A     		ldr	r2, .L94+16
 2113 016c 5361     		str	r3, [r2, #20]
 2114 016e 4E4B     		ldr	r3, .L94+16
 2115 0170 D3F89430 		ldr	r3, [r3, #148]	@ float
 2116 0174 1846     		mov	r0, r3	@ float
 2117 0176 FFF7FEFF 		bl	__aeabi_f2d
 2118 017a 4FF00002 		mov	r2, #0
 2119 017e 504B     		ldr	r3, .L94+40
 2120 0180 FFF7FEFF 		bl	__aeabi_dmul
 2121 0184 0246     		mov	r2, r0
 2122 0186 0B46     		mov	r3, r1
 2123 0188 1046     		mov	r0, r2
 2124 018a 1946     		mov	r1, r3
 2125 018c FFF7FEFF 		bl	__aeabi_d2iz
 2126 0190 0346     		mov	r3, r0
 2127 0192 454A     		ldr	r2, .L94+16
 2128 0194 9361     		str	r3, [r2, #24]
 2129 0196 00F000BC 		b	.L77
 2130              	.L79:
 2131              		.loc 1 305 19
 2132 019a 434B     		ldr	r3, .L94+16
 2133 019c 93F85C30 		ldrb	r3, [r3, #92]	@ zero_extendqisi2
 2134              		.loc 1 305 13
 2135 01a0 002B     		cmp	r3, #0
 2136 01a2 00F0E180 		beq	.L80
 2137              		.loc 1 306 9
 2138 01a6 404B     		ldr	r3, .L94+16
 2139 01a8 1B88     		ldrh	r3, [r3]
 2140 01aa 5B08     		lsrs	r3, r3, #1
 2141 01ac 9BB2     		uxth	r3, r3
 2142 01ae 03F00103 		and	r3, r3, #1
 2143              		.loc 1 306 8
 2144 01b2 002B     		cmp	r3, #0
 2145 01b4 10D0     		beq	.L81
 2146              		.loc 1 308 7
 2147 01b6 434A     		ldr	r2, .L94+44
 2148 01b8 4349     		ldr	r1, .L94+48
 2149 01ba 3C48     		ldr	r0, .L94+20
 2150 01bc FFF7FEFF 		bl	ecef_of_ned_pos_i
 2151              		.loc 1 309 7
 2152 01c0 394B     		ldr	r3, .L94+16
 2153 01c2 1B88     		ldrh	r3, [r3]
 2154 01c4 43F00103 		orr	r3, r3, #1
 2155 01c8 9AB2     		uxth	r2, r3
 2156 01ca 374B     		ldr	r3, .L94+16
 2157 01cc 1A80     		strh	r2, [r3]	@ movhi
 2158              		.loc 1 310 7
 2159 01ce 3749     		ldr	r1, .L94+20
 2160 01d0 3748     		ldr	r0, .L94+24
 2161 01d2 FFF7FEFF 		bl	lla_of_ecef_i
 2162 01d6 E0E3     		b	.L77
ARM GAS  /tmp/cc3mS0ZT.s 			page 39


 2163              	.L81:
 2164              		.loc 1 311 16
 2165 01d8 334B     		ldr	r3, .L94+16
 2166 01da 1B88     		ldrh	r3, [r3]
 2167 01dc 9B08     		lsrs	r3, r3, #2
 2168 01de 9BB2     		uxth	r3, r3
 2169 01e0 03F00103 		and	r3, r3, #1
 2170              		.loc 1 311 15
 2171 01e4 002B     		cmp	r3, #0
 2172 01e6 10D0     		beq	.L82
 2173              		.loc 1 313 7
 2174 01e8 384A     		ldr	r2, .L94+52
 2175 01ea 3749     		ldr	r1, .L94+48
 2176 01ec 2F48     		ldr	r0, .L94+20
 2177 01ee FFF7FEFF 		bl	ecef_of_enu_pos_i
 2178              		.loc 1 314 7
 2179 01f2 2D4B     		ldr	r3, .L94+16
 2180 01f4 1B88     		ldrh	r3, [r3]
 2181 01f6 43F00103 		orr	r3, r3, #1
 2182 01fa 9AB2     		uxth	r2, r3
 2183 01fc 2A4B     		ldr	r3, .L94+16
 2184 01fe 1A80     		strh	r2, [r3]	@ movhi
 2185              		.loc 1 315 7
 2186 0200 2A49     		ldr	r1, .L94+20
 2187 0202 2B48     		ldr	r0, .L94+24
 2188 0204 FFF7FEFF 		bl	lla_of_ecef_i
 2189 0208 C7E3     		b	.L77
 2190              	.L82:
 2191              		.loc 1 316 16
 2192 020a 274B     		ldr	r3, .L94+16
 2193 020c 1B88     		ldrh	r3, [r3]
 2194 020e 9B09     		lsrs	r3, r3, #6
 2195 0210 9BB2     		uxth	r3, r3
 2196 0212 03F00103 		and	r3, r3, #1
 2197              		.loc 1 316 15
 2198 0216 002B     		cmp	r3, #0
 2199 0218 5CD0     		beq	.L83
 2200              		.loc 1 318 7
 2201 021a 234B     		ldr	r3, .L94+16
 2202 021c D3ED3F7A 		vldr.32	s15, [r3, #252]
 2203 0220 9FED2B7A 		vldr.32	s14, .L94+56
 2204 0224 67EE877A 		vmul.f32	s15, s15, s14
 2205 0228 FDEEE77A 		vcvt.s32.f32	s15, s15
 2206 022c 17EE902A 		vmov	r2, s15	@ int
 2207 0230 1D4B     		ldr	r3, .L94+16
 2208 0232 1A66     		str	r2, [r3, #96]
 2209 0234 1C4B     		ldr	r3, .L94+16
 2210 0236 D3ED407A 		vldr.32	s15, [r3, #256]
 2211 023a 9FED257A 		vldr.32	s14, .L94+56
 2212 023e 67EE877A 		vmul.f32	s15, s15, s14
 2213 0242 FDEEE77A 		vcvt.s32.f32	s15, s15
 2214 0246 17EE902A 		vmov	r2, s15	@ int
 2215 024a 174B     		ldr	r3, .L94+16
 2216 024c 5A66     		str	r2, [r3, #100]
 2217 024e 164B     		ldr	r3, .L94+16
 2218 0250 D3ED417A 		vldr.32	s15, [r3, #260]
 2219 0254 9FED1E7A 		vldr.32	s14, .L94+56
ARM GAS  /tmp/cc3mS0ZT.s 			page 40


 2220 0258 67EE877A 		vmul.f32	s15, s15, s14
 2221 025c FDEEE77A 		vcvt.s32.f32	s15, s15
 2222 0260 17EE902A 		vmov	r2, s15	@ int
 2223 0264 104B     		ldr	r3, .L94+16
 2224 0266 9A66     		str	r2, [r3, #104]
 2225              		.loc 1 319 7
 2226 0268 0F4B     		ldr	r3, .L94+16
 2227 026a 1B88     		ldrh	r3, [r3]
 2228 026c 43F00203 		orr	r3, r3, #2
 2229 0270 9AB2     		uxth	r2, r3
 2230 0272 0D4B     		ldr	r3, .L94+16
 2231 0274 1A80     		strh	r2, [r3]	@ movhi
 2232              		.loc 1 320 7
 2233 0276 134A     		ldr	r2, .L94+44
 2234 0278 1349     		ldr	r1, .L94+48
 2235 027a 0C48     		ldr	r0, .L94+20
 2236 027c FFF7FEFF 		bl	ecef_of_ned_pos_i
 2237              		.loc 1 321 7
 2238 0280 094B     		ldr	r3, .L94+16
 2239 0282 1B88     		ldrh	r3, [r3]
 2240 0284 43F00103 		orr	r3, r3, #1
 2241 0288 9AB2     		uxth	r2, r3
 2242 028a 074B     		ldr	r3, .L94+16
 2243 028c 1A80     		strh	r2, [r3]	@ movhi
 2244              		.loc 1 322 7
 2245 028e 0749     		ldr	r1, .L94+20
 2246 0290 0748     		ldr	r0, .L94+24
 2247 0292 FFF7FEFF 		bl	lla_of_ecef_i
 2248 0296 80E3     		b	.L77
 2249              	.L95:
 2250              		.align	3
 2251              	.L94:
 2252 0298 F8C1631A 		.word	442745336
 2253 029c DCA54C40 		.word	1078765020
 2254 02a0 00000000 		.word	0
 2255 02a4 D0126341 		.word	1097011920
 2256 02a8 00000000 		.word	state
 2257 02ac 04000000 		.word	state+4
 2258 02b0 10000000 		.word	state+16
 2259 02b4 00005940 		.word	1079574528
 2260 02b8 78000000 		.word	state+120
 2261 02bc 8C000000 		.word	state+140
 2262 02c0 00408F40 		.word	1083129856
 2263 02c4 60000000 		.word	state+96
 2264 02c8 1C000000 		.word	state+28
 2265 02cc 6C000000 		.word	state+108
 2266 02d0 00008043 		.word	1132462080
 2267              	.L83:
 2268              		.loc 1 323 16
 2269 02d4 884B     		ldr	r3, .L96+16
 2270 02d6 1B88     		ldrh	r3, [r3]
 2271 02d8 DB09     		lsrs	r3, r3, #7
 2272 02da 9BB2     		uxth	r3, r3
 2273 02dc 03F00103 		and	r3, r3, #1
 2274              		.loc 1 323 15
 2275 02e0 002B     		cmp	r3, #0
 2276 02e2 3ED0     		beq	.L84
ARM GAS  /tmp/cc3mS0ZT.s 			page 41


 2277              		.loc 1 325 7
 2278 02e4 844B     		ldr	r3, .L96+16
 2279 02e6 D3ED427A 		vldr.32	s15, [r3, #264]
 2280 02ea 9FED847A 		vldr.32	s14, .L96+20
 2281 02ee 67EE877A 		vmul.f32	s15, s15, s14
 2282 02f2 FDEEE77A 		vcvt.s32.f32	s15, s15
 2283 02f6 17EE902A 		vmov	r2, s15	@ int
 2284 02fa 7F4B     		ldr	r3, .L96+16
 2285 02fc DA66     		str	r2, [r3, #108]
 2286 02fe 7E4B     		ldr	r3, .L96+16
 2287 0300 D3ED437A 		vldr.32	s15, [r3, #268]
 2288 0304 9FED7D7A 		vldr.32	s14, .L96+20
 2289 0308 67EE877A 		vmul.f32	s15, s15, s14
 2290 030c FDEEE77A 		vcvt.s32.f32	s15, s15
 2291 0310 17EE902A 		vmov	r2, s15	@ int
 2292 0314 784B     		ldr	r3, .L96+16
 2293 0316 1A67     		str	r2, [r3, #112]
 2294 0318 774B     		ldr	r3, .L96+16
 2295 031a D3ED447A 		vldr.32	s15, [r3, #272]
 2296 031e 9FED777A 		vldr.32	s14, .L96+20
 2297 0322 67EE877A 		vmul.f32	s15, s15, s14
 2298 0326 FDEEE77A 		vcvt.s32.f32	s15, s15
 2299 032a 17EE902A 		vmov	r2, s15	@ int
 2300 032e 724B     		ldr	r3, .L96+16
 2301 0330 5A67     		str	r2, [r3, #116]
 2302              		.loc 1 326 7
 2303 0332 714B     		ldr	r3, .L96+16
 2304 0334 1B88     		ldrh	r3, [r3]
 2305 0336 43F00403 		orr	r3, r3, #4
 2306 033a 9AB2     		uxth	r2, r3
 2307 033c 6E4B     		ldr	r3, .L96+16
 2308 033e 1A80     		strh	r2, [r3]	@ movhi
 2309              		.loc 1 327 7
 2310 0340 6F4A     		ldr	r2, .L96+24
 2311 0342 7049     		ldr	r1, .L96+28
 2312 0344 7048     		ldr	r0, .L96+32
 2313 0346 FFF7FEFF 		bl	ecef_of_enu_pos_i
 2314              		.loc 1 328 7
 2315 034a 6B4B     		ldr	r3, .L96+16
 2316 034c 1B88     		ldrh	r3, [r3]
 2317 034e 43F00103 		orr	r3, r3, #1
 2318 0352 9AB2     		uxth	r2, r3
 2319 0354 684B     		ldr	r3, .L96+16
 2320 0356 1A80     		strh	r2, [r3]	@ movhi
 2321              		.loc 1 329 7
 2322 0358 6B49     		ldr	r1, .L96+32
 2323 035a 6C48     		ldr	r0, .L96+36
 2324 035c FFF7FEFF 		bl	lla_of_ecef_i
 2325 0360 1BE3     		b	.L77
 2326              	.L84:
 2327              		.loc 1 331 13
 2328 0362 0123     		movs	r3, #1
 2329 0364 0193     		str	r3, [sp, #4]
 2330 0366 18E3     		b	.L77
 2331              	.L80:
 2332              		.loc 1 333 19
 2333 0368 634B     		ldr	r3, .L96+16
ARM GAS  /tmp/cc3mS0ZT.s 			page 42


 2334 036a 93F8F830 		ldrb	r3, [r3, #248]	@ zero_extendqisi2
 2335              		.loc 1 333 13
 2336 036e 002B     		cmp	r3, #0
 2337 0370 00F0BA82 		beq	.L85
 2338              		.loc 1 334 9
 2339 0374 604B     		ldr	r3, .L96+16
 2340 0376 1B88     		ldrh	r3, [r3]
 2341 0378 5B08     		lsrs	r3, r3, #1
 2342 037a 9BB2     		uxth	r3, r3
 2343 037c 03F00103 		and	r3, r3, #1
 2344              		.loc 1 334 8
 2345 0380 002B     		cmp	r3, #0
 2346 0382 00F0CB80 		beq	.L86
 2347              		.loc 1 336 7
 2348 0386 5C4B     		ldr	r3, .L96+16
 2349 0388 1B6E     		ldr	r3, [r3, #96]
 2350 038a 07EE903A 		vmov	s15, r3	@ int
 2351 038e B8EEE77A 		vcvt.f32.s32	s14, s15
 2352 0392 DFED5A6A 		vldr.32	s13, .L96+20
 2353 0396 C7EE267A 		vdiv.f32	s15, s14, s13
 2354 039a 574B     		ldr	r3, .L96+16
 2355 039c C3ED3F7A 		vstr.32	s15, [r3, #252]
 2356 03a0 554B     		ldr	r3, .L96+16
 2357 03a2 5B6E     		ldr	r3, [r3, #100]
 2358 03a4 07EE903A 		vmov	s15, r3	@ int
 2359 03a8 B8EEE77A 		vcvt.f32.s32	s14, s15
 2360 03ac DFED536A 		vldr.32	s13, .L96+20
 2361 03b0 C7EE267A 		vdiv.f32	s15, s14, s13
 2362 03b4 504B     		ldr	r3, .L96+16
 2363 03b6 C3ED407A 		vstr.32	s15, [r3, #256]
 2364 03ba 4F4B     		ldr	r3, .L96+16
 2365 03bc 9B6E     		ldr	r3, [r3, #104]
 2366 03be 07EE903A 		vmov	s15, r3	@ int
 2367 03c2 B8EEE77A 		vcvt.f32.s32	s14, s15
 2368 03c6 DFED4D6A 		vldr.32	s13, .L96+20
 2369 03ca C7EE267A 		vdiv.f32	s15, s14, s13
 2370 03ce 4A4B     		ldr	r3, .L96+16
 2371 03d0 C3ED417A 		vstr.32	s15, [r3, #260]
 2372              		.loc 1 337 7
 2373 03d4 484B     		ldr	r3, .L96+16
 2374 03d6 1B88     		ldrh	r3, [r3]
 2375 03d8 43F04003 		orr	r3, r3, #64
 2376 03dc 9AB2     		uxth	r2, r3
 2377 03de 464B     		ldr	r3, .L96+16
 2378 03e0 1A80     		strh	r2, [r3]	@ movhi
 2379              		.loc 1 338 7
 2380 03e2 454B     		ldr	r3, .L96+16
 2381 03e4 93ED3B7A 		vldr.32	s14, [r3, #236]
 2382 03e8 434B     		ldr	r3, .L96+16
 2383 03ea D3ED407A 		vldr.32	s15, [r3, #256]
 2384 03ee 77EE277A 		vadd.f32	s15, s14, s15
 2385 03f2 414B     		ldr	r3, .L96+16
 2386 03f4 C3ED1F7A 		vstr.32	s15, [r3, #124]
 2387 03f8 3F4B     		ldr	r3, .L96+16
 2388 03fa 93ED3A7A 		vldr.32	s14, [r3, #232]
 2389 03fe 3E4B     		ldr	r3, .L96+16
 2390 0400 D3ED3F7A 		vldr.32	s15, [r3, #252]
ARM GAS  /tmp/cc3mS0ZT.s 			page 43


 2391 0404 77EE277A 		vadd.f32	s15, s14, s15
 2392 0408 3B4B     		ldr	r3, .L96+16
 2393 040a C3ED1E7A 		vstr.32	s15, [r3, #120]
 2394 040e 3A4B     		ldr	r3, .L96+16
 2395 0410 93ED3C7A 		vldr.32	s14, [r3, #240]
 2396 0414 384B     		ldr	r3, .L96+16
 2397 0416 D3ED417A 		vldr.32	s15, [r3, #260]
 2398 041a 77EE677A 		vsub.f32	s15, s14, s15
 2399 041e 364B     		ldr	r3, .L96+16
 2400 0420 C3ED207A 		vstr.32	s15, [r3, #128]
 2401              		.loc 1 339 7
 2402 0424 344B     		ldr	r3, .L96+16
 2403 0426 1B88     		ldrh	r3, [r3]
 2404 0428 43F40073 		orr	r3, r3, #512
 2405 042c 9AB2     		uxth	r2, r3
 2406 042e 324B     		ldr	r3, .L96+16
 2407 0430 1A80     		strh	r2, [r3]	@ movhi
 2408              		.loc 1 340 7
 2409 0432 3749     		ldr	r1, .L96+40
 2410 0434 3748     		ldr	r0, .L96+44
 2411 0436 FFF7FEFF 		bl	lla_of_utm_f
 2412              		.loc 1 341 7
 2413 043a 2F4B     		ldr	r3, .L96+16
 2414 043c 1B88     		ldrh	r3, [r3]
 2415 043e 43F48073 		orr	r3, r3, #256
 2416 0442 9AB2     		uxth	r2, r3
 2417 0444 2C4B     		ldr	r3, .L96+16
 2418 0446 1A80     		strh	r2, [r3]	@ movhi
 2419              		.loc 1 342 7
 2420 0448 2B4B     		ldr	r3, .L96+16
 2421 044a D3F88C30 		ldr	r3, [r3, #140]	@ float
 2422 044e 1846     		mov	r0, r3	@ float
 2423 0450 FFF7FEFF 		bl	__aeabi_f2d
 2424 0454 24A3     		adr	r3, .L96
 2425 0456 D3E90023 		ldrd	r2, [r3]
 2426 045a FFF7FEFF 		bl	__aeabi_dmul
 2427 045e 0246     		mov	r2, r0
 2428 0460 0B46     		mov	r3, r1
 2429 0462 1046     		mov	r0, r2
 2430 0464 1946     		mov	r1, r3
 2431 0466 22A3     		adr	r3, .L96+8
 2432 0468 D3E90023 		ldrd	r2, [r3]
 2433 046c FFF7FEFF 		bl	__aeabi_dmul
 2434 0470 0246     		mov	r2, r0
 2435 0472 0B46     		mov	r3, r1
 2436 0474 1046     		mov	r0, r2
 2437 0476 1946     		mov	r1, r3
 2438 0478 FFF7FEFF 		bl	__aeabi_d2iz
 2439 047c 0346     		mov	r3, r0
 2440 047e 1E4A     		ldr	r2, .L96+16
 2441 0480 1361     		str	r3, [r2, #16]
 2442 0482 1D4B     		ldr	r3, .L96+16
 2443 0484 D3F89030 		ldr	r3, [r3, #144]	@ float
 2444 0488 1846     		mov	r0, r3	@ float
 2445 048a FFF7FEFF 		bl	__aeabi_f2d
 2446 048e 16A3     		adr	r3, .L96
 2447 0490 D3E90023 		ldrd	r2, [r3]
ARM GAS  /tmp/cc3mS0ZT.s 			page 44


 2448 0494 FFF7FEFF 		bl	__aeabi_dmul
 2449 0498 0246     		mov	r2, r0
 2450 049a 0B46     		mov	r3, r1
 2451 049c 1046     		mov	r0, r2
 2452 049e 1946     		mov	r1, r3
 2453 04a0 13A3     		adr	r3, .L96+8
 2454 04a2 D3E90023 		ldrd	r2, [r3]
 2455 04a6 FFF7FEFF 		bl	__aeabi_dmul
 2456 04aa 0246     		mov	r2, r0
 2457 04ac 0B46     		mov	r3, r1
 2458 04ae 1046     		mov	r0, r2
 2459 04b0 1946     		mov	r1, r3
 2460 04b2 FFF7FEFF 		bl	__aeabi_d2iz
 2461 04b6 0346     		mov	r3, r0
 2462 04b8 0F4A     		ldr	r2, .L96+16
 2463 04ba 5361     		str	r3, [r2, #20]
 2464 04bc 0E4B     		ldr	r3, .L96+16
 2465 04be D3F89430 		ldr	r3, [r3, #148]	@ float
 2466 04c2 1846     		mov	r0, r3	@ float
 2467 04c4 FFF7FEFF 		bl	__aeabi_f2d
 2468 04c8 4FF00002 		mov	r2, #0
 2469 04cc 124B     		ldr	r3, .L96+48
 2470 04ce FFF7FEFF 		bl	__aeabi_dmul
 2471 04d2 0246     		mov	r2, r0
 2472 04d4 0B46     		mov	r3, r1
 2473 04d6 1046     		mov	r0, r2
 2474 04d8 1946     		mov	r1, r3
 2475 04da FFF7FEFF 		bl	__aeabi_d2iz
 2476 04de 0346     		mov	r3, r0
 2477 04e0 054A     		ldr	r2, .L96+16
 2478 04e2 9361     		str	r3, [r2, #24]
 2479 04e4 59E2     		b	.L77
 2480              	.L97:
 2481 04e6 00BF     		.align	3
 2482              	.L96:
 2483 04e8 F8C1631A 		.word	442745336
 2484 04ec DCA54C40 		.word	1078765020
 2485 04f0 00000000 		.word	0
 2486 04f4 D0126341 		.word	1097011920
 2487 04f8 00000000 		.word	state
 2488 04fc 00008043 		.word	1132462080
 2489 0500 6C000000 		.word	state+108
 2490 0504 1C000000 		.word	state+28
 2491 0508 04000000 		.word	state+4
 2492 050c 10000000 		.word	state+16
 2493 0510 78000000 		.word	state+120
 2494 0514 8C000000 		.word	state+140
 2495 0518 00408F40 		.word	1083129856
 2496              	.L86:
 2497              		.loc 1 343 16
 2498 051c A64B     		ldr	r3, .L98+16
 2499 051e 1B88     		ldrh	r3, [r3]
 2500 0520 9B08     		lsrs	r3, r3, #2
 2501 0522 9BB2     		uxth	r3, r3
 2502 0524 03F00103 		and	r3, r3, #1
 2503              		.loc 1 343 15
 2504 0528 002B     		cmp	r3, #0
ARM GAS  /tmp/cc3mS0ZT.s 			page 45


 2505 052a 00F0B080 		beq	.L87
 2506              		.loc 1 345 7
 2507 052e A24B     		ldr	r3, .L98+16
 2508 0530 DB6E     		ldr	r3, [r3, #108]
 2509 0532 07EE903A 		vmov	s15, r3	@ int
 2510 0536 B8EEE77A 		vcvt.f32.s32	s14, s15
 2511 053a DFEDA06A 		vldr.32	s13, .L98+20
 2512 053e C7EE267A 		vdiv.f32	s15, s14, s13
 2513 0542 9D4B     		ldr	r3, .L98+16
 2514 0544 C3ED427A 		vstr.32	s15, [r3, #264]
 2515 0548 9B4B     		ldr	r3, .L98+16
 2516 054a 1B6F     		ldr	r3, [r3, #112]
 2517 054c 07EE903A 		vmov	s15, r3	@ int
 2518 0550 B8EEE77A 		vcvt.f32.s32	s14, s15
 2519 0554 DFED996A 		vldr.32	s13, .L98+20
 2520 0558 C7EE267A 		vdiv.f32	s15, s14, s13
 2521 055c 964B     		ldr	r3, .L98+16
 2522 055e C3ED437A 		vstr.32	s15, [r3, #268]
 2523 0562 954B     		ldr	r3, .L98+16
 2524 0564 5B6F     		ldr	r3, [r3, #116]
 2525 0566 07EE903A 		vmov	s15, r3	@ int
 2526 056a B8EEE77A 		vcvt.f32.s32	s14, s15
 2527 056e DFED936A 		vldr.32	s13, .L98+20
 2528 0572 C7EE267A 		vdiv.f32	s15, s14, s13
 2529 0576 904B     		ldr	r3, .L98+16
 2530 0578 C3ED447A 		vstr.32	s15, [r3, #272]
 2531              		.loc 1 346 7
 2532 057c 8E4B     		ldr	r3, .L98+16
 2533 057e 1B88     		ldrh	r3, [r3]
 2534 0580 43F08003 		orr	r3, r3, #128
 2535 0584 9AB2     		uxth	r2, r3
 2536 0586 8C4B     		ldr	r3, .L98+16
 2537 0588 1A80     		strh	r2, [r3]	@ movhi
 2538              		.loc 1 347 7
 2539 058a 8B4B     		ldr	r3, .L98+16
 2540 058c 93ED3B7A 		vldr.32	s14, [r3, #236]
 2541 0590 894B     		ldr	r3, .L98+16
 2542 0592 D3ED427A 		vldr.32	s15, [r3, #264]
 2543 0596 77EE277A 		vadd.f32	s15, s14, s15
 2544 059a 874B     		ldr	r3, .L98+16
 2545 059c C3ED1F7A 		vstr.32	s15, [r3, #124]
 2546 05a0 854B     		ldr	r3, .L98+16
 2547 05a2 93ED3A7A 		vldr.32	s14, [r3, #232]
 2548 05a6 844B     		ldr	r3, .L98+16
 2549 05a8 D3ED437A 		vldr.32	s15, [r3, #268]
 2550 05ac 77EE277A 		vadd.f32	s15, s14, s15
 2551 05b0 814B     		ldr	r3, .L98+16
 2552 05b2 C3ED1E7A 		vstr.32	s15, [r3, #120]
 2553 05b6 804B     		ldr	r3, .L98+16
 2554 05b8 93ED3C7A 		vldr.32	s14, [r3, #240]
 2555 05bc 7E4B     		ldr	r3, .L98+16
 2556 05be D3ED447A 		vldr.32	s15, [r3, #272]
 2557 05c2 77EE277A 		vadd.f32	s15, s14, s15
 2558 05c6 7C4B     		ldr	r3, .L98+16
 2559 05c8 C3ED207A 		vstr.32	s15, [r3, #128]
 2560              		.loc 1 348 7
 2561 05cc 7A4B     		ldr	r3, .L98+16
ARM GAS  /tmp/cc3mS0ZT.s 			page 46


 2562 05ce 1B88     		ldrh	r3, [r3]
 2563 05d0 43F40073 		orr	r3, r3, #512
 2564 05d4 9AB2     		uxth	r2, r3
 2565 05d6 784B     		ldr	r3, .L98+16
 2566 05d8 1A80     		strh	r2, [r3]	@ movhi
 2567              		.loc 1 349 7
 2568 05da 7949     		ldr	r1, .L98+24
 2569 05dc 7948     		ldr	r0, .L98+28
 2570 05de FFF7FEFF 		bl	lla_of_utm_f
 2571              		.loc 1 350 7
 2572 05e2 754B     		ldr	r3, .L98+16
 2573 05e4 1B88     		ldrh	r3, [r3]
 2574 05e6 43F48073 		orr	r3, r3, #256
 2575 05ea 9AB2     		uxth	r2, r3
 2576 05ec 724B     		ldr	r3, .L98+16
 2577 05ee 1A80     		strh	r2, [r3]	@ movhi
 2578              		.loc 1 351 7
 2579 05f0 714B     		ldr	r3, .L98+16
 2580 05f2 D3F88C30 		ldr	r3, [r3, #140]	@ float
 2581 05f6 1846     		mov	r0, r3	@ float
 2582 05f8 FFF7FEFF 		bl	__aeabi_f2d
 2583 05fc 6AA3     		adr	r3, .L98
 2584 05fe D3E90023 		ldrd	r2, [r3]
 2585 0602 FFF7FEFF 		bl	__aeabi_dmul
 2586 0606 0246     		mov	r2, r0
 2587 0608 0B46     		mov	r3, r1
 2588 060a 1046     		mov	r0, r2
 2589 060c 1946     		mov	r1, r3
 2590 060e 68A3     		adr	r3, .L98+8
 2591 0610 D3E90023 		ldrd	r2, [r3]
 2592 0614 FFF7FEFF 		bl	__aeabi_dmul
 2593 0618 0246     		mov	r2, r0
 2594 061a 0B46     		mov	r3, r1
 2595 061c 1046     		mov	r0, r2
 2596 061e 1946     		mov	r1, r3
 2597 0620 FFF7FEFF 		bl	__aeabi_d2iz
 2598 0624 0346     		mov	r3, r0
 2599 0626 644A     		ldr	r2, .L98+16
 2600 0628 1361     		str	r3, [r2, #16]
 2601 062a 634B     		ldr	r3, .L98+16
 2602 062c D3F89030 		ldr	r3, [r3, #144]	@ float
 2603 0630 1846     		mov	r0, r3	@ float
 2604 0632 FFF7FEFF 		bl	__aeabi_f2d
 2605 0636 5CA3     		adr	r3, .L98
 2606 0638 D3E90023 		ldrd	r2, [r3]
 2607 063c FFF7FEFF 		bl	__aeabi_dmul
 2608 0640 0246     		mov	r2, r0
 2609 0642 0B46     		mov	r3, r1
 2610 0644 1046     		mov	r0, r2
 2611 0646 1946     		mov	r1, r3
 2612 0648 59A3     		adr	r3, .L98+8
 2613 064a D3E90023 		ldrd	r2, [r3]
 2614 064e FFF7FEFF 		bl	__aeabi_dmul
 2615 0652 0246     		mov	r2, r0
 2616 0654 0B46     		mov	r3, r1
 2617 0656 1046     		mov	r0, r2
 2618 0658 1946     		mov	r1, r3
ARM GAS  /tmp/cc3mS0ZT.s 			page 47


 2619 065a FFF7FEFF 		bl	__aeabi_d2iz
 2620 065e 0346     		mov	r3, r0
 2621 0660 554A     		ldr	r2, .L98+16
 2622 0662 5361     		str	r3, [r2, #20]
 2623 0664 544B     		ldr	r3, .L98+16
 2624 0666 D3F89430 		ldr	r3, [r3, #148]	@ float
 2625 066a 1846     		mov	r0, r3	@ float
 2626 066c FFF7FEFF 		bl	__aeabi_f2d
 2627 0670 4FF00002 		mov	r2, #0
 2628 0674 544B     		ldr	r3, .L98+32
 2629 0676 FFF7FEFF 		bl	__aeabi_dmul
 2630 067a 0246     		mov	r2, r0
 2631 067c 0B46     		mov	r3, r1
 2632 067e 1046     		mov	r0, r2
 2633 0680 1946     		mov	r1, r3
 2634 0682 FFF7FEFF 		bl	__aeabi_d2iz
 2635 0686 0346     		mov	r3, r0
 2636 0688 4B4A     		ldr	r2, .L98+16
 2637 068a 9361     		str	r3, [r2, #24]
 2638 068c 85E1     		b	.L77
 2639              	.L87:
 2640              		.loc 1 352 16
 2641 068e 4A4B     		ldr	r3, .L98+16
 2642 0690 1B88     		ldrh	r3, [r3]
 2643 0692 9B09     		lsrs	r3, r3, #6
 2644 0694 9BB2     		uxth	r3, r3
 2645 0696 03F00103 		and	r3, r3, #1
 2646              		.loc 1 352 15
 2647 069a 002B     		cmp	r3, #0
 2648 069c 00F09680 		beq	.L88
 2649              		.loc 1 354 7
 2650 06a0 454B     		ldr	r3, .L98+16
 2651 06a2 93ED3B7A 		vldr.32	s14, [r3, #236]
 2652 06a6 444B     		ldr	r3, .L98+16
 2653 06a8 D3ED407A 		vldr.32	s15, [r3, #256]
 2654 06ac 77EE277A 		vadd.f32	s15, s14, s15
 2655 06b0 414B     		ldr	r3, .L98+16
 2656 06b2 C3ED1F7A 		vstr.32	s15, [r3, #124]
 2657 06b6 404B     		ldr	r3, .L98+16
 2658 06b8 93ED3A7A 		vldr.32	s14, [r3, #232]
 2659 06bc 3E4B     		ldr	r3, .L98+16
 2660 06be D3ED3F7A 		vldr.32	s15, [r3, #252]
 2661 06c2 77EE277A 		vadd.f32	s15, s14, s15
 2662 06c6 3C4B     		ldr	r3, .L98+16
 2663 06c8 C3ED1E7A 		vstr.32	s15, [r3, #120]
 2664 06cc 3A4B     		ldr	r3, .L98+16
 2665 06ce 93ED3C7A 		vldr.32	s14, [r3, #240]
 2666 06d2 394B     		ldr	r3, .L98+16
 2667 06d4 D3ED417A 		vldr.32	s15, [r3, #260]
 2668 06d8 77EE677A 		vsub.f32	s15, s14, s15
 2669 06dc 364B     		ldr	r3, .L98+16
 2670 06de C3ED207A 		vstr.32	s15, [r3, #128]
 2671              		.loc 1 355 7
 2672 06e2 354B     		ldr	r3, .L98+16
 2673 06e4 1B88     		ldrh	r3, [r3]
 2674 06e6 43F40073 		orr	r3, r3, #512
 2675 06ea 9AB2     		uxth	r2, r3
ARM GAS  /tmp/cc3mS0ZT.s 			page 48


 2676 06ec 324B     		ldr	r3, .L98+16
 2677 06ee 1A80     		strh	r2, [r3]	@ movhi
 2678              		.loc 1 356 7
 2679 06f0 3349     		ldr	r1, .L98+24
 2680 06f2 3448     		ldr	r0, .L98+28
 2681 06f4 FFF7FEFF 		bl	lla_of_utm_f
 2682              		.loc 1 357 7
 2683 06f8 2F4B     		ldr	r3, .L98+16
 2684 06fa 1B88     		ldrh	r3, [r3]
 2685 06fc 43F48073 		orr	r3, r3, #256
 2686 0700 9AB2     		uxth	r2, r3
 2687 0702 2D4B     		ldr	r3, .L98+16
 2688 0704 1A80     		strh	r2, [r3]	@ movhi
 2689              		.loc 1 358 7
 2690 0706 2C4B     		ldr	r3, .L98+16
 2691 0708 D3F88C30 		ldr	r3, [r3, #140]	@ float
 2692 070c 1846     		mov	r0, r3	@ float
 2693 070e FFF7FEFF 		bl	__aeabi_f2d
 2694 0712 25A3     		adr	r3, .L98
 2695 0714 D3E90023 		ldrd	r2, [r3]
 2696 0718 FFF7FEFF 		bl	__aeabi_dmul
 2697 071c 0246     		mov	r2, r0
 2698 071e 0B46     		mov	r3, r1
 2699 0720 1046     		mov	r0, r2
 2700 0722 1946     		mov	r1, r3
 2701 0724 22A3     		adr	r3, .L98+8
 2702 0726 D3E90023 		ldrd	r2, [r3]
 2703 072a FFF7FEFF 		bl	__aeabi_dmul
 2704 072e 0246     		mov	r2, r0
 2705 0730 0B46     		mov	r3, r1
 2706 0732 1046     		mov	r0, r2
 2707 0734 1946     		mov	r1, r3
 2708 0736 FFF7FEFF 		bl	__aeabi_d2iz
 2709 073a 0346     		mov	r3, r0
 2710 073c 1E4A     		ldr	r2, .L98+16
 2711 073e 1361     		str	r3, [r2, #16]
 2712 0740 1D4B     		ldr	r3, .L98+16
 2713 0742 D3F89030 		ldr	r3, [r3, #144]	@ float
 2714 0746 1846     		mov	r0, r3	@ float
 2715 0748 FFF7FEFF 		bl	__aeabi_f2d
 2716 074c 16A3     		adr	r3, .L98
 2717 074e D3E90023 		ldrd	r2, [r3]
 2718 0752 FFF7FEFF 		bl	__aeabi_dmul
 2719 0756 0246     		mov	r2, r0
 2720 0758 0B46     		mov	r3, r1
 2721 075a 1046     		mov	r0, r2
 2722 075c 1946     		mov	r1, r3
 2723 075e 14A3     		adr	r3, .L98+8
 2724 0760 D3E90023 		ldrd	r2, [r3]
 2725 0764 FFF7FEFF 		bl	__aeabi_dmul
 2726 0768 0246     		mov	r2, r0
 2727 076a 0B46     		mov	r3, r1
 2728 076c 1046     		mov	r0, r2
 2729 076e 1946     		mov	r1, r3
 2730 0770 FFF7FEFF 		bl	__aeabi_d2iz
 2731 0774 0346     		mov	r3, r0
 2732 0776 104A     		ldr	r2, .L98+16
ARM GAS  /tmp/cc3mS0ZT.s 			page 49


 2733 0778 5361     		str	r3, [r2, #20]
 2734 077a 0F4B     		ldr	r3, .L98+16
 2735 077c D3F89430 		ldr	r3, [r3, #148]	@ float
 2736 0780 1846     		mov	r0, r3	@ float
 2737 0782 FFF7FEFF 		bl	__aeabi_f2d
 2738 0786 4FF00002 		mov	r2, #0
 2739 078a 0F4B     		ldr	r3, .L98+32
 2740 078c FFF7FEFF 		bl	__aeabi_dmul
 2741 0790 0246     		mov	r2, r0
 2742 0792 0B46     		mov	r3, r1
 2743 0794 1046     		mov	r0, r2
 2744 0796 1946     		mov	r1, r3
 2745 0798 FFF7FEFF 		bl	__aeabi_d2iz
 2746 079c 0346     		mov	r3, r0
 2747 079e 064A     		ldr	r2, .L98+16
 2748 07a0 9361     		str	r3, [r2, #24]
 2749 07a2 FAE0     		b	.L77
 2750              	.L99:
 2751 07a4 AFF30080 		.align	3
 2752              	.L98:
 2753 07a8 F8C1631A 		.word	442745336
 2754 07ac DCA54C40 		.word	1078765020
 2755 07b0 00000000 		.word	0
 2756 07b4 D0126341 		.word	1097011920
 2757 07b8 00000000 		.word	state
 2758 07bc 00008043 		.word	1132462080
 2759 07c0 78000000 		.word	state+120
 2760 07c4 8C000000 		.word	state+140
 2761 07c8 00408F40 		.word	1083129856
 2762              	.L88:
 2763              		.loc 1 359 16
 2764 07cc 804B     		ldr	r3, .L100+16
 2765 07ce 1B88     		ldrh	r3, [r3]
 2766 07d0 DB09     		lsrs	r3, r3, #7
 2767 07d2 9BB2     		uxth	r3, r3
 2768 07d4 03F00103 		and	r3, r3, #1
 2769              		.loc 1 359 15
 2770 07d8 002B     		cmp	r3, #0
 2771 07da 00F08280 		beq	.L89
 2772              		.loc 1 361 7
 2773 07de 7C4B     		ldr	r3, .L100+16
 2774 07e0 93ED3B7A 		vldr.32	s14, [r3, #236]
 2775 07e4 7A4B     		ldr	r3, .L100+16
 2776 07e6 D3ED427A 		vldr.32	s15, [r3, #264]
 2777 07ea 77EE277A 		vadd.f32	s15, s14, s15
 2778 07ee 784B     		ldr	r3, .L100+16
 2779 07f0 C3ED1F7A 		vstr.32	s15, [r3, #124]
 2780 07f4 764B     		ldr	r3, .L100+16
 2781 07f6 93ED3A7A 		vldr.32	s14, [r3, #232]
 2782 07fa 754B     		ldr	r3, .L100+16
 2783 07fc D3ED437A 		vldr.32	s15, [r3, #268]
 2784 0800 77EE277A 		vadd.f32	s15, s14, s15
 2785 0804 724B     		ldr	r3, .L100+16
 2786 0806 C3ED1E7A 		vstr.32	s15, [r3, #120]
 2787 080a 714B     		ldr	r3, .L100+16
 2788 080c 93ED3C7A 		vldr.32	s14, [r3, #240]
 2789 0810 6F4B     		ldr	r3, .L100+16
ARM GAS  /tmp/cc3mS0ZT.s 			page 50


 2790 0812 D3ED447A 		vldr.32	s15, [r3, #272]
 2791 0816 77EE277A 		vadd.f32	s15, s14, s15
 2792 081a 6D4B     		ldr	r3, .L100+16
 2793 081c C3ED207A 		vstr.32	s15, [r3, #128]
 2794              		.loc 1 362 7
 2795 0820 6B4B     		ldr	r3, .L100+16
 2796 0822 1B88     		ldrh	r3, [r3]
 2797 0824 43F40073 		orr	r3, r3, #512
 2798 0828 9AB2     		uxth	r2, r3
 2799 082a 694B     		ldr	r3, .L100+16
 2800 082c 1A80     		strh	r2, [r3]	@ movhi
 2801              		.loc 1 363 7
 2802 082e 6949     		ldr	r1, .L100+20
 2803 0830 6948     		ldr	r0, .L100+24
 2804 0832 FFF7FEFF 		bl	lla_of_utm_f
 2805              		.loc 1 364 7
 2806 0836 664B     		ldr	r3, .L100+16
 2807 0838 1B88     		ldrh	r3, [r3]
 2808 083a 43F48073 		orr	r3, r3, #256
 2809 083e 9AB2     		uxth	r2, r3
 2810 0840 634B     		ldr	r3, .L100+16
 2811 0842 1A80     		strh	r2, [r3]	@ movhi
 2812              		.loc 1 365 7
 2813 0844 624B     		ldr	r3, .L100+16
 2814 0846 D3F88C30 		ldr	r3, [r3, #140]	@ float
 2815 084a 1846     		mov	r0, r3	@ float
 2816 084c FFF7FEFF 		bl	__aeabi_f2d
 2817 0850 5BA3     		adr	r3, .L100
 2818 0852 D3E90023 		ldrd	r2, [r3]
 2819 0856 FFF7FEFF 		bl	__aeabi_dmul
 2820 085a 0246     		mov	r2, r0
 2821 085c 0B46     		mov	r3, r1
 2822 085e 1046     		mov	r0, r2
 2823 0860 1946     		mov	r1, r3
 2824 0862 59A3     		adr	r3, .L100+8
 2825 0864 D3E90023 		ldrd	r2, [r3]
 2826 0868 FFF7FEFF 		bl	__aeabi_dmul
 2827 086c 0246     		mov	r2, r0
 2828 086e 0B46     		mov	r3, r1
 2829 0870 1046     		mov	r0, r2
 2830 0872 1946     		mov	r1, r3
 2831 0874 FFF7FEFF 		bl	__aeabi_d2iz
 2832 0878 0346     		mov	r3, r0
 2833 087a 554A     		ldr	r2, .L100+16
 2834 087c 1361     		str	r3, [r2, #16]
 2835 087e 544B     		ldr	r3, .L100+16
 2836 0880 D3F89030 		ldr	r3, [r3, #144]	@ float
 2837 0884 1846     		mov	r0, r3	@ float
 2838 0886 FFF7FEFF 		bl	__aeabi_f2d
 2839 088a 4DA3     		adr	r3, .L100
 2840 088c D3E90023 		ldrd	r2, [r3]
 2841 0890 FFF7FEFF 		bl	__aeabi_dmul
 2842 0894 0246     		mov	r2, r0
 2843 0896 0B46     		mov	r3, r1
 2844 0898 1046     		mov	r0, r2
 2845 089a 1946     		mov	r1, r3
 2846 089c 4AA3     		adr	r3, .L100+8
ARM GAS  /tmp/cc3mS0ZT.s 			page 51


 2847 089e D3E90023 		ldrd	r2, [r3]
 2848 08a2 FFF7FEFF 		bl	__aeabi_dmul
 2849 08a6 0246     		mov	r2, r0
 2850 08a8 0B46     		mov	r3, r1
 2851 08aa 1046     		mov	r0, r2
 2852 08ac 1946     		mov	r1, r3
 2853 08ae FFF7FEFF 		bl	__aeabi_d2iz
 2854 08b2 0346     		mov	r3, r0
 2855 08b4 464A     		ldr	r2, .L100+16
 2856 08b6 5361     		str	r3, [r2, #20]
 2857 08b8 454B     		ldr	r3, .L100+16
 2858 08ba D3F89430 		ldr	r3, [r3, #148]	@ float
 2859 08be 1846     		mov	r0, r3	@ float
 2860 08c0 FFF7FEFF 		bl	__aeabi_f2d
 2861 08c4 4FF00002 		mov	r2, #0
 2862 08c8 444B     		ldr	r3, .L100+28
 2863 08ca FFF7FEFF 		bl	__aeabi_dmul
 2864 08ce 0246     		mov	r2, r0
 2865 08d0 0B46     		mov	r3, r1
 2866 08d2 1046     		mov	r0, r2
 2867 08d4 1946     		mov	r1, r3
 2868 08d6 FFF7FEFF 		bl	__aeabi_d2iz
 2869 08da 0346     		mov	r3, r0
 2870 08dc 3C4A     		ldr	r2, .L100+16
 2871 08de 9361     		str	r3, [r2, #24]
 2872 08e0 5BE0     		b	.L77
 2873              	.L89:
 2874              		.loc 1 367 13
 2875 08e2 0223     		movs	r3, #2
 2876 08e4 0193     		str	r3, [sp, #4]
 2877 08e6 58E0     		b	.L77
 2878              	.L85:
 2879              		.loc 1 369 14
 2880 08e8 394B     		ldr	r3, .L100+16
 2881 08ea 1B88     		ldrh	r3, [r3]
 2882 08ec 1B0A     		lsrs	r3, r3, #8
 2883 08ee 9BB2     		uxth	r3, r3
 2884 08f0 03F00103 		and	r3, r3, #1
 2885              		.loc 1 369 13
 2886 08f4 002B     		cmp	r3, #0
 2887 08f6 4ED0     		beq	.L90
 2888              		.loc 1 370 5
 2889 08f8 354B     		ldr	r3, .L100+16
 2890 08fa D3F88C30 		ldr	r3, [r3, #140]	@ float
 2891 08fe 1846     		mov	r0, r3	@ float
 2892 0900 FFF7FEFF 		bl	__aeabi_f2d
 2893 0904 2EA3     		adr	r3, .L100
 2894 0906 D3E90023 		ldrd	r2, [r3]
 2895 090a FFF7FEFF 		bl	__aeabi_dmul
 2896 090e 0246     		mov	r2, r0
 2897 0910 0B46     		mov	r3, r1
 2898 0912 1046     		mov	r0, r2
 2899 0914 1946     		mov	r1, r3
 2900 0916 2CA3     		adr	r3, .L100+8
 2901 0918 D3E90023 		ldrd	r2, [r3]
 2902 091c FFF7FEFF 		bl	__aeabi_dmul
 2903 0920 0246     		mov	r2, r0
ARM GAS  /tmp/cc3mS0ZT.s 			page 52


 2904 0922 0B46     		mov	r3, r1
 2905 0924 1046     		mov	r0, r2
 2906 0926 1946     		mov	r1, r3
 2907 0928 FFF7FEFF 		bl	__aeabi_d2iz
 2908 092c 0346     		mov	r3, r0
 2909 092e 284A     		ldr	r2, .L100+16
 2910 0930 1361     		str	r3, [r2, #16]
 2911 0932 274B     		ldr	r3, .L100+16
 2912 0934 D3F89030 		ldr	r3, [r3, #144]	@ float
 2913 0938 1846     		mov	r0, r3	@ float
 2914 093a FFF7FEFF 		bl	__aeabi_f2d
 2915 093e 20A3     		adr	r3, .L100
 2916 0940 D3E90023 		ldrd	r2, [r3]
 2917 0944 FFF7FEFF 		bl	__aeabi_dmul
 2918 0948 0246     		mov	r2, r0
 2919 094a 0B46     		mov	r3, r1
 2920 094c 1046     		mov	r0, r2
 2921 094e 1946     		mov	r1, r3
 2922 0950 1DA3     		adr	r3, .L100+8
 2923 0952 D3E90023 		ldrd	r2, [r3]
 2924 0956 FFF7FEFF 		bl	__aeabi_dmul
 2925 095a 0246     		mov	r2, r0
 2926 095c 0B46     		mov	r3, r1
 2927 095e 1046     		mov	r0, r2
 2928 0960 1946     		mov	r1, r3
 2929 0962 FFF7FEFF 		bl	__aeabi_d2iz
 2930 0966 0346     		mov	r3, r0
 2931 0968 194A     		ldr	r2, .L100+16
 2932 096a 5361     		str	r3, [r2, #20]
 2933 096c 184B     		ldr	r3, .L100+16
 2934 096e D3F89430 		ldr	r3, [r3, #148]	@ float
 2935 0972 1846     		mov	r0, r3	@ float
 2936 0974 FFF7FEFF 		bl	__aeabi_f2d
 2937 0978 4FF00002 		mov	r2, #0
 2938 097c 174B     		ldr	r3, .L100+28
 2939 097e FFF7FEFF 		bl	__aeabi_dmul
 2940 0982 0246     		mov	r2, r0
 2941 0984 0B46     		mov	r3, r1
 2942 0986 1046     		mov	r0, r2
 2943 0988 1946     		mov	r1, r3
 2944 098a FFF7FEFF 		bl	__aeabi_d2iz
 2945 098e 0346     		mov	r3, r0
 2946 0990 0F4A     		ldr	r2, .L100+16
 2947 0992 9361     		str	r3, [r2, #24]
 2948 0994 01E0     		b	.L77
 2949              	.L90:
 2950              		.loc 1 372 11
 2951 0996 0323     		movs	r3, #3
 2952 0998 0193     		str	r3, [sp, #4]
 2953              	.L77:
 2954              		.loc 1 374 6
 2955 099a 019B     		ldr	r3, [sp, #4]
 2956 099c 002B     		cmp	r3, #0
 2957 099e 09D1     		bne	.L93
 2958              		.loc 1 381 3
 2959 09a0 0B4B     		ldr	r3, .L100+16
 2960 09a2 1B88     		ldrh	r3, [r3]
ARM GAS  /tmp/cc3mS0ZT.s 			page 53


 2961 09a4 43F00803 		orr	r3, r3, #8
 2962 09a8 9AB2     		uxth	r2, r3
 2963 09aa 094B     		ldr	r3, .L100+16
 2964 09ac 1A80     		strh	r2, [r3]	@ movhi
 2965 09ae 02E0     		b	.L73
 2966              	.L92:
 2967              		.loc 1 289 5
 2968 09b0 00BF     		nop
 2969 09b2 00E0     		b	.L73
 2970              	.L93:
 2971              		.loc 1 378 5
 2972 09b4 00BF     		nop
 2973              	.L73:
 2974              		.loc 1 382 1
 2975 09b6 03B0     		add	sp, sp, #12
 2976              		.cfi_def_cfa_offset 4
 2977              		@ sp needed
 2978 09b8 5DF804FB 		ldr	pc, [sp], #4
 2979              	.L101:
 2980 09bc AFF30080 		.align	3
 2981              	.L100:
 2982 09c0 F8C1631A 		.word	442745336
 2983 09c4 DCA54C40 		.word	1078765020
 2984 09c8 00000000 		.word	0
 2985 09cc D0126341 		.word	1097011920
 2986 09d0 00000000 		.word	state
 2987 09d4 78000000 		.word	state+120
 2988 09d8 8C000000 		.word	state+140
 2989 09dc 00408F40 		.word	1083129856
 2990              		.cfi_endproc
 2991              	.LFE177:
 2992              		.size	stateCalcPositionLla_i, .-stateCalcPositionLla_i
 2993              		.section	.text.stateCalcPositionUtm_f,"ax",%progbits
 2994              		.align	1
 2995              		.p2align 4,,15
 2996              		.global	stateCalcPositionUtm_f
 2997              		.syntax unified
 2998              		.thumb
 2999              		.thumb_func
 3000              		.fpu fpv4-sp-d16
 3001              		.type	stateCalcPositionUtm_f, %function
 3002              	stateCalcPositionUtm_f:
 3003              	.LFB178:
 3004              		.loc 1 385 1
 3005              		.cfi_startproc
 3006              		@ args = 0, pretend = 0, frame = 0
 3007              		@ frame_needed = 0, uses_anonymous_args = 0
 3008 0000 08B5     		push	{r3, lr}
 3009              		.cfi_def_cfa_offset 8
 3010              		.cfi_offset 3, -8
 3011              		.cfi_offset 14, -4
 3012              		.loc 1 386 7
 3013 0002 9B4B     		ldr	r3, .L114+16
 3014 0004 1B88     		ldrh	r3, [r3]
 3015 0006 5B0A     		lsrs	r3, r3, #9
 3016 0008 9BB2     		uxth	r3, r3
 3017 000a 03F00103 		and	r3, r3, #1
ARM GAS  /tmp/cc3mS0ZT.s 			page 54


 3018              		.loc 1 386 6
 3019 000e 002B     		cmp	r3, #0
 3020 0010 40F09781 		bne	.L112
 3021              		.loc 1 390 7
 3022 0014 964B     		ldr	r3, .L114+16
 3023 0016 1B88     		ldrh	r3, [r3]
 3024 0018 1B0A     		lsrs	r3, r3, #8
 3025 001a 9BB2     		uxth	r3, r3
 3026 001c 03F00103 		and	r3, r3, #1
 3027              		.loc 1 390 6
 3028 0020 002B     		cmp	r3, #0
 3029 0022 04D0     		beq	.L105
 3030              		.loc 1 391 5
 3031 0024 9349     		ldr	r1, .L114+20
 3032 0026 9448     		ldr	r0, .L114+24
 3033 0028 FFF7FEFF 		bl	utm_of_lla_f
 3034 002c 81E1     		b	.L106
 3035              	.L105:
 3036              		.loc 1 392 14
 3037 002e 904B     		ldr	r3, .L114+16
 3038 0030 1B88     		ldrh	r3, [r3]
 3039 0032 DB08     		lsrs	r3, r3, #3
 3040 0034 9BB2     		uxth	r3, r3
 3041 0036 03F00103 		and	r3, r3, #1
 3042              		.loc 1 392 13
 3043 003a 002B     		cmp	r3, #0
 3044 003c 5CD0     		beq	.L107
 3045              		.loc 1 394 5
 3046 003e 8C4B     		ldr	r3, .L114+16
 3047 0040 1B69     		ldr	r3, [r3, #16]
 3048 0042 07EE903A 		vmov	s15, r3	@ int
 3049 0046 F8EEE77A 		vcvt.f32.s32	s15, s15
 3050 004a 17EE900A 		vmov	r0, s15
 3051 004e FFF7FEFF 		bl	__aeabi_f2d
 3052 0052 83A3     		adr	r3, .L114
 3053 0054 D3E90023 		ldrd	r2, [r3]
 3054 0058 FFF7FEFF 		bl	__aeabi_dmul
 3055 005c 0246     		mov	r2, r0
 3056 005e 0B46     		mov	r3, r1
 3057 0060 1046     		mov	r0, r2
 3058 0062 1946     		mov	r1, r3
 3059 0064 80A3     		adr	r3, .L114+8
 3060 0066 D3E90023 		ldrd	r2, [r3]
 3061 006a FFF7FEFF 		bl	__aeabi_ddiv
 3062 006e 0246     		mov	r2, r0
 3063 0070 0B46     		mov	r3, r1
 3064 0072 1046     		mov	r0, r2
 3065 0074 1946     		mov	r1, r3
 3066 0076 FFF7FEFF 		bl	__aeabi_d2f
 3067 007a 0346     		mov	r3, r0	@ float
 3068 007c 7C4A     		ldr	r2, .L114+16
 3069 007e C2F88C30 		str	r3, [r2, #140]	@ float
 3070 0082 7B4B     		ldr	r3, .L114+16
 3071 0084 5B69     		ldr	r3, [r3, #20]
 3072 0086 07EE903A 		vmov	s15, r3	@ int
 3073 008a F8EEE77A 		vcvt.f32.s32	s15, s15
 3074 008e 17EE900A 		vmov	r0, s15
ARM GAS  /tmp/cc3mS0ZT.s 			page 55


 3075 0092 FFF7FEFF 		bl	__aeabi_f2d
 3076 0096 72A3     		adr	r3, .L114
 3077 0098 D3E90023 		ldrd	r2, [r3]
 3078 009c FFF7FEFF 		bl	__aeabi_dmul
 3079 00a0 0246     		mov	r2, r0
 3080 00a2 0B46     		mov	r3, r1
 3081 00a4 1046     		mov	r0, r2
 3082 00a6 1946     		mov	r1, r3
 3083 00a8 6FA3     		adr	r3, .L114+8
 3084 00aa D3E90023 		ldrd	r2, [r3]
 3085 00ae FFF7FEFF 		bl	__aeabi_ddiv
 3086 00b2 0246     		mov	r2, r0
 3087 00b4 0B46     		mov	r3, r1
 3088 00b6 1046     		mov	r0, r2
 3089 00b8 1946     		mov	r1, r3
 3090 00ba FFF7FEFF 		bl	__aeabi_d2f
 3091 00be 0346     		mov	r3, r0	@ float
 3092 00c0 6B4A     		ldr	r2, .L114+16
 3093 00c2 C2F89030 		str	r3, [r2, #144]	@ float
 3094 00c6 6A4B     		ldr	r3, .L114+16
 3095 00c8 9B69     		ldr	r3, [r3, #24]
 3096 00ca 07EE903A 		vmov	s15, r3	@ int
 3097 00ce B8EEE77A 		vcvt.f32.s32	s14, s15
 3098 00d2 DFED6A6A 		vldr.32	s13, .L114+28
 3099 00d6 C7EE267A 		vdiv.f32	s15, s14, s13
 3100 00da 654B     		ldr	r3, .L114+16
 3101 00dc C3ED257A 		vstr.32	s15, [r3, #148]
 3102              		.loc 1 395 5
 3103 00e0 634B     		ldr	r3, .L114+16
 3104 00e2 1B88     		ldrh	r3, [r3]
 3105 00e4 43F48073 		orr	r3, r3, #256
 3106 00e8 9AB2     		uxth	r2, r3
 3107 00ea 614B     		ldr	r3, .L114+16
 3108 00ec 1A80     		strh	r2, [r3]	@ movhi
 3109              		.loc 1 396 5
 3110 00ee 6149     		ldr	r1, .L114+20
 3111 00f0 6148     		ldr	r0, .L114+24
 3112 00f2 FFF7FEFF 		bl	utm_of_lla_f
 3113 00f6 1CE1     		b	.L106
 3114              	.L107:
 3115              		.loc 1 397 19
 3116 00f8 5D4B     		ldr	r3, .L114+16
 3117 00fa 93F8F830 		ldrb	r3, [r3, #248]	@ zero_extendqisi2
 3118              		.loc 1 397 13
 3119 00fe 002B     		cmp	r3, #0
 3120 0100 00F02181 		beq	.L113
 3121              		.loc 1 398 9
 3122 0104 5A4B     		ldr	r3, .L114+16
 3123 0106 1B88     		ldrh	r3, [r3]
 3124 0108 DB09     		lsrs	r3, r3, #7
 3125 010a 9BB2     		uxth	r3, r3
 3126 010c 03F00103 		and	r3, r3, #1
 3127              		.loc 1 398 8
 3128 0110 002B     		cmp	r3, #0
 3129 0112 21D0     		beq	.L109
 3130              		.loc 1 399 7
 3131 0114 564B     		ldr	r3, .L114+16
ARM GAS  /tmp/cc3mS0ZT.s 			page 56


 3132 0116 93ED3B7A 		vldr.32	s14, [r3, #236]
 3133 011a 554B     		ldr	r3, .L114+16
 3134 011c D3ED427A 		vldr.32	s15, [r3, #264]
 3135 0120 77EE277A 		vadd.f32	s15, s14, s15
 3136 0124 524B     		ldr	r3, .L114+16
 3137 0126 C3ED1F7A 		vstr.32	s15, [r3, #124]
 3138 012a 514B     		ldr	r3, .L114+16
 3139 012c 93ED3A7A 		vldr.32	s14, [r3, #232]
 3140 0130 4F4B     		ldr	r3, .L114+16
 3141 0132 D3ED437A 		vldr.32	s15, [r3, #268]
 3142 0136 77EE277A 		vadd.f32	s15, s14, s15
 3143 013a 4D4B     		ldr	r3, .L114+16
 3144 013c C3ED1E7A 		vstr.32	s15, [r3, #120]
 3145 0140 4B4B     		ldr	r3, .L114+16
 3146 0142 93ED3C7A 		vldr.32	s14, [r3, #240]
 3147 0146 4A4B     		ldr	r3, .L114+16
 3148 0148 D3ED447A 		vldr.32	s15, [r3, #272]
 3149 014c 77EE277A 		vadd.f32	s15, s14, s15
 3150 0150 474B     		ldr	r3, .L114+16
 3151 0152 C3ED207A 		vstr.32	s15, [r3, #128]
 3152 0156 ECE0     		b	.L106
 3153              	.L109:
 3154              		.loc 1 400 16
 3155 0158 454B     		ldr	r3, .L114+16
 3156 015a 1B88     		ldrh	r3, [r3]
 3157 015c 9B08     		lsrs	r3, r3, #2
 3158 015e 9BB2     		uxth	r3, r3
 3159 0160 03F00103 		and	r3, r3, #1
 3160              		.loc 1 400 15
 3161 0164 002B     		cmp	r3, #0
 3162 0166 4FD0     		beq	.L110
 3163              		.loc 1 401 7
 3164 0168 414B     		ldr	r3, .L114+16
 3165 016a DB6E     		ldr	r3, [r3, #108]
 3166 016c 07EE903A 		vmov	s15, r3	@ int
 3167 0170 B8EEE77A 		vcvt.f32.s32	s14, s15
 3168 0174 DFED426A 		vldr.32	s13, .L114+32
 3169 0178 C7EE267A 		vdiv.f32	s15, s14, s13
 3170 017c 3C4B     		ldr	r3, .L114+16
 3171 017e C3ED427A 		vstr.32	s15, [r3, #264]
 3172 0182 3B4B     		ldr	r3, .L114+16
 3173 0184 1B6F     		ldr	r3, [r3, #112]
 3174 0186 07EE903A 		vmov	s15, r3	@ int
 3175 018a B8EEE77A 		vcvt.f32.s32	s14, s15
 3176 018e DFED3C6A 		vldr.32	s13, .L114+32
 3177 0192 C7EE267A 		vdiv.f32	s15, s14, s13
 3178 0196 364B     		ldr	r3, .L114+16
 3179 0198 C3ED437A 		vstr.32	s15, [r3, #268]
 3180 019c 344B     		ldr	r3, .L114+16
 3181 019e 5B6F     		ldr	r3, [r3, #116]
 3182 01a0 07EE903A 		vmov	s15, r3	@ int
 3183 01a4 B8EEE77A 		vcvt.f32.s32	s14, s15
 3184 01a8 DFED356A 		vldr.32	s13, .L114+32
 3185 01ac C7EE267A 		vdiv.f32	s15, s14, s13
 3186 01b0 2F4B     		ldr	r3, .L114+16
 3187 01b2 C3ED447A 		vstr.32	s15, [r3, #272]
 3188              		.loc 1 402 7
ARM GAS  /tmp/cc3mS0ZT.s 			page 57


 3189 01b6 2E4B     		ldr	r3, .L114+16
 3190 01b8 1B88     		ldrh	r3, [r3]
 3191 01ba 43F08003 		orr	r3, r3, #128
 3192 01be 9AB2     		uxth	r2, r3
 3193 01c0 2B4B     		ldr	r3, .L114+16
 3194 01c2 1A80     		strh	r2, [r3]	@ movhi
 3195              		.loc 1 403 7
 3196 01c4 2A4B     		ldr	r3, .L114+16
 3197 01c6 93ED3B7A 		vldr.32	s14, [r3, #236]
 3198 01ca 294B     		ldr	r3, .L114+16
 3199 01cc D3ED427A 		vldr.32	s15, [r3, #264]
 3200 01d0 77EE277A 		vadd.f32	s15, s14, s15
 3201 01d4 264B     		ldr	r3, .L114+16
 3202 01d6 C3ED1F7A 		vstr.32	s15, [r3, #124]
 3203 01da 254B     		ldr	r3, .L114+16
 3204 01dc 93ED3A7A 		vldr.32	s14, [r3, #232]
 3205 01e0 234B     		ldr	r3, .L114+16
 3206 01e2 D3ED437A 		vldr.32	s15, [r3, #268]
 3207 01e6 77EE277A 		vadd.f32	s15, s14, s15
 3208 01ea 214B     		ldr	r3, .L114+16
 3209 01ec C3ED1E7A 		vstr.32	s15, [r3, #120]
 3210 01f0 1F4B     		ldr	r3, .L114+16
 3211 01f2 93ED3C7A 		vldr.32	s14, [r3, #240]
 3212 01f6 1E4B     		ldr	r3, .L114+16
 3213 01f8 D3ED447A 		vldr.32	s15, [r3, #272]
 3214 01fc 77EE277A 		vadd.f32	s15, s14, s15
 3215 0200 1B4B     		ldr	r3, .L114+16
 3216 0202 C3ED207A 		vstr.32	s15, [r3, #128]
 3217 0206 94E0     		b	.L106
 3218              	.L110:
 3219              		.loc 1 404 16
 3220 0208 194B     		ldr	r3, .L114+16
 3221 020a 1B88     		ldrh	r3, [r3]
 3222 020c 9B09     		lsrs	r3, r3, #6
 3223 020e 9BB2     		uxth	r3, r3
 3224 0210 03F00103 		and	r3, r3, #1
 3225              		.loc 1 404 15
 3226 0214 002B     		cmp	r3, #0
 3227 0216 35D0     		beq	.L111
 3228              		.loc 1 405 7
 3229 0218 154B     		ldr	r3, .L114+16
 3230 021a 93ED3B7A 		vldr.32	s14, [r3, #236]
 3231 021e 144B     		ldr	r3, .L114+16
 3232 0220 D3ED407A 		vldr.32	s15, [r3, #256]
 3233 0224 77EE277A 		vadd.f32	s15, s14, s15
 3234 0228 114B     		ldr	r3, .L114+16
 3235 022a C3ED1F7A 		vstr.32	s15, [r3, #124]
 3236 022e 104B     		ldr	r3, .L114+16
 3237 0230 93ED3A7A 		vldr.32	s14, [r3, #232]
 3238 0234 0E4B     		ldr	r3, .L114+16
 3239 0236 D3ED3F7A 		vldr.32	s15, [r3, #252]
 3240 023a 77EE277A 		vadd.f32	s15, s14, s15
 3241 023e 0C4B     		ldr	r3, .L114+16
 3242 0240 C3ED1E7A 		vstr.32	s15, [r3, #120]
 3243 0244 0A4B     		ldr	r3, .L114+16
 3244 0246 93ED3C7A 		vldr.32	s14, [r3, #240]
 3245 024a 094B     		ldr	r3, .L114+16
ARM GAS  /tmp/cc3mS0ZT.s 			page 58


 3246 024c D3ED417A 		vldr.32	s15, [r3, #260]
 3247 0250 77EE677A 		vsub.f32	s15, s14, s15
 3248 0254 064B     		ldr	r3, .L114+16
 3249 0256 C3ED207A 		vstr.32	s15, [r3, #128]
 3250 025a 6AE0     		b	.L106
 3251              	.L115:
 3252 025c AFF30080 		.align	3
 3253              	.L114:
 3254 0260 399D52A2 		.word	-1571644103
 3255 0264 46DF913F 		.word	1066524486
 3256 0268 00000000 		.word	0
 3257 026c D0126341 		.word	1097011920
 3258 0270 00000000 		.word	state
 3259 0274 8C000000 		.word	state+140
 3260 0278 78000000 		.word	state+120
 3261 027c 00007A44 		.word	1148846080
 3262 0280 00008043 		.word	1132462080
 3263              	.L111:
 3264              		.loc 1 406 16
 3265 0284 314B     		ldr	r3, .L116
 3266 0286 1B88     		ldrh	r3, [r3]
 3267 0288 5B08     		lsrs	r3, r3, #1
 3268 028a 9BB2     		uxth	r3, r3
 3269 028c 03F00103 		and	r3, r3, #1
 3270              		.loc 1 406 15
 3271 0290 002B     		cmp	r3, #0
 3272 0292 4ED0     		beq	.L106
 3273              		.loc 1 407 7
 3274 0294 2D4B     		ldr	r3, .L116
 3275 0296 1B6E     		ldr	r3, [r3, #96]
 3276 0298 07EE903A 		vmov	s15, r3	@ int
 3277 029c B8EEE77A 		vcvt.f32.s32	s14, s15
 3278 02a0 DFED2B6A 		vldr.32	s13, .L116+4
 3279 02a4 C7EE267A 		vdiv.f32	s15, s14, s13
 3280 02a8 284B     		ldr	r3, .L116
 3281 02aa C3ED3F7A 		vstr.32	s15, [r3, #252]
 3282 02ae 274B     		ldr	r3, .L116
 3283 02b0 5B6E     		ldr	r3, [r3, #100]
 3284 02b2 07EE903A 		vmov	s15, r3	@ int
 3285 02b6 B8EEE77A 		vcvt.f32.s32	s14, s15
 3286 02ba DFED256A 		vldr.32	s13, .L116+4
 3287 02be C7EE267A 		vdiv.f32	s15, s14, s13
 3288 02c2 224B     		ldr	r3, .L116
 3289 02c4 C3ED407A 		vstr.32	s15, [r3, #256]
 3290 02c8 204B     		ldr	r3, .L116
 3291 02ca 9B6E     		ldr	r3, [r3, #104]
 3292 02cc 07EE903A 		vmov	s15, r3	@ int
 3293 02d0 B8EEE77A 		vcvt.f32.s32	s14, s15
 3294 02d4 DFED1E6A 		vldr.32	s13, .L116+4
 3295 02d8 C7EE267A 		vdiv.f32	s15, s14, s13
 3296 02dc 1B4B     		ldr	r3, .L116
 3297 02de C3ED417A 		vstr.32	s15, [r3, #260]
 3298              		.loc 1 408 7
 3299 02e2 1A4B     		ldr	r3, .L116
 3300 02e4 1B88     		ldrh	r3, [r3]
 3301 02e6 43F04003 		orr	r3, r3, #64
 3302 02ea 9AB2     		uxth	r2, r3
ARM GAS  /tmp/cc3mS0ZT.s 			page 59


 3303 02ec 174B     		ldr	r3, .L116
 3304 02ee 1A80     		strh	r2, [r3]	@ movhi
 3305              		.loc 1 409 7
 3306 02f0 164B     		ldr	r3, .L116
 3307 02f2 93ED3B7A 		vldr.32	s14, [r3, #236]
 3308 02f6 154B     		ldr	r3, .L116
 3309 02f8 D3ED407A 		vldr.32	s15, [r3, #256]
 3310 02fc 77EE277A 		vadd.f32	s15, s14, s15
 3311 0300 124B     		ldr	r3, .L116
 3312 0302 C3ED1F7A 		vstr.32	s15, [r3, #124]
 3313 0306 114B     		ldr	r3, .L116
 3314 0308 93ED3A7A 		vldr.32	s14, [r3, #232]
 3315 030c 0F4B     		ldr	r3, .L116
 3316 030e D3ED3F7A 		vldr.32	s15, [r3, #252]
 3317 0312 77EE277A 		vadd.f32	s15, s14, s15
 3318 0316 0D4B     		ldr	r3, .L116
 3319 0318 C3ED1E7A 		vstr.32	s15, [r3, #120]
 3320 031c 0B4B     		ldr	r3, .L116
 3321 031e 93ED3C7A 		vldr.32	s14, [r3, #240]
 3322 0322 0A4B     		ldr	r3, .L116
 3323 0324 D3ED417A 		vldr.32	s15, [r3, #260]
 3324 0328 77EE677A 		vsub.f32	s15, s14, s15
 3325 032c 074B     		ldr	r3, .L116
 3326 032e C3ED207A 		vstr.32	s15, [r3, #128]
 3327              	.L106:
 3328              		.loc 1 418 3
 3329 0332 064B     		ldr	r3, .L116
 3330 0334 1B88     		ldrh	r3, [r3]
 3331 0336 43F40073 		orr	r3, r3, #512
 3332 033a 9AB2     		uxth	r2, r3
 3333 033c 034B     		ldr	r3, .L116
 3334 033e 1A80     		strh	r2, [r3]	@ movhi
 3335 0340 02E0     		b	.L102
 3336              	.L112:
 3337              		.loc 1 387 5
 3338 0342 00BF     		nop
 3339 0344 00E0     		b	.L102
 3340              	.L113:
 3341              		.loc 1 415 5
 3342 0346 00BF     		nop
 3343              	.L102:
 3344              		.loc 1 419 1
 3345 0348 08BD     		pop	{r3, pc}
 3346              	.L117:
 3347 034a 00BF     		.align	2
 3348              	.L116:
 3349 034c 00000000 		.word	state
 3350 0350 00008043 		.word	1132462080
 3351              		.cfi_endproc
 3352              	.LFE178:
 3353              		.size	stateCalcPositionUtm_f, .-stateCalcPositionUtm_f
 3354              		.section	.text.stateCalcPositionEcef_f,"ax",%progbits
 3355              		.align	1
 3356              		.p2align 4,,15
 3357              		.global	stateCalcPositionEcef_f
 3358              		.syntax unified
 3359              		.thumb
ARM GAS  /tmp/cc3mS0ZT.s 			page 60


 3360              		.thumb_func
 3361              		.fpu fpv4-sp-d16
 3362              		.type	stateCalcPositionEcef_f, %function
 3363              	stateCalcPositionEcef_f:
 3364              	.LFB179:
 3365              		.loc 1 422 1
 3366              		.cfi_startproc
 3367              		@ args = 0, pretend = 0, frame = 0
 3368              		@ frame_needed = 0, uses_anonymous_args = 0
 3369 0000 08B5     		push	{r3, lr}
 3370              		.cfi_def_cfa_offset 8
 3371              		.cfi_offset 3, -8
 3372              		.cfi_offset 14, -4
 3373              		.loc 1 423 7
 3374 0002 894B     		ldr	r3, .L129+16
 3375 0004 1B88     		ldrh	r3, [r3]
 3376 0006 5B09     		lsrs	r3, r3, #5
 3377 0008 9BB2     		uxth	r3, r3
 3378 000a 03F00103 		and	r3, r3, #1
 3379              		.loc 1 423 6
 3380 000e 002B     		cmp	r3, #0
 3381 0010 40F0FB80 		bne	.L127
 3382              		.loc 1 427 7
 3383 0014 844B     		ldr	r3, .L129+16
 3384 0016 1B88     		ldrh	r3, [r3]
 3385 0018 03F00103 		and	r3, r3, #1
 3386              		.loc 1 427 6
 3387 001c 002B     		cmp	r3, #0
 3388 001e 27D0     		beq	.L121
 3389              		.loc 1 428 5
 3390 0020 814B     		ldr	r3, .L129+16
 3391 0022 5B68     		ldr	r3, [r3, #4]
 3392 0024 07EE903A 		vmov	s15, r3	@ int
 3393 0028 B8EEE77A 		vcvt.f32.s32	s14, s15
 3394 002c DFED7F6A 		vldr.32	s13, .L129+20
 3395 0030 C7EE267A 		vdiv.f32	s15, s14, s13
 3396 0034 7C4B     		ldr	r3, .L129+16
 3397 0036 C3ED267A 		vstr.32	s15, [r3, #152]
 3398 003a 7B4B     		ldr	r3, .L129+16
 3399 003c 9B68     		ldr	r3, [r3, #8]
 3400 003e 07EE903A 		vmov	s15, r3	@ int
 3401 0042 B8EEE77A 		vcvt.f32.s32	s14, s15
 3402 0046 DFED796A 		vldr.32	s13, .L129+20
 3403 004a C7EE267A 		vdiv.f32	s15, s14, s13
 3404 004e 764B     		ldr	r3, .L129+16
 3405 0050 C3ED277A 		vstr.32	s15, [r3, #156]
 3406 0054 744B     		ldr	r3, .L129+16
 3407 0056 DB68     		ldr	r3, [r3, #12]
 3408 0058 07EE903A 		vmov	s15, r3	@ int
 3409 005c B8EEE77A 		vcvt.f32.s32	s14, s15
 3410 0060 DFED726A 		vldr.32	s13, .L129+20
 3411 0064 C7EE267A 		vdiv.f32	s15, s14, s13
 3412 0068 6F4B     		ldr	r3, .L129+16
 3413 006a C3ED287A 		vstr.32	s15, [r3, #160]
 3414 006e C4E0     		b	.L122
 3415              	.L121:
 3416              		.loc 1 429 14
ARM GAS  /tmp/cc3mS0ZT.s 			page 61


 3417 0070 6D4B     		ldr	r3, .L129+16
 3418 0072 1B88     		ldrh	r3, [r3]
 3419 0074 9B09     		lsrs	r3, r3, #6
 3420 0076 9BB2     		uxth	r3, r3
 3421 0078 03F00103 		and	r3, r3, #1
 3422              		.loc 1 429 13
 3423 007c 002B     		cmp	r3, #0
 3424 007e 0AD0     		beq	.L123
 3425              		.loc 1 429 62 discriminator 1
 3426 0080 694B     		ldr	r3, .L129+16
 3427 0082 93F8E430 		ldrb	r3, [r3, #228]	@ zero_extendqisi2
 3428              		.loc 1 429 54 discriminator 1
 3429 0086 002B     		cmp	r3, #0
 3430 0088 05D0     		beq	.L123
 3431              		.loc 1 430 5
 3432 008a 694A     		ldr	r2, .L129+24
 3433 008c 6949     		ldr	r1, .L129+28
 3434 008e 6A48     		ldr	r0, .L129+32
 3435 0090 FFF7FEFF 		bl	ecef_of_ned_point_f
 3436 0094 B1E0     		b	.L122
 3437              	.L123:
 3438              		.loc 1 431 14
 3439 0096 644B     		ldr	r3, .L129+16
 3440 0098 1B88     		ldrh	r3, [r3]
 3441 009a 5B08     		lsrs	r3, r3, #1
 3442 009c 9BB2     		uxth	r3, r3
 3443 009e 03F00103 		and	r3, r3, #1
 3444              		.loc 1 431 13
 3445 00a2 002B     		cmp	r3, #0
 3446 00a4 38D0     		beq	.L124
 3447              		.loc 1 431 62 discriminator 1
 3448 00a6 604B     		ldr	r3, .L129+16
 3449 00a8 93F85C30 		ldrb	r3, [r3, #92]	@ zero_extendqisi2
 3450              		.loc 1 431 54 discriminator 1
 3451 00ac 002B     		cmp	r3, #0
 3452 00ae 33D0     		beq	.L124
 3453              		.loc 1 433 5
 3454 00b0 624A     		ldr	r2, .L129+36
 3455 00b2 6349     		ldr	r1, .L129+40
 3456 00b4 6348     		ldr	r0, .L129+44
 3457 00b6 FFF7FEFF 		bl	ecef_of_ned_pos_i
 3458              		.loc 1 434 5
 3459 00ba 5B4B     		ldr	r3, .L129+16
 3460 00bc 1B88     		ldrh	r3, [r3]
 3461 00be 43F02003 		orr	r3, r3, #32
 3462 00c2 9AB2     		uxth	r2, r3
 3463 00c4 584B     		ldr	r3, .L129+16
 3464 00c6 1A80     		strh	r2, [r3]	@ movhi
 3465              		.loc 1 435 5
 3466 00c8 574B     		ldr	r3, .L129+16
 3467 00ca 5B68     		ldr	r3, [r3, #4]
 3468 00cc 07EE903A 		vmov	s15, r3	@ int
 3469 00d0 B8EEE77A 		vcvt.f32.s32	s14, s15
 3470 00d4 DFED556A 		vldr.32	s13, .L129+20
 3471 00d8 C7EE267A 		vdiv.f32	s15, s14, s13
 3472 00dc 524B     		ldr	r3, .L129+16
 3473 00de C3ED267A 		vstr.32	s15, [r3, #152]
ARM GAS  /tmp/cc3mS0ZT.s 			page 62


 3474 00e2 514B     		ldr	r3, .L129+16
 3475 00e4 9B68     		ldr	r3, [r3, #8]
 3476 00e6 07EE903A 		vmov	s15, r3	@ int
 3477 00ea B8EEE77A 		vcvt.f32.s32	s14, s15
 3478 00ee DFED4F6A 		vldr.32	s13, .L129+20
 3479 00f2 C7EE267A 		vdiv.f32	s15, s14, s13
 3480 00f6 4C4B     		ldr	r3, .L129+16
 3481 00f8 C3ED277A 		vstr.32	s15, [r3, #156]
 3482 00fc 4A4B     		ldr	r3, .L129+16
 3483 00fe DB68     		ldr	r3, [r3, #12]
 3484 0100 07EE903A 		vmov	s15, r3	@ int
 3485 0104 B8EEE77A 		vcvt.f32.s32	s14, s15
 3486 0108 DFED486A 		vldr.32	s13, .L129+20
 3487 010c C7EE267A 		vdiv.f32	s15, s14, s13
 3488 0110 454B     		ldr	r3, .L129+16
 3489 0112 C3ED287A 		vstr.32	s15, [r3, #160]
 3490 0116 70E0     		b	.L122
 3491              	.L124:
 3492              		.loc 1 436 14
 3493 0118 434B     		ldr	r3, .L129+16
 3494 011a 1B88     		ldrh	r3, [r3]
 3495 011c 1B0A     		lsrs	r3, r3, #8
 3496 011e 9BB2     		uxth	r3, r3
 3497 0120 03F00103 		and	r3, r3, #1
 3498              		.loc 1 436 13
 3499 0124 002B     		cmp	r3, #0
 3500 0126 04D0     		beq	.L125
 3501              		.loc 1 437 5
 3502 0128 4749     		ldr	r1, .L129+48
 3503 012a 4348     		ldr	r0, .L129+32
 3504 012c FFF7FEFF 		bl	ecef_of_lla_f
 3505 0130 63E0     		b	.L122
 3506              	.L125:
 3507              		.loc 1 438 14
 3508 0132 3D4B     		ldr	r3, .L129+16
 3509 0134 1B88     		ldrh	r3, [r3]
 3510 0136 DB08     		lsrs	r3, r3, #3
 3511 0138 9BB2     		uxth	r3, r3
 3512 013a 03F00103 		and	r3, r3, #1
 3513              		.loc 1 438 13
 3514 013e 002B     		cmp	r3, #0
 3515 0140 65D0     		beq	.L128
 3516              		.loc 1 439 5
 3517 0142 394B     		ldr	r3, .L129+16
 3518 0144 1B69     		ldr	r3, [r3, #16]
 3519 0146 07EE903A 		vmov	s15, r3	@ int
 3520 014a F8EEE77A 		vcvt.f32.s32	s15, s15
 3521 014e 17EE900A 		vmov	r0, s15
 3522 0152 FFF7FEFF 		bl	__aeabi_f2d
 3523 0156 30A3     		adr	r3, .L129
 3524 0158 D3E90023 		ldrd	r2, [r3]
 3525 015c FFF7FEFF 		bl	__aeabi_dmul
 3526 0160 0246     		mov	r2, r0
 3527 0162 0B46     		mov	r3, r1
 3528 0164 1046     		mov	r0, r2
 3529 0166 1946     		mov	r1, r3
 3530 0168 2DA3     		adr	r3, .L129+8
ARM GAS  /tmp/cc3mS0ZT.s 			page 63


 3531 016a D3E90023 		ldrd	r2, [r3]
 3532 016e FFF7FEFF 		bl	__aeabi_ddiv
 3533 0172 0246     		mov	r2, r0
 3534 0174 0B46     		mov	r3, r1
 3535 0176 1046     		mov	r0, r2
 3536 0178 1946     		mov	r1, r3
 3537 017a FFF7FEFF 		bl	__aeabi_d2f
 3538 017e 0346     		mov	r3, r0	@ float
 3539 0180 294A     		ldr	r2, .L129+16
 3540 0182 C2F88C30 		str	r3, [r2, #140]	@ float
 3541 0186 284B     		ldr	r3, .L129+16
 3542 0188 5B69     		ldr	r3, [r3, #20]
 3543 018a 07EE903A 		vmov	s15, r3	@ int
 3544 018e F8EEE77A 		vcvt.f32.s32	s15, s15
 3545 0192 17EE900A 		vmov	r0, s15
 3546 0196 FFF7FEFF 		bl	__aeabi_f2d
 3547 019a 1FA3     		adr	r3, .L129
 3548 019c D3E90023 		ldrd	r2, [r3]
 3549 01a0 FFF7FEFF 		bl	__aeabi_dmul
 3550 01a4 0246     		mov	r2, r0
 3551 01a6 0B46     		mov	r3, r1
 3552 01a8 1046     		mov	r0, r2
 3553 01aa 1946     		mov	r1, r3
 3554 01ac 1CA3     		adr	r3, .L129+8
 3555 01ae D3E90023 		ldrd	r2, [r3]
 3556 01b2 FFF7FEFF 		bl	__aeabi_ddiv
 3557 01b6 0246     		mov	r2, r0
 3558 01b8 0B46     		mov	r3, r1
 3559 01ba 1046     		mov	r0, r2
 3560 01bc 1946     		mov	r1, r3
 3561 01be FFF7FEFF 		bl	__aeabi_d2f
 3562 01c2 0346     		mov	r3, r0	@ float
 3563 01c4 184A     		ldr	r2, .L129+16
 3564 01c6 C2F89030 		str	r3, [r2, #144]	@ float
 3565 01ca 174B     		ldr	r3, .L129+16
 3566 01cc 9B69     		ldr	r3, [r3, #24]
 3567 01ce 07EE903A 		vmov	s15, r3	@ int
 3568 01d2 B8EEE77A 		vcvt.f32.s32	s14, s15
 3569 01d6 DFED1D6A 		vldr.32	s13, .L129+52
 3570 01da C7EE267A 		vdiv.f32	s15, s14, s13
 3571 01de 124B     		ldr	r3, .L129+16
 3572 01e0 C3ED257A 		vstr.32	s15, [r3, #148]
 3573              		.loc 1 440 5
 3574 01e4 104B     		ldr	r3, .L129+16
 3575 01e6 1B88     		ldrh	r3, [r3]
 3576 01e8 43F48073 		orr	r3, r3, #256
 3577 01ec 9AB2     		uxth	r2, r3
 3578 01ee 0E4B     		ldr	r3, .L129+16
 3579 01f0 1A80     		strh	r2, [r3]	@ movhi
 3580              		.loc 1 441 5
 3581 01f2 1549     		ldr	r1, .L129+48
 3582 01f4 1048     		ldr	r0, .L129+32
 3583 01f6 FFF7FEFF 		bl	ecef_of_lla_f
 3584              	.L122:
 3585              		.loc 1 449 3
 3586 01fa 0B4B     		ldr	r3, .L129+16
 3587 01fc 1B88     		ldrh	r3, [r3]
ARM GAS  /tmp/cc3mS0ZT.s 			page 64


 3588 01fe 43F02003 		orr	r3, r3, #32
 3589 0202 9AB2     		uxth	r2, r3
 3590 0204 084B     		ldr	r3, .L129+16
 3591 0206 1A80     		strh	r2, [r3]	@ movhi
 3592 0208 02E0     		b	.L118
 3593              	.L127:
 3594              		.loc 1 424 5
 3595 020a 00BF     		nop
 3596 020c 00E0     		b	.L118
 3597              	.L128:
 3598              		.loc 1 446 5
 3599 020e 00BF     		nop
 3600              	.L118:
 3601              		.loc 1 450 1
 3602 0210 08BD     		pop	{r3, pc}
 3603              	.L130:
 3604 0212 00BFAFF3 		.align	3
 3604      0080
 3605              	.L129:
 3606 0218 399D52A2 		.word	-1571644103
 3607 021c 46DF913F 		.word	1066524486
 3608 0220 00000000 		.word	0
 3609 0224 D0126341 		.word	1097011920
 3610 0228 00000000 		.word	state
 3611 022c 0000C842 		.word	1120403456
 3612 0230 FC000000 		.word	state+252
 3613 0234 A4000000 		.word	state+164
 3614 0238 98000000 		.word	state+152
 3615 023c 60000000 		.word	state+96
 3616 0240 1C000000 		.word	state+28
 3617 0244 04000000 		.word	state+4
 3618 0248 8C000000 		.word	state+140
 3619 024c 00007A44 		.word	1148846080
 3620              		.cfi_endproc
 3621              	.LFE179:
 3622              		.size	stateCalcPositionEcef_f, .-stateCalcPositionEcef_f
 3623              		.section	.text.stateCalcPositionNed_f,"ax",%progbits
 3624              		.align	1
 3625              		.p2align 4,,15
 3626              		.global	stateCalcPositionNed_f
 3627              		.syntax unified
 3628              		.thumb
 3629              		.thumb_func
 3630              		.fpu fpv4-sp-d16
 3631              		.type	stateCalcPositionNed_f, %function
 3632              	stateCalcPositionNed_f:
 3633              	.LFB180:
 3634              		.loc 1 453 1
 3635              		.cfi_startproc
 3636              		@ args = 0, pretend = 0, frame = 8
 3637              		@ frame_needed = 0, uses_anonymous_args = 0
 3638 0000 00B5     		push	{lr}
 3639              		.cfi_def_cfa_offset 4
 3640              		.cfi_offset 14, -4
 3641 0002 83B0     		sub	sp, sp, #12
 3642              		.cfi_def_cfa_offset 16
 3643              		.loc 1 454 7
ARM GAS  /tmp/cc3mS0ZT.s 			page 65


 3644 0004 B04B     		ldr	r3, .L151
 3645 0006 1B88     		ldrh	r3, [r3]
 3646 0008 9B09     		lsrs	r3, r3, #6
 3647 000a 9BB2     		uxth	r3, r3
 3648 000c 03F00103 		and	r3, r3, #1
 3649              		.loc 1 454 6
 3650 0010 002B     		cmp	r3, #0
 3651 0012 40F08782 		bne	.L149
 3652              		.loc 1 458 7
 3653 0016 0023     		movs	r3, #0
 3654 0018 0193     		str	r3, [sp, #4]
 3655              		.loc 1 459 12
 3656 001a AB4B     		ldr	r3, .L151
 3657 001c 93F8E430 		ldrb	r3, [r3, #228]	@ zero_extendqisi2
 3658              		.loc 1 459 6
 3659 0020 002B     		cmp	r3, #0
 3660 0022 00F0D080 		beq	.L134
 3661              		.loc 1 460 9
 3662 0026 A84B     		ldr	r3, .L151
 3663 0028 1B88     		ldrh	r3, [r3]
 3664 002a 5B08     		lsrs	r3, r3, #1
 3665 002c 9BB2     		uxth	r3, r3
 3666 002e 03F00103 		and	r3, r3, #1
 3667              		.loc 1 460 8
 3668 0032 002B     		cmp	r3, #0
 3669 0034 27D0     		beq	.L135
 3670              		.loc 1 461 7
 3671 0036 A44B     		ldr	r3, .L151
 3672 0038 1B6E     		ldr	r3, [r3, #96]
 3673 003a 07EE903A 		vmov	s15, r3	@ int
 3674 003e B8EEE77A 		vcvt.f32.s32	s14, s15
 3675 0042 DFEDA26A 		vldr.32	s13, .L151+4
 3676 0046 C7EE267A 		vdiv.f32	s15, s14, s13
 3677 004a 9F4B     		ldr	r3, .L151
 3678 004c C3ED3F7A 		vstr.32	s15, [r3, #252]
 3679 0050 9D4B     		ldr	r3, .L151
 3680 0052 5B6E     		ldr	r3, [r3, #100]
 3681 0054 07EE903A 		vmov	s15, r3	@ int
 3682 0058 B8EEE77A 		vcvt.f32.s32	s14, s15
 3683 005c DFED9B6A 		vldr.32	s13, .L151+4
 3684 0060 C7EE267A 		vdiv.f32	s15, s14, s13
 3685 0064 984B     		ldr	r3, .L151
 3686 0066 C3ED407A 		vstr.32	s15, [r3, #256]
 3687 006a 974B     		ldr	r3, .L151
 3688 006c 9B6E     		ldr	r3, [r3, #104]
 3689 006e 07EE903A 		vmov	s15, r3	@ int
 3690 0072 B8EEE77A 		vcvt.f32.s32	s14, s15
 3691 0076 DFED956A 		vldr.32	s13, .L151+4
 3692 007a C7EE267A 		vdiv.f32	s15, s14, s13
 3693 007e 924B     		ldr	r3, .L151
 3694 0080 C3ED417A 		vstr.32	s15, [r3, #260]
 3695 0084 43E2     		b	.L136
 3696              	.L135:
 3697              		.loc 1 462 16
 3698 0086 904B     		ldr	r3, .L151
 3699 0088 1B88     		ldrh	r3, [r3]
 3700 008a 5B09     		lsrs	r3, r3, #5
ARM GAS  /tmp/cc3mS0ZT.s 			page 66


 3701 008c 9BB2     		uxth	r3, r3
 3702 008e 03F00103 		and	r3, r3, #1
 3703              		.loc 1 462 15
 3704 0092 002B     		cmp	r3, #0
 3705 0094 05D0     		beq	.L137
 3706              		.loc 1 463 7
 3707 0096 8E4A     		ldr	r2, .L151+8
 3708 0098 8E49     		ldr	r1, .L151+12
 3709 009a 8F48     		ldr	r0, .L151+16
 3710 009c FFF7FEFF 		bl	ned_of_ecef_point_f
 3711 00a0 35E2     		b	.L136
 3712              	.L137:
 3713              		.loc 1 464 16
 3714 00a2 894B     		ldr	r3, .L151
 3715 00a4 1B88     		ldrh	r3, [r3]
 3716 00a6 03F00103 		and	r3, r3, #1
 3717              		.loc 1 464 15
 3718 00aa 002B     		cmp	r3, #0
 3719 00ac 33D0     		beq	.L138
 3720              		.loc 1 466 7
 3721 00ae 8B4A     		ldr	r2, .L151+20
 3722 00b0 8B49     		ldr	r1, .L151+24
 3723 00b2 8C48     		ldr	r0, .L151+28
 3724 00b4 FFF7FEFF 		bl	ned_of_ecef_pos_i
 3725              		.loc 1 467 7
 3726 00b8 834B     		ldr	r3, .L151
 3727 00ba 1B88     		ldrh	r3, [r3]
 3728 00bc 43F00203 		orr	r3, r3, #2
 3729 00c0 9AB2     		uxth	r2, r3
 3730 00c2 814B     		ldr	r3, .L151
 3731 00c4 1A80     		strh	r2, [r3]	@ movhi
 3732              		.loc 1 468 7
 3733 00c6 804B     		ldr	r3, .L151
 3734 00c8 1B6E     		ldr	r3, [r3, #96]
 3735 00ca 07EE903A 		vmov	s15, r3	@ int
 3736 00ce B8EEE77A 		vcvt.f32.s32	s14, s15
 3737 00d2 DFED7E6A 		vldr.32	s13, .L151+4
 3738 00d6 C7EE267A 		vdiv.f32	s15, s14, s13
 3739 00da 7B4B     		ldr	r3, .L151
 3740 00dc C3ED3F7A 		vstr.32	s15, [r3, #252]
 3741 00e0 794B     		ldr	r3, .L151
 3742 00e2 5B6E     		ldr	r3, [r3, #100]
 3743 00e4 07EE903A 		vmov	s15, r3	@ int
 3744 00e8 B8EEE77A 		vcvt.f32.s32	s14, s15
 3745 00ec DFED776A 		vldr.32	s13, .L151+4
 3746 00f0 C7EE267A 		vdiv.f32	s15, s14, s13
 3747 00f4 744B     		ldr	r3, .L151
 3748 00f6 C3ED407A 		vstr.32	s15, [r3, #256]
 3749 00fa 734B     		ldr	r3, .L151
 3750 00fc 9B6E     		ldr	r3, [r3, #104]
 3751 00fe 07EE903A 		vmov	s15, r3	@ int
 3752 0102 B8EEE77A 		vcvt.f32.s32	s14, s15
 3753 0106 DFED716A 		vldr.32	s13, .L151+4
 3754 010a C7EE267A 		vdiv.f32	s15, s14, s13
 3755 010e 6E4B     		ldr	r3, .L151
 3756 0110 C3ED417A 		vstr.32	s15, [r3, #260]
 3757 0114 FBE1     		b	.L136
ARM GAS  /tmp/cc3mS0ZT.s 			page 67


 3758              	.L138:
 3759              		.loc 1 469 16
 3760 0116 6C4B     		ldr	r3, .L151
 3761 0118 1B88     		ldrh	r3, [r3]
 3762 011a 1B0A     		lsrs	r3, r3, #8
 3763 011c 9BB2     		uxth	r3, r3
 3764 011e 03F00103 		and	r3, r3, #1
 3765              		.loc 1 469 15
 3766 0122 002B     		cmp	r3, #0
 3767 0124 05D0     		beq	.L139
 3768              		.loc 1 470 7
 3769 0126 704A     		ldr	r2, .L151+32
 3770 0128 6A49     		ldr	r1, .L151+12
 3771 012a 6B48     		ldr	r0, .L151+16
 3772 012c FFF7FEFF 		bl	ned_of_lla_point_f
 3773 0130 EDE1     		b	.L136
 3774              	.L139:
 3775              		.loc 1 471 16
 3776 0132 654B     		ldr	r3, .L151
 3777 0134 1B88     		ldrh	r3, [r3]
 3778 0136 DB08     		lsrs	r3, r3, #3
 3779 0138 9BB2     		uxth	r3, r3
 3780 013a 03F00103 		and	r3, r3, #1
 3781              		.loc 1 471 15
 3782 013e 002B     		cmp	r3, #0
 3783 0140 3ED0     		beq	.L140
 3784              		.loc 1 473 7
 3785 0142 6A49     		ldr	r1, .L151+36
 3786 0144 6548     		ldr	r0, .L151+20
 3787 0146 FFF7FEFF 		bl	ecef_of_lla_i
 3788              		.loc 1 474 7
 3789 014a 5F4B     		ldr	r3, .L151
 3790 014c 1B88     		ldrh	r3, [r3]
 3791 014e 43F00103 		orr	r3, r3, #1
 3792 0152 9AB2     		uxth	r2, r3
 3793 0154 5C4B     		ldr	r3, .L151
 3794 0156 1A80     		strh	r2, [r3]	@ movhi
 3795              		.loc 1 475 7
 3796 0158 604A     		ldr	r2, .L151+20
 3797 015a 6149     		ldr	r1, .L151+24
 3798 015c 6148     		ldr	r0, .L151+28
 3799 015e FFF7FEFF 		bl	ned_of_ecef_pos_i
 3800              		.loc 1 476 7
 3801 0162 594B     		ldr	r3, .L151
 3802 0164 1B88     		ldrh	r3, [r3]
 3803 0166 43F00203 		orr	r3, r3, #2
 3804 016a 9AB2     		uxth	r2, r3
 3805 016c 564B     		ldr	r3, .L151
 3806 016e 1A80     		strh	r2, [r3]	@ movhi
 3807              		.loc 1 477 7
 3808 0170 554B     		ldr	r3, .L151
 3809 0172 1B6E     		ldr	r3, [r3, #96]
 3810 0174 07EE903A 		vmov	s15, r3	@ int
 3811 0178 B8EEE77A 		vcvt.f32.s32	s14, s15
 3812 017c DFED536A 		vldr.32	s13, .L151+4
 3813 0180 C7EE267A 		vdiv.f32	s15, s14, s13
 3814 0184 504B     		ldr	r3, .L151
ARM GAS  /tmp/cc3mS0ZT.s 			page 68


 3815 0186 C3ED3F7A 		vstr.32	s15, [r3, #252]
 3816 018a 4F4B     		ldr	r3, .L151
 3817 018c 5B6E     		ldr	r3, [r3, #100]
 3818 018e 07EE903A 		vmov	s15, r3	@ int
 3819 0192 B8EEE77A 		vcvt.f32.s32	s14, s15
 3820 0196 DFED4D6A 		vldr.32	s13, .L151+4
 3821 019a C7EE267A 		vdiv.f32	s15, s14, s13
 3822 019e 4A4B     		ldr	r3, .L151
 3823 01a0 C3ED407A 		vstr.32	s15, [r3, #256]
 3824 01a4 484B     		ldr	r3, .L151
 3825 01a6 9B6E     		ldr	r3, [r3, #104]
 3826 01a8 07EE903A 		vmov	s15, r3	@ int
 3827 01ac B8EEE77A 		vcvt.f32.s32	s14, s15
 3828 01b0 DFED466A 		vldr.32	s13, .L151+4
 3829 01b4 C7EE267A 		vdiv.f32	s15, s14, s13
 3830 01b8 434B     		ldr	r3, .L151
 3831 01ba C3ED417A 		vstr.32	s15, [r3, #260]
 3832 01be A6E1     		b	.L136
 3833              	.L140:
 3834              		.loc 1 479 13
 3835 01c0 0123     		movs	r3, #1
 3836 01c2 0193     		str	r3, [sp, #4]
 3837 01c4 A3E1     		b	.L136
 3838              	.L134:
 3839              		.loc 1 481 19
 3840 01c6 404B     		ldr	r3, .L151
 3841 01c8 93F8F830 		ldrb	r3, [r3, #248]	@ zero_extendqisi2
 3842              		.loc 1 481 13
 3843 01cc 002B     		cmp	r3, #0
 3844 01ce 00F09C81 		beq	.L141
 3845              		.loc 1 482 9
 3846 01d2 3D4B     		ldr	r3, .L151
 3847 01d4 1B88     		ldrh	r3, [r3]
 3848 01d6 5B08     		lsrs	r3, r3, #1
 3849 01d8 9BB2     		uxth	r3, r3
 3850 01da 03F00103 		and	r3, r3, #1
 3851              		.loc 1 482 8
 3852 01de 002B     		cmp	r3, #0
 3853 01e0 27D0     		beq	.L142
 3854              		.loc 1 483 7
 3855 01e2 394B     		ldr	r3, .L151
 3856 01e4 1B6E     		ldr	r3, [r3, #96]
 3857 01e6 07EE903A 		vmov	s15, r3	@ int
 3858 01ea B8EEE77A 		vcvt.f32.s32	s14, s15
 3859 01ee DFED376A 		vldr.32	s13, .L151+4
 3860 01f2 C7EE267A 		vdiv.f32	s15, s14, s13
 3861 01f6 344B     		ldr	r3, .L151
 3862 01f8 C3ED3F7A 		vstr.32	s15, [r3, #252]
 3863 01fc 324B     		ldr	r3, .L151
 3864 01fe 5B6E     		ldr	r3, [r3, #100]
 3865 0200 07EE903A 		vmov	s15, r3	@ int
 3866 0204 B8EEE77A 		vcvt.f32.s32	s14, s15
 3867 0208 DFED306A 		vldr.32	s13, .L151+4
 3868 020c C7EE267A 		vdiv.f32	s15, s14, s13
 3869 0210 2D4B     		ldr	r3, .L151
 3870 0212 C3ED407A 		vstr.32	s15, [r3, #256]
 3871 0216 2C4B     		ldr	r3, .L151
ARM GAS  /tmp/cc3mS0ZT.s 			page 69


 3872 0218 9B6E     		ldr	r3, [r3, #104]
 3873 021a 07EE903A 		vmov	s15, r3	@ int
 3874 021e B8EEE77A 		vcvt.f32.s32	s14, s15
 3875 0222 DFED2A6A 		vldr.32	s13, .L151+4
 3876 0226 C7EE267A 		vdiv.f32	s15, s14, s13
 3877 022a 274B     		ldr	r3, .L151
 3878 022c C3ED417A 		vstr.32	s15, [r3, #260]
 3879 0230 6DE1     		b	.L136
 3880              	.L142:
 3881              		.loc 1 484 16
 3882 0232 254B     		ldr	r3, .L151
 3883 0234 1B88     		ldrh	r3, [r3]
 3884 0236 9B08     		lsrs	r3, r3, #2
 3885 0238 9BB2     		uxth	r3, r3
 3886 023a 03F00103 		and	r3, r3, #1
 3887              		.loc 1 484 15
 3888 023e 002B     		cmp	r3, #0
 3889 0240 56D0     		beq	.L143
 3890              		.loc 1 485 7
 3891 0242 214B     		ldr	r3, .L151
 3892 0244 DB6E     		ldr	r3, [r3, #108]
 3893 0246 07EE903A 		vmov	s15, r3	@ int
 3894 024a B8EEE77A 		vcvt.f32.s32	s14, s15
 3895 024e DFED1F6A 		vldr.32	s13, .L151+4
 3896 0252 C7EE267A 		vdiv.f32	s15, s14, s13
 3897 0256 1C4B     		ldr	r3, .L151
 3898 0258 C3ED427A 		vstr.32	s15, [r3, #264]
 3899 025c 1A4B     		ldr	r3, .L151
 3900 025e 1B6F     		ldr	r3, [r3, #112]
 3901 0260 07EE903A 		vmov	s15, r3	@ int
 3902 0264 B8EEE77A 		vcvt.f32.s32	s14, s15
 3903 0268 DFED186A 		vldr.32	s13, .L151+4
 3904 026c C7EE267A 		vdiv.f32	s15, s14, s13
 3905 0270 154B     		ldr	r3, .L151
 3906 0272 C3ED437A 		vstr.32	s15, [r3, #268]
 3907 0276 144B     		ldr	r3, .L151
 3908 0278 5B6F     		ldr	r3, [r3, #116]
 3909 027a 07EE903A 		vmov	s15, r3	@ int
 3910 027e B8EEE77A 		vcvt.f32.s32	s14, s15
 3911 0282 DFED126A 		vldr.32	s13, .L151+4
 3912 0286 C7EE267A 		vdiv.f32	s15, s14, s13
 3913 028a 0F4B     		ldr	r3, .L151
 3914 028c C3ED447A 		vstr.32	s15, [r3, #272]
 3915              		.loc 1 486 7
 3916 0290 0D4B     		ldr	r3, .L151
 3917 0292 1B88     		ldrh	r3, [r3]
 3918 0294 43F08003 		orr	r3, r3, #128
 3919 0298 9AB2     		uxth	r2, r3
 3920 029a 0B4B     		ldr	r3, .L151
 3921 029c 1A80     		strh	r2, [r3]	@ movhi
 3922              		.loc 1 487 7
 3923 029e 0A4B     		ldr	r3, .L151
 3924 02a0 D3F80C31 		ldr	r3, [r3, #268]	@ float
 3925 02a4 084A     		ldr	r2, .L151
 3926 02a6 C2F8FC30 		str	r3, [r2, #252]	@ float
 3927 02aa 074B     		ldr	r3, .L151
 3928 02ac D3F80831 		ldr	r3, [r3, #264]	@ float
ARM GAS  /tmp/cc3mS0ZT.s 			page 70


 3929 02b0 054A     		ldr	r2, .L151
 3930 02b2 C2F80031 		str	r3, [r2, #256]	@ float
 3931 02b6 044B     		ldr	r3, .L151
 3932 02b8 D3ED447A 		vldr.32	s15, [r3, #272]
 3933 02bc F1EE677A 		vneg.f32	s15, s15
 3934 02c0 014B     		ldr	r3, .L151
 3935 02c2 C3ED417A 		vstr.32	s15, [r3, #260]
 3936 02c6 22E1     		b	.L136
 3937              	.L152:
 3938              		.align	2
 3939              	.L151:
 3940 02c8 00000000 		.word	state
 3941 02cc 00008043 		.word	1132462080
 3942 02d0 98000000 		.word	state+152
 3943 02d4 A4000000 		.word	state+164
 3944 02d8 FC000000 		.word	state+252
 3945 02dc 04000000 		.word	state+4
 3946 02e0 1C000000 		.word	state+28
 3947 02e4 60000000 		.word	state+96
 3948 02e8 8C000000 		.word	state+140
 3949 02ec 10000000 		.word	state+16
 3950              	.L143:
 3951              		.loc 1 488 16
 3952 02f0 934B     		ldr	r3, .L153+16
 3953 02f2 1B88     		ldrh	r3, [r3]
 3954 02f4 DB09     		lsrs	r3, r3, #7
 3955 02f6 9BB2     		uxth	r3, r3
 3956 02f8 03F00103 		and	r3, r3, #1
 3957              		.loc 1 488 15
 3958 02fc 002B     		cmp	r3, #0
 3959 02fe 14D0     		beq	.L144
 3960              		.loc 1 489 7
 3961 0300 8F4B     		ldr	r3, .L153+16
 3962 0302 D3F80C31 		ldr	r3, [r3, #268]	@ float
 3963 0306 8E4A     		ldr	r2, .L153+16
 3964 0308 C2F8FC30 		str	r3, [r2, #252]	@ float
 3965 030c 8C4B     		ldr	r3, .L153+16
 3966 030e D3F80831 		ldr	r3, [r3, #264]	@ float
 3967 0312 8B4A     		ldr	r2, .L153+16
 3968 0314 C2F80031 		str	r3, [r2, #256]	@ float
 3969 0318 894B     		ldr	r3, .L153+16
 3970 031a D3ED447A 		vldr.32	s15, [r3, #272]
 3971 031e F1EE677A 		vneg.f32	s15, s15
 3972 0322 874B     		ldr	r3, .L153+16
 3973 0324 C3ED417A 		vstr.32	s15, [r3, #260]
 3974 0328 F1E0     		b	.L136
 3975              	.L144:
 3976              		.loc 1 490 16
 3977 032a 854B     		ldr	r3, .L153+16
 3978 032c 1B88     		ldrh	r3, [r3]
 3979 032e 5B0A     		lsrs	r3, r3, #9
 3980 0330 9BB2     		uxth	r3, r3
 3981 0332 03F00103 		and	r3, r3, #1
 3982              		.loc 1 490 15
 3983 0336 002B     		cmp	r3, #0
 3984 0338 21D0     		beq	.L145
 3985              		.loc 1 491 7
ARM GAS  /tmp/cc3mS0ZT.s 			page 71


 3986 033a 814B     		ldr	r3, .L153+16
 3987 033c 93ED1E7A 		vldr.32	s14, [r3, #120]
 3988 0340 7F4B     		ldr	r3, .L153+16
 3989 0342 D3ED3A7A 		vldr.32	s15, [r3, #232]
 3990 0346 77EE677A 		vsub.f32	s15, s14, s15
 3991 034a 7D4B     		ldr	r3, .L153+16
 3992 034c C3ED3F7A 		vstr.32	s15, [r3, #252]
 3993 0350 7B4B     		ldr	r3, .L153+16
 3994 0352 93ED1F7A 		vldr.32	s14, [r3, #124]
 3995 0356 7A4B     		ldr	r3, .L153+16
 3996 0358 D3ED3B7A 		vldr.32	s15, [r3, #236]
 3997 035c 77EE677A 		vsub.f32	s15, s14, s15
 3998 0360 774B     		ldr	r3, .L153+16
 3999 0362 C3ED407A 		vstr.32	s15, [r3, #256]
 4000 0366 764B     		ldr	r3, .L153+16
 4001 0368 93ED3C7A 		vldr.32	s14, [r3, #240]
 4002 036c 744B     		ldr	r3, .L153+16
 4003 036e D3ED207A 		vldr.32	s15, [r3, #128]
 4004 0372 77EE677A 		vsub.f32	s15, s14, s15
 4005 0376 724B     		ldr	r3, .L153+16
 4006 0378 C3ED417A 		vstr.32	s15, [r3, #260]
 4007 037c C7E0     		b	.L136
 4008              	.L145:
 4009              		.loc 1 492 16
 4010 037e 704B     		ldr	r3, .L153+16
 4011 0380 1B88     		ldrh	r3, [r3]
 4012 0382 1B0A     		lsrs	r3, r3, #8
 4013 0384 9BB2     		uxth	r3, r3
 4014 0386 03F00103 		and	r3, r3, #1
 4015              		.loc 1 492 15
 4016 038a 002B     		cmp	r3, #0
 4017 038c 2CD0     		beq	.L146
 4018              		.loc 1 494 7
 4019 038e 6D49     		ldr	r1, .L153+20
 4020 0390 6D48     		ldr	r0, .L153+24
 4021 0392 FFF7FEFF 		bl	utm_of_lla_f
 4022              		.loc 1 495 7
 4023 0396 6A4B     		ldr	r3, .L153+16
 4024 0398 1B88     		ldrh	r3, [r3]
 4025 039a 43F40073 		orr	r3, r3, #512
 4026 039e 9AB2     		uxth	r2, r3
 4027 03a0 674B     		ldr	r3, .L153+16
 4028 03a2 1A80     		strh	r2, [r3]	@ movhi
 4029              		.loc 1 496 7
 4030 03a4 664B     		ldr	r3, .L153+16
 4031 03a6 93ED1E7A 		vldr.32	s14, [r3, #120]
 4032 03aa 654B     		ldr	r3, .L153+16
 4033 03ac D3ED3A7A 		vldr.32	s15, [r3, #232]
 4034 03b0 77EE677A 		vsub.f32	s15, s14, s15
 4035 03b4 624B     		ldr	r3, .L153+16
 4036 03b6 C3ED3F7A 		vstr.32	s15, [r3, #252]
 4037 03ba 614B     		ldr	r3, .L153+16
 4038 03bc 93ED1F7A 		vldr.32	s14, [r3, #124]
 4039 03c0 5F4B     		ldr	r3, .L153+16
 4040 03c2 D3ED3B7A 		vldr.32	s15, [r3, #236]
 4041 03c6 77EE677A 		vsub.f32	s15, s14, s15
 4042 03ca 5D4B     		ldr	r3, .L153+16
ARM GAS  /tmp/cc3mS0ZT.s 			page 72


 4043 03cc C3ED407A 		vstr.32	s15, [r3, #256]
 4044 03d0 5B4B     		ldr	r3, .L153+16
 4045 03d2 93ED3C7A 		vldr.32	s14, [r3, #240]
 4046 03d6 5A4B     		ldr	r3, .L153+16
 4047 03d8 D3ED207A 		vldr.32	s15, [r3, #128]
 4048 03dc 77EE677A 		vsub.f32	s15, s14, s15
 4049 03e0 574B     		ldr	r3, .L153+16
 4050 03e2 C3ED417A 		vstr.32	s15, [r3, #260]
 4051 03e6 92E0     		b	.L136
 4052              	.L146:
 4053              		.loc 1 497 16
 4054 03e8 554B     		ldr	r3, .L153+16
 4055 03ea 1B88     		ldrh	r3, [r3]
 4056 03ec DB08     		lsrs	r3, r3, #3
 4057 03ee 9BB2     		uxth	r3, r3
 4058 03f0 03F00103 		and	r3, r3, #1
 4059              		.loc 1 497 15
 4060 03f4 002B     		cmp	r3, #0
 4061 03f6 00F08580 		beq	.L147
 4062              		.loc 1 499 7
 4063 03fa 514B     		ldr	r3, .L153+16
 4064 03fc 1B69     		ldr	r3, [r3, #16]
 4065 03fe 07EE903A 		vmov	s15, r3	@ int
 4066 0402 F8EEE77A 		vcvt.f32.s32	s15, s15
 4067 0406 17EE900A 		vmov	r0, s15
 4068 040a FFF7FEFF 		bl	__aeabi_f2d
 4069 040e 48A3     		adr	r3, .L153
 4070 0410 D3E90023 		ldrd	r2, [r3]
 4071 0414 FFF7FEFF 		bl	__aeabi_dmul
 4072 0418 0246     		mov	r2, r0
 4073 041a 0B46     		mov	r3, r1
 4074 041c 1046     		mov	r0, r2
 4075 041e 1946     		mov	r1, r3
 4076 0420 45A3     		adr	r3, .L153+8
 4077 0422 D3E90023 		ldrd	r2, [r3]
 4078 0426 FFF7FEFF 		bl	__aeabi_ddiv
 4079 042a 0246     		mov	r2, r0
 4080 042c 0B46     		mov	r3, r1
 4081 042e 1046     		mov	r0, r2
 4082 0430 1946     		mov	r1, r3
 4083 0432 FFF7FEFF 		bl	__aeabi_d2f
 4084 0436 0346     		mov	r3, r0	@ float
 4085 0438 414A     		ldr	r2, .L153+16
 4086 043a C2F88C30 		str	r3, [r2, #140]	@ float
 4087 043e 404B     		ldr	r3, .L153+16
 4088 0440 5B69     		ldr	r3, [r3, #20]
 4089 0442 07EE903A 		vmov	s15, r3	@ int
 4090 0446 F8EEE77A 		vcvt.f32.s32	s15, s15
 4091 044a 17EE900A 		vmov	r0, s15
 4092 044e FFF7FEFF 		bl	__aeabi_f2d
 4093 0452 37A3     		adr	r3, .L153
 4094 0454 D3E90023 		ldrd	r2, [r3]
 4095 0458 FFF7FEFF 		bl	__aeabi_dmul
 4096 045c 0246     		mov	r2, r0
 4097 045e 0B46     		mov	r3, r1
 4098 0460 1046     		mov	r0, r2
 4099 0462 1946     		mov	r1, r3
ARM GAS  /tmp/cc3mS0ZT.s 			page 73


 4100 0464 34A3     		adr	r3, .L153+8
 4101 0466 D3E90023 		ldrd	r2, [r3]
 4102 046a FFF7FEFF 		bl	__aeabi_ddiv
 4103 046e 0246     		mov	r2, r0
 4104 0470 0B46     		mov	r3, r1
 4105 0472 1046     		mov	r0, r2
 4106 0474 1946     		mov	r1, r3
 4107 0476 FFF7FEFF 		bl	__aeabi_d2f
 4108 047a 0346     		mov	r3, r0	@ float
 4109 047c 304A     		ldr	r2, .L153+16
 4110 047e C2F89030 		str	r3, [r2, #144]	@ float
 4111 0482 2F4B     		ldr	r3, .L153+16
 4112 0484 9B69     		ldr	r3, [r3, #24]
 4113 0486 07EE903A 		vmov	s15, r3	@ int
 4114 048a B8EEE77A 		vcvt.f32.s32	s14, s15
 4115 048e DFED2F6A 		vldr.32	s13, .L153+28
 4116 0492 C7EE267A 		vdiv.f32	s15, s14, s13
 4117 0496 2A4B     		ldr	r3, .L153+16
 4118 0498 C3ED257A 		vstr.32	s15, [r3, #148]
 4119              		.loc 1 500 7
 4120 049c 284B     		ldr	r3, .L153+16
 4121 049e 1B88     		ldrh	r3, [r3]
 4122 04a0 43F48073 		orr	r3, r3, #256
 4123 04a4 9AB2     		uxth	r2, r3
 4124 04a6 264B     		ldr	r3, .L153+16
 4125 04a8 1A80     		strh	r2, [r3]	@ movhi
 4126              		.loc 1 501 7
 4127 04aa 2649     		ldr	r1, .L153+20
 4128 04ac 2648     		ldr	r0, .L153+24
 4129 04ae FFF7FEFF 		bl	utm_of_lla_f
 4130              		.loc 1 502 7
 4131 04b2 234B     		ldr	r3, .L153+16
 4132 04b4 1B88     		ldrh	r3, [r3]
 4133 04b6 43F40073 		orr	r3, r3, #512
 4134 04ba 9AB2     		uxth	r2, r3
 4135 04bc 204B     		ldr	r3, .L153+16
 4136 04be 1A80     		strh	r2, [r3]	@ movhi
 4137              		.loc 1 503 7
 4138 04c0 1F4B     		ldr	r3, .L153+16
 4139 04c2 93ED1E7A 		vldr.32	s14, [r3, #120]
 4140 04c6 1E4B     		ldr	r3, .L153+16
 4141 04c8 D3ED3A7A 		vldr.32	s15, [r3, #232]
 4142 04cc 77EE677A 		vsub.f32	s15, s14, s15
 4143 04d0 1B4B     		ldr	r3, .L153+16
 4144 04d2 C3ED3F7A 		vstr.32	s15, [r3, #252]
 4145 04d6 1A4B     		ldr	r3, .L153+16
 4146 04d8 93ED1F7A 		vldr.32	s14, [r3, #124]
 4147 04dc 184B     		ldr	r3, .L153+16
 4148 04de D3ED3B7A 		vldr.32	s15, [r3, #236]
 4149 04e2 77EE677A 		vsub.f32	s15, s14, s15
 4150 04e6 164B     		ldr	r3, .L153+16
 4151 04e8 C3ED407A 		vstr.32	s15, [r3, #256]
 4152 04ec 144B     		ldr	r3, .L153+16
 4153 04ee 93ED3C7A 		vldr.32	s14, [r3, #240]
 4154 04f2 134B     		ldr	r3, .L153+16
 4155 04f4 D3ED207A 		vldr.32	s15, [r3, #128]
 4156 04f8 77EE677A 		vsub.f32	s15, s14, s15
ARM GAS  /tmp/cc3mS0ZT.s 			page 74


 4157 04fc 104B     		ldr	r3, .L153+16
 4158 04fe C3ED417A 		vstr.32	s15, [r3, #260]
 4159 0502 04E0     		b	.L136
 4160              	.L147:
 4161              		.loc 1 505 13
 4162 0504 0223     		movs	r3, #2
 4163 0506 0193     		str	r3, [sp, #4]
 4164 0508 01E0     		b	.L136
 4165              	.L141:
 4166              		.loc 1 508 11
 4167 050a 0323     		movs	r3, #3
 4168 050c 0193     		str	r3, [sp, #4]
 4169              	.L136:
 4170              		.loc 1 510 6
 4171 050e 019B     		ldr	r3, [sp, #4]
 4172 0510 002B     		cmp	r3, #0
 4173 0512 09D1     		bne	.L150
 4174              		.loc 1 516 3
 4175 0514 0A4B     		ldr	r3, .L153+16
 4176 0516 1B88     		ldrh	r3, [r3]
 4177 0518 43F04003 		orr	r3, r3, #64
 4178 051c 9AB2     		uxth	r2, r3
 4179 051e 084B     		ldr	r3, .L153+16
 4180 0520 1A80     		strh	r2, [r3]	@ movhi
 4181 0522 02E0     		b	.L131
 4182              	.L149:
 4183              		.loc 1 455 5
 4184 0524 00BF     		nop
 4185 0526 00E0     		b	.L131
 4186              	.L150:
 4187              		.loc 1 513 5
 4188 0528 00BF     		nop
 4189              	.L131:
 4190              		.loc 1 517 1
 4191 052a 03B0     		add	sp, sp, #12
 4192              		.cfi_def_cfa_offset 4
 4193              		@ sp needed
 4194 052c 5DF804FB 		ldr	pc, [sp], #4
 4195              	.L154:
 4196              		.align	3
 4197              	.L153:
 4198 0530 399D52A2 		.word	-1571644103
 4199 0534 46DF913F 		.word	1066524486
 4200 0538 00000000 		.word	0
 4201 053c D0126341 		.word	1097011920
 4202 0540 00000000 		.word	state
 4203 0544 8C000000 		.word	state+140
 4204 0548 78000000 		.word	state+120
 4205 054c 00007A44 		.word	1148846080
 4206              		.cfi_endproc
 4207              	.LFE180:
 4208              		.size	stateCalcPositionNed_f, .-stateCalcPositionNed_f
 4209              		.section	.text.stateCalcPositionEnu_f,"ax",%progbits
 4210              		.align	1
 4211              		.p2align 4,,15
 4212              		.global	stateCalcPositionEnu_f
 4213              		.syntax unified
ARM GAS  /tmp/cc3mS0ZT.s 			page 75


 4214              		.thumb
 4215              		.thumb_func
 4216              		.fpu fpv4-sp-d16
 4217              		.type	stateCalcPositionEnu_f, %function
 4218              	stateCalcPositionEnu_f:
 4219              	.LFB181:
 4220              		.loc 1 520 1
 4221              		.cfi_startproc
 4222              		@ args = 0, pretend = 0, frame = 8
 4223              		@ frame_needed = 0, uses_anonymous_args = 0
 4224 0000 00B5     		push	{lr}
 4225              		.cfi_def_cfa_offset 4
 4226              		.cfi_offset 14, -4
 4227 0002 83B0     		sub	sp, sp, #12
 4228              		.cfi_def_cfa_offset 16
 4229              		.loc 1 521 7
 4230 0004 A44B     		ldr	r3, .L177
 4231 0006 1B88     		ldrh	r3, [r3]
 4232 0008 DB09     		lsrs	r3, r3, #7
 4233 000a 9BB2     		uxth	r3, r3
 4234 000c 03F00103 		and	r3, r3, #1
 4235              		.loc 1 521 6
 4236 0010 002B     		cmp	r3, #0
 4237 0012 40F0F982 		bne	.L175
 4238              		.loc 1 525 7
 4239 0016 0023     		movs	r3, #0
 4240 0018 0193     		str	r3, [sp, #4]
 4241              		.loc 1 526 12
 4242 001a 9F4B     		ldr	r3, .L177
 4243 001c 93F8E430 		ldrb	r3, [r3, #228]	@ zero_extendqisi2
 4244              		.loc 1 526 6
 4245 0020 002B     		cmp	r3, #0
 4246 0022 00F04D81 		beq	.L158
 4247              		.loc 1 527 9
 4248 0026 9C4B     		ldr	r3, .L177
 4249 0028 1B88     		ldrh	r3, [r3]
 4250 002a 9B09     		lsrs	r3, r3, #6
 4251 002c 9BB2     		uxth	r3, r3
 4252 002e 03F00103 		and	r3, r3, #1
 4253              		.loc 1 527 8
 4254 0032 002B     		cmp	r3, #0
 4255 0034 14D0     		beq	.L159
 4256              		.loc 1 528 7
 4257 0036 984B     		ldr	r3, .L177
 4258 0038 D3F80031 		ldr	r3, [r3, #256]	@ float
 4259 003c 964A     		ldr	r2, .L177
 4260 003e C2F80831 		str	r3, [r2, #264]	@ float
 4261 0042 954B     		ldr	r3, .L177
 4262 0044 D3F8FC30 		ldr	r3, [r3, #252]	@ float
 4263 0048 934A     		ldr	r2, .L177
 4264 004a C2F80C31 		str	r3, [r2, #268]	@ float
 4265 004e 924B     		ldr	r3, .L177
 4266 0050 D3ED417A 		vldr.32	s15, [r3, #260]
 4267 0054 F1EE677A 		vneg.f32	s15, s15
 4268 0058 8F4B     		ldr	r3, .L177
 4269 005a C3ED447A 		vstr.32	s15, [r3, #272]
 4270 005e C8E2     		b	.L160
ARM GAS  /tmp/cc3mS0ZT.s 			page 76


 4271              	.L159:
 4272              		.loc 1 529 16
 4273 0060 8D4B     		ldr	r3, .L177
 4274 0062 1B88     		ldrh	r3, [r3]
 4275 0064 9B08     		lsrs	r3, r3, #2
 4276 0066 9BB2     		uxth	r3, r3
 4277 0068 03F00103 		and	r3, r3, #1
 4278              		.loc 1 529 15
 4279 006c 002B     		cmp	r3, #0
 4280 006e 27D0     		beq	.L161
 4281              		.loc 1 530 7
 4282 0070 894B     		ldr	r3, .L177
 4283 0072 DB6E     		ldr	r3, [r3, #108]
 4284 0074 07EE903A 		vmov	s15, r3	@ int
 4285 0078 B8EEE77A 		vcvt.f32.s32	s14, s15
 4286 007c DFED876A 		vldr.32	s13, .L177+4
 4287 0080 C7EE267A 		vdiv.f32	s15, s14, s13
 4288 0084 844B     		ldr	r3, .L177
 4289 0086 C3ED427A 		vstr.32	s15, [r3, #264]
 4290 008a 834B     		ldr	r3, .L177
 4291 008c 1B6F     		ldr	r3, [r3, #112]
 4292 008e 07EE903A 		vmov	s15, r3	@ int
 4293 0092 B8EEE77A 		vcvt.f32.s32	s14, s15
 4294 0096 DFED816A 		vldr.32	s13, .L177+4
 4295 009a C7EE267A 		vdiv.f32	s15, s14, s13
 4296 009e 7E4B     		ldr	r3, .L177
 4297 00a0 C3ED437A 		vstr.32	s15, [r3, #268]
 4298 00a4 7C4B     		ldr	r3, .L177
 4299 00a6 5B6F     		ldr	r3, [r3, #116]
 4300 00a8 07EE903A 		vmov	s15, r3	@ int
 4301 00ac B8EEE77A 		vcvt.f32.s32	s14, s15
 4302 00b0 DFED7A6A 		vldr.32	s13, .L177+4
 4303 00b4 C7EE267A 		vdiv.f32	s15, s14, s13
 4304 00b8 774B     		ldr	r3, .L177
 4305 00ba C3ED447A 		vstr.32	s15, [r3, #272]
 4306 00be 98E2     		b	.L160
 4307              	.L161:
 4308              		.loc 1 531 16
 4309 00c0 754B     		ldr	r3, .L177
 4310 00c2 1B88     		ldrh	r3, [r3]
 4311 00c4 5B08     		lsrs	r3, r3, #1
 4312 00c6 9BB2     		uxth	r3, r3
 4313 00c8 03F00103 		and	r3, r3, #1
 4314              		.loc 1 531 15
 4315 00cc 002B     		cmp	r3, #0
 4316 00ce 42D0     		beq	.L162
 4317              		.loc 1 532 7
 4318 00d0 714B     		ldr	r3, .L177
 4319 00d2 1B6E     		ldr	r3, [r3, #96]
 4320 00d4 07EE903A 		vmov	s15, r3	@ int
 4321 00d8 B8EEE77A 		vcvt.f32.s32	s14, s15
 4322 00dc DFED6F6A 		vldr.32	s13, .L177+4
 4323 00e0 C7EE267A 		vdiv.f32	s15, s14, s13
 4324 00e4 6C4B     		ldr	r3, .L177
 4325 00e6 C3ED3F7A 		vstr.32	s15, [r3, #252]
 4326 00ea 6B4B     		ldr	r3, .L177
 4327 00ec 5B6E     		ldr	r3, [r3, #100]
ARM GAS  /tmp/cc3mS0ZT.s 			page 77


 4328 00ee 07EE903A 		vmov	s15, r3	@ int
 4329 00f2 B8EEE77A 		vcvt.f32.s32	s14, s15
 4330 00f6 DFED696A 		vldr.32	s13, .L177+4
 4331 00fa C7EE267A 		vdiv.f32	s15, s14, s13
 4332 00fe 664B     		ldr	r3, .L177
 4333 0100 C3ED407A 		vstr.32	s15, [r3, #256]
 4334 0104 644B     		ldr	r3, .L177
 4335 0106 9B6E     		ldr	r3, [r3, #104]
 4336 0108 07EE903A 		vmov	s15, r3	@ int
 4337 010c B8EEE77A 		vcvt.f32.s32	s14, s15
 4338 0110 DFED626A 		vldr.32	s13, .L177+4
 4339 0114 C7EE267A 		vdiv.f32	s15, s14, s13
 4340 0118 5F4B     		ldr	r3, .L177
 4341 011a C3ED417A 		vstr.32	s15, [r3, #260]
 4342              		.loc 1 533 7
 4343 011e 5E4B     		ldr	r3, .L177
 4344 0120 1B88     		ldrh	r3, [r3]
 4345 0122 43F04003 		orr	r3, r3, #64
 4346 0126 9AB2     		uxth	r2, r3
 4347 0128 5B4B     		ldr	r3, .L177
 4348 012a 1A80     		strh	r2, [r3]	@ movhi
 4349              		.loc 1 534 7
 4350 012c 5A4B     		ldr	r3, .L177
 4351 012e D3F80031 		ldr	r3, [r3, #256]	@ float
 4352 0132 594A     		ldr	r2, .L177
 4353 0134 C2F80831 		str	r3, [r2, #264]	@ float
 4354 0138 574B     		ldr	r3, .L177
 4355 013a D3F8FC30 		ldr	r3, [r3, #252]	@ float
 4356 013e 564A     		ldr	r2, .L177
 4357 0140 C2F80C31 		str	r3, [r2, #268]	@ float
 4358 0144 544B     		ldr	r3, .L177
 4359 0146 D3ED417A 		vldr.32	s15, [r3, #260]
 4360 014a F1EE677A 		vneg.f32	s15, s15
 4361 014e 524B     		ldr	r3, .L177
 4362 0150 C3ED447A 		vstr.32	s15, [r3, #272]
 4363 0154 4DE2     		b	.L160
 4364              	.L162:
 4365              		.loc 1 535 16
 4366 0156 504B     		ldr	r3, .L177
 4367 0158 1B88     		ldrh	r3, [r3]
 4368 015a 5B09     		lsrs	r3, r3, #5
 4369 015c 9BB2     		uxth	r3, r3
 4370 015e 03F00103 		and	r3, r3, #1
 4371              		.loc 1 535 15
 4372 0162 002B     		cmp	r3, #0
 4373 0164 05D0     		beq	.L163
 4374              		.loc 1 536 7
 4375 0166 4E4A     		ldr	r2, .L177+8
 4376 0168 4E49     		ldr	r1, .L177+12
 4377 016a 4F48     		ldr	r0, .L177+16
 4378 016c FFF7FEFF 		bl	enu_of_ecef_point_f
 4379 0170 3FE2     		b	.L160
 4380              	.L163:
 4381              		.loc 1 537 16
 4382 0172 494B     		ldr	r3, .L177
 4383 0174 1B88     		ldrh	r3, [r3]
 4384 0176 03F00103 		and	r3, r3, #1
ARM GAS  /tmp/cc3mS0ZT.s 			page 78


 4385              		.loc 1 537 15
 4386 017a 002B     		cmp	r3, #0
 4387 017c 33D0     		beq	.L164
 4388              		.loc 1 539 7
 4389 017e 4B4A     		ldr	r2, .L177+20
 4390 0180 4B49     		ldr	r1, .L177+24
 4391 0182 4C48     		ldr	r0, .L177+28
 4392 0184 FFF7FEFF 		bl	enu_of_ecef_pos_i
 4393              		.loc 1 540 7
 4394 0188 434B     		ldr	r3, .L177
 4395 018a 1B88     		ldrh	r3, [r3]
 4396 018c 43F00403 		orr	r3, r3, #4
 4397 0190 9AB2     		uxth	r2, r3
 4398 0192 414B     		ldr	r3, .L177
 4399 0194 1A80     		strh	r2, [r3]	@ movhi
 4400              		.loc 1 541 7
 4401 0196 404B     		ldr	r3, .L177
 4402 0198 DB6E     		ldr	r3, [r3, #108]
 4403 019a 07EE903A 		vmov	s15, r3	@ int
 4404 019e B8EEE77A 		vcvt.f32.s32	s14, s15
 4405 01a2 DFED3E6A 		vldr.32	s13, .L177+4
 4406 01a6 C7EE267A 		vdiv.f32	s15, s14, s13
 4407 01aa 3B4B     		ldr	r3, .L177
 4408 01ac C3ED427A 		vstr.32	s15, [r3, #264]
 4409 01b0 394B     		ldr	r3, .L177
 4410 01b2 1B6F     		ldr	r3, [r3, #112]
 4411 01b4 07EE903A 		vmov	s15, r3	@ int
 4412 01b8 B8EEE77A 		vcvt.f32.s32	s14, s15
 4413 01bc DFED376A 		vldr.32	s13, .L177+4
 4414 01c0 C7EE267A 		vdiv.f32	s15, s14, s13
 4415 01c4 344B     		ldr	r3, .L177
 4416 01c6 C3ED437A 		vstr.32	s15, [r3, #268]
 4417 01ca 334B     		ldr	r3, .L177
 4418 01cc 5B6F     		ldr	r3, [r3, #116]
 4419 01ce 07EE903A 		vmov	s15, r3	@ int
 4420 01d2 B8EEE77A 		vcvt.f32.s32	s14, s15
 4421 01d6 DFED316A 		vldr.32	s13, .L177+4
 4422 01da C7EE267A 		vdiv.f32	s15, s14, s13
 4423 01de 2E4B     		ldr	r3, .L177
 4424 01e0 C3ED447A 		vstr.32	s15, [r3, #272]
 4425 01e4 05E2     		b	.L160
 4426              	.L164:
 4427              		.loc 1 542 16
 4428 01e6 2C4B     		ldr	r3, .L177
 4429 01e8 1B88     		ldrh	r3, [r3]
 4430 01ea 1B0A     		lsrs	r3, r3, #8
 4431 01ec 9BB2     		uxth	r3, r3
 4432 01ee 03F00103 		and	r3, r3, #1
 4433              		.loc 1 542 15
 4434 01f2 002B     		cmp	r3, #0
 4435 01f4 05D0     		beq	.L165
 4436              		.loc 1 543 7
 4437 01f6 304A     		ldr	r2, .L177+32
 4438 01f8 2A49     		ldr	r1, .L177+12
 4439 01fa 2B48     		ldr	r0, .L177+16
 4440 01fc FFF7FEFF 		bl	enu_of_lla_point_f
 4441 0200 F7E1     		b	.L160
ARM GAS  /tmp/cc3mS0ZT.s 			page 79


 4442              	.L165:
 4443              		.loc 1 544 16
 4444 0202 254B     		ldr	r3, .L177
 4445 0204 1B88     		ldrh	r3, [r3]
 4446 0206 DB08     		lsrs	r3, r3, #3
 4447 0208 9BB2     		uxth	r3, r3
 4448 020a 03F00103 		and	r3, r3, #1
 4449              		.loc 1 544 15
 4450 020e 002B     		cmp	r3, #0
 4451 0210 3ED0     		beq	.L166
 4452              		.loc 1 546 7
 4453 0212 2A49     		ldr	r1, .L177+36
 4454 0214 2548     		ldr	r0, .L177+20
 4455 0216 FFF7FEFF 		bl	ecef_of_lla_i
 4456              		.loc 1 547 7
 4457 021a 1F4B     		ldr	r3, .L177
 4458 021c 1B88     		ldrh	r3, [r3]
 4459 021e 43F00103 		orr	r3, r3, #1
 4460 0222 9AB2     		uxth	r2, r3
 4461 0224 1C4B     		ldr	r3, .L177
 4462 0226 1A80     		strh	r2, [r3]	@ movhi
 4463              		.loc 1 548 7
 4464 0228 204A     		ldr	r2, .L177+20
 4465 022a 2149     		ldr	r1, .L177+24
 4466 022c 2148     		ldr	r0, .L177+28
 4467 022e FFF7FEFF 		bl	enu_of_ecef_pos_i
 4468              		.loc 1 549 7
 4469 0232 194B     		ldr	r3, .L177
 4470 0234 1B88     		ldrh	r3, [r3]
 4471 0236 43F00403 		orr	r3, r3, #4
 4472 023a 9AB2     		uxth	r2, r3
 4473 023c 164B     		ldr	r3, .L177
 4474 023e 1A80     		strh	r2, [r3]	@ movhi
 4475              		.loc 1 550 7
 4476 0240 154B     		ldr	r3, .L177
 4477 0242 DB6E     		ldr	r3, [r3, #108]
 4478 0244 07EE903A 		vmov	s15, r3	@ int
 4479 0248 B8EEE77A 		vcvt.f32.s32	s14, s15
 4480 024c DFED136A 		vldr.32	s13, .L177+4
 4481 0250 C7EE267A 		vdiv.f32	s15, s14, s13
 4482 0254 104B     		ldr	r3, .L177
 4483 0256 C3ED427A 		vstr.32	s15, [r3, #264]
 4484 025a 0F4B     		ldr	r3, .L177
 4485 025c 1B6F     		ldr	r3, [r3, #112]
 4486 025e 07EE903A 		vmov	s15, r3	@ int
 4487 0262 B8EEE77A 		vcvt.f32.s32	s14, s15
 4488 0266 DFED0D6A 		vldr.32	s13, .L177+4
 4489 026a C7EE267A 		vdiv.f32	s15, s14, s13
 4490 026e 0A4B     		ldr	r3, .L177
 4491 0270 C3ED437A 		vstr.32	s15, [r3, #268]
 4492 0274 084B     		ldr	r3, .L177
 4493 0276 5B6F     		ldr	r3, [r3, #116]
 4494 0278 07EE903A 		vmov	s15, r3	@ int
 4495 027c B8EEE77A 		vcvt.f32.s32	s14, s15
 4496 0280 DFED066A 		vldr.32	s13, .L177+4
 4497 0284 C7EE267A 		vdiv.f32	s15, s14, s13
 4498 0288 034B     		ldr	r3, .L177
ARM GAS  /tmp/cc3mS0ZT.s 			page 80


 4499 028a C3ED447A 		vstr.32	s15, [r3, #272]
 4500 028e B0E1     		b	.L160
 4501              	.L166:
 4502              		.loc 1 552 13
 4503 0290 0123     		movs	r3, #1
 4504 0292 0193     		str	r3, [sp, #4]
 4505 0294 ADE1     		b	.L160
 4506              	.L178:
 4507 0296 00BF     		.align	2
 4508              	.L177:
 4509 0298 00000000 		.word	state
 4510 029c 00008043 		.word	1132462080
 4511 02a0 98000000 		.word	state+152
 4512 02a4 A4000000 		.word	state+164
 4513 02a8 08010000 		.word	state+264
 4514 02ac 04000000 		.word	state+4
 4515 02b0 1C000000 		.word	state+28
 4516 02b4 6C000000 		.word	state+108
 4517 02b8 8C000000 		.word	state+140
 4518 02bc 10000000 		.word	state+16
 4519              	.L158:
 4520              		.loc 1 554 19
 4521 02c0 7E4B     		ldr	r3, .L179
 4522 02c2 93F8F830 		ldrb	r3, [r3, #248]	@ zero_extendqisi2
 4523              		.loc 1 554 13
 4524 02c6 002B     		cmp	r3, #0
 4525 02c8 00F09181 		beq	.L167
 4526              		.loc 1 555 9
 4527 02cc 7B4B     		ldr	r3, .L179
 4528 02ce 1B88     		ldrh	r3, [r3]
 4529 02d0 9B08     		lsrs	r3, r3, #2
 4530 02d2 9BB2     		uxth	r3, r3
 4531 02d4 03F00103 		and	r3, r3, #1
 4532              		.loc 1 555 8
 4533 02d8 002B     		cmp	r3, #0
 4534 02da 27D0     		beq	.L168
 4535              		.loc 1 556 7
 4536 02dc 774B     		ldr	r3, .L179
 4537 02de DB6E     		ldr	r3, [r3, #108]
 4538 02e0 07EE903A 		vmov	s15, r3	@ int
 4539 02e4 B8EEE77A 		vcvt.f32.s32	s14, s15
 4540 02e8 DFED756A 		vldr.32	s13, .L179+4
 4541 02ec C7EE267A 		vdiv.f32	s15, s14, s13
 4542 02f0 724B     		ldr	r3, .L179
 4543 02f2 C3ED427A 		vstr.32	s15, [r3, #264]
 4544 02f6 714B     		ldr	r3, .L179
 4545 02f8 1B6F     		ldr	r3, [r3, #112]
 4546 02fa 07EE903A 		vmov	s15, r3	@ int
 4547 02fe B8EEE77A 		vcvt.f32.s32	s14, s15
 4548 0302 DFED6F6A 		vldr.32	s13, .L179+4
 4549 0306 C7EE267A 		vdiv.f32	s15, s14, s13
 4550 030a 6C4B     		ldr	r3, .L179
 4551 030c C3ED437A 		vstr.32	s15, [r3, #268]
 4552 0310 6A4B     		ldr	r3, .L179
 4553 0312 5B6F     		ldr	r3, [r3, #116]
 4554 0314 07EE903A 		vmov	s15, r3	@ int
 4555 0318 B8EEE77A 		vcvt.f32.s32	s14, s15
ARM GAS  /tmp/cc3mS0ZT.s 			page 81


 4556 031c DFED686A 		vldr.32	s13, .L179+4
 4557 0320 C7EE267A 		vdiv.f32	s15, s14, s13
 4558 0324 654B     		ldr	r3, .L179
 4559 0326 C3ED447A 		vstr.32	s15, [r3, #272]
 4560 032a 62E1     		b	.L160
 4561              	.L168:
 4562              		.loc 1 557 16
 4563 032c 634B     		ldr	r3, .L179
 4564 032e 1B88     		ldrh	r3, [r3]
 4565 0330 9B09     		lsrs	r3, r3, #6
 4566 0332 9BB2     		uxth	r3, r3
 4567 0334 03F00103 		and	r3, r3, #1
 4568              		.loc 1 557 15
 4569 0338 002B     		cmp	r3, #0
 4570 033a 14D0     		beq	.L169
 4571              		.loc 1 558 7
 4572 033c 5F4B     		ldr	r3, .L179
 4573 033e D3F80031 		ldr	r3, [r3, #256]	@ float
 4574 0342 5E4A     		ldr	r2, .L179
 4575 0344 C2F80831 		str	r3, [r2, #264]	@ float
 4576 0348 5C4B     		ldr	r3, .L179
 4577 034a D3F8FC30 		ldr	r3, [r3, #252]	@ float
 4578 034e 5B4A     		ldr	r2, .L179
 4579 0350 C2F80C31 		str	r3, [r2, #268]	@ float
 4580 0354 594B     		ldr	r3, .L179
 4581 0356 D3ED417A 		vldr.32	s15, [r3, #260]
 4582 035a F1EE677A 		vneg.f32	s15, s15
 4583 035e 574B     		ldr	r3, .L179
 4584 0360 C3ED447A 		vstr.32	s15, [r3, #272]
 4585 0364 45E1     		b	.L160
 4586              	.L169:
 4587              		.loc 1 559 16
 4588 0366 554B     		ldr	r3, .L179
 4589 0368 1B88     		ldrh	r3, [r3]
 4590 036a 5B08     		lsrs	r3, r3, #1
 4591 036c 9BB2     		uxth	r3, r3
 4592 036e 03F00103 		and	r3, r3, #1
 4593              		.loc 1 559 15
 4594 0372 002B     		cmp	r3, #0
 4595 0374 42D0     		beq	.L170
 4596              		.loc 1 560 7
 4597 0376 514B     		ldr	r3, .L179
 4598 0378 1B6E     		ldr	r3, [r3, #96]
 4599 037a 07EE903A 		vmov	s15, r3	@ int
 4600 037e B8EEE77A 		vcvt.f32.s32	s14, s15
 4601 0382 DFED4F6A 		vldr.32	s13, .L179+4
 4602 0386 C7EE267A 		vdiv.f32	s15, s14, s13
 4603 038a 4C4B     		ldr	r3, .L179
 4604 038c C3ED3F7A 		vstr.32	s15, [r3, #252]
 4605 0390 4A4B     		ldr	r3, .L179
 4606 0392 5B6E     		ldr	r3, [r3, #100]
 4607 0394 07EE903A 		vmov	s15, r3	@ int
 4608 0398 B8EEE77A 		vcvt.f32.s32	s14, s15
 4609 039c DFED486A 		vldr.32	s13, .L179+4
 4610 03a0 C7EE267A 		vdiv.f32	s15, s14, s13
 4611 03a4 454B     		ldr	r3, .L179
 4612 03a6 C3ED407A 		vstr.32	s15, [r3, #256]
ARM GAS  /tmp/cc3mS0ZT.s 			page 82


 4613 03aa 444B     		ldr	r3, .L179
 4614 03ac 9B6E     		ldr	r3, [r3, #104]
 4615 03ae 07EE903A 		vmov	s15, r3	@ int
 4616 03b2 B8EEE77A 		vcvt.f32.s32	s14, s15
 4617 03b6 DFED426A 		vldr.32	s13, .L179+4
 4618 03ba C7EE267A 		vdiv.f32	s15, s14, s13
 4619 03be 3F4B     		ldr	r3, .L179
 4620 03c0 C3ED417A 		vstr.32	s15, [r3, #260]
 4621              		.loc 1 561 7
 4622 03c4 3D4B     		ldr	r3, .L179
 4623 03c6 1B88     		ldrh	r3, [r3]
 4624 03c8 43F04003 		orr	r3, r3, #64
 4625 03cc 9AB2     		uxth	r2, r3
 4626 03ce 3B4B     		ldr	r3, .L179
 4627 03d0 1A80     		strh	r2, [r3]	@ movhi
 4628              		.loc 1 562 7
 4629 03d2 3A4B     		ldr	r3, .L179
 4630 03d4 D3F80031 		ldr	r3, [r3, #256]	@ float
 4631 03d8 384A     		ldr	r2, .L179
 4632 03da C2F80831 		str	r3, [r2, #264]	@ float
 4633 03de 374B     		ldr	r3, .L179
 4634 03e0 D3F8FC30 		ldr	r3, [r3, #252]	@ float
 4635 03e4 354A     		ldr	r2, .L179
 4636 03e6 C2F80C31 		str	r3, [r2, #268]	@ float
 4637 03ea 344B     		ldr	r3, .L179
 4638 03ec D3ED417A 		vldr.32	s15, [r3, #260]
 4639 03f0 F1EE677A 		vneg.f32	s15, s15
 4640 03f4 314B     		ldr	r3, .L179
 4641 03f6 C3ED447A 		vstr.32	s15, [r3, #272]
 4642 03fa FAE0     		b	.L160
 4643              	.L170:
 4644              		.loc 1 563 16
 4645 03fc 2F4B     		ldr	r3, .L179
 4646 03fe 1B88     		ldrh	r3, [r3]
 4647 0400 5B0A     		lsrs	r3, r3, #9
 4648 0402 9BB2     		uxth	r3, r3
 4649 0404 03F00103 		and	r3, r3, #1
 4650              		.loc 1 563 15
 4651 0408 002B     		cmp	r3, #0
 4652 040a 21D0     		beq	.L171
 4653              		.loc 1 564 7
 4654 040c 2B4B     		ldr	r3, .L179
 4655 040e 93ED1F7A 		vldr.32	s14, [r3, #124]
 4656 0412 2A4B     		ldr	r3, .L179
 4657 0414 D3ED3B7A 		vldr.32	s15, [r3, #236]
 4658 0418 77EE677A 		vsub.f32	s15, s14, s15
 4659 041c 274B     		ldr	r3, .L179
 4660 041e C3ED427A 		vstr.32	s15, [r3, #264]
 4661 0422 264B     		ldr	r3, .L179
 4662 0424 93ED1E7A 		vldr.32	s14, [r3, #120]
 4663 0428 244B     		ldr	r3, .L179
 4664 042a D3ED3A7A 		vldr.32	s15, [r3, #232]
 4665 042e 77EE677A 		vsub.f32	s15, s14, s15
 4666 0432 224B     		ldr	r3, .L179
 4667 0434 C3ED437A 		vstr.32	s15, [r3, #268]
 4668 0438 204B     		ldr	r3, .L179
 4669 043a 93ED207A 		vldr.32	s14, [r3, #128]
ARM GAS  /tmp/cc3mS0ZT.s 			page 83


 4670 043e 1F4B     		ldr	r3, .L179
 4671 0440 D3ED3C7A 		vldr.32	s15, [r3, #240]
 4672 0444 77EE677A 		vsub.f32	s15, s14, s15
 4673 0448 1C4B     		ldr	r3, .L179
 4674 044a C3ED447A 		vstr.32	s15, [r3, #272]
 4675 044e D0E0     		b	.L160
 4676              	.L171:
 4677              		.loc 1 565 16
 4678 0450 1A4B     		ldr	r3, .L179
 4679 0452 1B88     		ldrh	r3, [r3]
 4680 0454 1B0A     		lsrs	r3, r3, #8
 4681 0456 9BB2     		uxth	r3, r3
 4682 0458 03F00103 		and	r3, r3, #1
 4683              		.loc 1 565 15
 4684 045c 002B     		cmp	r3, #0
 4685 045e 35D0     		beq	.L172
 4686              		.loc 1 567 7
 4687 0460 1849     		ldr	r1, .L179+8
 4688 0462 1948     		ldr	r0, .L179+12
 4689 0464 FFF7FEFF 		bl	utm_of_lla_f
 4690              		.loc 1 568 7
 4691 0468 144B     		ldr	r3, .L179
 4692 046a 1B88     		ldrh	r3, [r3]
 4693 046c 43F40073 		orr	r3, r3, #512
 4694 0470 9AB2     		uxth	r2, r3
 4695 0472 124B     		ldr	r3, .L179
 4696 0474 1A80     		strh	r2, [r3]	@ movhi
 4697              		.loc 1 569 7
 4698 0476 114B     		ldr	r3, .L179
 4699 0478 93ED1F7A 		vldr.32	s14, [r3, #124]
 4700 047c 0F4B     		ldr	r3, .L179
 4701 047e D3ED3B7A 		vldr.32	s15, [r3, #236]
 4702 0482 77EE677A 		vsub.f32	s15, s14, s15
 4703 0486 0D4B     		ldr	r3, .L179
 4704 0488 C3ED427A 		vstr.32	s15, [r3, #264]
 4705 048c 0B4B     		ldr	r3, .L179
 4706 048e 93ED1E7A 		vldr.32	s14, [r3, #120]
 4707 0492 0A4B     		ldr	r3, .L179
 4708 0494 D3ED3A7A 		vldr.32	s15, [r3, #232]
 4709 0498 77EE677A 		vsub.f32	s15, s14, s15
 4710 049c 074B     		ldr	r3, .L179
 4711 049e C3ED437A 		vstr.32	s15, [r3, #268]
 4712 04a2 064B     		ldr	r3, .L179
 4713 04a4 93ED207A 		vldr.32	s14, [r3, #128]
 4714 04a8 044B     		ldr	r3, .L179
 4715 04aa D3ED3C7A 		vldr.32	s15, [r3, #240]
 4716 04ae 77EE677A 		vsub.f32	s15, s14, s15
 4717 04b2 024B     		ldr	r3, .L179
 4718 04b4 C3ED447A 		vstr.32	s15, [r3, #272]
 4719 04b8 9BE0     		b	.L160
 4720              	.L180:
 4721 04ba 00BF     		.align	2
 4722              	.L179:
 4723 04bc 00000000 		.word	state
 4724 04c0 00008043 		.word	1132462080
 4725 04c4 8C000000 		.word	state+140
 4726 04c8 78000000 		.word	state+120
ARM GAS  /tmp/cc3mS0ZT.s 			page 84


 4727              	.L172:
 4728              		.loc 1 570 16
 4729 04cc 564B     		ldr	r3, .L181+16
 4730 04ce 1B88     		ldrh	r3, [r3]
 4731 04d0 DB08     		lsrs	r3, r3, #3
 4732 04d2 9BB2     		uxth	r3, r3
 4733 04d4 03F00103 		and	r3, r3, #1
 4734              		.loc 1 570 15
 4735 04d8 002B     		cmp	r3, #0
 4736 04da 00F08580 		beq	.L173
 4737              		.loc 1 572 7
 4738 04de 524B     		ldr	r3, .L181+16
 4739 04e0 1B69     		ldr	r3, [r3, #16]
 4740 04e2 07EE903A 		vmov	s15, r3	@ int
 4741 04e6 F8EEE77A 		vcvt.f32.s32	s15, s15
 4742 04ea 17EE900A 		vmov	r0, s15
 4743 04ee FFF7FEFF 		bl	__aeabi_f2d
 4744 04f2 49A3     		adr	r3, .L181
 4745 04f4 D3E90023 		ldrd	r2, [r3]
 4746 04f8 FFF7FEFF 		bl	__aeabi_dmul
 4747 04fc 0246     		mov	r2, r0
 4748 04fe 0B46     		mov	r3, r1
 4749 0500 1046     		mov	r0, r2
 4750 0502 1946     		mov	r1, r3
 4751 0504 46A3     		adr	r3, .L181+8
 4752 0506 D3E90023 		ldrd	r2, [r3]
 4753 050a FFF7FEFF 		bl	__aeabi_ddiv
 4754 050e 0246     		mov	r2, r0
 4755 0510 0B46     		mov	r3, r1
 4756 0512 1046     		mov	r0, r2
 4757 0514 1946     		mov	r1, r3
 4758 0516 FFF7FEFF 		bl	__aeabi_d2f
 4759 051a 0346     		mov	r3, r0	@ float
 4760 051c 424A     		ldr	r2, .L181+16
 4761 051e C2F88C30 		str	r3, [r2, #140]	@ float
 4762 0522 414B     		ldr	r3, .L181+16
 4763 0524 5B69     		ldr	r3, [r3, #20]
 4764 0526 07EE903A 		vmov	s15, r3	@ int
 4765 052a F8EEE77A 		vcvt.f32.s32	s15, s15
 4766 052e 17EE900A 		vmov	r0, s15
 4767 0532 FFF7FEFF 		bl	__aeabi_f2d
 4768 0536 38A3     		adr	r3, .L181
 4769 0538 D3E90023 		ldrd	r2, [r3]
 4770 053c FFF7FEFF 		bl	__aeabi_dmul
 4771 0540 0246     		mov	r2, r0
 4772 0542 0B46     		mov	r3, r1
 4773 0544 1046     		mov	r0, r2
 4774 0546 1946     		mov	r1, r3
 4775 0548 35A3     		adr	r3, .L181+8
 4776 054a D3E90023 		ldrd	r2, [r3]
 4777 054e FFF7FEFF 		bl	__aeabi_ddiv
 4778 0552 0246     		mov	r2, r0
 4779 0554 0B46     		mov	r3, r1
 4780 0556 1046     		mov	r0, r2
 4781 0558 1946     		mov	r1, r3
 4782 055a FFF7FEFF 		bl	__aeabi_d2f
 4783 055e 0346     		mov	r3, r0	@ float
ARM GAS  /tmp/cc3mS0ZT.s 			page 85


 4784 0560 314A     		ldr	r2, .L181+16
 4785 0562 C2F89030 		str	r3, [r2, #144]	@ float
 4786 0566 304B     		ldr	r3, .L181+16
 4787 0568 9B69     		ldr	r3, [r3, #24]
 4788 056a 07EE903A 		vmov	s15, r3	@ int
 4789 056e B8EEE77A 		vcvt.f32.s32	s14, s15
 4790 0572 DFED2E6A 		vldr.32	s13, .L181+20
 4791 0576 C7EE267A 		vdiv.f32	s15, s14, s13
 4792 057a 2B4B     		ldr	r3, .L181+16
 4793 057c C3ED257A 		vstr.32	s15, [r3, #148]
 4794              		.loc 1 573 7
 4795 0580 294B     		ldr	r3, .L181+16
 4796 0582 1B88     		ldrh	r3, [r3]
 4797 0584 43F48073 		orr	r3, r3, #256
 4798 0588 9AB2     		uxth	r2, r3
 4799 058a 274B     		ldr	r3, .L181+16
 4800 058c 1A80     		strh	r2, [r3]	@ movhi
 4801              		.loc 1 574 7
 4802 058e 2849     		ldr	r1, .L181+24
 4803 0590 2848     		ldr	r0, .L181+28
 4804 0592 FFF7FEFF 		bl	utm_of_lla_f
 4805              		.loc 1 575 7
 4806 0596 244B     		ldr	r3, .L181+16
 4807 0598 1B88     		ldrh	r3, [r3]
 4808 059a 43F40073 		orr	r3, r3, #512
 4809 059e 9AB2     		uxth	r2, r3
 4810 05a0 214B     		ldr	r3, .L181+16
 4811 05a2 1A80     		strh	r2, [r3]	@ movhi
 4812              		.loc 1 576 7
 4813 05a4 204B     		ldr	r3, .L181+16
 4814 05a6 93ED1F7A 		vldr.32	s14, [r3, #124]
 4815 05aa 1F4B     		ldr	r3, .L181+16
 4816 05ac D3ED3B7A 		vldr.32	s15, [r3, #236]
 4817 05b0 77EE677A 		vsub.f32	s15, s14, s15
 4818 05b4 1C4B     		ldr	r3, .L181+16
 4819 05b6 C3ED427A 		vstr.32	s15, [r3, #264]
 4820 05ba 1B4B     		ldr	r3, .L181+16
 4821 05bc 93ED1E7A 		vldr.32	s14, [r3, #120]
 4822 05c0 194B     		ldr	r3, .L181+16
 4823 05c2 D3ED3A7A 		vldr.32	s15, [r3, #232]
 4824 05c6 77EE677A 		vsub.f32	s15, s14, s15
 4825 05ca 174B     		ldr	r3, .L181+16
 4826 05cc C3ED437A 		vstr.32	s15, [r3, #268]
 4827 05d0 154B     		ldr	r3, .L181+16
 4828 05d2 93ED207A 		vldr.32	s14, [r3, #128]
 4829 05d6 144B     		ldr	r3, .L181+16
 4830 05d8 D3ED3C7A 		vldr.32	s15, [r3, #240]
 4831 05dc 77EE677A 		vsub.f32	s15, s14, s15
 4832 05e0 114B     		ldr	r3, .L181+16
 4833 05e2 C3ED447A 		vstr.32	s15, [r3, #272]
 4834 05e6 04E0     		b	.L160
 4835              	.L173:
 4836              		.loc 1 578 13
 4837 05e8 0223     		movs	r3, #2
 4838 05ea 0193     		str	r3, [sp, #4]
 4839 05ec 01E0     		b	.L160
 4840              	.L167:
ARM GAS  /tmp/cc3mS0ZT.s 			page 86


 4841              		.loc 1 581 11
 4842 05ee 0323     		movs	r3, #3
 4843 05f0 0193     		str	r3, [sp, #4]
 4844              	.L160:
 4845              		.loc 1 583 6
 4846 05f2 019B     		ldr	r3, [sp, #4]
 4847 05f4 002B     		cmp	r3, #0
 4848 05f6 09D1     		bne	.L176
 4849              		.loc 1 589 3
 4850 05f8 0B4B     		ldr	r3, .L181+16
 4851 05fa 1B88     		ldrh	r3, [r3]
 4852 05fc 43F08003 		orr	r3, r3, #128
 4853 0600 9AB2     		uxth	r2, r3
 4854 0602 094B     		ldr	r3, .L181+16
 4855 0604 1A80     		strh	r2, [r3]	@ movhi
 4856 0606 02E0     		b	.L155
 4857              	.L175:
 4858              		.loc 1 522 5
 4859 0608 00BF     		nop
 4860 060a 00E0     		b	.L155
 4861              	.L176:
 4862              		.loc 1 586 5
 4863 060c 00BF     		nop
 4864              	.L155:
 4865              		.loc 1 590 1
 4866 060e 03B0     		add	sp, sp, #12
 4867              		.cfi_def_cfa_offset 4
 4868              		@ sp needed
 4869 0610 5DF804FB 		ldr	pc, [sp], #4
 4870              	.L182:
 4871 0614 AFF30080 		.align	3
 4872              	.L181:
 4873 0618 399D52A2 		.word	-1571644103
 4874 061c 46DF913F 		.word	1066524486
 4875 0620 00000000 		.word	0
 4876 0624 D0126341 		.word	1097011920
 4877 0628 00000000 		.word	state
 4878 062c 00007A44 		.word	1148846080
 4879 0630 8C000000 		.word	state+140
 4880 0634 78000000 		.word	state+120
 4881              		.cfi_endproc
 4882              	.LFE181:
 4883              		.size	stateCalcPositionEnu_f, .-stateCalcPositionEnu_f
 4884              		.section	.text.stateCalcPositionLla_f,"ax",%progbits
 4885              		.align	1
 4886              		.p2align 4,,15
 4887              		.global	stateCalcPositionLla_f
 4888              		.syntax unified
 4889              		.thumb
 4890              		.thumb_func
 4891              		.fpu fpv4-sp-d16
 4892              		.type	stateCalcPositionLla_f, %function
 4893              	stateCalcPositionLla_f:
 4894              	.LFB182:
 4895              		.loc 1 593 1
 4896              		.cfi_startproc
 4897              		@ args = 0, pretend = 0, frame = 8
ARM GAS  /tmp/cc3mS0ZT.s 			page 87


 4898              		@ frame_needed = 0, uses_anonymous_args = 0
 4899 0000 00B5     		push	{lr}
 4900              		.cfi_def_cfa_offset 4
 4901              		.cfi_offset 14, -4
 4902 0002 83B0     		sub	sp, sp, #12
 4903              		.cfi_def_cfa_offset 16
 4904              		.loc 1 594 7
 4905 0004 9A4B     		ldr	r3, .L204+16
 4906 0006 1B88     		ldrh	r3, [r3]
 4907 0008 1B0A     		lsrs	r3, r3, #8
 4908 000a 9BB2     		uxth	r3, r3
 4909 000c 03F00103 		and	r3, r3, #1
 4910              		.loc 1 594 6
 4911 0010 002B     		cmp	r3, #0
 4912 0012 40F0E082 		bne	.L202
 4913              		.loc 1 598 7
 4914 0016 0023     		movs	r3, #0
 4915 0018 0193     		str	r3, [sp, #4]
 4916              		.loc 1 599 7
 4917 001a 954B     		ldr	r3, .L204+16
 4918 001c 1B88     		ldrh	r3, [r3]
 4919 001e DB08     		lsrs	r3, r3, #3
 4920 0020 9BB2     		uxth	r3, r3
 4921 0022 03F00103 		and	r3, r3, #1
 4922              		.loc 1 599 6
 4923 0026 002B     		cmp	r3, #0
 4924 0028 46D0     		beq	.L186
 4925              		.loc 1 600 5
 4926 002a 914B     		ldr	r3, .L204+16
 4927 002c D3F88C30 		ldr	r3, [r3, #140]	@ float
 4928 0030 1846     		mov	r0, r3	@ float
 4929 0032 FFF7FEFF 		bl	__aeabi_f2d
 4930 0036 8AA3     		adr	r3, .L204
 4931 0038 D3E90023 		ldrd	r2, [r3]
 4932 003c FFF7FEFF 		bl	__aeabi_dmul
 4933 0040 0246     		mov	r2, r0
 4934 0042 0B46     		mov	r3, r1
 4935 0044 1046     		mov	r0, r2
 4936 0046 1946     		mov	r1, r3
 4937 0048 87A3     		adr	r3, .L204+8
 4938 004a D3E90023 		ldrd	r2, [r3]
 4939 004e FFF7FEFF 		bl	__aeabi_ddiv
 4940 0052 0246     		mov	r2, r0
 4941 0054 0B46     		mov	r3, r1
 4942 0056 1046     		mov	r0, r2
 4943 0058 1946     		mov	r1, r3
 4944 005a FFF7FEFF 		bl	__aeabi_d2f
 4945 005e 0346     		mov	r3, r0	@ float
 4946 0060 834A     		ldr	r2, .L204+16
 4947 0062 C2F88C30 		str	r3, [r2, #140]	@ float
 4948 0066 824B     		ldr	r3, .L204+16
 4949 0068 D3F89030 		ldr	r3, [r3, #144]	@ float
 4950 006c 1846     		mov	r0, r3	@ float
 4951 006e FFF7FEFF 		bl	__aeabi_f2d
 4952 0072 7BA3     		adr	r3, .L204
 4953 0074 D3E90023 		ldrd	r2, [r3]
 4954 0078 FFF7FEFF 		bl	__aeabi_dmul
ARM GAS  /tmp/cc3mS0ZT.s 			page 88


 4955 007c 0246     		mov	r2, r0
 4956 007e 0B46     		mov	r3, r1
 4957 0080 1046     		mov	r0, r2
 4958 0082 1946     		mov	r1, r3
 4959 0084 78A3     		adr	r3, .L204+8
 4960 0086 D3E90023 		ldrd	r2, [r3]
 4961 008a FFF7FEFF 		bl	__aeabi_ddiv
 4962 008e 0246     		mov	r2, r0
 4963 0090 0B46     		mov	r3, r1
 4964 0092 1046     		mov	r0, r2
 4965 0094 1946     		mov	r1, r3
 4966 0096 FFF7FEFF 		bl	__aeabi_d2f
 4967 009a 0346     		mov	r3, r0	@ float
 4968 009c 744A     		ldr	r2, .L204+16
 4969 009e C2F89030 		str	r3, [r2, #144]	@ float
 4970 00a2 734B     		ldr	r3, .L204+16
 4971 00a4 93ED257A 		vldr.32	s14, [r3, #148]
 4972 00a8 DFED726A 		vldr.32	s13, .L204+20
 4973 00ac C7EE267A 		vdiv.f32	s15, s14, s13
 4974 00b0 6F4B     		ldr	r3, .L204+16
 4975 00b2 C3ED257A 		vstr.32	s15, [r3, #148]
 4976 00b6 83E2     		b	.L187
 4977              	.L186:
 4978              		.loc 1 601 14
 4979 00b8 6D4B     		ldr	r3, .L204+16
 4980 00ba 1B88     		ldrh	r3, [r3]
 4981 00bc 5B09     		lsrs	r3, r3, #5
 4982 00be 9BB2     		uxth	r3, r3
 4983 00c0 03F00103 		and	r3, r3, #1
 4984              		.loc 1 601 13
 4985 00c4 002B     		cmp	r3, #0
 4986 00c6 04D0     		beq	.L188
 4987              		.loc 1 602 5
 4988 00c8 6B49     		ldr	r1, .L204+24
 4989 00ca 6C48     		ldr	r0, .L204+28
 4990 00cc FFF7FEFF 		bl	lla_of_ecef_f
 4991 00d0 76E2     		b	.L187
 4992              	.L188:
 4993              		.loc 1 603 14
 4994 00d2 674B     		ldr	r3, .L204+16
 4995 00d4 1B88     		ldrh	r3, [r3]
 4996 00d6 03F00103 		and	r3, r3, #1
 4997              		.loc 1 603 13
 4998 00da 002B     		cmp	r3, #0
 4999 00dc 32D0     		beq	.L189
 5000              		.loc 1 605 5
 5001 00de 644B     		ldr	r3, .L204+16
 5002 00e0 5B68     		ldr	r3, [r3, #4]
 5003 00e2 07EE903A 		vmov	s15, r3	@ int
 5004 00e6 B8EEE77A 		vcvt.f32.s32	s14, s15
 5005 00ea DFED656A 		vldr.32	s13, .L204+32
 5006 00ee C7EE267A 		vdiv.f32	s15, s14, s13
 5007 00f2 5F4B     		ldr	r3, .L204+16
 5008 00f4 C3ED267A 		vstr.32	s15, [r3, #152]
 5009 00f8 5D4B     		ldr	r3, .L204+16
 5010 00fa 9B68     		ldr	r3, [r3, #8]
 5011 00fc 07EE903A 		vmov	s15, r3	@ int
ARM GAS  /tmp/cc3mS0ZT.s 			page 89


 5012 0100 B8EEE77A 		vcvt.f32.s32	s14, s15
 5013 0104 DFED5E6A 		vldr.32	s13, .L204+32
 5014 0108 C7EE267A 		vdiv.f32	s15, s14, s13
 5015 010c 584B     		ldr	r3, .L204+16
 5016 010e C3ED277A 		vstr.32	s15, [r3, #156]
 5017 0112 574B     		ldr	r3, .L204+16
 5018 0114 DB68     		ldr	r3, [r3, #12]
 5019 0116 07EE903A 		vmov	s15, r3	@ int
 5020 011a B8EEE77A 		vcvt.f32.s32	s14, s15
 5021 011e DFED586A 		vldr.32	s13, .L204+32
 5022 0122 C7EE267A 		vdiv.f32	s15, s14, s13
 5023 0126 524B     		ldr	r3, .L204+16
 5024 0128 C3ED287A 		vstr.32	s15, [r3, #160]
 5025              		.loc 1 606 5
 5026 012c 504B     		ldr	r3, .L204+16
 5027 012e 1B88     		ldrh	r3, [r3]
 5028 0130 43F02003 		orr	r3, r3, #32
 5029 0134 9AB2     		uxth	r2, r3
 5030 0136 4E4B     		ldr	r3, .L204+16
 5031 0138 1A80     		strh	r2, [r3]	@ movhi
 5032              		.loc 1 607 5
 5033 013a 4F49     		ldr	r1, .L204+24
 5034 013c 4F48     		ldr	r0, .L204+28
 5035 013e FFF7FEFF 		bl	lla_of_ecef_f
 5036 0142 3DE2     		b	.L187
 5037              	.L189:
 5038              		.loc 1 608 14
 5039 0144 4A4B     		ldr	r3, .L204+16
 5040 0146 1B88     		ldrh	r3, [r3]
 5041 0148 5B0A     		lsrs	r3, r3, #9
 5042 014a 9BB2     		uxth	r3, r3
 5043 014c 03F00103 		and	r3, r3, #1
 5044              		.loc 1 608 13
 5045 0150 002B     		cmp	r3, #0
 5046 0152 04D0     		beq	.L190
 5047              		.loc 1 609 5
 5048 0154 4B49     		ldr	r1, .L204+36
 5049 0156 4948     		ldr	r0, .L204+28
 5050 0158 FFF7FEFF 		bl	lla_of_utm_f
 5051 015c 30E2     		b	.L187
 5052              	.L190:
 5053              		.loc 1 610 19
 5054 015e 444B     		ldr	r3, .L204+16
 5055 0160 93F8E430 		ldrb	r3, [r3, #228]	@ zero_extendqisi2
 5056              		.loc 1 610 13
 5057 0164 002B     		cmp	r3, #0
 5058 0166 00F0E180 		beq	.L191
 5059              		.loc 1 611 9
 5060 016a 414B     		ldr	r3, .L204+16
 5061 016c 1B88     		ldrh	r3, [r3]
 5062 016e 9B09     		lsrs	r3, r3, #6
 5063 0170 9BB2     		uxth	r3, r3
 5064 0172 03F00103 		and	r3, r3, #1
 5065              		.loc 1 611 8
 5066 0176 002B     		cmp	r3, #0
 5067 0178 10D0     		beq	.L192
 5068              		.loc 1 613 7
ARM GAS  /tmp/cc3mS0ZT.s 			page 90


 5069 017a 434A     		ldr	r2, .L204+40
 5070 017c 4349     		ldr	r1, .L204+44
 5071 017e 3E48     		ldr	r0, .L204+24
 5072 0180 FFF7FEFF 		bl	ecef_of_ned_point_f
 5073              		.loc 1 614 7
 5074 0184 3A4B     		ldr	r3, .L204+16
 5075 0186 1B88     		ldrh	r3, [r3]
 5076 0188 43F02003 		orr	r3, r3, #32
 5077 018c 9AB2     		uxth	r2, r3
 5078 018e 384B     		ldr	r3, .L204+16
 5079 0190 1A80     		strh	r2, [r3]	@ movhi
 5080              		.loc 1 615 7
 5081 0192 3949     		ldr	r1, .L204+24
 5082 0194 3948     		ldr	r0, .L204+28
 5083 0196 FFF7FEFF 		bl	lla_of_ecef_f
 5084 019a 11E2     		b	.L187
 5085              	.L192:
 5086              		.loc 1 616 16
 5087 019c 344B     		ldr	r3, .L204+16
 5088 019e 1B88     		ldrh	r3, [r3]
 5089 01a0 5B08     		lsrs	r3, r3, #1
 5090 01a2 9BB2     		uxth	r3, r3
 5091 01a4 03F00103 		and	r3, r3, #1
 5092              		.loc 1 616 15
 5093 01a8 002B     		cmp	r3, #0
 5094 01aa 3ED0     		beq	.L193
 5095              		.loc 1 618 7
 5096 01ac 304B     		ldr	r3, .L204+16
 5097 01ae 1B6E     		ldr	r3, [r3, #96]
 5098 01b0 07EE903A 		vmov	s15, r3	@ int
 5099 01b4 B8EEE77A 		vcvt.f32.s32	s14, s15
 5100 01b8 DFED356A 		vldr.32	s13, .L204+48
 5101 01bc C7EE267A 		vdiv.f32	s15, s14, s13
 5102 01c0 2B4B     		ldr	r3, .L204+16
 5103 01c2 C3ED3F7A 		vstr.32	s15, [r3, #252]
 5104 01c6 2A4B     		ldr	r3, .L204+16
 5105 01c8 5B6E     		ldr	r3, [r3, #100]
 5106 01ca 07EE903A 		vmov	s15, r3	@ int
 5107 01ce B8EEE77A 		vcvt.f32.s32	s14, s15
 5108 01d2 DFED2F6A 		vldr.32	s13, .L204+48
 5109 01d6 C7EE267A 		vdiv.f32	s15, s14, s13
 5110 01da 254B     		ldr	r3, .L204+16
 5111 01dc C3ED407A 		vstr.32	s15, [r3, #256]
 5112 01e0 234B     		ldr	r3, .L204+16
 5113 01e2 9B6E     		ldr	r3, [r3, #104]
 5114 01e4 07EE903A 		vmov	s15, r3	@ int
 5115 01e8 B8EEE77A 		vcvt.f32.s32	s14, s15
 5116 01ec DFED286A 		vldr.32	s13, .L204+48
 5117 01f0 C7EE267A 		vdiv.f32	s15, s14, s13
 5118 01f4 1E4B     		ldr	r3, .L204+16
 5119 01f6 C3ED417A 		vstr.32	s15, [r3, #260]
 5120              		.loc 1 619 7
 5121 01fa 1D4B     		ldr	r3, .L204+16
 5122 01fc 1B88     		ldrh	r3, [r3]
 5123 01fe 43F04003 		orr	r3, r3, #64
 5124 0202 9AB2     		uxth	r2, r3
 5125 0204 1A4B     		ldr	r3, .L204+16
ARM GAS  /tmp/cc3mS0ZT.s 			page 91


 5126 0206 1A80     		strh	r2, [r3]	@ movhi
 5127              		.loc 1 620 7
 5128 0208 1F4A     		ldr	r2, .L204+40
 5129 020a 2049     		ldr	r1, .L204+44
 5130 020c 1A48     		ldr	r0, .L204+24
 5131 020e FFF7FEFF 		bl	ecef_of_ned_point_f
 5132              		.loc 1 621 7
 5133 0212 174B     		ldr	r3, .L204+16
 5134 0214 1B88     		ldrh	r3, [r3]
 5135 0216 43F02003 		orr	r3, r3, #32
 5136 021a 9AB2     		uxth	r2, r3
 5137 021c 144B     		ldr	r3, .L204+16
 5138 021e 1A80     		strh	r2, [r3]	@ movhi
 5139              		.loc 1 622 7
 5140 0220 1549     		ldr	r1, .L204+24
 5141 0222 1648     		ldr	r0, .L204+28
 5142 0224 FFF7FEFF 		bl	lla_of_ecef_f
 5143 0228 CAE1     		b	.L187
 5144              	.L193:
 5145              		.loc 1 623 16
 5146 022a 114B     		ldr	r3, .L204+16
 5147 022c 1B88     		ldrh	r3, [r3]
 5148 022e DB09     		lsrs	r3, r3, #7
 5149 0230 9BB2     		uxth	r3, r3
 5150 0232 03F00103 		and	r3, r3, #1
 5151              		.loc 1 623 15
 5152 0236 002B     		cmp	r3, #0
 5153 0238 2ED0     		beq	.L194
 5154              		.loc 1 625 7
 5155 023a 164A     		ldr	r2, .L204+52
 5156 023c 1349     		ldr	r1, .L204+44
 5157 023e 0E48     		ldr	r0, .L204+24
 5158 0240 FFF7FEFF 		bl	ecef_of_enu_point_f
 5159              		.loc 1 626 7
 5160 0244 0A4B     		ldr	r3, .L204+16
 5161 0246 1B88     		ldrh	r3, [r3]
 5162 0248 43F02003 		orr	r3, r3, #32
 5163 024c 9AB2     		uxth	r2, r3
 5164 024e 084B     		ldr	r3, .L204+16
 5165 0250 1A80     		strh	r2, [r3]	@ movhi
 5166              		.loc 1 627 7
 5167 0252 0949     		ldr	r1, .L204+24
 5168 0254 0948     		ldr	r0, .L204+28
 5169 0256 FFF7FEFF 		bl	lla_of_ecef_f
 5170 025a B1E1     		b	.L187
 5171              	.L205:
 5172 025c AFF30080 		.align	3
 5173              	.L204:
 5174 0260 399D52A2 		.word	-1571644103
 5175 0264 46DF913F 		.word	1066524486
 5176 0268 00000000 		.word	0
 5177 026c D0126341 		.word	1097011920
 5178 0270 00000000 		.word	state
 5179 0274 00007A44 		.word	1148846080
 5180 0278 98000000 		.word	state+152
 5181 027c 8C000000 		.word	state+140
 5182 0280 0000C842 		.word	1120403456
ARM GAS  /tmp/cc3mS0ZT.s 			page 92


 5183 0284 78000000 		.word	state+120
 5184 0288 FC000000 		.word	state+252
 5185 028c A4000000 		.word	state+164
 5186 0290 00008043 		.word	1132462080
 5187 0294 08010000 		.word	state+264
 5188              	.L194:
 5189              		.loc 1 628 16
 5190 0298 A54B     		ldr	r3, .L206
 5191 029a 1B88     		ldrh	r3, [r3]
 5192 029c 9B08     		lsrs	r3, r3, #2
 5193 029e 9BB2     		uxth	r3, r3
 5194 02a0 03F00103 		and	r3, r3, #1
 5195              		.loc 1 628 15
 5196 02a4 002B     		cmp	r3, #0
 5197 02a6 3ED0     		beq	.L195
 5198              		.loc 1 630 7
 5199 02a8 A14B     		ldr	r3, .L206
 5200 02aa DB6E     		ldr	r3, [r3, #108]
 5201 02ac 07EE903A 		vmov	s15, r3	@ int
 5202 02b0 B8EEE77A 		vcvt.f32.s32	s14, s15
 5203 02b4 DFED9F6A 		vldr.32	s13, .L206+4
 5204 02b8 C7EE267A 		vdiv.f32	s15, s14, s13
 5205 02bc 9C4B     		ldr	r3, .L206
 5206 02be C3ED427A 		vstr.32	s15, [r3, #264]
 5207 02c2 9B4B     		ldr	r3, .L206
 5208 02c4 1B6F     		ldr	r3, [r3, #112]
 5209 02c6 07EE903A 		vmov	s15, r3	@ int
 5210 02ca B8EEE77A 		vcvt.f32.s32	s14, s15
 5211 02ce DFED996A 		vldr.32	s13, .L206+4
 5212 02d2 C7EE267A 		vdiv.f32	s15, s14, s13
 5213 02d6 964B     		ldr	r3, .L206
 5214 02d8 C3ED437A 		vstr.32	s15, [r3, #268]
 5215 02dc 944B     		ldr	r3, .L206
 5216 02de 5B6F     		ldr	r3, [r3, #116]
 5217 02e0 07EE903A 		vmov	s15, r3	@ int
 5218 02e4 B8EEE77A 		vcvt.f32.s32	s14, s15
 5219 02e8 DFED926A 		vldr.32	s13, .L206+4
 5220 02ec C7EE267A 		vdiv.f32	s15, s14, s13
 5221 02f0 8F4B     		ldr	r3, .L206
 5222 02f2 C3ED447A 		vstr.32	s15, [r3, #272]
 5223              		.loc 1 631 7
 5224 02f6 8E4B     		ldr	r3, .L206
 5225 02f8 1B88     		ldrh	r3, [r3]
 5226 02fa 43F08003 		orr	r3, r3, #128
 5227 02fe 9AB2     		uxth	r2, r3
 5228 0300 8B4B     		ldr	r3, .L206
 5229 0302 1A80     		strh	r2, [r3]	@ movhi
 5230              		.loc 1 632 7
 5231 0304 8C4A     		ldr	r2, .L206+8
 5232 0306 8D49     		ldr	r1, .L206+12
 5233 0308 8D48     		ldr	r0, .L206+16
 5234 030a FFF7FEFF 		bl	ecef_of_enu_point_f
 5235              		.loc 1 633 7
 5236 030e 884B     		ldr	r3, .L206
 5237 0310 1B88     		ldrh	r3, [r3]
 5238 0312 43F02003 		orr	r3, r3, #32
 5239 0316 9AB2     		uxth	r2, r3
ARM GAS  /tmp/cc3mS0ZT.s 			page 93


 5240 0318 854B     		ldr	r3, .L206
 5241 031a 1A80     		strh	r2, [r3]	@ movhi
 5242              		.loc 1 634 7
 5243 031c 8849     		ldr	r1, .L206+16
 5244 031e 8948     		ldr	r0, .L206+20
 5245 0320 FFF7FEFF 		bl	lla_of_ecef_f
 5246 0324 4CE1     		b	.L187
 5247              	.L195:
 5248              		.loc 1 636 13
 5249 0326 0123     		movs	r3, #1
 5250 0328 0193     		str	r3, [sp, #4]
 5251 032a 49E1     		b	.L187
 5252              	.L191:
 5253              		.loc 1 638 19
 5254 032c 804B     		ldr	r3, .L206
 5255 032e 93F8F830 		ldrb	r3, [r3, #248]	@ zero_extendqisi2
 5256              		.loc 1 638 13
 5257 0332 002B     		cmp	r3, #0
 5258 0334 00F04281 		beq	.L196
 5259              		.loc 1 639 9
 5260 0338 7D4B     		ldr	r3, .L206
 5261 033a 1B88     		ldrh	r3, [r3]
 5262 033c 5B08     		lsrs	r3, r3, #1
 5263 033e 9BB2     		uxth	r3, r3
 5264 0340 03F00103 		and	r3, r3, #1
 5265              		.loc 1 639 8
 5266 0344 002B     		cmp	r3, #0
 5267 0346 5AD0     		beq	.L197
 5268              		.loc 1 641 7
 5269 0348 794B     		ldr	r3, .L206
 5270 034a 1B6E     		ldr	r3, [r3, #96]
 5271 034c 07EE903A 		vmov	s15, r3	@ int
 5272 0350 B8EEE77A 		vcvt.f32.s32	s14, s15
 5273 0354 DFED776A 		vldr.32	s13, .L206+4
 5274 0358 C7EE267A 		vdiv.f32	s15, s14, s13
 5275 035c 744B     		ldr	r3, .L206
 5276 035e C3ED3F7A 		vstr.32	s15, [r3, #252]
 5277 0362 734B     		ldr	r3, .L206
 5278 0364 5B6E     		ldr	r3, [r3, #100]
 5279 0366 07EE903A 		vmov	s15, r3	@ int
 5280 036a B8EEE77A 		vcvt.f32.s32	s14, s15
 5281 036e DFED716A 		vldr.32	s13, .L206+4
 5282 0372 C7EE267A 		vdiv.f32	s15, s14, s13
 5283 0376 6E4B     		ldr	r3, .L206
 5284 0378 C3ED407A 		vstr.32	s15, [r3, #256]
 5285 037c 6C4B     		ldr	r3, .L206
 5286 037e 9B6E     		ldr	r3, [r3, #104]
 5287 0380 07EE903A 		vmov	s15, r3	@ int
 5288 0384 B8EEE77A 		vcvt.f32.s32	s14, s15
 5289 0388 DFED6A6A 		vldr.32	s13, .L206+4
 5290 038c C7EE267A 		vdiv.f32	s15, s14, s13
 5291 0390 674B     		ldr	r3, .L206
 5292 0392 C3ED417A 		vstr.32	s15, [r3, #260]
 5293              		.loc 1 642 7
 5294 0396 664B     		ldr	r3, .L206
 5295 0398 1B88     		ldrh	r3, [r3]
 5296 039a 43F04003 		orr	r3, r3, #64
ARM GAS  /tmp/cc3mS0ZT.s 			page 94


 5297 039e 9AB2     		uxth	r2, r3
 5298 03a0 634B     		ldr	r3, .L206
 5299 03a2 1A80     		strh	r2, [r3]	@ movhi
 5300              		.loc 1 643 7
 5301 03a4 624B     		ldr	r3, .L206
 5302 03a6 93ED3B7A 		vldr.32	s14, [r3, #236]
 5303 03aa 614B     		ldr	r3, .L206
 5304 03ac D3ED407A 		vldr.32	s15, [r3, #256]
 5305 03b0 77EE277A 		vadd.f32	s15, s14, s15
 5306 03b4 5E4B     		ldr	r3, .L206
 5307 03b6 C3ED1F7A 		vstr.32	s15, [r3, #124]
 5308 03ba 5D4B     		ldr	r3, .L206
 5309 03bc 93ED3A7A 		vldr.32	s14, [r3, #232]
 5310 03c0 5B4B     		ldr	r3, .L206
 5311 03c2 D3ED3F7A 		vldr.32	s15, [r3, #252]
 5312 03c6 77EE277A 		vadd.f32	s15, s14, s15
 5313 03ca 594B     		ldr	r3, .L206
 5314 03cc C3ED1E7A 		vstr.32	s15, [r3, #120]
 5315 03d0 574B     		ldr	r3, .L206
 5316 03d2 93ED3C7A 		vldr.32	s14, [r3, #240]
 5317 03d6 564B     		ldr	r3, .L206
 5318 03d8 D3ED417A 		vldr.32	s15, [r3, #260]
 5319 03dc 77EE677A 		vsub.f32	s15, s14, s15
 5320 03e0 534B     		ldr	r3, .L206
 5321 03e2 C3ED207A 		vstr.32	s15, [r3, #128]
 5322              		.loc 1 644 7
 5323 03e6 524B     		ldr	r3, .L206
 5324 03e8 1B88     		ldrh	r3, [r3]
 5325 03ea 43F40073 		orr	r3, r3, #512
 5326 03ee 9AB2     		uxth	r2, r3
 5327 03f0 4F4B     		ldr	r3, .L206
 5328 03f2 1A80     		strh	r2, [r3]	@ movhi
 5329              		.loc 1 645 7
 5330 03f4 5449     		ldr	r1, .L206+24
 5331 03f6 5348     		ldr	r0, .L206+20
 5332 03f8 FFF7FEFF 		bl	lla_of_utm_f
 5333 03fc E0E0     		b	.L187
 5334              	.L197:
 5335              		.loc 1 646 16
 5336 03fe 4C4B     		ldr	r3, .L206
 5337 0400 1B88     		ldrh	r3, [r3]
 5338 0402 9B08     		lsrs	r3, r3, #2
 5339 0404 9BB2     		uxth	r3, r3
 5340 0406 03F00103 		and	r3, r3, #1
 5341              		.loc 1 646 15
 5342 040a 002B     		cmp	r3, #0
 5343 040c 5AD0     		beq	.L198
 5344              		.loc 1 648 7
 5345 040e 484B     		ldr	r3, .L206
 5346 0410 DB6E     		ldr	r3, [r3, #108]
 5347 0412 07EE903A 		vmov	s15, r3	@ int
 5348 0416 B8EEE77A 		vcvt.f32.s32	s14, s15
 5349 041a DFED466A 		vldr.32	s13, .L206+4
 5350 041e C7EE267A 		vdiv.f32	s15, s14, s13
 5351 0422 434B     		ldr	r3, .L206
 5352 0424 C3ED427A 		vstr.32	s15, [r3, #264]
 5353 0428 414B     		ldr	r3, .L206
ARM GAS  /tmp/cc3mS0ZT.s 			page 95


 5354 042a 1B6F     		ldr	r3, [r3, #112]
 5355 042c 07EE903A 		vmov	s15, r3	@ int
 5356 0430 B8EEE77A 		vcvt.f32.s32	s14, s15
 5357 0434 DFED3F6A 		vldr.32	s13, .L206+4
 5358 0438 C7EE267A 		vdiv.f32	s15, s14, s13
 5359 043c 3C4B     		ldr	r3, .L206
 5360 043e C3ED437A 		vstr.32	s15, [r3, #268]
 5361 0442 3B4B     		ldr	r3, .L206
 5362 0444 5B6F     		ldr	r3, [r3, #116]
 5363 0446 07EE903A 		vmov	s15, r3	@ int
 5364 044a B8EEE77A 		vcvt.f32.s32	s14, s15
 5365 044e DFED396A 		vldr.32	s13, .L206+4
 5366 0452 C7EE267A 		vdiv.f32	s15, s14, s13
 5367 0456 364B     		ldr	r3, .L206
 5368 0458 C3ED447A 		vstr.32	s15, [r3, #272]
 5369              		.loc 1 649 7
 5370 045c 344B     		ldr	r3, .L206
 5371 045e 1B88     		ldrh	r3, [r3]
 5372 0460 43F08003 		orr	r3, r3, #128
 5373 0464 9AB2     		uxth	r2, r3
 5374 0466 324B     		ldr	r3, .L206
 5375 0468 1A80     		strh	r2, [r3]	@ movhi
 5376              		.loc 1 650 7
 5377 046a 314B     		ldr	r3, .L206
 5378 046c 93ED3B7A 		vldr.32	s14, [r3, #236]
 5379 0470 2F4B     		ldr	r3, .L206
 5380 0472 D3ED427A 		vldr.32	s15, [r3, #264]
 5381 0476 77EE277A 		vadd.f32	s15, s14, s15
 5382 047a 2D4B     		ldr	r3, .L206
 5383 047c C3ED1F7A 		vstr.32	s15, [r3, #124]
 5384 0480 2B4B     		ldr	r3, .L206
 5385 0482 93ED3A7A 		vldr.32	s14, [r3, #232]
 5386 0486 2A4B     		ldr	r3, .L206
 5387 0488 D3ED437A 		vldr.32	s15, [r3, #268]
 5388 048c 77EE277A 		vadd.f32	s15, s14, s15
 5389 0490 274B     		ldr	r3, .L206
 5390 0492 C3ED1E7A 		vstr.32	s15, [r3, #120]
 5391 0496 264B     		ldr	r3, .L206
 5392 0498 93ED3C7A 		vldr.32	s14, [r3, #240]
 5393 049c 244B     		ldr	r3, .L206
 5394 049e D3ED447A 		vldr.32	s15, [r3, #272]
 5395 04a2 77EE277A 		vadd.f32	s15, s14, s15
 5396 04a6 224B     		ldr	r3, .L206
 5397 04a8 C3ED207A 		vstr.32	s15, [r3, #128]
 5398              		.loc 1 651 7
 5399 04ac 204B     		ldr	r3, .L206
 5400 04ae 1B88     		ldrh	r3, [r3]
 5401 04b0 43F40073 		orr	r3, r3, #512
 5402 04b4 9AB2     		uxth	r2, r3
 5403 04b6 1E4B     		ldr	r3, .L206
 5404 04b8 1A80     		strh	r2, [r3]	@ movhi
 5405              		.loc 1 652 7
 5406 04ba 2349     		ldr	r1, .L206+24
 5407 04bc 2148     		ldr	r0, .L206+20
 5408 04be FFF7FEFF 		bl	lla_of_utm_f
 5409 04c2 7DE0     		b	.L187
 5410              	.L198:
ARM GAS  /tmp/cc3mS0ZT.s 			page 96


 5411              		.loc 1 653 16
 5412 04c4 1A4B     		ldr	r3, .L206
 5413 04c6 1B88     		ldrh	r3, [r3]
 5414 04c8 9B09     		lsrs	r3, r3, #6
 5415 04ca 9BB2     		uxth	r3, r3
 5416 04cc 03F00103 		and	r3, r3, #1
 5417              		.loc 1 653 15
 5418 04d0 002B     		cmp	r3, #0
 5419 04d2 3BD0     		beq	.L199
 5420              		.loc 1 655 7
 5421 04d4 164B     		ldr	r3, .L206
 5422 04d6 93ED3B7A 		vldr.32	s14, [r3, #236]
 5423 04da 154B     		ldr	r3, .L206
 5424 04dc D3ED407A 		vldr.32	s15, [r3, #256]
 5425 04e0 77EE277A 		vadd.f32	s15, s14, s15
 5426 04e4 124B     		ldr	r3, .L206
 5427 04e6 C3ED1F7A 		vstr.32	s15, [r3, #124]
 5428 04ea 114B     		ldr	r3, .L206
 5429 04ec 93ED3A7A 		vldr.32	s14, [r3, #232]
 5430 04f0 0F4B     		ldr	r3, .L206
 5431 04f2 D3ED3F7A 		vldr.32	s15, [r3, #252]
 5432 04f6 77EE277A 		vadd.f32	s15, s14, s15
 5433 04fa 0D4B     		ldr	r3, .L206
 5434 04fc C3ED1E7A 		vstr.32	s15, [r3, #120]
 5435 0500 0B4B     		ldr	r3, .L206
 5436 0502 93ED3C7A 		vldr.32	s14, [r3, #240]
 5437 0506 0A4B     		ldr	r3, .L206
 5438 0508 D3ED417A 		vldr.32	s15, [r3, #260]
 5439 050c 77EE677A 		vsub.f32	s15, s14, s15
 5440 0510 074B     		ldr	r3, .L206
 5441 0512 C3ED207A 		vstr.32	s15, [r3, #128]
 5442              		.loc 1 656 7
 5443 0516 064B     		ldr	r3, .L206
 5444 0518 1B88     		ldrh	r3, [r3]
 5445 051a 43F40073 		orr	r3, r3, #512
 5446 051e 9AB2     		uxth	r2, r3
 5447 0520 034B     		ldr	r3, .L206
 5448 0522 1A80     		strh	r2, [r3]	@ movhi
 5449              		.loc 1 657 7
 5450 0524 0849     		ldr	r1, .L206+24
 5451 0526 0748     		ldr	r0, .L206+20
 5452 0528 FFF7FEFF 		bl	lla_of_utm_f
 5453 052c 48E0     		b	.L187
 5454              	.L207:
 5455 052e 00BF     		.align	2
 5456              	.L206:
 5457 0530 00000000 		.word	state
 5458 0534 00008043 		.word	1132462080
 5459 0538 08010000 		.word	state+264
 5460 053c A4000000 		.word	state+164
 5461 0540 98000000 		.word	state+152
 5462 0544 8C000000 		.word	state+140
 5463 0548 78000000 		.word	state+120
 5464              	.L199:
 5465              		.loc 1 658 16
 5466 054c 254B     		ldr	r3, .L208
 5467 054e 1B88     		ldrh	r3, [r3]
ARM GAS  /tmp/cc3mS0ZT.s 			page 97


 5468 0550 DB09     		lsrs	r3, r3, #7
 5469 0552 9BB2     		uxth	r3, r3
 5470 0554 03F00103 		and	r3, r3, #1
 5471              		.loc 1 658 15
 5472 0558 002B     		cmp	r3, #0
 5473 055a 2CD0     		beq	.L200
 5474              		.loc 1 660 7
 5475 055c 214B     		ldr	r3, .L208
 5476 055e 93ED3B7A 		vldr.32	s14, [r3, #236]
 5477 0562 204B     		ldr	r3, .L208
 5478 0564 D3ED427A 		vldr.32	s15, [r3, #264]
 5479 0568 77EE277A 		vadd.f32	s15, s14, s15
 5480 056c 1D4B     		ldr	r3, .L208
 5481 056e C3ED1F7A 		vstr.32	s15, [r3, #124]
 5482 0572 1C4B     		ldr	r3, .L208
 5483 0574 93ED3A7A 		vldr.32	s14, [r3, #232]
 5484 0578 1A4B     		ldr	r3, .L208
 5485 057a D3ED437A 		vldr.32	s15, [r3, #268]
 5486 057e 77EE277A 		vadd.f32	s15, s14, s15
 5487 0582 184B     		ldr	r3, .L208
 5488 0584 C3ED1E7A 		vstr.32	s15, [r3, #120]
 5489 0588 164B     		ldr	r3, .L208
 5490 058a 93ED3C7A 		vldr.32	s14, [r3, #240]
 5491 058e 154B     		ldr	r3, .L208
 5492 0590 D3ED447A 		vldr.32	s15, [r3, #272]
 5493 0594 77EE277A 		vadd.f32	s15, s14, s15
 5494 0598 124B     		ldr	r3, .L208
 5495 059a C3ED207A 		vstr.32	s15, [r3, #128]
 5496              		.loc 1 661 7
 5497 059e 114B     		ldr	r3, .L208
 5498 05a0 1B88     		ldrh	r3, [r3]
 5499 05a2 43F40073 		orr	r3, r3, #512
 5500 05a6 9AB2     		uxth	r2, r3
 5501 05a8 0E4B     		ldr	r3, .L208
 5502 05aa 1A80     		strh	r2, [r3]	@ movhi
 5503              		.loc 1 662 7
 5504 05ac 0E49     		ldr	r1, .L208+4
 5505 05ae 0F48     		ldr	r0, .L208+8
 5506 05b0 FFF7FEFF 		bl	lla_of_utm_f
 5507 05b4 04E0     		b	.L187
 5508              	.L200:
 5509              		.loc 1 664 13
 5510 05b6 0223     		movs	r3, #2
 5511 05b8 0193     		str	r3, [sp, #4]
 5512 05ba 01E0     		b	.L187
 5513              	.L196:
 5514              		.loc 1 667 11
 5515 05bc 0323     		movs	r3, #3
 5516 05be 0193     		str	r3, [sp, #4]
 5517              	.L187:
 5518              		.loc 1 669 6
 5519 05c0 019B     		ldr	r3, [sp, #4]
 5520 05c2 002B     		cmp	r3, #0
 5521 05c4 09D1     		bne	.L203
 5522              		.loc 1 676 3
 5523 05c6 074B     		ldr	r3, .L208
 5524 05c8 1B88     		ldrh	r3, [r3]
ARM GAS  /tmp/cc3mS0ZT.s 			page 98


 5525 05ca 43F48073 		orr	r3, r3, #256
 5526 05ce 9AB2     		uxth	r2, r3
 5527 05d0 044B     		ldr	r3, .L208
 5528 05d2 1A80     		strh	r2, [r3]	@ movhi
 5529 05d4 02E0     		b	.L183
 5530              	.L202:
 5531              		.loc 1 595 5
 5532 05d6 00BF     		nop
 5533 05d8 00E0     		b	.L183
 5534              	.L203:
 5535              		.loc 1 673 5
 5536 05da 00BF     		nop
 5537              	.L183:
 5538              		.loc 1 677 1
 5539 05dc 03B0     		add	sp, sp, #12
 5540              		.cfi_def_cfa_offset 4
 5541              		@ sp needed
 5542 05de 5DF804FB 		ldr	pc, [sp], #4
 5543              	.L209:
 5544 05e2 00BF     		.align	2
 5545              	.L208:
 5546 05e4 00000000 		.word	state
 5547 05e8 78000000 		.word	state+120
 5548 05ec 8C000000 		.word	state+140
 5549              		.cfi_endproc
 5550              	.LFE182:
 5551              		.size	stateCalcPositionLla_f, .-stateCalcPositionLla_f
 5552              		.section	.text.stateCalcSpeedNed_i,"ax",%progbits
 5553              		.align	1
 5554              		.p2align 4,,15
 5555              		.global	stateCalcSpeedNed_i
 5556              		.syntax unified
 5557              		.thumb
 5558              		.thumb_func
 5559              		.fpu fpv4-sp-d16
 5560              		.type	stateCalcSpeedNed_i, %function
 5561              	stateCalcSpeedNed_i:
 5562              	.LFB183:
 5563              		.loc 1 694 1
 5564              		.cfi_startproc
 5565              		@ args = 0, pretend = 0, frame = 8
 5566              		@ frame_needed = 0, uses_anonymous_args = 0
 5567 0000 00B5     		push	{lr}
 5568              		.cfi_def_cfa_offset 4
 5569              		.cfi_offset 14, -4
 5570 0002 83B0     		sub	sp, sp, #12
 5571              		.cfi_def_cfa_offset 16
 5572              		.loc 1 695 7
 5573 0004 AD4B     		ldr	r3, .L227
 5574 0006 B3F81431 		ldrh	r3, [r3, #276]
 5575 000a 5B08     		lsrs	r3, r3, #1
 5576 000c 9BB2     		uxth	r3, r3
 5577 000e 03F00103 		and	r3, r3, #1
 5578              		.loc 1 695 6
 5579 0012 002B     		cmp	r3, #0
 5580 0014 40F0BE81 		bne	.L225
 5581              		.loc 1 699 7
ARM GAS  /tmp/cc3mS0ZT.s 			page 99


 5582 0018 0023     		movs	r3, #0
 5583 001a 0193     		str	r3, [sp, #4]
 5584              		.loc 1 700 12
 5585 001c A74B     		ldr	r3, .L227
 5586 001e 93F85C30 		ldrb	r3, [r3, #92]	@ zero_extendqisi2
 5587              		.loc 1 700 6
 5588 0022 002B     		cmp	r3, #0
 5589 0024 00F0F380 		beq	.L213
 5590              		.loc 1 701 9
 5591 0028 A44B     		ldr	r3, .L227
 5592 002a B3F81431 		ldrh	r3, [r3, #276]
 5593 002e 9B09     		lsrs	r3, r3, #6
 5594 0030 9BB2     		uxth	r3, r3
 5595 0032 03F00103 		and	r3, r3, #1
 5596              		.loc 1 701 8
 5597 0036 002B     		cmp	r3, #0
 5598 0038 2AD0     		beq	.L214
 5599              		.loc 1 702 7
 5600 003a A04B     		ldr	r3, .L227
 5601 003c D3ED547A 		vldr.32	s15, [r3, #336]
 5602 0040 9FED9F7A 		vldr.32	s14, .L227+4
 5603 0044 67EE877A 		vmul.f32	s15, s15, s14
 5604 0048 FDEEE77A 		vcvt.s32.f32	s15, s15
 5605 004c 17EE902A 		vmov	r2, s15	@ int
 5606 0050 9A4B     		ldr	r3, .L227
 5607 0052 C3F82421 		str	r2, [r3, #292]
 5608 0056 994B     		ldr	r3, .L227
 5609 0058 D3ED557A 		vldr.32	s15, [r3, #340]
 5610 005c 9FED987A 		vldr.32	s14, .L227+4
 5611 0060 67EE877A 		vmul.f32	s15, s15, s14
 5612 0064 FDEEE77A 		vcvt.s32.f32	s15, s15
 5613 0068 17EE902A 		vmov	r2, s15	@ int
 5614 006c 934B     		ldr	r3, .L227
 5615 006e C3F82821 		str	r2, [r3, #296]
 5616 0072 924B     		ldr	r3, .L227
 5617 0074 D3ED567A 		vldr.32	s15, [r3, #344]
 5618 0078 9FED917A 		vldr.32	s14, .L227+4
 5619 007c 67EE877A 		vmul.f32	s15, s15, s14
 5620 0080 FDEEE77A 		vcvt.s32.f32	s15, s15
 5621 0084 17EE902A 		vmov	r2, s15	@ int
 5622 0088 8C4B     		ldr	r3, .L227
 5623 008a C3F82C21 		str	r2, [r3, #300]
 5624 008e 74E1     		b	.L215
 5625              	.L214:
 5626              		.loc 1 703 16
 5627 0090 8A4B     		ldr	r3, .L227
 5628 0092 B3F81431 		ldrh	r3, [r3, #276]
 5629 0096 9B08     		lsrs	r3, r3, #2
 5630 0098 9BB2     		uxth	r3, r3
 5631 009a 03F00103 		and	r3, r3, #1
 5632              		.loc 1 703 15
 5633 009e 002B     		cmp	r3, #0
 5634 00a0 13D0     		beq	.L216
 5635              		.loc 1 704 7
 5636 00a2 864B     		ldr	r3, .L227
 5637 00a4 D3F83431 		ldr	r3, [r3, #308]
 5638 00a8 844A     		ldr	r2, .L227
ARM GAS  /tmp/cc3mS0ZT.s 			page 100


 5639 00aa C2F82431 		str	r3, [r2, #292]
 5640 00ae 834B     		ldr	r3, .L227
 5641 00b0 D3F83031 		ldr	r3, [r3, #304]
 5642 00b4 814A     		ldr	r2, .L227
 5643 00b6 C2F82831 		str	r3, [r2, #296]
 5644 00ba 804B     		ldr	r3, .L227
 5645 00bc D3F83831 		ldr	r3, [r3, #312]
 5646 00c0 5B42     		rsbs	r3, r3, #0
 5647 00c2 7E4A     		ldr	r2, .L227
 5648 00c4 C2F82C31 		str	r3, [r2, #300]
 5649 00c8 57E1     		b	.L215
 5650              	.L216:
 5651              		.loc 1 705 16
 5652 00ca 7C4B     		ldr	r3, .L227
 5653 00cc B3F81431 		ldrh	r3, [r3, #276]
 5654 00d0 DB09     		lsrs	r3, r3, #7
 5655 00d2 9BB2     		uxth	r3, r3
 5656 00d4 03F00103 		and	r3, r3, #1
 5657              		.loc 1 705 15
 5658 00d8 002B     		cmp	r3, #0
 5659 00da 46D0     		beq	.L217
 5660              		.loc 1 706 7
 5661 00dc 774B     		ldr	r3, .L227
 5662 00de D3ED577A 		vldr.32	s15, [r3, #348]
 5663 00e2 9FED777A 		vldr.32	s14, .L227+4
 5664 00e6 67EE877A 		vmul.f32	s15, s15, s14
 5665 00ea FDEEE77A 		vcvt.s32.f32	s15, s15
 5666 00ee 17EE902A 		vmov	r2, s15	@ int
 5667 00f2 724B     		ldr	r3, .L227
 5668 00f4 C3F83021 		str	r2, [r3, #304]
 5669 00f8 704B     		ldr	r3, .L227
 5670 00fa D3ED587A 		vldr.32	s15, [r3, #352]
 5671 00fe 9FED707A 		vldr.32	s14, .L227+4
 5672 0102 67EE877A 		vmul.f32	s15, s15, s14
 5673 0106 FDEEE77A 		vcvt.s32.f32	s15, s15
 5674 010a 17EE902A 		vmov	r2, s15	@ int
 5675 010e 6B4B     		ldr	r3, .L227
 5676 0110 C3F83421 		str	r2, [r3, #308]
 5677 0114 694B     		ldr	r3, .L227
 5678 0116 D3ED597A 		vldr.32	s15, [r3, #356]
 5679 011a 9FED697A 		vldr.32	s14, .L227+4
 5680 011e 67EE877A 		vmul.f32	s15, s15, s14
 5681 0122 FDEEE77A 		vcvt.s32.f32	s15, s15
 5682 0126 17EE902A 		vmov	r2, s15	@ int
 5683 012a 644B     		ldr	r3, .L227
 5684 012c C3F83821 		str	r2, [r3, #312]
 5685              		.loc 1 707 7
 5686 0130 624B     		ldr	r3, .L227
 5687 0132 B3F81431 		ldrh	r3, [r3, #276]
 5688 0136 43F00403 		orr	r3, r3, #4
 5689 013a 9AB2     		uxth	r2, r3
 5690 013c 5F4B     		ldr	r3, .L227
 5691 013e A3F81421 		strh	r2, [r3, #276]	@ movhi
 5692              		.loc 1 708 7
 5693 0142 5E4B     		ldr	r3, .L227
 5694 0144 D3F83431 		ldr	r3, [r3, #308]
 5695 0148 5C4A     		ldr	r2, .L227
ARM GAS  /tmp/cc3mS0ZT.s 			page 101


 5696 014a C2F82431 		str	r3, [r2, #292]
 5697 014e 5B4B     		ldr	r3, .L227
 5698 0150 D3F83031 		ldr	r3, [r3, #304]
 5699 0154 594A     		ldr	r2, .L227
 5700 0156 C2F82831 		str	r3, [r2, #296]
 5701 015a 584B     		ldr	r3, .L227
 5702 015c D3F83831 		ldr	r3, [r3, #312]
 5703 0160 5B42     		rsbs	r3, r3, #0
 5704 0162 564A     		ldr	r2, .L227
 5705 0164 C2F82C31 		str	r3, [r2, #300]
 5706 0168 07E1     		b	.L215
 5707              	.L217:
 5708              		.loc 1 709 16
 5709 016a 544B     		ldr	r3, .L227
 5710 016c B3F81431 		ldrh	r3, [r3, #276]
 5711 0170 03F00103 		and	r3, r3, #1
 5712              		.loc 1 709 15
 5713 0174 002B     		cmp	r3, #0
 5714 0176 05D0     		beq	.L218
 5715              		.loc 1 710 7
 5716 0178 524A     		ldr	r2, .L227+8
 5717 017a 5349     		ldr	r1, .L227+12
 5718 017c 5348     		ldr	r0, .L227+16
 5719 017e FFF7FEFF 		bl	ned_of_ecef_vect_i
 5720 0182 FAE0     		b	.L215
 5721              	.L218:
 5722              		.loc 1 711 16
 5723 0184 4D4B     		ldr	r3, .L227
 5724 0186 B3F81431 		ldrh	r3, [r3, #276]
 5725 018a 5B09     		lsrs	r3, r3, #5
 5726 018c 9BB2     		uxth	r3, r3
 5727 018e 03F00103 		and	r3, r3, #1
 5728              		.loc 1 711 15
 5729 0192 002B     		cmp	r3, #0
 5730 0194 38D0     		beq	.L219
 5731              		.loc 1 713 7
 5732 0196 494B     		ldr	r3, .L227
 5733 0198 D3ED517A 		vldr.32	s15, [r3, #324]
 5734 019c 9FED487A 		vldr.32	s14, .L227+4
 5735 01a0 67EE877A 		vmul.f32	s15, s15, s14
 5736 01a4 FDEEE77A 		vcvt.s32.f32	s15, s15
 5737 01a8 17EE902A 		vmov	r2, s15	@ int
 5738 01ac 434B     		ldr	r3, .L227
 5739 01ae C3F81821 		str	r2, [r3, #280]
 5740 01b2 424B     		ldr	r3, .L227
 5741 01b4 D3ED527A 		vldr.32	s15, [r3, #328]
 5742 01b8 9FED417A 		vldr.32	s14, .L227+4
 5743 01bc 67EE877A 		vmul.f32	s15, s15, s14
 5744 01c0 FDEEE77A 		vcvt.s32.f32	s15, s15
 5745 01c4 17EE902A 		vmov	r2, s15	@ int
 5746 01c8 3C4B     		ldr	r3, .L227
 5747 01ca C3F81C21 		str	r2, [r3, #284]
 5748 01ce 3B4B     		ldr	r3, .L227
 5749 01d0 D3ED537A 		vldr.32	s15, [r3, #332]
 5750 01d4 9FED3A7A 		vldr.32	s14, .L227+4
 5751 01d8 67EE877A 		vmul.f32	s15, s15, s14
 5752 01dc FDEEE77A 		vcvt.s32.f32	s15, s15
ARM GAS  /tmp/cc3mS0ZT.s 			page 102


 5753 01e0 17EE902A 		vmov	r2, s15	@ int
 5754 01e4 354B     		ldr	r3, .L227
 5755 01e6 C3F82021 		str	r2, [r3, #288]
 5756              		.loc 1 714 7
 5757 01ea 344B     		ldr	r3, .L227
 5758 01ec B3F81431 		ldrh	r3, [r3, #276]
 5759 01f0 43F00103 		orr	r3, r3, #1
 5760 01f4 9AB2     		uxth	r2, r3
 5761 01f6 314B     		ldr	r3, .L227
 5762 01f8 A3F81421 		strh	r2, [r3, #276]	@ movhi
 5763              		.loc 1 715 7
 5764 01fc 314A     		ldr	r2, .L227+8
 5765 01fe 3249     		ldr	r1, .L227+12
 5766 0200 3248     		ldr	r0, .L227+16
 5767 0202 FFF7FEFF 		bl	ned_of_ecef_vect_i
 5768 0206 B8E0     		b	.L215
 5769              	.L219:
 5770              		.loc 1 717 13
 5771 0208 0123     		movs	r3, #1
 5772 020a 0193     		str	r3, [sp, #4]
 5773 020c B5E0     		b	.L215
 5774              	.L213:
 5775              		.loc 1 719 19
 5776 020e 2B4B     		ldr	r3, .L227
 5777 0210 93F8F830 		ldrb	r3, [r3, #248]	@ zero_extendqisi2
 5778              		.loc 1 719 13
 5779 0214 002B     		cmp	r3, #0
 5780 0216 00F0AE80 		beq	.L220
 5781              		.loc 1 720 9
 5782 021a 284B     		ldr	r3, .L227
 5783 021c B3F81431 		ldrh	r3, [r3, #276]
 5784 0220 9B09     		lsrs	r3, r3, #6
 5785 0222 9BB2     		uxth	r3, r3
 5786 0224 03F00103 		and	r3, r3, #1
 5787              		.loc 1 720 8
 5788 0228 002B     		cmp	r3, #0
 5789 022a 2AD0     		beq	.L221
 5790              		.loc 1 721 7
 5791 022c 234B     		ldr	r3, .L227
 5792 022e D3ED547A 		vldr.32	s15, [r3, #336]
 5793 0232 9FED237A 		vldr.32	s14, .L227+4
 5794 0236 67EE877A 		vmul.f32	s15, s15, s14
 5795 023a FDEEE77A 		vcvt.s32.f32	s15, s15
 5796 023e 17EE902A 		vmov	r2, s15	@ int
 5797 0242 1E4B     		ldr	r3, .L227
 5798 0244 C3F82421 		str	r2, [r3, #292]
 5799 0248 1C4B     		ldr	r3, .L227
 5800 024a D3ED557A 		vldr.32	s15, [r3, #340]
 5801 024e 9FED1C7A 		vldr.32	s14, .L227+4
 5802 0252 67EE877A 		vmul.f32	s15, s15, s14
 5803 0256 FDEEE77A 		vcvt.s32.f32	s15, s15
 5804 025a 17EE902A 		vmov	r2, s15	@ int
 5805 025e 174B     		ldr	r3, .L227
 5806 0260 C3F82821 		str	r2, [r3, #296]
 5807 0264 154B     		ldr	r3, .L227
 5808 0266 D3ED567A 		vldr.32	s15, [r3, #344]
 5809 026a 9FED157A 		vldr.32	s14, .L227+4
ARM GAS  /tmp/cc3mS0ZT.s 			page 103


 5810 026e 67EE877A 		vmul.f32	s15, s15, s14
 5811 0272 FDEEE77A 		vcvt.s32.f32	s15, s15
 5812 0276 17EE902A 		vmov	r2, s15	@ int
 5813 027a 104B     		ldr	r3, .L227
 5814 027c C3F82C21 		str	r2, [r3, #300]
 5815 0280 7BE0     		b	.L215
 5816              	.L221:
 5817              		.loc 1 722 16
 5818 0282 0E4B     		ldr	r3, .L227
 5819 0284 B3F81431 		ldrh	r3, [r3, #276]
 5820 0288 9B08     		lsrs	r3, r3, #2
 5821 028a 9BB2     		uxth	r3, r3
 5822 028c 03F00103 		and	r3, r3, #1
 5823              		.loc 1 722 15
 5824 0290 002B     		cmp	r3, #0
 5825 0292 1DD0     		beq	.L222
 5826              		.loc 1 723 7
 5827 0294 094B     		ldr	r3, .L227
 5828 0296 D3F83431 		ldr	r3, [r3, #308]
 5829 029a 084A     		ldr	r2, .L227
 5830 029c C2F82431 		str	r3, [r2, #292]
 5831 02a0 064B     		ldr	r3, .L227
 5832 02a2 D3F83031 		ldr	r3, [r3, #304]
 5833 02a6 054A     		ldr	r2, .L227
 5834 02a8 C2F82831 		str	r3, [r2, #296]
 5835 02ac 034B     		ldr	r3, .L227
 5836 02ae D3F83831 		ldr	r3, [r3, #312]
 5837 02b2 5B42     		rsbs	r3, r3, #0
 5838 02b4 014A     		ldr	r2, .L227
 5839 02b6 C2F82C31 		str	r3, [r2, #300]
 5840 02ba 5EE0     		b	.L215
 5841              	.L228:
 5842              		.align	2
 5843              	.L227:
 5844 02bc 00000000 		.word	state
 5845 02c0 00000049 		.word	1224736768
 5846 02c4 18010000 		.word	state+280
 5847 02c8 1C000000 		.word	state+28
 5848 02cc 24010000 		.word	state+292
 5849              	.L222:
 5850              		.loc 1 724 16
 5851 02d0 334B     		ldr	r3, .L229
 5852 02d2 B3F81431 		ldrh	r3, [r3, #276]
 5853 02d6 DB09     		lsrs	r3, r3, #7
 5854 02d8 9BB2     		uxth	r3, r3
 5855 02da 03F00103 		and	r3, r3, #1
 5856              		.loc 1 724 15
 5857 02de 002B     		cmp	r3, #0
 5858 02e0 46D0     		beq	.L223
 5859              		.loc 1 725 7
 5860 02e2 2F4B     		ldr	r3, .L229
 5861 02e4 D3ED577A 		vldr.32	s15, [r3, #348]
 5862 02e8 9FED2E7A 		vldr.32	s14, .L229+4
 5863 02ec 67EE877A 		vmul.f32	s15, s15, s14
 5864 02f0 FDEEE77A 		vcvt.s32.f32	s15, s15
 5865 02f4 17EE902A 		vmov	r2, s15	@ int
 5866 02f8 294B     		ldr	r3, .L229
ARM GAS  /tmp/cc3mS0ZT.s 			page 104


 5867 02fa C3F83021 		str	r2, [r3, #304]
 5868 02fe 284B     		ldr	r3, .L229
 5869 0300 D3ED587A 		vldr.32	s15, [r3, #352]
 5870 0304 9FED277A 		vldr.32	s14, .L229+4
 5871 0308 67EE877A 		vmul.f32	s15, s15, s14
 5872 030c FDEEE77A 		vcvt.s32.f32	s15, s15
 5873 0310 17EE902A 		vmov	r2, s15	@ int
 5874 0314 224B     		ldr	r3, .L229
 5875 0316 C3F83421 		str	r2, [r3, #308]
 5876 031a 214B     		ldr	r3, .L229
 5877 031c D3ED597A 		vldr.32	s15, [r3, #356]
 5878 0320 9FED207A 		vldr.32	s14, .L229+4
 5879 0324 67EE877A 		vmul.f32	s15, s15, s14
 5880 0328 FDEEE77A 		vcvt.s32.f32	s15, s15
 5881 032c 17EE902A 		vmov	r2, s15	@ int
 5882 0330 1B4B     		ldr	r3, .L229
 5883 0332 C3F83821 		str	r2, [r3, #312]
 5884              		.loc 1 726 7
 5885 0336 1A4B     		ldr	r3, .L229
 5886 0338 B3F81431 		ldrh	r3, [r3, #276]
 5887 033c 43F00403 		orr	r3, r3, #4
 5888 0340 9AB2     		uxth	r2, r3
 5889 0342 174B     		ldr	r3, .L229
 5890 0344 A3F81421 		strh	r2, [r3, #276]	@ movhi
 5891              		.loc 1 727 7
 5892 0348 154B     		ldr	r3, .L229
 5893 034a D3F83431 		ldr	r3, [r3, #308]
 5894 034e 144A     		ldr	r2, .L229
 5895 0350 C2F82431 		str	r3, [r2, #292]
 5896 0354 124B     		ldr	r3, .L229
 5897 0356 D3F83031 		ldr	r3, [r3, #304]
 5898 035a 114A     		ldr	r2, .L229
 5899 035c C2F82831 		str	r3, [r2, #296]
 5900 0360 0F4B     		ldr	r3, .L229
 5901 0362 D3F83831 		ldr	r3, [r3, #312]
 5902 0366 5B42     		rsbs	r3, r3, #0
 5903 0368 0D4A     		ldr	r2, .L229
 5904 036a C2F82C31 		str	r3, [r2, #300]
 5905 036e 04E0     		b	.L215
 5906              	.L223:
 5907              		.loc 1 729 13
 5908 0370 0223     		movs	r3, #2
 5909 0372 0193     		str	r3, [sp, #4]
 5910 0374 01E0     		b	.L215
 5911              	.L220:
 5912              		.loc 1 732 11
 5913 0376 0323     		movs	r3, #3
 5914 0378 0193     		str	r3, [sp, #4]
 5915              	.L215:
 5916              		.loc 1 734 6
 5917 037a 019B     		ldr	r3, [sp, #4]
 5918 037c 002B     		cmp	r3, #0
 5919 037e 0BD1     		bne	.L226
 5920              		.loc 1 740 3
 5921 0380 074B     		ldr	r3, .L229
 5922 0382 B3F81431 		ldrh	r3, [r3, #276]
 5923 0386 43F00203 		orr	r3, r3, #2
ARM GAS  /tmp/cc3mS0ZT.s 			page 105


 5924 038a 9AB2     		uxth	r2, r3
 5925 038c 044B     		ldr	r3, .L229
 5926 038e A3F81421 		strh	r2, [r3, #276]	@ movhi
 5927 0392 02E0     		b	.L210
 5928              	.L225:
 5929              		.loc 1 696 5
 5930 0394 00BF     		nop
 5931 0396 00E0     		b	.L210
 5932              	.L226:
 5933              		.loc 1 737 5
 5934 0398 00BF     		nop
 5935              	.L210:
 5936              		.loc 1 741 1
 5937 039a 03B0     		add	sp, sp, #12
 5938              		.cfi_def_cfa_offset 4
 5939              		@ sp needed
 5940 039c 5DF804FB 		ldr	pc, [sp], #4
 5941              	.L230:
 5942              		.align	2
 5943              	.L229:
 5944 03a0 00000000 		.word	state
 5945 03a4 00000049 		.word	1224736768
 5946              		.cfi_endproc
 5947              	.LFE183:
 5948              		.size	stateCalcSpeedNed_i, .-stateCalcSpeedNed_i
 5949              		.section	.text.stateCalcSpeedEnu_i,"ax",%progbits
 5950              		.align	1
 5951              		.p2align 4,,15
 5952              		.global	stateCalcSpeedEnu_i
 5953              		.syntax unified
 5954              		.thumb
 5955              		.thumb_func
 5956              		.fpu fpv4-sp-d16
 5957              		.type	stateCalcSpeedEnu_i, %function
 5958              	stateCalcSpeedEnu_i:
 5959              	.LFB184:
 5960              		.loc 1 744 1
 5961              		.cfi_startproc
 5962              		@ args = 0, pretend = 0, frame = 8
 5963              		@ frame_needed = 0, uses_anonymous_args = 0
 5964 0000 00B5     		push	{lr}
 5965              		.cfi_def_cfa_offset 4
 5966              		.cfi_offset 14, -4
 5967 0002 83B0     		sub	sp, sp, #12
 5968              		.cfi_def_cfa_offset 16
 5969              		.loc 1 745 7
 5970 0004 AC4B     		ldr	r3, .L248
 5971 0006 B3F81431 		ldrh	r3, [r3, #276]
 5972 000a 9B08     		lsrs	r3, r3, #2
 5973 000c 9BB2     		uxth	r3, r3
 5974 000e 03F00103 		and	r3, r3, #1
 5975              		.loc 1 745 6
 5976 0012 002B     		cmp	r3, #0
 5977 0014 40F0BC81 		bne	.L246
 5978              		.loc 1 749 7
 5979 0018 0023     		movs	r3, #0
 5980 001a 0193     		str	r3, [sp, #4]
ARM GAS  /tmp/cc3mS0ZT.s 			page 106


 5981              		.loc 1 750 12
 5982 001c A64B     		ldr	r3, .L248
 5983 001e 93F85C30 		ldrb	r3, [r3, #92]	@ zero_extendqisi2
 5984              		.loc 1 750 6
 5985 0022 002B     		cmp	r3, #0
 5986 0024 00F0F280 		beq	.L234
 5987              		.loc 1 751 9
 5988 0028 A34B     		ldr	r3, .L248
 5989 002a B3F81431 		ldrh	r3, [r3, #276]
 5990 002e 5B08     		lsrs	r3, r3, #1
 5991 0030 9BB2     		uxth	r3, r3
 5992 0032 03F00103 		and	r3, r3, #1
 5993              		.loc 1 751 8
 5994 0036 002B     		cmp	r3, #0
 5995 0038 12D0     		beq	.L235
 5996              		.loc 1 752 7
 5997 003a 9F4B     		ldr	r3, .L248
 5998 003c D3F82831 		ldr	r3, [r3, #296]
 5999 0040 9D4A     		ldr	r2, .L248
 6000 0042 C2F83031 		str	r3, [r2, #304]
 6001 0046 9C4B     		ldr	r3, .L248
 6002 0048 D3F82431 		ldr	r3, [r3, #292]
 6003 004c 9A4A     		ldr	r2, .L248
 6004 004e C2F83431 		str	r3, [r2, #308]
 6005 0052 994B     		ldr	r3, .L248
 6006 0054 D3F82C31 		ldr	r3, [r3, #300]
 6007 0058 5B42     		rsbs	r3, r3, #0
 6008 005a 974A     		ldr	r2, .L248
 6009 005c C2F83831 		str	r3, [r2, #312]
 6010              	.L235:
 6011              		.loc 1 754 9
 6012 0060 954B     		ldr	r3, .L248
 6013 0062 B3F81431 		ldrh	r3, [r3, #276]
 6014 0066 DB09     		lsrs	r3, r3, #7
 6015 0068 9BB2     		uxth	r3, r3
 6016 006a 03F00103 		and	r3, r3, #1
 6017              		.loc 1 754 8
 6018 006e 002B     		cmp	r3, #0
 6019 0070 2AD0     		beq	.L236
 6020              		.loc 1 755 7
 6021 0072 914B     		ldr	r3, .L248
 6022 0074 D3ED577A 		vldr.32	s15, [r3, #348]
 6023 0078 9FED907A 		vldr.32	s14, .L248+4
 6024 007c 67EE877A 		vmul.f32	s15, s15, s14
 6025 0080 FDEEE77A 		vcvt.s32.f32	s15, s15
 6026 0084 17EE902A 		vmov	r2, s15	@ int
 6027 0088 8B4B     		ldr	r3, .L248
 6028 008a C3F83021 		str	r2, [r3, #304]
 6029 008e 8A4B     		ldr	r3, .L248
 6030 0090 D3ED587A 		vldr.32	s15, [r3, #352]
 6031 0094 9FED897A 		vldr.32	s14, .L248+4
 6032 0098 67EE877A 		vmul.f32	s15, s15, s14
 6033 009c FDEEE77A 		vcvt.s32.f32	s15, s15
 6034 00a0 17EE902A 		vmov	r2, s15	@ int
 6035 00a4 844B     		ldr	r3, .L248
 6036 00a6 C3F83421 		str	r2, [r3, #308]
 6037 00aa 834B     		ldr	r3, .L248
ARM GAS  /tmp/cc3mS0ZT.s 			page 107


 6038 00ac D3ED597A 		vldr.32	s15, [r3, #356]
 6039 00b0 9FED827A 		vldr.32	s14, .L248+4
 6040 00b4 67EE877A 		vmul.f32	s15, s15, s14
 6041 00b8 FDEEE77A 		vcvt.s32.f32	s15, s15
 6042 00bc 17EE902A 		vmov	r2, s15	@ int
 6043 00c0 7D4B     		ldr	r3, .L248
 6044 00c2 C3F83821 		str	r2, [r3, #312]
 6045 00c6 56E1     		b	.L237
 6046              	.L236:
 6047              		.loc 1 756 16
 6048 00c8 7B4B     		ldr	r3, .L248
 6049 00ca B3F81431 		ldrh	r3, [r3, #276]
 6050 00ce 9B09     		lsrs	r3, r3, #6
 6051 00d0 9BB2     		uxth	r3, r3
 6052 00d2 03F00103 		and	r3, r3, #1
 6053              		.loc 1 756 15
 6054 00d6 002B     		cmp	r3, #0
 6055 00d8 46D0     		beq	.L238
 6056              		.loc 1 757 7
 6057 00da 774B     		ldr	r3, .L248
 6058 00dc D3ED547A 		vldr.32	s15, [r3, #336]
 6059 00e0 9FED767A 		vldr.32	s14, .L248+4
 6060 00e4 67EE877A 		vmul.f32	s15, s15, s14
 6061 00e8 FDEEE77A 		vcvt.s32.f32	s15, s15
 6062 00ec 17EE902A 		vmov	r2, s15	@ int
 6063 00f0 714B     		ldr	r3, .L248
 6064 00f2 C3F82421 		str	r2, [r3, #292]
 6065 00f6 704B     		ldr	r3, .L248
 6066 00f8 D3ED557A 		vldr.32	s15, [r3, #340]
 6067 00fc 9FED6F7A 		vldr.32	s14, .L248+4
 6068 0100 67EE877A 		vmul.f32	s15, s15, s14
 6069 0104 FDEEE77A 		vcvt.s32.f32	s15, s15
 6070 0108 17EE902A 		vmov	r2, s15	@ int
 6071 010c 6A4B     		ldr	r3, .L248
 6072 010e C3F82821 		str	r2, [r3, #296]
 6073 0112 694B     		ldr	r3, .L248
 6074 0114 D3ED567A 		vldr.32	s15, [r3, #344]
 6075 0118 9FED687A 		vldr.32	s14, .L248+4
 6076 011c 67EE877A 		vmul.f32	s15, s15, s14
 6077 0120 FDEEE77A 		vcvt.s32.f32	s15, s15
 6078 0124 17EE902A 		vmov	r2, s15	@ int
 6079 0128 634B     		ldr	r3, .L248
 6080 012a C3F82C21 		str	r2, [r3, #300]
 6081              		.loc 1 758 7
 6082 012e 624B     		ldr	r3, .L248
 6083 0130 B3F81431 		ldrh	r3, [r3, #276]
 6084 0134 43F00203 		orr	r3, r3, #2
 6085 0138 9AB2     		uxth	r2, r3
 6086 013a 5F4B     		ldr	r3, .L248
 6087 013c A3F81421 		strh	r2, [r3, #276]	@ movhi
 6088              		.loc 1 759 7
 6089 0140 5D4B     		ldr	r3, .L248
 6090 0142 D3F82831 		ldr	r3, [r3, #296]
 6091 0146 5C4A     		ldr	r2, .L248
 6092 0148 C2F83031 		str	r3, [r2, #304]
 6093 014c 5A4B     		ldr	r3, .L248
 6094 014e D3F82431 		ldr	r3, [r3, #292]
ARM GAS  /tmp/cc3mS0ZT.s 			page 108


 6095 0152 594A     		ldr	r2, .L248
 6096 0154 C2F83431 		str	r3, [r2, #308]
 6097 0158 574B     		ldr	r3, .L248
 6098 015a D3F82C31 		ldr	r3, [r3, #300]
 6099 015e 5B42     		rsbs	r3, r3, #0
 6100 0160 554A     		ldr	r2, .L248
 6101 0162 C2F83831 		str	r3, [r2, #312]
 6102 0166 06E1     		b	.L237
 6103              	.L238:
 6104              		.loc 1 760 16
 6105 0168 534B     		ldr	r3, .L248
 6106 016a B3F81431 		ldrh	r3, [r3, #276]
 6107 016e 03F00103 		and	r3, r3, #1
 6108              		.loc 1 760 15
 6109 0172 002B     		cmp	r3, #0
 6110 0174 05D0     		beq	.L239
 6111              		.loc 1 761 7
 6112 0176 524A     		ldr	r2, .L248+8
 6113 0178 5249     		ldr	r1, .L248+12
 6114 017a 5348     		ldr	r0, .L248+16
 6115 017c FFF7FEFF 		bl	enu_of_ecef_vect_i
 6116 0180 F9E0     		b	.L237
 6117              	.L239:
 6118              		.loc 1 762 16
 6119 0182 4D4B     		ldr	r3, .L248
 6120 0184 B3F81431 		ldrh	r3, [r3, #276]
 6121 0188 5B09     		lsrs	r3, r3, #5
 6122 018a 9BB2     		uxth	r3, r3
 6123 018c 03F00103 		and	r3, r3, #1
 6124              		.loc 1 762 15
 6125 0190 002B     		cmp	r3, #0
 6126 0192 38D0     		beq	.L240
 6127              		.loc 1 764 7
 6128 0194 484B     		ldr	r3, .L248
 6129 0196 D3ED517A 		vldr.32	s15, [r3, #324]
 6130 019a 9FED487A 		vldr.32	s14, .L248+4
 6131 019e 67EE877A 		vmul.f32	s15, s15, s14
 6132 01a2 FDEEE77A 		vcvt.s32.f32	s15, s15
 6133 01a6 17EE902A 		vmov	r2, s15	@ int
 6134 01aa 434B     		ldr	r3, .L248
 6135 01ac C3F81821 		str	r2, [r3, #280]
 6136 01b0 414B     		ldr	r3, .L248
 6137 01b2 D3ED527A 		vldr.32	s15, [r3, #328]
 6138 01b6 9FED417A 		vldr.32	s14, .L248+4
 6139 01ba 67EE877A 		vmul.f32	s15, s15, s14
 6140 01be FDEEE77A 		vcvt.s32.f32	s15, s15
 6141 01c2 17EE902A 		vmov	r2, s15	@ int
 6142 01c6 3C4B     		ldr	r3, .L248
 6143 01c8 C3F81C21 		str	r2, [r3, #284]
 6144 01cc 3A4B     		ldr	r3, .L248
 6145 01ce D3ED537A 		vldr.32	s15, [r3, #332]
 6146 01d2 9FED3A7A 		vldr.32	s14, .L248+4
 6147 01d6 67EE877A 		vmul.f32	s15, s15, s14
 6148 01da FDEEE77A 		vcvt.s32.f32	s15, s15
 6149 01de 17EE902A 		vmov	r2, s15	@ int
 6150 01e2 354B     		ldr	r3, .L248
 6151 01e4 C3F82021 		str	r2, [r3, #288]
ARM GAS  /tmp/cc3mS0ZT.s 			page 109


 6152              		.loc 1 765 7
 6153 01e8 334B     		ldr	r3, .L248
 6154 01ea B3F81431 		ldrh	r3, [r3, #276]
 6155 01ee 43F00103 		orr	r3, r3, #1
 6156 01f2 9AB2     		uxth	r2, r3
 6157 01f4 304B     		ldr	r3, .L248
 6158 01f6 A3F81421 		strh	r2, [r3, #276]	@ movhi
 6159              		.loc 1 766 7
 6160 01fa 314A     		ldr	r2, .L248+8
 6161 01fc 3149     		ldr	r1, .L248+12
 6162 01fe 3248     		ldr	r0, .L248+16
 6163 0200 FFF7FEFF 		bl	enu_of_ecef_vect_i
 6164 0204 B7E0     		b	.L237
 6165              	.L240:
 6166              		.loc 1 768 13
 6167 0206 0123     		movs	r3, #1
 6168 0208 0193     		str	r3, [sp, #4]
 6169 020a B4E0     		b	.L237
 6170              	.L234:
 6171              		.loc 1 770 19
 6172 020c 2A4B     		ldr	r3, .L248
 6173 020e 93F8F830 		ldrb	r3, [r3, #248]	@ zero_extendqisi2
 6174              		.loc 1 770 13
 6175 0212 002B     		cmp	r3, #0
 6176 0214 00F0AD80 		beq	.L241
 6177              		.loc 1 771 9
 6178 0218 274B     		ldr	r3, .L248
 6179 021a B3F81431 		ldrh	r3, [r3, #276]
 6180 021e 5B08     		lsrs	r3, r3, #1
 6181 0220 9BB2     		uxth	r3, r3
 6182 0222 03F00103 		and	r3, r3, #1
 6183              		.loc 1 771 8
 6184 0226 002B     		cmp	r3, #0
 6185 0228 12D0     		beq	.L242
 6186              		.loc 1 772 7
 6187 022a 234B     		ldr	r3, .L248
 6188 022c D3F82831 		ldr	r3, [r3, #296]
 6189 0230 214A     		ldr	r2, .L248
 6190 0232 C2F83031 		str	r3, [r2, #304]
 6191 0236 204B     		ldr	r3, .L248
 6192 0238 D3F82431 		ldr	r3, [r3, #292]
 6193 023c 1E4A     		ldr	r2, .L248
 6194 023e C2F83431 		str	r3, [r2, #308]
 6195 0242 1D4B     		ldr	r3, .L248
 6196 0244 D3F82C31 		ldr	r3, [r3, #300]
 6197 0248 5B42     		rsbs	r3, r3, #0
 6198 024a 1B4A     		ldr	r2, .L248
 6199 024c C2F83831 		str	r3, [r2, #312]
 6200              	.L242:
 6201              		.loc 1 774 9
 6202 0250 194B     		ldr	r3, .L248
 6203 0252 B3F81431 		ldrh	r3, [r3, #276]
 6204 0256 DB09     		lsrs	r3, r3, #7
 6205 0258 9BB2     		uxth	r3, r3
 6206 025a 03F00103 		and	r3, r3, #1
 6207              		.loc 1 774 8
 6208 025e 002B     		cmp	r3, #0
ARM GAS  /tmp/cc3mS0ZT.s 			page 110


 6209 0260 34D0     		beq	.L243
 6210              		.loc 1 775 7
 6211 0262 154B     		ldr	r3, .L248
 6212 0264 D3ED577A 		vldr.32	s15, [r3, #348]
 6213 0268 9FED147A 		vldr.32	s14, .L248+4
 6214 026c 67EE877A 		vmul.f32	s15, s15, s14
 6215 0270 FDEEE77A 		vcvt.s32.f32	s15, s15
 6216 0274 17EE902A 		vmov	r2, s15	@ int
 6217 0278 0F4B     		ldr	r3, .L248
 6218 027a C3F83021 		str	r2, [r3, #304]
 6219 027e 0E4B     		ldr	r3, .L248
 6220 0280 D3ED587A 		vldr.32	s15, [r3, #352]
 6221 0284 9FED0D7A 		vldr.32	s14, .L248+4
 6222 0288 67EE877A 		vmul.f32	s15, s15, s14
 6223 028c FDEEE77A 		vcvt.s32.f32	s15, s15
 6224 0290 17EE902A 		vmov	r2, s15	@ int
 6225 0294 084B     		ldr	r3, .L248
 6226 0296 C3F83421 		str	r2, [r3, #308]
 6227 029a 074B     		ldr	r3, .L248
 6228 029c D3ED597A 		vldr.32	s15, [r3, #356]
 6229 02a0 9FED067A 		vldr.32	s14, .L248+4
 6230 02a4 67EE877A 		vmul.f32	s15, s15, s14
 6231 02a8 FDEEE77A 		vcvt.s32.f32	s15, s15
 6232 02ac 17EE902A 		vmov	r2, s15	@ int
 6233 02b0 014B     		ldr	r3, .L248
 6234 02b2 C3F83821 		str	r2, [r3, #312]
 6235 02b6 5EE0     		b	.L237
 6236              	.L249:
 6237              		.align	2
 6238              	.L248:
 6239 02b8 00000000 		.word	state
 6240 02bc 00000049 		.word	1224736768
 6241 02c0 18010000 		.word	state+280
 6242 02c4 1C000000 		.word	state+28
 6243 02c8 30010000 		.word	state+304
 6244              	.L243:
 6245              		.loc 1 776 16
 6246 02cc 334B     		ldr	r3, .L250
 6247 02ce B3F81431 		ldrh	r3, [r3, #276]
 6248 02d2 9B09     		lsrs	r3, r3, #6
 6249 02d4 9BB2     		uxth	r3, r3
 6250 02d6 03F00103 		and	r3, r3, #1
 6251              		.loc 1 776 15
 6252 02da 002B     		cmp	r3, #0
 6253 02dc 46D0     		beq	.L244
 6254              		.loc 1 777 7
 6255 02de 2F4B     		ldr	r3, .L250
 6256 02e0 D3ED547A 		vldr.32	s15, [r3, #336]
 6257 02e4 9FED2E7A 		vldr.32	s14, .L250+4
 6258 02e8 67EE877A 		vmul.f32	s15, s15, s14
 6259 02ec FDEEE77A 		vcvt.s32.f32	s15, s15
 6260 02f0 17EE902A 		vmov	r2, s15	@ int
 6261 02f4 294B     		ldr	r3, .L250
 6262 02f6 C3F82421 		str	r2, [r3, #292]
 6263 02fa 284B     		ldr	r3, .L250
 6264 02fc D3ED557A 		vldr.32	s15, [r3, #340]
 6265 0300 9FED277A 		vldr.32	s14, .L250+4
ARM GAS  /tmp/cc3mS0ZT.s 			page 111


 6266 0304 67EE877A 		vmul.f32	s15, s15, s14
 6267 0308 FDEEE77A 		vcvt.s32.f32	s15, s15
 6268 030c 17EE902A 		vmov	r2, s15	@ int
 6269 0310 224B     		ldr	r3, .L250
 6270 0312 C3F82821 		str	r2, [r3, #296]
 6271 0316 214B     		ldr	r3, .L250
 6272 0318 D3ED567A 		vldr.32	s15, [r3, #344]
 6273 031c 9FED207A 		vldr.32	s14, .L250+4
 6274 0320 67EE877A 		vmul.f32	s15, s15, s14
 6275 0324 FDEEE77A 		vcvt.s32.f32	s15, s15
 6276 0328 17EE902A 		vmov	r2, s15	@ int
 6277 032c 1B4B     		ldr	r3, .L250
 6278 032e C3F82C21 		str	r2, [r3, #300]
 6279              		.loc 1 778 7
 6280 0332 1A4B     		ldr	r3, .L250
 6281 0334 B3F81431 		ldrh	r3, [r3, #276]
 6282 0338 43F00203 		orr	r3, r3, #2
 6283 033c 9AB2     		uxth	r2, r3
 6284 033e 174B     		ldr	r3, .L250
 6285 0340 A3F81421 		strh	r2, [r3, #276]	@ movhi
 6286              		.loc 1 779 7
 6287 0344 154B     		ldr	r3, .L250
 6288 0346 D3F82831 		ldr	r3, [r3, #296]
 6289 034a 144A     		ldr	r2, .L250
 6290 034c C2F83031 		str	r3, [r2, #304]
 6291 0350 124B     		ldr	r3, .L250
 6292 0352 D3F82431 		ldr	r3, [r3, #292]
 6293 0356 114A     		ldr	r2, .L250
 6294 0358 C2F83431 		str	r3, [r2, #308]
 6295 035c 0F4B     		ldr	r3, .L250
 6296 035e D3F82C31 		ldr	r3, [r3, #300]
 6297 0362 5B42     		rsbs	r3, r3, #0
 6298 0364 0D4A     		ldr	r2, .L250
 6299 0366 C2F83831 		str	r3, [r2, #312]
 6300 036a 04E0     		b	.L237
 6301              	.L244:
 6302              		.loc 1 781 13
 6303 036c 0223     		movs	r3, #2
 6304 036e 0193     		str	r3, [sp, #4]
 6305 0370 01E0     		b	.L237
 6306              	.L241:
 6307              		.loc 1 784 11
 6308 0372 0323     		movs	r3, #3
 6309 0374 0193     		str	r3, [sp, #4]
 6310              	.L237:
 6311              		.loc 1 786 6
 6312 0376 019B     		ldr	r3, [sp, #4]
 6313 0378 002B     		cmp	r3, #0
 6314 037a 0BD1     		bne	.L247
 6315              		.loc 1 792 3
 6316 037c 074B     		ldr	r3, .L250
 6317 037e B3F81431 		ldrh	r3, [r3, #276]
 6318 0382 43F00403 		orr	r3, r3, #4
 6319 0386 9AB2     		uxth	r2, r3
 6320 0388 044B     		ldr	r3, .L250
 6321 038a A3F81421 		strh	r2, [r3, #276]	@ movhi
 6322 038e 02E0     		b	.L231
ARM GAS  /tmp/cc3mS0ZT.s 			page 112


 6323              	.L246:
 6324              		.loc 1 746 5
 6325 0390 00BF     		nop
 6326 0392 00E0     		b	.L231
 6327              	.L247:
 6328              		.loc 1 789 5
 6329 0394 00BF     		nop
 6330              	.L231:
 6331              		.loc 1 793 1
 6332 0396 03B0     		add	sp, sp, #12
 6333              		.cfi_def_cfa_offset 4
 6334              		@ sp needed
 6335 0398 5DF804FB 		ldr	pc, [sp], #4
 6336              	.L251:
 6337              		.align	2
 6338              	.L250:
 6339 039c 00000000 		.word	state
 6340 03a0 00000049 		.word	1224736768
 6341              		.cfi_endproc
 6342              	.LFE184:
 6343              		.size	stateCalcSpeedEnu_i, .-stateCalcSpeedEnu_i
 6344              		.section	.text.stateCalcSpeedEcef_i,"ax",%progbits
 6345              		.align	1
 6346              		.p2align 4,,15
 6347              		.global	stateCalcSpeedEcef_i
 6348              		.syntax unified
 6349              		.thumb
 6350              		.thumb_func
 6351              		.fpu fpv4-sp-d16
 6352              		.type	stateCalcSpeedEcef_i, %function
 6353              	stateCalcSpeedEcef_i:
 6354              	.LFB185:
 6355              		.loc 1 796 1
 6356              		.cfi_startproc
 6357              		@ args = 0, pretend = 0, frame = 0
 6358              		@ frame_needed = 0, uses_anonymous_args = 0
 6359 0000 08B5     		push	{r3, lr}
 6360              		.cfi_def_cfa_offset 8
 6361              		.cfi_offset 3, -8
 6362              		.cfi_offset 14, -4
 6363              		.loc 1 797 7
 6364 0002 4D4B     		ldr	r3, .L261
 6365 0004 B3F81431 		ldrh	r3, [r3, #276]
 6366 0008 03F00103 		and	r3, r3, #1
 6367              		.loc 1 797 6
 6368 000c 002B     		cmp	r3, #0
 6369 000e 40F08E80 		bne	.L259
 6370              		.loc 1 801 7
 6371 0012 494B     		ldr	r3, .L261
 6372 0014 B3F81431 		ldrh	r3, [r3, #276]
 6373 0018 5B09     		lsrs	r3, r3, #5
 6374 001a 9BB2     		uxth	r3, r3
 6375 001c 03F00103 		and	r3, r3, #1
 6376              		.loc 1 801 6
 6377 0020 002B     		cmp	r3, #0
 6378 0022 2AD0     		beq	.L255
 6379              		.loc 1 802 5
ARM GAS  /tmp/cc3mS0ZT.s 			page 113


 6380 0024 444B     		ldr	r3, .L261
 6381 0026 D3ED517A 		vldr.32	s15, [r3, #324]
 6382 002a 9FED447A 		vldr.32	s14, .L261+4
 6383 002e 67EE877A 		vmul.f32	s15, s15, s14
 6384 0032 FDEEE77A 		vcvt.s32.f32	s15, s15
 6385 0036 17EE902A 		vmov	r2, s15	@ int
 6386 003a 3F4B     		ldr	r3, .L261
 6387 003c C3F81821 		str	r2, [r3, #280]
 6388 0040 3D4B     		ldr	r3, .L261
 6389 0042 D3ED527A 		vldr.32	s15, [r3, #328]
 6390 0046 9FED3D7A 		vldr.32	s14, .L261+4
 6391 004a 67EE877A 		vmul.f32	s15, s15, s14
 6392 004e FDEEE77A 		vcvt.s32.f32	s15, s15
 6393 0052 17EE902A 		vmov	r2, s15	@ int
 6394 0056 384B     		ldr	r3, .L261
 6395 0058 C3F81C21 		str	r2, [r3, #284]
 6396 005c 364B     		ldr	r3, .L261
 6397 005e D3ED537A 		vldr.32	s15, [r3, #332]
 6398 0062 9FED367A 		vldr.32	s14, .L261+4
 6399 0066 67EE877A 		vmul.f32	s15, s15, s14
 6400 006a FDEEE77A 		vcvt.s32.f32	s15, s15
 6401 006e 17EE902A 		vmov	r2, s15	@ int
 6402 0072 314B     		ldr	r3, .L261
 6403 0074 C3F82021 		str	r2, [r3, #288]
 6404 0078 4FE0     		b	.L256
 6405              	.L255:
 6406              		.loc 1 803 14
 6407 007a 2F4B     		ldr	r3, .L261
 6408 007c B3F81431 		ldrh	r3, [r3, #276]
 6409 0080 5B08     		lsrs	r3, r3, #1
 6410 0082 9BB2     		uxth	r3, r3
 6411 0084 03F00103 		and	r3, r3, #1
 6412              		.loc 1 803 13
 6413 0088 002B     		cmp	r3, #0
 6414 008a 05D0     		beq	.L257
 6415              		.loc 1 804 5
 6416 008c 2C4A     		ldr	r2, .L261+8
 6417 008e 2D49     		ldr	r1, .L261+12
 6418 0090 2D48     		ldr	r0, .L261+16
 6419 0092 FFF7FEFF 		bl	ecef_of_ned_vect_i
 6420 0096 40E0     		b	.L256
 6421              	.L257:
 6422              		.loc 1 805 14
 6423 0098 274B     		ldr	r3, .L261
 6424 009a B3F81431 		ldrh	r3, [r3, #276]
 6425 009e 9B09     		lsrs	r3, r3, #6
 6426 00a0 9BB2     		uxth	r3, r3
 6427 00a2 03F00103 		and	r3, r3, #1
 6428              		.loc 1 805 13
 6429 00a6 002B     		cmp	r3, #0
 6430 00a8 43D0     		beq	.L260
 6431              		.loc 1 807 5
 6432 00aa 234B     		ldr	r3, .L261
 6433 00ac D3ED547A 		vldr.32	s15, [r3, #336]
 6434 00b0 9FED227A 		vldr.32	s14, .L261+4
 6435 00b4 67EE877A 		vmul.f32	s15, s15, s14
 6436 00b8 FDEEE77A 		vcvt.s32.f32	s15, s15
ARM GAS  /tmp/cc3mS0ZT.s 			page 114


 6437 00bc 17EE902A 		vmov	r2, s15	@ int
 6438 00c0 1D4B     		ldr	r3, .L261
 6439 00c2 C3F82421 		str	r2, [r3, #292]
 6440 00c6 1C4B     		ldr	r3, .L261
 6441 00c8 D3ED557A 		vldr.32	s15, [r3, #340]
 6442 00cc 9FED1B7A 		vldr.32	s14, .L261+4
 6443 00d0 67EE877A 		vmul.f32	s15, s15, s14
 6444 00d4 FDEEE77A 		vcvt.s32.f32	s15, s15
 6445 00d8 17EE902A 		vmov	r2, s15	@ int
 6446 00dc 164B     		ldr	r3, .L261
 6447 00de C3F82821 		str	r2, [r3, #296]
 6448 00e2 154B     		ldr	r3, .L261
 6449 00e4 D3ED567A 		vldr.32	s15, [r3, #344]
 6450 00e8 9FED147A 		vldr.32	s14, .L261+4
 6451 00ec 67EE877A 		vmul.f32	s15, s15, s14
 6452 00f0 FDEEE77A 		vcvt.s32.f32	s15, s15
 6453 00f4 17EE902A 		vmov	r2, s15	@ int
 6454 00f8 0F4B     		ldr	r3, .L261
 6455 00fa C3F82C21 		str	r2, [r3, #300]
 6456              		.loc 1 808 5
 6457 00fe 0E4B     		ldr	r3, .L261
 6458 0100 B3F81431 		ldrh	r3, [r3, #276]
 6459 0104 43F00203 		orr	r3, r3, #2
 6460 0108 9AB2     		uxth	r2, r3
 6461 010a 0B4B     		ldr	r3, .L261
 6462 010c A3F81421 		strh	r2, [r3, #276]	@ movhi
 6463              		.loc 1 809 5
 6464 0110 0B4A     		ldr	r2, .L261+8
 6465 0112 0C49     		ldr	r1, .L261+12
 6466 0114 0C48     		ldr	r0, .L261+16
 6467 0116 FFF7FEFF 		bl	ecef_of_ned_vect_i
 6468              	.L256:
 6469              		.loc 1 817 3
 6470 011a 074B     		ldr	r3, .L261
 6471 011c B3F81431 		ldrh	r3, [r3, #276]
 6472 0120 43F00103 		orr	r3, r3, #1
 6473 0124 9AB2     		uxth	r2, r3
 6474 0126 044B     		ldr	r3, .L261
 6475 0128 A3F81421 		strh	r2, [r3, #276]	@ movhi
 6476 012c 02E0     		b	.L252
 6477              	.L259:
 6478              		.loc 1 798 5
 6479 012e 00BF     		nop
 6480 0130 00E0     		b	.L252
 6481              	.L260:
 6482              		.loc 1 814 5
 6483 0132 00BF     		nop
 6484              	.L252:
 6485              		.loc 1 818 1
 6486 0134 08BD     		pop	{r3, pc}
 6487              	.L262:
 6488 0136 00BF     		.align	2
 6489              	.L261:
 6490 0138 00000000 		.word	state
 6491 013c 00000049 		.word	1224736768
 6492 0140 24010000 		.word	state+292
 6493 0144 1C000000 		.word	state+28
ARM GAS  /tmp/cc3mS0ZT.s 			page 115


 6494 0148 18010000 		.word	state+280
 6495              		.cfi_endproc
 6496              	.LFE185:
 6497              		.size	stateCalcSpeedEcef_i, .-stateCalcSpeedEcef_i
 6498              		.section	.text.stateCalcHorizontalSpeedNorm_i,"ax",%progbits
 6499              		.align	1
 6500              		.p2align 4,,15
 6501              		.global	stateCalcHorizontalSpeedNorm_i
 6502              		.syntax unified
 6503              		.thumb
 6504              		.thumb_func
 6505              		.fpu fpv4-sp-d16
 6506              		.type	stateCalcHorizontalSpeedNorm_i, %function
 6507              	stateCalcHorizontalSpeedNorm_i:
 6508              	.LFB186:
 6509              		.loc 1 821 1
 6510              		.cfi_startproc
 6511              		@ args = 0, pretend = 0, frame = 16
 6512              		@ frame_needed = 0, uses_anonymous_args = 0
 6513 0000 00B5     		push	{lr}
